                                      1 ;--------------------------------------------------------
                                      2 ; File Created by SDCC : free open source ANSI-C Compiler
                                      3 ; Version 4.2.0 #13081 (MINGW64)
                                      4 ;--------------------------------------------------------
                                      5 	.module exsoccer
                                      6 	.optsdcc -mz80
                                      7 	
                                      8 ;--------------------------------------------------------
                                      9 ; Public variables in this module
                                     10 ;--------------------------------------------------------
                                     11 	.globl _TickGoalCelebration
                                     12 	.globl _DEBUG_INIT
                                     13 	.globl _TickShotCursor
                                     14 	.globl _TickPonPonGirlsAnimation
                                     15 	.globl _InitPonPonGirls
                                     16 	.globl _PutPonPonGirlSprite
                                     17 	.globl _PerformPass
                                     18 	.globl _EnforcePenaltyBoxRestriction
                                     19 	.globl _GetClosestPlayerToBall
                                     20 	.globl _TickBallFlying
                                     21 	.globl _GoalkeeperWithBall
                                     22 	.globl _TickThrowIn
                                     23 	.globl _TickGoalkeeperAnimation
                                     24 	.globl _UpdatePassTarget
                                     25 	.globl _TickBallCollision
                                     26 	.globl _TickAI
                                     27 	.globl _TickCheckBallBoundaries
                                     28 	.globl _ResetBallInfo
                                     29 	.globl _TickTeamJoystick
                                     30 	.globl _GetPlayerIdByRole
                                     31 	.globl _PutBallOnPlayerFeet
                                     32 	.globl _ClearTextFromLayerA
                                     33 	.globl _TickShowKickOff
                                     34 	.globl _TimeUp
                                     35 	.globl _ResetPlayersInfo
                                     36 	.globl _IsTeamJoystickTriggerPressed
                                     37 	.globl _GetJoystick2Direction
                                     38 	.globl _GetJoystick1Direction
                                     39 	.globl _TickPlayerToOwnTarget
                                     40 	.globl _PutBallSprite
                                     41 	.globl _UpdateSpritesPositions
                                     42 	.globl _ShowHeaderInfo
                                     43 	.globl _ShowFieldZone
                                     44 	.globl _SetTeam2Palette
                                     45 	.globl _SetTeam1Palette
                                     46 	.globl _V9_PrintLayerAStringAtPos
                                     47 	.globl _V9_PutLayerBTileAtPos
                                     48 	.globl _V9_PutLayerATileAtPos
                                     49 	.globl _InitPalette
                                     50 	.globl _V9_Detect
                                     51 	.globl _V9_SetScrollingBY
                                     52 	.globl _V9_SetScrollingY
                                     53 	.globl _V9_SetScreenMode
                                     54 	.globl _V9_WriteVRAM_CurrentAddr
                                     55 	.globl _V9_FillVRAM16_CurrentAddr
                                     56 	.globl _V9_FillVRAM_CurrentAddr
                                     57 	.globl _V9_SetWriteAddress
                                     58 	.globl _V9_GetRegister
                                     59 	.globl _V9_SetRegister16
                                     60 	.globl _V9_SetRegister
                                     61 	.globl _V9_SetPort
                                     62 	.globl _Print_SetColor
                                     63 	.globl _Print_DrawText
                                     64 	.globl _Print_SetTextFont
                                     65 	.globl _VDP_RegWriteBakMask
                                     66 	.globl _VDP_SetMode
                                     67 	.globl _VDP_ClearVRAM
                                     68 	.globl _g_GkRecoilY
                                     69 	.globl _g_VSynch
                                     70 	.globl _g_ThrowInPlayerId
                                     71 	.globl _g_CornerKickTargetId
                                     72 	.globl _g_GoalKickSide
                                     73 	.globl _g_CornerKickSide
                                     74 	.globl _g_GoalScorerId
                                     75 	.globl _g_FioBre
                                     76 	.globl _g_ShotCursorDir
                                     77 	.globl _g_ShotCursorX
                                     78 	.globl _g_ShootCooldown
                                     79 	.globl _g_ActionCooldown
                                     80 	.globl _g_GameLevel
                                     81 	.globl _g_GameWith2Players
                                     82 	.globl _g_PassTargetPlayer
                                     83 	.globl _g_Team2ActivePlayer
                                     84 	.globl _g_Team1ActivePlayer
                                     85 	.globl _g_Timer
                                     86 	.globl _g_FieldScrollSpeed
                                     87 	.globl _g_MatchStatus
                                     88 	.globl _g_PlayersPositioningPhaseCount
                                     89 	.globl _g_FieldScrollingActionInProgress
                                     90 	.globl _g_FieldCurrentYPosition
                                     91 	.globl _g_SecondsToEndOfMatch
                                     92 	.globl _g_RestartKickTeamId
                                     93 	.globl _g_ActiveFieldZone
                                     94 	.globl _g_Ball
                                     95 	.globl _g_PonPonGirls
                                     96 	.globl _g_Players
                                     97 	.globl _g_Team2Score
                                     98 	.globl _g_Team1Score
                                     99 	.globl _g_Team2PaletteId
                                    100 	.globl _g_Team1PaletteId
                                    101 	.globl _g_FrameCounter
                                    102 	.globl _g_SLTSL
                                    103 	.globl _g_GRPACY
                                    104 	.globl _g_GRPACX
                                    105 	.globl _g_LOGOPR
                                    106 	.globl _g_CMASK
                                    107 	.globl _g_CLOC
                                    108 	.globl _g_FNKSTR
                                    109 	.globl _g_ATRBYT
                                    110 	.globl _g_BDRCLR
                                    111 	.globl _g_BAKCLR
                                    112 	.globl _g_FORCLR
                                    113 	.globl _g_CSRX
                                    114 	.globl _g_CSRY
                                    115 	.globl _g_CLIKSW
                                    116 	.globl _g_MLTPAT
                                    117 	.globl _g_MLTATR
                                    118 	.globl _g_MLTCGP
                                    119 	.globl _g_MLTCOL
                                    120 	.globl _g_MLTNAM
                                    121 	.globl _g_GRPPAT
                                    122 	.globl _g_GRPATR
                                    123 	.globl _g_GRPCGP
                                    124 	.globl _g_GRPCOL
                                    125 	.globl _g_GRPNAM
                                    126 	.globl _g_T32PAT
                                    127 	.globl _g_T32ATR
                                    128 	.globl _g_T32CGP
                                    129 	.globl _g_T32COL
                                    130 	.globl _g_T32NAM
                                    131 	.globl _g_TXTPAT
                                    132 	.globl _g_TXTATR
                                    133 	.globl _g_TXTCGP
                                    134 	.globl _g_TXTCOL
                                    135 	.globl _g_TXTNAM
                                    136 	.globl _g_CLMLST
                                    137 	.globl _g_CRTCNT
                                    138 	.globl _g_LINLEN
                                    139 	.globl _g_LINL32
                                    140 	.globl _g_LINL40
                                    141 	.globl _g_BDOS
                                    142 	.globl _g_MASTER
                                    143 	.globl _g_RAMAD3
                                    144 	.globl _g_RAMAD2
                                    145 	.globl _g_RAMAD1
                                    146 	.globl _g_RAMAD0
                                    147 	.globl _g_BREAKV
                                    148 	.globl _g_DISKVE
                                    149 	.globl _g_KANJTABLE
                                    150 	.globl _g_STRSRC
                                    151 	.globl _g_SUBRID
                                    152 	.globl _g_CHAR_16
                                    153 	.globl _g_MSXMID
                                    154 	.globl _g_MSXVER
                                    155 	.globl _g_ROMVersion
                                    156 	.globl _g_BASRVN
                                    157 	.globl _g_VDP_DW
                                    158 	.globl _g_VDP_DR
                                    159 	.globl _g_CGTABL
                                    160 	.globl _g_SVFFFD
                                    161 	.globl _g_RG27SAV
                                    162 	.globl _g_RG26SAV
                                    163 	.globl _g_RG25SAV
                                    164 	.globl _g_SVFFF8
                                    165 	.globl _g_MINROM
                                    166 	.globl _g_RG23SAV
                                    167 	.globl _g_RG22SAV
                                    168 	.globl _g_RG21SAV
                                    169 	.globl _g_RG20SAV
                                    170 	.globl _g_RG19SAV
                                    171 	.globl _g_RG18SAV
                                    172 	.globl _g_RG17SAV
                                    173 	.globl _g_RG16SAV
                                    174 	.globl _g_RG15SAV
                                    175 	.globl _g_RG14SAV
                                    176 	.globl _g_RG13SAV
                                    177 	.globl _g_RG12SAV
                                    178 	.globl _g_RG11SAV
                                    179 	.globl _g_RG10SAV
                                    180 	.globl _g_RG09SAV
                                    181 	.globl _g_RG08SAV
                                    182 	.globl _g_PROCNM
                                    183 	.globl _g_SLTWRK
                                    184 	.globl _g_SLTATR
                                    185 	.globl _g_SLTTBL
                                    186 	.globl _g_EXPTBL
                                    187 	.globl _g_MNROM
                                    188 	.globl _g_DRWANG
                                    189 	.globl _g_DRWSCL
                                    190 	.globl _g_DRWFLG
                                    191 	.globl _g_GYPOS
                                    192 	.globl _g_GXPOS
                                    193 	.globl _g_BRDATR
                                    194 	.globl _g_CASPRV
                                    195 	.globl _g_OLDSCR
                                    196 	.globl _g_SCRMOD
                                    197 	.globl _g_FLBMEM
                                    198 	.globl _g_KANAMD
                                    199 	.globl _g_KANAST
                                    200 	.globl _g_CAPST
                                    201 	.globl _g_CSTYLE
                                    202 	.globl _g_CSRSW
                                    203 	.globl _g_INSFLG
                                    204 	.globl _g_ESCCNT
                                    205 	.globl _g_GRPHED
                                    206 	.globl _g_WINWID
                                    207 	.globl _g_LOWLIM
                                    208 	.globl _g_INTCNT
                                    209 	.globl _g_INTVAL
                                    210 	.globl _g_JIFFY
                                    211 	.globl _g_PADX
                                    212 	.globl _g_PADY
                                    213 	.globl _g_INTFLG
                                    214 	.globl _g_RTYCNT
                                    215 	.globl _g_TRPTBL
                                    216 	.globl _g_HIMEM
                                    217 	.globl _g_BOTTOM
                                    218 	.globl _g_PATWRK
                                    219 	.globl _g_LINWRK
                                    220 	.globl _g_KEYBUF
                                    221 	.globl _g_NEWKEY
                                    222 	.globl _g_OLDKEY
                                    223 	.globl _g_CLIKFL
                                    224 	.globl _g_ONGSBF
                                    225 	.globl _g_FNKFLG
                                    226 	.globl _g_FNKSWI
                                    227 	.globl _g_CODSAV
                                    228 	.globl _g_FSTPOS
                                    229 	.globl _g_LINTTB
                                    230 	.globl _g_BASROM
                                    231 	.globl _g_ENSTOP
                                    232 	.globl _g_VCBC
                                    233 	.globl _g_VCBB
                                    234 	.globl _g_VCBA
                                    235 	.globl _g_PLYCNT
                                    236 	.globl _g_MUSICF
                                    237 	.globl _g_QUEUEN
                                    238 	.globl _g_MCLPTR
                                    239 	.globl _g_MCLLEN
                                    240 	.globl _g_SAVVOL
                                    241 	.globl _g_VOICEN
                                    242 	.globl _g_SAVSP
                                    243 	.globl _g_PRSCNT
                                    244 	.globl _g_LSTMOD
                                    245 	.globl _g_LSTCOM
                                    246 	.globl _g_COMMSK
                                    247 	.globl _g_ESTBLS
                                    248 	.globl _g_FLAGS
                                    249 	.globl _g_ERRORS
                                    250 	.globl _g_DATCNT
                                    251 	.globl _g_DEVNUM
                                    252 	.globl _g_OLDINT
                                    253 	.globl _g_OLDSTT
                                    254 	.globl _g_MEXBIh
                                    255 	.globl _g_RSIQLN
                                    256 	.globl _g_RSFCB
                                    257 	.globl _g_TOCNT
                                    258 	.globl _g_RSTMP
                                    259 	.globl _g_YSAVE
                                    260 	.globl _g_XSAVE
                                    261 	.globl _g_NORUSE
                                    262 	.globl _g_MODE
                                    263 	.globl _g_ROMA
                                    264 	.globl _g_CHRCNT
                                    265 	.globl _g_EXBRSA
                                    266 	.globl _g_AVCSAV
                                    267 	.globl _g_ACPAGE
                                    268 	.globl _g_DPPAGE
                                    269 	.globl _g_RS2IQ
                                    270 	.globl _g_VOICCQ
                                    271 	.globl _g_VOICBQ
                                    272 	.globl _g_VOICAQ
                                    273 	.globl _g_QUEBAK
                                    274 	.globl _g_QUETAB
                                    275 	.globl _g_ASPCT2
                                    276 	.globl _g_ASPCT1
                                    277 	.globl _g_HEADER
                                    278 	.globl _g_HIGH
                                    279 	.globl _g_LOW
                                    280 	.globl _g_CS240
                                    281 	.globl _g_CS120
                                    282 	.globl _g_GETPNT
                                    283 	.globl _g_PUTPNT
                                    284 	.globl _g_REPCNT
                                    285 	.globl _g_SCNCNT
                                    286 	.globl _g_FRCNEW
                                    287 	.globl _g_QUEUES
                                    288 	.globl _g_MINUPD
                                    289 	.globl _g_MAXUPD
                                    290 	.globl _g_TRGFLG
                                    291 	.globl _g_STATFL
                                    292 	.globl _g_RG7SAV
                                    293 	.globl _g_RG6SAV
                                    294 	.globl _g_RG5SAV
                                    295 	.globl _g_RG4SAV
                                    296 	.globl _g_RG3SAV
                                    297 	.globl _g_RG2SAV
                                    298 	.globl _g_RG1SAV
                                    299 	.globl _g_RG0SAV
                                    300 	.globl _g_CNSDFG
                                    301 	.globl _g_USRTAB
                                    302 	.globl _g_CLPRIM
                                    303 	.globl _g_WRPRIM
                                    304 	.globl _g_RDPRIM
                                    305 	.globl _UpdateV9990
                                    306 	.globl _InitVariables
                                    307 	.globl _WaitV9990Synch
                                    308 	.globl _LoadP1LayerA
                                    309 	.globl _LoadP1LayerB
                                    310 	.globl _V9_InterruptVBlank
                                    311 	.globl _V9_InterruptHBlank
                                    312 	.globl _V9_InterruptCommand
                                    313 	.globl _GameStart
                                    314 	.globl _SetTeamsPresentationSpritesPosition
                                    315 	.globl _TickActiveFieldZone
                                    316 	.globl _TickUpdateTime
                                    317 	.globl _GetOffsideLineY
                                    318 	.globl _BallInGoal
                                    319 	.globl _BallThrowIn
                                    320 	.globl _GoalKick
                                    321 	.globl _CornerKick
                                    322 	.globl _InitializeV9990
                                    323 	.globl _LoadSprites
                                    324 	.globl _main
                                    325 	.globl _MainGameLoop
                                    326 	.globl _UpdatePlayerPatternByDirection
                                    327 	.globl _GetNoMovingPlayerPatternId
                                    328 	.globl _GetNewPoseByDirection
                                    329 	.globl _GetPatternIdByPoseAndDirection
                                    330 	.globl _SetPlayerTarget
                                    331 	.globl _SetPlayerBallPossession
                                    332 	.globl _TickGoalKick
                                    333 	.globl _TickCornerKick
                                    334 ;--------------------------------------------------------
                                    335 ; special function registers
                                    336 ;--------------------------------------------------------
                         000000A8   337 _g_PortPrimarySlot	=	0x00a8
                         000000A9   338 _g_PortReadKeyboard	=	0x00a9
                         000000AA   339 _g_PortAccessKeyboard	=	0x00aa
                         000000AB   340 _g_PortControl	=	0x00ab
                         00000098   341 _g_VDP_DataPort	=	0x0098
                         00000099   342 _g_VDP_RegPort	=	0x0099
                         00000099   343 _g_VDP_AddrPort	=	0x0099
                         00000099   344 _g_VDP_StatPort	=	0x0099
                         000000A0   345 _g_PSG_RegPort	=	0x00a0
                         000000A1   346 _g_PSG_DataPort	=	0x00a1
                         000000A2   347 _g_PSG_StatPort	=	0x00a2
                         00000010   348 _g_PSG_Ext_RegPort	=	0x0010
                         00000011   349 _g_PSG_Ext_DataPort	=	0x0011
                         00000012   350 _g_PSG_Ext_StatPort	=	0x0012
                         0000007C   351 _g_MSXMusic_IndexPort	=	0x007c
                         0000007D   352 _g_MSXMusic_DataPort	=	0x007d
                         000000C0   353 _g_MSXAudio_IndexPort	=	0x00c0
                         000000C1   354 _g_MSXAudio_DataPort	=	0x00c1
                         000000C2   355 _g_MSXAudio_IndexPort2	=	0x00c2
                         000000C3   356 _g_MSXAudio_DataPort2	=	0x00c3
                         000000B4   357 _g_RTC_AddrPort	=	0x00b4
                         000000B5   358 _g_RTC_DataPort	=	0x00b5
                         00000060   359 _g_V9_VRAMPort	=	0x0060
                         00000061   360 _g_V9_PalettePort	=	0x0061
                         00000062   361 _g_V9_CmdDataPort	=	0x0062
                         00000063   362 _g_V9_RegDataPort	=	0x0063
                         00000064   363 _g_V9_RegSelectPort	=	0x0064
                         00000065   364 _g_V9_SatusPort	=	0x0065
                         00000066   365 _g_V9_IntFlagPort	=	0x0066
                         00000067   366 _g_V9_SysCtrlPort	=	0x0067
                         00000068   367 _g_V9_KanjiAddrLPort	=	0x0068
                         00000069   368 _g_V9_KanjiAddrHPort	=	0x0069
                         00000069   369 _g_V9_KanjiDataPort	=	0x0069
                         0000006A   370 _g_V9_Kanji2AddrLPort	=	0x006a
                         0000006B   371 _g_V9_Kanji2AddrHPort	=	0x006b
                         0000006B   372 _g_V9_Kanji2DataPort	=	0x006b
                         0000006F   373 _g_V9_OutputCtrPort	=	0x006f
                                    374 ;--------------------------------------------------------
                                    375 ; ram data
                                    376 ;--------------------------------------------------------
                                    377 	.area _DATA
                         0000F3AE   378 _g_LINL40	=	0xf3ae
                         0000F3AF   379 _g_LINL32	=	0xf3af
                         0000F3B0   380 _g_LINLEN	=	0xf3b0
                         0000F3B1   381 _g_CRTCNT	=	0xf3b1
                         0000F3B2   382 _g_CLMLST	=	0xf3b2
                         0000F3B3   383 _g_TXTNAM	=	0xf3b3
                         0000F3B5   384 _g_TXTCOL	=	0xf3b5
                         0000F3B7   385 _g_TXTCGP	=	0xf3b7
                         0000F3B9   386 _g_TXTATR	=	0xf3b9
                         0000F3BB   387 _g_TXTPAT	=	0xf3bb
                         0000F3BD   388 _g_T32NAM	=	0xf3bd
                         0000F3BF   389 _g_T32COL	=	0xf3bf
                         0000F3C1   390 _g_T32CGP	=	0xf3c1
                         0000F3C3   391 _g_T32ATR	=	0xf3c3
                         0000F3C5   392 _g_T32PAT	=	0xf3c5
                         0000F3C7   393 _g_GRPNAM	=	0xf3c7
                         0000F3C9   394 _g_GRPCOL	=	0xf3c9
                         0000F3CB   395 _g_GRPCGP	=	0xf3cb
                         0000F3CD   396 _g_GRPATR	=	0xf3cd
                         0000F3CF   397 _g_GRPPAT	=	0xf3cf
                         0000F3D1   398 _g_MLTNAM	=	0xf3d1
                         0000F3D3   399 _g_MLTCOL	=	0xf3d3
                         0000F3D5   400 _g_MLTCGP	=	0xf3d5
                         0000F3D7   401 _g_MLTATR	=	0xf3d7
                         0000F3D9   402 _g_MLTPAT	=	0xf3d9
                         0000F3DB   403 _g_CLIKSW	=	0xf3db
                         0000F3DC   404 _g_CSRY	=	0xf3dc
                         0000F3DD   405 _g_CSRX	=	0xf3dd
                         0000F3E9   406 _g_FORCLR	=	0xf3e9
                         0000F3EA   407 _g_BAKCLR	=	0xf3ea
                         0000F3EB   408 _g_BDRCLR	=	0xf3eb
                         0000F3F2   409 _g_ATRBYT	=	0xf3f2
                         0000F87F   410 _g_FNKSTR	=	0xf87f
                         0000F92A   411 _g_CLOC	=	0xf92a
                         0000F92C   412 _g_CMASK	=	0xf92c
                         0000FB02   413 _g_LOGOPR	=	0xfb02
                         0000FCB7   414 _g_GRPACX	=	0xfcb7
                         0000FCB9   415 _g_GRPACY	=	0xfcb9
                         0000FFFF   416 _g_SLTSL	=	0xffff
    00000000                        417 _g_FrameCounter::
    00000000                        418 	.ds 2
    00000002                        419 _g_Team1PaletteId::
    00000002                        420 	.ds 1
    00000003                        421 _g_Team2PaletteId::
    00000003                        422 	.ds 1
    00000004                        423 _g_Team1Score::
    00000004                        424 	.ds 1
    00000005                        425 _g_Team2Score::
    00000005                        426 	.ds 1
    00000006                        427 _g_Players::
    00000006                        428 	.ds 315
    00000141                        429 _g_PonPonGirls::
    00000141                        430 	.ds 30
    0000015F                        431 _g_Ball::
    0000015F                        432 	.ds 30
    0000017D                        433 _g_ActiveFieldZone::
    0000017D                        434 	.ds 1
    0000017E                        435 _g_RestartKickTeamId::
    0000017E                        436 	.ds 1
    0000017F                        437 _g_SecondsToEndOfMatch::
    0000017F                        438 	.ds 1
    00000180                        439 _TickCornerKick_s_ForceKickTimer_65537_1604:
    00000180                        440 	.ds 2
    00000182                        441 _TickCornerKick_joyMoved_196614_1638:
    00000182                        442 	.ds 1
    00000183                        443 _TickCornerKick_t1Latched_196615_1643:
    00000183                        444 	.ds 1
    00000184                        445 _TickCornerKick_joyMoved_196613_1646:
    00000184                        446 	.ds 1
                                    447 ;--------------------------------------------------------
                                    448 ; ram data
                                    449 ;--------------------------------------------------------
                                    450 	.area _INITIALIZED
    00000000                        451 _g_FieldCurrentYPosition::
    00000000                        452 	.ds 2
    00000002                        453 _g_FieldScrollingActionInProgress::
    00000002                        454 	.ds 1
    00000003                        455 _g_PlayersPositioningPhaseCount::
    00000003                        456 	.ds 1
    00000004                        457 _g_MatchStatus::
    00000004                        458 	.ds 1
    00000005                        459 _g_FieldScrollSpeed::
    00000005                        460 	.ds 1
    00000006                        461 _g_Timer::
    00000006                        462 	.ds 1
    00000007                        463 _g_Team1ActivePlayer::
    00000007                        464 	.ds 1
    00000008                        465 _g_Team2ActivePlayer::
    00000008                        466 	.ds 1
    00000009                        467 _g_PassTargetPlayer::
    00000009                        468 	.ds 1
    0000000A                        469 _g_GameWith2Players::
    0000000A                        470 	.ds 1
    0000000B                        471 _g_GameLevel::
    0000000B                        472 	.ds 1
    0000000C                        473 _g_ActionCooldown::
    0000000C                        474 	.ds 1
    0000000D                        475 _g_ShootCooldown::
    0000000D                        476 	.ds 1
    0000000E                        477 _g_ShotCursorX::
    0000000E                        478 	.ds 2
    00000010                        479 _g_ShotCursorDir::
    00000010                        480 	.ds 1
    00000011                        481 _g_FioBre::
    00000011                        482 	.ds 1
    00000012                        483 _g_GoalScorerId::
    00000012                        484 	.ds 1
    00000013                        485 _g_CornerKickSide::
    00000013                        486 	.ds 1
    00000014                        487 _g_GoalKickSide::
    00000014                        488 	.ds 1
    00000015                        489 _g_CornerKickTargetId::
    00000015                        490 	.ds 1
    00000016                        491 _g_ThrowInPlayerId::
    00000016                        492 	.ds 1
    00000017                        493 _g_VSynch::
    00000017                        494 	.ds 1
    00000018                        495 _g_GkRecoilY::
    00000018                        496 	.ds 1
                                    497 ;--------------------------------------------------------
                                    498 ; absolute external ram data
                                    499 ;--------------------------------------------------------
                                    500 	.area _DABS (ABS)
                                    501 ;--------------------------------------------------------
                                    502 ; global & static initialisations
                                    503 ;--------------------------------------------------------
                                    504 	.area _HOME
                                    505 	.area _GSINIT
                                    506 	.area _GSFINAL
                                    507 	.area _GSINIT
                                    508 ;./exsoccer.c:1314: static u16 s_ForceKickTimer = 0;
    00000000 21 00 00         [10]  509 	ld	hl, #0x0000
    00000003 22r80r01         [16]  510 	ld	(_TickCornerKick_s_ForceKickTimer_65537_1604), hl
                                    511 ;./exsoccer.c:1464: static bool joyMoved = false;
    00000006 FD 21r82r01      [14]  512 	ld	iy, #_TickCornerKick_joyMoved_196614_1638
    0000000A FD 36 00 00      [19]  513 	ld	0 (iy), #0x00
                                    514 ;./exsoccer.c:1490: static bool t1Latched = false;
    0000000E FD 21r83r01      [14]  515 	ld	iy, #_TickCornerKick_t1Latched_196615_1643
    00000012 FD 36 00 00      [19]  516 	ld	0 (iy), #0x00
                                    517 ;./exsoccer.c:1510: static bool joyMoved = false;
    00000016 FD 21r84r01      [14]  518 	ld	iy, #_TickCornerKick_joyMoved_196613_1646
    0000001A FD 36 00 00      [19]  519 	ld	0 (iy), #0x00
                                    520 ;--------------------------------------------------------
                                    521 ; Home
                                    522 ;--------------------------------------------------------
                                    523 	.area _HOME
                                    524 	.area _HOME
                                    525 ;--------------------------------------------------------
                                    526 ; code
                                    527 ;--------------------------------------------------------
                                    528 	.area _CODE
                                    529 ;./exsoccer.c:62: void UpdateV9990()
                                    530 ;	---------------------------------
                                    531 ; Function UpdateV9990
                                    532 ; ---------------------------------
    00000000                        533 _UpdateV9990::
                                    534 ;./exsoccer.c:64: WaitV9990Synch();
                                    535 ;./exsoccer.c:65: }
    00000000 C3r1Dr00         [10]  536 	jp	_WaitV9990Synch
                         0000F380   537 _g_RDPRIM	=	0xf380
                         0000F385   538 _g_WRPRIM	=	0xf385
                         0000F38C   539 _g_CLPRIM	=	0xf38c
                         0000F39A   540 _g_USRTAB	=	0xf39a
                         0000F3DE   541 _g_CNSDFG	=	0xf3de
                         0000F3DF   542 _g_RG0SAV	=	0xf3df
                         0000F3E0   543 _g_RG1SAV	=	0xf3e0
                         0000F3E1   544 _g_RG2SAV	=	0xf3e1
                         0000F3E2   545 _g_RG3SAV	=	0xf3e2
                         0000F3E3   546 _g_RG4SAV	=	0xf3e3
                         0000F3E4   547 _g_RG5SAV	=	0xf3e4
                         0000F3E5   548 _g_RG6SAV	=	0xf3e5
                         0000F3E6   549 _g_RG7SAV	=	0xf3e6
                         0000F3E7   550 _g_STATFL	=	0xf3e7
                         0000F3E8   551 _g_TRGFLG	=	0xf3e8
                         0000F3EC   552 _g_MAXUPD	=	0xf3ec
                         0000F3EF   553 _g_MINUPD	=	0xf3ef
                         0000F3F3   554 _g_QUEUES	=	0xf3f3
                         0000F3F5   555 _g_FRCNEW	=	0xf3f5
                         0000F3F6   556 _g_SCNCNT	=	0xf3f6
                         0000F3F7   557 _g_REPCNT	=	0xf3f7
                         0000F3F8   558 _g_PUTPNT	=	0xf3f8
                         0000F3FA   559 _g_GETPNT	=	0xf3fa
                         0000F3FC   560 _g_CS120	=	0xf3fc
                         0000F401   561 _g_CS240	=	0xf401
                         0000F406   562 _g_LOW	=	0xf406
                         0000F408   563 _g_HIGH	=	0xf408
                         0000F40A   564 _g_HEADER	=	0xf40a
                         0000F40B   565 _g_ASPCT1	=	0xf40b
                         0000F40D   566 _g_ASPCT2	=	0xf40d
                         0000F959   567 _g_QUETAB	=	0xf959
                         0000F971   568 _g_QUEBAK	=	0xf971
                         0000F975   569 _g_VOICAQ	=	0xf975
                         0000F9F5   570 _g_VOICBQ	=	0xf9f5
                         0000FA75   571 _g_VOICCQ	=	0xfa75
                         0000FAF5   572 _g_RS2IQ	=	0xfaf5
                         0000FAF5   573 _g_DPPAGE	=	0xfaf5
                         0000FAF6   574 _g_ACPAGE	=	0xfaf6
                         0000FAF7   575 _g_AVCSAV	=	0xfaf7
                         0000FAF8   576 _g_EXBRSA	=	0xfaf8
                         0000FAF9   577 _g_CHRCNT	=	0xfaf9
                         0000FAFA   578 _g_ROMA	=	0xfafa
                         0000FAFC   579 _g_MODE	=	0xfafc
                         0000FAFD   580 _g_NORUSE	=	0xfafd
                         0000FAFE   581 _g_XSAVE	=	0xfafe
                         0000FB00   582 _g_YSAVE	=	0xfb00
                         0000FB03   583 _g_RSTMP	=	0xfb03
                         0000FB03   584 _g_TOCNT	=	0xfb03
                         0000FB04   585 _g_RSFCB	=	0xfb04
                         0000FB06   586 _g_RSIQLN	=	0xfb06
                         0000FB07   587 _g_MEXBIh	=	0xfb07
                         0000FB0C   588 _g_OLDSTT	=	0xfb0c
                         0000FB0C   589 _g_OLDINT	=	0xfb0c
                         0000FB16   590 _g_DEVNUM	=	0xfb16
                         0000FB17   591 _g_DATCNT	=	0xfb17
                         0000FB1A   592 _g_ERRORS	=	0xfb1a
                         0000FB1B   593 _g_FLAGS	=	0xfb1b
                         0000FB1C   594 _g_ESTBLS	=	0xfb1c
                         0000FB1D   595 _g_COMMSK	=	0xfb1d
                         0000FB1E   596 _g_LSTCOM	=	0xfb1e
                         0000FB1F   597 _g_LSTMOD	=	0xfb1f
                         0000FB35   598 _g_PRSCNT	=	0xfb35
                         0000FB36   599 _g_SAVSP	=	0xfb36
                         0000FB38   600 _g_VOICEN	=	0xfb38
                         0000FB39   601 _g_SAVVOL	=	0xfb39
                         0000FB3B   602 _g_MCLLEN	=	0xfb3b
                         0000FB3C   603 _g_MCLPTR	=	0xfb3c
                         0000FB3E   604 _g_QUEUEN	=	0xfb3e
                         0000FB3F   605 _g_MUSICF	=	0xfb3f
                         0000FB40   606 _g_PLYCNT	=	0xfb40
                         0000FB41   607 _g_VCBA	=	0xfb41
                         0000FB66   608 _g_VCBB	=	0xfb66
                         0000FB8B   609 _g_VCBC	=	0xfb8b
                         0000FBB0   610 _g_ENSTOP	=	0xfbb0
                         0000FBB1   611 _g_BASROM	=	0xfbb1
                         0000FBB2   612 _g_LINTTB	=	0xfbb2
                         0000FBCA   613 _g_FSTPOS	=	0xfbca
                         0000FBCC   614 _g_CODSAV	=	0xfbcc
                         0000FBCD   615 _g_FNKSWI	=	0xfbcd
                         0000FBCE   616 _g_FNKFLG	=	0xfbce
                         0000FBD8   617 _g_ONGSBF	=	0xfbd8
                         0000FBD9   618 _g_CLIKFL	=	0xfbd9
                         0000FBDA   619 _g_OLDKEY	=	0xfbda
                         0000FBE5   620 _g_NEWKEY	=	0xfbe5
                         0000FBF0   621 _g_KEYBUF	=	0xfbf0
                         0000FC18   622 _g_LINWRK	=	0xfc18
                         0000FC40   623 _g_PATWRK	=	0xfc40
                         0000FC48   624 _g_BOTTOM	=	0xfc48
                         0000FC4A   625 _g_HIMEM	=	0xfc4a
                         0000FC4C   626 _g_TRPTBL	=	0xfc4c
                         0000FC9A   627 _g_RTYCNT	=	0xfc9a
                         0000FC9B   628 _g_INTFLG	=	0xfc9b
                         0000FC9C   629 _g_PADY	=	0xfc9c
                         0000FC9D   630 _g_PADX	=	0xfc9d
                         0000FC9E   631 _g_JIFFY	=	0xfc9e
                         0000FCA0   632 _g_INTVAL	=	0xfca0
                         0000FCA2   633 _g_INTCNT	=	0xfca2
                         0000FCA4   634 _g_LOWLIM	=	0xfca4
                         0000FCA5   635 _g_WINWID	=	0xfca5
                         0000FCA6   636 _g_GRPHED	=	0xfca6
                         0000FCA7   637 _g_ESCCNT	=	0xfca7
                         0000FCA8   638 _g_INSFLG	=	0xfca8
                         0000FCA9   639 _g_CSRSW	=	0xfca9
                         0000FCAA   640 _g_CSTYLE	=	0xfcaa
                         0000FCAB   641 _g_CAPST	=	0xfcab
                         0000FCAC   642 _g_KANAST	=	0xfcac
                         0000FCAD   643 _g_KANAMD	=	0xfcad
                         0000FCAE   644 _g_FLBMEM	=	0xfcae
                         0000FCAF   645 _g_SCRMOD	=	0xfcaf
                         0000FCB0   646 _g_OLDSCR	=	0xfcb0
                         0000FCB1   647 _g_CASPRV	=	0xfcb1
                         0000FCB2   648 _g_BRDATR	=	0xfcb2
                         0000FCB3   649 _g_GXPOS	=	0xfcb3
                         0000FCB5   650 _g_GYPOS	=	0xfcb5
                         0000FCBB   651 _g_DRWFLG	=	0xfcbb
                         0000FCBC   652 _g_DRWSCL	=	0xfcbc
                         0000FCBD   653 _g_DRWANG	=	0xfcbd
                         0000FCC1   654 _g_MNROM	=	0xfcc1
                         0000FCC1   655 _g_EXPTBL	=	0xfcc1
                         0000FCC5   656 _g_SLTTBL	=	0xfcc5
                         0000FCC9   657 _g_SLTATR	=	0xfcc9
                         0000FD09   658 _g_SLTWRK	=	0xfd09
                         0000FD89   659 _g_PROCNM	=	0xfd89
                         0000FFE7   660 _g_RG08SAV	=	0xffe7
                         0000FFE8   661 _g_RG09SAV	=	0xffe8
                         0000FFE9   662 _g_RG10SAV	=	0xffe9
                         0000FFEA   663 _g_RG11SAV	=	0xffea
                         0000FFEB   664 _g_RG12SAV	=	0xffeb
                         0000FFEC   665 _g_RG13SAV	=	0xffec
                         0000FFED   666 _g_RG14SAV	=	0xffed
                         0000FFEE   667 _g_RG15SAV	=	0xffee
                         0000FFEF   668 _g_RG16SAV	=	0xffef
                         0000FFF0   669 _g_RG17SAV	=	0xfff0
                         0000FFF1   670 _g_RG18SAV	=	0xfff1
                         0000FFF2   671 _g_RG19SAV	=	0xfff2
                         0000FFF3   672 _g_RG20SAV	=	0xfff3
                         0000FFF4   673 _g_RG21SAV	=	0xfff4
                         0000FFF5   674 _g_RG22SAV	=	0xfff5
                         0000FFF6   675 _g_RG23SAV	=	0xfff6
                         0000FFF7   676 _g_MINROM	=	0xfff7
                         0000FFF8   677 _g_SVFFF8	=	0xfff8
                         0000FFFA   678 _g_RG25SAV	=	0xfffa
                         0000FFFB   679 _g_RG26SAV	=	0xfffb
                         0000FFFC   680 _g_RG27SAV	=	0xfffc
                         0000FFFD   681 _g_SVFFFD	=	0xfffd
                         00000004   682 _g_CGTABL	=	0x0004
                         00000006   683 _g_VDP_DR	=	0x0006
                         00000007   684 _g_VDP_DW	=	0x0007
                         0000002B   685 _g_BASRVN	=	0x002b
                         0000002B   686 _g_ROMVersion	=	0x002b
                         0000002D   687 _g_MSXVER	=	0x002d
                         0000002E   688 _g_MSXMID	=	0x002e
                         00000034   689 _g_CHAR_16	=	0x0034
                         00000000   690 _g_SUBRID	=	0x0000
                         00000002   691 _g_STRSRC	=	0x0002
                         0000F30F   692 _g_KANJTABLE	=	0xf30f
                         0000F323   693 _g_DISKVE	=	0xf323
                         0000F325   694 _g_BREAKV	=	0xf325
                         0000F341   695 _g_RAMAD0	=	0xf341
                         0000F342   696 _g_RAMAD1	=	0xf342
                         0000F343   697 _g_RAMAD2	=	0xf343
                         0000F344   698 _g_RAMAD3	=	0xf344
                         0000F348   699 _g_MASTER	=	0xf348
                         0000F37D   700 _g_BDOS	=	0xf37d
                                    701 ;./exsoccer.c:66: void InitVariables(){
                                    702 ;	---------------------------------
                                    703 ; Function InitVariables
                                    704 ; ---------------------------------
    00000003                        705 _InitVariables::
                                    706 ;./exsoccer.c:68: g_Ball.PossessionPlayerId = NO_VALUE;
    00000003 21r65r01         [10]  707 	ld	hl, #(_g_Ball + 6)
    00000006 36 FF            [10]  708 	ld	(hl), #0xff
                                    709 ;./exsoccer.c:69: g_Ball.PassTargetPlayerId = NO_VALUE;
    00000008 21r6Fr01         [10]  710 	ld	hl, #(_g_Ball + 16)
    0000000B 36 FF            [10]  711 	ld	(hl), #0xff
                                    712 ;./exsoccer.c:70: g_Ball.ShotActive = 0;
    0000000D 21r7Ar01         [10]  713 	ld	hl, #(_g_Ball + 27)
    00000010 36 00            [10]  714 	ld	(hl), #0x00
                                    715 ;./exsoccer.c:71: g_Ball.LastTouchTeamId = NO_VALUE;
    00000012 21r6Dr01         [10]  716 	ld	hl, #(_g_Ball + 14)
    00000015 36 FF            [10]  717 	ld	(hl), #0xff
                                    718 ;./exsoccer.c:72: g_Ball.ComingFromRestart = 0;
    00000017 21r7Cr01         [10]  719 	ld	hl, #(_g_Ball + 29)
    0000001A 36 00            [10]  720 	ld	(hl), #0x00
                                    721 ;./exsoccer.c:74: }
    0000001C C9               [10]  722 	ret
                                    723 ;./exsoccer.c:76: void WaitV9990Synch()
                                    724 ;	---------------------------------
                                    725 ; Function WaitV9990Synch
                                    726 ; ---------------------------------
    0000001D                        727 _WaitV9990Synch::
                                    728 ;./exsoccer.c:78: while(!g_VSynch) {}
    0000001D                        729 00101$:
    0000001D 3Ar17r00         [13]  730 	ld	a, (_g_VSynch+0)
    00000020 B7               [ 4]  731 	or	a, a
    00000021 28 FA            [12]  732 	jr	Z, 00101$
                                    733 ;./exsoccer.c:79: g_VSynch = FALSE;
    00000023 21r17r00         [10]  734 	ld	hl, #_g_VSynch
    00000026 36 00            [10]  735 	ld	(hl), #0x00
                                    736 ;./exsoccer.c:80: g_FrameCounter++;
    00000028 2Ar00r00         [16]  737 	ld	hl, (_g_FrameCounter)
    0000002B 23               [ 6]  738 	inc	hl
                                    739 ;./exsoccer.c:81: if(g_FrameCounter==60){
    0000002C 22r00r00         [16]  740 	ld	(_g_FrameCounter), hl
    0000002F 7D               [ 4]  741 	ld	a, l
    00000030 D6 3C            [ 7]  742 	sub	a, #0x3c
    00000032 B4               [ 4]  743 	or	a, h
    00000033 C0               [11]  744 	ret	NZ
                                    745 ;./exsoccer.c:82: g_FrameCounter=0;
    00000034 21 00 00         [10]  746 	ld	hl, #0x0000
    00000037 22r00r00         [16]  747 	ld	(_g_FrameCounter), hl
                                    748 ;./exsoccer.c:84: }
    0000003A C9               [10]  749 	ret
                                    750 ;./exsoccer.c:88: void LoadP1LayerA(){
                                    751 ;	---------------------------------
                                    752 ; Function LoadP1LayerA
                                    753 ; ---------------------------------
    0000003B                        754 _LoadP1LayerA::
                                    755 ;E:/Dropbox/FAUSTO/SVILUPPI/MSX/CODE/C/MSXgl/engine/src/v9990.h:353: inline void V9_FillVRAM(u32 addr, u8 value, u16 count) { V9_SetWriteAddress(addr); V9_FillVRAM_CurrentAddr(value, count); }
    0000003B 11 00 00         [10]  756 	ld	de, #0x0000
    0000003E 21 00 00         [10]  757 	ld	hl, #0x0000
    00000041 CDr00r00         [17]  758 	call	_V9_SetWriteAddress
    00000044 11 00 6A         [10]  759 	ld	de, #0x6a00
    00000047 AF               [ 4]  760 	xor	a, a
    00000048 CDr00r00         [17]  761 	call	_V9_FillVRAM_CurrentAddr
                                    762 ;E:/Dropbox/FAUSTO/SVILUPPI/MSX/CODE/C/MSXgl/engine/src/rom_mapper.h:112: g_Bank0Segment[b] = s;
    0000004B 21 07 00         [10]  763 	ld	hl, #0x0007
    0000004E 22r04r00         [16]  764 	ld	((_g_Bank0Segment + 4)), hl
                                    765 ;E:/Dropbox/FAUSTO/SVILUPPI/MSX/CODE/C/MSXgl/engine/src/system.h:109: inline void Poke16(u16 addr, u16 val) { *(u16*)addr = val; }
    00000051 22 00 70         [16]  766 	ld	(0x7000), hl
                                    767 ;./exsoccer.c:91: V9_WriteVRAM(V9_P1_PGT_A, g_GameFieldLayerATiles, sizeof(g_GameFieldLayerATiles)); // Load fonts
                                    768 ;E:/Dropbox/FAUSTO/SVILUPPI/MSX/CODE/C/MSXgl/engine/src/v9990.h:371: inline void V9_WriteVRAM(u32 addr, const u8* src, u16 count) { V9_SetWriteAddress(addr); V9_WriteVRAM_CurrentAddr(src, count); }
    00000054 11 00 00         [10]  769 	ld	de, #0x0000
    00000057 6C               [ 4]  770 	ld	l, h
    00000058 CDr00r00         [17]  771 	call	_V9_SetWriteAddress
    0000005B 11 00 40         [10]  772 	ld	de, #0x4000
    0000005E 21r00r00         [10]  773 	ld	hl, #_g_GameFieldLayerATiles
    00000061 CDr00r00         [17]  774 	call	_V9_WriteVRAM_CurrentAddr
                                    775 ;E:/Dropbox/FAUSTO/SVILUPPI/MSX/CODE/C/MSXgl/engine/src/v9990.h:362: inline void V9_FillVRAM16(u32 addr, u16 value, u16 count) { V9_SetWriteAddress(addr); V9_FillVRAM16_CurrentAddr(value, count); }
    00000064 11 00 C0         [10]  776 	ld	de, #0xc000
    00000067 21 07 00         [10]  777 	ld	hl, #0x0007
    0000006A CDr00r00         [17]  778 	call	_V9_SetWriteAddress
    0000006D 11 00 10         [10]  779 	ld	de, #0x1000
    00000070 21 00 00         [10]  780 	ld	hl, #0x0000
    00000073 CDr00r00         [17]  781 	call	_V9_FillVRAM16_CurrentAddr
                                    782 ;E:/Dropbox/FAUSTO/SVILUPPI/MSX/CODE/C/MSXgl/engine/src/rom_mapper.h:112: g_Bank0Segment[b] = s;
    00000076 21 01 00         [10]  783 	ld	hl, #0x0001
    00000079 22r04r00         [16]  784 	ld	((_g_Bank0Segment + 4)), hl
                                    785 ;E:/Dropbox/FAUSTO/SVILUPPI/MSX/CODE/C/MSXgl/engine/src/system.h:109: inline void Poke16(u16 addr, u16 val) { *(u16*)addr = val; }
    0000007C 22 00 70         [16]  786 	ld	(0x7000), hl
                                    787 ;./exsoccer.c:97: for (u8 x=0;x<64;x++){
    0000007F 0E 00            [ 7]  788 	ld	c, #0x00
    00000081                        789 00130$:
    00000081 79               [ 4]  790 	ld	a, c
    00000082 D6 40            [ 7]  791 	sub	a, #0x40
    00000084 D0               [11]  792 	ret	NC
                                    793 ;./exsoccer.c:98: V9_PutLayerATileAtPos(x,0,32);
    00000085 C5               [11]  794 	push	bc
    00000086 21 20 00         [10]  795 	ld	hl, #0x0020
    00000089 E5               [11]  796 	push	hl
    0000008A 2E 00            [ 7]  797 	ld	l, #0x00
                                    798 ;	spillPairReg hl
                                    799 ;	spillPairReg hl
    0000008C 79               [ 4]  800 	ld	a, c
    0000008D CDr00r00         [17]  801 	call	_V9_PutLayerATileAtPos
    00000090 C1               [10]  802 	pop	bc
                                    803 ;./exsoccer.c:97: for (u8 x=0;x<64;x++){
    00000091 0C               [ 4]  804 	inc	c
                                    805 ;./exsoccer.c:100: }
    00000092 C3r81r00         [10]  806 	jp	00130$
                                    807 ;./exsoccer.c:103: void LoadP1LayerB(){
                                    808 ;	---------------------------------
                                    809 ; Function LoadP1LayerB
                                    810 ; ---------------------------------
    00000095                        811 _LoadP1LayerB::
                                    812 ;E:/Dropbox/FAUSTO/SVILUPPI/MSX/CODE/C/MSXgl/engine/src/v9990.h:353: inline void V9_FillVRAM(u32 addr, u8 value, u16 count) { V9_SetWriteAddress(addr); V9_FillVRAM_CurrentAddr(value, count); }
    00000095 11 00 00         [10]  813 	ld	de, #0x0000
    00000098 21 04 00         [10]  814 	ld	hl, #0x0004
    0000009B CDr00r00         [17]  815 	call	_V9_SetWriteAddress
    0000009E 11 00 6A         [10]  816 	ld	de, #0x6a00
    000000A1 AF               [ 4]  817 	xor	a, a
    000000A2 CDr00r00         [17]  818 	call	_V9_FillVRAM_CurrentAddr
                                    819 ;E:/Dropbox/FAUSTO/SVILUPPI/MSX/CODE/C/MSXgl/engine/src/rom_mapper.h:112: g_Bank0Segment[b] = s;
    000000A5 21 03 00         [10]  820 	ld	hl, #0x0003
    000000A8 22r04r00         [16]  821 	ld	((_g_Bank0Segment + 4)), hl
                                    822 ;E:/Dropbox/FAUSTO/SVILUPPI/MSX/CODE/C/MSXgl/engine/src/system.h:109: inline void Poke16(u16 addr, u16 val) { *(u16*)addr = val; }
    000000AB 22 00 70         [16]  823 	ld	(0x7000), hl
                                    824 ;./exsoccer.c:106: V9_WriteVRAM(V9_P1_PGT_B, g_GameFieldLayerBTiles_part1, sizeof(g_GameFieldLayerBTiles_part1)); // Load tiles (part 1)
                                    825 ;E:/Dropbox/FAUSTO/SVILUPPI/MSX/CODE/C/MSXgl/engine/src/v9990.h:371: inline void V9_WriteVRAM(u32 addr, const u8* src, u16 count) { V9_SetWriteAddress(addr); V9_WriteVRAM_CurrentAddr(src, count); }
    000000AE 11 00 00         [10]  826 	ld	de, #0x0000
    000000B1 2E 04            [ 7]  827 	ld	l, #0x04
    000000B3 CDr00r00         [17]  828 	call	_V9_SetWriteAddress
    000000B6 11 00 40         [10]  829 	ld	de, #0x4000
    000000B9 21r00r00         [10]  830 	ld	hl, #_g_GameFieldLayerBTiles_part1
    000000BC CDr00r00         [17]  831 	call	_V9_WriteVRAM_CurrentAddr
                                    832 ;E:/Dropbox/FAUSTO/SVILUPPI/MSX/CODE/C/MSXgl/engine/src/rom_mapper.h:112: g_Bank0Segment[b] = s;
    000000BF 21 04 00         [10]  833 	ld	hl, #0x0004
    000000C2 22r04r00         [16]  834 	ld	((_g_Bank0Segment + 4)), hl
                                    835 ;E:/Dropbox/FAUSTO/SVILUPPI/MSX/CODE/C/MSXgl/engine/src/system.h:109: inline void Poke16(u16 addr, u16 val) { *(u16*)addr = val; }
    000000C5 22 00 70         [16]  836 	ld	(0x7000), hl
                                    837 ;./exsoccer.c:108: V9_WriteVRAM(V9_P1_PGT_B + 16384, g_GameFieldLayerBTiles_part2, sizeof(g_GameFieldLayerBTiles_part2)); // Load tiles (part 2)
                                    838 ;E:/Dropbox/FAUSTO/SVILUPPI/MSX/CODE/C/MSXgl/engine/src/v9990.h:371: inline void V9_WriteVRAM(u32 addr, const u8* src, u16 count) { V9_SetWriteAddress(addr); V9_WriteVRAM_CurrentAddr(src, count); }
    000000C8 11 00 40         [10]  839 	ld	de, #0x4000
    000000CB CDr00r00         [17]  840 	call	_V9_SetWriteAddress
    000000CE 11 00 40         [10]  841 	ld	de, #0x4000
    000000D1 21r00r00         [10]  842 	ld	hl, #_g_GameFieldLayerBTiles_part2
    000000D4 CDr00r00         [17]  843 	call	_V9_WriteVRAM_CurrentAddr
                                    844 ;E:/Dropbox/FAUSTO/SVILUPPI/MSX/CODE/C/MSXgl/engine/src/rom_mapper.h:112: g_Bank0Segment[b] = s;
    000000D7 21 05 00         [10]  845 	ld	hl, #0x0005
    000000DA 22r04r00         [16]  846 	ld	((_g_Bank0Segment + 4)), hl
                                    847 ;E:/Dropbox/FAUSTO/SVILUPPI/MSX/CODE/C/MSXgl/engine/src/system.h:109: inline void Poke16(u16 addr, u16 val) { *(u16*)addr = val; }
    000000DD 22 00 70         [16]  848 	ld	(0x7000), hl
                                    849 ;./exsoccer.c:110: V9_WriteVRAM(V9_P1_PGT_B + 16384L*2, g_GameFieldLayerBTiles_part3, sizeof(g_GameFieldLayerBTiles_part3)); // Load tiles (part 3)
                                    850 ;E:/Dropbox/FAUSTO/SVILUPPI/MSX/CODE/C/MSXgl/engine/src/v9990.h:371: inline void V9_WriteVRAM(u32 addr, const u8* src, u16 count) { V9_SetWriteAddress(addr); V9_WriteVRAM_CurrentAddr(src, count); }
    000000E0 11 00 80         [10]  851 	ld	de, #0x8000
    000000E3 2E 04            [ 7]  852 	ld	l, #0x04
    000000E5 CDr00r00         [17]  853 	call	_V9_SetWriteAddress
    000000E8 11 00 40         [10]  854 	ld	de, #0x4000
    000000EB 21r00r00         [10]  855 	ld	hl, #_g_GameFieldLayerBTiles_part3
    000000EE CDr00r00         [17]  856 	call	_V9_WriteVRAM_CurrentAddr
                                    857 ;E:/Dropbox/FAUSTO/SVILUPPI/MSX/CODE/C/MSXgl/engine/src/rom_mapper.h:112: g_Bank0Segment[b] = s;
    000000F1 21 06 00         [10]  858 	ld	hl, #0x0006
    000000F4 22r04r00         [16]  859 	ld	((_g_Bank0Segment + 4)), hl
                                    860 ;E:/Dropbox/FAUSTO/SVILUPPI/MSX/CODE/C/MSXgl/engine/src/system.h:109: inline void Poke16(u16 addr, u16 val) { *(u16*)addr = val; }
    000000F7 22 00 70         [16]  861 	ld	(0x7000), hl
                                    862 ;./exsoccer.c:112: V9_WriteVRAM(V9_P1_PGT_B + 16384L*3, g_GameFieldLayerBTiles_part4, sizeof(g_GameFieldLayerBTiles_part4)); // Load tiles (part 4)
                                    863 ;E:/Dropbox/FAUSTO/SVILUPPI/MSX/CODE/C/MSXgl/engine/src/v9990.h:371: inline void V9_WriteVRAM(u32 addr, const u8* src, u16 count) { V9_SetWriteAddress(addr); V9_WriteVRAM_CurrentAddr(src, count); }
    000000FA 11 00 C0         [10]  864 	ld	de, #0xc000
    000000FD 2E 04            [ 7]  865 	ld	l, #0x04
    000000FF CDr00r00         [17]  866 	call	_V9_SetWriteAddress
    00000102 11 00 38         [10]  867 	ld	de, #0x3800
    00000105 21r00r00         [10]  868 	ld	hl, #_g_GameFieldLayerBTiles_part4
    00000108 CDr00r00         [17]  869 	call	_V9_WriteVRAM_CurrentAddr
                                    870 ;E:/Dropbox/FAUSTO/SVILUPPI/MSX/CODE/C/MSXgl/engine/src/rom_mapper.h:112: g_Bank0Segment[b] = s;
    0000010B 21 01 00         [10]  871 	ld	hl, #0x0001
    0000010E 22r04r00         [16]  872 	ld	((_g_Bank0Segment + 4)), hl
                                    873 ;E:/Dropbox/FAUSTO/SVILUPPI/MSX/CODE/C/MSXgl/engine/src/system.h:109: inline void Poke16(u16 addr, u16 val) { *(u16*)addr = val; }
    00000111 22 00 70         [16]  874 	ld	(0x7000), hl
                                    875 ;./exsoccer.c:115: u16 tileId=0;
    00000114 01 00 00         [10]  876 	ld	bc, #0x0000
                                    877 ;./exsoccer.c:117: for (u8 y=0;y<64;y++){
    00000117 1E 00            [ 7]  878 	ld	e, #0x00
    00000119                        879 00172$:
    00000119 7B               [ 4]  880 	ld	a, e
    0000011A D6 40            [ 7]  881 	sub	a, #0x40
    0000011C D0               [11]  882 	ret	NC
                                    883 ;./exsoccer.c:118: for (u8 x=0;x<32;x++){
    0000011D 16 00            [ 7]  884 	ld	d, #0x00
    0000011F                        885 00169$:
    0000011F 7A               [ 4]  886 	ld	a, d
    00000120 D6 20            [ 7]  887 	sub	a, #0x20
    00000122 30 11            [12]  888 	jr	NC, 00195$
                                    889 ;./exsoccer.c:119: V9_PutLayerBTileAtPos(x,y,tileId++);
    00000124 69               [ 4]  890 	ld	l, c
                                    891 ;	spillPairReg hl
                                    892 ;	spillPairReg hl
    00000125 60               [ 4]  893 	ld	h, b
                                    894 ;	spillPairReg hl
                                    895 ;	spillPairReg hl
    00000126 03               [ 6]  896 	inc	bc
    00000127 C5               [11]  897 	push	bc
    00000128 D5               [11]  898 	push	de
    00000129 E5               [11]  899 	push	hl
    0000012A 6B               [ 4]  900 	ld	l, e
                                    901 ;	spillPairReg hl
                                    902 ;	spillPairReg hl
    0000012B 7A               [ 4]  903 	ld	a, d
    0000012C CDr00r00         [17]  904 	call	_V9_PutLayerBTileAtPos
    0000012F D1               [10]  905 	pop	de
    00000130 C1               [10]  906 	pop	bc
                                    907 ;./exsoccer.c:118: for (u8 x=0;x<32;x++){
    00000131 14               [ 4]  908 	inc	d
    00000132 C3r1Fr01         [10]  909 	jp	00169$
    00000135                        910 00195$:
                                    911 ;./exsoccer.c:117: for (u8 y=0;y<64;y++){
    00000135 1C               [ 4]  912 	inc	e
                                    913 ;./exsoccer.c:122: }
    00000136 C3r19r01         [10]  914 	jp	00172$
                                    915 ;./exsoccer.c:125: void V9_InterruptVBlank()
                                    916 ;	---------------------------------
                                    917 ; Function V9_InterruptVBlank
                                    918 ; ---------------------------------
    00000139                        919 _V9_InterruptVBlank::
                                    920 ;./exsoccer.c:127: g_VSynch = TRUE;
    00000139 3E 01            [ 7]  921 	ld	a, #0x01
    0000013B 32r17r00         [13]  922 	ld	(#_g_VSynch), a
                                    923 ;./exsoccer.c:128: if (g_FieldScrollingActionInProgress != NO_VALUE) {
    0000013E 3Ar02r00         [13]  924 	ld	a, (_g_FieldScrollingActionInProgress+0)
    00000141 3C               [ 4]  925 	inc	a
    00000142 C8               [11]  926 	ret	Z
                                    927 ;./exsoccer.c:130: switch (g_FieldScrollingActionInProgress) {
    00000143 3Ar02r00         [13]  928 	ld	a, (_g_FieldScrollingActionInProgress+0)
    00000146 B7               [ 4]  929 	or	a, a
    00000147 28 11            [12]  930 	jr	Z, 00101$
    00000149 3Ar02r00         [13]  931 	ld	a, (_g_FieldScrollingActionInProgress+0)
    0000014C 3D               [ 4]  932 	dec	a
    0000014D 28 36            [12]  933 	jr	Z, 00104$
    0000014F 3Ar02r00         [13]  934 	ld	a, (_g_FieldScrollingActionInProgress+0)
    00000152 D6 02            [ 7]  935 	sub	a, #0x02
    00000154 CAr07r02         [10]  936 	jp	Z,00115$
    00000157 C3r38r02         [10]  937 	jp	00118$
                                    938 ;./exsoccer.c:131: case FIELD_NORTH_ZONE:
    0000015A                        939 00101$:
                                    940 ;./exsoccer.c:132: g_FieldCurrentYPosition = g_FieldCurrentYPosition - g_FieldScrollSpeed;
    0000015A 3Ar05r00         [13]  941 	ld	a, (_g_FieldScrollSpeed+0)
    0000015D 4F               [ 4]  942 	ld	c, a
    0000015E 06 00            [ 7]  943 	ld	b, #0x00
    00000160 21r00r00         [10]  944 	ld	hl, #_g_FieldCurrentYPosition
    00000163 7E               [ 7]  945 	ld	a, (hl)
    00000164 91               [ 4]  946 	sub	a, c
    00000165 77               [ 7]  947 	ld	(hl), a
    00000166 23               [ 6]  948 	inc	hl
    00000167 7E               [ 7]  949 	ld	a, (hl)
    00000168 98               [ 4]  950 	sbc	a, b
    00000169 77               [ 7]  951 	ld	(hl), a
                                    952 ;./exsoccer.c:133: if (g_FieldCurrentYPosition < 0) {
    0000016A 3Ar01r00         [13]  953 	ld	a, (_g_FieldCurrentYPosition+1)
    0000016D CB 7F            [ 8]  954 	bit	7, a
    0000016F CAr38r02         [10]  955 	jp	Z, 00118$
                                    956 ;./exsoccer.c:134: g_FieldCurrentYPosition = 1;
    00000172 21 01 00         [10]  957 	ld	hl, #0x0001
    00000175 22r00r00         [16]  958 	ld	(_g_FieldCurrentYPosition), hl
                                    959 ;./exsoccer.c:135: g_FieldScrollingActionInProgress = NO_VALUE;
    00000178 21r02r00         [10]  960 	ld	hl, #_g_FieldScrollingActionInProgress
    0000017B 36 FF            [10]  961 	ld	(hl), #0xff
                                    962 ;./exsoccer.c:136: g_ActiveFieldZone = FIELD_NORTH_ZONE;
    0000017D 21r7Dr01         [10]  963 	ld	hl, #_g_ActiveFieldZone
    00000180 36 00            [10]  964 	ld	(hl), #0x00
                                    965 ;./exsoccer.c:138: break;
    00000182 C3r38r02         [10]  966 	jp	00118$
                                    967 ;./exsoccer.c:139: case FIELD_CENTRAL_ZONE:
    00000185                        968 00104$:
                                    969 ;./exsoccer.c:140: if (g_FieldCurrentYPosition != 136) {
    00000185 3Ar00r00         [13]  970 	ld	a, (_g_FieldCurrentYPosition+0)
    00000188 D6 88            [ 7]  971 	sub	a, #0x88
    0000018A FD 21r00r00      [14]  972 	ld	iy, #_g_FieldCurrentYPosition
    0000018E FD B6 01         [19]  973 	or	a, 1 (iy)
    00000191 28 67            [12]  974 	jr	Z, 00113$
                                    975 ;./exsoccer.c:132: g_FieldCurrentYPosition = g_FieldCurrentYPosition - g_FieldScrollSpeed;
    00000193 3Ar05r00         [13]  976 	ld	a, (_g_FieldScrollSpeed+0)
    00000196 4F               [ 4]  977 	ld	c, a
    00000197 06 00            [ 7]  978 	ld	b, #0x00
                                    979 ;./exsoccer.c:141: if (g_FieldCurrentYPosition > FIELD_CENTRAL_Y) {
    00000199 3E 8C            [ 7]  980 	ld	a, #0x8c
    0000019B FD BE 00         [19]  981 	cp	a, 0 (iy)
    0000019E 3E 00            [ 7]  982 	ld	a, #0x00
    000001A0 FD 9E 01         [19]  983 	sbc	a, 1 (iy)
    000001A3 E2rA8r01         [10]  984 	jp	PO, 00193$
    000001A6 EE 80            [ 7]  985 	xor	a, #0x80
    000001A8                        986 00193$:
    000001A8 F2rCDr01         [10]  987 	jp	P, 00110$
                                    988 ;./exsoccer.c:142: g_FieldCurrentYPosition = g_FieldCurrentYPosition - g_FieldScrollSpeed;
    000001AB 21r00r00         [10]  989 	ld	hl, #_g_FieldCurrentYPosition
    000001AE 7E               [ 7]  990 	ld	a, (hl)
    000001AF 91               [ 4]  991 	sub	a, c
    000001B0 77               [ 7]  992 	ld	(hl), a
    000001B1 23               [ 6]  993 	inc	hl
    000001B2 7E               [ 7]  994 	ld	a, (hl)
    000001B3 98               [ 4]  995 	sbc	a, b
    000001B4 77               [ 7]  996 	ld	(hl), a
                                    997 ;./exsoccer.c:143: if(g_FieldCurrentYPosition < 136) g_FieldCurrentYPosition = 136;
    000001B5 3Ar00r00         [13]  998 	ld	a, (_g_FieldCurrentYPosition+0)
    000001B8 D6 88            [ 7]  999 	sub	a, #0x88
    000001BA 3Ar01r00         [13] 1000 	ld	a, (_g_FieldCurrentYPosition+1)
    000001BD 17               [ 4] 1001 	rla
    000001BE 3F               [ 4] 1002 	ccf
    000001BF 1F               [ 4] 1003 	rra
    000001C0 DE 80            [ 7] 1004 	sbc	a, #0x80
    000001C2 30 74            [12] 1005 	jr	NC, 00118$
    000001C4 21 88 00         [10] 1006 	ld	hl, #0x0088
    000001C7 22r00r00         [16] 1007 	ld	(_g_FieldCurrentYPosition), hl
    000001CA C3r38r02         [10] 1008 	jp	00118$
    000001CD                       1009 00110$:
                                   1010 ;./exsoccer.c:146: g_FieldCurrentYPosition = g_FieldCurrentYPosition + g_FieldScrollSpeed;
    000001CD 79               [ 4] 1011 	ld	a, c
    000001CE FD 21r00r00      [14] 1012 	ld	iy, #_g_FieldCurrentYPosition
    000001D2 FD 86 00         [19] 1013 	add	a, 0 (iy)
    000001D5 32r00r00         [13] 1014 	ld	(_g_FieldCurrentYPosition+0), a
    000001D8 78               [ 4] 1015 	ld	a, b
    000001D9 FD 8E 01         [19] 1016 	adc	a, 1 (iy)
    000001DC 32r01r00         [13] 1017 	ld	(_g_FieldCurrentYPosition+1), a
                                   1018 ;./exsoccer.c:147: if(g_FieldCurrentYPosition > 136) g_FieldCurrentYPosition = 136;
    000001DF 3E 88            [ 7] 1019 	ld	a, #0x88
    000001E1 FD BE 00         [19] 1020 	cp	a, 0 (iy)
    000001E4 3E 00            [ 7] 1021 	ld	a, #0x00
    000001E6 FD 9E 01         [19] 1022 	sbc	a, 1 (iy)
    000001E9 E2rEEr01         [10] 1023 	jp	PO, 00194$
    000001EC EE 80            [ 7] 1024 	xor	a, #0x80
    000001EE                       1025 00194$:
    000001EE F2r38r02         [10] 1026 	jp	P, 00118$
    000001F1 21 88 00         [10] 1027 	ld	hl, #0x0088
    000001F4 22r00r00         [16] 1028 	ld	(_g_FieldCurrentYPosition), hl
    000001F7 C3r38r02         [10] 1029 	jp	00118$
    000001FA                       1030 00113$:
                                   1031 ;./exsoccer.c:152: g_FieldScrollingActionInProgress = NO_VALUE;
    000001FA 21r02r00         [10] 1032 	ld	hl, #_g_FieldScrollingActionInProgress
    000001FD 36 FF            [10] 1033 	ld	(hl), #0xff
                                   1034 ;./exsoccer.c:153: g_ActiveFieldZone = FIELD_CENTRAL_ZONE;
    000001FF 21r7Dr01         [10] 1035 	ld	hl, #_g_ActiveFieldZone
    00000202 36 01            [10] 1036 	ld	(hl), #0x01
                                   1037 ;./exsoccer.c:155: break;
    00000204 C3r38r02         [10] 1038 	jp	00118$
                                   1039 ;./exsoccer.c:156: case FIELD_SOUTH_ZONE:
    00000207                       1040 00115$:
                                   1041 ;./exsoccer.c:157: g_FieldCurrentYPosition = g_FieldCurrentYPosition + g_FieldScrollSpeed;
    00000207 3Ar05r00         [13] 1042 	ld	a, (_g_FieldScrollSpeed+0)
    0000020A 4F               [ 4] 1043 	ld	c, a
    0000020B 06 00            [ 7] 1044 	ld	b, #0x00
    0000020D 79               [ 4] 1045 	ld	a, c
    0000020E FD 21r00r00      [14] 1046 	ld	iy, #_g_FieldCurrentYPosition
    00000212 FD 86 00         [19] 1047 	add	a, 0 (iy)
    00000215 32r00r00         [13] 1048 	ld	(_g_FieldCurrentYPosition+0), a
    00000218 78               [ 4] 1049 	ld	a, b
    00000219 FD 8E 01         [19] 1050 	adc	a, 1 (iy)
    0000021C 32r01r00         [13] 1051 	ld	(_g_FieldCurrentYPosition+1), a
                                   1052 ;./exsoccer.c:158: if (g_FieldCurrentYPosition >= FIELD_BOTTOM_Y) {
    0000021F 3Ar00r00         [13] 1053 	ld	a, (_g_FieldCurrentYPosition+0)
    00000222 D6 18            [ 7] 1054 	sub	a, #0x18
    00000224 3Ar01r00         [13] 1055 	ld	a, (_g_FieldCurrentYPosition+1)
    00000227 17               [ 4] 1056 	rla
    00000228 3F               [ 4] 1057 	ccf
    00000229 1F               [ 4] 1058 	rra
    0000022A DE 81            [ 7] 1059 	sbc	a, #0x81
    0000022C 38 0A            [12] 1060 	jr	C, 00118$
                                   1061 ;./exsoccer.c:159: g_ActiveFieldZone = FIELD_SOUTH_ZONE;
    0000022E 21r7Dr01         [10] 1062 	ld	hl, #_g_ActiveFieldZone
    00000231 36 02            [10] 1063 	ld	(hl), #0x02
                                   1064 ;./exsoccer.c:160: g_FieldScrollingActionInProgress = NO_VALUE;
    00000233 21r02r00         [10] 1065 	ld	hl, #_g_FieldScrollingActionInProgress
    00000236 36 FF            [10] 1066 	ld	(hl), #0xff
                                   1067 ;./exsoccer.c:163: }
    00000238                       1068 00118$:
                                   1069 ;./exsoccer.c:164: V9_SetScrollingBY(g_FieldCurrentYPosition);
    00000238 2Ar00r00         [16] 1070 	ld	hl, (_g_FieldCurrentYPosition)
    0000023B CDr00r00         [17] 1071 	call	_V9_SetScrollingBY
                                   1072 ;./exsoccer.c:165: for(u8 i=0;i<6;i++){
    0000023E 0E 00            [ 7] 1073 	ld	c, #0x00
    00000240                       1074 00123$:
    00000240 79               [ 4] 1075 	ld	a, c
    00000241 D6 06            [ 7] 1076 	sub	a, #0x06
    00000243 D0               [11] 1077 	ret	NC
                                   1078 ;./exsoccer.c:166: PutPonPonGirlSprite(i);
    00000244 C5               [11] 1079 	push	bc
    00000245 79               [ 4] 1080 	ld	a, c
    00000246 CDr00r00         [17] 1081 	call	_PutPonPonGirlSprite
    00000249 C1               [10] 1082 	pop	bc
                                   1083 ;./exsoccer.c:165: for(u8 i=0;i<6;i++){
    0000024A 0C               [ 4] 1084 	inc	c
                                   1085 ;./exsoccer.c:169: }
    0000024B C3r40r02         [10] 1086 	jp	00123$
                                   1087 ;./exsoccer.c:172: void V9_InterruptHBlank()
                                   1088 ;	---------------------------------
                                   1089 ; Function V9_InterruptHBlank
                                   1090 ; ---------------------------------
    0000024E                       1091 _V9_InterruptHBlank::
                                   1092 ;./exsoccer.c:175: }
    0000024E C9               [10] 1093 	ret
                                   1094 ;./exsoccer.c:178: void V9_InterruptCommand()
                                   1095 ;	---------------------------------
                                   1096 ; Function V9_InterruptCommand
                                   1097 ; ---------------------------------
    0000024F                       1098 _V9_InterruptCommand::
                                   1099 ;./exsoccer.c:181: }
    0000024F C9               [10] 1100 	ret
                                   1101 ;./exsoccer.c:203: void GameStart(){
                                   1102 ;	---------------------------------
                                   1103 ; Function GameStart
                                   1104 ; ---------------------------------
    00000250                       1105 _GameStart::
                                   1106 ;./exsoccer.c:204: g_FioBre=true;
    00000250 21r11r00         [10] 1107 	ld	hl, #_g_FioBre
    00000253 36 01            [10] 1108 	ld	(hl), #0x01
                                   1109 ;E:/Dropbox/FAUSTO/SVILUPPI/MSX/CODE/C/MSXgl/engine/src/v9990.h:258: inline void V9_SetFlag(u8 reg, u8 mask, u8 flag) { V9_SetRegister(reg, V9_GetRegister(reg) & (~mask) | flag); }
    00000255 3E 08            [ 7] 1110 	ld	a, #0x08
    00000257 CDr00r00         [17] 1111 	call	_V9_GetRegister
    0000025A 6F               [ 4] 1112 	ld	l, a
                                   1113 ;	spillPairReg hl
                                   1114 ;	spillPairReg hl
    0000025B CB BD            [ 8] 1115 	res	7, l
    0000025D 3E 08            [ 7] 1116 	ld	a, #0x08
    0000025F CDr00r00         [17] 1117 	call	_V9_SetRegister
                                   1118 ;./exsoccer.c:206: g_SecondsToEndOfMatch=MATCH_DURATION;
    00000262 21r7Fr01         [10] 1119 	ld	hl, #_g_SecondsToEndOfMatch
    00000265 36 78            [10] 1120 	ld	(hl), #0x78
                                   1121 ;./exsoccer.c:207: g_RestartKickTeamId=TEAM_1;
    00000267 21r7Er01         [10] 1122 	ld	hl, #_g_RestartKickTeamId
    0000026A 36 01            [10] 1123 	ld	(hl), #0x01
                                   1124 ;./exsoccer.c:208: g_FieldScrollSpeed=FIELD_SCROLL_PRESENTATION_SPEED;
    0000026C 21r05r00         [10] 1125 	ld	hl, #_g_FieldScrollSpeed
    0000026F 36 01            [10] 1126 	ld	(hl), #0x01
                                   1127 ;./exsoccer.c:209: g_FieldScrollingActionInProgress=NO_VALUE;
    00000271 21r02r00         [10] 1128 	ld	hl, #_g_FieldScrollingActionInProgress
    00000274 36 FF            [10] 1129 	ld	(hl), #0xff
                                   1130 ;./exsoccer.c:210: g_FieldCurrentYPosition=FIELD_TOP_Y;
    00000276 21 01 00         [10] 1131 	ld	hl, #0x0001
    00000279 22r00r00         [16] 1132 	ld	(_g_FieldCurrentYPosition), hl
                                   1133 ;./exsoccer.c:211: g_Team1Score=0;
    0000027C AF               [ 4] 1134 	xor	a, a
    0000027D 32r04r00         [13] 1135 	ld	(#_g_Team1Score), a
                                   1136 ;./exsoccer.c:212: g_Team2Score=0;
    00000280 AF               [ 4] 1137 	xor	a, a
    00000281 32r05r00         [13] 1138 	ld	(#_g_Team2Score), a
                                   1139 ;./exsoccer.c:213: g_Team1PaletteId=TEAM_ITA;
    00000284 3E 02            [ 7] 1140 	ld	a, #0x02
    00000286 32r02r00         [13] 1141 	ld	(#_g_Team1PaletteId), a
                                   1142 ;./exsoccer.c:214: g_Team2PaletteId=TEAM_AUS;
    00000289 AF               [ 4] 1143 	xor	a, a
    0000028A 32r03r00         [13] 1144 	ld	(#_g_Team2PaletteId), a
                                   1145 ;./exsoccer.c:215: V9_SetScrollingY(0);
    0000028D 6C               [ 4] 1146 	ld	l, h
    0000028E CDr00r00         [17] 1147 	call	_V9_SetScrollingY
                                   1148 ;./exsoccer.c:216: V9_SetScrollingBY(1);
    00000291 21 01 00         [10] 1149 	ld	hl, #0x0001
    00000294 CDr00r00         [17] 1150 	call	_V9_SetScrollingBY
                                   1151 ;./exsoccer.c:217: SetTeam1Palette();
    00000297 CDr00r00         [17] 1152 	call	_SetTeam1Palette
                                   1153 ;./exsoccer.c:218: SetTeam2Palette();
    0000029A CDr00r00         [17] 1154 	call	_SetTeam2Palette
                                   1155 ;./exsoccer.c:219: SetTeamsPresentationSpritesPosition();
    0000029D CDrBAr02         [17] 1156 	call	_SetTeamsPresentationSpritesPosition
                                   1157 ;./exsoccer.c:220: ShowFieldZone(FIELD_CENTRAL_ZONE);
    000002A0 3E 01            [ 7] 1158 	ld	a, #0x01
    000002A2 CDr00r00         [17] 1159 	call	_ShowFieldZone
                                   1160 ;./exsoccer.c:221: ShowHeaderInfo();
    000002A5 CDr00r00         [17] 1161 	call	_ShowHeaderInfo
                                   1162 ;./exsoccer.c:222: InitPonPonGirls();
    000002A8 CDr00r00         [17] 1163 	call	_InitPonPonGirls
                                   1164 ;E:/Dropbox/FAUSTO/SVILUPPI/MSX/CODE/C/MSXgl/engine/src/v9990.h:258: inline void V9_SetFlag(u8 reg, u8 mask, u8 flag) { V9_SetRegister(reg, V9_GetRegister(reg) & (~mask) | flag); }
    000002AB 3E 08            [ 7] 1165 	ld	a, #0x08
    000002AD CDr00r00         [17] 1166 	call	_V9_GetRegister
    000002B0 CB BF            [ 8] 1167 	res	7, a
    000002B2 6F               [ 4] 1168 	ld	l, a
                                   1169 ;	spillPairReg hl
                                   1170 ;	spillPairReg hl
    000002B3 CB FD            [ 8] 1171 	set	7, l
    000002B5 3E 08            [ 7] 1172 	ld	a, #0x08
                                   1173 ;./exsoccer.c:223: V9_SetDisplayEnable(TRUE);
                                   1174 ;./exsoccer.c:224: }
    000002B7 C3r00r00         [10] 1175 	jp	_V9_SetRegister
                                   1176 ;./exsoccer.c:225: void SetTeamsPresentationSpritesPosition(){
                                   1177 ;	---------------------------------
                                   1178 ; Function SetTeamsPresentationSpritesPosition
                                   1179 ; ---------------------------------
    000002BA                       1180 _SetTeamsPresentationSpritesPosition::
    000002BA DD E5            [15] 1181 	push	ix
    000002BC DD 21 00 00      [14] 1182 	ld	ix,#0
    000002C0 DD 39            [15] 1183 	add	ix,sp
    000002C2 F5               [11] 1184 	push	af
    000002C3 F5               [11] 1185 	push	af
                                   1186 ;./exsoccer.c:226: g_MatchStatus=MATCH_NOT_STARTED;
    000002C4 21r04r00         [10] 1187 	ld	hl, #_g_MatchStatus
                                   1188 ;./exsoccer.c:227: for(u8 i=0;i<7;i++){
    000002C7 36 00            [10] 1189 	ld	(hl), #0x00
    000002C9 4E               [ 7] 1190 	ld	c, (hl)
    000002CA                       1191 00105$:
    000002CA 79               [ 4] 1192 	ld	a, c
    000002CB D6 07            [ 7] 1193 	sub	a, #0x07
    000002CD 30 53            [12] 1194 	jr	NC, 00101$
                                   1195 ;./exsoccer.c:228: g_Players[i].Y=230;
    000002CF 06 00            [ 7] 1196 	ld	b, #0x00
    000002D1 69               [ 4] 1197 	ld	l, c
    000002D2 60               [ 4] 1198 	ld	h, b
    000002D3 29               [11] 1199 	add	hl, hl
    000002D4 29               [11] 1200 	add	hl, hl
    000002D5 09               [11] 1201 	add	hl, bc
    000002D6 29               [11] 1202 	add	hl, hl
    000002D7 29               [11] 1203 	add	hl, hl
    000002D8 09               [11] 1204 	add	hl, bc
    000002D9 EB               [ 4] 1205 	ex	de, hl
    000002DA 21r06r00         [10] 1206 	ld	hl, #_g_Players
    000002DD 19               [11] 1207 	add	hl, de
    000002DE E3               [19] 1208 	ex	(sp), hl
    000002DF E1               [10] 1209 	pop	hl
    000002E0 E5               [11] 1210 	push	hl
    000002E1 36 E6            [10] 1211 	ld	(hl), #0xe6
    000002E3 23               [ 6] 1212 	inc	hl
    000002E4 36 00            [10] 1213 	ld	(hl), #0x00
                                   1214 ;./exsoccer.c:229: g_Players[i].X=72+i*20;
    000002E6 DD 7E FC         [19] 1215 	ld	a, -4 (ix)
    000002E9 C6 02            [ 7] 1216 	add	a, #0x02
    000002EB DD 77 FE         [19] 1217 	ld	-2 (ix), a
    000002EE DD 7E FD         [19] 1218 	ld	a, -3 (ix)
    000002F1 CE 00            [ 7] 1219 	adc	a, #0x00
    000002F3 DD 77 FF         [19] 1220 	ld	-1 (ix), a
    000002F6 59               [ 4] 1221 	ld	e, c
    000002F7 16 00            [ 7] 1222 	ld	d, #0x00
    000002F9 6B               [ 4] 1223 	ld	l, e
    000002FA 62               [ 4] 1224 	ld	h, d
    000002FB 29               [11] 1225 	add	hl, hl
    000002FC 29               [11] 1226 	add	hl, hl
    000002FD 19               [11] 1227 	add	hl, de
    000002FE 29               [11] 1228 	add	hl, hl
    000002FF 29               [11] 1229 	add	hl, hl
    00000300 11 48 00         [10] 1230 	ld	de, #0x0048
    00000303 19               [11] 1231 	add	hl, de
    00000304 EB               [ 4] 1232 	ex	de, hl
    00000305 DD 6E FE         [19] 1233 	ld	l, -2 (ix)
    00000308 DD 66 FF         [19] 1234 	ld	h, -1 (ix)
    0000030B 73               [ 7] 1235 	ld	(hl), e
    0000030C 23               [ 6] 1236 	inc	hl
    0000030D 72               [ 7] 1237 	ld	(hl), d
                                   1238 ;./exsoccer.c:230: g_Players[i].PatternId=PLAYER_POSE_FRONT;
    0000030E E1               [10] 1239 	pop	hl
    0000030F E5               [11] 1240 	push	hl
    00000310 11 08 00         [10] 1241 	ld	de, #0x0008
    00000313 19               [11] 1242 	add	hl, de
    00000314 36 10            [10] 1243 	ld	(hl), #0x10
                                   1244 ;./exsoccer.c:231: g_Players[i].TeamId=TEAM_2;
    00000316 E1               [10] 1245 	pop	hl
    00000317 E5               [11] 1246 	push	hl
    00000318 11 09 00         [10] 1247 	ld	de, #0x0009
    0000031B 19               [11] 1248 	add	hl, de
    0000031C 36 02            [10] 1249 	ld	(hl), #0x02
                                   1250 ;./exsoccer.c:227: for(u8 i=0;i<7;i++){
    0000031E 0C               [ 4] 1251 	inc	c
    0000031F C3rCAr02         [10] 1252 	jp	00105$
    00000322                       1253 00101$:
                                   1254 ;./exsoccer.c:234: for(u8 i=7;i<14;i++){
    00000322 0E 07            [ 7] 1255 	ld	c, #0x07
    00000324                       1256 00108$:
    00000324 79               [ 4] 1257 	ld	a, c
    00000325 D6 0E            [ 7] 1258 	sub	a, #0x0e
    00000327 30 55            [12] 1259 	jr	NC, 00102$
                                   1260 ;./exsoccer.c:235: g_Players[i].Y=250;
    00000329 06 00            [ 7] 1261 	ld	b, #0x00
    0000032B 69               [ 4] 1262 	ld	l, c
    0000032C 60               [ 4] 1263 	ld	h, b
    0000032D 29               [11] 1264 	add	hl, hl
    0000032E 29               [11] 1265 	add	hl, hl
    0000032F 09               [11] 1266 	add	hl, bc
    00000330 29               [11] 1267 	add	hl, hl
    00000331 29               [11] 1268 	add	hl, hl
    00000332 09               [11] 1269 	add	hl, bc
    00000333 11r06r00         [10] 1270 	ld	de, #_g_Players
    00000336 19               [11] 1271 	add	hl, de
    00000337 5D               [ 4] 1272 	ld	e, l
    00000338 54               [ 4] 1273 	ld	d, h
    00000339 36 FA            [10] 1274 	ld	(hl), #0xfa
    0000033B 23               [ 6] 1275 	inc	hl
    0000033C 36 00            [10] 1276 	ld	(hl), #0x00
                                   1277 ;./exsoccer.c:236: g_Players[i].X=72+(i-7)*20;
    0000033E 21 02 00         [10] 1278 	ld	hl, #0x0002
    00000341 19               [11] 1279 	add	hl, de
    00000342 E3               [19] 1280 	ex	(sp), hl
    00000343 79               [ 4] 1281 	ld	a, c
    00000344 06 00            [ 7] 1282 	ld	b, #0x00
    00000346 C6 F9            [ 7] 1283 	add	a, #0xf9
    00000348 6F               [ 4] 1284 	ld	l, a
                                   1285 ;	spillPairReg hl
                                   1286 ;	spillPairReg hl
    00000349 78               [ 4] 1287 	ld	a, b
    0000034A CE FF            [ 7] 1288 	adc	a, #0xff
    0000034C 67               [ 4] 1289 	ld	h, a
                                   1290 ;	spillPairReg hl
                                   1291 ;	spillPairReg hl
    0000034D D5               [11] 1292 	push	de
    0000034E 5D               [ 4] 1293 	ld	e, l
    0000034F 54               [ 4] 1294 	ld	d, h
    00000350 29               [11] 1295 	add	hl, hl
    00000351 29               [11] 1296 	add	hl, hl
    00000352 19               [11] 1297 	add	hl, de
    00000353 29               [11] 1298 	add	hl, hl
    00000354 29               [11] 1299 	add	hl, hl
    00000355 D1               [10] 1300 	pop	de
    00000356 7D               [ 4] 1301 	ld	a, l
    00000357 C6 48            [ 7] 1302 	add	a, #0x48
    00000359 47               [ 4] 1303 	ld	b, a
    0000035A 7C               [ 4] 1304 	ld	a, h
    0000035B CE 00            [ 7] 1305 	adc	a, #0x00
    0000035D DD 70 FE         [19] 1306 	ld	-2 (ix), b
    00000360 DD 77 FF         [19] 1307 	ld	-1 (ix), a
    00000363 E1               [10] 1308 	pop	hl
    00000364 E5               [11] 1309 	push	hl
    00000365 DD 7E FE         [19] 1310 	ld	a, -2 (ix)
    00000368 77               [ 7] 1311 	ld	(hl), a
    00000369 23               [ 6] 1312 	inc	hl
    0000036A DD 7E FF         [19] 1313 	ld	a, -1 (ix)
    0000036D 77               [ 7] 1314 	ld	(hl), a
                                   1315 ;./exsoccer.c:237: g_Players[i].PatternId=PLAYER_POSE_BACK;
    0000036E 21 08 00         [10] 1316 	ld	hl, #0x0008
    00000371 19               [11] 1317 	add	hl, de
    00000372 36 11            [10] 1318 	ld	(hl), #0x11
                                   1319 ;./exsoccer.c:238: g_Players[i].TeamId=TEAM_1;
    00000374 21 09 00         [10] 1320 	ld	hl, #0x0009
    00000377 19               [11] 1321 	add	hl, de
    00000378 36 01            [10] 1322 	ld	(hl), #0x01
                                   1323 ;./exsoccer.c:234: for(u8 i=7;i<14;i++){
    0000037A 0C               [ 4] 1324 	inc	c
    0000037B C3r24r03         [10] 1325 	jp	00108$
    0000037E                       1326 00102$:
                                   1327 ;./exsoccer.c:240: g_Players[REFEREE].Y=FIELD_POS_Y_CENTER;
    0000037E 21 F3 00         [10] 1328 	ld	hl, #0x00f3
    00000381 22r2Cr01         [16] 1329 	ld	((_g_Players + 294)), hl
                                   1330 ;./exsoccer.c:241: g_Players[REFEREE].X=30;
    00000384 2E 1E            [ 7] 1331 	ld	l, #0x1e
    00000386 22r2Er01         [16] 1332 	ld	((_g_Players + 296)), hl
                                   1333 ;./exsoccer.c:242: g_Players[REFEREE].PatternId=PLAYER_POSE_RIGHT;
    00000389 21r34r01         [10] 1334 	ld	hl, #(_g_Players + 302)
    0000038C 36 9D            [10] 1335 	ld	(hl), #0x9d
                                   1336 ;./exsoccer.c:243: g_Players[REFEREE].TeamId=REFEREE;
    0000038E 21r35r01         [10] 1337 	ld	hl, #(_g_Players + 303)
    00000391 36 0E            [10] 1338 	ld	(hl), #0x0e
                                   1339 ;./exsoccer.c:244: g_Players[REFEREE].LastPose=0;
    00000393 21r38r01         [10] 1340 	ld	hl, #(_g_Players + 306)
    00000396 36 00            [10] 1341 	ld	(hl), #0x00
                                   1342 ;./exsoccer.c:245: g_Players[REFEREE].Direction=DIRECTION_RIGHT;
    00000398 21r36r01         [10] 1343 	ld	hl, #(_g_Players + 304)
    0000039B 36 03            [10] 1344 	ld	(hl), #0x03
                                   1345 ;./exsoccer.c:246: g_Players[REFEREE].Role=NO_VALUE;
    0000039D 21r39r01         [10] 1346 	ld	hl, #(_g_Players + 307)
    000003A0 36 FF            [10] 1347 	ld	(hl), #0xff
                                   1348 ;./exsoccer.c:247: g_Players[REFEREE].Status=PLAYER_STATUS_NONE;
    000003A2 21 00 00         [10] 1349 	ld	hl, #0x0000
    000003A5 22r3Er01         [16] 1350 	ld	((_g_Players + 312)), hl
                                   1351 ;./exsoccer.c:248: ResetPlayersInfo();
    000003A8 CDr00r00         [17] 1352 	call	_ResetPlayersInfo
                                   1353 ;./exsoccer.c:249: SetPlayerTarget(REFEREE); 
    000003AB 3E 0E            [ 7] 1354 	ld	a, #0x0e
    000003AD CDr7Cr14         [17] 1355 	call	_SetPlayerTarget
                                   1356 ;./exsoccer.c:257: for(u8 i=0;i<14;i++){
    000003B0 0E 00            [ 7] 1357 	ld	c, #0x00
    000003B2                       1358 00111$:
    000003B2 79               [ 4] 1359 	ld	a, c
    000003B3 D6 0E            [ 7] 1360 	sub	a, #0x0e
    000003B5 30 39            [12] 1361 	jr	NC, 00103$
                                   1362 ;./exsoccer.c:258: g_Players[i].AiTickCounter=0;
    000003B7 06 00            [ 7] 1363 	ld	b, #0x00
    000003B9 69               [ 4] 1364 	ld	l, c
    000003BA 60               [ 4] 1365 	ld	h, b
    000003BB 29               [11] 1366 	add	hl, hl
    000003BC 29               [11] 1367 	add	hl, hl
    000003BD 09               [11] 1368 	add	hl, bc
    000003BE 29               [11] 1369 	add	hl, hl
    000003BF 29               [11] 1370 	add	hl, hl
    000003C0 09               [11] 1371 	add	hl, bc
    000003C1 EB               [ 4] 1372 	ex	de, hl
    000003C2 21r06r00         [10] 1373 	ld	hl, #_g_Players
    000003C5 19               [11] 1374 	add	hl, de
    000003C6 EB               [ 4] 1375 	ex	de, hl
    000003C7 21 14 00         [10] 1376 	ld	hl, #0x0014
    000003CA 19               [11] 1377 	add	hl, de
    000003CB 36 00            [10] 1378 	ld	(hl), #0x00
                                   1379 ;./exsoccer.c:259: g_Players[i].Role = k_PlayerRoles[i % 7];
    000003CD 21 0D 00         [10] 1380 	ld	hl, #0x000d
    000003D0 19               [11] 1381 	add	hl, de
    000003D1 DD 75 FE         [19] 1382 	ld	-2 (ix), l
    000003D4 DD 74 FF         [19] 1383 	ld	-1 (ix), h
    000003D7 69               [ 4] 1384 	ld	l, c
                                   1385 ;	spillPairReg hl
                                   1386 ;	spillPairReg hl
    000003D8 26 00            [ 7] 1387 	ld	h, #0x00
                                   1388 ;	spillPairReg hl
                                   1389 ;	spillPairReg hl
    000003DA C5               [11] 1390 	push	bc
    000003DB 11 07 00         [10] 1391 	ld	de, #0x0007
    000003DE CDr00r00         [17] 1392 	call	__modsint
    000003E1 C1               [10] 1393 	pop	bc
    000003E2 21r0Dr04         [10] 1394 	ld	hl, #_SetTeamsPresentationSpritesPosition_k_PlayerRoles_65537_1281
    000003E5 19               [11] 1395 	add	hl, de
    000003E6 7E               [ 7] 1396 	ld	a, (hl)
    000003E7 D1               [10] 1397 	pop	de
    000003E8 E1               [10] 1398 	pop	hl
    000003E9 E5               [11] 1399 	push	hl
    000003EA D5               [11] 1400 	push	de
    000003EB 77               [ 7] 1401 	ld	(hl), a
                                   1402 ;./exsoccer.c:257: for(u8 i=0;i<14;i++){
    000003EC 0C               [ 4] 1403 	inc	c
    000003ED C3rB2r03         [10] 1404 	jp	00111$
    000003F0                       1405 00103$:
                                   1406 ;./exsoccer.c:261: g_Ball.X=FIELD_POS_X_CENTER;
    000003F0 21 78 00         [10] 1407 	ld	hl, #0x0078
    000003F3 22r61r01         [16] 1408 	ld	((_g_Ball + 2)), hl
                                   1409 ;./exsoccer.c:262: g_Ball.Y=FIELD_POS_Y_CENTER;
    000003F6 2E F3            [ 7] 1410 	ld	l, #0xf3
    000003F8 22r5Fr01         [16] 1411 	ld	(_g_Ball), hl
                                   1412 ;./exsoccer.c:263: g_Ball.PreviousY=g_Ball.Y;
    000003FB ED 4Br5Fr01      [20] 1413 	ld	bc, (#_g_Ball + 0)
    000003FF ED 43r66r01      [20] 1414 	ld	((_g_Ball + 7)), bc
                                   1415 ;./exsoccer.c:264: ResetBallInfo(true);
    00000403 3E 01            [ 7] 1416 	ld	a, #0x01
    00000405 CDr00r00         [17] 1417 	call	_ResetBallInfo
                                   1418 ;./exsoccer.c:266: }
    00000408 DD F9            [10] 1419 	ld	sp, ix
    0000040A DD E1            [14] 1420 	pop	ix
    0000040C C9               [10] 1421 	ret
    0000040D                       1422 _SetTeamsPresentationSpritesPosition_k_PlayerRoles_65537_1281:
    0000040D 00                    1423 	.db #0x00	; 0
    0000040E 01                    1424 	.db #0x01	; 1
    0000040F 04                    1425 	.db #0x04	; 4
    00000410 03                    1426 	.db #0x03	; 3
    00000411 02                    1427 	.db #0x02	; 2
    00000412 05                    1428 	.db #0x05	; 5
    00000413 06                    1429 	.db #0x06	; 6
                                   1430 ;./exsoccer.c:269: void TickActiveFieldZone(){
                                   1431 ;	---------------------------------
                                   1432 ; Function TickActiveFieldZone
                                   1433 ; ---------------------------------
    00000414                       1434 _TickActiveFieldZone::
                                   1435 ;./exsoccer.c:272: if (g_MatchStatus != MATCH_IN_ACTION) return;
    00000414 3Ar04r00         [13] 1436 	ld	a, (_g_MatchStatus+0)
    00000417 D6 0C            [ 7] 1437 	sub	a, #0x0c
    00000419 C0               [11] 1438 	ret	NZ
                                   1439 ;./exsoccer.c:274: if (g_ActiveFieldZone == FIELD_CENTRAL_ZONE) {
    0000041A 3Ar7Dr01         [13] 1440 	ld	a, (_g_ActiveFieldZone+0)
    0000041D 3D               [ 4] 1441 	dec	a
    0000041E 20 22            [12] 1442 	jr	NZ, 00116$
                                   1443 ;./exsoccer.c:275: if (g_Ball.Y < 170) ShowFieldZone(FIELD_NORTH_ZONE);
    00000420 2Ar5Fr01         [16] 1444 	ld	hl, (#_g_Ball + 0)
    00000423 7D               [ 4] 1445 	ld	a, l
    00000424 D6 AA            [ 7] 1446 	sub	a, #0xaa
    00000426 7C               [ 4] 1447 	ld	a, h
    00000427 DE 00            [ 7] 1448 	sbc	a, #0x00
    00000429 30 07            [12] 1449 	jr	NC, 00106$
    0000042B AF               [ 4] 1450 	xor	a, a
    0000042C CDr00r00         [17] 1451 	call	_ShowFieldZone
    0000042F C3r6Br04         [10] 1452 	jp	00117$
    00000432                       1453 00106$:
                                   1454 ;./exsoccer.c:276: else if (g_Ball.Y > 320) ShowFieldZone(FIELD_SOUTH_ZONE);
    00000432 3E 40            [ 7] 1455 	ld	a, #0x40
    00000434 BD               [ 4] 1456 	cp	a, l
    00000435 3E 01            [ 7] 1457 	ld	a, #0x01
    00000437 9C               [ 4] 1458 	sbc	a, h
    00000438 30 31            [12] 1459 	jr	NC, 00117$
    0000043A 3E 02            [ 7] 1460 	ld	a, #0x02
    0000043C CDr00r00         [17] 1461 	call	_ShowFieldZone
    0000043F C3r6Br04         [10] 1462 	jp	00117$
    00000442                       1463 00116$:
                                   1464 ;./exsoccer.c:278: else if (g_ActiveFieldZone == FIELD_NORTH_ZONE) {
    00000442 3Ar7Dr01         [13] 1465 	ld	a, (_g_ActiveFieldZone+0)
    00000445 B7               [ 4] 1466 	or	a, a
    00000446 20 13            [12] 1467 	jr	NZ, 00113$
                                   1468 ;./exsoccer.c:279: if (g_Ball.Y > 190) ShowFieldZone(FIELD_CENTRAL_ZONE);
    00000448 2Ar5Fr01         [16] 1469 	ld	hl, (#_g_Ball + 0)
    0000044B 3E BE            [ 7] 1470 	ld	a, #0xbe
    0000044D BD               [ 4] 1471 	cp	a, l
    0000044E 3E 00            [ 7] 1472 	ld	a, #0x00
    00000450 9C               [ 4] 1473 	sbc	a, h
    00000451 30 18            [12] 1474 	jr	NC, 00117$
    00000453 3E 01            [ 7] 1475 	ld	a, #0x01
    00000455 CDr00r00         [17] 1476 	call	_ShowFieldZone
    00000458 C3r6Br04         [10] 1477 	jp	00117$
    0000045B                       1478 00113$:
                                   1479 ;./exsoccer.c:282: if (g_Ball.Y < 300) ShowFieldZone(FIELD_CENTRAL_ZONE);
    0000045B 2Ar5Fr01         [16] 1480 	ld	hl, (#_g_Ball + 0)
    0000045E 11 2C 01         [10] 1481 	ld	de, #0x012c
    00000461 BF               [ 4] 1482 	cp	a, a
    00000462 ED 52            [15] 1483 	sbc	hl, de
    00000464 30 05            [12] 1484 	jr	NC, 00117$
    00000466 3E 01            [ 7] 1485 	ld	a, #0x01
    00000468 CDr00r00         [17] 1486 	call	_ShowFieldZone
    0000046B                       1487 00117$:
                                   1488 ;./exsoccer.c:284: g_Ball.PreviousY=g_Ball.Y;
    0000046B ED 4Br5Fr01      [20] 1489 	ld	bc, (#_g_Ball + 0)
    0000046F ED 43r66r01      [20] 1490 	ld	((_g_Ball + 7)), bc
                                   1491 ;./exsoccer.c:285: }
    00000473 C9               [10] 1492 	ret
                                   1493 ;./exsoccer.c:286: void TickUpdateTime(){
                                   1494 ;	---------------------------------
                                   1495 ; Function TickUpdateTime
                                   1496 ; ---------------------------------
    00000474                       1497 _TickUpdateTime::
                                   1498 ;./exsoccer.c:287: if(g_MatchStatus==MATCH_IN_ACTION){
    00000474 3Ar04r00         [13] 1499 	ld	a, (_g_MatchStatus+0)
    00000477 D6 0C            [ 7] 1500 	sub	a, #0x0c
    00000479 20 19            [12] 1501 	jr	NZ, 00106$
                                   1502 ;./exsoccer.c:289: if(g_FrameCounter==58){
    0000047B 2Ar00r00         [16] 1503 	ld	hl, (_g_FrameCounter)
    0000047E 7D               [ 4] 1504 	ld	a, l
    0000047F D6 3A            [ 7] 1505 	sub	a, #0x3a
    00000481 B4               [ 4] 1506 	or	a, h
    00000482 20 10            [12] 1507 	jr	NZ, 00106$
                                   1508 ;./exsoccer.c:290: g_SecondsToEndOfMatch--;
    00000484 21r7Fr01         [10] 1509 	ld	hl, #_g_SecondsToEndOfMatch
    00000487 35               [11] 1510 	dec	(hl)
                                   1511 ;./exsoccer.c:291: ShowHeaderInfo();
    00000488 CDr00r00         [17] 1512 	call	_ShowHeaderInfo
                                   1513 ;./exsoccer.c:292: if(g_SecondsToEndOfMatch==0){
    0000048B 3Ar7Fr01         [13] 1514 	ld	a, (_g_SecondsToEndOfMatch+0)
    0000048E B7               [ 4] 1515 	or	a, a
    0000048F 20 03            [12] 1516 	jr	NZ, 00106$
                                   1517 ;./exsoccer.c:293: TimeUp();
    00000491 CDr00r00         [17] 1518 	call	_TimeUp
    00000494                       1519 00106$:
                                   1520 ;./exsoccer.c:297: if(g_Timer!=NO_VALUE){
    00000494 3Ar06r00         [13] 1521 	ld	a, (_g_Timer+0)
    00000497 3C               [ 4] 1522 	inc	a
    00000498 C8               [11] 1523 	ret	Z
                                   1524 ;./exsoccer.c:298: if(g_FrameCounter==58){
    00000499 2Ar00r00         [16] 1525 	ld	hl, (_g_FrameCounter)
    0000049C 7D               [ 4] 1526 	ld	a, l
    0000049D D6 3A            [ 7] 1527 	sub	a, #0x3a
    0000049F B4               [ 4] 1528 	or	a, h
    000004A0 C0               [11] 1529 	ret	NZ
                                   1530 ;./exsoccer.c:299: g_Timer++;
    000004A1 21r06r00         [10] 1531 	ld	hl, #_g_Timer
    000004A4 34               [11] 1532 	inc	(hl)
                                   1533 ;./exsoccer.c:303: }
    000004A5 C9               [10] 1534 	ret
                                   1535 ;./exsoccer.c:304: u16 GetOffsideLineY(u8 attackingTeamId) {
                                   1536 ;	---------------------------------
                                   1537 ; Function GetOffsideLineY
                                   1538 ; ---------------------------------
    000004A6                       1539 _GetOffsideLineY::
    000004A6 DD E5            [15] 1540 	push	ix
    000004A8 DD 21 00 00      [14] 1541 	ld	ix,#0
    000004AC DD 39            [15] 1542 	add	ix,sp
    000004AE 21 FB FF         [10] 1543 	ld	hl, #-5
    000004B1 39               [11] 1544 	add	hl, sp
    000004B2 F9               [ 6] 1545 	ld	sp, hl
    000004B3 4F               [ 4] 1546 	ld	c, a
                                   1547 ;./exsoccer.c:305: u8 defendingTeamId = (attackingTeamId == TEAM_1) ? TEAM_2 : TEAM_1;
    000004B4 0D               [ 4] 1548 	dec	c
    000004B5 3E 01            [ 7] 1549 	ld	a, #0x01
    000004B7 28 01            [12] 1550 	jr	Z, 00199$
    000004B9 AF               [ 4] 1551 	xor	a, a
    000004BA                       1552 00199$:
    000004BA B7               [ 4] 1553 	or	a, a
    000004BB 28 06            [12] 1554 	jr	Z, 00124$
    000004BD 01 02 00         [10] 1555 	ld	bc, #0x0002
    000004C0 C3rC6r04         [10] 1556 	jp	00125$
    000004C3                       1557 00124$:
    000004C3 01 01 00         [10] 1558 	ld	bc, #0x0001
    000004C6                       1559 00125$:
    000004C6 DD 71 FB         [19] 1560 	ld	-5 (ix), c
                                   1561 ;./exsoccer.c:306: bool findMin = (attackingTeamId == TEAM_1);
                                   1562 ;./exsoccer.c:309: u16 val1 = findMin ? 0xFFFF : 0;
    000004C9 5F               [ 4] 1563 	ld	e, a
    000004CA B7               [ 4] 1564 	or	a, a
    000004CB 28 06            [12] 1565 	jr	Z, 00126$
    000004CD 01 FF FF         [10] 1566 	ld	bc, #0xffff
    000004D0 C3rD6r04         [10] 1567 	jp	00127$
    000004D3                       1568 00126$:
    000004D3 01 00 00         [10] 1569 	ld	bc, #0x0000
    000004D6                       1570 00127$:
                                   1571 ;./exsoccer.c:310: u16 val2 = val1;
    000004D6 DD 71 FC         [19] 1572 	ld	-4 (ix), c
    000004D9 DD 70 FD         [19] 1573 	ld	-3 (ix), b
                                   1574 ;./exsoccer.c:312: for(u8 i=0; i<14; i++){
    000004DC 16 00            [ 7] 1575 	ld	d, #0x00
    000004DE                       1576 00121$:
    000004DE 7A               [ 4] 1577 	ld	a, d
    000004DF D6 0E            [ 7] 1578 	sub	a, #0x0e
    000004E1 D2r66r05         [10] 1579 	jp	NC, 00117$
                                   1580 ;./exsoccer.c:313: if(g_Players[i].TeamId != defendingTeamId) continue;
    000004E4 D5               [11] 1581 	push	de
    000004E5 5A               [ 4] 1582 	ld	e, d
    000004E6 16 00            [ 7] 1583 	ld	d, #0x00
    000004E8 6B               [ 4] 1584 	ld	l, e
    000004E9 62               [ 4] 1585 	ld	h, d
    000004EA 29               [11] 1586 	add	hl, hl
    000004EB 29               [11] 1587 	add	hl, hl
    000004EC 19               [11] 1588 	add	hl, de
    000004ED 29               [11] 1589 	add	hl, hl
    000004EE 29               [11] 1590 	add	hl, hl
    000004EF 19               [11] 1591 	add	hl, de
    000004F0 D1               [10] 1592 	pop	de
    000004F1 7D               [ 4] 1593 	ld	a, l
    000004F2 C6r06            [ 7] 1594 	add	a, #<(_g_Players)
    000004F4 DD 77 FE         [19] 1595 	ld	-2 (ix), a
    000004F7 7C               [ 4] 1596 	ld	a, h
    000004F8 CEs00            [ 7] 1597 	adc	a, #>(_g_Players)
    000004FA DD 77 FF         [19] 1598 	ld	-1 (ix), a
    000004FD DD 6E FE         [19] 1599 	ld	l, -2 (ix)
                                   1600 ;	spillPairReg hl
                                   1601 ;	spillPairReg hl
    00000500 DD 66 FF         [19] 1602 	ld	h, -1 (ix)
                                   1603 ;	spillPairReg hl
                                   1604 ;	spillPairReg hl
    00000503 C5               [11] 1605 	push	bc
    00000504 01 09 00         [10] 1606 	ld	bc, #0x0009
    00000507 09               [11] 1607 	add	hl, bc
    00000508 C1               [10] 1608 	pop	bc
                                   1609 ;	spillPairReg hl
    00000509 DD 7E FB         [19] 1610 	ld	a,-5 (ix)
    0000050C 96               [ 7] 1611 	sub	a,(hl)
    0000050D 20 53            [12] 1612 	jr	NZ, 00116$
                                   1613 ;./exsoccer.c:314: u16 y = g_Players[i].Y;
    0000050F DD 6E FE         [19] 1614 	ld	l, -2 (ix)
    00000512 DD 66 FF         [19] 1615 	ld	h, -1 (ix)
    00000515 7E               [ 7] 1616 	ld	a, (hl)
    00000516 23               [ 6] 1617 	inc	hl
    00000517 66               [ 7] 1618 	ld	h, (hl)
                                   1619 ;	spillPairReg hl
    00000518 6F               [ 4] 1620 	ld	l, a
                                   1621 ;	spillPairReg hl
                                   1622 ;	spillPairReg hl
                                   1623 ;./exsoccer.c:316: if (findMin) {
    00000519 7B               [ 4] 1624 	ld	a, e
    0000051A B7               [ 4] 1625 	or	a, a
    0000051B 28 24            [12] 1626 	jr	Z, 00114$
                                   1627 ;./exsoccer.c:317: if (y < val1) { val2 = val1; val1 = y; }
    0000051D 7D               [ 4] 1628 	ld	a, l
    0000051E DD 96 FC         [19] 1629 	sub	a, -4 (ix)
    00000521 7C               [ 4] 1630 	ld	a, h
    00000522 DD 9E FD         [19] 1631 	sbc	a, -3 (ix)
    00000525 30 0F            [12] 1632 	jr	NC, 00106$
    00000527 DD 4E FC         [19] 1633 	ld	c, -4 (ix)
    0000052A DD 46 FD         [19] 1634 	ld	b, -3 (ix)
    0000052D DD 75 FC         [19] 1635 	ld	-4 (ix), l
    00000530 DD 74 FD         [19] 1636 	ld	-3 (ix), h
    00000533 C3r62r05         [10] 1637 	jp	00116$
    00000536                       1638 00106$:
                                   1639 ;./exsoccer.c:318: else if (y < val2) { val2 = y; }
    00000536 7D               [ 4] 1640 	ld	a, l
    00000537 91               [ 4] 1641 	sub	a, c
    00000538 7C               [ 4] 1642 	ld	a, h
    00000539 98               [ 4] 1643 	sbc	a, b
    0000053A 30 26            [12] 1644 	jr	NC, 00116$
    0000053C 4D               [ 4] 1645 	ld	c, l
    0000053D 44               [ 4] 1646 	ld	b, h
    0000053E C3r62r05         [10] 1647 	jp	00116$
    00000541                       1648 00114$:
                                   1649 ;./exsoccer.c:320: if (y > val1) { val2 = val1; val1 = y; }
    00000541 DD 7E FC         [19] 1650 	ld	a, -4 (ix)
    00000544 95               [ 4] 1651 	sub	a, l
    00000545 DD 7E FD         [19] 1652 	ld	a, -3 (ix)
    00000548 9C               [ 4] 1653 	sbc	a, h
    00000549 30 0F            [12] 1654 	jr	NC, 00111$
    0000054B DD 4E FC         [19] 1655 	ld	c, -4 (ix)
    0000054E DD 46 FD         [19] 1656 	ld	b, -3 (ix)
    00000551 DD 75 FC         [19] 1657 	ld	-4 (ix), l
    00000554 DD 74 FD         [19] 1658 	ld	-3 (ix), h
    00000557 C3r62r05         [10] 1659 	jp	00116$
    0000055A                       1660 00111$:
                                   1661 ;./exsoccer.c:321: else if (y > val2) { val2 = y; }
    0000055A 79               [ 4] 1662 	ld	a, c
    0000055B 95               [ 4] 1663 	sub	a, l
    0000055C 78               [ 4] 1664 	ld	a, b
    0000055D 9C               [ 4] 1665 	sbc	a, h
    0000055E 30 02            [12] 1666 	jr	NC, 00116$
    00000560 4D               [ 4] 1667 	ld	c, l
    00000561 44               [ 4] 1668 	ld	b, h
    00000562                       1669 00116$:
                                   1670 ;./exsoccer.c:312: for(u8 i=0; i<14; i++){
    00000562 14               [ 4] 1671 	inc	d
    00000563 C3rDEr04         [10] 1672 	jp	00121$
    00000566                       1673 00117$:
                                   1674 ;./exsoccer.c:325: if (findMin) return (val2 == 0xFFFF) ? FIELD_BOUND_Y_TOP : val2;
    00000566 7B               [ 4] 1675 	ld	a, e
    00000567 B7               [ 4] 1676 	or	a, a
    00000568 28 0F            [12] 1677 	jr	Z, 00119$
    0000056A 59               [ 4] 1678 	ld	e, c
    0000056B 50               [ 4] 1679 	ld	d, b
    0000056C 7B               [ 4] 1680 	ld	a, e
    0000056D A2               [ 4] 1681 	and	a, d
    0000056E 3C               [ 4] 1682 	inc	a
    0000056F 20 03            [12] 1683 	jr	NZ, 00128$
    00000571 01 32 00         [10] 1684 	ld	bc, #0x0032
    00000574                       1685 00128$:
    00000574 59               [ 4] 1686 	ld	e, c
    00000575 50               [ 4] 1687 	ld	d, b
    00000576 C3r82r05         [10] 1688 	jp	00122$
    00000579                       1689 00119$:
                                   1690 ;./exsoccer.c:326: return (val2 == 0) ? FIELD_BOUND_Y_BOTTOM : val2;
    00000579 78               [ 4] 1691 	ld	a, b
    0000057A B1               [ 4] 1692 	or	a, c
    0000057B 20 03            [12] 1693 	jr	NZ, 00130$
    0000057D 01 AE 01         [10] 1694 	ld	bc, #0x01ae
    00000580                       1695 00130$:
    00000580 59               [ 4] 1696 	ld	e, c
    00000581 50               [ 4] 1697 	ld	d, b
    00000582                       1698 00122$:
                                   1699 ;./exsoccer.c:327: }
    00000582 DD F9            [10] 1700 	ld	sp, ix
    00000584 DD E1            [14] 1701 	pop	ix
    00000586 C9               [10] 1702 	ret
                                   1703 ;./exsoccer.c:328: void BallInGoal(u8 teamScored){
                                   1704 ;	---------------------------------
                                   1705 ; Function BallInGoal
                                   1706 ; ---------------------------------
    00000587                       1707 _BallInGoal::
    00000587 4F               [ 4] 1708 	ld	c, a
                                   1709 ;./exsoccer.c:330: V9_PrintLayerAStringAtPos(12,18,"IN  GOAL");
    00000588 C5               [11] 1710 	push	bc
    00000589 21rFCr05         [10] 1711 	ld	hl, #___str_0
    0000058C E5               [11] 1712 	push	hl
    0000058D 2E 12            [ 7] 1713 	ld	l, #0x12
                                   1714 ;	spillPairReg hl
                                   1715 ;	spillPairReg hl
    0000058F 3E 0C            [ 7] 1716 	ld	a, #0x0c
    00000591 CDr00r00         [17] 1717 	call	_V9_PrintLayerAStringAtPos
    00000594 C1               [10] 1718 	pop	bc
                                   1719 ;./exsoccer.c:332: g_GoalScorerId = g_Ball.PossessionPlayerId;
    00000595 21r65r01         [10] 1720 	ld	hl, #(_g_Ball + 6)
    00000598 7E               [ 7] 1721 	ld	a, (hl)
                                   1722 ;./exsoccer.c:335: if (g_GoalScorerId == NO_VALUE) {
    00000599 32r12r00         [13] 1723 	ld	(_g_GoalScorerId+0), a
    0000059C 3C               [ 4] 1724 	inc	a
    0000059D 20 0B            [12] 1725 	jr	NZ, 00102$
                                   1726 ;./exsoccer.c:336: g_GoalScorerId = GetClosestPlayerToBall(teamScored, NO_VALUE);
    0000059F C5               [11] 1727 	push	bc
    000005A0 2E FF            [ 7] 1728 	ld	l, #0xff
                                   1729 ;	spillPairReg hl
                                   1730 ;	spillPairReg hl
    000005A2 79               [ 4] 1731 	ld	a, c
    000005A3 CDr00r00         [17] 1732 	call	_GetClosestPlayerToBall
    000005A6 C1               [10] 1733 	pop	bc
    000005A7 32r12r00         [13] 1734 	ld	(_g_GoalScorerId+0), a
    000005AA                       1735 00102$:
                                   1736 ;./exsoccer.c:339: if(teamScored==TEAM_1){
    000005AA 0D               [ 4] 1737 	dec	c
    000005AB 3E 01            [ 7] 1738 	ld	a, #0x01
    000005AD 28 01            [12] 1739 	jr	Z, 00128$
    000005AF AF               [ 4] 1740 	xor	a, a
    000005B0                       1741 00128$:
    000005B0 4F               [ 4] 1742 	ld	c, a
    000005B1 B7               [ 4] 1743 	or	a, a
    000005B2 28 0D            [12] 1744 	jr	Z, 00104$
                                   1745 ;./exsoccer.c:341: g_Ball.Y = FIELD_BOUND_Y_TOP - 12;
    000005B4 21 26 00         [10] 1746 	ld	hl, #0x0026
    000005B7 22r5Fr01         [16] 1747 	ld	(_g_Ball), hl
                                   1748 ;./exsoccer.c:342: g_Team1Score++;
    000005BA 21r04r00         [10] 1749 	ld	hl, #_g_Team1Score
    000005BD 34               [11] 1750 	inc	(hl)
    000005BE C3rCBr05         [10] 1751 	jp	00105$
    000005C1                       1752 00104$:
                                   1753 ;./exsoccer.c:346: g_Ball.Y = FIELD_BOUND_Y_BOTTOM + 12L;
    000005C1 21 BA 01         [10] 1754 	ld	hl, #0x01ba
    000005C4 22r5Fr01         [16] 1755 	ld	(_g_Ball), hl
                                   1756 ;./exsoccer.c:347: g_Team2Score++;
    000005C7 21r05r00         [10] 1757 	ld	hl, #_g_Team2Score
    000005CA 34               [11] 1758 	inc	(hl)
    000005CB                       1759 00105$:
                                   1760 ;./exsoccer.c:349: ShowHeaderInfo();
    000005CB C5               [11] 1761 	push	bc
    000005CC CDr00r00         [17] 1762 	call	_ShowHeaderInfo
    000005CF C1               [10] 1763 	pop	bc
                                   1764 ;./exsoccer.c:351: g_MatchStatus=MATCH_AFTER_IN_GOAL;
    000005D0 21r04r00         [10] 1765 	ld	hl, #_g_MatchStatus
    000005D3 36 06            [10] 1766 	ld	(hl), #0x06
                                   1767 ;./exsoccer.c:352: g_RestartKickTeamId = (teamScored == TEAM_1) ? TEAM_2 : TEAM_1;
    000005D5 79               [ 4] 1768 	ld	a, c
    000005D6 B7               [ 4] 1769 	or	a, a
    000005D7 28 07            [12] 1770 	jr	Z, 00108$
    000005D9 3E 02            [ 7] 1771 	ld	a, #0x02
    000005DB 0E 00            [ 7] 1772 	ld	c, #0x00
    000005DD C3rE4r05         [10] 1773 	jp	00109$
    000005E0                       1774 00108$:
    000005E0 3E 01            [ 7] 1775 	ld	a, #0x01
    000005E2 0E 00            [ 7] 1776 	ld	c, #0x00
    000005E4                       1777 00109$:
    000005E4 32r7Er01         [13] 1778 	ld	(_g_RestartKickTeamId+0), a
                                   1779 ;./exsoccer.c:353: g_Timer = 0; // Start timer for celebration/reset
    000005E7 21r06r00         [10] 1780 	ld	hl, #_g_Timer
    000005EA 36 00            [10] 1781 	ld	(hl), #0x00
                                   1782 ;./exsoccer.c:354: g_Ball.ShotActive = 0;
    000005EC 21r7Ar01         [10] 1783 	ld	hl, #(_g_Ball + 27)
    000005EF 36 00            [10] 1784 	ld	(hl), #0x00
                                   1785 ;./exsoccer.c:355: g_Ball.PassTargetPlayerId = NO_VALUE;
    000005F1 21r6Fr01         [10] 1786 	ld	hl, #(_g_Ball + 16)
    000005F4 36 FF            [10] 1787 	ld	(hl), #0xff
                                   1788 ;./exsoccer.c:356: g_Ball.PossessionPlayerId = NO_VALUE;
    000005F6 21r65r01         [10] 1789 	ld	hl, #(_g_Ball + 6)
    000005F9 36 FF            [10] 1790 	ld	(hl), #0xff
                                   1791 ;./exsoccer.c:357: }
    000005FB C9               [10] 1792 	ret
    000005FC                       1793 ___str_0:
    000005FC 49 4E 20 20 47 4F 41  1794 	.ascii "IN  GOAL"
             4C
    00000604 00                    1795 	.db 0x00
                                   1796 ;./exsoccer.c:358: void BallThrowIn(u8 teamId){
                                   1797 ;	---------------------------------
                                   1798 ; Function BallThrowIn
                                   1799 ; ---------------------------------
    00000605                       1800 _BallThrowIn::
    00000605 DD E5            [15] 1801 	push	ix
    00000607 DD 21 00 00      [14] 1802 	ld	ix,#0
    0000060B DD 39            [15] 1803 	add	ix,sp
    0000060D 21 F8 FF         [10] 1804 	ld	hl, #-8
    00000610 39               [11] 1805 	add	hl, sp
    00000611 F9               [ 6] 1806 	ld	sp, hl
    00000612 DD 77 FE         [19] 1807 	ld	-2 (ix), a
                                   1808 ;./exsoccer.c:361: V9_PrintLayerAStringAtPos(10,18,"THROW IN");
    00000615 21r17r07         [10] 1809 	ld	hl, #___str_1
    00000618 E5               [11] 1810 	push	hl
    00000619 2E 12            [ 7] 1811 	ld	l, #0x12
                                   1812 ;	spillPairReg hl
                                   1813 ;	spillPairReg hl
    0000061B 3E 0A            [ 7] 1814 	ld	a, #0x0a
    0000061D CDr00r00         [17] 1815 	call	_V9_PrintLayerAStringAtPos
                                   1816 ;./exsoccer.c:362: g_MatchStatus=MATCH_BEFORE_THROW_IN;
    00000620 21r04r00         [10] 1817 	ld	hl, #_g_MatchStatus
    00000623 36 03            [10] 1818 	ld	(hl), #0x03
                                   1819 ;./exsoccer.c:363: g_RestartKickTeamId = teamId;
    00000625 DD 7E FE         [19] 1820 	ld	a, -2 (ix)
    00000628 32r7Er01         [13] 1821 	ld	(_g_RestartKickTeamId+0), a
                                   1822 ;./exsoccer.c:364: g_Timer = 0;
    0000062B 21r06r00         [10] 1823 	ld	hl, #_g_Timer
    0000062E 36 00            [10] 1824 	ld	(hl), #0x00
                                   1825 ;./exsoccer.c:367: g_Ball.ShotActive = 0;
    00000630 21r7Ar01         [10] 1826 	ld	hl, #(_g_Ball + 27)
    00000633 36 00            [10] 1827 	ld	(hl), #0x00
                                   1828 ;./exsoccer.c:368: g_Ball.PassTargetPlayerId = NO_VALUE;
    00000635 21r6Fr01         [10] 1829 	ld	hl, #(_g_Ball + 16)
    00000638 36 FF            [10] 1830 	ld	(hl), #0xff
                                   1831 ;./exsoccer.c:369: g_Ball.PossessionPlayerId = NO_VALUE;
    0000063A 21r65r01         [10] 1832 	ld	hl, #(_g_Ball + 6)
    0000063D 36 FF            [10] 1833 	ld	(hl), #0xff
                                   1834 ;./exsoccer.c:372: for(i=0; i<14; i++) {
    0000063F DD 36 FF 00      [19] 1835 	ld	-1 (ix), #0x00
    00000643                       1836 00110$:
                                   1837 ;./exsoccer.c:373: g_Players[i].TargetX = g_Players[i].X;
    00000643 DD 4E FF         [19] 1838 	ld	c, -1 (ix)
    00000646 06 00            [ 7] 1839 	ld	b, #0x00
    00000648 69               [ 4] 1840 	ld	l, c
    00000649 60               [ 4] 1841 	ld	h, b
    0000064A 29               [11] 1842 	add	hl, hl
    0000064B 29               [11] 1843 	add	hl, hl
    0000064C 09               [11] 1844 	add	hl, bc
    0000064D 29               [11] 1845 	add	hl, hl
    0000064E 29               [11] 1846 	add	hl, hl
    0000064F 09               [11] 1847 	add	hl, bc
    00000650 11r06r00         [10] 1848 	ld	de, #_g_Players
    00000653 19               [11] 1849 	add	hl, de
    00000654 E3               [19] 1850 	ex	(sp), hl
    00000655 DD 7E F8         [19] 1851 	ld	a, -8 (ix)
    00000658 C6 10            [ 7] 1852 	add	a, #0x10
    0000065A DD 77 FA         [19] 1853 	ld	-6 (ix), a
    0000065D DD 7E F9         [19] 1854 	ld	a, -7 (ix)
    00000660 CE 00            [ 7] 1855 	adc	a, #0x00
    00000662 DD 77 FB         [19] 1856 	ld	-5 (ix), a
    00000665 DD 7E F8         [19] 1857 	ld	a, -8 (ix)
    00000668 DD 77 FC         [19] 1858 	ld	-4 (ix), a
    0000066B DD 7E F9         [19] 1859 	ld	a, -7 (ix)
    0000066E DD 77 FD         [19] 1860 	ld	-3 (ix), a
    00000671 DD 6E FC         [19] 1861 	ld	l, -4 (ix)
    00000674 DD 66 FD         [19] 1862 	ld	h, -3 (ix)
    00000677 23               [ 6] 1863 	inc	hl
    00000678 23               [ 6] 1864 	inc	hl
    00000679 7E               [ 7] 1865 	ld	a, (hl)
    0000067A DD 77 FC         [19] 1866 	ld	-4 (ix), a
    0000067D 23               [ 6] 1867 	inc	hl
    0000067E 7E               [ 7] 1868 	ld	a, (hl)
    0000067F DD 77 FD         [19] 1869 	ld	-3 (ix), a
    00000682 C1               [10] 1870 	pop	bc
    00000683 E1               [10] 1871 	pop	hl
    00000684 E5               [11] 1872 	push	hl
    00000685 C5               [11] 1873 	push	bc
    00000686 DD 7E FC         [19] 1874 	ld	a, -4 (ix)
    00000689 77               [ 7] 1875 	ld	(hl), a
    0000068A 23               [ 6] 1876 	inc	hl
    0000068B DD 7E FD         [19] 1877 	ld	a, -3 (ix)
    0000068E 77               [ 7] 1878 	ld	(hl), a
                                   1879 ;./exsoccer.c:374: g_Players[i].TargetY = g_Players[i].Y;
    0000068F DD 7E F8         [19] 1880 	ld	a, -8 (ix)
    00000692 C6 0E            [ 7] 1881 	add	a, #0x0e
    00000694 5F               [ 4] 1882 	ld	e, a
    00000695 DD 7E F9         [19] 1883 	ld	a, -7 (ix)
    00000698 CE 00            [ 7] 1884 	adc	a, #0x00
    0000069A 57               [ 4] 1885 	ld	d, a
    0000069B E1               [10] 1886 	pop	hl
    0000069C E5               [11] 1887 	push	hl
    0000069D 4E               [ 7] 1888 	ld	c, (hl)
    0000069E 23               [ 6] 1889 	inc	hl
    0000069F 46               [ 7] 1890 	ld	b, (hl)
    000006A0 6B               [ 4] 1891 	ld	l, e
    000006A1 62               [ 4] 1892 	ld	h, d
    000006A2 71               [ 7] 1893 	ld	(hl), c
    000006A3 23               [ 6] 1894 	inc	hl
    000006A4 70               [ 7] 1895 	ld	(hl), b
                                   1896 ;./exsoccer.c:376: if (g_Players[i].TargetX < FIELD_BOUND_X_LEFT) g_Players[i].TargetX = FIELD_BOUND_X_LEFT;
    000006A5 DD 7E FC         [19] 1897 	ld	a, -4 (ix)
    000006A8 DD 46 FD         [19] 1898 	ld	b, -3 (ix)
    000006AB D6 0A            [ 7] 1899 	sub	a, #0x0a
    000006AD 78               [ 4] 1900 	ld	a, b
    000006AE DE 00            [ 7] 1901 	sbc	a, #0x00
    000006B0 30 09            [12] 1902 	jr	NC, 00102$
    000006B2 C1               [10] 1903 	pop	bc
    000006B3 E1               [10] 1904 	pop	hl
    000006B4 E5               [11] 1905 	push	hl
    000006B5 C5               [11] 1906 	push	bc
    000006B6 36 0A            [10] 1907 	ld	(hl), #0x0a
    000006B8 23               [ 6] 1908 	inc	hl
    000006B9 36 00            [10] 1909 	ld	(hl), #0x00
    000006BB                       1910 00102$:
                                   1911 ;./exsoccer.c:377: if (g_Players[i].TargetX > FIELD_BOUND_X_RIGHT) g_Players[i].TargetX = FIELD_BOUND_X_RIGHT;
    000006BB DD 6E FA         [19] 1912 	ld	l, -6 (ix)
    000006BE DD 66 FB         [19] 1913 	ld	h, -5 (ix)
    000006C1 4E               [ 7] 1914 	ld	c, (hl)
    000006C2 23               [ 6] 1915 	inc	hl
    000006C3 46               [ 7] 1916 	ld	b, (hl)
    000006C4 3E F6            [ 7] 1917 	ld	a, #0xf6
    000006C6 B9               [ 4] 1918 	cp	a, c
    000006C7 3E 00            [ 7] 1919 	ld	a, #0x00
    000006C9 98               [ 4] 1920 	sbc	a, b
    000006CA 30 09            [12] 1921 	jr	NC, 00104$
    000006CC C1               [10] 1922 	pop	bc
    000006CD E1               [10] 1923 	pop	hl
    000006CE E5               [11] 1924 	push	hl
    000006CF C5               [11] 1925 	push	bc
    000006D0 36 F6            [10] 1926 	ld	(hl), #0xf6
    000006D2 23               [ 6] 1927 	inc	hl
    000006D3 36 00            [10] 1928 	ld	(hl), #0x00
    000006D5                       1929 00104$:
                                   1930 ;./exsoccer.c:378: if (g_Players[i].TargetY < FIELD_BOUND_Y_TOP) g_Players[i].TargetY = FIELD_BOUND_Y_TOP;
    000006D5 6B               [ 4] 1931 	ld	l, e
    000006D6 62               [ 4] 1932 	ld	h, d
    000006D7 4E               [ 7] 1933 	ld	c, (hl)
    000006D8 23               [ 6] 1934 	inc	hl
    000006D9 46               [ 7] 1935 	ld	b, (hl)
    000006DA 79               [ 4] 1936 	ld	a, c
    000006DB D6 32            [ 7] 1937 	sub	a, #0x32
    000006DD 78               [ 4] 1938 	ld	a, b
    000006DE DE 00            [ 7] 1939 	sbc	a, #0x00
    000006E0 30 07            [12] 1940 	jr	NC, 00106$
    000006E2 6B               [ 4] 1941 	ld	l, e
    000006E3 62               [ 4] 1942 	ld	h, d
    000006E4 36 32            [10] 1943 	ld	(hl), #0x32
    000006E6 23               [ 6] 1944 	inc	hl
    000006E7 36 00            [10] 1945 	ld	(hl), #0x00
    000006E9                       1946 00106$:
                                   1947 ;./exsoccer.c:379: if (g_Players[i].TargetY > FIELD_BOUND_Y_BOTTOM) g_Players[i].TargetY = FIELD_BOUND_Y_BOTTOM;
    000006E9 6B               [ 4] 1948 	ld	l, e
    000006EA 62               [ 4] 1949 	ld	h, d
    000006EB 4E               [ 7] 1950 	ld	c, (hl)
    000006EC 23               [ 6] 1951 	inc	hl
    000006ED 46               [ 7] 1952 	ld	b, (hl)
    000006EE 3E AE            [ 7] 1953 	ld	a, #0xae
    000006F0 B9               [ 4] 1954 	cp	a, c
    000006F1 3E 01            [ 7] 1955 	ld	a, #0x01
    000006F3 98               [ 4] 1956 	sbc	a, b
    000006F4 30 07            [12] 1957 	jr	NC, 00108$
    000006F6 3E AE            [ 7] 1958 	ld	a, #0xae
    000006F8 12               [ 7] 1959 	ld	(de), a
    000006F9 13               [ 6] 1960 	inc	de
    000006FA 3E 01            [ 7] 1961 	ld	a, #0x01
    000006FC 12               [ 7] 1962 	ld	(de), a
    000006FD                       1963 00108$:
                                   1964 ;./exsoccer.c:381: g_Players[i].Status = PLAYER_STATUS_NONE;
    000006FD E1               [10] 1965 	pop	hl
    000006FE E5               [11] 1966 	push	hl
    000006FF 11 12 00         [10] 1967 	ld	de, #0x0012
    00000702 19               [11] 1968 	add	hl, de
    00000703 AF               [ 4] 1969 	xor	a, a
    00000704 77               [ 7] 1970 	ld	(hl), a
    00000705 23               [ 6] 1971 	inc	hl
    00000706 77               [ 7] 1972 	ld	(hl), a
                                   1973 ;./exsoccer.c:372: for(i=0; i<14; i++) {
    00000707 DD 34 FF         [23] 1974 	inc	-1 (ix)
    0000070A DD 7E FF         [19] 1975 	ld	a, -1 (ix)
    0000070D D6 0E            [ 7] 1976 	sub	a, #0x0e
    0000070F DAr43r06         [10] 1977 	jp	C, 00110$
                                   1978 ;./exsoccer.c:383: }
    00000712 DD F9            [10] 1979 	ld	sp, ix
    00000714 DD E1            [14] 1980 	pop	ix
    00000716 C9               [10] 1981 	ret
    00000717                       1982 ___str_1:
    00000717 54 48 52 4F 57 20 49  1983 	.ascii "THROW IN"
             4E
    0000071F 00                    1984 	.db 0x00
                                   1985 ;./exsoccer.c:384: void GoalKick(u8 teamId){
                                   1986 ;	---------------------------------
                                   1987 ; Function GoalKick
                                   1988 ; ---------------------------------
    00000720                       1989 _GoalKick::
    00000720 4F               [ 4] 1990 	ld	c, a
                                   1991 ;./exsoccer.c:386: V9_PrintLayerAStringAtPos(10,18,"GOAL KICK");
    00000721 C5               [11] 1992 	push	bc
    00000722 21r53r07         [10] 1993 	ld	hl, #___str_2
    00000725 E5               [11] 1994 	push	hl
    00000726 2E 12            [ 7] 1995 	ld	l, #0x12
                                   1996 ;	spillPairReg hl
                                   1997 ;	spillPairReg hl
    00000728 3E 0A            [ 7] 1998 	ld	a, #0x0a
    0000072A CDr00r00         [17] 1999 	call	_V9_PrintLayerAStringAtPos
    0000072D C1               [10] 2000 	pop	bc
                                   2001 ;./exsoccer.c:387: g_MatchStatus=MATCH_BEFORE_GOAL_KICK;
    0000072E 21r04r00         [10] 2002 	ld	hl, #_g_MatchStatus
    00000731 36 05            [10] 2003 	ld	(hl), #0x05
                                   2004 ;./exsoccer.c:388: g_RestartKickTeamId = teamId;
    00000733 21r7Er01         [10] 2005 	ld	hl, #_g_RestartKickTeamId
    00000736 71               [ 7] 2006 	ld	(hl), c
                                   2007 ;./exsoccer.c:389: g_Timer = 0;
    00000737 21r06r00         [10] 2008 	ld	hl, #_g_Timer
    0000073A 36 00            [10] 2009 	ld	(hl), #0x00
                                   2010 ;./exsoccer.c:392: if (g_Ball.X < FIELD_POS_X_CENTER) g_GoalKickSide = CORNER_SIDE_LEFT;
    0000073C 2Ar61r01         [16] 2011 	ld	hl, (#(_g_Ball + 2) + 0)
    0000073F 11 78 00         [10] 2012 	ld	de, #0x0078
    00000742 BF               [ 4] 2013 	cp	a, a
    00000743 ED 52            [15] 2014 	sbc	hl, de
    00000745 30 06            [12] 2015 	jr	NC, 00102$
    00000747 21r14r00         [10] 2016 	ld	hl, #_g_GoalKickSide
    0000074A 36 00            [10] 2017 	ld	(hl), #0x00
    0000074C C9               [10] 2018 	ret
    0000074D                       2019 00102$:
                                   2020 ;./exsoccer.c:393: else g_GoalKickSide = CORNER_SIDE_RIGHT;
    0000074D 21r14r00         [10] 2021 	ld	hl, #_g_GoalKickSide
    00000750 36 01            [10] 2022 	ld	(hl), #0x01
                                   2023 ;./exsoccer.c:394: }
    00000752 C9               [10] 2024 	ret
    00000753                       2025 ___str_2:
    00000753 47 4F 41 4C 20 4B 49  2026 	.ascii "GOAL KICK"
             43 4B
    0000075C 00                    2027 	.db 0x00
                                   2028 ;./exsoccer.c:395: void CornerKick(u8 teamId){
                                   2029 ;	---------------------------------
                                   2030 ; Function CornerKick
                                   2031 ; ---------------------------------
    0000075D                       2032 _CornerKick::
    0000075D DD E5            [15] 2033 	push	ix
    0000075F DD 21 00 00      [14] 2034 	ld	ix,#0
    00000763 DD 39            [15] 2035 	add	ix,sp
    00000765 21 E7 FF         [10] 2036 	ld	hl, #-25
    00000768 39               [11] 2037 	add	hl, sp
    00000769 F9               [ 6] 2038 	ld	sp, hl
    0000076A DD 77 FE         [19] 2039 	ld	-2 (ix), a
                                   2040 ;./exsoccer.c:397: V9_PrintLayerAStringAtPos(10,12,"CORNER KICK");
    0000076D 21r8Er0B         [10] 2041 	ld	hl, #___str_3
    00000770 E5               [11] 2042 	push	hl
    00000771 2E 0C            [ 7] 2043 	ld	l, #0x0c
                                   2044 ;	spillPairReg hl
                                   2045 ;	spillPairReg hl
    00000773 3E 0A            [ 7] 2046 	ld	a, #0x0a
    00000775 CDr00r00         [17] 2047 	call	_V9_PrintLayerAStringAtPos
                                   2048 ;./exsoccer.c:398: g_MatchStatus=MATCH_BEFORE_CORNER_KICK;
    00000778 21r04r00         [10] 2049 	ld	hl, #_g_MatchStatus
    0000077B 36 02            [10] 2050 	ld	(hl), #0x02
                                   2051 ;./exsoccer.c:399: g_RestartKickTeamId = teamId;
    0000077D DD 7E FE         [19] 2052 	ld	a, -2 (ix)
    00000780 32r7Er01         [13] 2053 	ld	(_g_RestartKickTeamId+0), a
                                   2054 ;./exsoccer.c:400: g_CornerKickTargetId = NO_VALUE;
    00000783 21r15r00         [10] 2055 	ld	hl, #_g_CornerKickTargetId
    00000786 36 FF            [10] 2056 	ld	(hl), #0xff
                                   2057 ;./exsoccer.c:401: g_Timer = 0;
    00000788 21r06r00         [10] 2058 	ld	hl, #_g_Timer
    0000078B 36 00            [10] 2059 	ld	(hl), #0x00
                                   2060 ;./exsoccer.c:404: if (g_Ball.X < FIELD_POS_X_CENTER) g_CornerKickSide = CORNER_SIDE_LEFT;
    0000078D 01r5Fr01         [10] 2061 	ld	bc, #_g_Ball+0
    00000790 2Ar61r01         [16] 2062 	ld	hl, (#(_g_Ball + 2) + 0)
    00000793 11 78 00         [10] 2063 	ld	de, #0x0078
    00000796 BF               [ 4] 2064 	cp	a, a
    00000797 ED 52            [15] 2065 	sbc	hl, de
    00000799 30 08            [12] 2066 	jr	NC, 00102$
    0000079B 21r13r00         [10] 2067 	ld	hl, #_g_CornerKickSide
    0000079E 36 00            [10] 2068 	ld	(hl), #0x00
    000007A0 C3rABr07         [10] 2069 	jp	00103$
    000007A3                       2070 00102$:
                                   2071 ;./exsoccer.c:405: else g_CornerKickSide = CORNER_SIDE_RIGHT;
    000007A3 21r13r00         [10] 2072 	ld	hl, #_g_CornerKickSide
    000007A6 36 01            [10] 2073 	ld	(hl), #0x01
                                   2074 ;./exsoccer.c:410: u16 kickX = (g_CornerKickSide == CORNER_SIDE_LEFT) ? FIELD_BOUND_X_LEFT : FIELD_BOUND_X_RIGHT;
    000007A8 C3rB1r07         [10] 2075 	jp	00155$
                                   2076 ;./exsoccer.c:405: else g_CornerKickSide = CORNER_SIDE_RIGHT;
    000007AB                       2077 00103$:
                                   2078 ;./exsoccer.c:410: u16 kickX = (g_CornerKickSide == CORNER_SIDE_LEFT) ? FIELD_BOUND_X_LEFT : FIELD_BOUND_X_RIGHT;
    000007AB 11 0A 00         [10] 2079 	ld	de, #0x000a
    000007AE C3rB4r07         [10] 2080 	jp	00156$
    000007B1                       2081 00155$:
    000007B1 11 F6 00         [10] 2082 	ld	de, #0x00f6
    000007B4                       2083 00156$:
    000007B4 DD 73 E9         [19] 2084 	ld	-23 (ix), e
    000007B7 DD 72 EA         [19] 2085 	ld	-22 (ix), d
                                   2086 ;./exsoccer.c:411: u16 kickY = (teamId == TEAM_1) ? FIELD_BOUND_Y_TOP : FIELD_BOUND_Y_BOTTOM;
    000007BA DD 7E FE         [19] 2087 	ld	a, -2 (ix)
    000007BD 3D               [ 4] 2088 	dec	a
    000007BE 3E 01            [ 7] 2089 	ld	a, #0x01
    000007C0 28 01            [12] 2090 	jr	Z, 00323$
    000007C2 AF               [ 4] 2091 	xor	a, a
    000007C3                       2092 00323$:
    000007C3 DD 77 FD         [19] 2093 	ld	-3 (ix), a
    000007C6 B7               [ 4] 2094 	or	a, a
    000007C7 28 06            [12] 2095 	jr	Z, 00157$
    000007C9 11 32 00         [10] 2096 	ld	de, #0x0032
    000007CC C3rD2r07         [10] 2097 	jp	00158$
    000007CF                       2098 00157$:
    000007CF 11 AE 01         [10] 2099 	ld	de, #0x01ae
    000007D2                       2100 00158$:
    000007D2 DD 73 EB         [19] 2101 	ld	-21 (ix), e
    000007D5 DD 72 EC         [19] 2102 	ld	-20 (ix), d
                                   2103 ;./exsoccer.c:414: if (teamId == TEAM_1) ShowFieldZone(FIELD_NORTH_ZONE);
    000007D8 DD 7E FD         [19] 2104 	ld	a, -3 (ix)
    000007DB B7               [ 4] 2105 	or	a, a
    000007DC 28 09            [12] 2106 	jr	Z, 00105$
    000007DE C5               [11] 2107 	push	bc
    000007DF AF               [ 4] 2108 	xor	a, a
    000007E0 CDr00r00         [17] 2109 	call	_ShowFieldZone
    000007E3 C1               [10] 2110 	pop	bc
    000007E4 C3rEEr07         [10] 2111 	jp	00106$
    000007E7                       2112 00105$:
                                   2113 ;./exsoccer.c:415: else ShowFieldZone(FIELD_SOUTH_ZONE);
    000007E7 C5               [11] 2114 	push	bc
    000007E8 3E 02            [ 7] 2115 	ld	a, #0x02
    000007EA CDr00r00         [17] 2116 	call	_ShowFieldZone
    000007ED C1               [10] 2117 	pop	bc
    000007EE                       2118 00106$:
                                   2119 ;./exsoccer.c:419: if (g_CornerKickSide == CORNER_SIDE_LEFT) kickerId = GetPlayerIdByRole(teamId, PLAYER_ROLE_LEFT_STRIKER);
    000007EE 3Ar13r00         [13] 2120 	ld	a, (_g_CornerKickSide+0)
    000007F1 B7               [ 4] 2121 	or	a, a
    000007F2 20 10            [12] 2122 	jr	NZ, 00108$
    000007F4 C5               [11] 2123 	push	bc
    000007F5 2E 05            [ 7] 2124 	ld	l, #0x05
                                   2125 ;	spillPairReg hl
                                   2126 ;	spillPairReg hl
    000007F7 DD 7E FE         [19] 2127 	ld	a, -2 (ix)
    000007FA CDr00r00         [17] 2128 	call	_GetPlayerIdByRole
    000007FD C1               [10] 2129 	pop	bc
    000007FE DD 77 ED         [19] 2130 	ld	-19 (ix), a
    00000801 C3r11r08         [10] 2131 	jp	00109$
    00000804                       2132 00108$:
                                   2133 ;./exsoccer.c:420: else kickerId = GetPlayerIdByRole(teamId, PLAYER_ROLE_RIGHT_STRIKER);
    00000804 C5               [11] 2134 	push	bc
    00000805 2E 06            [ 7] 2135 	ld	l, #0x06
                                   2136 ;	spillPairReg hl
                                   2137 ;	spillPairReg hl
    00000807 DD 7E FE         [19] 2138 	ld	a, -2 (ix)
    0000080A CDr00r00         [17] 2139 	call	_GetPlayerIdByRole
    0000080D C1               [10] 2140 	pop	bc
    0000080E DD 77 ED         [19] 2141 	ld	-19 (ix), a
    00000811                       2142 00109$:
                                   2143 ;./exsoccer.c:423: g_Ball.PossessionPlayerId = NO_VALUE; 
    00000811 21r65r01         [10] 2144 	ld	hl, #(_g_Ball + 6)
    00000814 36 FF            [10] 2145 	ld	(hl), #0xff
                                   2146 ;./exsoccer.c:424: SetPlayerBallPossession(NO_VALUE);
    00000816 C5               [11] 2147 	push	bc
    00000817 3E FF            [ 7] 2148 	ld	a, #0xff
    00000819 CDr29r16         [17] 2149 	call	_SetPlayerBallPossession
    0000081C C1               [10] 2150 	pop	bc
                                   2151 ;./exsoccer.c:425: if(teamId == TEAM_1) g_Team1ActivePlayer = kickerId; // Ensure kicker is selected active
    0000081D DD 7E FD         [19] 2152 	ld	a, -3 (ix)
    00000820 B7               [ 4] 2153 	or	a, a
    00000821 28 09            [12] 2154 	jr	Z, 00111$
    00000823 DD 7E ED         [19] 2155 	ld	a, -19 (ix)
    00000826 32r07r00         [13] 2156 	ld	(_g_Team1ActivePlayer+0), a
    00000829 C3r32r08         [10] 2157 	jp	00112$
    0000082C                       2158 00111$:
                                   2159 ;./exsoccer.c:426: else g_Team2ActivePlayer = kickerId;
    0000082C DD 7E ED         [19] 2160 	ld	a, -19 (ix)
    0000082F 32r08r00         [13] 2161 	ld	(_g_Team2ActivePlayer+0), a
    00000832                       2162 00112$:
                                   2163 ;./exsoccer.c:434: i8 offX = 0; i8 offY = 0;
    00000832 2E 00            [ 7] 2164 	ld	l, #0x00
                                   2165 ;	spillPairReg hl
                                   2166 ;	spillPairReg hl
    00000834 DD 36 FF 00      [19] 2167 	ld	-1 (ix), #0x00
                                   2168 ;./exsoccer.c:435: if (teamId == TEAM_2 && g_CornerKickSide == CORNER_SIDE_RIGHT) {
    00000838 DD 7E FE         [19] 2169 	ld	a, -2 (ix)
    0000083B D6 02            [ 7] 2170 	sub	a, #0x02
    0000083D 20 0C            [12] 2171 	jr	NZ, 00114$
    0000083F 3Ar13r00         [13] 2172 	ld	a, (_g_CornerKickSide+0)
    00000842 3D               [ 4] 2173 	dec	a
    00000843 20 06            [12] 2174 	jr	NZ, 00114$
                                   2175 ;./exsoccer.c:436: offX = -30;
    00000845 2E E2            [ 7] 2176 	ld	l, #0xe2
                                   2177 ;	spillPairReg hl
                                   2178 ;	spillPairReg hl
                                   2179 ;./exsoccer.c:437: offY = -5;
    00000847 DD 36 FF FB      [19] 2180 	ld	-1 (ix), #0xfb
    0000084B                       2181 00114$:
                                   2182 ;./exsoccer.c:440: g_Ball.X = kickX + offX;
    0000084B 7D               [ 4] 2183 	ld	a, l
    0000084C 07               [ 4] 2184 	rlca
    0000084D 9F               [ 4] 2185 	sbc	a, a
    0000084E 67               [ 4] 2186 	ld	h, a
                                   2187 ;	spillPairReg hl
                                   2188 ;	spillPairReg hl
    0000084F DD 5E E9         [19] 2189 	ld	e, -23 (ix)
    00000852 DD 56 EA         [19] 2190 	ld	d, -22 (ix)
    00000855 19               [11] 2191 	add	hl, de
    00000856 EB               [ 4] 2192 	ex	de, hl
    00000857 ED 53r61r01      [20] 2193 	ld	((_g_Ball + 2)), de
                                   2194 ;./exsoccer.c:441: g_Ball.Y = kickY + offY;
    0000085B DD 7E FF         [19] 2195 	ld	a, -1 (ix)
    0000085E 6F               [ 4] 2196 	ld	l, a
                                   2197 ;	spillPairReg hl
                                   2198 ;	spillPairReg hl
    0000085F 07               [ 4] 2199 	rlca
    00000860 9F               [ 4] 2200 	sbc	a, a
    00000861 67               [ 4] 2201 	ld	h, a
                                   2202 ;	spillPairReg hl
                                   2203 ;	spillPairReg hl
    00000862 DD 5E EB         [19] 2204 	ld	e, -21 (ix)
    00000865 DD 56 EC         [19] 2205 	ld	d, -20 (ix)
    00000868 19               [11] 2206 	add	hl, de
    00000869 EB               [ 4] 2207 	ex	de, hl
    0000086A 69               [ 4] 2208 	ld	l, c
    0000086B 60               [ 4] 2209 	ld	h, b
    0000086C 73               [ 7] 2210 	ld	(hl), e
    0000086D 23               [ 6] 2211 	inc	hl
    0000086E 72               [ 7] 2212 	ld	(hl), d
                                   2213 ;./exsoccer.c:442: g_Ball.PreviousY = g_Ball.Y;
    0000086F ED 53r66r01      [20] 2214 	ld	((_g_Ball + 7)), de
                                   2215 ;./exsoccer.c:446: bool attackingUp = (teamId == TEAM_1);
    00000873 DD 7E FD         [19] 2216 	ld	a, -3 (ix)
                                   2217 ;./exsoccer.c:450: u16 yBoxInside     = (attackingUp) ? (FIELD_BOUND_Y_TOP + 40) : (FIELD_BOUND_Y_BOTTOM - 40);
    00000876 DD 77 EE         [19] 2218 	ld	-18 (ix), a
    00000879 B7               [ 4] 2219 	or	a, a
    0000087A 28 06            [12] 2220 	jr	Z, 00161$
    0000087C 01 5A 00         [10] 2221 	ld	bc, #0x005a
    0000087F C3r85r08         [10] 2222 	jp	00162$
    00000882                       2223 00161$:
    00000882 01 86 01         [10] 2224 	ld	bc, #0x0186
    00000885                       2225 00162$:
    00000885 DD 71 EF         [19] 2226 	ld	-17 (ix), c
    00000888 DD 70 F0         [19] 2227 	ld	-16 (ix), b
                                   2228 ;./exsoccer.c:451: u16 yBoxOutside    = (attackingUp) ? (FIELD_BOUND_Y_TOP + 90) : (FIELD_BOUND_Y_BOTTOM - 90);
    0000088B DD 7E EE         [19] 2229 	ld	a, -18 (ix)
    0000088E B7               [ 4] 2230 	or	a, a
    0000088F 28 06            [12] 2231 	jr	Z, 00163$
    00000891 01 8C 00         [10] 2232 	ld	bc, #0x008c
    00000894 C3r9Ar08         [10] 2233 	jp	00164$
    00000897                       2234 00163$:
    00000897 01 54 01         [10] 2235 	ld	bc, #0x0154
    0000089A                       2236 00164$:
    0000089A DD 71 F1         [19] 2237 	ld	-15 (ix), c
    0000089D DD 70 F2         [19] 2238 	ld	-14 (ix), b
                                   2239 ;./exsoccer.c:452: u16 yMidfieldAdv   = (attackingUp) ? (FIELD_BOUND_Y_TOP + 160) : (FIELD_BOUND_Y_BOTTOM - 160);
    000008A0 DD 7E EE         [19] 2240 	ld	a, -18 (ix)
    000008A3 B7               [ 4] 2241 	or	a, a
    000008A4 28 06            [12] 2242 	jr	Z, 00165$
    000008A6 01 D2 00         [10] 2243 	ld	bc, #0x00d2
    000008A9 C3rAFr08         [10] 2244 	jp	00166$
    000008AC                       2245 00165$:
    000008AC 01 0E 01         [10] 2246 	ld	bc, #0x010e
    000008AF                       2247 00166$:
    000008AF DD 71 F3         [19] 2248 	ld	-13 (ix), c
    000008B2 DD 70 F4         [19] 2249 	ld	-12 (ix), b
                                   2250 ;./exsoccer.c:454: u16 ySafety        = (attackingUp) ? (FIELD_BOUND_Y_BOTTOM - 100) : (FIELD_BOUND_Y_TOP + 100);
    000008B5 DD 7E EE         [19] 2251 	ld	a, -18 (ix)
    000008B8 B7               [ 4] 2252 	or	a, a
    000008B9 28 06            [12] 2253 	jr	Z, 00167$
    000008BB 01 4A 01         [10] 2254 	ld	bc, #0x014a
    000008BE C3rC4r08         [10] 2255 	jp	00168$
    000008C1                       2256 00167$:
    000008C1 01 96 00         [10] 2257 	ld	bc, #0x0096
    000008C4                       2258 00168$:
    000008C4 DD 71 F5         [19] 2259 	ld	-11 (ix), c
    000008C7 DD 70 F6         [19] 2260 	ld	-10 (ix), b
                                   2261 ;./exsoccer.c:456: for(u8 i=0; i<14; i++) {
    000008CA DD 36 FF 00      [19] 2262 	ld	-1 (ix), #0x00
    000008CE                       2263 00152$:
    000008CE DD 7E FF         [19] 2264 	ld	a, -1 (ix)
    000008D1 D6 0E            [ 7] 2265 	sub	a, #0x0e
    000008D3 D2r89r0B         [10] 2266 	jp	NC, 00153$
                                   2267 ;./exsoccer.c:457: g_Players[i].Status = PLAYER_STATUS_NONE;
    000008D6 DD 4E FF         [19] 2268 	ld	c, -1 (ix)
    000008D9 06 00            [ 7] 2269 	ld	b, #0x00
    000008DB 69               [ 4] 2270 	ld	l, c
    000008DC 60               [ 4] 2271 	ld	h, b
    000008DD 29               [11] 2272 	add	hl, hl
    000008DE 29               [11] 2273 	add	hl, hl
    000008DF 09               [11] 2274 	add	hl, bc
    000008E0 29               [11] 2275 	add	hl, hl
    000008E1 29               [11] 2276 	add	hl, hl
    000008E2 09               [11] 2277 	add	hl, bc
    000008E3 DD 75 FA         [19] 2278 	ld	-6 (ix), l
    000008E6 DD 74 FB         [19] 2279 	ld	-5 (ix), h
    000008E9 DD 7E FA         [19] 2280 	ld	a, -6 (ix)
    000008EC C6r06            [ 7] 2281 	add	a, #<(_g_Players)
    000008EE DD 77 FC         [19] 2282 	ld	-4 (ix), a
    000008F1 DD 7E FB         [19] 2283 	ld	a, -5 (ix)
    000008F4 CEs00            [ 7] 2284 	adc	a, #>(_g_Players)
    000008F6 DD 77 FD         [19] 2285 	ld	-3 (ix), a
    000008F9 DD 7E FC         [19] 2286 	ld	a, -4 (ix)
    000008FC C6 12            [ 7] 2287 	add	a, #0x12
    000008FE DD 77 FA         [19] 2288 	ld	-6 (ix), a
    00000901 DD 7E FD         [19] 2289 	ld	a, -3 (ix)
    00000904 CE 00            [ 7] 2290 	adc	a, #0x00
    00000906 DD 77 FB         [19] 2291 	ld	-5 (ix), a
    00000909 DD 6E FA         [19] 2292 	ld	l, -6 (ix)
    0000090C DD 66 FB         [19] 2293 	ld	h, -5 (ix)
    0000090F AF               [ 4] 2294 	xor	a, a
    00000910 77               [ 7] 2295 	ld	(hl), a
    00000911 23               [ 6] 2296 	inc	hl
    00000912 77               [ 7] 2297 	ld	(hl), a
                                   2298 ;./exsoccer.c:458: g_Players[i].TargetX = g_Players[i].X;
    00000913 DD 7E FC         [19] 2299 	ld	a, -4 (ix)
    00000916 C6 10            [ 7] 2300 	add	a, #0x10
    00000918 DD 77 F7         [19] 2301 	ld	-9 (ix), a
    0000091B DD 7E FD         [19] 2302 	ld	a, -3 (ix)
    0000091E CE 00            [ 7] 2303 	adc	a, #0x00
    00000920 DD 77 F8         [19] 2304 	ld	-8 (ix), a
    00000923 DD 7E FC         [19] 2305 	ld	a, -4 (ix)
    00000926 DD 77 FA         [19] 2306 	ld	-6 (ix), a
    00000929 DD 7E FD         [19] 2307 	ld	a, -3 (ix)
    0000092C DD 77 FB         [19] 2308 	ld	-5 (ix), a
    0000092F DD 6E FA         [19] 2309 	ld	l, -6 (ix)
    00000932 DD 66 FB         [19] 2310 	ld	h, -5 (ix)
    00000935 23               [ 6] 2311 	inc	hl
    00000936 23               [ 6] 2312 	inc	hl
    00000937 7E               [ 7] 2313 	ld	a, (hl)
    00000938 DD 77 FA         [19] 2314 	ld	-6 (ix), a
    0000093B 23               [ 6] 2315 	inc	hl
    0000093C 7E               [ 7] 2316 	ld	a, (hl)
    0000093D DD 77 FB         [19] 2317 	ld	-5 (ix), a
    00000940 DD 6E F7         [19] 2318 	ld	l, -9 (ix)
    00000943 DD 66 F8         [19] 2319 	ld	h, -8 (ix)
    00000946 DD 7E FA         [19] 2320 	ld	a, -6 (ix)
    00000949 77               [ 7] 2321 	ld	(hl), a
    0000094A 23               [ 6] 2322 	inc	hl
    0000094B DD 7E FB         [19] 2323 	ld	a, -5 (ix)
    0000094E 77               [ 7] 2324 	ld	(hl), a
                                   2325 ;./exsoccer.c:459: g_Players[i].TargetY = g_Players[i].Y;
    0000094F DD 7E FC         [19] 2326 	ld	a, -4 (ix)
    00000952 C6 0E            [ 7] 2327 	add	a, #0x0e
    00000954 DD 77 F9         [19] 2328 	ld	-7 (ix), a
    00000957 DD 7E FD         [19] 2329 	ld	a, -3 (ix)
    0000095A CE 00            [ 7] 2330 	adc	a, #0x00
    0000095C DD 77 FA         [19] 2331 	ld	-6 (ix), a
    0000095F DD 6E FC         [19] 2332 	ld	l, -4 (ix)
    00000962 DD 66 FD         [19] 2333 	ld	h, -3 (ix)
    00000965 4E               [ 7] 2334 	ld	c, (hl)
    00000966 23               [ 6] 2335 	inc	hl
    00000967 46               [ 7] 2336 	ld	b, (hl)
    00000968 DD 6E F9         [19] 2337 	ld	l, -7 (ix)
    0000096B DD 66 FA         [19] 2338 	ld	h, -6 (ix)
    0000096E 71               [ 7] 2339 	ld	(hl), c
    0000096F 23               [ 6] 2340 	inc	hl
    00000970 70               [ 7] 2341 	ld	(hl), b
                                   2342 ;./exsoccer.c:461: u8 role = g_Players[i].Role;
    00000971 DD 7E FC         [19] 2343 	ld	a, -4 (ix)
    00000974 DD 77 E7         [19] 2344 	ld	-25 (ix), a
    00000977 DD 7E FD         [19] 2345 	ld	a, -3 (ix)
    0000097A DD 77 E8         [19] 2346 	ld	-24 (ix), a
    0000097D E1               [10] 2347 	pop	hl
    0000097E E5               [11] 2348 	push	hl
    0000097F 11 0D 00         [10] 2349 	ld	de, #0x000d
    00000982 19               [11] 2350 	add	hl, de
    00000983 7E               [ 7] 2351 	ld	a, (hl)
    00000984 DD 77 FB         [19] 2352 	ld	-5 (ix), a
                                   2353 ;./exsoccer.c:462: bool isAttacker = (g_Players[i].TeamId == teamId);
    00000987 DD 6E FC         [19] 2354 	ld	l, -4 (ix)
    0000098A DD 66 FD         [19] 2355 	ld	h, -3 (ix)
    0000098D 11 09 00         [10] 2356 	ld	de, #0x0009
    00000990 19               [11] 2357 	add	hl, de
    00000991 DD 7E FE         [19] 2358 	ld	a,-2 (ix)
    00000994 96               [ 7] 2359 	sub	a,(hl)
    00000995 3E 01            [ 7] 2360 	ld	a, #0x01
    00000997 28 01            [12] 2361 	jr	Z, 00329$
    00000999 AF               [ 4] 2362 	xor	a, a
    0000099A                       2363 00329$:
    0000099A 4F               [ 4] 2364 	ld	c, a
                                   2365 ;./exsoccer.c:465: if (i == kickerId) {
    0000099B DD 7E ED         [19] 2366 	ld	a, -19 (ix)
    0000099E DD 96 FF         [19] 2367 	sub	a, -1 (ix)
    000009A1 20 21            [12] 2368 	jr	NZ, 00117$
                                   2369 ;./exsoccer.c:466: g_Players[i].TargetX = kickX;
    000009A3 DD 6E F7         [19] 2370 	ld	l, -9 (ix)
    000009A6 DD 66 F8         [19] 2371 	ld	h, -8 (ix)
    000009A9 DD 7E E9         [19] 2372 	ld	a, -23 (ix)
    000009AC 77               [ 7] 2373 	ld	(hl), a
    000009AD 23               [ 6] 2374 	inc	hl
    000009AE DD 7E EA         [19] 2375 	ld	a, -22 (ix)
    000009B1 77               [ 7] 2376 	ld	(hl), a
                                   2377 ;./exsoccer.c:467: g_Players[i].TargetY = kickY;
    000009B2 DD 6E F9         [19] 2378 	ld	l, -7 (ix)
    000009B5 DD 66 FA         [19] 2379 	ld	h, -6 (ix)
    000009B8 DD 7E EB         [19] 2380 	ld	a, -21 (ix)
    000009BB 77               [ 7] 2381 	ld	(hl), a
    000009BC 23               [ 6] 2382 	inc	hl
    000009BD DD 7E EC         [19] 2383 	ld	a, -20 (ix)
    000009C0 77               [ 7] 2384 	ld	(hl), a
                                   2385 ;./exsoccer.c:468: continue;
    000009C1 C3r83r0B         [10] 2386 	jp	00149$
    000009C4                       2387 00117$:
                                   2388 ;./exsoccer.c:471: if (isAttacker) {
    000009C4 79               [ 4] 2389 	ld	a, c
    000009C5 B7               [ 4] 2390 	or	a, a
    000009C6 CArB7r0A         [10] 2391 	jp	Z, 00147$
                                   2392 ;./exsoccer.c:473: if (role == PLAYER_ROLE_GOALKEEPER) {
    000009C9 DD 7E FB         [19] 2393 	ld	a, -5 (ix)
    000009CC B7               [ 4] 2394 	or	a, a
    000009CD 20 26            [12] 2395 	jr	NZ, 00133$
                                   2396 ;./exsoccer.c:475: g_Players[i].TargetX = FIELD_POS_X_CENTER;
    000009CF DD 6E F7         [19] 2397 	ld	l, -9 (ix)
    000009D2 DD 66 F8         [19] 2398 	ld	h, -8 (ix)
    000009D5 36 78            [10] 2399 	ld	(hl), #0x78
    000009D7 23               [ 6] 2400 	inc	hl
    000009D8 36 00            [10] 2401 	ld	(hl), #0x00
                                   2402 ;./exsoccer.c:476: g_Players[i].TargetY = (attackingUp) ? FIELD_BOUND_Y_BOTTOM - 20 : FIELD_BOUND_Y_TOP + 20;
    000009DA DD 6E F9         [19] 2403 	ld	l, -7 (ix)
                                   2404 ;	spillPairReg hl
                                   2405 ;	spillPairReg hl
    000009DD DD 66 FA         [19] 2406 	ld	h, -6 (ix)
                                   2407 ;	spillPairReg hl
                                   2408 ;	spillPairReg hl
    000009E0 DD 7E EE         [19] 2409 	ld	a, -18 (ix)
    000009E3 B7               [ 4] 2410 	or	a, a
    000009E4 28 06            [12] 2411 	jr	Z, 00169$
    000009E6 11 9A 01         [10] 2412 	ld	de, #0x019a
    000009E9 C3rEFr09         [10] 2413 	jp	00170$
    000009EC                       2414 00169$:
    000009EC 11 46 00         [10] 2415 	ld	de, #0x0046
    000009EF                       2416 00170$:
    000009EF 73               [ 7] 2417 	ld	(hl), e
    000009F0 23               [ 6] 2418 	inc	hl
    000009F1 72               [ 7] 2419 	ld	(hl), d
    000009F2 C3r83r0B         [10] 2420 	jp	00149$
    000009F5                       2421 00133$:
                                   2422 ;./exsoccer.c:478: else if (role == PLAYER_ROLE_LEFT_DEFENDER || role == PLAYER_ROLE_RIGHT_DEFENDER) {
    000009F5 DD 7E FB         [19] 2423 	ld	a, -5 (ix)
    000009F8 3D               [ 4] 2424 	dec	a
    000009F9 3E 01            [ 7] 2425 	ld	a, #0x01
    000009FB 28 01            [12] 2426 	jr	Z, 00333$
    000009FD AF               [ 4] 2427 	xor	a, a
    000009FE                       2428 00333$:
    000009FE 4F               [ 4] 2429 	ld	c, a
    000009FF B7               [ 4] 2430 	or	a, a
    00000A00 20 07            [12] 2431 	jr	NZ, 00128$
    00000A02 DD 7E FB         [19] 2432 	ld	a, -5 (ix)
    00000A05 D6 02            [ 7] 2433 	sub	a, #0x02
    00000A07 20 3E            [12] 2434 	jr	NZ, 00129$
    00000A09                       2435 00128$:
                                   2436 ;./exsoccer.c:479: if (role == PLAYER_ROLE_LEFT_DEFENDER) {
    00000A09 79               [ 4] 2437 	ld	a, c
    00000A0A B7               [ 4] 2438 	or	a, a
    00000A0B 28 1D            [12] 2439 	jr	Z, 00119$
                                   2440 ;./exsoccer.c:481: g_Players[i].TargetX = FIELD_POS_X_CENTER - 30;
    00000A0D DD 6E F7         [19] 2441 	ld	l, -9 (ix)
    00000A10 DD 66 F8         [19] 2442 	ld	h, -8 (ix)
    00000A13 36 5A            [10] 2443 	ld	(hl), #0x5a
    00000A15 23               [ 6] 2444 	inc	hl
    00000A16 36 00            [10] 2445 	ld	(hl), #0x00
                                   2446 ;./exsoccer.c:482: g_Players[i].TargetY = yMidfieldAdv;
    00000A18 DD 6E F9         [19] 2447 	ld	l, -7 (ix)
    00000A1B DD 66 FA         [19] 2448 	ld	h, -6 (ix)
    00000A1E DD 7E F3         [19] 2449 	ld	a, -13 (ix)
    00000A21 77               [ 7] 2450 	ld	(hl), a
    00000A22 23               [ 6] 2451 	inc	hl
    00000A23 DD 7E F4         [19] 2452 	ld	a, -12 (ix)
    00000A26 77               [ 7] 2453 	ld	(hl), a
    00000A27 C3r83r0B         [10] 2454 	jp	00149$
    00000A2A                       2455 00119$:
                                   2456 ;./exsoccer.c:485: g_Players[i].TargetX = FIELD_POS_X_CENTER;
    00000A2A DD 6E F7         [19] 2457 	ld	l, -9 (ix)
    00000A2D DD 66 F8         [19] 2458 	ld	h, -8 (ix)
    00000A30 36 78            [10] 2459 	ld	(hl), #0x78
    00000A32 23               [ 6] 2460 	inc	hl
    00000A33 36 00            [10] 2461 	ld	(hl), #0x00
                                   2462 ;./exsoccer.c:486: g_Players[i].TargetY = ySafety;
    00000A35 DD 6E F9         [19] 2463 	ld	l, -7 (ix)
    00000A38 DD 66 FA         [19] 2464 	ld	h, -6 (ix)
    00000A3B DD 7E F5         [19] 2465 	ld	a, -11 (ix)
    00000A3E 77               [ 7] 2466 	ld	(hl), a
    00000A3F 23               [ 6] 2467 	inc	hl
    00000A40 DD 7E F6         [19] 2468 	ld	a, -10 (ix)
    00000A43 77               [ 7] 2469 	ld	(hl), a
    00000A44 C3r83r0B         [10] 2470 	jp	00149$
    00000A47                       2471 00129$:
                                   2472 ;./exsoccer.c:489: else if (role == PLAYER_ROLE_LEFT_HALFFIELDER || role == PLAYER_ROLE_RIGHT_HALFFIELDER) {
    00000A47 DD 7E FB         [19] 2473 	ld	a, -5 (ix)
    00000A4A D6 03            [ 7] 2474 	sub	a, #0x03
    00000A4C 3E 01            [ 7] 2475 	ld	a, #0x01
    00000A4E 28 01            [12] 2476 	jr	Z, 00337$
    00000A50 AF               [ 4] 2477 	xor	a, a
    00000A51                       2478 00337$:
    00000A51 4F               [ 4] 2479 	ld	c, a
    00000A52 B7               [ 4] 2480 	or	a, a
    00000A53 20 07            [12] 2481 	jr	NZ, 00124$
    00000A55 DD 7E FB         [19] 2482 	ld	a, -5 (ix)
    00000A58 D6 04            [ 7] 2483 	sub	a, #0x04
    00000A5A 20 3E            [12] 2484 	jr	NZ, 00125$
    00000A5C                       2485 00124$:
                                   2486 ;./exsoccer.c:490: if (role == PLAYER_ROLE_LEFT_HALFFIELDER) {
    00000A5C 79               [ 4] 2487 	ld	a, c
    00000A5D B7               [ 4] 2488 	or	a, a
    00000A5E 28 1D            [12] 2489 	jr	Z, 00122$
                                   2490 ;./exsoccer.c:492: g_Players[i].TargetX = FIELD_POS_X_CENTER - 50; 
    00000A60 DD 6E F7         [19] 2491 	ld	l, -9 (ix)
    00000A63 DD 66 F8         [19] 2492 	ld	h, -8 (ix)
    00000A66 36 46            [10] 2493 	ld	(hl), #0x46
    00000A68 23               [ 6] 2494 	inc	hl
    00000A69 36 00            [10] 2495 	ld	(hl), #0x00
                                   2496 ;./exsoccer.c:493: g_Players[i].TargetY = yBoxOutside;
    00000A6B DD 6E F9         [19] 2497 	ld	l, -7 (ix)
    00000A6E DD 66 FA         [19] 2498 	ld	h, -6 (ix)
    00000A71 DD 7E F1         [19] 2499 	ld	a, -15 (ix)
    00000A74 77               [ 7] 2500 	ld	(hl), a
    00000A75 23               [ 6] 2501 	inc	hl
    00000A76 DD 7E F2         [19] 2502 	ld	a, -14 (ix)
    00000A79 77               [ 7] 2503 	ld	(hl), a
    00000A7A C3r83r0B         [10] 2504 	jp	00149$
    00000A7D                       2505 00122$:
                                   2506 ;./exsoccer.c:496: g_Players[i].TargetX = FIELD_POS_X_CENTER + 30;
    00000A7D DD 6E F7         [19] 2507 	ld	l, -9 (ix)
    00000A80 DD 66 F8         [19] 2508 	ld	h, -8 (ix)
    00000A83 36 96            [10] 2509 	ld	(hl), #0x96
    00000A85 23               [ 6] 2510 	inc	hl
    00000A86 36 00            [10] 2511 	ld	(hl), #0x00
                                   2512 ;./exsoccer.c:497: g_Players[i].TargetY = yMidfieldAdv;
    00000A88 DD 6E F9         [19] 2513 	ld	l, -7 (ix)
    00000A8B DD 66 FA         [19] 2514 	ld	h, -6 (ix)
    00000A8E DD 7E F3         [19] 2515 	ld	a, -13 (ix)
    00000A91 77               [ 7] 2516 	ld	(hl), a
    00000A92 23               [ 6] 2517 	inc	hl
    00000A93 DD 7E F4         [19] 2518 	ld	a, -12 (ix)
    00000A96 77               [ 7] 2519 	ld	(hl), a
    00000A97 C3r83r0B         [10] 2520 	jp	00149$
    00000A9A                       2521 00125$:
                                   2522 ;./exsoccer.c:503: g_Players[i].TargetX = FIELD_POS_X_CENTER + 50;
    00000A9A DD 6E F7         [19] 2523 	ld	l, -9 (ix)
    00000A9D DD 66 F8         [19] 2524 	ld	h, -8 (ix)
    00000AA0 36 AA            [10] 2525 	ld	(hl), #0xaa
    00000AA2 23               [ 6] 2526 	inc	hl
    00000AA3 36 00            [10] 2527 	ld	(hl), #0x00
                                   2528 ;./exsoccer.c:504: g_Players[i].TargetY = yBoxOutside;
    00000AA5 DD 6E F9         [19] 2529 	ld	l, -7 (ix)
    00000AA8 DD 66 FA         [19] 2530 	ld	h, -6 (ix)
    00000AAB DD 7E F1         [19] 2531 	ld	a, -15 (ix)
    00000AAE 77               [ 7] 2532 	ld	(hl), a
    00000AAF 23               [ 6] 2533 	inc	hl
    00000AB0 DD 7E F2         [19] 2534 	ld	a, -14 (ix)
    00000AB3 77               [ 7] 2535 	ld	(hl), a
    00000AB4 C3r83r0B         [10] 2536 	jp	00149$
    00000AB7                       2537 00147$:
                                   2538 ;./exsoccer.c:509: if (role == PLAYER_ROLE_GOALKEEPER) {
    00000AB7 DD 7E FB         [19] 2539 	ld	a, -5 (ix)
    00000ABA B7               [ 4] 2540 	or	a, a
    00000ABB 20 26            [12] 2541 	jr	NZ, 00144$
                                   2542 ;./exsoccer.c:511: g_Players[i].TargetX = FIELD_POS_X_CENTER;
    00000ABD DD 6E F7         [19] 2543 	ld	l, -9 (ix)
    00000AC0 DD 66 F8         [19] 2544 	ld	h, -8 (ix)
    00000AC3 36 78            [10] 2545 	ld	(hl), #0x78
    00000AC5 23               [ 6] 2546 	inc	hl
    00000AC6 36 00            [10] 2547 	ld	(hl), #0x00
                                   2548 ;./exsoccer.c:512: g_Players[i].TargetY = (attackingUp) ? FIELD_POS_Y_TEAM2_GOALKEEPER : FIELD_POS_Y_TEAM1_GOALKEEPER;
    00000AC8 DD 6E F9         [19] 2549 	ld	l, -7 (ix)
                                   2550 ;	spillPairReg hl
                                   2551 ;	spillPairReg hl
    00000ACB DD 66 FA         [19] 2552 	ld	h, -6 (ix)
                                   2553 ;	spillPairReg hl
                                   2554 ;	spillPairReg hl
    00000ACE DD 7E EE         [19] 2555 	ld	a, -18 (ix)
    00000AD1 B7               [ 4] 2556 	or	a, a
    00000AD2 28 06            [12] 2557 	jr	Z, 00171$
    00000AD4 11 32 00         [10] 2558 	ld	de, #0x0032
    00000AD7 C3rDDr0A         [10] 2559 	jp	00172$
    00000ADA                       2560 00171$:
    00000ADA 11 A8 01         [10] 2561 	ld	de, #0x01a8
    00000ADD                       2562 00172$:
    00000ADD 73               [ 7] 2563 	ld	(hl), e
    00000ADE 23               [ 6] 2564 	inc	hl
    00000ADF 72               [ 7] 2565 	ld	(hl), d
    00000AE0 C3r83r0B         [10] 2566 	jp	00149$
    00000AE3                       2567 00144$:
                                   2568 ;./exsoccer.c:514: else if (role == PLAYER_ROLE_LEFT_DEFENDER || role == PLAYER_ROLE_RIGHT_DEFENDER) {
    00000AE3 DD 7E FB         [19] 2569 	ld	a, -5 (ix)
    00000AE6 3D               [ 4] 2570 	dec	a
    00000AE7 3E 01            [ 7] 2571 	ld	a, #0x01
    00000AE9 28 01            [12] 2572 	jr	Z, 00341$
    00000AEB AF               [ 4] 2573 	xor	a, a
    00000AEC                       2574 00341$:
    00000AEC 4F               [ 4] 2575 	ld	c, a
    00000AED B7               [ 4] 2576 	or	a, a
    00000AEE 20 07            [12] 2577 	jr	NZ, 00139$
    00000AF0 DD 7E FB         [19] 2578 	ld	a, -5 (ix)
    00000AF3 D6 02            [ 7] 2579 	sub	a, #0x02
    00000AF5 20 25            [12] 2580 	jr	NZ, 00140$
    00000AF7                       2581 00139$:
                                   2582 ;./exsoccer.c:516: g_Players[i].TargetX = (role == PLAYER_ROLE_LEFT_DEFENDER) ? FIELD_POS_X_CENTER - 20 : FIELD_POS_X_CENTER + 20;
    00000AF7 79               [ 4] 2583 	ld	a, c
    00000AF8 B7               [ 4] 2584 	or	a, a
    00000AF9 0E 64            [ 7] 2585 	ld	c, #0x64
    00000AFB 20 02            [12] 2586 	jr	NZ, 00174$
    00000AFD 0E 8C            [ 7] 2587 	ld	c, #0x8c
    00000AFF                       2588 00174$:
    00000AFF 06 00            [ 7] 2589 	ld	b, #0x00
    00000B01 DD 6E F7         [19] 2590 	ld	l, -9 (ix)
    00000B04 DD 66 F8         [19] 2591 	ld	h, -8 (ix)
    00000B07 71               [ 7] 2592 	ld	(hl), c
    00000B08 23               [ 6] 2593 	inc	hl
    00000B09 70               [ 7] 2594 	ld	(hl), b
                                   2595 ;./exsoccer.c:517: g_Players[i].TargetY = yBoxInside;
    00000B0A DD 6E F9         [19] 2596 	ld	l, -7 (ix)
    00000B0D DD 66 FA         [19] 2597 	ld	h, -6 (ix)
    00000B10 DD 7E EF         [19] 2598 	ld	a, -17 (ix)
    00000B13 77               [ 7] 2599 	ld	(hl), a
    00000B14 23               [ 6] 2600 	inc	hl
    00000B15 DD 7E F0         [19] 2601 	ld	a, -16 (ix)
    00000B18 77               [ 7] 2602 	ld	(hl), a
    00000B19 C3r83r0B         [10] 2603 	jp	00149$
    00000B1C                       2604 00140$:
                                   2605 ;./exsoccer.c:519: else if (role == PLAYER_ROLE_LEFT_HALFFIELDER || role == PLAYER_ROLE_RIGHT_HALFFIELDER) {
    00000B1C DD 7E FB         [19] 2606 	ld	a, -5 (ix)
    00000B1F D6 03            [ 7] 2607 	sub	a, #0x03
    00000B21 3E 01            [ 7] 2608 	ld	a, #0x01
    00000B23 28 01            [12] 2609 	jr	Z, 00345$
    00000B25 AF               [ 4] 2610 	xor	a, a
    00000B26                       2611 00345$:
    00000B26 4F               [ 4] 2612 	ld	c, a
    00000B27 B7               [ 4] 2613 	or	a, a
    00000B28 20 07            [12] 2614 	jr	NZ, 00135$
    00000B2A DD 7E FB         [19] 2615 	ld	a, -5 (ix)
    00000B2D D6 04            [ 7] 2616 	sub	a, #0x04
    00000B2F 20 25            [12] 2617 	jr	NZ, 00136$
    00000B31                       2618 00135$:
                                   2619 ;./exsoccer.c:521: g_Players[i].TargetX = (role == PLAYER_ROLE_LEFT_HALFFIELDER) ? FIELD_POS_X_CENTER - 40 : FIELD_POS_X_CENTER + 40;
    00000B31 79               [ 4] 2620 	ld	a, c
    00000B32 B7               [ 4] 2621 	or	a, a
    00000B33 0E 50            [ 7] 2622 	ld	c, #0x50
    00000B35 20 02            [12] 2623 	jr	NZ, 00176$
    00000B37 0E A0            [ 7] 2624 	ld	c, #0xa0
    00000B39                       2625 00176$:
    00000B39 06 00            [ 7] 2626 	ld	b, #0x00
    00000B3B DD 6E F7         [19] 2627 	ld	l, -9 (ix)
    00000B3E DD 66 F8         [19] 2628 	ld	h, -8 (ix)
    00000B41 71               [ 7] 2629 	ld	(hl), c
    00000B42 23               [ 6] 2630 	inc	hl
    00000B43 70               [ 7] 2631 	ld	(hl), b
                                   2632 ;./exsoccer.c:522: g_Players[i].TargetY = yBoxOutside;
    00000B44 DD 6E F9         [19] 2633 	ld	l, -7 (ix)
    00000B47 DD 66 FA         [19] 2634 	ld	h, -6 (ix)
    00000B4A DD 7E F1         [19] 2635 	ld	a, -15 (ix)
    00000B4D 77               [ 7] 2636 	ld	(hl), a
    00000B4E 23               [ 6] 2637 	inc	hl
    00000B4F DD 7E F2         [19] 2638 	ld	a, -14 (ix)
    00000B52 77               [ 7] 2639 	ld	(hl), a
    00000B53 C3r83r0B         [10] 2640 	jp	00149$
    00000B56                       2641 00136$:
                                   2642 ;./exsoccer.c:526: g_Players[i].TargetX = (role == PLAYER_ROLE_LEFT_STRIKER) ? FIELD_POS_X_LEFT + 20 : FIELD_POS_X_RIGHT - 20;
    00000B56 DD 7E F7         [19] 2643 	ld	a, -9 (ix)
    00000B59 DD 77 FC         [19] 2644 	ld	-4 (ix), a
    00000B5C DD 7E F8         [19] 2645 	ld	a, -8 (ix)
    00000B5F DD 77 FD         [19] 2646 	ld	-3 (ix), a
    00000B62 DD 7E FB         [19] 2647 	ld	a, -5 (ix)
    00000B65 D6 05            [ 7] 2648 	sub	a, #0x05
    00000B67 0E 3C            [ 7] 2649 	ld	c, #0x3c
    00000B69 28 02            [12] 2650 	jr	Z, 00178$
    00000B6B 0E B2            [ 7] 2651 	ld	c, #0xb2
    00000B6D                       2652 00178$:
    00000B6D 06 00            [ 7] 2653 	ld	b, #0x00
    00000B6F DD 6E FC         [19] 2654 	ld	l, -4 (ix)
    00000B72 DD 66 FD         [19] 2655 	ld	h, -3 (ix)
    00000B75 71               [ 7] 2656 	ld	(hl), c
    00000B76 23               [ 6] 2657 	inc	hl
    00000B77 70               [ 7] 2658 	ld	(hl), b
                                   2659 ;./exsoccer.c:527: g_Players[i].TargetY = yMidfield;
    00000B78 DD 6E F9         [19] 2660 	ld	l, -7 (ix)
    00000B7B DD 66 FA         [19] 2661 	ld	h, -6 (ix)
    00000B7E 36 F3            [10] 2662 	ld	(hl), #0xf3
    00000B80 23               [ 6] 2663 	inc	hl
    00000B81 36 00            [10] 2664 	ld	(hl), #0x00
    00000B83                       2665 00149$:
                                   2666 ;./exsoccer.c:456: for(u8 i=0; i<14; i++) {
    00000B83 DD 34 FF         [23] 2667 	inc	-1 (ix)
    00000B86 C3rCEr08         [10] 2668 	jp	00152$
    00000B89                       2669 00153$:
                                   2670 ;./exsoccer.c:531: }
    00000B89 DD F9            [10] 2671 	ld	sp, ix
    00000B8B DD E1            [14] 2672 	pop	ix
    00000B8D C9               [10] 2673 	ret
    00000B8E                       2674 ___str_3:
    00000B8E 43 4F 52 4E 45 52 20  2675 	.ascii "CORNER KICK"
             4B 49 43 4B
    00000B99 00                    2676 	.db 0x00
                                   2677 ;./exsoccer.c:532: void InitializeV9990()
                                   2678 ;	---------------------------------
                                   2679 ; Function InitializeV9990
                                   2680 ; ---------------------------------
    00000B9A                       2681 _InitializeV9990::
                                   2682 ;E:/Dropbox/FAUSTO/SVILUPPI/MSX/CODE/C/MSXgl/engine/src/rom_mapper.h:112: g_Bank0Segment[b] = s;
    00000B9A 21 01 00         [10] 2683 	ld	hl, #0x0001
    00000B9D 22r04r00         [16] 2684 	ld	((_g_Bank0Segment + 4)), hl
                                   2685 ;E:/Dropbox/FAUSTO/SVILUPPI/MSX/CODE/C/MSXgl/engine/src/system.h:109: inline void Poke16(u16 addr, u16 val) { *(u16*)addr = val; }
    00000BA0 22 00 70         [16] 2686 	ld	(0x7000), hl
                                   2687 ;./exsoccer.c:535: V9_SetScreenMode(V9_MODE_P1);
    00000BA3 AF               [ 4] 2688 	xor	a, a
    00000BA4 CDr00r00         [17] 2689 	call	_V9_SetScreenMode
                                   2690 ;E:/Dropbox/FAUSTO/SVILUPPI/MSX/CODE/C/MSXgl/engine/src/v9990.h:258: inline void V9_SetFlag(u8 reg, u8 mask, u8 flag) { V9_SetRegister(reg, V9_GetRegister(reg) & (~mask) | flag); }
    00000BA7 3E 08            [ 7] 2691 	ld	a, #0x08
    00000BA9 CDr00r00         [17] 2692 	call	_V9_GetRegister
    00000BAC 6F               [ 4] 2693 	ld	l, a
                                   2694 ;	spillPairReg hl
                                   2695 ;	spillPairReg hl
    00000BAD CB BD            [ 8] 2696 	res	7, l
    00000BAF 3E 08            [ 7] 2697 	ld	a, #0x08
    00000BB1 CDr00r00         [17] 2698 	call	_V9_SetRegister
                                   2699 ;E:/Dropbox/FAUSTO/SVILUPPI/MSX/CODE/C/MSXgl/engine/src/v9990.h:574: inline void V9_SetInterrupt(u8 flags) { V9_SetRegister(9, flags); }
    00000BB4 2E 00            [ 7] 2700 	ld	l, #0x00
                                   2701 ;	spillPairReg hl
                                   2702 ;	spillPairReg hl
    00000BB6 3E 09            [ 7] 2703 	ld	a, #0x09
    00000BB8 CDr00r00         [17] 2704 	call	_V9_SetRegister
                                   2705 ;E:/Dropbox/FAUSTO/SVILUPPI/MSX/CODE/C/MSXgl/engine/src/v9990.h:480: inline void V9_SetBackgroundColor(u8 color) { V9_SetRegister(15, color); }
    00000BBB 2E 01            [ 7] 2706 	ld	l, #0x01
                                   2707 ;	spillPairReg hl
                                   2708 ;	spillPairReg hl
    00000BBD 3E 0F            [ 7] 2709 	ld	a, #0x0f
    00000BBF CDr00r00         [17] 2710 	call	_V9_SetRegister
                                   2711 ;E:/Dropbox/FAUSTO/SVILUPPI/MSX/CODE/C/MSXgl/engine/src/v9990.h:258: inline void V9_SetFlag(u8 reg, u8 mask, u8 flag) { V9_SetRegister(reg, V9_GetRegister(reg) & (~mask) | flag); }
    00000BC2 3E 08            [ 7] 2712 	ld	a, #0x08
    00000BC4 CDr00r00         [17] 2713 	call	_V9_GetRegister
    00000BC7 6F               [ 4] 2714 	ld	l, a
                                   2715 ;	spillPairReg hl
                                   2716 ;	spillPairReg hl
    00000BC8 CB B5            [ 8] 2717 	res	6, l
    00000BCA 3E 08            [ 7] 2718 	ld	a, #0x08
    00000BCC CDr00r00         [17] 2719 	call	_V9_SetRegister
    00000BCF 3E 08            [ 7] 2720 	ld	a, #0x08
    00000BD1 CDr00r00         [17] 2721 	call	_V9_GetRegister
    00000BD4 CB BF            [ 8] 2722 	res	7, a
    00000BD6 6F               [ 4] 2723 	ld	l, a
                                   2724 ;	spillPairReg hl
                                   2725 ;	spillPairReg hl
    00000BD7 CB FD            [ 8] 2726 	set	7, l
    00000BD9 3E 08            [ 7] 2727 	ld	a, #0x08
    00000BDB CDr00r00         [17] 2728 	call	_V9_SetRegister
                                   2729 ;./exsoccer.c:542: LoadSprites();
    00000BDE CDr08r0C         [17] 2730 	call	_LoadSprites
                                   2731 ;./exsoccer.c:543: InitPalette();
    00000BE1 CDr00r00         [17] 2732 	call	_InitPalette
                                   2733 ;./exsoccer.c:544: LoadP1LayerA();
    00000BE4 CDr3Br00         [17] 2734 	call	_LoadP1LayerA
                                   2735 ;./exsoccer.c:545: LoadP1LayerB();
    00000BE7 CDr95r00         [17] 2736 	call	_LoadP1LayerB
                                   2737 ;E:/Dropbox/FAUSTO/SVILUPPI/MSX/CODE/C/MSXgl/engine/src/v9990.h:574: inline void V9_SetInterrupt(u8 flags) { V9_SetRegister(9, flags); }
    00000BEA 2E 03            [ 7] 2738 	ld	l, #0x03
                                   2739 ;	spillPairReg hl
                                   2740 ;	spillPairReg hl
    00000BEC 3E 09            [ 7] 2741 	ld	a, #0x09
    00000BEE CDr00r00         [17] 2742 	call	_V9_SetRegister
                                   2743 ;E:/Dropbox/FAUSTO/SVILUPPI/MSX/CODE/C/MSXgl/engine/src/v9990.h:606: inline void V9_SetInterruptLine(u16 line) { V9_SetRegister16(10, line); }
    00000BF1 11 47 00         [10] 2744 	ld	de, #0x0047
    00000BF4 3E 0A            [ 7] 2745 	ld	a, #0x0a
    00000BF6 CDr00r00         [17] 2746 	call	_V9_SetRegister16
                                   2747 ;E:/Dropbox/FAUSTO/SVILUPPI/MSX/CODE/C/MSXgl/engine/src/v9990.h:258: inline void V9_SetFlag(u8 reg, u8 mask, u8 flag) { V9_SetRegister(reg, V9_GetRegister(reg) & (~mask) | flag); }
    00000BF9 3E 08            [ 7] 2748 	ld	a, #0x08
    00000BFB CDr00r00         [17] 2749 	call	_V9_GetRegister
    00000BFE CB BF            [ 8] 2750 	res	7, a
    00000C00 6F               [ 4] 2751 	ld	l, a
                                   2752 ;	spillPairReg hl
                                   2753 ;	spillPairReg hl
    00000C01 CB FD            [ 8] 2754 	set	7, l
    00000C03 3E 08            [ 7] 2755 	ld	a, #0x08
                                   2756 ;./exsoccer.c:549: V9_SetDisplayEnable(TRUE);
                                   2757 ;./exsoccer.c:551: }
    00000C05 C3r00r00         [10] 2758 	jp	_V9_SetRegister
                                   2759 ;./exsoccer.c:554: void LoadSprites(){
                                   2760 ;	---------------------------------
                                   2761 ; Function LoadSprites
                                   2762 ; ---------------------------------
    00000C08                       2763 _LoadSprites::
                                   2764 ;E:/Dropbox/FAUSTO/SVILUPPI/MSX/CODE/C/MSXgl/engine/src/rom_mapper.h:112: g_Bank0Segment[b] = s;
    00000C08 21 08 00         [10] 2765 	ld	hl, #0x0008
    00000C0B 22r04r00         [16] 2766 	ld	((_g_Bank0Segment + 4)), hl
                                   2767 ;E:/Dropbox/FAUSTO/SVILUPPI/MSX/CODE/C/MSXgl/engine/src/system.h:109: inline void Poke16(u16 addr, u16 val) { *(u16*)addr = val; }
    00000C0E 22 00 70         [16] 2768 	ld	(0x7000), hl
                                   2769 ;E:/Dropbox/FAUSTO/SVILUPPI/MSX/CODE/C/MSXgl/engine/src/v9990.h:739: inline void V9_SetSpritePatternAddr(u8 addr) { V9_SetRegister(25, addr); }
    00000C11 2E 02            [ 7] 2770 	ld	l, #0x02
                                   2771 ;	spillPairReg hl
                                   2772 ;	spillPairReg hl
    00000C13 3E 19            [ 7] 2773 	ld	a, #0x19
    00000C15 CDr00r00         [17] 2774 	call	_V9_SetRegister
                                   2775 ;./exsoccer.c:558: V9_WriteVRAM(0x08000, g_Sprites1, sizeof(g_Sprites1));	
                                   2776 ;E:/Dropbox/FAUSTO/SVILUPPI/MSX/CODE/C/MSXgl/engine/src/v9990.h:371: inline void V9_WriteVRAM(u32 addr, const u8* src, u16 count) { V9_SetWriteAddress(addr); V9_WriteVRAM_CurrentAddr(src, count); }
    00000C18 11 00 80         [10] 2777 	ld	de, #0x8000
    00000C1B 21 00 00         [10] 2778 	ld	hl, #0x0000
    00000C1E CDr00r00         [17] 2779 	call	_V9_SetWriteAddress
    00000C21 11 00 40         [10] 2780 	ld	de, #0x4000
    00000C24 21r00r00         [10] 2781 	ld	hl, #_g_Sprites1
    00000C27 CDr00r00         [17] 2782 	call	_V9_WriteVRAM_CurrentAddr
                                   2783 ;E:/Dropbox/FAUSTO/SVILUPPI/MSX/CODE/C/MSXgl/engine/src/rom_mapper.h:112: g_Bank0Segment[b] = s;
    00000C2A 21 09 00         [10] 2784 	ld	hl, #0x0009
    00000C2D 22r04r00         [16] 2785 	ld	((_g_Bank0Segment + 4)), hl
                                   2786 ;E:/Dropbox/FAUSTO/SVILUPPI/MSX/CODE/C/MSXgl/engine/src/system.h:109: inline void Poke16(u16 addr, u16 val) { *(u16*)addr = val; }
    00000C30 22 00 70         [16] 2787 	ld	(0x7000), hl
                                   2788 ;./exsoccer.c:560: V9_WriteVRAM(0x08000+sizeof(g_Sprites1), g_Sprites2, sizeof(g_Sprites2));	
                                   2789 ;E:/Dropbox/FAUSTO/SVILUPPI/MSX/CODE/C/MSXgl/engine/src/v9990.h:371: inline void V9_WriteVRAM(u32 addr, const u8* src, u16 count) { V9_SetWriteAddress(addr); V9_WriteVRAM_CurrentAddr(src, count); }
    00000C33 11 00 C0         [10] 2790 	ld	de, #0xc000
    00000C36 6C               [ 4] 2791 	ld	l, h
    00000C37 CDr00r00         [17] 2792 	call	_V9_SetWriteAddress
    00000C3A 11 00 40         [10] 2793 	ld	de, #0x4000
    00000C3D 21r00r00         [10] 2794 	ld	hl, #_g_Sprites2
    00000C40 CDr00r00         [17] 2795 	call	_V9_WriteVRAM_CurrentAddr
                                   2796 ;E:/Dropbox/FAUSTO/SVILUPPI/MSX/CODE/C/MSXgl/engine/src/rom_mapper.h:112: g_Bank0Segment[b] = s;
    00000C43 21 01 00         [10] 2797 	ld	hl, #0x0001
    00000C46 22r04r00         [16] 2798 	ld	((_g_Bank0Segment + 4)), hl
                                   2799 ;E:/Dropbox/FAUSTO/SVILUPPI/MSX/CODE/C/MSXgl/engine/src/system.h:109: inline void Poke16(u16 addr, u16 val) { *(u16*)addr = val; }
    00000C49 22 00 70         [16] 2800 	ld	(0x7000), hl
                                   2801 ;./exsoccer.c:561: SET_BANK_SEGMENT(2, 1); 
                                   2802 ;./exsoccer.c:562: }
    00000C4C C9               [10] 2803 	ret
                                   2804 ;./exsoccer.c:564: void TickGoalCelebration(){
                                   2805 ;	---------------------------------
                                   2806 ; Function TickGoalCelebration
                                   2807 ; ---------------------------------
    00000C4D                       2808 _TickGoalCelebration::
    00000C4D DD E5            [15] 2809 	push	ix
    00000C4F DD 21 00 00      [14] 2810 	ld	ix,#0
    00000C53 DD 39            [15] 2811 	add	ix,sp
    00000C55 21 F3 FF         [10] 2812 	ld	hl, #-13
    00000C58 39               [11] 2813 	add	hl, sp
    00000C59 F9               [ 6] 2814 	ld	sp, hl
                                   2815 ;./exsoccer.c:565: if(g_MatchStatus!=MATCH_AFTER_IN_GOAL) return;
    00000C5A 3Ar04r00         [13] 2816 	ld	a, (_g_MatchStatus+0)
    00000C5D D6 06            [ 7] 2817 	sub	a, #0x06
    00000C5F C2r12r10         [10] 2818 	jp	NZ,00158$
                                   2819 ;./exsoccer.c:567: g_Timer++;
    00000C62 21r06r00         [10] 2820 	ld	hl, #_g_Timer
    00000C65 34               [11] 2821 	inc	(hl)
                                   2822 ;./exsoccer.c:569: if((g_Timer % 10) < 5){
    00000C66 3Ar06r00         [13] 2823 	ld	a, (_g_Timer+0)
    00000C69 6F               [ 4] 2824 	ld	l, a
                                   2825 ;	spillPairReg hl
                                   2826 ;	spillPairReg hl
    00000C6A 26 00            [ 7] 2827 	ld	h, #0x00
                                   2828 ;	spillPairReg hl
                                   2829 ;	spillPairReg hl
    00000C6C 11 0A 00         [10] 2830 	ld	de, #0x000a
    00000C6F CDr00r00         [17] 2831 	call	__modsint
    00000C72 7B               [ 4] 2832 	ld	a, e
    00000C73 D6 05            [ 7] 2833 	sub	a, #0x05
    00000C75 7A               [ 4] 2834 	ld	a, d
    00000C76 17               [ 4] 2835 	rla
    00000C77 3F               [ 4] 2836 	ccf
    00000C78 1F               [ 4] 2837 	rra
    00000C79 DE 80            [ 7] 2838 	sbc	a, #0x80
    00000C7B 30 0A            [12] 2839 	jr	NC, 00104$
                                   2840 ;E:/Dropbox/FAUSTO/SVILUPPI/MSX/CODE/C/MSXgl/engine/src/v9990.h:480: inline void V9_SetBackgroundColor(u8 color) { V9_SetRegister(15, color); }
    00000C7D 2E 08            [ 7] 2841 	ld	l, #0x08
                                   2842 ;	spillPairReg hl
                                   2843 ;	spillPairReg hl
    00000C7F 3E 0F            [ 7] 2844 	ld	a, #0x0f
    00000C81 CDr00r00         [17] 2845 	call	_V9_SetRegister
                                   2846 ;./exsoccer.c:570: V9_SetBackgroundColor(8); // Cyan/Flash
    00000C84 C3r8Er0C         [10] 2847 	jp	00105$
    00000C87                       2848 00104$:
                                   2849 ;E:/Dropbox/FAUSTO/SVILUPPI/MSX/CODE/C/MSXgl/engine/src/v9990.h:480: inline void V9_SetBackgroundColor(u8 color) { V9_SetRegister(15, color); }
    00000C87 2E 01            [ 7] 2850 	ld	l, #0x01
                                   2851 ;	spillPairReg hl
                                   2852 ;	spillPairReg hl
    00000C89 3E 0F            [ 7] 2853 	ld	a, #0x0f
    00000C8B CDr00r00         [17] 2854 	call	_V9_SetRegister
                                   2855 ;./exsoccer.c:572: V9_SetBackgroundColor(1); // Default Blue
    00000C8E                       2856 00105$:
                                   2857 ;./exsoccer.c:578: if (g_Timer < 120) {
    00000C8E 3Ar06r00         [13] 2858 	ld	a, (_g_Timer+0)
    00000C91 D6 78            [ 7] 2859 	sub	a, #0x78
    00000C93 D2rF2r0E         [10] 2860 	jp	NC, 00136$
                                   2861 ;./exsoccer.c:579: u8 scoringTeamId = (g_RestartKickTeamId == TEAM_1) ? TEAM_2 : TEAM_1;
    00000C96 3Ar7Er01         [13] 2862 	ld	a, (_g_RestartKickTeamId+0)
    00000C99 3D               [ 4] 2863 	dec	a
    00000C9A 20 06            [12] 2864 	jr	NZ, 00160$
    00000C9C 01 02 00         [10] 2865 	ld	bc, #0x0002
    00000C9F C3rA5r0C         [10] 2866 	jp	00161$
    00000CA2                       2867 00160$:
    00000CA2 01 01 00         [10] 2868 	ld	bc, #0x0001
    00000CA5                       2869 00161$:
    00000CA5 DD 71 F5         [19] 2870 	ld	-11 (ix), c
                                   2871 ;./exsoccer.c:582: u16 limitY_Top = FIELD_BOUND_Y_TOP;
    00000CA8 DD 36 F6 32      [19] 2872 	ld	-10 (ix), #0x32
    00000CAC AF               [ 4] 2873 	xor	a, a
    00000CAD DD 77 F7         [19] 2874 	ld	-9 (ix), a
                                   2875 ;./exsoccer.c:583: u16 limitY_Bottom = FIELD_BOUND_Y_BOTTOM;
    00000CB0 DD 36 F8 AE      [19] 2876 	ld	-8 (ix), #0xae
    00000CB4 DD 36 F9 01      [19] 2877 	ld	-7 (ix), #0x01
                                   2878 ;./exsoccer.c:585: if (g_Ball.Y < FIELD_CENTRAL_Y) { // Top Goal
    00000CB8 21r5Fr01         [10] 2879 	ld	hl, #_g_Ball
    00000CBB 7E               [ 7] 2880 	ld	a, (hl)
    00000CBC DD 77 FE         [19] 2881 	ld	-2 (ix), a
    00000CBF 23               [ 6] 2882 	inc	hl
    00000CC0 7E               [ 7] 2883 	ld	a, (hl)
    00000CC1 DD 77 FF         [19] 2884 	ld	-1 (ix), a
    00000CC4 DD 7E FE         [19] 2885 	ld	a, -2 (ix)
    00000CC7 D6 8C            [ 7] 2886 	sub	a, #0x8c
    00000CC9 DD 7E FF         [19] 2887 	ld	a, -1 (ix)
    00000CCC DE 00            [ 7] 2888 	sbc	a, #0x00
    00000CCE 30 0B            [12] 2889 	jr	NC, 00107$
                                   2890 ;./exsoccer.c:586: limitY_Bottom = FIELD_BOUND_Y_TOP + 160; 
    00000CD0 DD 36 F8 D2      [19] 2891 	ld	-8 (ix), #0xd2
    00000CD4 DD 36 F9 00      [19] 2892 	ld	-7 (ix), #0
    00000CD8 C3rE3r0C         [10] 2893 	jp	00200$
    00000CDB                       2894 00107$:
                                   2895 ;./exsoccer.c:588: limitY_Top = FIELD_BOUND_Y_BOTTOM - 160;
    00000CDB DD 36 F6 0E      [19] 2896 	ld	-10 (ix), #0x0e
    00000CDF DD 36 F7 01      [19] 2897 	ld	-9 (ix), #0x01
                                   2898 ;./exsoccer.c:596: for(u8 i=0; i<15; i++){
    00000CE3                       2899 00200$:
    00000CE3 DD 36 FF 00      [19] 2900 	ld	-1 (ix), #0x00
    00000CE7                       2901 00154$:
    00000CE7 DD 7E FF         [19] 2902 	ld	a, -1 (ix)
    00000CEA D6 0F            [ 7] 2903 	sub	a, #0x0f
    00000CEC D2rF2r0E         [10] 2904 	jp	NC, 00136$
                                   2905 ;./exsoccer.c:597: if(i == REFEREE) continue;
    00000CEF DD 7E FF         [19] 2906 	ld	a, -1 (ix)
    00000CF2 D6 0E            [ 7] 2907 	sub	a, #0x0e
    00000CF4 CArECr0E         [10] 2908 	jp	Z,00133$
                                   2909 ;./exsoccer.c:598: u8 dir = g_Players[i].Direction;
    00000CF7 DD 4E FF         [19] 2910 	ld	c, -1 (ix)
    00000CFA 06 00            [ 7] 2911 	ld	b, #0x00
    00000CFC 69               [ 4] 2912 	ld	l, c
    00000CFD 60               [ 4] 2913 	ld	h, b
    00000CFE 29               [11] 2914 	add	hl, hl
    00000CFF 29               [11] 2915 	add	hl, hl
    00000D00 09               [11] 2916 	add	hl, bc
    00000D01 29               [11] 2917 	add	hl, hl
    00000D02 29               [11] 2918 	add	hl, hl
    00000D03 09               [11] 2919 	add	hl, bc
    00000D04 11r06r00         [10] 2920 	ld	de, #_g_Players
    00000D07 19               [11] 2921 	add	hl, de
    00000D08 E3               [19] 2922 	ex	(sp), hl
    00000D09 DD 7E F3         [19] 2923 	ld	a, -13 (ix)
    00000D0C C6 0A            [ 7] 2924 	add	a, #0x0a
    00000D0E 4F               [ 4] 2925 	ld	c, a
    00000D0F DD 7E F4         [19] 2926 	ld	a, -12 (ix)
    00000D12 CE 00            [ 7] 2927 	adc	a, #0x00
    00000D14 47               [ 4] 2928 	ld	b, a
    00000D15 0A               [ 7] 2929 	ld	a, (bc)
    00000D16 DD 77 FE         [19] 2930 	ld	-2 (ix), a
                                   2931 ;./exsoccer.c:601: if (g_Players[i].TeamId == scoringTeamId) {
    00000D19 D1               [10] 2932 	pop	de
    00000D1A D5               [11] 2933 	push	de
    00000D1B 21 09 00         [10] 2934 	ld	hl, #9
    00000D1E 19               [11] 2935 	add	hl, de
    00000D1F 5E               [ 7] 2936 	ld	e, (hl)
                                   2937 ;./exsoccer.c:625: if (isBack) g_Players[i].PatternId = (animFrame1) ? PLAYER_POSE_CELEBRATION_BACK_1 : PLAYER_POSE_CELEBRATION_BACK_2;
    00000D20 DD 7E F3         [19] 2938 	ld	a, -13 (ix)
    00000D23 C6 08            [ 7] 2939 	add	a, #0x08
    00000D25 DD 77 FA         [19] 2940 	ld	-6 (ix), a
    00000D28 DD 7E F4         [19] 2941 	ld	a, -12 (ix)
    00000D2B CE 00            [ 7] 2942 	adc	a, #0x00
    00000D2D DD 77 FB         [19] 2943 	ld	-5 (ix), a
                                   2944 ;./exsoccer.c:601: if (g_Players[i].TeamId == scoringTeamId) {
    00000D30 DD 7E F5         [19] 2945 	ld	a, -11 (ix)
    00000D33 93               [ 4] 2946 	sub	a, e
    00000D34 C2rACr0E         [10] 2947 	jp	NZ,00131$
                                   2948 ;./exsoccer.c:605: if ((g_Timer % 19) == 0) {
    00000D37 3Ar06r00         [13] 2949 	ld	a, (_g_Timer+0)
    00000D3A 6F               [ 4] 2950 	ld	l, a
                                   2951 ;	spillPairReg hl
                                   2952 ;	spillPairReg hl
    00000D3B 26 00            [ 7] 2953 	ld	h, #0x00
                                   2954 ;	spillPairReg hl
                                   2955 ;	spillPairReg hl
    00000D3D C5               [11] 2956 	push	bc
    00000D3E 11 13 00         [10] 2957 	ld	de, #0x0013
    00000D41 CDr00r00         [17] 2958 	call	__modsint
    00000D44 C1               [10] 2959 	pop	bc
    00000D45 7A               [ 4] 2960 	ld	a, d
    00000D46 B3               [ 4] 2961 	or	a, e
    00000D47 20 1C            [12] 2962 	jr	NZ, 00112$
                                   2963 ;./exsoccer.c:607: u8 rnd = (g_Timer * 3) + (i * 37); 
    00000D49 3Ar06r00         [13] 2964 	ld	a, (_g_Timer+0)
    00000D4C 5F               [ 4] 2965 	ld	e, a
    00000D4D 87               [ 4] 2966 	add	a, a
    00000D4E 83               [ 4] 2967 	add	a, e
    00000D4F 5F               [ 4] 2968 	ld	e, a
    00000D50 DD 7E FF         [19] 2969 	ld	a, -1 (ix)
    00000D53 D5               [11] 2970 	push	de
    00000D54 5F               [ 4] 2971 	ld	e, a
    00000D55 87               [ 4] 2972 	add	a, a
    00000D56 87               [ 4] 2973 	add	a, a
    00000D57 87               [ 4] 2974 	add	a, a
    00000D58 83               [ 4] 2975 	add	a, e
    00000D59 87               [ 4] 2976 	add	a, a
    00000D5A 87               [ 4] 2977 	add	a, a
    00000D5B 83               [ 4] 2978 	add	a, e
    00000D5C D1               [10] 2979 	pop	de
    00000D5D 83               [ 4] 2980 	add	a, e
                                   2981 ;./exsoccer.c:608: dir = (rnd % 8) + 1; 
    00000D5E E6 07            [ 7] 2982 	and	a, #0x07
    00000D60 3C               [ 4] 2983 	inc	a
                                   2984 ;./exsoccer.c:609: g_Players[i].Direction = dir;
    00000D61 DD 77 FE         [19] 2985 	ld	-2 (ix), a
    00000D64 02               [ 7] 2986 	ld	(bc), a
    00000D65                       2987 00112$:
                                   2988 ;./exsoccer.c:612: i8 dy = k_CelebDY[dir];
    00000D65 3Er20            [ 7] 2989 	ld	a, #<(_TickGoalCelebration_k_CelebDY_131073_1441)
    00000D67 DD 86 FE         [19] 2990 	add	a, -2 (ix)
    00000D6A 6F               [ 4] 2991 	ld	l, a
                                   2992 ;	spillPairReg hl
                                   2993 ;	spillPairReg hl
    00000D6B 3Es10            [ 7] 2994 	ld	a, #>(_TickGoalCelebration_k_CelebDY_131073_1441)
    00000D6D CE 00            [ 7] 2995 	adc	a, #0x00
    00000D6F 67               [ 4] 2996 	ld	h, a
    00000D70 4E               [ 7] 2997 	ld	c, (hl)
                                   2998 ;./exsoccer.c:613: i8 dx = k_CelebDX[dir];
    00000D71 3Er17            [ 7] 2999 	ld	a, #<(_TickGoalCelebration_k_CelebDX_131073_1441)
    00000D73 DD 86 FE         [19] 3000 	add	a, -2 (ix)
    00000D76 6F               [ 4] 3001 	ld	l, a
                                   3002 ;	spillPairReg hl
                                   3003 ;	spillPairReg hl
    00000D77 3Es10            [ 7] 3004 	ld	a, #>(_TickGoalCelebration_k_CelebDX_131073_1441)
    00000D79 CE 00            [ 7] 3005 	adc	a, #0x00
    00000D7B 67               [ 4] 3006 	ld	h, a
    00000D7C 46               [ 7] 3007 	ld	b, (hl)
                                   3008 ;./exsoccer.c:615: if (dy < 0 && g_Players[i].Y > limitY_Top) g_Players[i].Y--;
    00000D7D 79               [ 4] 3009 	ld	a, c
    00000D7E 07               [ 4] 3010 	rlca
    00000D7F E6 01            [ 7] 3011 	and	a,#0x01
    00000D81 DD 77 FC         [19] 3012 	ld	-4 (ix), a
    00000D84 B7               [ 4] 3013 	or	a, a
    00000D85 28 18            [12] 3014 	jr	Z, 00117$
    00000D87 E1               [10] 3015 	pop	hl
    00000D88 E5               [11] 3016 	push	hl
    00000D89 5E               [ 7] 3017 	ld	e, (hl)
    00000D8A 23               [ 6] 3018 	inc	hl
    00000D8B 56               [ 7] 3019 	ld	d, (hl)
    00000D8C DD 7E F6         [19] 3020 	ld	a, -10 (ix)
    00000D8F 93               [ 4] 3021 	sub	a, e
    00000D90 DD 7E F7         [19] 3022 	ld	a, -9 (ix)
    00000D93 9A               [ 4] 3023 	sbc	a, d
    00000D94 30 09            [12] 3024 	jr	NC, 00117$
    00000D96 1B               [ 6] 3025 	dec	de
    00000D97 E1               [10] 3026 	pop	hl
    00000D98 E5               [11] 3027 	push	hl
    00000D99 73               [ 7] 3028 	ld	(hl), e
    00000D9A 23               [ 6] 3029 	inc	hl
    00000D9B 72               [ 7] 3030 	ld	(hl), d
    00000D9C C3rBEr0D         [10] 3031 	jp	00118$
    00000D9F                       3032 00117$:
                                   3033 ;./exsoccer.c:616: else if (dy > 0 && g_Players[i].Y < limitY_Bottom) g_Players[i].Y++;
    00000D9F AF               [ 4] 3034 	xor	a, a
    00000DA0 91               [ 4] 3035 	sub	a, c
    00000DA1 E2rA6r0D         [10] 3036 	jp	PO, 00387$
    00000DA4 EE 80            [ 7] 3037 	xor	a, #0x80
    00000DA6                       3038 00387$:
    00000DA6 F2rBEr0D         [10] 3039 	jp	P, 00118$
    00000DA9 E1               [10] 3040 	pop	hl
    00000DAA E5               [11] 3041 	push	hl
    00000DAB 5E               [ 7] 3042 	ld	e, (hl)
    00000DAC 23               [ 6] 3043 	inc	hl
    00000DAD 56               [ 7] 3044 	ld	d, (hl)
    00000DAE 7B               [ 4] 3045 	ld	a, e
    00000DAF DD 96 F8         [19] 3046 	sub	a, -8 (ix)
    00000DB2 7A               [ 4] 3047 	ld	a, d
    00000DB3 DD 9E F9         [19] 3048 	sbc	a, -7 (ix)
    00000DB6 30 06            [12] 3049 	jr	NC, 00118$
    00000DB8 13               [ 6] 3050 	inc	de
    00000DB9 E1               [10] 3051 	pop	hl
    00000DBA E5               [11] 3052 	push	hl
    00000DBB 73               [ 7] 3053 	ld	(hl), e
    00000DBC 23               [ 6] 3054 	inc	hl
    00000DBD 72               [ 7] 3055 	ld	(hl), d
    00000DBE                       3056 00118$:
                                   3057 ;./exsoccer.c:618: if (dx < 0 && g_Players[i].X > FIELD_BOUND_X_LEFT) g_Players[i].X--;
    00000DBE CB 78            [ 8] 3058 	bit	7, b
    00000DC0 28 21            [12] 3059 	jr	Z, 00124$
    00000DC2 E1               [10] 3060 	pop	hl
    00000DC3 E5               [11] 3061 	push	hl
    00000DC4 23               [ 6] 3062 	inc	hl
    00000DC5 23               [ 6] 3063 	inc	hl
    00000DC6 5E               [ 7] 3064 	ld	e, (hl)
    00000DC7 23               [ 6] 3065 	inc	hl
    00000DC8 56               [ 7] 3066 	ld	d, (hl)
    00000DC9 2B               [ 6] 3067 	dec	hl
    00000DCA DD 73 FD         [19] 3068 	ld	-3 (ix), e
    00000DCD DD 72 FE         [19] 3069 	ld	-2 (ix), d
    00000DD0 3E 0A            [ 7] 3070 	ld	a, #0x0a
    00000DD2 DD BE FD         [19] 3071 	cp	a, -3 (ix)
    00000DD5 3E 00            [ 7] 3072 	ld	a, #0x00
    00000DD7 DD 9E FE         [19] 3073 	sbc	a, -2 (ix)
    00000DDA 30 07            [12] 3074 	jr	NC, 00124$
    00000DDC 1B               [ 6] 3075 	dec	de
    00000DDD 73               [ 7] 3076 	ld	(hl), e
    00000DDE 23               [ 6] 3077 	inc	hl
    00000DDF 72               [ 7] 3078 	ld	(hl), d
    00000DE0 C3r03r0E         [10] 3079 	jp	00125$
    00000DE3                       3080 00124$:
                                   3081 ;./exsoccer.c:619: else if (dx > 0 && g_Players[i].X < FIELD_BOUND_X_RIGHT) g_Players[i].X++;
    00000DE3 AF               [ 4] 3082 	xor	a, a
    00000DE4 90               [ 4] 3083 	sub	a, b
    00000DE5 E2rEAr0D         [10] 3084 	jp	PO, 00388$
    00000DE8 EE 80            [ 7] 3085 	xor	a, #0x80
    00000DEA                       3086 00388$:
    00000DEA F2r03r0E         [10] 3087 	jp	P, 00125$
    00000DED E1               [10] 3088 	pop	hl
    00000DEE E5               [11] 3089 	push	hl
    00000DEF 23               [ 6] 3090 	inc	hl
    00000DF0 23               [ 6] 3091 	inc	hl
    00000DF1 4E               [ 7] 3092 	ld	c, (hl)
    00000DF2 23               [ 6] 3093 	inc	hl
    00000DF3 46               [ 7] 3094 	ld	b, (hl)
    00000DF4 2B               [ 6] 3095 	dec	hl
    00000DF5 59               [ 4] 3096 	ld	e, c
    00000DF6 50               [ 4] 3097 	ld	d, b
    00000DF7 7B               [ 4] 3098 	ld	a, e
    00000DF8 D6 F6            [ 7] 3099 	sub	a, #0xf6
    00000DFA 7A               [ 4] 3100 	ld	a, d
    00000DFB DE 00            [ 7] 3101 	sbc	a, #0x00
    00000DFD 30 04            [12] 3102 	jr	NC, 00125$
    00000DFF 03               [ 6] 3103 	inc	bc
    00000E00 71               [ 7] 3104 	ld	(hl), c
    00000E01 23               [ 6] 3105 	inc	hl
    00000E02 70               [ 7] 3106 	ld	(hl), b
    00000E03                       3107 00125$:
                                   3108 ;./exsoccer.c:622: bool animFrame1 = ((g_Timer / 8) % 2) == 0;
    00000E03 3Ar06r00         [13] 3109 	ld	a, (_g_Timer+0)
    00000E06 5F               [ 4] 3110 	ld	e, a
    00000E07 16 00            [ 7] 3111 	ld	d, #0x00
    00000E09 4B               [ 4] 3112 	ld	c, e
    00000E0A 42               [ 4] 3113 	ld	b, d
    00000E0B CB 7A            [ 8] 3114 	bit	7, d
    00000E0D 28 06            [12] 3115 	jr	Z, 00162$
    00000E0F 21 07 00         [10] 3116 	ld	hl, #0x0007
    00000E12 19               [11] 3117 	add	hl, de
    00000E13 4D               [ 4] 3118 	ld	c, l
    00000E14 44               [ 4] 3119 	ld	b, h
    00000E15                       3120 00162$:
    00000E15 DD 71 FD         [19] 3121 	ld	-3 (ix), c
    00000E18 DD 70 FE         [19] 3122 	ld	-2 (ix), b
    00000E1B DD CB FE 2E      [23] 3123 	sra	-2 (ix)
    00000E1F DD CB FD 1E      [23] 3124 	rr	-3 (ix)
    00000E23 DD CB FE 2E      [23] 3125 	sra	-2 (ix)
    00000E27 DD CB FD 1E      [23] 3126 	rr	-3 (ix)
    00000E2B DD CB FE 2E      [23] 3127 	sra	-2 (ix)
    00000E2F DD CB FD 1E      [23] 3128 	rr	-3 (ix)
    00000E33 11 02 00         [10] 3129 	ld	de, #0x0002
    00000E36 DD 6E FD         [19] 3130 	ld	l, -3 (ix)
                                   3131 ;	spillPairReg hl
                                   3132 ;	spillPairReg hl
    00000E39 DD 66 FE         [19] 3133 	ld	h, -2 (ix)
                                   3134 ;	spillPairReg hl
                                   3135 ;	spillPairReg hl
    00000E3C CDr00r00         [17] 3136 	call	__modsint
    00000E3F DD 73 FD         [19] 3137 	ld	-3 (ix), e
    00000E42 DD 72 FE         [19] 3138 	ld	-2 (ix), d
    00000E45 DD 7E FD         [19] 3139 	ld	a, -3 (ix)
    00000E48 B7               [ 4] 3140 	or	a, a
    00000E49 DD B6 FE         [19] 3141 	or	a, -2 (ix)
    00000E4C 3E 01            [ 7] 3142 	ld	a, #0x01
    00000E4E 28 01            [12] 3143 	jr	Z, 00390$
    00000E50 AF               [ 4] 3144 	xor	a, a
    00000E51                       3145 00390$:
    00000E51 DD 77 FE         [19] 3146 	ld	-2 (ix), a
                                   3147 ;./exsoccer.c:625: if (isBack) g_Players[i].PatternId = (animFrame1) ? PLAYER_POSE_CELEBRATION_BACK_1 : PLAYER_POSE_CELEBRATION_BACK_2;
    00000E54 DD 7E FC         [19] 3148 	ld	a, -4 (ix)
    00000E57 B7               [ 4] 3149 	or	a, a
    00000E58 28 2C            [12] 3150 	jr	Z, 00128$
    00000E5A DD 7E FE         [19] 3151 	ld	a, -2 (ix)
    00000E5D B7               [ 4] 3152 	or	a, a
    00000E5E 28 0B            [12] 3153 	jr	Z, 00163$
    00000E60 DD 36 FD 32      [19] 3154 	ld	-3 (ix), #0x32
    00000E64 DD 36 FE 00      [19] 3155 	ld	-2 (ix), #0
    00000E68 C3r73r0E         [10] 3156 	jp	00164$
    00000E6B                       3157 00163$:
    00000E6B DD 36 FD 33      [19] 3158 	ld	-3 (ix), #0x33
    00000E6F DD 36 FE 00      [19] 3159 	ld	-2 (ix), #0
    00000E73                       3160 00164$:
    00000E73 DD 7E FD         [19] 3161 	ld	a, -3 (ix)
    00000E76 DD 77 FE         [19] 3162 	ld	-2 (ix), a
    00000E79 DD 6E FA         [19] 3163 	ld	l, -6 (ix)
    00000E7C DD 66 FB         [19] 3164 	ld	h, -5 (ix)
    00000E7F DD 7E FE         [19] 3165 	ld	a, -2 (ix)
    00000E82 77               [ 7] 3166 	ld	(hl), a
    00000E83 C3rECr0E         [10] 3167 	jp	00133$
    00000E86                       3168 00128$:
                                   3169 ;./exsoccer.c:626: else g_Players[i].PatternId = (animFrame1) ? PLAYER_POSE_CELEBRATION_FRONT_1 : PLAYER_POSE_CELEBRATION_FRONT_2;
    00000E86 DD 7E FE         [19] 3170 	ld	a, -2 (ix)
    00000E89 B7               [ 4] 3171 	or	a, a
    00000E8A 28 0B            [12] 3172 	jr	Z, 00165$
    00000E8C DD 36 FD 30      [19] 3173 	ld	-3 (ix), #0x30
    00000E90 DD 36 FE 00      [19] 3174 	ld	-2 (ix), #0
    00000E94 C3r9Fr0E         [10] 3175 	jp	00166$
    00000E97                       3176 00165$:
    00000E97 DD 36 FD 31      [19] 3177 	ld	-3 (ix), #0x31
    00000E9B DD 36 FE 00      [19] 3178 	ld	-2 (ix), #0
    00000E9F                       3179 00166$:
    00000E9F DD 7E FD         [19] 3180 	ld	a, -3 (ix)
    00000EA2 DD 6E FA         [19] 3181 	ld	l, -6 (ix)
    00000EA5 DD 66 FB         [19] 3182 	ld	h, -5 (ix)
    00000EA8 77               [ 7] 3183 	ld	(hl), a
    00000EA9 C3rECr0E         [10] 3184 	jp	00133$
    00000EAC                       3185 00131$:
                                   3186 ;./exsoccer.c:630: bool isUp = (dir == DIRECTION_UP || dir == DIRECTION_UP_LEFT || dir == DIRECTION_UP_RIGHT);
    00000EAC DD 7E FE         [19] 3187 	ld	a, -2 (ix)
    00000EAF 3D               [ 4] 3188 	dec	a
    00000EB0 28 12            [12] 3189 	jr	Z, 00168$
    00000EB2 DD 7E FE         [19] 3190 	ld	a, -2 (ix)
    00000EB5 D6 08            [ 7] 3191 	sub	a, #0x08
    00000EB7 28 0B            [12] 3192 	jr	Z, 00168$
    00000EB9 DD 7E FE         [19] 3193 	ld	a, -2 (ix)
    00000EBC D6 02            [ 7] 3194 	sub	a, #0x02
    00000EBE 28 04            [12] 3195 	jr	Z, 00168$
    00000EC0 AF               [ 4] 3196 	xor	a, a
    00000EC1 C3rC6r0E         [10] 3197 	jp	00169$
    00000EC4                       3198 00168$:
    00000EC4 3E 01            [ 7] 3199 	ld	a, #0x01
    00000EC6                       3200 00169$:
                                   3201 ;./exsoccer.c:631: g_Players[i].PatternId = isUp ? PLAYER_POSE_BACK : PLAYER_POSE_FRONT;
    00000EC6 B7               [ 4] 3202 	or	a, a
    00000EC7 28 0B            [12] 3203 	jr	Z, 00173$
    00000EC9 DD 36 FD 11      [19] 3204 	ld	-3 (ix), #0x11
    00000ECD DD 36 FE 00      [19] 3205 	ld	-2 (ix), #0
    00000ED1 C3rDCr0E         [10] 3206 	jp	00174$
    00000ED4                       3207 00173$:
    00000ED4 DD 36 FD 10      [19] 3208 	ld	-3 (ix), #0x10
    00000ED8 DD 36 FE 00      [19] 3209 	ld	-2 (ix), #0
    00000EDC                       3210 00174$:
    00000EDC DD 7E FD         [19] 3211 	ld	a, -3 (ix)
    00000EDF DD 77 FE         [19] 3212 	ld	-2 (ix), a
    00000EE2 DD 6E FA         [19] 3213 	ld	l, -6 (ix)
    00000EE5 DD 66 FB         [19] 3214 	ld	h, -5 (ix)
    00000EE8 DD 7E FE         [19] 3215 	ld	a, -2 (ix)
    00000EEB 77               [ 7] 3216 	ld	(hl), a
    00000EEC                       3217 00133$:
                                   3218 ;./exsoccer.c:596: for(u8 i=0; i<15; i++){
    00000EEC DD 34 FF         [23] 3219 	inc	-1 (ix)
    00000EEF C3rE7r0C         [10] 3220 	jp	00154$
    00000EF2                       3221 00136$:
                                   3222 ;./exsoccer.c:636: if(g_Timer > 150){
    00000EF2 3E 96            [ 7] 3223 	ld	a, #0x96
    00000EF4 21r06r00         [10] 3224 	ld	hl, #_g_Timer
    00000EF7 96               [ 7] 3225 	sub	a, (hl)
    00000EF8 D2r12r10         [10] 3226 	jp	NC, 00158$
                                   3227 ;E:/Dropbox/FAUSTO/SVILUPPI/MSX/CODE/C/MSXgl/engine/src/v9990.h:480: inline void V9_SetBackgroundColor(u8 color) { V9_SetRegister(15, color); }
    00000EFB 2E 01            [ 7] 3228 	ld	l, #0x01
                                   3229 ;	spillPairReg hl
                                   3230 ;	spillPairReg hl
    00000EFD 3E 0F            [ 7] 3231 	ld	a, #0x0f
    00000EFF CDr00r00         [17] 3232 	call	_V9_SetRegister
                                   3233 ;./exsoccer.c:638: ClearTextFromLayerA(12, 18, 8); // "IN  GOAL"
    00000F02 3E 08            [ 7] 3234 	ld	a, #0x08
    00000F04 F5               [11] 3235 	push	af
    00000F05 33               [ 6] 3236 	inc	sp
    00000F06 2E 12            [ 7] 3237 	ld	l, #0x12
                                   3238 ;	spillPairReg hl
                                   3239 ;	spillPairReg hl
    00000F08 3E 0C            [ 7] 3240 	ld	a, #0x0c
    00000F0A CDr00r00         [17] 3241 	call	_ClearTextFromLayerA
                                   3242 ;./exsoccer.c:640: g_MatchStatus = MATCH_BEFORE_KICK_OFF;
    00000F0D 21r04r00         [10] 3243 	ld	hl, #_g_MatchStatus
    00000F10 36 01            [10] 3244 	ld	(hl), #0x01
                                   3245 ;./exsoccer.c:641: g_Ball.PossessionPlayerId = NO_VALUE;
    00000F12 21r65r01         [10] 3246 	ld	hl, #(_g_Ball + 6)
    00000F15 36 FF            [10] 3247 	ld	(hl), #0xff
                                   3248 ;./exsoccer.c:642: g_Ball.KickMoveState = 0;
    00000F17 21r6Cr01         [10] 3249 	ld	hl, #(_g_Ball + 13)
    00000F1A 36 00            [10] 3250 	ld	(hl), #0x00
                                   3251 ;./exsoccer.c:643: g_Ball.ShotActive = 0;
    00000F1C 21r7Ar01         [10] 3252 	ld	hl, #(_g_Ball + 27)
    00000F1F 36 00            [10] 3253 	ld	(hl), #0x00
                                   3254 ;./exsoccer.c:644: if(g_Team1ActivePlayer!=NO_VALUE) g_Players[g_Team1ActivePlayer].Status=PLAYER_STATUS_NONE;
    00000F21 3Ar07r00         [13] 3255 	ld	a, (_g_Team1ActivePlayer+0)
    00000F24 3C               [ 4] 3256 	inc	a
    00000F25 28 1A            [12] 3257 	jr	Z, 00138$
    00000F27 01r06r00         [10] 3258 	ld	bc, #_g_Players+0
    00000F2A ED 5Br07r00      [20] 3259 	ld	de, (_g_Team1ActivePlayer)
    00000F2E 16 00            [ 7] 3260 	ld	d, #0x00
    00000F30 6B               [ 4] 3261 	ld	l, e
    00000F31 62               [ 4] 3262 	ld	h, d
    00000F32 29               [11] 3263 	add	hl, hl
    00000F33 29               [11] 3264 	add	hl, hl
    00000F34 19               [11] 3265 	add	hl, de
    00000F35 29               [11] 3266 	add	hl, hl
    00000F36 29               [11] 3267 	add	hl, hl
    00000F37 19               [11] 3268 	add	hl, de
    00000F38 09               [11] 3269 	add	hl, bc
    00000F39 01 12 00         [10] 3270 	ld	bc, #0x0012
    00000F3C 09               [11] 3271 	add	hl, bc
    00000F3D AF               [ 4] 3272 	xor	a, a
    00000F3E 77               [ 7] 3273 	ld	(hl), a
    00000F3F 23               [ 6] 3274 	inc	hl
    00000F40 77               [ 7] 3275 	ld	(hl), a
    00000F41                       3276 00138$:
                                   3277 ;./exsoccer.c:645: if(g_Team2ActivePlayer!=NO_VALUE) g_Players[g_Team2ActivePlayer].Status=PLAYER_STATUS_NONE;
    00000F41 3Ar08r00         [13] 3278 	ld	a, (_g_Team2ActivePlayer+0)
    00000F44 3C               [ 4] 3279 	inc	a
    00000F45 28 1A            [12] 3280 	jr	Z, 00140$
    00000F47 01r06r00         [10] 3281 	ld	bc, #_g_Players+0
    00000F4A ED 5Br08r00      [20] 3282 	ld	de, (_g_Team2ActivePlayer)
    00000F4E 16 00            [ 7] 3283 	ld	d, #0x00
    00000F50 6B               [ 4] 3284 	ld	l, e
    00000F51 62               [ 4] 3285 	ld	h, d
    00000F52 29               [11] 3286 	add	hl, hl
    00000F53 29               [11] 3287 	add	hl, hl
    00000F54 19               [11] 3288 	add	hl, de
    00000F55 29               [11] 3289 	add	hl, hl
    00000F56 29               [11] 3290 	add	hl, hl
    00000F57 19               [11] 3291 	add	hl, de
    00000F58 09               [11] 3292 	add	hl, bc
    00000F59 01 12 00         [10] 3293 	ld	bc, #0x0012
    00000F5C 09               [11] 3294 	add	hl, bc
    00000F5D AF               [ 4] 3295 	xor	a, a
    00000F5E 77               [ 7] 3296 	ld	(hl), a
    00000F5F 23               [ 6] 3297 	inc	hl
    00000F60 77               [ 7] 3298 	ld	(hl), a
    00000F61                       3299 00140$:
                                   3300 ;./exsoccer.c:646: g_Team1ActivePlayer=NO_VALUE;
    00000F61 21r07r00         [10] 3301 	ld	hl, #_g_Team1ActivePlayer
    00000F64 36 FF            [10] 3302 	ld	(hl), #0xff
                                   3303 ;./exsoccer.c:647: g_Team2ActivePlayer=NO_VALUE;
    00000F66 21r08r00         [10] 3304 	ld	hl, #_g_Team2ActivePlayer
    00000F69 36 FF            [10] 3305 	ld	(hl), #0xff
                                   3306 ;./exsoccer.c:649: g_Ball.X = FIELD_POS_X_CENTER;
    00000F6B 21 78 00         [10] 3307 	ld	hl, #0x0078
    00000F6E 22r61r01         [16] 3308 	ld	((_g_Ball + 2)), hl
                                   3309 ;./exsoccer.c:650: g_Ball.Y = FIELD_POS_Y_CENTER;
    00000F71 2E F3            [ 7] 3310 	ld	l, #0xf3
    00000F73 22r5Fr01         [16] 3311 	ld	(_g_Ball), hl
                                   3312 ;./exsoccer.c:651: g_Ball.PreviousY = g_Ball.Y;
    00000F76 ED 4Br5Fr01      [20] 3313 	ld	bc, (#_g_Ball + 0)
    00000F7A ED 43r66r01      [20] 3314 	ld	((_g_Ball + 7)), bc
                                   3315 ;./exsoccer.c:652: PutBallSprite();
    00000F7E CDr00r00         [17] 3316 	call	_PutBallSprite
                                   3317 ;./exsoccer.c:654: for(u8 i=0; i<15; i++){
    00000F81 11r06r00         [10] 3318 	ld	de, #_g_Players
    00000F84 DD 36 FF 00      [19] 3319 	ld	-1 (ix), #0x00
    00000F88                       3320 00156$:
    00000F88 DD 7E FF         [19] 3321 	ld	a, -1 (ix)
    00000F8B D6 0F            [ 7] 3322 	sub	a, #0x0f
    00000F8D D2r0Dr10         [10] 3323 	jp	NC, 00147$
                                   3324 ;./exsoccer.c:655: if(i==REFEREE || g_Players[i].TeamId==TEAM_1 || g_Players[i].TeamId==TEAM_2){
    00000F90 DD 7E FF         [19] 3325 	ld	a, -1 (ix)
    00000F93 D6 0E            [ 7] 3326 	sub	a, #0x0e
    00000F95 3E 01            [ 7] 3327 	ld	a, #0x01
    00000F97 28 01            [12] 3328 	jr	Z, 00397$
    00000F99 AF               [ 4] 3329 	xor	a, a
    00000F9A                       3330 00397$:
    00000F9A 4F               [ 4] 3331 	ld	c, a
    00000F9B B7               [ 4] 3332 	or	a, a
    00000F9C 20 24            [12] 3333 	jr	NZ, 00143$
    00000F9E D5               [11] 3334 	push	de
    00000F9F DD 5E FF         [19] 3335 	ld	e, -1 (ix)
    00000FA2 16 00            [ 7] 3336 	ld	d, #0x00
    00000FA4 6B               [ 4] 3337 	ld	l, e
    00000FA5 62               [ 4] 3338 	ld	h, d
    00000FA6 29               [11] 3339 	add	hl, hl
    00000FA7 29               [11] 3340 	add	hl, hl
    00000FA8 19               [11] 3341 	add	hl, de
    00000FA9 29               [11] 3342 	add	hl, hl
    00000FAA 29               [11] 3343 	add	hl, hl
    00000FAB 19               [11] 3344 	add	hl, de
    00000FAC D1               [10] 3345 	pop	de
    00000FAD FD 21r06r00      [14] 3346 	ld	iy, #_g_Players
    00000FB1 C5               [11] 3347 	push	bc
    00000FB2 4D               [ 4] 3348 	ld	c, l
    00000FB3 44               [ 4] 3349 	ld	b, h
    00000FB4 FD 09            [15] 3350 	add	iy, bc
    00000FB6 C1               [10] 3351 	pop	bc
    00000FB7 FD 7E 09         [19] 3352 	ld	a, 9 (iy)
    00000FBA FE 01            [ 7] 3353 	cp	a, #0x01
    00000FBC 28 04            [12] 3354 	jr	Z, 00143$
    00000FBE D6 02            [ 7] 3355 	sub	a, #0x02
    00000FC0 20 45            [12] 3356 	jr	NZ, 00157$
    00000FC2                       3357 00143$:
                                   3358 ;./exsoccer.c:657: if (i==REFEREE) {
    00000FC2 79               [ 4] 3359 	ld	a, c
    00000FC3 B7               [ 4] 3360 	or	a, a
    00000FC4 28 39            [12] 3361 	jr	Z, 00142$
                                   3362 ;./exsoccer.c:658: g_Players[i].Direction=DIRECTION_RIGHT;
    00000FC6 DD 4E FF         [19] 3363 	ld	c, -1 (ix)
    00000FC9 06 00            [ 7] 3364 	ld	b, #0x00
    00000FCB 69               [ 4] 3365 	ld	l, c
    00000FCC 60               [ 4] 3366 	ld	h, b
    00000FCD 29               [11] 3367 	add	hl, hl
    00000FCE 29               [11] 3368 	add	hl, hl
    00000FCF 09               [11] 3369 	add	hl, bc
    00000FD0 29               [11] 3370 	add	hl, hl
    00000FD1 29               [11] 3371 	add	hl, hl
    00000FD2 09               [11] 3372 	add	hl, bc
    00000FD3 DD 75 FB         [19] 3373 	ld	-5 (ix), l
    00000FD6 DD 74 FC         [19] 3374 	ld	-4 (ix), h
    00000FD9 7B               [ 4] 3375 	ld	a, e
    00000FDA DD 86 FB         [19] 3376 	add	a, -5 (ix)
    00000FDD DD 77 FD         [19] 3377 	ld	-3 (ix), a
    00000FE0 7A               [ 4] 3378 	ld	a, d
    00000FE1 DD 8E FC         [19] 3379 	adc	a, -4 (ix)
    00000FE4 DD 77 FE         [19] 3380 	ld	-2 (ix), a
    00000FE7 DD 6E FD         [19] 3381 	ld	l, -3 (ix)
    00000FEA DD 66 FE         [19] 3382 	ld	h, -2 (ix)
    00000FED 01 0A 00         [10] 3383 	ld	bc, #0x000a
    00000FF0 09               [11] 3384 	add	hl, bc
    00000FF1 36 03            [10] 3385 	ld	(hl), #0x03
                                   3386 ;./exsoccer.c:659: g_Players[i].LastPose=0;
    00000FF3 DD 6E FD         [19] 3387 	ld	l, -3 (ix)
    00000FF6 DD 66 FE         [19] 3388 	ld	h, -2 (ix)
    00000FF9 01 0C 00         [10] 3389 	ld	bc, #0x000c
    00000FFC 09               [11] 3390 	add	hl, bc
    00000FFD 36 00            [10] 3391 	ld	(hl), #0x00
    00000FFF                       3392 00142$:
                                   3393 ;./exsoccer.c:661: SetPlayerTarget(i); 
    00000FFF D5               [11] 3394 	push	de
    00001000 DD 7E FF         [19] 3395 	ld	a, -1 (ix)
    00001003 CDr7Cr14         [17] 3396 	call	_SetPlayerTarget
    00001006 D1               [10] 3397 	pop	de
    00001007                       3398 00157$:
                                   3399 ;./exsoccer.c:654: for(u8 i=0; i<15; i++){
    00001007 DD 34 FF         [23] 3400 	inc	-1 (ix)
    0000100A C3r88r0F         [10] 3401 	jp	00156$
    0000100D                       3402 00147$:
                                   3403 ;./exsoccer.c:666: ShowFieldZone(FIELD_CENTRAL_ZONE);
    0000100D 3E 01            [ 7] 3404 	ld	a, #0x01
    0000100F CDr00r00         [17] 3405 	call	_ShowFieldZone
    00001012                       3406 00158$:
                                   3407 ;./exsoccer.c:668: }
    00001012 DD F9            [10] 3408 	ld	sp, ix
    00001014 DD E1            [14] 3409 	pop	ix
    00001016 C9               [10] 3410 	ret
    00001017                       3411 _TickGoalCelebration_k_CelebDX_131073_1441:
    00001017 00                    3412 	.db #0x00	;  0
    00001018 00                    3413 	.db #0x00	;  0
    00001019 01                    3414 	.db #0x01	;  1
    0000101A 01                    3415 	.db #0x01	;  1
    0000101B 01                    3416 	.db #0x01	;  1
    0000101C 00                    3417 	.db #0x00	;  0
    0000101D FF                    3418 	.db #0xff	; -1
    0000101E FF                    3419 	.db #0xff	; -1
    0000101F FF                    3420 	.db #0xff	; -1
    00001020                       3421 _TickGoalCelebration_k_CelebDY_131073_1441:
    00001020 00                    3422 	.db #0x00	;  0
    00001021 FF                    3423 	.db #0xff	; -1
    00001022 FF                    3424 	.db #0xff	; -1
    00001023 00                    3425 	.db #0x00	;  0
    00001024 01                    3426 	.db #0x01	;  1
    00001025 01                    3427 	.db #0x01	;  1
    00001026 01                    3428 	.db #0x01	;  1
    00001027 00                    3429 	.db #0x00	;  0
    00001028 FF                    3430 	.db #0xff	; -1
                                   3431 ;./exsoccer.c:671: void main()
                                   3432 ;	---------------------------------
                                   3433 ; Function main
                                   3434 ; ---------------------------------
    00001029                       3435 _main::
    00001029 DD E5            [15] 3436 	push	ix
    0000102B DD 21 00 00      [14] 3437 	ld	ix,#0
    0000102F DD 39            [15] 3438 	add	ix,sp
    00001031 3B               [ 6] 3439 	dec	sp
                                   3440 ;./exsoccer.c:673: DEBUG_INIT();
    00001032 CDr00r00         [17] 3441 	call	_DEBUG_INIT
                                   3442 ;E:/Dropbox/FAUSTO/SVILUPPI/MSX/CODE/C/MSXgl/engine/src/rom_mapper.h:112: g_Bank0Segment[b] = s;
    00001035 21 01 00         [10] 3443 	ld	hl, #0x0001
    00001038 22r04r00         [16] 3444 	ld	((_g_Bank0Segment + 4)), hl
                                   3445 ;E:/Dropbox/FAUSTO/SVILUPPI/MSX/CODE/C/MSXgl/engine/src/system.h:109: inline void Poke16(u16 addr, u16 val) { *(u16*)addr = val; }
    0000103B 22 00 70         [16] 3446 	ld	(0x7000), hl
                                   3447 ;./exsoccer.c:675: InitVariables();
    0000103E CDr03r00         [17] 3448 	call	_InitVariables
                                   3449 ;./exsoccer.c:676: V9_SetPort(V9_P15, 0);
    00001041 2E 00            [ 7] 3450 	ld	l, #0x00
                                   3451 ;	spillPairReg hl
                                   3452 ;	spillPairReg hl
    00001043 3E 6F            [ 7] 3453 	ld	a, #0x6f
    00001045 CDr00r00         [17] 3454 	call	_V9_SetPort
                                   3455 ;./exsoccer.c:678: VDP_SetMode(VDP_MODE_SCREEN0);
    00001048 AF               [ 4] 3456 	xor	a, a
    00001049 CDr00r00         [17] 3457 	call	_VDP_SetMode
                                   3458 ;E:/Dropbox/FAUSTO/SVILUPPI/MSX/CODE/C/MSXgl/engine/src/vdp.h:712: inline void VDP_EnableVBlank(bool enable) { VDP_RegWriteBakMask(1, (u8)~R01_IE0, enable ? R01_IE0 : 0); }
    0000104C AF               [ 4] 3459 	xor	a, a
    0000104D F5               [11] 3460 	push	af
    0000104E 33               [ 6] 3461 	inc	sp
    0000104F 2E DF            [ 7] 3462 	ld	l, #0xdf
                                   3463 ;	spillPairReg hl
                                   3464 ;	spillPairReg hl
    00001051 3E 01            [ 7] 3465 	ld	a, #0x01
    00001053 CDr00r00         [17] 3466 	call	_VDP_RegWriteBakMask
                                   3467 ;./exsoccer.c:680: VDP_ClearVRAM();
    00001056 CDr00r00         [17] 3468 	call	_VDP_ClearVRAM
                                   3469 ;E:/Dropbox/FAUSTO/SVILUPPI/MSX/CODE/C/MSXgl/engine/src/rom_mapper.h:112: g_Bank0Segment[b] = s;
    00001059 21 0A 00         [10] 3470 	ld	hl, #0x000a
    0000105C 22r04r00         [16] 3471 	ld	((_g_Bank0Segment + 4)), hl
                                   3472 ;E:/Dropbox/FAUSTO/SVILUPPI/MSX/CODE/C/MSXgl/engine/src/system.h:109: inline void Poke16(u16 addr, u16 val) { *(u16*)addr = val; }
    0000105F 22 00 70         [16] 3473 	ld	(0x7000), hl
                                   3474 ;./exsoccer.c:687: Print_SetTextFont(g_Font_MGL_Sample6, 1);
    00001062 3E 01            [ 7] 3475 	ld	a, #0x01
    00001064 F5               [11] 3476 	push	af
    00001065 33               [ 6] 3477 	inc	sp
    00001066 21r00r00         [10] 3478 	ld	hl, #_g_Font_MGL_Sample6
    00001069 CDr00r00         [17] 3479 	call	_Print_SetTextFont
                                   3480 ;E:/Dropbox/FAUSTO/SVILUPPI/MSX/CODE/C/MSXgl/engine/src/rom_mapper.h:112: g_Bank0Segment[b] = s;
    0000106C 21 01 00         [10] 3481 	ld	hl, #0x0001
    0000106F 22r04r00         [16] 3482 	ld	((_g_Bank0Segment + 4)), hl
                                   3483 ;E:/Dropbox/FAUSTO/SVILUPPI/MSX/CODE/C/MSXgl/engine/src/system.h:109: inline void Poke16(u16 addr, u16 val) { *(u16*)addr = val; }
    00001072 22 00 70         [16] 3484 	ld	(0x7000), hl
                                   3485 ;./exsoccer.c:689: Print_SetColor(15, 1);
    00001075 2E 01            [ 7] 3486 	ld	l, #0x01
                                   3487 ;	spillPairReg hl
                                   3488 ;	spillPairReg hl
    00001077 3E 0F            [ 7] 3489 	ld	a, #0x0f
    00001079 CDr00r00         [17] 3490 	call	_Print_SetColor
                                   3491 ;E:/Dropbox/FAUSTO/SVILUPPI/MSX/CODE/C/MSXgl/engine/src/print.h:223: g_PrintData.CursorX = x;
    0000107C 01r05r00         [10] 3492 	ld	bc, #_g_PrintData + 5
    0000107F AF               [ 4] 3493 	xor	a, a
    00001080 02               [ 7] 3494 	ld	(bc), a
                                   3495 ;E:/Dropbox/FAUSTO/SVILUPPI/MSX/CODE/C/MSXgl/engine/src/print.h:224: g_PrintData.CursorY = y;
    00001081 21r06r00         [10] 3496 	ld	hl, #(_g_PrintData + 6)
    00001084 36 00            [10] 3497 	ld	(hl), #0x00
                                   3498 ;./exsoccer.c:691: Print_DrawText("Soccer League - 2026 Fausto Pracek");
    00001086 C5               [11] 3499 	push	bc
    00001087 21rFAr10         [10] 3500 	ld	hl, #___str_5
    0000108A CDr00r00         [17] 3501 	call	_Print_DrawText
    0000108D C1               [10] 3502 	pop	bc
                                   3503 ;E:/Dropbox/FAUSTO/SVILUPPI/MSX/CODE/C/MSXgl/engine/src/print.h:223: g_PrintData.CursorX = x;
    0000108E AF               [ 4] 3504 	xor	a, a
    0000108F 02               [ 7] 3505 	ld	(bc), a
                                   3506 ;E:/Dropbox/FAUSTO/SVILUPPI/MSX/CODE/C/MSXgl/engine/src/print.h:224: g_PrintData.CursorY = y;
    00001090 21r06r00         [10] 3507 	ld	hl, #(_g_PrintData + 6)
    00001093 36 01            [10] 3508 	ld	(hl), #0x01
                                   3509 ;./exsoccer.c:693: Print_DrawText("fpracek@gmail.com");
    00001095 C5               [11] 3510 	push	bc
    00001096 21r1Dr11         [10] 3511 	ld	hl, #___str_6
    00001099 CDr00r00         [17] 3512 	call	_Print_DrawText
    0000109C C1               [10] 3513 	pop	bc
                                   3514 ;./exsoccer.c:695: const c8* str = "V9990 not found!";
    0000109D 11rE9r10         [10] 3515 	ld	de, #___str_4
                                   3516 ;./exsoccer.c:696: bool v9990IsFound=V9_Detect();
    000010A0 C5               [11] 3517 	push	bc
    000010A1 D5               [11] 3518 	push	de
    000010A2 CDr00r00         [17] 3519 	call	_V9_Detect
    000010A5 D1               [10] 3520 	pop	de
    000010A6 C1               [10] 3521 	pop	bc
    000010A7 DD 77 FF         [19] 3522 	ld	-1 (ix), a
                                   3523 ;./exsoccer.c:698: if (v9990IsFound){
    000010AA B7               [ 4] 3524 	or	a, a
    000010AB 28 14            [12] 3525 	jr	Z, 00102$
                                   3526 ;./exsoccer.c:699: str = "V9990 found!";
    000010AD 11r2Fr11         [10] 3527 	ld	de, #___str_7
                                   3528 ;E:/Dropbox/FAUSTO/SVILUPPI/MSX/CODE/C/MSXgl/engine/src/print.h:223: g_PrintData.CursorX = x;
    000010B0 AF               [ 4] 3529 	xor	a, a
    000010B1 02               [ 7] 3530 	ld	(bc), a
                                   3531 ;E:/Dropbox/FAUSTO/SVILUPPI/MSX/CODE/C/MSXgl/engine/src/print.h:224: g_PrintData.CursorY = y;
    000010B2 21r06r00         [10] 3532 	ld	hl, #(_g_PrintData + 6)
    000010B5 36 07            [10] 3533 	ld	(hl), #0x07
                                   3534 ;./exsoccer.c:701: Print_DrawText("The game is running on V9990 monitor.");
    000010B7 C5               [11] 3535 	push	bc
    000010B8 D5               [11] 3536 	push	de
    000010B9 21r3Cr11         [10] 3537 	ld	hl, #___str_8
    000010BC CDr00r00         [17] 3538 	call	_Print_DrawText
    000010BF D1               [10] 3539 	pop	de
    000010C0 C1               [10] 3540 	pop	bc
    000010C1                       3541 00102$:
                                   3542 ;E:/Dropbox/FAUSTO/SVILUPPI/MSX/CODE/C/MSXgl/engine/src/print.h:223: g_PrintData.CursorX = x;
    000010C1 AF               [ 4] 3543 	xor	a, a
    000010C2 02               [ 7] 3544 	ld	(bc), a
                                   3545 ;E:/Dropbox/FAUSTO/SVILUPPI/MSX/CODE/C/MSXgl/engine/src/print.h:224: g_PrintData.CursorY = y;
    000010C3 21r06r00         [10] 3546 	ld	hl, #(_g_PrintData + 6)
    000010C6 36 03            [10] 3547 	ld	(hl), #0x03
                                   3548 ;./exsoccer.c:704: Print_DrawText(str);
    000010C8 EB               [ 4] 3549 	ex	de, hl
    000010C9 CDr00r00         [17] 3550 	call	_Print_DrawText
                                   3551 ;./exsoccer.c:705: if(!v9990IsFound){
    000010CC DD 7E FF         [19] 3552 	ld	a, -1 (ix)
    000010CF B7               [ 4] 3553 	or	a, a
    000010D0 20 03            [12] 3554 	jr	NZ, 00105$
    000010D2                       3555 00148$:
    000010D2 C3rD2r10         [10] 3556 	jp	00148$
    000010D5                       3557 00105$:
                                   3558 ;./exsoccer.c:709: InitializeV9990();
    000010D5 CDr9Ar0B         [17] 3559 	call	_InitializeV9990
                                   3560 ;./exsoccer.c:712: V9_SetPort(V9_P15, 0x10);
    000010D8 2E 10            [ 7] 3561 	ld	l, #0x10
                                   3562 ;	spillPairReg hl
                                   3563 ;	spillPairReg hl
    000010DA 3E 6F            [ 7] 3564 	ld	a, #0x6f
    000010DC CDr00r00         [17] 3565 	call	_V9_SetPort
                                   3566 ;./exsoccer.c:714: GameStart();
    000010DF CDr50r02         [17] 3567 	call	_GameStart
                                   3568 ;./exsoccer.c:715: MainGameLoop();
    000010E2 CDr62r11         [17] 3569 	call	_MainGameLoop
                                   3570 ;./exsoccer.c:719: }
    000010E5 33               [ 6] 3571 	inc	sp
    000010E6 DD E1            [14] 3572 	pop	ix
    000010E8 C9               [10] 3573 	ret
    000010E9                       3574 ___str_4:
    000010E9 56 39 39 39 30 20 6E  3575 	.ascii "V9990 not found!"
             6F 74 20 66 6F 75 6E
             64 21
    000010F9 00                    3576 	.db 0x00
    000010FA                       3577 ___str_5:
    000010FA 53 6F 63 63 65 72 20  3578 	.ascii "Soccer League - 2026 Fausto Pracek"
             4C 65 61 67 75 65 20
             2D 20 32 30 32 36 20
             46 61 75 73 74 6F 20
             50 72 61 63 65 6B
    0000111C 00                    3579 	.db 0x00
    0000111D                       3580 ___str_6:
    0000111D 66 70 72 61 63 65 6B  3581 	.ascii "fpracek@gmail.com"
             40 67 6D 61 69 6C 2E
             63 6F 6D
    0000112E 00                    3582 	.db 0x00
    0000112F                       3583 ___str_7:
    0000112F 56 39 39 39 30 20 66  3584 	.ascii "V9990 found!"
             6F 75 6E 64 21
    0000113B 00                    3585 	.db 0x00
    0000113C                       3586 ___str_8:
    0000113C 54 68 65 20 67 61 6D  3587 	.ascii "The game is running on V9990 monitor."
             65 20 69 73 20 72 75
             6E 6E 69 6E 67 20 6F
             6E 20 56 39 39 39 30
             20 6D 6F 6E 69 74 6F
             72 2E
    00001161 00                    3588 	.db 0x00
                                   3589 ;./exsoccer.c:720: void MainGameLoop(){
                                   3590 ;	---------------------------------
                                   3591 ; Function MainGameLoop
                                   3592 ; ---------------------------------
    00001162                       3593 _MainGameLoop::
    00001162 DD E5            [15] 3594 	push	ix
    00001164 DD 21 00 00      [14] 3595 	ld	ix,#0
    00001168 DD 39            [15] 3596 	add	ix,sp
    0000116A F5               [11] 3597 	push	af
                                   3598 ;./exsoccer.c:721: u8 TickAiPlayerId=0;
    0000116B DD 36 FE 00      [19] 3599 	ld	-2 (ix), #0x00
                                   3600 ;./exsoccer.c:722: u8 AiTickSpeed=0;
    0000116F DD 36 FF 00      [19] 3601 	ld	-1 (ix), #0x00
    00001173                       3602 00140$:
                                   3603 ;./exsoccer.c:724: UpdateV9990();
    00001173 CDr00r00         [17] 3604 	call	_UpdateV9990
                                   3605 ;./exsoccer.c:726: if(g_MatchStatus==MATCH_NOT_STARTED && g_FieldScrollingActionInProgress==NO_VALUE && g_ActiveFieldZone==FIELD_CENTRAL_ZONE){
    00001176 3Ar04r00         [13] 3606 	ld	a, (_g_MatchStatus+0)
    00001179 B7               [ 4] 3607 	or	a, a
    0000117A 20 25            [12] 3608 	jr	NZ, 00103$
    0000117C 3Ar02r00         [13] 3609 	ld	a, (_g_FieldScrollingActionInProgress+0)
    0000117F 3C               [ 4] 3610 	inc	a
    00001180 20 1F            [12] 3611 	jr	NZ, 00103$
    00001182 3Ar7Dr01         [13] 3612 	ld	a, (_g_ActiveFieldZone+0)
    00001185 3D               [ 4] 3613 	dec	a
    00001186 20 19            [12] 3614 	jr	NZ, 00103$
                                   3615 ;./exsoccer.c:727: g_MatchStatus=MATCH_BEFORE_KICK_OFF;
    00001188 21r04r00         [10] 3616 	ld	hl, #_g_MatchStatus
    0000118B 36 01            [10] 3617 	ld	(hl), #0x01
                                   3618 ;./exsoccer.c:728: for(u8 i=0;i<15;i++){
    0000118D 0E 00            [ 7] 3619 	ld	c, #0x00
    0000118F                       3620 00138$:
    0000118F 79               [ 4] 3621 	ld	a, c
    00001190 D6 0F            [ 7] 3622 	sub	a, #0x0f
    00001192 30 0A            [12] 3623 	jr	NC, 00101$
                                   3624 ;./exsoccer.c:729: SetPlayerTarget(i);
    00001194 C5               [11] 3625 	push	bc
    00001195 79               [ 4] 3626 	ld	a, c
    00001196 CDr7Cr14         [17] 3627 	call	_SetPlayerTarget
    00001199 C1               [10] 3628 	pop	bc
                                   3629 ;./exsoccer.c:728: for(u8 i=0;i<15;i++){
    0000119A 0C               [ 4] 3630 	inc	c
    0000119B C3r8Fr11         [10] 3631 	jp	00138$
    0000119E                       3632 00101$:
                                   3633 ;./exsoccer.c:731: TickPlayerToOwnTarget();
    0000119E CDr00r00         [17] 3634 	call	_TickPlayerToOwnTarget
    000011A1                       3635 00103$:
                                   3636 ;./exsoccer.c:734: TickCornerKick(); // <<< Added Hook
    000011A1 CDr94r1B         [17] 3637 	call	_TickCornerKick
                                   3638 ;./exsoccer.c:735: TickGoalKick();
    000011A4 CDr67r16         [17] 3639 	call	_TickGoalKick
                                   3640 ;./exsoccer.c:736: TickThrowIn();
    000011A7 CDr00r00         [17] 3641 	call	_TickThrowIn
                                   3642 ;./exsoccer.c:737: TickPonPonGirlsAnimation();
    000011AA CDr00r00         [17] 3643 	call	_TickPonPonGirlsAnimation
                                   3644 ;./exsoccer.c:738: TickGoalCelebration();
    000011AD CDr4Dr0C         [17] 3645 	call	_TickGoalCelebration
                                   3646 ;./exsoccer.c:739: TickPlayerToOwnTarget();
    000011B0 CDr00r00         [17] 3647 	call	_TickPlayerToOwnTarget
                                   3648 ;./exsoccer.c:740: TickActiveFieldZone();
    000011B3 CDr14r04         [17] 3649 	call	_TickActiveFieldZone
                                   3650 ;./exsoccer.c:741: if(g_FieldScrollingActionInProgress==NO_VALUE){
    000011B6 3Ar02r00         [13] 3651 	ld	a, (_g_FieldScrollingActionInProgress+0)
    000011B9 3C               [ 4] 3652 	inc	a
    000011BA 20 46            [12] 3653 	jr	NZ, 00119$
                                   3654 ;./exsoccer.c:743: if(g_MatchStatus == MATCH_IN_ACTION || g_MatchStatus == MATCH_BALL_ON_GOALKEEPER) {
    000011BC 3Ar04r00         [13] 3655 	ld	a,(_g_MatchStatus+0)
    000011BF FE 0C            [ 7] 3656 	cp	a,#0x0c
    000011C1 28 04            [12] 3657 	jr	Z, 00115$
    000011C3 D6 0D            [ 7] 3658 	sub	a, #0x0d
    000011C5 20 3B            [12] 3659 	jr	NZ, 00119$
    000011C7                       3660 00115$:
                                   3661 ;./exsoccer.c:745: if(AiTickSpeed >= 2){ // Speed up AI cycle (was 5)
    000011C7 DD 7E FF         [19] 3662 	ld	a, -1 (ix)
    000011CA D6 02            [ 7] 3663 	sub	a, #0x02
    000011CC 38 34            [12] 3664 	jr	C, 00119$
                                   3665 ;./exsoccer.c:746: AiTickSpeed=0;
    000011CE DD 36 FF 00      [19] 3666 	ld	-1 (ix), #0x00
                                   3667 ;./exsoccer.c:747: TickAI(REFEREE);
    000011D2 3E 0E            [ 7] 3668 	ld	a, #0x0e
    000011D4 CDr00r00         [17] 3669 	call	_TickAI
                                   3670 ;./exsoccer.c:748: TickAI(TickAiPlayerId);
    000011D7 DD 7E FE         [19] 3671 	ld	a, -2 (ix)
    000011DA CDr00r00         [17] 3672 	call	_TickAI
                                   3673 ;./exsoccer.c:749: TickAiPlayerId++;
    000011DD DD 34 FE         [23] 3674 	inc	-2 (ix)
                                   3675 ;./exsoccer.c:750: if(TickAiPlayerId==14){ // Only iterate 0-13 (Players)
    000011E0 DD 7E FE         [19] 3676 	ld	a, -2 (ix)
    000011E3 D6 0E            [ 7] 3677 	sub	a, #0x0e
    000011E5 20 04            [12] 3678 	jr	NZ, 00107$
                                   3679 ;./exsoccer.c:751: TickAiPlayerId=0;
    000011E7 DD 36 FE 00      [19] 3680 	ld	-2 (ix), #0x00
    000011EB                       3681 00107$:
                                   3682 ;./exsoccer.c:755: if (g_Ball.PossessionPlayerId != NO_VALUE && g_Ball.PossessionPlayerId < 14) {
    000011EB 21r65r01         [10] 3683 	ld	hl, #_g_Ball+6
    000011EE 4E               [ 7] 3684 	ld	c, (hl)
    000011EF 79               [ 4] 3685 	ld	a, c
    000011F0 3C               [ 4] 3686 	inc	a
    000011F1 28 0F            [12] 3687 	jr	Z, 00119$
    000011F3 79               [ 4] 3688 	ld	a, c
    000011F4 D6 0E            [ 7] 3689 	sub	a, #0x0e
    000011F6 30 0A            [12] 3690 	jr	NC, 00119$
                                   3691 ;./exsoccer.c:757: if (g_Ball.PossessionPlayerId != TickAiPlayerId) {
    000011F8 DD 7E FE         [19] 3692 	ld	a, -2 (ix)
    000011FB 91               [ 4] 3693 	sub	a, c
    000011FC 28 04            [12] 3694 	jr	Z, 00119$
                                   3695 ;./exsoccer.c:758: TickAI(g_Ball.PossessionPlayerId);
    000011FE 79               [ 4] 3696 	ld	a, c
    000011FF CDr00r00         [17] 3697 	call	_TickAI
    00001202                       3698 00119$:
                                   3699 ;./exsoccer.c:766: EnforcePenaltyBoxRestriction();
    00001202 CDr00r00         [17] 3700 	call	_EnforcePenaltyBoxRestriction
                                   3701 ;./exsoccer.c:768: UpdateSpritesPositions();
    00001205 CDr00r00         [17] 3702 	call	_UpdateSpritesPositions
                                   3703 ;./exsoccer.c:769: TickShotCursor();
    00001208 CDr00r00         [17] 3704 	call	_TickShotCursor
                                   3705 ;./exsoccer.c:770: TickUpdateTime();
    0000120B CDr74r04         [17] 3706 	call	_TickUpdateTime
                                   3707 ;./exsoccer.c:771: TickShowKickOff();
    0000120E CDr00r00         [17] 3708 	call	_TickShowKickOff
                                   3709 ;./exsoccer.c:772: if(g_FieldScrollingActionInProgress==NO_VALUE){
    00001211 3Ar02r00         [13] 3710 	ld	a, (_g_FieldScrollingActionInProgress+0)
    00001214 3C               [ 4] 3711 	inc	a
    00001215 20 0C            [12] 3712 	jr	NZ, 00121$
                                   3713 ;./exsoccer.c:773: TickBallCollision();
    00001217 CDr00r00         [17] 3714 	call	_TickBallCollision
                                   3715 ;./exsoccer.c:774: TickBallFlying();
    0000121A CDr00r00         [17] 3716 	call	_TickBallFlying
                                   3717 ;./exsoccer.c:775: UpdatePassTarget();
    0000121D CDr00r00         [17] 3718 	call	_UpdatePassTarget
                                   3719 ;./exsoccer.c:776: TickGoalkeeperAnimation();
    00001220 CDr00r00         [17] 3720 	call	_TickGoalkeeperAnimation
    00001223                       3721 00121$:
                                   3722 ;./exsoccer.c:779: TickCheckBallBoundaries();
    00001223 CDr00r00         [17] 3723 	call	_TickCheckBallBoundaries
                                   3724 ;./exsoccer.c:780: TickTeamJoystick(TEAM_1,GetJoystick1Direction());
    00001226 CDr00r00         [17] 3725 	call	_GetJoystick1Direction
    00001229 6F               [ 4] 3726 	ld	l, a
                                   3727 ;	spillPairReg hl
                                   3728 ;	spillPairReg hl
    0000122A 3E 01            [ 7] 3729 	ld	a, #0x01
    0000122C CDr00r00         [17] 3730 	call	_TickTeamJoystick
                                   3731 ;./exsoccer.c:781: if(g_GameWith2Players){
    0000122F 3Ar0Ar00         [13] 3732 	ld	a, (_g_GameWith2Players+0)
    00001232 B7               [ 4] 3733 	or	a, a
    00001233 28 09            [12] 3734 	jr	Z, 00123$
                                   3735 ;./exsoccer.c:782: TickTeamJoystick(TEAM_2,GetJoystick2Direction());
    00001235 CDr00r00         [17] 3736 	call	_GetJoystick2Direction
    00001238 6F               [ 4] 3737 	ld	l, a
                                   3738 ;	spillPairReg hl
                                   3739 ;	spillPairReg hl
    00001239 3E 02            [ 7] 3740 	ld	a, #0x02
    0000123B CDr00r00         [17] 3741 	call	_TickTeamJoystick
    0000123E                       3742 00123$:
                                   3743 ;./exsoccer.c:785: AiTickSpeed++;
    0000123E DD 34 FF         [23] 3744 	inc	-1 (ix)
                                   3745 ;./exsoccer.c:787: if (g_ActionCooldown > 0) {
    00001241 3Ar0Cr00         [13] 3746 	ld	a, (_g_ActionCooldown+0)
    00001244 B7               [ 4] 3747 	or	a, a
    00001245 28 07            [12] 3748 	jr	Z, 00132$
                                   3749 ;./exsoccer.c:788: g_ActionCooldown--;
    00001247 21r0Cr00         [10] 3750 	ld	hl, #_g_ActionCooldown
    0000124A 35               [11] 3751 	dec	(hl)
    0000124B C3rA6r12         [10] 3752 	jp	00133$
    0000124E                       3753 00132$:
                                   3754 ;./exsoccer.c:791: if (g_Team1ActivePlayer != NO_VALUE && g_Players[g_Team1ActivePlayer].Status == PLAYER_STATUS_POSITIONED) 
    0000124E 3Ar07r00         [13] 3755 	ld	a, (_g_Team1ActivePlayer+0)
    00001251 3C               [ 4] 3756 	inc	a
    00001252 28 23            [12] 3757 	jr	Z, 00125$
    00001254 01r06r00         [10] 3758 	ld	bc, #_g_Players+0
    00001257 ED 5Br07r00      [20] 3759 	ld	de, (_g_Team1ActivePlayer)
    0000125B 16 00            [ 7] 3760 	ld	d, #0x00
    0000125D 6B               [ 4] 3761 	ld	l, e
    0000125E 62               [ 4] 3762 	ld	h, d
    0000125F 29               [11] 3763 	add	hl, hl
    00001260 29               [11] 3764 	add	hl, hl
    00001261 19               [11] 3765 	add	hl, de
    00001262 29               [11] 3766 	add	hl, hl
    00001263 29               [11] 3767 	add	hl, hl
    00001264 19               [11] 3768 	add	hl, de
    00001265 09               [11] 3769 	add	hl, bc
    00001266 01 12 00         [10] 3770 	ld	bc, #0x0012
    00001269 09               [11] 3771 	add	hl, bc
    0000126A 4E               [ 7] 3772 	ld	c, (hl)
    0000126B 23               [ 6] 3773 	inc	hl
    0000126C 46               [ 7] 3774 	ld	b, (hl)
    0000126D 2B               [ 6] 3775 	dec	hl
    0000126E 79               [ 4] 3776 	ld	a, c
    0000126F D6 04            [ 7] 3777 	sub	a, #0x04
                                   3778 ;./exsoccer.c:792: g_Players[g_Team1ActivePlayer].Status = PLAYER_STATUS_NONE;
    00001271 B0               [ 4] 3779 	or	a,b
    00001272 20 03            [12] 3780 	jr	NZ, 00125$
    00001274 77               [ 7] 3781 	ld	(hl), a
    00001275 23               [ 6] 3782 	inc	hl
    00001276 77               [ 7] 3783 	ld	(hl), a
    00001277                       3784 00125$:
                                   3785 ;./exsoccer.c:793: if (g_GameWith2Players && g_Team2ActivePlayer != NO_VALUE && g_Players[g_Team2ActivePlayer].Status == PLAYER_STATUS_POSITIONED)
    00001277 3Ar0Ar00         [13] 3786 	ld	a, (_g_GameWith2Players+0)
    0000127A B7               [ 4] 3787 	or	a, a
    0000127B 28 29            [12] 3788 	jr	Z, 00133$
    0000127D 3Ar08r00         [13] 3789 	ld	a, (_g_Team2ActivePlayer+0)
    00001280 3C               [ 4] 3790 	inc	a
    00001281 28 23            [12] 3791 	jr	Z, 00133$
    00001283 ED 4Br08r00      [20] 3792 	ld	bc, (_g_Team2ActivePlayer)
    00001287 06 00            [ 7] 3793 	ld	b, #0x00
    00001289 69               [ 4] 3794 	ld	l, c
    0000128A 60               [ 4] 3795 	ld	h, b
    0000128B 29               [11] 3796 	add	hl, hl
    0000128C 29               [11] 3797 	add	hl, hl
    0000128D 09               [11] 3798 	add	hl, bc
    0000128E 29               [11] 3799 	add	hl, hl
    0000128F 29               [11] 3800 	add	hl, hl
    00001290 09               [11] 3801 	add	hl, bc
    00001291 11r06r00         [10] 3802 	ld	de, #_g_Players
    00001294 19               [11] 3803 	add	hl, de
    00001295 01 12 00         [10] 3804 	ld	bc, #0x0012
    00001298 09               [11] 3805 	add	hl, bc
    00001299 4E               [ 7] 3806 	ld	c, (hl)
    0000129A 23               [ 6] 3807 	inc	hl
    0000129B 46               [ 7] 3808 	ld	b, (hl)
    0000129C 2B               [ 6] 3809 	dec	hl
    0000129D 79               [ 4] 3810 	ld	a, c
    0000129E D6 04            [ 7] 3811 	sub	a, #0x04
                                   3812 ;./exsoccer.c:794: g_Players[g_Team2ActivePlayer].Status = PLAYER_STATUS_NONE;
    000012A0 B0               [ 4] 3813 	or	a,b
    000012A1 20 03            [12] 3814 	jr	NZ, 00133$
    000012A3 77               [ 7] 3815 	ld	(hl), a
    000012A4 23               [ 6] 3816 	inc	hl
    000012A5 77               [ 7] 3817 	ld	(hl), a
    000012A6                       3818 00133$:
                                   3819 ;./exsoccer.c:797: if (g_ShootCooldown > 0) {
    000012A6 3Ar0Dr00         [13] 3820 	ld	a, (_g_ShootCooldown+0)
    000012A9 B7               [ 4] 3821 	or	a, a
    000012AA CAr73r11         [10] 3822 	jp	Z, 00140$
                                   3823 ;./exsoccer.c:798: g_ShootCooldown--;
    000012AD 21r0Dr00         [10] 3824 	ld	hl, #_g_ShootCooldown
    000012B0 35               [11] 3825 	dec	(hl)
                                   3826 ;./exsoccer.c:801: }
    000012B1 C3r73r11         [10] 3827 	jp	00140$
                                   3828 ;./exsoccer.c:805: void UpdatePlayerPatternByDirection(u8 playerId){
                                   3829 ;	---------------------------------
                                   3830 ; Function UpdatePlayerPatternByDirection
                                   3831 ; ---------------------------------
    000012B4                       3832 _UpdatePlayerPatternByDirection::
    000012B4 DD E5            [15] 3833 	push	ix
    000012B6 DD 21 00 00      [14] 3834 	ld	ix,#0
    000012BA DD 39            [15] 3835 	add	ix,sp
    000012BC 21 FB FF         [10] 3836 	ld	hl, #-5
    000012BF 39               [11] 3837 	add	hl, sp
    000012C0 F9               [ 6] 3838 	ld	sp, hl
    000012C1 DD 77 FF         [19] 3839 	ld	-1 (ix), a
                                   3840 ;./exsoccer.c:806: if(g_Players[playerId].Status==PLAYER_STATUS_POSITIONED){
    000012C4 01r06r00         [10] 3841 	ld	bc, #_g_Players+0
    000012C7 DD 5E FF         [19] 3842 	ld	e, -1 (ix)
    000012CA 16 00            [ 7] 3843 	ld	d, #0x00
    000012CC 6B               [ 4] 3844 	ld	l, e
    000012CD 62               [ 4] 3845 	ld	h, d
    000012CE 29               [11] 3846 	add	hl, hl
    000012CF 29               [11] 3847 	add	hl, hl
    000012D0 19               [11] 3848 	add	hl, de
    000012D1 29               [11] 3849 	add	hl, hl
    000012D2 29               [11] 3850 	add	hl, hl
    000012D3 19               [11] 3851 	add	hl, de
    000012D4 09               [11] 3852 	add	hl, bc
    000012D5 EB               [ 4] 3853 	ex	de, hl
    000012D6 4B               [ 4] 3854 	ld	c, e
    000012D7 42               [ 4] 3855 	ld	b, d
    000012D8 21 12 00         [10] 3856 	ld	hl, #18
    000012DB 09               [11] 3857 	add	hl, bc
    000012DC 4E               [ 7] 3858 	ld	c, (hl)
    000012DD 23               [ 6] 3859 	inc	hl
    000012DE 46               [ 7] 3860 	ld	b, (hl)
    000012DF 79               [ 4] 3861 	ld	a, c
    000012E0 D6 04            [ 7] 3862 	sub	a, #0x04
    000012E2 B0               [ 4] 3863 	or	a, b
    000012E3 CAr76r13         [10] 3864 	jp	Z,00122$
                                   3865 ;./exsoccer.c:807: return;
    000012E6 C3rE9r12         [10] 3866 	jp	00102$
    000012E9                       3867 00102$:
                                   3868 ;./exsoccer.c:811: if(g_Players[playerId].Direction!=g_Players[playerId].PreviousDirection){
    000012E9 21 0A 00         [10] 3869 	ld	hl, #0x000a
    000012EC 19               [11] 3870 	add	hl, de
    000012ED E3               [19] 3871 	ex	(sp), hl
    000012EE E1               [10] 3872 	pop	hl
    000012EF E5               [11] 3873 	push	hl
    000012F0 4E               [ 7] 3874 	ld	c, (hl)
    000012F1 21 0B 00         [10] 3875 	ld	hl, #0x000b
    000012F4 19               [11] 3876 	add	hl, de
    000012F5 DD 75 FD         [19] 3877 	ld	-3 (ix), l
    000012F8 DD 74 FE         [19] 3878 	ld	-2 (ix), h
    000012FB 46               [ 7] 3879 	ld	b, (hl)
                                   3880 ;./exsoccer.c:812: if(g_Players[playerId].Direction==DIRECTION_NONE){
    000012FC 79               [ 4] 3881 	ld	a,c
    000012FD B8               [ 4] 3882 	cp	a,b
    000012FE 28 2B            [12] 3883 	jr	Z, 00112$
    00001300 B7               [ 4] 3884 	or	a, a
    00001301 20 18            [12] 3885 	jr	NZ, 00104$
                                   3886 ;./exsoccer.c:813: g_Players[playerId].PatternId=GetNoMovingPlayerPatternId(g_Players[playerId].PreviousDirection);
    00001303 21 08 00         [10] 3887 	ld	hl, #0x0008
    00001306 19               [11] 3888 	add	hl, de
    00001307 E5               [11] 3889 	push	hl
    00001308 D5               [11] 3890 	push	de
    00001309 78               [ 4] 3891 	ld	a, b
    0000130A CDr7Br13         [17] 3892 	call	_GetNoMovingPlayerPatternId
    0000130D D1               [10] 3893 	pop	de
    0000130E E1               [10] 3894 	pop	hl
    0000130F 77               [ 7] 3895 	ld	(hl), a
                                   3896 ;./exsoccer.c:814: g_Players[playerId].PreviousDirection=g_Players[playerId].Direction;
    00001310 E1               [10] 3897 	pop	hl
    00001311 E5               [11] 3898 	push	hl
    00001312 7E               [ 7] 3899 	ld	a, (hl)
    00001313 C1               [10] 3900 	pop	bc
    00001314 E1               [10] 3901 	pop	hl
    00001315 E5               [11] 3902 	push	hl
    00001316 C5               [11] 3903 	push	bc
    00001317 77               [ 7] 3904 	ld	(hl), a
    00001318 C3r3Dr13         [10] 3905 	jp	00113$
    0000131B                       3906 00104$:
                                   3907 ;./exsoccer.c:817: g_Players[playerId].PreviousDirection=g_Players[playerId].Direction;
    0000131B DD 6E FD         [19] 3908 	ld	l, -3 (ix)
    0000131E DD 66 FE         [19] 3909 	ld	h, -2 (ix)
    00001321 71               [ 7] 3910 	ld	(hl), c
                                   3911 ;./exsoccer.c:818: g_Players[playerId].LastPose=0;
    00001322 21 0C 00         [10] 3912 	ld	hl, #0x000c
    00001325 19               [11] 3913 	add	hl, de
    00001326 36 00            [10] 3914 	ld	(hl), #0x00
    00001328 C3r3Dr13         [10] 3915 	jp	00113$
    0000132B                       3916 00112$:
                                   3917 ;./exsoccer.c:824: if(g_Players[playerId].Direction!=DIRECTION_NONE){
    0000132B 79               [ 4] 3918 	ld	a, c
    0000132C B7               [ 4] 3919 	or	a, a
    0000132D 28 0E            [12] 3920 	jr	Z, 00113$
                                   3921 ;./exsoccer.c:825: if(g_Players[playerId].LastPose==1){
    0000132F 21 0C 00         [10] 3922 	ld	hl, #0x000c
    00001332 19               [11] 3923 	add	hl, de
    00001333 7E               [ 7] 3924 	ld	a, (hl)
                                   3925 ;./exsoccer.c:826: g_Players[playerId].LastPose=0;
    00001334 3D               [ 4] 3926 	dec	a
    00001335 20 04            [12] 3927 	jr	NZ, 00107$
    00001337 77               [ 7] 3928 	ld	(hl),a
    00001338 C3r3Dr13         [10] 3929 	jp	00113$
    0000133B                       3930 00107$:
                                   3931 ;./exsoccer.c:829: g_Players[playerId].LastPose=1;
    0000133B 36 01            [10] 3932 	ld	(hl), #0x01
    0000133D                       3933 00113$:
                                   3934 ;./exsoccer.c:835: if(g_Players[playerId].TeamId==REFEREE && g_MatchStatus==MATCH_BEFORE_KICK_OFF ){
    0000133D 4B               [ 4] 3935 	ld	c, e
    0000133E 42               [ 4] 3936 	ld	b, d
    0000133F 21 09 00         [10] 3937 	ld	hl, #9
    00001342 09               [11] 3938 	add	hl, bc
    00001343 7E               [ 7] 3939 	ld	a, (hl)
                                   3940 ;./exsoccer.c:811: if(g_Players[playerId].Direction!=g_Players[playerId].PreviousDirection){
    00001344 E1               [10] 3941 	pop	hl
    00001345 E5               [11] 3942 	push	hl
    00001346 4E               [ 7] 3943 	ld	c, (hl)
                                   3944 ;./exsoccer.c:835: if(g_Players[playerId].TeamId==REFEREE && g_MatchStatus==MATCH_BEFORE_KICK_OFF ){
    00001347 D6 0E            [ 7] 3945 	sub	a, #0x0e
    00001349 20 1A            [12] 3946 	jr	NZ, 00119$
    0000134B 3Ar04r00         [13] 3947 	ld	a, (_g_MatchStatus+0)
    0000134E 3D               [ 4] 3948 	dec	a
    0000134F 20 14            [12] 3949 	jr	NZ, 00119$
                                   3950 ;./exsoccer.c:838: if(g_Players[playerId].Direction!=DIRECTION_NONE){
    00001351 79               [ 4] 3951 	ld	a, c
    00001352 B7               [ 4] 3952 	or	a, a
    00001353 28 21            [12] 3953 	jr	Z, 00122$
                                   3954 ;./exsoccer.c:839: g_Players[playerId].PatternId=GetPatternIdByPoseAndDirection(playerId);
    00001355 21 08 00         [10] 3955 	ld	hl, #0x0008
    00001358 19               [11] 3956 	add	hl, de
    00001359 E5               [11] 3957 	push	hl
    0000135A DD 7E FF         [19] 3958 	ld	a, -1 (ix)
    0000135D CDr26r14         [17] 3959 	call	_GetPatternIdByPoseAndDirection
    00001360 D1               [10] 3960 	pop	de
    00001361 12               [ 7] 3961 	ld	(de), a
    00001362 C3r76r13         [10] 3962 	jp	00122$
    00001365                       3963 00119$:
                                   3964 ;./exsoccer.c:843: if(g_Players[playerId].Direction!=DIRECTION_NONE){
    00001365 79               [ 4] 3965 	ld	a, c
    00001366 B7               [ 4] 3966 	or	a, a
    00001367 28 0D            [12] 3967 	jr	Z, 00122$
                                   3968 ;./exsoccer.c:844: g_Players[playerId].PatternId=GetPatternIdByPoseAndDirection(playerId);
    00001369 21 08 00         [10] 3969 	ld	hl, #0x0008
    0000136C 19               [11] 3970 	add	hl, de
    0000136D E5               [11] 3971 	push	hl
    0000136E DD 7E FF         [19] 3972 	ld	a, -1 (ix)
    00001371 CDr26r14         [17] 3973 	call	_GetPatternIdByPoseAndDirection
    00001374 E1               [10] 3974 	pop	hl
    00001375 77               [ 7] 3975 	ld	(hl), a
    00001376                       3976 00122$:
                                   3977 ;./exsoccer.c:847: }
    00001376 DD F9            [10] 3978 	ld	sp, ix
    00001378 DD E1            [14] 3979 	pop	ix
    0000137A C9               [10] 3980 	ret
                                   3981 ;./exsoccer.c:850: u8 GetNoMovingPlayerPatternId(u8 direction){
                                   3982 ;	---------------------------------
                                   3983 ; Function GetNoMovingPlayerPatternId
                                   3984 ; ---------------------------------
    0000137B                       3985 _GetNoMovingPlayerPatternId::
    0000137B 5F               [ 4] 3986 	ld	e, a
                                   3987 ;./exsoccer.c:851: u8 patternId=PLAYER_POSE_FRONT_PLAYING; // Default fallback
    0000137C 0E 13            [ 7] 3988 	ld	c, #0x13
                                   3989 ;./exsoccer.c:852: switch (direction){
    0000137E 3E 08            [ 7] 3990 	ld	a, #0x08
    00001380 93               [ 4] 3991 	sub	a, e
    00001381 38 4E            [12] 3992 	jr	C, 00110$
    00001383 16 00            [ 7] 3993 	ld	d, #0x00
    00001385 21r8Cr13         [10] 3994 	ld	hl, #00118$
    00001388 19               [11] 3995 	add	hl, de
    00001389 19               [11] 3996 	add	hl, de
    0000138A 19               [11] 3997 	add	hl, de
    0000138B E9               [ 4] 3998 	jp	(hl)
    0000138C                       3999 00118$:
    0000138C C3rCFr13         [10] 4000 	jp	00109$
    0000138F C3rACr13         [10] 4001 	jp	00102$
    00001392 C3rC0r13         [10] 4002 	jp	00106$
    00001395 C3rB6r13         [10] 4003 	jp	00104$
    00001398 C3rCAr13         [10] 4004 	jp	00108$
    0000139B C3rA7r13         [10] 4005 	jp	00101$
    0000139E C3rC5r13         [10] 4006 	jp	00107$
    000013A1 C3rB1r13         [10] 4007 	jp	00103$
    000013A4 C3rBBr13         [10] 4008 	jp	00105$
                                   4009 ;./exsoccer.c:853: case DIRECTION_DOWN:
    000013A7                       4010 00101$:
                                   4011 ;./exsoccer.c:854: patternId=PLAYER_POSE_FRONT_PLAYING;
    000013A7 0E 13            [ 7] 4012 	ld	c, #0x13
                                   4013 ;./exsoccer.c:855: break;
    000013A9 C3rD1r13         [10] 4014 	jp	00110$
                                   4015 ;./exsoccer.c:856: case DIRECTION_UP:
    000013AC                       4016 00102$:
                                   4017 ;./exsoccer.c:857: patternId=PLAYER_POSE_BACK_PLAYING;
    000013AC 0E 16            [ 7] 4018 	ld	c, #0x16
                                   4019 ;./exsoccer.c:858: break;
    000013AE C3rD1r13         [10] 4020 	jp	00110$
                                   4021 ;./exsoccer.c:859: case DIRECTION_LEFT:
    000013B1                       4022 00103$:
                                   4023 ;./exsoccer.c:860: patternId=PLAYER_POSE_LEFT;
    000013B1 0E 12            [ 7] 4024 	ld	c, #0x12
                                   4025 ;./exsoccer.c:861: break;
    000013B3 C3rD1r13         [10] 4026 	jp	00110$
                                   4027 ;./exsoccer.c:862: case DIRECTION_RIGHT:
    000013B6                       4028 00104$:
                                   4029 ;./exsoccer.c:863: patternId=PLAYER_POSE_RIGHT;
    000013B6 0E 9D            [ 7] 4030 	ld	c, #0x9d
                                   4031 ;./exsoccer.c:864: break;
    000013B8 C3rD1r13         [10] 4032 	jp	00110$
                                   4033 ;./exsoccer.c:865: case DIRECTION_UP_LEFT:
    000013BB                       4034 00105$:
                                   4035 ;./exsoccer.c:866: patternId=PLAYER_POSE_MOVE_UP_LEFT_2;
    000013BB 0E 82            [ 7] 4036 	ld	c, #0x82
                                   4037 ;./exsoccer.c:867: break;
    000013BD C3rD1r13         [10] 4038 	jp	00110$
                                   4039 ;./exsoccer.c:868: case DIRECTION_UP_RIGHT:
    000013C0                       4040 00106$:
                                   4041 ;./exsoccer.c:869: patternId=PLAYER_POSE_MOVE_UP_RIGHT_1;
    000013C0 0E 0D            [ 7] 4042 	ld	c, #0x0d
                                   4043 ;./exsoccer.c:870: break;
    000013C2 C3rD1r13         [10] 4044 	jp	00110$
                                   4045 ;./exsoccer.c:871: case DIRECTION_DOWN_LEFT:
    000013C5                       4046 00107$:
                                   4047 ;./exsoccer.c:872: patternId=PLAYER_POSE_MOVE_DOWN_LEFT_1;
    000013C5 0E 09            [ 7] 4048 	ld	c, #0x09
                                   4049 ;./exsoccer.c:873: break;
    000013C7 C3rD1r13         [10] 4050 	jp	00110$
                                   4051 ;./exsoccer.c:874: case DIRECTION_DOWN_RIGHT:
    000013CA                       4052 00108$:
                                   4053 ;./exsoccer.c:875: patternId=PLAYER_POSE_MOVE_DOWN_RIGHT_2;
    000013CA 0E 86            [ 7] 4054 	ld	c, #0x86
                                   4055 ;./exsoccer.c:876: break;
    000013CC C3rD1r13         [10] 4056 	jp	00110$
                                   4057 ;./exsoccer.c:877: case DIRECTION_NONE:
    000013CF                       4058 00109$:
                                   4059 ;./exsoccer.c:880: patternId=PLAYER_POSE_FRONT_PLAYING;
    000013CF 0E 13            [ 7] 4060 	ld	c, #0x13
                                   4061 ;./exsoccer.c:882: }
    000013D1                       4062 00110$:
                                   4063 ;./exsoccer.c:883: return patternId;
    000013D1 79               [ 4] 4064 	ld	a, c
                                   4065 ;./exsoccer.c:884: }
    000013D2 C9               [10] 4066 	ret
                                   4067 ;./exsoccer.c:886: u8 GetNewPoseByDirection(u8 direction){
                                   4068 ;	---------------------------------
                                   4069 ; Function GetNewPoseByDirection
                                   4070 ; ---------------------------------
    000013D3                       4071 _GetNewPoseByDirection::
    000013D3 5F               [ 4] 4072 	ld	e, a
                                   4073 ;./exsoccer.c:887: u8 pose=NO_VALUE;
    000013D4 0E FF            [ 7] 4074 	ld	c, #0xff
                                   4075 ;./exsoccer.c:888: switch (direction)
    000013D6 3E 08            [ 7] 4076 	ld	a, #0x08
    000013D8 93               [ 4] 4077 	sub	a, e
    000013D9 38 49            [12] 4078 	jr	C, 00109$
    000013DB 16 00            [ 7] 4079 	ld	d, #0x00
    000013DD 21rE4r13         [10] 4080 	ld	hl, #00117$
    000013E0 19               [11] 4081 	add	hl, de
    000013E1 19               [11] 4082 	add	hl, de
    000013E2 19               [11] 4083 	add	hl, de
    000013E3 E9               [ 4] 4084 	jp	(hl)
    000013E4                       4085 00117$:
    000013E4 C3r24r14         [10] 4086 	jp	00109$
    000013E7 C3r04r14         [10] 4087 	jp	00102$
    000013EA C3r13r14         [10] 4088 	jp	00105$
    000013ED C3r0Er14         [10] 4089 	jp	00104$
    000013F0 C3r18r14         [10] 4090 	jp	00106$
    000013F3 C3rFFr13         [10] 4091 	jp	00101$
    000013F6 C3r22r14         [10] 4092 	jp	00108$
    000013F9 C3r09r14         [10] 4093 	jp	00103$
    000013FC C3r1Dr14         [10] 4094 	jp	00107$
                                   4095 ;./exsoccer.c:890: case DIRECTION_DOWN:
    000013FF                       4096 00101$:
                                   4097 ;./exsoccer.c:891: pose=PLAYER_POSE_MOVE_DOWN_1;
    000013FF 0E 00            [ 7] 4098 	ld	c, #0x00
                                   4099 ;./exsoccer.c:892: break;
    00001401 C3r24r14         [10] 4100 	jp	00109$
                                   4101 ;./exsoccer.c:893: case DIRECTION_UP:
    00001404                       4102 00102$:
                                   4103 ;./exsoccer.c:894: pose=PLAYER_POSE_MOVE_UP_1;
    00001404 0E 02            [ 7] 4104 	ld	c, #0x02
                                   4105 ;./exsoccer.c:895: break;
    00001406 C3r24r14         [10] 4106 	jp	00109$
                                   4107 ;./exsoccer.c:896: case DIRECTION_LEFT:
    00001409                       4108 00103$:
                                   4109 ;./exsoccer.c:897: pose=PLAYER_POSE_MOVE_LEFT_1;
    00001409 0E 05            [ 7] 4110 	ld	c, #0x05
                                   4111 ;./exsoccer.c:898: break;	
    0000140B C3r24r14         [10] 4112 	jp	00109$
                                   4113 ;./exsoccer.c:899: case DIRECTION_RIGHT:
    0000140E                       4114 00104$:
                                   4115 ;./exsoccer.c:900: pose=PLAYER_POSE_MOVE_RIGHT_1;
    0000140E 0E 89            [ 7] 4116 	ld	c, #0x89
                                   4117 ;./exsoccer.c:901: break;	
    00001410 C3r24r14         [10] 4118 	jp	00109$
                                   4119 ;./exsoccer.c:902: case DIRECTION_UP_RIGHT:
    00001413                       4120 00105$:
                                   4121 ;./exsoccer.c:903: pose=PLAYER_POSE_MOVE_UP_RIGHT_1;
    00001413 0E 0D            [ 7] 4122 	ld	c, #0x0d
                                   4123 ;./exsoccer.c:904: break;	
    00001415 C3r24r14         [10] 4124 	jp	00109$
                                   4125 ;./exsoccer.c:905: case DIRECTION_DOWN_RIGHT:
    00001418                       4126 00106$:
                                   4127 ;./exsoccer.c:906: pose=PLAYER_POSE_MOVE_DOWN_RIGHT_1;
    00001418 0E 85            [ 7] 4128 	ld	c, #0x85
                                   4129 ;./exsoccer.c:907: break;	
    0000141A C3r24r14         [10] 4130 	jp	00109$
                                   4131 ;./exsoccer.c:908: case DIRECTION_UP_LEFT:
    0000141D                       4132 00107$:
                                   4133 ;./exsoccer.c:909: pose=PLAYER_POSE_MOVE_UP_LEFT_1;
    0000141D 0E 83            [ 7] 4134 	ld	c, #0x83
                                   4135 ;./exsoccer.c:910: break;	
    0000141F C3r24r14         [10] 4136 	jp	00109$
                                   4137 ;./exsoccer.c:911: case DIRECTION_DOWN_LEFT:
    00001422                       4138 00108$:
                                   4139 ;./exsoccer.c:912: pose=PLAYER_POSE_MOVE_DOWN_LEFT_1;
    00001422 0E 09            [ 7] 4140 	ld	c, #0x09
                                   4141 ;./exsoccer.c:914: }
    00001424                       4142 00109$:
                                   4143 ;./exsoccer.c:915: return pose;
    00001424 79               [ 4] 4144 	ld	a, c
                                   4145 ;./exsoccer.c:916: }
    00001425 C9               [10] 4146 	ret
                                   4147 ;./exsoccer.c:918: u8 GetPatternIdByPoseAndDirection(u8 playerId){
                                   4148 ;	---------------------------------
                                   4149 ; Function GetPatternIdByPoseAndDirection
                                   4150 ; ---------------------------------
    00001426                       4151 _GetPatternIdByPoseAndDirection::
    00001426 5F               [ 4] 4152 	ld	e, a
                                   4153 ;./exsoccer.c:919: u8 pose = g_Players[playerId].LastPose;
    00001427 01r06r00         [10] 4154 	ld	bc, #_g_Players+0
    0000142A 16 00            [ 7] 4155 	ld	d, #0x00
    0000142C 6B               [ 4] 4156 	ld	l, e
    0000142D 62               [ 4] 4157 	ld	h, d
    0000142E 29               [11] 4158 	add	hl, hl
    0000142F 29               [11] 4159 	add	hl, hl
    00001430 19               [11] 4160 	add	hl, de
    00001431 29               [11] 4161 	add	hl, hl
    00001432 29               [11] 4162 	add	hl, hl
    00001433 19               [11] 4163 	add	hl, de
    00001434 09               [11] 4164 	add	hl, bc
    00001435 EB               [ 4] 4165 	ex	de, hl
    00001436 D5               [11] 4166 	push	de
    00001437 FD E1            [14] 4167 	pop	iy
    00001439 FD 4E 0C         [19] 4168 	ld	c, 12 (iy)
                                   4169 ;./exsoccer.c:920: u8 dir = g_Players[playerId].Direction;
    0000143C 21 0A 00         [10] 4170 	ld	hl, #10
    0000143F 19               [11] 4171 	add	hl, de
    00001440 5E               [ 7] 4172 	ld	e, (hl)
                                   4173 ;./exsoccer.c:923: if (dir > 8) dir = DIRECTION_NONE;
    00001441 3E 08            [ 7] 4174 	ld	a, #0x08
    00001443 93               [ 4] 4175 	sub	a, e
    00001444 30 02            [12] 4176 	jr	NC, 00102$
    00001446 1E 00            [ 7] 4177 	ld	e, #0x00
    00001448                       4178 00102$:
                                   4179 ;./exsoccer.c:925: if (dir == DIRECTION_NONE) {
    00001448 7B               [ 4] 4180 	ld	a, e
    00001449 B7               [ 4] 4181 	or	a, a
    0000144A 20 04            [12] 4182 	jr	NZ, 00104$
                                   4183 ;./exsoccer.c:926: return GetNoMovingPlayerPatternId(dir); // Assuming logic for NONE inside
    0000144C 7B               [ 4] 4184 	ld	a, e
    0000144D C3r7Br13         [10] 4185 	jp	_GetNoMovingPlayerPatternId
    00001450                       4186 00104$:
                                   4187 ;./exsoccer.c:944: return k_MovePats[dir * 2 + (pose ? 1 : 0)];
    00001450 CB 23            [ 8] 4188 	sla	e
    00001452 79               [ 4] 4189 	ld	a, c
    00001453 B7               [ 4] 4190 	or	a, a
    00001454 28 06            [12] 4191 	jr	Z, 00107$
    00001456 21 01 00         [10] 4192 	ld	hl, #0x0001
    00001459 C3r5Fr14         [10] 4193 	jp	00108$
    0000145C                       4194 00107$:
    0000145C 21 00 00         [10] 4195 	ld	hl, #0x0000
    0000145F                       4196 00108$:
    0000145F 19               [11] 4197 	add	hl, de
    00001460 7D               [ 4] 4198 	ld	a, l
    00001461 07               [ 4] 4199 	rlca
    00001462 9F               [ 4] 4200 	sbc	a, a
    00001463 67               [ 4] 4201 	ld	h, a
                                   4202 ;	spillPairReg hl
                                   4203 ;	spillPairReg hl
    00001464 11r6Ar14         [10] 4204 	ld	de, #_GetPatternIdByPoseAndDirection_k_MovePats_65537_1560
    00001467 19               [11] 4205 	add	hl, de
    00001468 7E               [ 7] 4206 	ld	a, (hl)
                                   4207 ;./exsoccer.c:945: }
    00001469 C9               [10] 4208 	ret
    0000146A                       4209 _GetPatternIdByPoseAndDirection_k_MovePats_65537_1560:
    0000146A 00                    4210 	.db #0x00	; 0
    0000146B 00                    4211 	.db #0x00	; 0
    0000146C 02                    4212 	.db #0x02	; 2
    0000146D 03                    4213 	.db #0x03	; 3
    0000146E 0D                    4214 	.db #0x0d	; 13
    0000146F 0E                    4215 	.db #0x0e	; 14
    00001470 89                    4216 	.db #0x89	; 137
    00001471 8A                    4217 	.db #0x8a	; 138
    00001472 85                    4218 	.db #0x85	; 133
    00001473 86                    4219 	.db #0x86	; 134
    00001474 00                    4220 	.db #0x00	; 0
    00001475 01                    4221 	.db #0x01	; 1
    00001476 09                    4222 	.db #0x09	; 9
    00001477 0A                    4223 	.db #0x0a	; 10
    00001478 05                    4224 	.db #0x05	; 5
    00001479 06                    4225 	.db #0x06	; 6
    0000147A 83                    4226 	.db #0x83	; 131
    0000147B 82                    4227 	.db #0x82	; 130
                                   4228 ;./exsoccer.c:946: void SetPlayerTarget(u8 playerId){
                                   4229 ;	---------------------------------
                                   4230 ; Function SetPlayerTarget
                                   4231 ; ---------------------------------
    0000147C                       4232 _SetPlayerTarget::
    0000147C DD E5            [15] 4233 	push	ix
    0000147E DD 21 00 00      [14] 4234 	ld	ix,#0
    00001482 DD 39            [15] 4235 	add	ix,sp
    00001484 21 F1 FF         [10] 4236 	ld	hl, #-15
    00001487 39               [11] 4237 	add	hl, sp
    00001488 F9               [ 6] 4238 	ld	sp, hl
    00001489 DD 77 FF         [19] 4239 	ld	-1 (ix), a
                                   4240 ;./exsoccer.c:947: if(g_FieldScrollingActionInProgress!=NO_VALUE && g_MatchStatus!=MATCH_BEFORE_KICK_OFF){
    0000148C 3Ar04r00         [13] 4241 	ld	a, (_g_MatchStatus+0)
    0000148F 3D               [ 4] 4242 	dec	a
    00001490 3E 01            [ 7] 4243 	ld	a, #0x01
    00001492 28 01            [12] 4244 	jr	Z, 00188$
    00001494 AF               [ 4] 4245 	xor	a, a
    00001495                       4246 00188$:
    00001495 DD 77 FE         [19] 4247 	ld	-2 (ix), a
    00001498 3Ar02r00         [13] 4248 	ld	a, (_g_FieldScrollingActionInProgress+0)
    0000149B 3C               [ 4] 4249 	inc	a
    0000149C 28 07            [12] 4250 	jr	Z, 00102$
    0000149E DD CB FE 46      [20] 4251 	bit	0, -2 (ix)
                                   4252 ;./exsoccer.c:948: return;
    000014A2 CAr01r16         [10] 4253 	jp	Z,00121$
    000014A5                       4254 00102$:
                                   4255 ;./exsoccer.c:950: switch(g_MatchStatus){
    000014A5 DD 7E FE         [19] 4256 	ld	a, -2 (ix)
    000014A8 B7               [ 4] 4257 	or	a, a
    000014A9 CAr01r16         [10] 4258 	jp	Z, 00121$
                                   4259 ;./exsoccer.c:972: if(g_Players[playerId].TeamId==REFEREE){
    000014AC 01r06r00         [10] 4260 	ld	bc, #_g_Players+0
    000014AF DD 5E FF         [19] 4261 	ld	e, -1 (ix)
    000014B2 16 00            [ 7] 4262 	ld	d, #0x00
    000014B4 6B               [ 4] 4263 	ld	l, e
    000014B5 62               [ 4] 4264 	ld	h, d
    000014B6 29               [11] 4265 	add	hl, hl
    000014B7 29               [11] 4266 	add	hl, hl
    000014B8 19               [11] 4267 	add	hl, de
    000014B9 29               [11] 4268 	add	hl, hl
    000014BA 29               [11] 4269 	add	hl, hl
    000014BB 19               [11] 4270 	add	hl, de
    000014BC 09               [11] 4271 	add	hl, bc
    000014BD EB               [ 4] 4272 	ex	de, hl
    000014BE D5               [11] 4273 	push	de
    000014BF FD E1            [14] 4274 	pop	iy
    000014C1 FD 7E 09         [19] 4275 	ld	a, 9 (iy)
    000014C4 DD 77 F3         [19] 4276 	ld	-13 (ix), a
                                   4277 ;./exsoccer.c:974: g_Players[playerId].TargetX=FIELD_POS_X_CENTER - 30; 
    000014C7 21 10 00         [10] 4278 	ld	hl, #0x0010
    000014CA 19               [11] 4279 	add	hl, de
    000014CB DD 75 F4         [19] 4280 	ld	-12 (ix), l
    000014CE DD 74 F5         [19] 4281 	ld	-11 (ix), h
                                   4282 ;./exsoccer.c:975: g_Players[playerId].TargetY=FIELD_POS_Y_CENTER - 40; 
    000014D1 21 0E 00         [10] 4283 	ld	hl, #0x000e
    000014D4 19               [11] 4284 	add	hl, de
    000014D5 DD 75 F6         [19] 4285 	ld	-10 (ix), l
    000014D8 DD 74 F7         [19] 4286 	ld	-9 (ix), h
                                   4287 ;./exsoccer.c:972: if(g_Players[playerId].TeamId==REFEREE){
    000014DB DD 7E F3         [19] 4288 	ld	a, -13 (ix)
    000014DE D6 0E            [ 7] 4289 	sub	a, #0x0e
    000014E0 20 19            [12] 4290 	jr	NZ, 00118$
                                   4291 ;./exsoccer.c:974: g_Players[playerId].TargetX=FIELD_POS_X_CENTER - 30; 
    000014E2 DD 6E F4         [19] 4292 	ld	l, -12 (ix)
    000014E5 DD 66 F5         [19] 4293 	ld	h, -11 (ix)
    000014E8 36 5A            [10] 4294 	ld	(hl), #0x5a
    000014EA 23               [ 6] 4295 	inc	hl
    000014EB 36 00            [10] 4296 	ld	(hl), #0x00
                                   4297 ;./exsoccer.c:975: g_Players[playerId].TargetY=FIELD_POS_Y_CENTER - 40; 
    000014ED DD 6E F6         [19] 4298 	ld	l, -10 (ix)
    000014F0 DD 66 F7         [19] 4299 	ld	h, -9 (ix)
    000014F3 36 CB            [10] 4300 	ld	(hl), #0xcb
    000014F5 23               [ 6] 4301 	inc	hl
    000014F6 36 00            [10] 4302 	ld	(hl), #0x00
    000014F8 C3r01r16         [10] 4303 	jp	00121$
    000014FB                       4304 00118$:
                                   4305 ;./exsoccer.c:978: u8 role = g_Players[playerId].Role;
    000014FB 21 0D 00         [10] 4306 	ld	hl, #13
    000014FE 19               [11] 4307 	add	hl, de
    000014FF 7E               [ 7] 4308 	ld	a, (hl)
    00001500 DD 77 F8         [19] 4309 	ld	-8 (ix), a
                                   4310 ;./exsoccer.c:979: if (role > 6) role = 0; // Safety
    00001503 3E 06            [ 7] 4311 	ld	a, #0x06
    00001505 DD 96 F8         [19] 4312 	sub	a, -8 (ix)
    00001508 30 04            [12] 4313 	jr	NC, 00106$
    0000150A DD 36 F8 00      [19] 4314 	ld	-8 (ix), #0x00
    0000150E                       4315 00106$:
                                   4316 ;./exsoccer.c:981: bool isTeam1 = (g_Players[playerId].TeamId == TEAM_1);
    0000150E DD 7E F3         [19] 4317 	ld	a, -13 (ix)
    00001511 3D               [ 4] 4318 	dec	a
    00001512 3E 01            [ 7] 4319 	ld	a, #0x01
    00001514 28 01            [12] 4320 	jr	Z, 00193$
    00001516 AF               [ 4] 4321 	xor	a, a
    00001517                       4322 00193$:
    00001517 DD 77 F9         [19] 4323 	ld	-7 (ix), a
                                   4324 ;./exsoccer.c:984: u16 tx = k_KO_X[role];
    0000151A 01r06r16         [10] 4325 	ld	bc, #_SetPlayerTarget_k_KO_X_196608_1565+0
    0000151D DD 6E F8         [19] 4326 	ld	l, -8 (ix)
    00001520 26 00            [ 7] 4327 	ld	h, #0x00
    00001522 09               [11] 4328 	add	hl, bc
    00001523 7E               [ 7] 4329 	ld	a, (hl)
    00001524 DD 77 FE         [19] 4330 	ld	-2 (ix), a
    00001527 DD 77 FA         [19] 4331 	ld	-6 (ix), a
    0000152A DD 36 FB 00      [19] 4332 	ld	-5 (ix), #0x00
                                   4333 ;./exsoccer.c:985: u16 ty = isTeam1 ? k_KO_Y_T1[role] : k_KO_Y_T2[role];
    0000152E DD 7E F8         [19] 4334 	ld	a, -8 (ix)
    00001531 DD 77 FD         [19] 4335 	ld	-3 (ix), a
    00001534 DD 36 FE 00      [19] 4336 	ld	-2 (ix), #0x00
    00001538 DD CB FD 26      [23] 4337 	sla	-3 (ix)
    0000153C DD CB FE 16      [23] 4338 	rl	-2 (ix)
    00001540 DD 7E F9         [19] 4339 	ld	a, -7 (ix)
    00001543 B7               [ 4] 4340 	or	a, a
    00001544 28 16            [12] 4341 	jr	Z, 00123$
    00001546 01r0Dr16         [10] 4342 	ld	bc, #_SetPlayerTarget_k_KO_Y_T1_196608_1565+0
    00001549 DD 6E FD         [19] 4343 	ld	l, -3 (ix)
    0000154C DD 66 FE         [19] 4344 	ld	h, -2 (ix)
    0000154F 09               [11] 4345 	add	hl, bc
    00001550 7E               [ 7] 4346 	ld	a, (hl)
    00001551 DD 77 F1         [19] 4347 	ld	-15 (ix), a
    00001554 23               [ 6] 4348 	inc	hl
    00001555 7E               [ 7] 4349 	ld	a, (hl)
    00001556 DD 77 F2         [19] 4350 	ld	-14 (ix), a
    00001559 C3r71r15         [10] 4351 	jp	00124$
    0000155C                       4352 00123$:
    0000155C DD 7E FD         [19] 4353 	ld	a, -3 (ix)
    0000155F C6r1B            [ 7] 4354 	add	a, #<(_SetPlayerTarget_k_KO_Y_T2_196608_1565)
    00001561 4F               [ 4] 4355 	ld	c, a
    00001562 DD 7E FE         [19] 4356 	ld	a, -2 (ix)
    00001565 CEs16            [ 7] 4357 	adc	a, #>(_SetPlayerTarget_k_KO_Y_T2_196608_1565)
    00001567 47               [ 4] 4358 	ld	b, a
    00001568 0A               [ 7] 4359 	ld	a, (bc)
    00001569 DD 77 F1         [19] 4360 	ld	-15 (ix), a
    0000156C 03               [ 6] 4361 	inc	bc
    0000156D 0A               [ 7] 4362 	ld	a, (bc)
    0000156E DD 77 F2         [19] 4363 	ld	-14 (ix), a
    00001571                       4364 00124$:
    00001571 DD 7E F1         [19] 4365 	ld	a, -15 (ix)
    00001574 DD 77 FC         [19] 4366 	ld	-4 (ix), a
    00001577 DD 7E F2         [19] 4367 	ld	a, -14 (ix)
    0000157A DD 77 FD         [19] 4368 	ld	-3 (ix), a
                                   4369 ;./exsoccer.c:988: if (!isTeam1 && role == PLAYER_ROLE_RIGHT_HALFFIELDER) {
    0000157D DD 7E F9         [19] 4370 	ld	a, -7 (ix)
    00001580 B7               [ 4] 4371 	or	a, a
    00001581 20 0F            [12] 4372 	jr	NZ, 00108$
    00001583 DD 7E F8         [19] 4373 	ld	a, -8 (ix)
    00001586 D6 04            [ 7] 4374 	sub	a, #0x04
    00001588 20 08            [12] 4375 	jr	NZ, 00108$
                                   4376 ;./exsoccer.c:989: tx = FIELD_POS_X_RIGHT - 116; 
    0000158A DD 36 FA 52      [19] 4377 	ld	-6 (ix), #0x52
    0000158E DD 36 FB 00      [19] 4378 	ld	-5 (ix), #0
    00001592                       4379 00108$:
                                   4380 ;./exsoccer.c:993: if ((role == PLAYER_ROLE_LEFT_HALFFIELDER || role == PLAYER_ROLE_RIGHT_HALFFIELDER) &&
    00001592 DD 7E F8         [19] 4381 	ld	a, -8 (ix)
    00001595 D6 03            [ 7] 4382 	sub	a, #0x03
    00001597 3E 01            [ 7] 4383 	ld	a, #0x01
    00001599 28 01            [12] 4384 	jr	Z, 00198$
    0000159B AF               [ 4] 4385 	xor	a, a
    0000159C                       4386 00198$:
    0000159C DD 77 FE         [19] 4387 	ld	-2 (ix), a
    0000159F B7               [ 4] 4388 	or	a, a
    000015A0 20 07            [12] 4389 	jr	NZ, 00116$
    000015A2 DD 7E F8         [19] 4390 	ld	a, -8 (ix)
    000015A5 D6 04            [ 7] 4391 	sub	a, #0x04
    000015A7 20 3A            [12] 4392 	jr	NZ, 00114$
    000015A9                       4393 00116$:
                                   4394 ;./exsoccer.c:994: g_RestartKickTeamId == g_Players[playerId].TeamId) 
    000015A9 3Ar7Er01         [13] 4395 	ld	a, (_g_RestartKickTeamId+0)
    000015AC DD 96 F3         [19] 4396 	sub	a, -13 (ix)
    000015AF 20 32            [12] 4397 	jr	NZ, 00114$
                                   4398 ;./exsoccer.c:996: ty = isTeam1 ? FIELD_POS_Y_CENTER : (FIELD_POS_Y_CENTER - 10);
    000015B1 DD 7E F9         [19] 4399 	ld	a, -7 (ix)
    000015B4 B7               [ 4] 4400 	or	a, a
    000015B5 28 0B            [12] 4401 	jr	Z, 00125$
    000015B7 DD 36 FC F3      [19] 4402 	ld	-4 (ix), #0xf3
    000015BB DD 36 FD 00      [19] 4403 	ld	-3 (ix), #0
    000015BF C3rCAr15         [10] 4404 	jp	00126$
    000015C2                       4405 00125$:
    000015C2 DD 36 FC E9      [19] 4406 	ld	-4 (ix), #0xe9
    000015C6 DD 36 FD 00      [19] 4407 	ld	-3 (ix), #0
    000015CA                       4408 00126$:
                                   4409 ;./exsoccer.c:997: if (role == PLAYER_ROLE_LEFT_HALFFIELDER) tx = FIELD_POS_X_CENTER - 7;
    000015CA DD 7E FE         [19] 4410 	ld	a, -2 (ix)
    000015CD B7               [ 4] 4411 	or	a, a
    000015CE 28 0B            [12] 4412 	jr	Z, 00111$
    000015D0 DD 36 FA 71      [19] 4413 	ld	-6 (ix), #0x71
    000015D4 DD 36 FB 00      [19] 4414 	ld	-5 (ix), #0
    000015D8 C3rE3r15         [10] 4415 	jp	00114$
    000015DB                       4416 00111$:
                                   4417 ;./exsoccer.c:998: else tx = FIELD_POS_X_CENTER + 7;
    000015DB DD 36 FA 7F      [19] 4418 	ld	-6 (ix), #0x7f
    000015DF DD 36 FB 00      [19] 4419 	ld	-5 (ix), #0
    000015E3                       4420 00114$:
                                   4421 ;./exsoccer.c:1001: g_Players[playerId].TargetX = tx;
    000015E3 DD 6E F4         [19] 4422 	ld	l, -12 (ix)
    000015E6 DD 66 F5         [19] 4423 	ld	h, -11 (ix)
    000015E9 DD 7E FA         [19] 4424 	ld	a, -6 (ix)
    000015EC 77               [ 7] 4425 	ld	(hl), a
    000015ED 23               [ 6] 4426 	inc	hl
    000015EE DD 7E FB         [19] 4427 	ld	a, -5 (ix)
    000015F1 77               [ 7] 4428 	ld	(hl), a
                                   4429 ;./exsoccer.c:1002: g_Players[playerId].TargetY = ty;
    000015F2 DD 6E F6         [19] 4430 	ld	l, -10 (ix)
    000015F5 DD 66 F7         [19] 4431 	ld	h, -9 (ix)
    000015F8 DD 7E FC         [19] 4432 	ld	a, -4 (ix)
    000015FB 77               [ 7] 4433 	ld	(hl), a
    000015FC 23               [ 6] 4434 	inc	hl
    000015FD DD 7E FD         [19] 4435 	ld	a, -3 (ix)
    00001600 77               [ 7] 4436 	ld	(hl), a
                                   4437 ;./exsoccer.c:1006: }
    00001601                       4438 00121$:
                                   4439 ;./exsoccer.c:1007: }
    00001601 DD F9            [10] 4440 	ld	sp, ix
    00001603 DD E1            [14] 4441 	pop	ix
    00001605 C9               [10] 4442 	ret
    00001606                       4443 _SetPlayerTarget_k_KO_X_196608_1565:
    00001606 78                    4444 	.db #0x78	; 120	'x'
    00001607 28                    4445 	.db #0x28	; 40
    00001608 C6                    4446 	.db #0xc6	; 198
    00001609 8C                    4447 	.db #0x8c	; 140
    0000160A 62                    4448 	.db #0x62	; 98	'b'
    0000160B 28                    4449 	.db #0x28	; 40
    0000160C C6                    4450 	.db #0xc6	; 198
    0000160D                       4451 _SetPlayerTarget_k_KO_Y_T1_196608_1565:
    0000160D A8 01                 4452 	.dw #0x01a8
    0000160F 76 01                 4453 	.dw #0x0176
    00001611 76 01                 4454 	.dw #0x0176
    00001613 44 01                 4455 	.dw #0x0144
    00001615 44 01                 4456 	.dw #0x0144
    00001617 1C 01                 4457 	.dw #0x011c
    00001619 1C 01                 4458 	.dw #0x011c
    0000161B                       4459 _SetPlayerTarget_k_KO_Y_T2_196608_1565:
    0000161B 32 00                 4460 	.dw #0x0032
    0000161D 82 00                 4461 	.dw #0x0082
    0000161F 82 00                 4462 	.dw #0x0082
    00001621 B4 00                 4463 	.dw #0x00b4
    00001623 B4 00                 4464 	.dw #0x00b4
    00001625 DC 00                 4465 	.dw #0x00dc
    00001627 DC 00                 4466 	.dw #0x00dc
                                   4467 ;./exsoccer.c:1008: void SetPlayerBallPossession(u8 playerId){
                                   4468 ;	---------------------------------
                                   4469 ; Function SetPlayerBallPossession
                                   4470 ; ---------------------------------
    00001629                       4471 _SetPlayerBallPossession::
                                   4472 ;./exsoccer.c:1009: if (playerId == NO_VALUE) {
    00001629 4F               [ 4] 4473 	ld	c, a
    0000162A 3C               [ 4] 4474 	inc	a
    0000162B C8               [11] 4475 	ret	Z
                                   4476 ;./exsoccer.c:1014: return;
    0000162C C3r2Fr16         [10] 4477 	jp	00102$
    0000162F                       4478 00102$:
                                   4479 ;./exsoccer.c:1017: if(g_Players[playerId].TeamId==TEAM_1){
    0000162F 11r06r00         [10] 4480 	ld	de, #_g_Players+0
    00001632 06 00            [ 7] 4481 	ld	b, #0x00
    00001634 69               [ 4] 4482 	ld	l, c
    00001635 60               [ 4] 4483 	ld	h, b
    00001636 29               [11] 4484 	add	hl, hl
    00001637 29               [11] 4485 	add	hl, hl
    00001638 09               [11] 4486 	add	hl, bc
    00001639 29               [11] 4487 	add	hl, hl
    0000163A 29               [11] 4488 	add	hl, hl
    0000163B 09               [11] 4489 	add	hl, bc
    0000163C 19               [11] 4490 	add	hl, de
                                   4491 ;	spillPairReg hl
                                   4492 ;	spillPairReg hl
    0000163D 5D               [ 4] 4493 	ld	e, l
    0000163E 54               [ 4] 4494 	ld	d, h
                                   4495 ;	spillPairReg hl
                                   4496 ;	spillPairReg hl
    0000163F C5               [11] 4497 	push	bc
    00001640 01 09 00         [10] 4498 	ld	bc, #0x0009
    00001643 09               [11] 4499 	add	hl, bc
    00001644 C1               [10] 4500 	pop	bc
    00001645 7E               [ 7] 4501 	ld	a, (hl)
                                   4502 ;./exsoccer.c:1018: if (g_Players[playerId].Role != PLAYER_ROLE_GOALKEEPER) g_Team1ActivePlayer=playerId;
    00001646 21 0D 00         [10] 4503 	ld	hl, #13
    00001649 19               [11] 4504 	add	hl, de
    0000164A 46               [ 7] 4505 	ld	b, (hl)
                                   4506 ;./exsoccer.c:1017: if(g_Players[playerId].TeamId==TEAM_1){
    0000164B 3D               [ 4] 4507 	dec	a
    0000164C 20 0B            [12] 4508 	jr	NZ, 00108$
                                   4509 ;./exsoccer.c:1018: if (g_Players[playerId].Role != PLAYER_ROLE_GOALKEEPER) g_Team1ActivePlayer=playerId;
    0000164E 78               [ 4] 4510 	ld	a, b
    0000164F B7               [ 4] 4511 	or	a, a
    00001650 28 0F            [12] 4512 	jr	Z, 00109$
    00001652 21r07r00         [10] 4513 	ld	hl, #_g_Team1ActivePlayer
    00001655 71               [ 7] 4514 	ld	(hl), c
    00001656 C3r61r16         [10] 4515 	jp	00109$
    00001659                       4516 00108$:
                                   4517 ;./exsoccer.c:1021: if (g_Players[playerId].Role != PLAYER_ROLE_GOALKEEPER) g_Team2ActivePlayer=playerId;
    00001659 78               [ 4] 4518 	ld	a, b
    0000165A B7               [ 4] 4519 	or	a, a
    0000165B 28 04            [12] 4520 	jr	Z, 00109$
    0000165D 21r08r00         [10] 4521 	ld	hl, #_g_Team2ActivePlayer
    00001660 71               [ 7] 4522 	ld	(hl), c
    00001661                       4523 00109$:
                                   4524 ;./exsoccer.c:1024: g_Ball.PossessionTimer = 0; // Reset hold timer
    00001661 21r7Br01         [10] 4525 	ld	hl, #(_g_Ball + 28)
    00001664 36 00            [10] 4526 	ld	(hl), #0x00
                                   4527 ;./exsoccer.c:1025: }
    00001666 C9               [10] 4528 	ret
                                   4529 ;./exsoccer.c:1027: void TickGoalKick() {
                                   4530 ;	---------------------------------
                                   4531 ; Function TickGoalKick
                                   4532 ; ---------------------------------
    00001667                       4533 _TickGoalKick::
    00001667 DD E5            [15] 4534 	push	ix
    00001669 DD 21 00 00      [14] 4535 	ld	ix,#0
    0000166D DD 39            [15] 4536 	add	ix,sp
    0000166F 21 F0 FF         [10] 4537 	ld	hl, #-16
    00001672 39               [11] 4538 	add	hl, sp
    00001673 F9               [ 6] 4539 	ld	sp, hl
                                   4540 ;./exsoccer.c:1028: if (g_MatchStatus != MATCH_BEFORE_GOAL_KICK) return;
    00001674 3Ar04r00         [13] 4541 	ld	a, (_g_MatchStatus+0)
    00001677 D6 05            [ 7] 4542 	sub	a, #0x05
    00001679 C2r8Fr1B         [10] 4543 	jp	NZ,00197$
                                   4544 ;./exsoccer.c:1032: if (g_RestartKickTeamId == TEAM_1) gkId = GetPlayerIdByRole(TEAM_1, PLAYER_ROLE_GOALKEEPER);
    0000167C 3Ar7Er01         [13] 4545 	ld	a, (_g_RestartKickTeamId+0)
    0000167F 3D               [ 4] 4546 	dec	a
    00001680 20 0C            [12] 4547 	jr	NZ, 00104$
    00001682 6F               [ 4] 4548 	ld	l,a
                                   4549 ;	spillPairReg hl
                                   4550 ;	spillPairReg hl
    00001683 3E 01            [ 7] 4551 	ld	a, #0x01
    00001685 CDr00r00         [17] 4552 	call	_GetPlayerIdByRole
    00001688 DD 77 F6         [19] 4553 	ld	-10 (ix), a
    0000168B C3r98r16         [10] 4554 	jp	00105$
    0000168E                       4555 00104$:
                                   4556 ;./exsoccer.c:1033: else gkId = GetPlayerIdByRole(TEAM_2, PLAYER_ROLE_GOALKEEPER);
    0000168E 2E 00            [ 7] 4557 	ld	l, #0x00
                                   4558 ;	spillPairReg hl
                                   4559 ;	spillPairReg hl
    00001690 3E 02            [ 7] 4560 	ld	a, #0x02
    00001692 CDr00r00         [17] 4561 	call	_GetPlayerIdByRole
    00001695 DD 77 F6         [19] 4562 	ld	-10 (ix), a
    00001698                       4563 00105$:
                                   4564 ;./exsoccer.c:1035: if (gkId == NO_VALUE) return; 
    00001698 DD 7E F6         [19] 4565 	ld	a, -10 (ix)
    0000169B 3C               [ 4] 4566 	inc	a
    0000169C CAr8Fr1B         [10] 4567 	jp	Z,00197$
    0000169F C3rA2r16         [10] 4568 	jp	00107$
    000016A2                       4569 00107$:
                                   4570 ;./exsoccer.c:1038: if (g_Timer < 60) {
    000016A2 3Ar06r00         [13] 4571 	ld	a, (_g_Timer+0)
    000016A5 D6 3C            [ 7] 4572 	sub	a, #0x3c
    000016A7 30 07            [12] 4573 	jr	NC, 00109$
                                   4574 ;./exsoccer.c:1039: g_Timer++;
    000016A9 21r06r00         [10] 4575 	ld	hl, #_g_Timer
    000016AC 34               [11] 4576 	inc	(hl)
                                   4577 ;./exsoccer.c:1040: return;
    000016AD C3r8Fr1B         [10] 4578 	jp	00197$
    000016B0                       4579 00109$:
                                   4580 ;./exsoccer.c:1042: g_Ball.Size = 1;
    000016B0 21r63r01         [10] 4581 	ld	hl, #(_g_Ball + 4)
    000016B3 36 01            [10] 4582 	ld	(hl), #0x01
                                   4583 ;./exsoccer.c:1044: if (g_Timer == 60) {
    000016B5 3Ar06r00         [13] 4584 	ld	a, (_g_Timer+0)
    000016B8 D6 3C            [ 7] 4585 	sub	a, #0x3c
    000016BA C2r36r19         [10] 4586 	jp	NZ,00175$
                                   4587 ;./exsoccer.c:1047: if (g_GoalKickSide == CORNER_SIDE_LEFT) targetX = GK_BOX_X_MIN;
    000016BD 3Ar14r00         [13] 4588 	ld	a, (_g_GoalKickSide+0)
    000016C0 B7               [ 4] 4589 	or	a, a
    000016C1 20 06            [12] 4590 	jr	NZ, 00111$
    000016C3 01 50 00         [10] 4591 	ld	bc, #0x0050
    000016C6 C3rCCr16         [10] 4592 	jp	00112$
    000016C9                       4593 00111$:
                                   4594 ;./exsoccer.c:1048: else targetX = GK_BOX_X_MAX;
    000016C9 01 A0 00         [10] 4595 	ld	bc, #0x00a0
    000016CC                       4596 00112$:
                                   4597 ;./exsoccer.c:1051: if (g_RestartKickTeamId == TEAM_1) { // Bottom Goal
    000016CC 3Ar7Er01         [13] 4598 	ld	a, (_g_RestartKickTeamId+0)
    000016CF 3D               [ 4] 4599 	dec	a
    000016D0 20 06            [12] 4600 	jr	NZ, 00114$
                                   4601 ;./exsoccer.c:1052: ballY = GK_BOX_Y_BOTTOM_MIN; 
    000016D2 11 95 01         [10] 4602 	ld	de, #0x0195
    000016D5 C3rDBr16         [10] 4603 	jp	00115$
    000016D8                       4604 00114$:
                                   4605 ;./exsoccer.c:1054: ballY = GK_BOX_Y_TOP_MAX; 
    000016D8 11 4B 00         [10] 4606 	ld	de, #0x004b
    000016DB                       4607 00115$:
                                   4608 ;./exsoccer.c:1058: g_Ball.X = targetX;
    000016DB ED 43r61r01      [20] 4609 	ld	((_g_Ball + 2)), bc
                                   4610 ;./exsoccer.c:1059: g_Ball.Y = ballY;
    000016DF ED 53r5Fr01      [20] 4611 	ld	(_g_Ball), de
                                   4612 ;./exsoccer.c:1060: g_Ball.PossessionPlayerId = NO_VALUE;
    000016E3 21r65r01         [10] 4613 	ld	hl, #(_g_Ball + 6)
    000016E6 36 FF            [10] 4614 	ld	(hl), #0xff
                                   4615 ;./exsoccer.c:1065: runStartY = ballY + 32; 
                                   4616 ;./exsoccer.c:1064: if (g_RestartKickTeamId == TEAM_1) {
    000016E8 3Ar7Er01         [13] 4617 	ld	a, (_g_RestartKickTeamId+0)
    000016EB 3D               [ 4] 4618 	dec	a
    000016EC 20 1E            [12] 4619 	jr	NZ, 00121$
                                   4620 ;./exsoccer.c:1065: runStartY = ballY + 32; 
    000016EE 21 20 00         [10] 4621 	ld	hl, #0x0020
    000016F1 19               [11] 4622 	add	hl, de
                                   4623 ;./exsoccer.c:1066: if(runStartY > FIELD_BOUND_Y_BOTTOM) runStartY = FIELD_BOUND_Y_BOTTOM;
    000016F2 DD 75 FE         [19] 4624 	ld	-2 (ix), l
    000016F5 DD 74 FF         [19] 4625 	ld	-1 (ix), h
    000016F8 EB               [ 4] 4626 	ex	de,hl
    000016F9 3E AE            [ 7] 4627 	ld	a, #0xae
    000016FB BB               [ 4] 4628 	cp	a, e
    000016FC 3E 01            [ 7] 4629 	ld	a, #0x01
    000016FE 9A               [ 4] 4630 	sbc	a, d
    000016FF 30 29            [12] 4631 	jr	NC, 00122$
    00001701 DD 36 FE AE      [19] 4632 	ld	-2 (ix), #0xae
    00001705 DD 36 FF 01      [19] 4633 	ld	-1 (ix), #0x01
    00001709 C3r2Ar17         [10] 4634 	jp	00122$
    0000170C                       4635 00121$:
                                   4636 ;./exsoccer.c:1068: runStartY = ballY - 32;
    0000170C 7B               [ 4] 4637 	ld	a, e
    0000170D C6 E0            [ 7] 4638 	add	a, #0xe0
    0000170F 5F               [ 4] 4639 	ld	e, a
    00001710 7A               [ 4] 4640 	ld	a, d
    00001711 CE FF            [ 7] 4641 	adc	a, #0xff
                                   4642 ;./exsoccer.c:1069: if(runStartY < FIELD_BOUND_Y_TOP) runStartY = FIELD_BOUND_Y_TOP;
    00001713 DD 73 FE         [19] 4643 	ld	-2 (ix), e
    00001716 DD 77 FF         [19] 4644 	ld	-1 (ix), a
    00001719 57               [ 4] 4645 	ld	d, a
    0000171A 7B               [ 4] 4646 	ld	a, e
    0000171B D6 32            [ 7] 4647 	sub	a, #0x32
    0000171D 7A               [ 4] 4648 	ld	a, d
    0000171E DE 00            [ 7] 4649 	sbc	a, #0x00
    00001720 30 08            [12] 4650 	jr	NC, 00122$
    00001722 DD 36 FE 32      [19] 4651 	ld	-2 (ix), #0x32
    00001726 DD 36 FF 00      [19] 4652 	ld	-1 (ix), #0
    0000172A                       4653 00122$:
                                   4654 ;./exsoccer.c:1072: g_Players[gkId].TargetX = targetX;
    0000172A DD 5E F6         [19] 4655 	ld	e, -10 (ix)
    0000172D 16 00            [ 7] 4656 	ld	d, #0x00
    0000172F 6B               [ 4] 4657 	ld	l, e
    00001730 62               [ 4] 4658 	ld	h, d
    00001731 29               [11] 4659 	add	hl, hl
    00001732 29               [11] 4660 	add	hl, hl
    00001733 19               [11] 4661 	add	hl, de
    00001734 29               [11] 4662 	add	hl, hl
    00001735 29               [11] 4663 	add	hl, hl
    00001736 19               [11] 4664 	add	hl, de
    00001737 EB               [ 4] 4665 	ex	de, hl
    00001738 21r06r00         [10] 4666 	ld	hl, #_g_Players
    0000173B 19               [11] 4667 	add	hl, de
    0000173C EB               [ 4] 4668 	ex	de, hl
    0000173D 21 10 00         [10] 4669 	ld	hl, #0x0010
    00001740 19               [11] 4670 	add	hl, de
    00001741 71               [ 7] 4671 	ld	(hl), c
    00001742 23               [ 6] 4672 	inc	hl
    00001743 70               [ 7] 4673 	ld	(hl), b
                                   4674 ;./exsoccer.c:1073: g_Players[gkId].TargetY = runStartY;
    00001744 21 0E 00         [10] 4675 	ld	hl, #0x000e
    00001747 19               [11] 4676 	add	hl, de
    00001748 DD 7E FE         [19] 4677 	ld	a, -2 (ix)
    0000174B 77               [ 7] 4678 	ld	(hl), a
    0000174C 23               [ 6] 4679 	inc	hl
    0000174D DD 7E FF         [19] 4680 	ld	a, -1 (ix)
    00001750 77               [ 7] 4681 	ld	(hl), a
                                   4682 ;./exsoccer.c:1074: g_Players[gkId].Status = PLAYER_STATUS_NONE; 
    00001751 21 12 00         [10] 4683 	ld	hl, #0x0012
    00001754 19               [11] 4684 	add	hl, de
    00001755 AF               [ 4] 4685 	xor	a, a
    00001756 77               [ 7] 4686 	ld	(hl), a
    00001757 23               [ 6] 4687 	inc	hl
    00001758 77               [ 7] 4688 	ld	(hl), a
                                   4689 ;./exsoccer.c:1076: if (g_RestartKickTeamId == TEAM_1) g_Players[gkId].Direction = DIRECTION_UP;
    00001759 21 0A 00         [10] 4690 	ld	hl, #0x000a
    0000175C 19               [11] 4691 	add	hl, de
    0000175D 3Ar7Er01         [13] 4692 	ld	a, (_g_RestartKickTeamId+0)
    00001760 3D               [ 4] 4693 	dec	a
    00001761 20 05            [12] 4694 	jr	NZ, 00124$
    00001763 36 01            [10] 4695 	ld	(hl), #0x01
    00001765 C3r6Ar17         [10] 4696 	jp	00125$
    00001768                       4697 00124$:
                                   4698 ;./exsoccer.c:1077: else g_Players[gkId].Direction = DIRECTION_DOWN;
    00001768 36 05            [10] 4699 	ld	(hl), #0x05
    0000176A                       4700 00125$:
                                   4701 ;./exsoccer.c:1079: if (g_RestartKickTeamId == TEAM_1) ShowFieldZone(FIELD_SOUTH_ZONE);
    0000176A 3Ar7Er01         [13] 4702 	ld	a, (_g_RestartKickTeamId+0)
    0000176D 3D               [ 4] 4703 	dec	a
    0000176E 20 08            [12] 4704 	jr	NZ, 00127$
    00001770 3E 02            [ 7] 4705 	ld	a, #0x02
    00001772 CDr00r00         [17] 4706 	call	_ShowFieldZone
    00001775 C3r7Cr17         [10] 4707 	jp	00239$
    00001778                       4708 00127$:
                                   4709 ;./exsoccer.c:1080: else ShowFieldZone(FIELD_NORTH_ZONE);
    00001778 AF               [ 4] 4710 	xor	a, a
    00001779 CDr00r00         [17] 4711 	call	_ShowFieldZone
                                   4712 ;./exsoccer.c:1083: for(u8 i=0; i<14; i++){
    0000177C                       4713 00239$:
    0000177C DD 36 FF 00      [19] 4714 	ld	-1 (ix), #0x00
    00001780                       4715 00196$:
    00001780 DD 7E FF         [19] 4716 	ld	a, -1 (ix)
    00001783 D6 0E            [ 7] 4717 	sub	a, #0x0e
    00001785 D2r36r19         [10] 4718 	jp	NC, 00175$
                                   4719 ;./exsoccer.c:1084: if(i == gkId) continue;
    00001788 DD 7E F6         [19] 4720 	ld	a, -10 (ix)
    0000178B DD 96 FF         [19] 4721 	sub	a, -1 (ix)
    0000178E CAr30r19         [10] 4722 	jp	Z,00172$
                                   4723 ;./exsoccer.c:1085: if(g_Players[i].TeamId == REFEREE) continue;
    00001791 DD 4E FF         [19] 4724 	ld	c, -1 (ix)
    00001794 06 00            [ 7] 4725 	ld	b, #0x00
    00001796 69               [ 4] 4726 	ld	l, c
    00001797 60               [ 4] 4727 	ld	h, b
    00001798 29               [11] 4728 	add	hl, hl
    00001799 29               [11] 4729 	add	hl, hl
    0000179A 09               [11] 4730 	add	hl, bc
    0000179B 29               [11] 4731 	add	hl, hl
    0000179C 29               [11] 4732 	add	hl, hl
    0000179D 09               [11] 4733 	add	hl, bc
    0000179E 11r06r00         [10] 4734 	ld	de, #_g_Players
    000017A1 19               [11] 4735 	add	hl, de
    000017A2 DD 75 F7         [19] 4736 	ld	-9 (ix), l
    000017A5 DD 74 F8         [19] 4737 	ld	-8 (ix), h
    000017A8 FD 21 09 00      [14] 4738 	ld	iy, #0x0009
    000017AC DD 5E F7         [19] 4739 	ld	e, -9 (ix)
    000017AF DD 56 F8         [19] 4740 	ld	d, -8 (ix)
    000017B2 FD 19            [15] 4741 	add	iy, de
    000017B4 FD 7E 00         [19] 4742 	ld	a, 0 (iy)
    000017B7 D6 0E            [ 7] 4743 	sub	a, #0x0e
    000017B9 CAr30r19         [10] 4744 	jp	Z,00172$
                                   4745 ;./exsoccer.c:1086: if(g_Players[i].Role == PLAYER_ROLE_GOALKEEPER) continue;
    000017BC DD 7E F7         [19] 4746 	ld	a, -9 (ix)
    000017BF C6 0D            [ 7] 4747 	add	a, #0x0d
    000017C1 5F               [ 4] 4748 	ld	e, a
    000017C2 DD 7E F8         [19] 4749 	ld	a, -8 (ix)
    000017C5 CE 00            [ 7] 4750 	adc	a, #0x00
    000017C7 57               [ 4] 4751 	ld	d, a
    000017C8 1A               [ 7] 4752 	ld	a, (de)
    000017C9 B7               [ 4] 4753 	or	a, a
    000017CA CAr30r19         [10] 4754 	jp	Z, 00172$
                                   4755 ;./exsoccer.c:1089: g_Players[i].Status = PLAYER_STATUS_NONE;
    000017CD DD 6E F7         [19] 4756 	ld	l, -9 (ix)
    000017D0 DD 66 F8         [19] 4757 	ld	h, -8 (ix)
    000017D3 01 12 00         [10] 4758 	ld	bc, #0x0012
    000017D6 09               [11] 4759 	add	hl, bc
    000017D7 AF               [ 4] 4760 	xor	a, a
    000017D8 77               [ 7] 4761 	ld	(hl), a
    000017D9 23               [ 6] 4762 	inc	hl
    000017DA 77               [ 7] 4763 	ld	(hl), a
                                   4764 ;./exsoccer.c:1092: u16 targetX = g_Players[i].X;
    000017DB DD 6E F7         [19] 4765 	ld	l, -9 (ix)
                                   4766 ;	spillPairReg hl
                                   4767 ;	spillPairReg hl
    000017DE DD 66 F8         [19] 4768 	ld	h, -8 (ix)
                                   4769 ;	spillPairReg hl
                                   4770 ;	spillPairReg hl
    000017E1 23               [ 6] 4771 	inc	hl
    000017E2 23               [ 6] 4772 	inc	hl
    000017E3 7E               [ 7] 4773 	ld	a, (hl)
    000017E4 DD 77 F9         [19] 4774 	ld	-7 (ix), a
    000017E7 23               [ 6] 4775 	inc	hl
    000017E8 7E               [ 7] 4776 	ld	a, (hl)
    000017E9 DD 77 FA         [19] 4777 	ld	-6 (ix), a
                                   4778 ;./exsoccer.c:1085: if(g_Players[i].TeamId == REFEREE) continue;
    000017EC FD 4E 00         [19] 4779 	ld	c, 0 (iy)
                                   4780 ;./exsoccer.c:1086: if(g_Players[i].Role == PLAYER_ROLE_GOALKEEPER) continue;
    000017EF 1A               [ 7] 4781 	ld	a, (de)
                                   4782 ;./exsoccer.c:1099: if (g_Players[i].Role == PLAYER_ROLE_LEFT_STRIKER || g_Players[i].Role == PLAYER_ROLE_RIGHT_STRIKER) targetY = 200;
    000017F0 DD 77 FB         [19] 4783 	ld	-5 (ix), a
    000017F3 D6 05            [ 7] 4784 	sub	a, #0x05
    000017F5 3E 01            [ 7] 4785 	ld	a, #0x01
    000017F7 28 01            [12] 4786 	jr	Z, 00432$
    000017F9 AF               [ 4] 4787 	xor	a, a
    000017FA                       4788 00432$:
    000017FA 5F               [ 4] 4789 	ld	e, a
                                   4790 ;./exsoccer.c:1100: if (g_Players[i].Role == PLAYER_ROLE_LEFT_DEFENDER || g_Players[i].Role == PLAYER_ROLE_RIGHT_DEFENDER) targetY = 350; // Defenders move out of box
    000017FB DD 7E FB         [19] 4791 	ld	a, -5 (ix)
    000017FE 3D               [ 4] 4792 	dec	a
    000017FF 3E 01            [ 7] 4793 	ld	a, #0x01
    00001801 28 01            [12] 4794 	jr	Z, 00434$
    00001803 AF               [ 4] 4795 	xor	a, a
    00001804                       4796 00434$:
    00001804 DD 77 FC         [19] 4797 	ld	-4 (ix), a
                                   4798 ;./exsoccer.c:1094: if (g_RestartKickTeamId == TEAM_1) {
    00001807 3Ar7Er01         [13] 4799 	ld	a, (_g_RestartKickTeamId+0)
    0000180A 3D               [ 4] 4800 	dec	a
    0000180B 20 6A            [12] 4801 	jr	NZ, 00166$
                                   4802 ;./exsoccer.c:1096: if(g_Players[i].TeamId == TEAM_1) {
    0000180D 0D               [ 4] 4803 	dec	c
    0000180E 20 34            [12] 4804 	jr	NZ, 00148$
                                   4805 ;./exsoccer.c:1098: targetY = 300; // Midfielders
    00001810 DD 36 FD 2C      [19] 4806 	ld	-3 (ix), #0x2c
    00001814 DD 36 FE 01      [19] 4807 	ld	-2 (ix), #0x01
                                   4808 ;./exsoccer.c:1099: if (g_Players[i].Role == PLAYER_ROLE_LEFT_STRIKER || g_Players[i].Role == PLAYER_ROLE_RIGHT_STRIKER) targetY = 200;
    00001818 7B               [ 4] 4809 	ld	a, e
    00001819 B7               [ 4] 4810 	or	a, a
    0000181A 20 07            [12] 4811 	jr	NZ, 00135$
    0000181C DD 7E FB         [19] 4812 	ld	a, -5 (ix)
    0000181F D6 06            [ 7] 4813 	sub	a, #0x06
    00001821 20 08            [12] 4814 	jr	NZ, 00136$
    00001823                       4815 00135$:
    00001823 DD 36 FD C8      [19] 4816 	ld	-3 (ix), #0xc8
    00001827 DD 36 FE 00      [19] 4817 	ld	-2 (ix), #0
    0000182B                       4818 00136$:
                                   4819 ;./exsoccer.c:1100: if (g_Players[i].Role == PLAYER_ROLE_LEFT_DEFENDER || g_Players[i].Role == PLAYER_ROLE_RIGHT_DEFENDER) targetY = 350; // Defenders move out of box
    0000182B DD 7E FC         [19] 4820 	ld	a, -4 (ix)
    0000182E B7               [ 4] 4821 	or	a, a
    0000182F 20 08            [12] 4822 	jr	NZ, 00138$
    00001831 DD 7E FB         [19] 4823 	ld	a, -5 (ix)
    00001834 D6 02            [ 7] 4824 	sub	a, #0x02
    00001836 C2rDFr18         [10] 4825 	jp	NZ,00167$
    00001839                       4826 00138$:
    00001839 DD 36 FD 5E      [19] 4827 	ld	-3 (ix), #0x5e
    0000183D DD 36 FE 01      [19] 4828 	ld	-2 (ix), #0x01
    00001841 C3rDFr18         [10] 4829 	jp	00167$
    00001844                       4830 00148$:
                                   4831 ;./exsoccer.c:1102: targetY = 250;
    00001844 DD 36 FD FA      [19] 4832 	ld	-3 (ix), #0xfa
    00001848 DD 36 FE 00      [19] 4833 	ld	-2 (ix), #0
                                   4834 ;./exsoccer.c:1103: if (g_Players[i].Role == PLAYER_ROLE_LEFT_STRIKER || g_Players[i].Role == PLAYER_ROLE_RIGHT_STRIKER) targetY = 320; // Pressing High (but not too close)
    0000184C 7B               [ 4] 4835 	ld	a, e
    0000184D B7               [ 4] 4836 	or	a, a
    0000184E 20 07            [12] 4837 	jr	NZ, 00141$
    00001850 DD 7E FB         [19] 4838 	ld	a, -5 (ix)
    00001853 D6 06            [ 7] 4839 	sub	a, #0x06
    00001855 20 08            [12] 4840 	jr	NZ, 00142$
    00001857                       4841 00141$:
    00001857 DD 36 FD 40      [19] 4842 	ld	-3 (ix), #0x40
    0000185B DD 36 FE 01      [19] 4843 	ld	-2 (ix), #0x01
    0000185F                       4844 00142$:
                                   4845 ;./exsoccer.c:1104: if (g_Players[i].Role == PLAYER_ROLE_LEFT_DEFENDER || g_Players[i].Role == PLAYER_ROLE_RIGHT_DEFENDER) targetY = 150;
    0000185F DD 7E FC         [19] 4846 	ld	a, -4 (ix)
    00001862 B7               [ 4] 4847 	or	a, a
    00001863 20 07            [12] 4848 	jr	NZ, 00144$
    00001865 DD 7E FB         [19] 4849 	ld	a, -5 (ix)
    00001868 D6 02            [ 7] 4850 	sub	a, #0x02
    0000186A 20 73            [12] 4851 	jr	NZ, 00167$
    0000186C                       4852 00144$:
    0000186C DD 36 FD 96      [19] 4853 	ld	-3 (ix), #0x96
    00001870 DD 36 FE 00      [19] 4854 	ld	-2 (ix), #0
    00001874 C3rDFr18         [10] 4855 	jp	00167$
    00001877                       4856 00166$:
                                   4857 ;./exsoccer.c:1108: if(g_Players[i].TeamId == TEAM_2) {
    00001877 79               [ 4] 4858 	ld	a, c
    00001878 D6 02            [ 7] 4859 	sub	a, #0x02
    0000187A 20 33            [12] 4860 	jr	NZ, 00163$
                                   4861 ;./exsoccer.c:1110: targetY = 150; 
    0000187C DD 36 FD 96      [19] 4862 	ld	-3 (ix), #0x96
    00001880 DD 36 FE 00      [19] 4863 	ld	-2 (ix), #0
                                   4864 ;./exsoccer.c:1111: if (g_Players[i].Role == PLAYER_ROLE_LEFT_STRIKER || g_Players[i].Role == PLAYER_ROLE_RIGHT_STRIKER) targetY = 250;
    00001884 7B               [ 4] 4865 	ld	a, e
    00001885 B7               [ 4] 4866 	or	a, a
    00001886 20 07            [12] 4867 	jr	NZ, 00150$
    00001888 DD 7E FB         [19] 4868 	ld	a, -5 (ix)
    0000188B D6 06            [ 7] 4869 	sub	a, #0x06
    0000188D 20 08            [12] 4870 	jr	NZ, 00151$
    0000188F                       4871 00150$:
    0000188F DD 36 FD FA      [19] 4872 	ld	-3 (ix), #0xfa
    00001893 DD 36 FE 00      [19] 4873 	ld	-2 (ix), #0
    00001897                       4874 00151$:
                                   4875 ;./exsoccer.c:1112: if (g_Players[i].Role == PLAYER_ROLE_LEFT_DEFENDER || g_Players[i].Role == PLAYER_ROLE_RIGHT_DEFENDER) targetY = 120; // Defenders move out of box
    00001897 DD 7E FC         [19] 4876 	ld	a, -4 (ix)
    0000189A B7               [ 4] 4877 	or	a, a
    0000189B 20 07            [12] 4878 	jr	NZ, 00153$
    0000189D DD 7E FB         [19] 4879 	ld	a, -5 (ix)
    000018A0 D6 02            [ 7] 4880 	sub	a, #0x02
    000018A2 20 3B            [12] 4881 	jr	NZ, 00167$
    000018A4                       4882 00153$:
    000018A4 DD 36 FD 78      [19] 4883 	ld	-3 (ix), #0x78
    000018A8 DD 36 FE 00      [19] 4884 	ld	-2 (ix), #0
    000018AC C3rDFr18         [10] 4885 	jp	00167$
    000018AF                       4886 00163$:
                                   4887 ;./exsoccer.c:1114: targetY = 200;
    000018AF DD 36 FD C8      [19] 4888 	ld	-3 (ix), #0xc8
    000018B3 DD 36 FE 00      [19] 4889 	ld	-2 (ix), #0
                                   4890 ;./exsoccer.c:1115: if (g_Players[i].Role == PLAYER_ROLE_LEFT_STRIKER || g_Players[i].Role == PLAYER_ROLE_RIGHT_STRIKER) targetY = 160; // Pressing High (but not too close)
    000018B7 7B               [ 4] 4891 	ld	a, e
    000018B8 B7               [ 4] 4892 	or	a, a
    000018B9 20 07            [12] 4893 	jr	NZ, 00156$
    000018BB DD 7E FB         [19] 4894 	ld	a, -5 (ix)
    000018BE D6 06            [ 7] 4895 	sub	a, #0x06
    000018C0 20 08            [12] 4896 	jr	NZ, 00157$
    000018C2                       4897 00156$:
    000018C2 DD 36 FD A0      [19] 4898 	ld	-3 (ix), #0xa0
    000018C6 DD 36 FE 00      [19] 4899 	ld	-2 (ix), #0
    000018CA                       4900 00157$:
                                   4901 ;./exsoccer.c:1116: if (g_Players[i].Role == PLAYER_ROLE_LEFT_DEFENDER || g_Players[i].Role == PLAYER_ROLE_RIGHT_DEFENDER) targetY = 300;
    000018CA DD 7E FC         [19] 4902 	ld	a, -4 (ix)
    000018CD B7               [ 4] 4903 	or	a, a
    000018CE 20 07            [12] 4904 	jr	NZ, 00159$
    000018D0 DD 7E FB         [19] 4905 	ld	a, -5 (ix)
    000018D3 D6 02            [ 7] 4906 	sub	a, #0x02
    000018D5 20 08            [12] 4907 	jr	NZ, 00167$
    000018D7                       4908 00159$:
    000018D7 DD 36 FD 2C      [19] 4909 	ld	-3 (ix), #0x2c
    000018DB DD 36 FE 01      [19] 4910 	ld	-2 (ix), #0x01
    000018DF                       4911 00167$:
                                   4912 ;./exsoccer.c:1121: if (targetX < 30) targetX = 30;
    000018DF DD 7E F9         [19] 4913 	ld	a, -7 (ix)
    000018E2 DD 46 FA         [19] 4914 	ld	b, -6 (ix)
    000018E5 D6 1E            [ 7] 4915 	sub	a, #0x1e
    000018E7 78               [ 4] 4916 	ld	a, b
    000018E8 DE 00            [ 7] 4917 	sbc	a, #0x00
    000018EA 30 08            [12] 4918 	jr	NC, 00169$
    000018EC DD 36 F9 1E      [19] 4919 	ld	-7 (ix), #0x1e
    000018F0 DD 36 FA 00      [19] 4920 	ld	-6 (ix), #0
    000018F4                       4921 00169$:
                                   4922 ;./exsoccer.c:1122: if (targetX > 220) targetX = 220;
    000018F4 DD 4E F9         [19] 4923 	ld	c, -7 (ix)
    000018F7 DD 46 FA         [19] 4924 	ld	b, -6 (ix)
    000018FA 3E DC            [ 7] 4925 	ld	a, #0xdc
    000018FC B9               [ 4] 4926 	cp	a, c
    000018FD 3E 00            [ 7] 4927 	ld	a, #0x00
    000018FF 98               [ 4] 4928 	sbc	a, b
    00001900 30 08            [12] 4929 	jr	NC, 00171$
    00001902 DD 36 F9 DC      [19] 4930 	ld	-7 (ix), #0xdc
    00001906 DD 36 FA 00      [19] 4931 	ld	-6 (ix), #0
    0000190A                       4932 00171$:
                                   4933 ;./exsoccer.c:1124: g_Players[i].TargetX = targetX;
    0000190A DD 6E F7         [19] 4934 	ld	l, -9 (ix)
    0000190D DD 66 F8         [19] 4935 	ld	h, -8 (ix)
    00001910 11 10 00         [10] 4936 	ld	de, #0x0010
    00001913 19               [11] 4937 	add	hl, de
    00001914 DD 7E F9         [19] 4938 	ld	a, -7 (ix)
    00001917 77               [ 7] 4939 	ld	(hl), a
    00001918 23               [ 6] 4940 	inc	hl
    00001919 DD 7E FA         [19] 4941 	ld	a, -6 (ix)
    0000191C 77               [ 7] 4942 	ld	(hl), a
                                   4943 ;./exsoccer.c:1125: g_Players[i].TargetY = targetY;
    0000191D DD 6E F7         [19] 4944 	ld	l, -9 (ix)
    00001920 DD 66 F8         [19] 4945 	ld	h, -8 (ix)
    00001923 11 0E 00         [10] 4946 	ld	de, #0x000e
    00001926 19               [11] 4947 	add	hl, de
    00001927 DD 7E FD         [19] 4948 	ld	a, -3 (ix)
    0000192A 77               [ 7] 4949 	ld	(hl), a
    0000192B 23               [ 6] 4950 	inc	hl
    0000192C DD 7E FE         [19] 4951 	ld	a, -2 (ix)
    0000192F 77               [ 7] 4952 	ld	(hl), a
    00001930                       4953 00172$:
                                   4954 ;./exsoccer.c:1083: for(u8 i=0; i<14; i++){
    00001930 DD 34 FF         [23] 4955 	inc	-1 (ix)
    00001933 C3r80r17         [10] 4956 	jp	00196$
    00001936                       4957 00175$:
                                   4958 ;./exsoccer.c:1130: i16 dx = (i16)g_Players[gkId].X - (i16)g_Players[gkId].TargetX;
    00001936 01r06r00         [10] 4959 	ld	bc, #_g_Players+0
    00001939 DD 5E F6         [19] 4960 	ld	e, -10 (ix)
    0000193C 16 00            [ 7] 4961 	ld	d, #0x00
    0000193E 6B               [ 4] 4962 	ld	l, e
    0000193F 62               [ 4] 4963 	ld	h, d
    00001940 29               [11] 4964 	add	hl, hl
    00001941 29               [11] 4965 	add	hl, hl
    00001942 19               [11] 4966 	add	hl, de
    00001943 29               [11] 4967 	add	hl, hl
    00001944 29               [11] 4968 	add	hl, hl
    00001945 19               [11] 4969 	add	hl, de
    00001946 09               [11] 4970 	add	hl, bc
    00001947 E3               [19] 4971 	ex	(sp), hl
    00001948 DD 7E F0         [19] 4972 	ld	a, -16 (ix)
    0000194B C6 02            [ 7] 4973 	add	a, #0x02
    0000194D DD 77 F2         [19] 4974 	ld	-14 (ix), a
    00001950 DD 7E F1         [19] 4975 	ld	a, -15 (ix)
    00001953 CE 00            [ 7] 4976 	adc	a, #0x00
    00001955 DD 77 F3         [19] 4977 	ld	-13 (ix), a
    00001958 DD 6E F2         [19] 4978 	ld	l, -14 (ix)
    0000195B DD 66 F3         [19] 4979 	ld	h, -13 (ix)
    0000195E 7E               [ 7] 4980 	ld	a, (hl)
    0000195F DD 77 FE         [19] 4981 	ld	-2 (ix), a
    00001962 23               [ 6] 4982 	inc	hl
    00001963 7E               [ 7] 4983 	ld	a, (hl)
    00001964 DD 77 FF         [19] 4984 	ld	-1 (ix), a
    00001967 DD 7E FE         [19] 4985 	ld	a, -2 (ix)
    0000196A DD 77 FA         [19] 4986 	ld	-6 (ix), a
    0000196D DD 7E FF         [19] 4987 	ld	a, -1 (ix)
    00001970 DD 77 FB         [19] 4988 	ld	-5 (ix), a
    00001973 DD 7E F0         [19] 4989 	ld	a, -16 (ix)
    00001976 DD 77 FE         [19] 4990 	ld	-2 (ix), a
    00001979 DD 7E F1         [19] 4991 	ld	a, -15 (ix)
    0000197C DD 77 FF         [19] 4992 	ld	-1 (ix), a
    0000197F DD 6E FE         [19] 4993 	ld	l, -2 (ix)
    00001982 DD 66 FF         [19] 4994 	ld	h, -1 (ix)
    00001985 11 10 00         [10] 4995 	ld	de, #0x0010
    00001988 19               [11] 4996 	add	hl, de
    00001989 7E               [ 7] 4997 	ld	a, (hl)
    0000198A DD 77 F4         [19] 4998 	ld	-12 (ix), a
    0000198D 23               [ 6] 4999 	inc	hl
    0000198E 7E               [ 7] 5000 	ld	a, (hl)
    0000198F DD 77 F5         [19] 5001 	ld	-11 (ix), a
    00001992 DD 7E F4         [19] 5002 	ld	a, -12 (ix)
    00001995 DD 77 FC         [19] 5003 	ld	-4 (ix), a
    00001998 DD 7E F5         [19] 5004 	ld	a, -11 (ix)
    0000199B DD 77 FD         [19] 5005 	ld	-3 (ix), a
    0000199E DD 7E FA         [19] 5006 	ld	a, -6 (ix)
    000019A1 DD 96 FC         [19] 5007 	sub	a, -4 (ix)
    000019A4 DD 77 FE         [19] 5008 	ld	-2 (ix), a
    000019A7 DD 7E FB         [19] 5009 	ld	a, -5 (ix)
    000019AA DD 9E FD         [19] 5010 	sbc	a, -3 (ix)
    000019AD DD 77 FF         [19] 5011 	ld	-1 (ix), a
    000019B0 DD 7E FE         [19] 5012 	ld	a, -2 (ix)
    000019B3 DD 77 F6         [19] 5013 	ld	-10 (ix), a
    000019B6 DD 7E FF         [19] 5014 	ld	a, -1 (ix)
    000019B9 DD 77 F7         [19] 5015 	ld	-9 (ix), a
                                   5016 ;./exsoccer.c:1131: i16 dy = (i16)g_Players[gkId].Y - (i16)g_Players[gkId].TargetY;
    000019BC E1               [10] 5017 	pop	hl
    000019BD E5               [11] 5018 	push	hl
    000019BE 7E               [ 7] 5019 	ld	a, (hl)
    000019BF DD 77 FE         [19] 5020 	ld	-2 (ix), a
    000019C2 23               [ 6] 5021 	inc	hl
    000019C3 7E               [ 7] 5022 	ld	a, (hl)
    000019C4 DD 77 FF         [19] 5023 	ld	-1 (ix), a
    000019C7 DD 7E FE         [19] 5024 	ld	a, -2 (ix)
    000019CA DD 77 F8         [19] 5025 	ld	-8 (ix), a
    000019CD DD 7E FF         [19] 5026 	ld	a, -1 (ix)
    000019D0 DD 77 F9         [19] 5027 	ld	-7 (ix), a
    000019D3 DD 7E F0         [19] 5028 	ld	a, -16 (ix)
    000019D6 C6 0E            [ 7] 5029 	add	a, #0x0e
    000019D8 DD 77 FA         [19] 5030 	ld	-6 (ix), a
    000019DB DD 7E F1         [19] 5031 	ld	a, -15 (ix)
    000019DE CE 00            [ 7] 5032 	adc	a, #0x00
    000019E0 DD 77 FB         [19] 5033 	ld	-5 (ix), a
    000019E3 DD 6E FA         [19] 5034 	ld	l, -6 (ix)
    000019E6 DD 66 FB         [19] 5035 	ld	h, -5 (ix)
    000019E9 7E               [ 7] 5036 	ld	a, (hl)
    000019EA DD 77 FE         [19] 5037 	ld	-2 (ix), a
    000019ED 23               [ 6] 5038 	inc	hl
    000019EE 7E               [ 7] 5039 	ld	a, (hl)
    000019EF DD 77 FF         [19] 5040 	ld	-1 (ix), a
    000019F2 DD 7E FE         [19] 5041 	ld	a, -2 (ix)
    000019F5 DD 77 FC         [19] 5042 	ld	-4 (ix), a
    000019F8 DD 7E FF         [19] 5043 	ld	a, -1 (ix)
    000019FB DD 77 FD         [19] 5044 	ld	-3 (ix), a
    000019FE DD 7E F8         [19] 5045 	ld	a, -8 (ix)
    00001A01 DD 96 FC         [19] 5046 	sub	a, -4 (ix)
    00001A04 DD 77 FE         [19] 5047 	ld	-2 (ix), a
    00001A07 DD 7E F9         [19] 5048 	ld	a, -7 (ix)
    00001A0A DD 9E FD         [19] 5049 	sbc	a, -3 (ix)
    00001A0D DD 77 FF         [19] 5050 	ld	-1 (ix), a
                                   5051 ;./exsoccer.c:1133: bool arrived = (dx >= -4 && dx <= 4 && dy >= -4 && dy <= 4);
    00001A10 DD 7E F6         [19] 5052 	ld	a, -10 (ix)
    00001A13 D6 FC            [ 7] 5053 	sub	a, #0xfc
    00001A15 DD 7E F7         [19] 5054 	ld	a, -9 (ix)
    00001A18 17               [ 4] 5055 	rla
    00001A19 3F               [ 4] 5056 	ccf
    00001A1A 1F               [ 4] 5057 	rra
    00001A1B DE 7F            [ 7] 5058 	sbc	a, #0x7f
    00001A1D 38 37            [12] 5059 	jr	C, 00199$
    00001A1F DD 4E F6         [19] 5060 	ld	c, -10 (ix)
    00001A22 DD 46 F7         [19] 5061 	ld	b, -9 (ix)
    00001A25 3E 04            [ 7] 5062 	ld	a, #0x04
    00001A27 B9               [ 4] 5063 	cp	a, c
    00001A28 3E 00            [ 7] 5064 	ld	a, #0x00
    00001A2A 98               [ 4] 5065 	sbc	a, b
    00001A2B E2r30r1A         [10] 5066 	jp	PO, 00457$
    00001A2E EE 80            [ 7] 5067 	xor	a, #0x80
    00001A30                       5068 00457$:
    00001A30 FAr56r1A         [10] 5069 	jp	M, 00199$
    00001A33 DD 7E FE         [19] 5070 	ld	a, -2 (ix)
    00001A36 D6 FC            [ 7] 5071 	sub	a, #0xfc
    00001A38 DD 7E FF         [19] 5072 	ld	a, -1 (ix)
    00001A3B 17               [ 4] 5073 	rla
    00001A3C 3F               [ 4] 5074 	ccf
    00001A3D 1F               [ 4] 5075 	rra
    00001A3E DE 7F            [ 7] 5076 	sbc	a, #0x7f
    00001A40 38 14            [12] 5077 	jr	C, 00199$
    00001A42 DD 4E FE         [19] 5078 	ld	c, -2 (ix)
    00001A45 DD 46 FF         [19] 5079 	ld	b, -1 (ix)
    00001A48 3E 04            [ 7] 5080 	ld	a, #0x04
    00001A4A B9               [ 4] 5081 	cp	a, c
    00001A4B 3E 00            [ 7] 5082 	ld	a, #0x00
    00001A4D 98               [ 4] 5083 	sbc	a, b
    00001A4E E2r53r1A         [10] 5084 	jp	PO, 00458$
    00001A51 EE 80            [ 7] 5085 	xor	a, #0x80
    00001A53                       5086 00458$:
    00001A53 F2r5Dr1A         [10] 5087 	jp	P, 00200$
    00001A56                       5088 00199$:
    00001A56 DD 36 FF 00      [19] 5089 	ld	-1 (ix), #0x00
    00001A5A C3r61r1A         [10] 5090 	jp	00201$
    00001A5D                       5091 00200$:
    00001A5D DD 36 FF 01      [19] 5092 	ld	-1 (ix), #0x01
    00001A61                       5093 00201$:
    00001A61 DD 7E FF         [19] 5094 	ld	a, -1 (ix)
                                   5095 ;./exsoccer.c:1135: if (arrived) {
    00001A64 B7               [ 4] 5096 	or	a, a
    00001A65 CAr7Br1B         [10] 5097 	jp	Z, 00193$
                                   5098 ;./exsoccer.c:1136: g_Players[gkId].X = g_Players[gkId].TargetX;
    00001A68 C1               [10] 5099 	pop	bc
    00001A69 E1               [10] 5100 	pop	hl
    00001A6A E5               [11] 5101 	push	hl
    00001A6B C5               [11] 5102 	push	bc
    00001A6C DD 7E F4         [19] 5103 	ld	a, -12 (ix)
    00001A6F 77               [ 7] 5104 	ld	(hl), a
    00001A70 23               [ 6] 5105 	inc	hl
    00001A71 DD 7E F5         [19] 5106 	ld	a, -11 (ix)
    00001A74 77               [ 7] 5107 	ld	(hl), a
                                   5108 ;./exsoccer.c:1137: g_Players[gkId].Y = g_Players[gkId].TargetY;
    00001A75 DD 6E FA         [19] 5109 	ld	l, -6 (ix)
    00001A78 DD 66 FB         [19] 5110 	ld	h, -5 (ix)
    00001A7B 4E               [ 7] 5111 	ld	c, (hl)
    00001A7C 23               [ 6] 5112 	inc	hl
    00001A7D 46               [ 7] 5113 	ld	b, (hl)
    00001A7E E1               [10] 5114 	pop	hl
    00001A7F E5               [11] 5115 	push	hl
    00001A80 71               [ 7] 5116 	ld	(hl), c
    00001A81 23               [ 6] 5117 	inc	hl
    00001A82 70               [ 7] 5118 	ld	(hl), b
                                   5119 ;./exsoccer.c:1139: if (g_RestartKickTeamId == TEAM_1) g_Players[gkId].Direction = DIRECTION_UP;
    00001A83 DD 7E F0         [19] 5120 	ld	a, -16 (ix)
    00001A86 C6 0A            [ 7] 5121 	add	a, #0x0a
    00001A88 DD 77 F8         [19] 5122 	ld	-8 (ix), a
    00001A8B DD 7E F1         [19] 5123 	ld	a, -15 (ix)
    00001A8E CE 00            [ 7] 5124 	adc	a, #0x00
    00001A90 DD 77 F9         [19] 5125 	ld	-7 (ix), a
    00001A93 3Ar7Er01         [13] 5126 	ld	a, (_g_RestartKickTeamId+0)
    00001A96 3D               [ 4] 5127 	dec	a
    00001A97 20 0B            [12] 5128 	jr	NZ, 00177$
    00001A99 DD 6E F8         [19] 5129 	ld	l, -8 (ix)
    00001A9C DD 66 F9         [19] 5130 	ld	h, -7 (ix)
    00001A9F 36 01            [10] 5131 	ld	(hl), #0x01
    00001AA1 C3rACr1A         [10] 5132 	jp	00178$
    00001AA4                       5133 00177$:
                                   5134 ;./exsoccer.c:1140: else g_Players[gkId].Direction = DIRECTION_DOWN;
    00001AA4 DD 6E F8         [19] 5135 	ld	l, -8 (ix)
    00001AA7 DD 66 F9         [19] 5136 	ld	h, -7 (ix)
    00001AAA 36 05            [10] 5137 	ld	(hl), #0x05
    00001AAC                       5138 00178$:
                                   5139 ;./exsoccer.c:1141: g_Players[gkId].PatternId = GetNoMovingPlayerPatternId(g_Players[gkId].Direction);
    00001AAC DD 7E F0         [19] 5140 	ld	a, -16 (ix)
    00001AAF C6 08            [ 7] 5141 	add	a, #0x08
    00001AB1 DD 77 FD         [19] 5142 	ld	-3 (ix), a
    00001AB4 DD 7E F1         [19] 5143 	ld	a, -15 (ix)
    00001AB7 CE 00            [ 7] 5144 	adc	a, #0x00
    00001AB9 DD 77 FE         [19] 5145 	ld	-2 (ix), a
    00001ABC DD 6E F8         [19] 5146 	ld	l, -8 (ix)
    00001ABF DD 66 F9         [19] 5147 	ld	h, -7 (ix)
    00001AC2 7E               [ 7] 5148 	ld	a, (hl)
    00001AC3 DD 77 FF         [19] 5149 	ld	-1 (ix), a
    00001AC6 CDr7Br13         [17] 5150 	call	_GetNoMovingPlayerPatternId
    00001AC9 DD 6E FD         [19] 5151 	ld	l, -3 (ix)
    00001ACC DD 66 FE         [19] 5152 	ld	h, -2 (ix)
    00001ACF 77               [ 7] 5153 	ld	(hl), a
                                   5154 ;./exsoccer.c:1142: g_Players[gkId].Status = PLAYER_STATUS_POSITIONED;
    00001AD0 DD 7E F0         [19] 5155 	ld	a, -16 (ix)
    00001AD3 C6 12            [ 7] 5156 	add	a, #0x12
    00001AD5 DD 77 FE         [19] 5157 	ld	-2 (ix), a
    00001AD8 DD 7E F1         [19] 5158 	ld	a, -15 (ix)
    00001ADB CE 00            [ 7] 5159 	adc	a, #0x00
    00001ADD DD 77 FF         [19] 5160 	ld	-1 (ix), a
    00001AE0 DD 6E FE         [19] 5161 	ld	l, -2 (ix)
    00001AE3 DD 66 FF         [19] 5162 	ld	h, -1 (ix)
    00001AE6 36 04            [10] 5163 	ld	(hl), #0x04
    00001AE8 23               [ 6] 5164 	inc	hl
    00001AE9 36 00            [10] 5165 	ld	(hl), #0x00
                                   5166 ;./exsoccer.c:1131: i16 dy = (i16)g_Players[gkId].Y - (i16)g_Players[gkId].TargetY;
    00001AEB E1               [10] 5167 	pop	hl
    00001AEC E5               [11] 5168 	push	hl
    00001AED 4E               [ 7] 5169 	ld	c, (hl)
    00001AEE 23               [ 6] 5170 	inc	hl
    00001AEF 46               [ 7] 5171 	ld	b, (hl)
                                   5172 ;./exsoccer.c:1145: u16 distY = (g_Players[gkId].Y > g_Ball.Y) ? (g_Players[gkId].Y - g_Ball.Y) : (g_Ball.Y - g_Players[gkId].Y);
    00001AF0 2Ar5Fr01         [16] 5173 	ld	hl, (#_g_Ball + 0)
    00001AF3 7D               [ 4] 5174 	ld	a, l
    00001AF4 91               [ 4] 5175 	sub	a, c
    00001AF5 7C               [ 4] 5176 	ld	a, h
    00001AF6 98               [ 4] 5177 	sbc	a, b
    00001AF7 30 08            [12] 5178 	jr	NC, 00208$
    00001AF9 79               [ 4] 5179 	ld	a, c
    00001AFA 95               [ 4] 5180 	sub	a, l
    00001AFB 4F               [ 4] 5181 	ld	c, a
    00001AFC 78               [ 4] 5182 	ld	a, b
    00001AFD 9C               [ 4] 5183 	sbc	a, h
    00001AFE C3r06r1B         [10] 5184 	jp	00209$
    00001B01                       5185 00208$:
    00001B01 7D               [ 4] 5186 	ld	a, l
    00001B02 91               [ 4] 5187 	sub	a, c
    00001B03 4F               [ 4] 5188 	ld	c, a
    00001B04 7C               [ 4] 5189 	ld	a, h
    00001B05 98               [ 4] 5190 	sbc	a, b
    00001B06                       5191 00209$:
                                   5192 ;./exsoccer.c:1147: if (distY > 16) {
    00001B06 47               [ 4] 5193 	ld	b, a
                                   5194 ;./exsoccer.c:1039: g_Timer++;
    00001B07 3Ar06r00         [13] 5195 	ld	a, (_g_Timer+0)
    00001B0A 3C               [ 4] 5196 	inc	a
    00001B0B DD 77 FD         [19] 5197 	ld	-3 (ix), a
                                   5198 ;./exsoccer.c:1147: if (distY > 16) {
    00001B0E 3E 10            [ 7] 5199 	ld	a, #0x10
    00001B10 B9               [ 4] 5200 	cp	a, c
    00001B11 3E 00            [ 7] 5201 	ld	a, #0x00
    00001B13 98               [ 4] 5202 	sbc	a, b
    00001B14 30 3C            [12] 5203 	jr	NC, 00187$
                                   5204 ;./exsoccer.c:1149: g_Timer++;
    00001B16 DD 7E FD         [19] 5205 	ld	a, -3 (ix)
    00001B19 32r06r00         [13] 5206 	ld	(_g_Timer+0), a
                                   5207 ;./exsoccer.c:1150: if (g_Timer > 100) {
    00001B1C 3E 64            [ 7] 5208 	ld	a, #0x64
    00001B1E 21r06r00         [10] 5209 	ld	hl, #_g_Timer
    00001B21 96               [ 7] 5210 	sub	a, (hl)
    00001B22 30 6B            [12] 5211 	jr	NC, 00197$
                                   5212 ;./exsoccer.c:1145: u16 distY = (g_Players[gkId].Y > g_Ball.Y) ? (g_Players[gkId].Y - g_Ball.Y) : (g_Ball.Y - g_Players[gkId].Y);
    00001B24 2Ar5Fr01         [16] 5213 	ld	hl, (#_g_Ball + 0)
                                   5214 ;./exsoccer.c:1153: if (g_RestartKickTeamId == TEAM_1) kickY = g_Ball.Y + 6; 
    00001B27 3Ar7Er01         [13] 5215 	ld	a, (_g_RestartKickTeamId+0)
    00001B2A 3D               [ 4] 5216 	dec	a
    00001B2B 20 09            [12] 5217 	jr	NZ, 00180$
    00001B2D 01 06 00         [10] 5218 	ld	bc, #0x0006
    00001B30 09               [11] 5219 	add	hl, bc
    00001B31 4D               [ 4] 5220 	ld	c, l
    00001B32 44               [ 4] 5221 	ld	b, h
    00001B33 C3r3Cr1B         [10] 5222 	jp	00181$
    00001B36                       5223 00180$:
                                   5224 ;./exsoccer.c:1154: else kickY = g_Ball.Y - 6;
    00001B36 01 FA FF         [10] 5225 	ld	bc, #0xfffa
    00001B39 09               [11] 5226 	add	hl,bc
    00001B3A 4D               [ 4] 5227 	ld	c, l
    00001B3B 44               [ 4] 5228 	ld	b, h
    00001B3C                       5229 00181$:
                                   5230 ;./exsoccer.c:1156: g_Players[gkId].TargetY = kickY;
    00001B3C DD 6E FA         [19] 5231 	ld	l, -6 (ix)
    00001B3F DD 66 FB         [19] 5232 	ld	h, -5 (ix)
    00001B42 71               [ 7] 5233 	ld	(hl), c
    00001B43 23               [ 6] 5234 	inc	hl
    00001B44 70               [ 7] 5235 	ld	(hl), b
                                   5236 ;./exsoccer.c:1157: g_Players[gkId].Status = PLAYER_STATUS_NONE;
    00001B45 DD 6E FE         [19] 5237 	ld	l, -2 (ix)
    00001B48 DD 66 FF         [19] 5238 	ld	h, -1 (ix)
    00001B4B AF               [ 4] 5239 	xor	a, a
    00001B4C 77               [ 7] 5240 	ld	(hl), a
    00001B4D 23               [ 6] 5241 	inc	hl
    00001B4E 77               [ 7] 5242 	ld	(hl), a
    00001B4F C3r8Fr1B         [10] 5243 	jp	00197$
    00001B52                       5244 00187$:
                                   5245 ;./exsoccer.c:1161: g_Timer++;
    00001B52 DD 7E FD         [19] 5246 	ld	a, -3 (ix)
    00001B55 32r06r00         [13] 5247 	ld	(_g_Timer+0), a
                                   5248 ;./exsoccer.c:1162: if (g_Timer > 110) {
    00001B58 3E 6E            [ 7] 5249 	ld	a, #0x6e
    00001B5A 21r06r00         [10] 5250 	ld	hl, #_g_Timer
    00001B5D 96               [ 7] 5251 	sub	a, (hl)
    00001B5E 30 2F            [12] 5252 	jr	NC, 00197$
                                   5253 ;./exsoccer.c:1163: ClearTextFromLayerA(10, 18, 9); 
    00001B60 3E 09            [ 7] 5254 	ld	a, #0x09
    00001B62 F5               [11] 5255 	push	af
    00001B63 33               [ 6] 5256 	inc	sp
    00001B64 2E 12            [ 7] 5257 	ld	l, #0x12
                                   5258 ;	spillPairReg hl
                                   5259 ;	spillPairReg hl
    00001B66 3E 0A            [ 7] 5260 	ld	a, #0x0a
    00001B68 CDr00r00         [17] 5261 	call	_ClearTextFromLayerA
                                   5262 ;./exsoccer.c:1164: GoalkeeperWithBall(g_RestartKickTeamId, true); 
    00001B6B 2E 01            [ 7] 5263 	ld	l, #0x01
                                   5264 ;	spillPairReg hl
                                   5265 ;	spillPairReg hl
    00001B6D 3Ar7Er01         [13] 5266 	ld	a, (_g_RestartKickTeamId+0)
    00001B70 CDr00r00         [17] 5267 	call	_GoalkeeperWithBall
                                   5268 ;./exsoccer.c:1165: g_GkRecoilY = 0;
    00001B73 21r18r00         [10] 5269 	ld	hl, #_g_GkRecoilY
    00001B76 36 00            [10] 5270 	ld	(hl), #0x00
    00001B78 C3r8Fr1B         [10] 5271 	jp	00197$
    00001B7B                       5272 00193$:
                                   5273 ;./exsoccer.c:1170: if (g_Timer < 100) g_Timer = 61; // Hold at 61 while moving to start
    00001B7B 3Ar06r00         [13] 5274 	ld	a, (_g_Timer+0)
    00001B7E D6 64            [ 7] 5275 	sub	a, #0x64
    00001B80 30 08            [12] 5276 	jr	NC, 00190$
    00001B82 21r06r00         [10] 5277 	ld	hl, #_g_Timer
    00001B85 36 3D            [10] 5278 	ld	(hl), #0x3d
    00001B87 C3r8Fr1B         [10] 5279 	jp	00197$
    00001B8A                       5280 00190$:
                                   5281 ;./exsoccer.c:1171: else g_Timer = 101; // Hold at 101 while moving to ball
    00001B8A 21r06r00         [10] 5282 	ld	hl, #_g_Timer
    00001B8D 36 65            [10] 5283 	ld	(hl), #0x65
    00001B8F                       5284 00197$:
                                   5285 ;./exsoccer.c:1173: }
    00001B8F DD F9            [10] 5286 	ld	sp, ix
    00001B91 DD E1            [14] 5287 	pop	ix
    00001B93 C9               [10] 5288 	ret
                                   5289 ;./exsoccer.c:1311: void TickCornerKick() {
                                   5290 ;	---------------------------------
                                   5291 ; Function TickCornerKick
                                   5292 ; ---------------------------------
    00001B94                       5293 _TickCornerKick::
    00001B94 DD E5            [15] 5294 	push	ix
    00001B96 DD 21 00 00      [14] 5295 	ld	ix,#0
    00001B9A DD 39            [15] 5296 	add	ix,sp
    00001B9C 21 E9 FF         [10] 5297 	ld	hl, #-23
    00001B9F 39               [11] 5298 	add	hl, sp
    00001BA0 F9               [ 6] 5299 	ld	sp, hl
                                   5300 ;./exsoccer.c:1312: if (g_MatchStatus != MATCH_BEFORE_CORNER_KICK) return;
    00001BA1 3Ar04r00         [13] 5301 	ld	a, (_g_MatchStatus+0)
    00001BA4 D6 02            [ 7] 5302 	sub	a, #0x02
    00001BA6 C2r6Cr26         [10] 5303 	jp	NZ,00270$
                                   5304 ;./exsoccer.c:1315: if (g_Timer == 0) s_ForceKickTimer = 0;
    00001BA9 3Ar06r00         [13] 5305 	ld	a, (_g_Timer+0)
    00001BAC B7               [ 4] 5306 	or	a, a
    00001BAD 20 06            [12] 5307 	jr	NZ, 00104$
    00001BAF 21 00 00         [10] 5308 	ld	hl, #0x0000
    00001BB2 22r80r01         [16] 5309 	ld	(_TickCornerKick_s_ForceKickTimer_65537_1604), hl
    00001BB5                       5310 00104$:
                                   5311 ;./exsoccer.c:1321: if (g_Ball.PossessionPlayerId != NO_VALUE) {
    00001BB5 3Ar65r01         [13] 5312 	ld	a, (#(_g_Ball + 6) + 0)
    00001BB8 FE FF            [ 7] 5313 	cp	a, #0xff
    00001BBA 28 06            [12] 5314 	jr	Z, 00109$
                                   5315 ;./exsoccer.c:1322: kickerId = g_Ball.PossessionPlayerId;
    00001BBC DD 77 E9         [19] 5316 	ld	-23 (ix), a
    00001BBF C3rE1r1B         [10] 5317 	jp	00110$
    00001BC2                       5318 00109$:
                                   5319 ;./exsoccer.c:1324: if (g_CornerKickSide == CORNER_SIDE_LEFT) kickerId = GetPlayerIdByRole(g_RestartKickTeamId, PLAYER_ROLE_LEFT_STRIKER);
    00001BC2 3Ar13r00         [13] 5320 	ld	a, (_g_CornerKickSide+0)
    00001BC5 B7               [ 4] 5321 	or	a, a
    00001BC6 20 0E            [12] 5322 	jr	NZ, 00106$
    00001BC8 2E 05            [ 7] 5323 	ld	l, #0x05
                                   5324 ;	spillPairReg hl
                                   5325 ;	spillPairReg hl
    00001BCA 3Ar7Er01         [13] 5326 	ld	a, (_g_RestartKickTeamId+0)
    00001BCD CDr00r00         [17] 5327 	call	_GetPlayerIdByRole
    00001BD0 DD 77 E9         [19] 5328 	ld	-23 (ix), a
    00001BD3 C3rE1r1B         [10] 5329 	jp	00110$
    00001BD6                       5330 00106$:
                                   5331 ;./exsoccer.c:1325: else kickerId = GetPlayerIdByRole(g_RestartKickTeamId, PLAYER_ROLE_RIGHT_STRIKER);
    00001BD6 2E 06            [ 7] 5332 	ld	l, #0x06
                                   5333 ;	spillPairReg hl
                                   5334 ;	spillPairReg hl
    00001BD8 3Ar7Er01         [13] 5335 	ld	a, (_g_RestartKickTeamId+0)
    00001BDB CDr00r00         [17] 5336 	call	_GetPlayerIdByRole
    00001BDE DD 77 E9         [19] 5337 	ld	-23 (ix), a
    00001BE1                       5338 00110$:
                                   5339 ;./exsoccer.c:1329: if (kickerId == NO_VALUE) {
    00001BE1 DD 7E E9         [19] 5340 	ld	a, -23 (ix)
    00001BE4 3C               [ 4] 5341 	inc	a
    00001BE5 20 0B            [12] 5342 	jr	NZ, 00112$
                                   5343 ;./exsoccer.c:1330: kickerId = GetClosestPlayerToBall(g_RestartKickTeamId, NO_VALUE);
    00001BE7 2E FF            [ 7] 5344 	ld	l, #0xff
                                   5345 ;	spillPairReg hl
                                   5346 ;	spillPairReg hl
    00001BE9 3Ar7Er01         [13] 5347 	ld	a, (_g_RestartKickTeamId+0)
    00001BEC CDr00r00         [17] 5348 	call	_GetClosestPlayerToBall
    00001BEF DD 77 E9         [19] 5349 	ld	-23 (ix), a
    00001BF2                       5350 00112$:
                                   5351 ;./exsoccer.c:1338: bool kickerArrived = false;
    00001BF2 DD 36 EA 00      [19] 5352 	ld	-22 (ix), #0x00
                                   5353 ;./exsoccer.c:1339: if (kickerId != NO_VALUE) {
    00001BF6 DD 7E E9         [19] 5354 	ld	a, -23 (ix)
    00001BF9 3C               [ 4] 5355 	inc	a
    00001BFA 3E 01            [ 7] 5356 	ld	a, #0x01
    00001BFC 28 01            [12] 5357 	jr	Z, 00800$
    00001BFE AF               [ 4] 5358 	xor	a, a
    00001BFF                       5359 00800$:
    00001BFF DD 77 EB         [19] 5360 	ld	-21 (ix), a
    00001C02 DD CB EB 46      [20] 5361 	bit	0, -21 (ix)
    00001C06 C2r8Fr1D         [10] 5362 	jp	NZ, 00121$
                                   5363 ;./exsoccer.c:1340: i16 dx = (i16)g_Players[kickerId].X - (i16)g_Players[kickerId].TargetX;
    00001C09 DD 4E E9         [19] 5364 	ld	c, -23 (ix)
    00001C0C 06 00            [ 7] 5365 	ld	b, #0x00
    00001C0E 69               [ 4] 5366 	ld	l, c
    00001C0F 60               [ 4] 5367 	ld	h, b
    00001C10 29               [11] 5368 	add	hl, hl
    00001C11 29               [11] 5369 	add	hl, hl
    00001C12 09               [11] 5370 	add	hl, bc
    00001C13 29               [11] 5371 	add	hl, hl
    00001C14 29               [11] 5372 	add	hl, hl
    00001C15 09               [11] 5373 	add	hl, bc
    00001C16 DD 75 FE         [19] 5374 	ld	-2 (ix), l
    00001C19 DD 74 FF         [19] 5375 	ld	-1 (ix), h
    00001C1C 3Er06            [ 7] 5376 	ld	a, #<(_g_Players)
    00001C1E DD 86 FE         [19] 5377 	add	a, -2 (ix)
    00001C21 DD 77 F0         [19] 5378 	ld	-16 (ix), a
    00001C24 3Es00            [ 7] 5379 	ld	a, #>(_g_Players)
    00001C26 DD 8E FF         [19] 5380 	adc	a, -1 (ix)
    00001C29 DD 77 F1         [19] 5381 	ld	-15 (ix), a
    00001C2C DD 7E F0         [19] 5382 	ld	a, -16 (ix)
    00001C2F C6 02            [ 7] 5383 	add	a, #0x02
    00001C31 DD 77 F2         [19] 5384 	ld	-14 (ix), a
    00001C34 DD 7E F1         [19] 5385 	ld	a, -15 (ix)
    00001C37 CE 00            [ 7] 5386 	adc	a, #0x00
    00001C39 DD 77 F3         [19] 5387 	ld	-13 (ix), a
    00001C3C DD 6E F2         [19] 5388 	ld	l, -14 (ix)
    00001C3F DD 66 F3         [19] 5389 	ld	h, -13 (ix)
    00001C42 7E               [ 7] 5390 	ld	a, (hl)
    00001C43 DD 77 FE         [19] 5391 	ld	-2 (ix), a
    00001C46 23               [ 6] 5392 	inc	hl
    00001C47 7E               [ 7] 5393 	ld	a, (hl)
    00001C48 DD 77 FF         [19] 5394 	ld	-1 (ix), a
    00001C4B DD 7E FE         [19] 5395 	ld	a, -2 (ix)
    00001C4E DD 77 FA         [19] 5396 	ld	-6 (ix), a
    00001C51 DD 7E FF         [19] 5397 	ld	a, -1 (ix)
    00001C54 DD 77 FB         [19] 5398 	ld	-5 (ix), a
    00001C57 DD 7E F0         [19] 5399 	ld	a, -16 (ix)
    00001C5A DD 77 FE         [19] 5400 	ld	-2 (ix), a
    00001C5D DD 7E F1         [19] 5401 	ld	a, -15 (ix)
    00001C60 DD 77 FF         [19] 5402 	ld	-1 (ix), a
    00001C63 DD 6E FE         [19] 5403 	ld	l, -2 (ix)
    00001C66 DD 66 FF         [19] 5404 	ld	h, -1 (ix)
    00001C69 11 10 00         [10] 5405 	ld	de, #0x0010
    00001C6C 19               [11] 5406 	add	hl, de
    00001C6D 7E               [ 7] 5407 	ld	a, (hl)
    00001C6E DD 77 F4         [19] 5408 	ld	-12 (ix), a
    00001C71 23               [ 6] 5409 	inc	hl
    00001C72 7E               [ 7] 5410 	ld	a, (hl)
    00001C73 DD 77 F5         [19] 5411 	ld	-11 (ix), a
    00001C76 DD 7E F4         [19] 5412 	ld	a, -12 (ix)
    00001C79 DD 77 FC         [19] 5413 	ld	-4 (ix), a
    00001C7C DD 7E F5         [19] 5414 	ld	a, -11 (ix)
    00001C7F DD 77 FD         [19] 5415 	ld	-3 (ix), a
    00001C82 DD 7E FA         [19] 5416 	ld	a, -6 (ix)
    00001C85 DD 96 FC         [19] 5417 	sub	a, -4 (ix)
    00001C88 DD 77 FE         [19] 5418 	ld	-2 (ix), a
    00001C8B DD 7E FB         [19] 5419 	ld	a, -5 (ix)
    00001C8E DD 9E FD         [19] 5420 	sbc	a, -3 (ix)
    00001C91 DD 77 FF         [19] 5421 	ld	-1 (ix), a
    00001C94 DD 7E FE         [19] 5422 	ld	a, -2 (ix)
    00001C97 DD 77 F6         [19] 5423 	ld	-10 (ix), a
    00001C9A DD 7E FF         [19] 5424 	ld	a, -1 (ix)
    00001C9D DD 77 F7         [19] 5425 	ld	-9 (ix), a
                                   5426 ;./exsoccer.c:1341: i16 dy = (i16)g_Players[kickerId].Y - (i16)g_Players[kickerId].TargetY;
    00001CA0 DD 6E F0         [19] 5427 	ld	l, -16 (ix)
    00001CA3 DD 66 F1         [19] 5428 	ld	h, -15 (ix)
    00001CA6 7E               [ 7] 5429 	ld	a, (hl)
    00001CA7 DD 77 FE         [19] 5430 	ld	-2 (ix), a
    00001CAA 23               [ 6] 5431 	inc	hl
    00001CAB 7E               [ 7] 5432 	ld	a, (hl)
    00001CAC DD 77 FF         [19] 5433 	ld	-1 (ix), a
    00001CAF DD 7E FE         [19] 5434 	ld	a, -2 (ix)
    00001CB2 DD 77 F8         [19] 5435 	ld	-8 (ix), a
    00001CB5 DD 7E FF         [19] 5436 	ld	a, -1 (ix)
    00001CB8 DD 77 F9         [19] 5437 	ld	-7 (ix), a
    00001CBB DD 7E F0         [19] 5438 	ld	a, -16 (ix)
    00001CBE C6 0E            [ 7] 5439 	add	a, #0x0e
    00001CC0 DD 77 FA         [19] 5440 	ld	-6 (ix), a
    00001CC3 DD 7E F1         [19] 5441 	ld	a, -15 (ix)
    00001CC6 CE 00            [ 7] 5442 	adc	a, #0x00
    00001CC8 DD 77 FB         [19] 5443 	ld	-5 (ix), a
    00001CCB DD 6E FA         [19] 5444 	ld	l, -6 (ix)
    00001CCE DD 66 FB         [19] 5445 	ld	h, -5 (ix)
    00001CD1 7E               [ 7] 5446 	ld	a, (hl)
    00001CD2 DD 77 FE         [19] 5447 	ld	-2 (ix), a
    00001CD5 23               [ 6] 5448 	inc	hl
    00001CD6 7E               [ 7] 5449 	ld	a, (hl)
    00001CD7 DD 77 FF         [19] 5450 	ld	-1 (ix), a
    00001CDA DD 7E FE         [19] 5451 	ld	a, -2 (ix)
    00001CDD DD 77 FC         [19] 5452 	ld	-4 (ix), a
    00001CE0 DD 7E FF         [19] 5453 	ld	a, -1 (ix)
    00001CE3 DD 77 FD         [19] 5454 	ld	-3 (ix), a
    00001CE6 DD 7E F8         [19] 5455 	ld	a, -8 (ix)
    00001CE9 DD 96 FC         [19] 5456 	sub	a, -4 (ix)
    00001CEC DD 77 FE         [19] 5457 	ld	-2 (ix), a
    00001CEF DD 7E F9         [19] 5458 	ld	a, -7 (ix)
    00001CF2 DD 9E FD         [19] 5459 	sbc	a, -3 (ix)
    00001CF5 DD 77 FF         [19] 5460 	ld	-1 (ix), a
                                   5461 ;./exsoccer.c:1343: if (dx >= -2 && dx <= 2 && dy >= -2 && dy <= 2) {
    00001CF8 DD 7E F6         [19] 5462 	ld	a, -10 (ix)
    00001CFB D6 FE            [ 7] 5463 	sub	a, #0xfe
    00001CFD DD 7E F7         [19] 5464 	ld	a, -9 (ix)
    00001D00 17               [ 4] 5465 	rla
    00001D01 3F               [ 4] 5466 	ccf
    00001D02 1F               [ 4] 5467 	rra
    00001D03 DE 7F            [ 7] 5468 	sbc	a, #0x7f
    00001D05 DAr8Fr1D         [10] 5469 	jp	C, 00121$
    00001D08 DD 4E F6         [19] 5470 	ld	c, -10 (ix)
    00001D0B DD 46 F7         [19] 5471 	ld	b, -9 (ix)
    00001D0E 3E 02            [ 7] 5472 	ld	a, #0x02
    00001D10 B9               [ 4] 5473 	cp	a, c
    00001D11 3E 00            [ 7] 5474 	ld	a, #0x00
    00001D13 98               [ 4] 5475 	sbc	a, b
    00001D14 E2r19r1D         [10] 5476 	jp	PO, 00801$
    00001D17 EE 80            [ 7] 5477 	xor	a, #0x80
    00001D19                       5478 00801$:
    00001D19 FAr8Fr1D         [10] 5479 	jp	M, 00121$
    00001D1C DD 7E FE         [19] 5480 	ld	a, -2 (ix)
    00001D1F D6 FE            [ 7] 5481 	sub	a, #0xfe
    00001D21 DD 7E FF         [19] 5482 	ld	a, -1 (ix)
    00001D24 17               [ 4] 5483 	rla
    00001D25 3F               [ 4] 5484 	ccf
    00001D26 1F               [ 4] 5485 	rra
    00001D27 DE 7F            [ 7] 5486 	sbc	a, #0x7f
    00001D29 38 64            [12] 5487 	jr	C, 00121$
    00001D2B DD 4E FE         [19] 5488 	ld	c, -2 (ix)
    00001D2E DD 46 FF         [19] 5489 	ld	b, -1 (ix)
    00001D31 3E 02            [ 7] 5490 	ld	a, #0x02
    00001D33 B9               [ 4] 5491 	cp	a, c
    00001D34 3E 00            [ 7] 5492 	ld	a, #0x00
    00001D36 98               [ 4] 5493 	sbc	a, b
    00001D37 E2r3Cr1D         [10] 5494 	jp	PO, 00802$
    00001D3A EE 80            [ 7] 5495 	xor	a, #0x80
    00001D3C                       5496 00802$:
    00001D3C FAr8Fr1D         [10] 5497 	jp	M, 00121$
                                   5498 ;./exsoccer.c:1344: kickerArrived = true;
    00001D3F DD 36 EA 01      [19] 5499 	ld	-22 (ix), #0x01
                                   5500 ;./exsoccer.c:1345: g_Players[kickerId].X = g_Players[kickerId].TargetX;
    00001D43 DD 6E F2         [19] 5501 	ld	l, -14 (ix)
    00001D46 DD 66 F3         [19] 5502 	ld	h, -13 (ix)
    00001D49 DD 7E F4         [19] 5503 	ld	a, -12 (ix)
    00001D4C 77               [ 7] 5504 	ld	(hl), a
    00001D4D 23               [ 6] 5505 	inc	hl
    00001D4E DD 7E F5         [19] 5506 	ld	a, -11 (ix)
    00001D51 77               [ 7] 5507 	ld	(hl), a
                                   5508 ;./exsoccer.c:1346: g_Players[kickerId].Y = g_Players[kickerId].TargetY;
    00001D52 DD 6E FA         [19] 5509 	ld	l, -6 (ix)
    00001D55 DD 66 FB         [19] 5510 	ld	h, -5 (ix)
    00001D58 4E               [ 7] 5511 	ld	c, (hl)
    00001D59 23               [ 6] 5512 	inc	hl
    00001D5A 46               [ 7] 5513 	ld	b, (hl)
    00001D5B DD 6E F0         [19] 5514 	ld	l, -16 (ix)
    00001D5E DD 66 F1         [19] 5515 	ld	h, -15 (ix)
    00001D61 71               [ 7] 5516 	ld	(hl), c
    00001D62 23               [ 6] 5517 	inc	hl
    00001D63 70               [ 7] 5518 	ld	(hl), b
                                   5519 ;./exsoccer.c:1347: g_Players[kickerId].Status = PLAYER_STATUS_POSITIONED;
    00001D64 DD 6E F0         [19] 5520 	ld	l, -16 (ix)
    00001D67 DD 66 F1         [19] 5521 	ld	h, -15 (ix)
    00001D6A 11 12 00         [10] 5522 	ld	de, #0x0012
    00001D6D 19               [11] 5523 	add	hl, de
    00001D6E 36 04            [10] 5524 	ld	(hl), #0x04
    00001D70 23               [ 6] 5525 	inc	hl
    00001D71 36 00            [10] 5526 	ld	(hl), #0x00
                                   5527 ;./exsoccer.c:1349: if (g_Ball.PossessionPlayerId != kickerId) {
    00001D73 21r65r01         [10] 5528 	ld	hl, #(_g_Ball + 6)
    00001D76 DD 7E E9         [19] 5529 	ld	a,-23 (ix)
    00001D79 96               [ 7] 5530 	sub	a,(hl)
    00001D7A 28 13            [12] 5531 	jr	Z, 00121$
                                   5532 ;./exsoccer.c:1350: SetPlayerBallPossession(kickerId);
    00001D7C DD 7E E9         [19] 5533 	ld	a, -23 (ix)
    00001D7F CDr29r16         [17] 5534 	call	_SetPlayerBallPossession
                                   5535 ;./exsoccer.c:1351: g_Ball.PossessionPlayerId = kickerId;
    00001D82 21r65r01         [10] 5536 	ld	hl, #(_g_Ball + 6)
    00001D85 DD 7E E9         [19] 5537 	ld	a, -23 (ix)
    00001D88 77               [ 7] 5538 	ld	(hl), a
                                   5539 ;./exsoccer.c:1352: PutBallOnPlayerFeet(kickerId);
    00001D89 DD 7E E9         [19] 5540 	ld	a, -23 (ix)
    00001D8C CDr00r00         [17] 5541 	call	_PutBallOnPlayerFeet
    00001D8F                       5542 00121$:
                                   5543 ;./exsoccer.c:1358: bool teammatesArrived = true;
    00001D8F DD 36 EC 01      [19] 5544 	ld	-20 (ix), #0x01
                                   5545 ;./exsoccer.c:1359: for(u8 i=0; i<14; i++) {
    00001D93 DD 36 FF 00      [19] 5546 	ld	-1 (ix), #0x00
    00001D97                       5547 00263$:
    00001D97 DD 7E FF         [19] 5548 	ld	a, -1 (ix)
    00001D9A D6 0E            [ 7] 5549 	sub	a, #0x0e
    00001D9C D2r6Er1F         [10] 5550 	jp	NC, 00134$
                                   5551 ;./exsoccer.c:1360: if (g_Players[i].TeamId == g_RestartKickTeamId && i != kickerId && g_Players[i].Role != PLAYER_ROLE_GOALKEEPER) {
    00001D9F DD 4E FF         [19] 5552 	ld	c, -1 (ix)
    00001DA2 06 00            [ 7] 5553 	ld	b, #0x00
    00001DA4 69               [ 4] 5554 	ld	l, c
    00001DA5 60               [ 4] 5555 	ld	h, b
    00001DA6 29               [11] 5556 	add	hl, hl
    00001DA7 29               [11] 5557 	add	hl, hl
    00001DA8 09               [11] 5558 	add	hl, bc
    00001DA9 29               [11] 5559 	add	hl, hl
    00001DAA 29               [11] 5560 	add	hl, hl
    00001DAB 09               [11] 5561 	add	hl, bc
    00001DAC DD 75 FD         [19] 5562 	ld	-3 (ix), l
    00001DAF DD 74 FE         [19] 5563 	ld	-2 (ix), h
    00001DB2 DD 7E FD         [19] 5564 	ld	a, -3 (ix)
    00001DB5 C6r06            [ 7] 5565 	add	a, #<(_g_Players)
    00001DB7 DD 77 ED         [19] 5566 	ld	-19 (ix), a
    00001DBA DD 7E FE         [19] 5567 	ld	a, -2 (ix)
    00001DBD CEs00            [ 7] 5568 	adc	a, #>(_g_Players)
    00001DBF DD 77 EE         [19] 5569 	ld	-18 (ix), a
    00001DC2 DD 7E ED         [19] 5570 	ld	a, -19 (ix)
    00001DC5 DD 77 FD         [19] 5571 	ld	-3 (ix), a
    00001DC8 DD 7E EE         [19] 5572 	ld	a, -18 (ix)
    00001DCB DD 77 FE         [19] 5573 	ld	-2 (ix), a
    00001DCE DD 6E FD         [19] 5574 	ld	l, -3 (ix)
    00001DD1 DD 66 FE         [19] 5575 	ld	h, -2 (ix)
    00001DD4 11 09 00         [10] 5576 	ld	de, #0x0009
    00001DD7 19               [11] 5577 	add	hl, de
    00001DD8 4E               [ 7] 5578 	ld	c, (hl)
    00001DD9 3Ar7Er01         [13] 5579 	ld	a, (_g_RestartKickTeamId+0)
    00001DDC 91               [ 4] 5580 	sub	a, c
    00001DDD C2r68r1F         [10] 5581 	jp	NZ,00264$
    00001DE0 DD 7E FF         [19] 5582 	ld	a, -1 (ix)
    00001DE3 DD 96 E9         [19] 5583 	sub	a, -23 (ix)
    00001DE6 CAr68r1F         [10] 5584 	jp	Z,00264$
    00001DE9 DD 7E ED         [19] 5585 	ld	a, -19 (ix)
    00001DEC DD 77 FD         [19] 5586 	ld	-3 (ix), a
    00001DEF DD 7E EE         [19] 5587 	ld	a, -18 (ix)
    00001DF2 DD 77 FE         [19] 5588 	ld	-2 (ix), a
    00001DF5 DD 6E FD         [19] 5589 	ld	l, -3 (ix)
    00001DF8 DD 66 FE         [19] 5590 	ld	h, -2 (ix)
    00001DFB 11 0D 00         [10] 5591 	ld	de, #0x000d
    00001DFE 19               [11] 5592 	add	hl, de
    00001DFF 7E               [ 7] 5593 	ld	a, (hl)
    00001E00 DD 77 FE         [19] 5594 	ld	-2 (ix), a
    00001E03 B7               [ 4] 5595 	or	a, a
    00001E04 CAr68r1F         [10] 5596 	jp	Z, 00264$
                                   5597 ;./exsoccer.c:1362: if (g_Players[i].Status != PLAYER_STATUS_POSITIONED) {
    00001E07 DD 7E ED         [19] 5598 	ld	a, -19 (ix)
    00001E0A C6 12            [ 7] 5599 	add	a, #0x12
    00001E0C DD 77 EF         [19] 5600 	ld	-17 (ix), a
    00001E0F DD 7E EE         [19] 5601 	ld	a, -18 (ix)
    00001E12 CE 00            [ 7] 5602 	adc	a, #0x00
    00001E14 DD 77 F0         [19] 5603 	ld	-16 (ix), a
    00001E17 DD 6E EF         [19] 5604 	ld	l, -17 (ix)
    00001E1A DD 66 F0         [19] 5605 	ld	h, -16 (ix)
    00001E1D 7E               [ 7] 5606 	ld	a, (hl)
    00001E1E DD 77 FD         [19] 5607 	ld	-3 (ix), a
    00001E21 23               [ 6] 5608 	inc	hl
    00001E22 7E               [ 7] 5609 	ld	a, (hl)
    00001E23 DD 77 FE         [19] 5610 	ld	-2 (ix), a
    00001E26 DD 7E FD         [19] 5611 	ld	a, -3 (ix)
    00001E29 D6 04            [ 7] 5612 	sub	a, #0x04
    00001E2B DD B6 FE         [19] 5613 	or	a, -2 (ix)
    00001E2E CAr68r1F         [10] 5614 	jp	Z,00264$
                                   5615 ;./exsoccer.c:1363: i16 dx = (i16)g_Players[i].X - (i16)g_Players[i].TargetX;
    00001E31 DD 7E ED         [19] 5616 	ld	a, -19 (ix)
    00001E34 C6 02            [ 7] 5617 	add	a, #0x02
    00001E36 DD 77 F1         [19] 5618 	ld	-15 (ix), a
    00001E39 DD 7E EE         [19] 5619 	ld	a, -18 (ix)
    00001E3C CE 00            [ 7] 5620 	adc	a, #0x00
    00001E3E DD 77 F2         [19] 5621 	ld	-14 (ix), a
    00001E41 DD 6E F1         [19] 5622 	ld	l, -15 (ix)
    00001E44 DD 66 F2         [19] 5623 	ld	h, -14 (ix)
    00001E47 7E               [ 7] 5624 	ld	a, (hl)
    00001E48 DD 77 FD         [19] 5625 	ld	-3 (ix), a
    00001E4B 23               [ 6] 5626 	inc	hl
    00001E4C 7E               [ 7] 5627 	ld	a, (hl)
    00001E4D DD 77 FE         [19] 5628 	ld	-2 (ix), a
    00001E50 DD 7E FD         [19] 5629 	ld	a, -3 (ix)
    00001E53 DD 77 FB         [19] 5630 	ld	-5 (ix), a
    00001E56 DD 7E FE         [19] 5631 	ld	a, -2 (ix)
    00001E59 DD 77 FC         [19] 5632 	ld	-4 (ix), a
    00001E5C DD 7E ED         [19] 5633 	ld	a, -19 (ix)
    00001E5F DD 77 FD         [19] 5634 	ld	-3 (ix), a
    00001E62 DD 7E EE         [19] 5635 	ld	a, -18 (ix)
    00001E65 DD 77 FE         [19] 5636 	ld	-2 (ix), a
    00001E68 DD 6E FD         [19] 5637 	ld	l, -3 (ix)
    00001E6B DD 66 FE         [19] 5638 	ld	h, -2 (ix)
    00001E6E 11 10 00         [10] 5639 	ld	de, #0x0010
    00001E71 19               [11] 5640 	add	hl, de
    00001E72 7E               [ 7] 5641 	ld	a, (hl)
    00001E73 DD 77 F3         [19] 5642 	ld	-13 (ix), a
    00001E76 23               [ 6] 5643 	inc	hl
    00001E77 7E               [ 7] 5644 	ld	a, (hl)
    00001E78 DD 77 F4         [19] 5645 	ld	-12 (ix), a
    00001E7B DD 6E F3         [19] 5646 	ld	l, -13 (ix)
                                   5647 ;	spillPairReg hl
                                   5648 ;	spillPairReg hl
    00001E7E DD 66 F4         [19] 5649 	ld	h, -12 (ix)
                                   5650 ;	spillPairReg hl
                                   5651 ;	spillPairReg hl
    00001E81 DD 7E FB         [19] 5652 	ld	a, -5 (ix)
    00001E84 95               [ 4] 5653 	sub	a, l
    00001E85 DD 77 FD         [19] 5654 	ld	-3 (ix), a
    00001E88 DD 7E FC         [19] 5655 	ld	a, -4 (ix)
    00001E8B 9C               [ 4] 5656 	sbc	a, h
    00001E8C DD 77 FE         [19] 5657 	ld	-2 (ix), a
    00001E8F DD 7E FD         [19] 5658 	ld	a, -3 (ix)
    00001E92 DD 77 F5         [19] 5659 	ld	-11 (ix), a
    00001E95 DD 7E FE         [19] 5660 	ld	a, -2 (ix)
    00001E98 DD 77 F6         [19] 5661 	ld	-10 (ix), a
                                   5662 ;./exsoccer.c:1364: i16 dy = (i16)g_Players[i].Y - (i16)g_Players[i].TargetY;
    00001E9B DD 6E ED         [19] 5663 	ld	l, -19 (ix)
    00001E9E DD 66 EE         [19] 5664 	ld	h, -18 (ix)
    00001EA1 7E               [ 7] 5665 	ld	a, (hl)
    00001EA2 DD 77 FD         [19] 5666 	ld	-3 (ix), a
    00001EA5 23               [ 6] 5667 	inc	hl
    00001EA6 7E               [ 7] 5668 	ld	a, (hl)
    00001EA7 DD 77 FE         [19] 5669 	ld	-2 (ix), a
    00001EAA DD 7E FD         [19] 5670 	ld	a, -3 (ix)
    00001EAD DD 77 F7         [19] 5671 	ld	-9 (ix), a
    00001EB0 DD 7E FE         [19] 5672 	ld	a, -2 (ix)
    00001EB3 DD 77 F8         [19] 5673 	ld	-8 (ix), a
    00001EB6 DD 7E ED         [19] 5674 	ld	a, -19 (ix)
    00001EB9 C6 0E            [ 7] 5675 	add	a, #0x0e
    00001EBB DD 77 F9         [19] 5676 	ld	-7 (ix), a
    00001EBE DD 7E EE         [19] 5677 	ld	a, -18 (ix)
    00001EC1 CE 00            [ 7] 5678 	adc	a, #0x00
    00001EC3 DD 77 FA         [19] 5679 	ld	-6 (ix), a
    00001EC6 DD 6E F9         [19] 5680 	ld	l, -7 (ix)
    00001EC9 DD 66 FA         [19] 5681 	ld	h, -6 (ix)
    00001ECC 7E               [ 7] 5682 	ld	a, (hl)
    00001ECD DD 77 FD         [19] 5683 	ld	-3 (ix), a
    00001ED0 23               [ 6] 5684 	inc	hl
    00001ED1 7E               [ 7] 5685 	ld	a, (hl)
    00001ED2 DD 77 FE         [19] 5686 	ld	-2 (ix), a
    00001ED5 DD 7E FD         [19] 5687 	ld	a, -3 (ix)
    00001ED8 DD 77 FB         [19] 5688 	ld	-5 (ix), a
    00001EDB DD 7E FE         [19] 5689 	ld	a, -2 (ix)
    00001EDE DD 77 FC         [19] 5690 	ld	-4 (ix), a
    00001EE1 DD 7E F7         [19] 5691 	ld	a, -9 (ix)
    00001EE4 DD 96 FB         [19] 5692 	sub	a, -5 (ix)
    00001EE7 DD 77 FD         [19] 5693 	ld	-3 (ix), a
    00001EEA DD 7E F8         [19] 5694 	ld	a, -8 (ix)
    00001EED DD 9E FC         [19] 5695 	sbc	a, -4 (ix)
    00001EF0 DD 77 FE         [19] 5696 	ld	-2 (ix), a
    00001EF3 DD 4E FD         [19] 5697 	ld	c, -3 (ix)
    00001EF6 DD 46 FE         [19] 5698 	ld	b, -2 (ix)
                                   5699 ;./exsoccer.c:1365: if (dx < -6 || dx > 6 || dy < -6 || dy > 6) {
    00001EF9 DD 7E F5         [19] 5700 	ld	a, -11 (ix)
    00001EFC D6 FA            [ 7] 5701 	sub	a, #0xfa
    00001EFE DD 7E F6         [19] 5702 	ld	a, -10 (ix)
    00001F01 17               [ 4] 5703 	rla
    00001F02 3F               [ 4] 5704 	ccf
    00001F03 1F               [ 4] 5705 	rra
    00001F04 DE 7F            [ 7] 5706 	sbc	a, #0x7f
    00001F06 38 2D            [12] 5707 	jr	C, 00122$
    00001F08 DD 5E F5         [19] 5708 	ld	e, -11 (ix)
    00001F0B DD 56 F6         [19] 5709 	ld	d, -10 (ix)
    00001F0E 3E 06            [ 7] 5710 	ld	a, #0x06
    00001F10 BB               [ 4] 5711 	cp	a, e
    00001F11 3E 00            [ 7] 5712 	ld	a, #0x00
    00001F13 9A               [ 4] 5713 	sbc	a, d
    00001F14 E2r19r1F         [10] 5714 	jp	PO, 00808$
    00001F17 EE 80            [ 7] 5715 	xor	a, #0x80
    00001F19                       5716 00808$:
    00001F19 FAr35r1F         [10] 5717 	jp	M, 00122$
    00001F1C 79               [ 4] 5718 	ld	a, c
    00001F1D D6 FA            [ 7] 5719 	sub	a, #0xfa
    00001F1F 78               [ 4] 5720 	ld	a, b
    00001F20 17               [ 4] 5721 	rla
    00001F21 3F               [ 4] 5722 	ccf
    00001F22 1F               [ 4] 5723 	rra
    00001F23 DE 7F            [ 7] 5724 	sbc	a, #0x7f
    00001F25 38 0E            [12] 5725 	jr	C, 00122$
    00001F27 3E 06            [ 7] 5726 	ld	a, #0x06
    00001F29 B9               [ 4] 5727 	cp	a, c
    00001F2A 3E 00            [ 7] 5728 	ld	a, #0x00
    00001F2C 98               [ 4] 5729 	sbc	a, b
    00001F2D E2r32r1F         [10] 5730 	jp	PO, 00809$
    00001F30 EE 80            [ 7] 5731 	xor	a, #0x80
    00001F32                       5732 00809$:
    00001F32 F2r3Cr1F         [10] 5733 	jp	P, 00123$
    00001F35                       5734 00122$:
                                   5735 ;./exsoccer.c:1366: teammatesArrived = false; // Someone is still far away
    00001F35 DD 36 EC 00      [19] 5736 	ld	-20 (ix), #0x00
    00001F39 C3r68r1F         [10] 5737 	jp	00264$
    00001F3C                       5738 00123$:
                                   5739 ;./exsoccer.c:1369: g_Players[i].X = g_Players[i].TargetX;
    00001F3C DD 6E F1         [19] 5740 	ld	l, -15 (ix)
    00001F3F DD 66 F2         [19] 5741 	ld	h, -14 (ix)
    00001F42 DD 7E F3         [19] 5742 	ld	a, -13 (ix)
    00001F45 77               [ 7] 5743 	ld	(hl), a
    00001F46 23               [ 6] 5744 	inc	hl
    00001F47 DD 7E F4         [19] 5745 	ld	a, -12 (ix)
    00001F4A 77               [ 7] 5746 	ld	(hl), a
                                   5747 ;./exsoccer.c:1370: g_Players[i].Y = g_Players[i].TargetY;
    00001F4B DD 6E F9         [19] 5748 	ld	l, -7 (ix)
    00001F4E DD 66 FA         [19] 5749 	ld	h, -6 (ix)
    00001F51 4E               [ 7] 5750 	ld	c, (hl)
    00001F52 23               [ 6] 5751 	inc	hl
    00001F53 46               [ 7] 5752 	ld	b, (hl)
    00001F54 DD 6E ED         [19] 5753 	ld	l, -19 (ix)
    00001F57 DD 66 EE         [19] 5754 	ld	h, -18 (ix)
    00001F5A 71               [ 7] 5755 	ld	(hl), c
    00001F5B 23               [ 6] 5756 	inc	hl
    00001F5C 70               [ 7] 5757 	ld	(hl), b
                                   5758 ;./exsoccer.c:1371: g_Players[i].Status = PLAYER_STATUS_POSITIONED;
    00001F5D DD 6E EF         [19] 5759 	ld	l, -17 (ix)
    00001F60 DD 66 F0         [19] 5760 	ld	h, -16 (ix)
    00001F63 36 04            [10] 5761 	ld	(hl), #0x04
    00001F65 23               [ 6] 5762 	inc	hl
    00001F66 36 00            [10] 5763 	ld	(hl), #0x00
    00001F68                       5764 00264$:
                                   5765 ;./exsoccer.c:1359: for(u8 i=0; i<14; i++) {
    00001F68 DD 34 FF         [23] 5766 	inc	-1 (ix)
    00001F6B C3r97r1D         [10] 5767 	jp	00263$
    00001F6E                       5768 00134$:
                                   5769 ;./exsoccer.c:1378: if (g_Timer < 180 || (kickerId != NO_VALUE && !kickerArrived) || !teammatesArrived) {
    00001F6E 3Ar06r00         [13] 5770 	ld	a, (_g_Timer+0)
    00001F71 D6 B4            [ 7] 5771 	sub	a, #0xb4
    00001F73 3E 00            [ 7] 5772 	ld	a, #0x00
    00001F75 17               [ 4] 5773 	rla
    00001F76 4F               [ 4] 5774 	ld	c, a
    00001F77 B7               [ 4] 5775 	or	a, a
    00001F78 20 13            [12] 5776 	jr	NZ, 00165$
    00001F7A DD CB EB 46      [20] 5777 	bit	0, -21 (ix)
    00001F7E 20 06            [12] 5778 	jr	NZ, 00169$
    00001F80 DD 7E EA         [19] 5779 	ld	a, -22 (ix)
    00001F83 B7               [ 4] 5780 	or	a, a
    00001F84 28 07            [12] 5781 	jr	Z, 00165$
    00001F86                       5782 00169$:
    00001F86 DD 7E EC         [19] 5783 	ld	a, -20 (ix)
    00001F89 B7               [ 4] 5784 	or	a, a
    00001F8A C2rA1r21         [10] 5785 	jp	NZ, 00166$
    00001F8D                       5786 00165$:
                                   5787 ;./exsoccer.c:1379: if (g_Timer < 180) g_Timer++;
    00001F8D 79               [ 4] 5788 	ld	a, c
    00001F8E B7               [ 4] 5789 	or	a, a
    00001F8F 28 04            [12] 5790 	jr	Z, 00346$
    00001F91 21r06r00         [10] 5791 	ld	hl, #_g_Timer
    00001F94 34               [11] 5792 	inc	(hl)
                                   5793 ;./exsoccer.c:1382: for(u8 i=0; i<14; i++) {
    00001F95                       5794 00346$:
    00001F95 0E 00            [ 7] 5795 	ld	c, #0x00
    00001F97                       5796 00266$:
    00001F97 79               [ 4] 5797 	ld	a, c
    00001F98 D6 0E            [ 7] 5798 	sub	a, #0x0e
    00001F9A D2r6Cr26         [10] 5799 	jp	NC,00270$
                                   5800 ;./exsoccer.c:1384: if (i != kickerId && g_Players[i].Status != PLAYER_STATUS_POSITIONED && 
    00001F9D DD 7E E9         [19] 5801 	ld	a, -23 (ix)
    00001FA0 91               [ 4] 5802 	sub	a, c
    00001FA1 3E 01            [ 7] 5803 	ld	a, #0x01
    00001FA3 28 01            [12] 5804 	jr	Z, 00811$
    00001FA5 AF               [ 4] 5805 	xor	a, a
    00001FA6                       5806 00811$:
    00001FA6 DD 77 FD         [19] 5807 	ld	-3 (ix), a
    00001FA9 DD CB FD 46      [20] 5808 	bit	0, -3 (ix)
    00001FAD 20 55            [12] 5809 	jr	NZ, 00138$
    00001FAF 06 00            [ 7] 5810 	ld	b, #0x00
    00001FB1 69               [ 4] 5811 	ld	l, c
    00001FB2 60               [ 4] 5812 	ld	h, b
    00001FB3 29               [11] 5813 	add	hl, hl
    00001FB4 29               [11] 5814 	add	hl, hl
    00001FB5 09               [11] 5815 	add	hl, bc
    00001FB6 29               [11] 5816 	add	hl, hl
    00001FB7 29               [11] 5817 	add	hl, hl
    00001FB8 09               [11] 5818 	add	hl, bc
    00001FB9 EB               [ 4] 5819 	ex	de, hl
    00001FBA FD 21r06r00      [14] 5820 	ld	iy, #_g_Players
    00001FBE FD 19            [15] 5821 	add	iy, de
    00001FC0 FD E5            [15] 5822 	push	iy
    00001FC2 D1               [10] 5823 	pop	de
    00001FC3 21 12 00         [10] 5824 	ld	hl, #18
    00001FC6 19               [11] 5825 	add	hl, de
    00001FC7 5E               [ 7] 5826 	ld	e, (hl)
    00001FC8 23               [ 6] 5827 	inc	hl
    00001FC9 56               [ 7] 5828 	ld	d, (hl)
    00001FCA 7B               [ 4] 5829 	ld	a, e
    00001FCB D6 04            [ 7] 5830 	sub	a, #0x04
    00001FCD B2               [ 4] 5831 	or	a, d
    00001FCE 28 34            [12] 5832 	jr	Z, 00138$
                                   5833 ;./exsoccer.c:1385: !(g_Players[i].X == g_Players[i].TargetX && g_Players[i].Y == g_Players[i].TargetY)) continue;
    00001FD0 FD E5            [15] 5834 	push	iy
    00001FD2 E1               [10] 5835 	pop	hl
    00001FD3 23               [ 6] 5836 	inc	hl
    00001FD4 23               [ 6] 5837 	inc	hl
    00001FD5 5E               [ 7] 5838 	ld	e, (hl)
    00001FD6 23               [ 6] 5839 	inc	hl
    00001FD7 56               [ 7] 5840 	ld	d, (hl)
    00001FD8 FD E5            [15] 5841 	push	iy
    00001FDA E1               [10] 5842 	pop	hl
    00001FDB C5               [11] 5843 	push	bc
    00001FDC 01 10 00         [10] 5844 	ld	bc, #0x0010
    00001FDF 09               [11] 5845 	add	hl, bc
    00001FE0 C1               [10] 5846 	pop	bc
    00001FE1 46               [ 7] 5847 	ld	b, (hl)
    00001FE2 23               [ 6] 5848 	inc	hl
    00001FE3 66               [ 7] 5849 	ld	h, (hl)
                                   5850 ;	spillPairReg hl
    00001FE4 68               [ 4] 5851 	ld	l, b
    00001FE5 BF               [ 4] 5852 	cp	a, a
    00001FE6 ED 52            [15] 5853 	sbc	hl, de
    00001FE8 C2r9Dr21         [10] 5854 	jp	NZ,00163$
    00001FEB FD 5E 00         [19] 5855 	ld	e, 0 (iy)
    00001FEE FD 56 01         [19] 5856 	ld	d, 1 (iy)
    00001FF1 FD E5            [15] 5857 	push	iy
    00001FF3 E1               [10] 5858 	pop	hl
    00001FF4 C5               [11] 5859 	push	bc
    00001FF5 01 0E 00         [10] 5860 	ld	bc, #0x000e
    00001FF8 09               [11] 5861 	add	hl, bc
    00001FF9 C1               [10] 5862 	pop	bc
    00001FFA 46               [ 7] 5863 	ld	b, (hl)
    00001FFB 23               [ 6] 5864 	inc	hl
    00001FFC 66               [ 7] 5865 	ld	h, (hl)
                                   5866 ;	spillPairReg hl
    00001FFD 68               [ 4] 5867 	ld	l, b
    00001FFE BF               [ 4] 5868 	cp	a, a
    00001FFF ED 52            [15] 5869 	sbc	hl, de
    00002001 C2r9Dr21         [10] 5870 	jp	NZ,00163$
    00002004                       5871 00138$:
                                   5872 ;./exsoccer.c:1389: if (i == kickerId) {
    00002004 DD 7E FD         [19] 5873 	ld	a, -3 (ix)
    00002007 B7               [ 4] 5874 	or	a, a
    00002008 28 30            [12] 5875 	jr	Z, 00159$
                                   5876 ;./exsoccer.c:1391: if (g_RestartKickTeamId == TEAM_1) lookDir = (g_CornerKickSide == CORNER_SIDE_LEFT) ? DIRECTION_DOWN_RIGHT : DIRECTION_DOWN_LEFT;
    0000200A 3Ar7Er01         [13] 5877 	ld	a, (_g_RestartKickTeamId+0)
    0000200D 3D               [ 4] 5878 	dec	a
    0000200E 20 15            [12] 5879 	jr	NZ, 00143$
    00002010 3Ar13r00         [13] 5880 	ld	a, (_g_CornerKickSide+0)
    00002013 B7               [ 4] 5881 	or	a, a
    00002014 20 06            [12] 5882 	jr	NZ, 00272$
    00002016 11 04 00         [10] 5883 	ld	de, #0x0004
    00002019 C3r1Fr20         [10] 5884 	jp	00273$
    0000201C                       5885 00272$:
    0000201C 11 06 00         [10] 5886 	ld	de, #0x0006
    0000201F                       5887 00273$:
    0000201F DD 73 FF         [19] 5888 	ld	-1 (ix), e
    00002022 C3r70r21         [10] 5889 	jp	00160$
    00002025                       5890 00143$:
                                   5891 ;./exsoccer.c:1392: else lookDir = (g_CornerKickSide == CORNER_SIDE_LEFT) ? DIRECTION_UP_RIGHT : DIRECTION_UP_LEFT;
    00002025 3Ar13r00         [13] 5892 	ld	a, (_g_CornerKickSide+0)
    00002028 B7               [ 4] 5893 	or	a, a
    00002029 20 06            [12] 5894 	jr	NZ, 00274$
    0000202B 11 02 00         [10] 5895 	ld	de, #0x0002
    0000202E C3r34r20         [10] 5896 	jp	00275$
    00002031                       5897 00274$:
    00002031 11 08 00         [10] 5898 	ld	de, #0x0008
    00002034                       5899 00275$:
    00002034 DD 73 FF         [19] 5900 	ld	-1 (ix), e
    00002037 C3r70r21         [10] 5901 	jp	00160$
    0000203A                       5902 00159$:
                                   5903 ;./exsoccer.c:1394: else if (g_Players[i].TeamId == g_RestartKickTeamId) {
    0000203A 06 00            [ 7] 5904 	ld	b, #0x00
    0000203C 69               [ 4] 5905 	ld	l, c
    0000203D 60               [ 4] 5906 	ld	h, b
    0000203E 29               [11] 5907 	add	hl, hl
    0000203F 29               [11] 5908 	add	hl, hl
    00002040 09               [11] 5909 	add	hl, bc
    00002041 29               [11] 5910 	add	hl, hl
    00002042 29               [11] 5911 	add	hl, hl
    00002043 09               [11] 5912 	add	hl, bc
    00002044 11r06r00         [10] 5913 	ld	de, #_g_Players
    00002047 19               [11] 5914 	add	hl, de
    00002048 DD 75 FE         [19] 5915 	ld	-2 (ix), l
    0000204B DD 74 FF         [19] 5916 	ld	-1 (ix), h
    0000204E 11 09 00         [10] 5917 	ld	de, #9
    00002051 19               [11] 5918 	add	hl, de
    00002052 46               [ 7] 5919 	ld	b, (hl)
                                   5920 ;./exsoccer.c:1396: if (g_RestartKickTeamId == TEAM_1 && i != kickerId) { 
    00002053 3Ar7Er01         [13] 5921 	ld	a,(_g_RestartKickTeamId+0)
    00002056 B8               [ 4] 5922 	cp	a,b
    00002057 20 3C            [12] 5923 	jr	NZ, 00156$
    00002059 3D               [ 4] 5924 	dec	a
    0000205A 3E 01            [ 7] 5925 	ld	a, #0x01
    0000205C 28 01            [12] 5926 	jr	Z, 00822$
    0000205E AF               [ 4] 5927 	xor	a, a
    0000205F                       5928 00822$:
    0000205F DD 77 FF         [19] 5929 	ld	-1 (ix), a
    00002062 B7               [ 4] 5930 	or	a, a
    00002063 28 1B            [12] 5931 	jr	Z, 00146$
    00002065 DD CB FD 46      [20] 5932 	bit	0, -3 (ix)
    00002069 20 15            [12] 5933 	jr	NZ, 00146$
                                   5934 ;./exsoccer.c:1398: lookDir = (g_CornerKickSide == CORNER_SIDE_LEFT) ? DIRECTION_UP_LEFT : DIRECTION_UP_RIGHT;
    0000206B 3Ar13r00         [13] 5935 	ld	a, (_g_CornerKickSide+0)
    0000206E B7               [ 4] 5936 	or	a, a
    0000206F 20 06            [12] 5937 	jr	NZ, 00276$
    00002071 11 08 00         [10] 5938 	ld	de, #0x0008
    00002074 C3r7Ar20         [10] 5939 	jp	00277$
    00002077                       5940 00276$:
    00002077 11 02 00         [10] 5941 	ld	de, #0x0002
    0000207A                       5942 00277$:
    0000207A DD 73 FF         [19] 5943 	ld	-1 (ix), e
    0000207D C3r70r21         [10] 5944 	jp	00160$
    00002080                       5945 00146$:
                                   5946 ;./exsoccer.c:1401: lookDir = (g_RestartKickTeamId == TEAM_1) ? DIRECTION_UP : DIRECTION_DOWN;
    00002080 DD 7E FF         [19] 5947 	ld	a, -1 (ix)
    00002083 B7               [ 4] 5948 	or	a, a
    00002084 28 06            [12] 5949 	jr	Z, 00278$
    00002086 11 01 00         [10] 5950 	ld	de, #0x0001
    00002089 C3r8Fr20         [10] 5951 	jp	00279$
    0000208C                       5952 00278$:
    0000208C 11 05 00         [10] 5953 	ld	de, #0x0005
    0000208F                       5954 00279$:
    0000208F DD 73 FF         [19] 5955 	ld	-1 (ix), e
    00002092 C3r70r21         [10] 5956 	jp	00160$
    00002095                       5957 00156$:
                                   5958 ;./exsoccer.c:1405: i16 dx = (i16)g_Ball.X - (i16)g_Players[i].X;
    00002095 ED 5Br61r01      [20] 5959 	ld	de, (#_g_Ball + 2)
    00002099 DD 6E FE         [19] 5960 	ld	l, -2 (ix)
                                   5961 ;	spillPairReg hl
                                   5962 ;	spillPairReg hl
    0000209C DD 66 FF         [19] 5963 	ld	h, -1 (ix)
                                   5964 ;	spillPairReg hl
                                   5965 ;	spillPairReg hl
    0000209F 23               [ 6] 5966 	inc	hl
    000020A0 23               [ 6] 5967 	inc	hl
    000020A1 7E               [ 7] 5968 	ld	a, (hl)
    000020A2 23               [ 6] 5969 	inc	hl
    000020A3 66               [ 7] 5970 	ld	h, (hl)
                                   5971 ;	spillPairReg hl
    000020A4 6F               [ 4] 5972 	ld	l, a
                                   5973 ;	spillPairReg hl
                                   5974 ;	spillPairReg hl
    000020A5 7B               [ 4] 5975 	ld	a, e
    000020A6 95               [ 4] 5976 	sub	a, l
    000020A7 47               [ 4] 5977 	ld	b, a
    000020A8 7A               [ 4] 5978 	ld	a, d
    000020A9 9C               [ 4] 5979 	sbc	a, h
    000020AA DD 70 FC         [19] 5980 	ld	-4 (ix), b
    000020AD DD 77 FD         [19] 5981 	ld	-3 (ix), a
                                   5982 ;./exsoccer.c:1406: i16 dy = (i16)g_Ball.Y - (i16)g_Players[i].Y;
    000020B0 ED 5Br5Fr01      [20] 5983 	ld	de, (#_g_Ball + 0)
    000020B4 DD 6E FE         [19] 5984 	ld	l, -2 (ix)
    000020B7 DD 66 FF         [19] 5985 	ld	h, -1 (ix)
    000020BA 7E               [ 7] 5986 	ld	a, (hl)
    000020BB 23               [ 6] 5987 	inc	hl
    000020BC 66               [ 7] 5988 	ld	h, (hl)
                                   5989 ;	spillPairReg hl
    000020BD 6F               [ 4] 5990 	ld	l, a
                                   5991 ;	spillPairReg hl
                                   5992 ;	spillPairReg hl
    000020BE 7B               [ 4] 5993 	ld	a, e
    000020BF 95               [ 4] 5994 	sub	a, l
    000020C0 5F               [ 4] 5995 	ld	e, a
    000020C1 7A               [ 4] 5996 	ld	a, d
    000020C2 9C               [ 4] 5997 	sbc	a, h
    000020C3 57               [ 4] 5998 	ld	d, a
                                   5999 ;./exsoccer.c:1408: if (dy < -20) lookDir = (dx > 20) ? DIRECTION_UP_RIGHT : ((dx < -20) ? DIRECTION_UP_LEFT : DIRECTION_UP);
    000020C4 DD 7E FC         [19] 6000 	ld	a, -4 (ix)
    000020C7 DD 77 FE         [19] 6001 	ld	-2 (ix), a
    000020CA DD 7E FD         [19] 6002 	ld	a, -3 (ix)
    000020CD DD 77 FF         [19] 6003 	ld	-1 (ix), a
    000020D0 7B               [ 4] 6004 	ld	a, e
    000020D1 D6 EC            [ 7] 6005 	sub	a, #0xec
    000020D3 7A               [ 4] 6006 	ld	a, d
    000020D4 17               [ 4] 6007 	rla
    000020D5 3F               [ 4] 6008 	ccf
    000020D6 1F               [ 4] 6009 	rra
    000020D7 DE 7F            [ 7] 6010 	sbc	a, #0x7f
    000020D9 30 36            [12] 6011 	jr	NC, 00153$
    000020DB 3E 14            [ 7] 6012 	ld	a, #0x14
    000020DD DD BE FE         [19] 6013 	cp	a, -2 (ix)
    000020E0 3E 00            [ 7] 6014 	ld	a, #0x00
    000020E2 DD 9E FF         [19] 6015 	sbc	a, -1 (ix)
    000020E5 E2rEAr20         [10] 6016 	jp	PO, 00823$
    000020E8 EE 80            [ 7] 6017 	xor	a, #0x80
    000020EA                       6018 00823$:
    000020EA F2rF3r20         [10] 6019 	jp	P, 00280$
    000020ED 11 02 00         [10] 6020 	ld	de, #0x0002
    000020F0 C3r0Br21         [10] 6021 	jp	00281$
    000020F3                       6022 00280$:
    000020F3 DD 7E FC         [19] 6023 	ld	a, -4 (ix)
    000020F6 D6 EC            [ 7] 6024 	sub	a, #0xec
    000020F8 DD 7E FD         [19] 6025 	ld	a, -3 (ix)
    000020FB 17               [ 4] 6026 	rla
    000020FC 3F               [ 4] 6027 	ccf
    000020FD 1F               [ 4] 6028 	rra
    000020FE DE 7F            [ 7] 6029 	sbc	a, #0x7f
    00002100 30 06            [12] 6030 	jr	NC, 00282$
    00002102 11 08 00         [10] 6031 	ld	de, #0x0008
    00002105 C3r0Br21         [10] 6032 	jp	00283$
    00002108                       6033 00282$:
    00002108 11 01 00         [10] 6034 	ld	de, #0x0001
    0000210B                       6035 00283$:
    0000210B                       6036 00281$:
    0000210B DD 73 FF         [19] 6037 	ld	-1 (ix), e
    0000210E C3r70r21         [10] 6038 	jp	00160$
    00002111                       6039 00153$:
                                   6040 ;./exsoccer.c:1409: else if (dy > 20) lookDir = (dx > 20) ? DIRECTION_DOWN_RIGHT : ((dx < -20) ? DIRECTION_DOWN_LEFT : DIRECTION_DOWN);
    00002111 3E 14            [ 7] 6041 	ld	a, #0x14
    00002113 BB               [ 4] 6042 	cp	a, e
    00002114 3E 00            [ 7] 6043 	ld	a, #0x00
    00002116 9A               [ 4] 6044 	sbc	a, d
    00002117 E2r1Cr21         [10] 6045 	jp	PO, 00824$
    0000211A EE 80            [ 7] 6046 	xor	a, #0x80
    0000211C                       6047 00824$:
    0000211C F2r55r21         [10] 6048 	jp	P, 00150$
    0000211F 3E 14            [ 7] 6049 	ld	a, #0x14
    00002121 DD BE FE         [19] 6050 	cp	a, -2 (ix)
    00002124 3E 00            [ 7] 6051 	ld	a, #0x00
    00002126 DD 9E FF         [19] 6052 	sbc	a, -1 (ix)
    00002129 E2r2Er21         [10] 6053 	jp	PO, 00825$
    0000212C EE 80            [ 7] 6054 	xor	a, #0x80
    0000212E                       6055 00825$:
    0000212E F2r37r21         [10] 6056 	jp	P, 00284$
    00002131 11 04 00         [10] 6057 	ld	de, #0x0004
    00002134 C3r4Fr21         [10] 6058 	jp	00285$
    00002137                       6059 00284$:
    00002137 DD 7E FC         [19] 6060 	ld	a, -4 (ix)
    0000213A D6 EC            [ 7] 6061 	sub	a, #0xec
    0000213C DD 7E FD         [19] 6062 	ld	a, -3 (ix)
    0000213F 17               [ 4] 6063 	rla
    00002140 3F               [ 4] 6064 	ccf
    00002141 1F               [ 4] 6065 	rra
    00002142 DE 7F            [ 7] 6066 	sbc	a, #0x7f
    00002144 30 06            [12] 6067 	jr	NC, 00286$
    00002146 11 06 00         [10] 6068 	ld	de, #0x0006
    00002149 C3r4Fr21         [10] 6069 	jp	00287$
    0000214C                       6070 00286$:
    0000214C 11 05 00         [10] 6071 	ld	de, #0x0005
    0000214F                       6072 00287$:
    0000214F                       6073 00285$:
    0000214F DD 73 FF         [19] 6074 	ld	-1 (ix), e
    00002152 C3r70r21         [10] 6075 	jp	00160$
    00002155                       6076 00150$:
                                   6077 ;./exsoccer.c:1410: else lookDir = (dx > 0) ? DIRECTION_RIGHT : DIRECTION_LEFT;
    00002155 AF               [ 4] 6078 	xor	a, a
    00002156 DD BE FE         [19] 6079 	cp	a, -2 (ix)
    00002159 DD 9E FF         [19] 6080 	sbc	a, -1 (ix)
    0000215C E2r61r21         [10] 6081 	jp	PO, 00826$
    0000215F EE 80            [ 7] 6082 	xor	a, #0x80
    00002161                       6083 00826$:
    00002161 F2r6Ar21         [10] 6084 	jp	P, 00288$
    00002164 11 03 00         [10] 6085 	ld	de, #0x0003
    00002167 C3r6Dr21         [10] 6086 	jp	00289$
    0000216A                       6087 00288$:
    0000216A 11 07 00         [10] 6088 	ld	de, #0x0007
    0000216D                       6089 00289$:
    0000216D DD 73 FF         [19] 6090 	ld	-1 (ix), e
    00002170                       6091 00160$:
                                   6092 ;./exsoccer.c:1413: if (lookDir != DIRECTION_NONE) {
    00002170 DD 7E FF         [19] 6093 	ld	a, -1 (ix)
    00002173 B7               [ 4] 6094 	or	a, a
    00002174 28 27            [12] 6095 	jr	Z, 00163$
                                   6096 ;./exsoccer.c:1414: g_Players[i].Direction = lookDir;
    00002176 06 00            [ 7] 6097 	ld	b, #0x00
    00002178 69               [ 4] 6098 	ld	l, c
    00002179 60               [ 4] 6099 	ld	h, b
    0000217A 29               [11] 6100 	add	hl, hl
    0000217B 29               [11] 6101 	add	hl, hl
    0000217C 09               [11] 6102 	add	hl, bc
    0000217D 29               [11] 6103 	add	hl, hl
    0000217E 29               [11] 6104 	add	hl, hl
    0000217F 09               [11] 6105 	add	hl, bc
    00002180 EB               [ 4] 6106 	ex	de, hl
    00002181 21r06r00         [10] 6107 	ld	hl, #_g_Players
    00002184 19               [11] 6108 	add	hl, de
    00002185 EB               [ 4] 6109 	ex	de, hl
    00002186 21 0A 00         [10] 6110 	ld	hl, #0x000a
    00002189 19               [11] 6111 	add	hl, de
    0000218A DD 7E FF         [19] 6112 	ld	a, -1 (ix)
    0000218D 77               [ 7] 6113 	ld	(hl), a
                                   6114 ;./exsoccer.c:1415: g_Players[i].PatternId = GetNoMovingPlayerPatternId(lookDir);
    0000218E 21 08 00         [10] 6115 	ld	hl, #0x0008
    00002191 19               [11] 6116 	add	hl, de
    00002192 E5               [11] 6117 	push	hl
    00002193 C5               [11] 6118 	push	bc
    00002194 DD 7E FF         [19] 6119 	ld	a, -1 (ix)
    00002197 CDr7Br13         [17] 6120 	call	_GetNoMovingPlayerPatternId
    0000219A C1               [10] 6121 	pop	bc
    0000219B E1               [10] 6122 	pop	hl
    0000219C 77               [ 7] 6123 	ld	(hl), a
    0000219D                       6124 00163$:
                                   6125 ;./exsoccer.c:1382: for(u8 i=0; i<14; i++) {
    0000219D 0C               [ 4] 6126 	inc	c
                                   6127 ;./exsoccer.c:1418: return; // END SETUP PHASE
    0000219E C3r97r1F         [10] 6128 	jp	00266$
    000021A1                       6129 00166$:
                                   6130 ;./exsoccer.c:1422: ClearTextFromLayerA(10, 12, 11);
    000021A1 3E 0B            [ 7] 6131 	ld	a, #0x0b
    000021A3 F5               [11] 6132 	push	af
    000021A4 33               [ 6] 6133 	inc	sp
    000021A5 2E 0C            [ 7] 6134 	ld	l, #0x0c
                                   6135 ;	spillPairReg hl
                                   6136 ;	spillPairReg hl
    000021A7 3E 0A            [ 7] 6137 	ld	a, #0x0a
    000021A9 CDr00r00         [17] 6138 	call	_ClearTextFromLayerA
                                   6139 ;./exsoccer.c:1429: if (kickerId != NO_VALUE) {
    000021AC DD CB EB 46      [20] 6140 	bit	0, -21 (ix)
    000021B0 C2r42r22         [10] 6141 	jp	NZ, 00171$
                                   6142 ;./exsoccer.c:1430: g_Players[kickerId].X = g_Players[kickerId].TargetX;
    000021B3 DD 4E E9         [19] 6143 	ld	c, -23 (ix)
    000021B6 06 00            [ 7] 6144 	ld	b, #0x00
    000021B8 69               [ 4] 6145 	ld	l, c
    000021B9 60               [ 4] 6146 	ld	h, b
    000021BA 29               [11] 6147 	add	hl, hl
    000021BB 29               [11] 6148 	add	hl, hl
    000021BC 09               [11] 6149 	add	hl, bc
    000021BD 29               [11] 6150 	add	hl, hl
    000021BE 29               [11] 6151 	add	hl, hl
    000021BF 09               [11] 6152 	add	hl, bc
    000021C0 DD 75 FE         [19] 6153 	ld	-2 (ix), l
    000021C3 DD 74 FF         [19] 6154 	ld	-1 (ix), h
    000021C6 DD 7E FE         [19] 6155 	ld	a, -2 (ix)
    000021C9 C6r06            [ 7] 6156 	add	a, #<(_g_Players)
    000021CB DD 77 FA         [19] 6157 	ld	-6 (ix), a
    000021CE DD 7E FF         [19] 6158 	ld	a, -1 (ix)
    000021D1 CEs00            [ 7] 6159 	adc	a, #>(_g_Players)
    000021D3 DD 77 FB         [19] 6160 	ld	-5 (ix), a
    000021D6 DD 7E FA         [19] 6161 	ld	a, -6 (ix)
    000021D9 C6 02            [ 7] 6162 	add	a, #0x02
    000021DB DD 77 FC         [19] 6163 	ld	-4 (ix), a
    000021DE DD 7E FB         [19] 6164 	ld	a, -5 (ix)
    000021E1 CE 00            [ 7] 6165 	adc	a, #0x00
    000021E3 DD 77 FD         [19] 6166 	ld	-3 (ix), a
    000021E6 DD 7E FA         [19] 6167 	ld	a, -6 (ix)
    000021E9 DD 77 FE         [19] 6168 	ld	-2 (ix), a
    000021EC DD 7E FB         [19] 6169 	ld	a, -5 (ix)
    000021EF DD 77 FF         [19] 6170 	ld	-1 (ix), a
    000021F2 DD 6E FE         [19] 6171 	ld	l, -2 (ix)
    000021F5 DD 66 FF         [19] 6172 	ld	h, -1 (ix)
    000021F8 11 10 00         [10] 6173 	ld	de, #0x0010
    000021FB 19               [11] 6174 	add	hl, de
    000021FC 7E               [ 7] 6175 	ld	a, (hl)
    000021FD DD 77 FE         [19] 6176 	ld	-2 (ix), a
    00002200 23               [ 6] 6177 	inc	hl
    00002201 7E               [ 7] 6178 	ld	a, (hl)
    00002202 DD 77 FF         [19] 6179 	ld	-1 (ix), a
    00002205 DD 6E FC         [19] 6180 	ld	l, -4 (ix)
    00002208 DD 66 FD         [19] 6181 	ld	h, -3 (ix)
    0000220B DD 7E FE         [19] 6182 	ld	a, -2 (ix)
    0000220E 77               [ 7] 6183 	ld	(hl), a
    0000220F 23               [ 6] 6184 	inc	hl
    00002210 DD 7E FF         [19] 6185 	ld	a, -1 (ix)
    00002213 77               [ 7] 6186 	ld	(hl), a
                                   6187 ;./exsoccer.c:1431: g_Players[kickerId].Y = g_Players[kickerId].TargetY;
    00002214 DD 7E FA         [19] 6188 	ld	a, -6 (ix)
    00002217 DD 77 FE         [19] 6189 	ld	-2 (ix), a
    0000221A DD 7E FB         [19] 6190 	ld	a, -5 (ix)
    0000221D DD 77 FF         [19] 6191 	ld	-1 (ix), a
    00002220 DD 6E FE         [19] 6192 	ld	l, -2 (ix)
    00002223 DD 66 FF         [19] 6193 	ld	h, -1 (ix)
    00002226 11 0E 00         [10] 6194 	ld	de, #0x000e
    00002229 19               [11] 6195 	add	hl, de
    0000222A 7E               [ 7] 6196 	ld	a, (hl)
    0000222B DD 77 FE         [19] 6197 	ld	-2 (ix), a
    0000222E 23               [ 6] 6198 	inc	hl
    0000222F 7E               [ 7] 6199 	ld	a, (hl)
    00002230 DD 77 FF         [19] 6200 	ld	-1 (ix), a
    00002233 DD 6E FA         [19] 6201 	ld	l, -6 (ix)
    00002236 DD 66 FB         [19] 6202 	ld	h, -5 (ix)
    00002239 DD 7E FE         [19] 6203 	ld	a, -2 (ix)
    0000223C 77               [ 7] 6204 	ld	(hl), a
    0000223D 23               [ 6] 6205 	inc	hl
    0000223E DD 7E FF         [19] 6206 	ld	a, -1 (ix)
    00002241 77               [ 7] 6207 	ld	(hl), a
    00002242                       6208 00171$:
                                   6209 ;./exsoccer.c:1391: if (g_RestartKickTeamId == TEAM_1) lookDir = (g_CornerKickSide == CORNER_SIDE_LEFT) ? DIRECTION_DOWN_RIGHT : DIRECTION_DOWN_LEFT;
    00002242 3Ar7Er01         [13] 6210 	ld	a, (_g_RestartKickTeamId+0)
    00002245 3D               [ 4] 6211 	dec	a
    00002246 3E 01            [ 7] 6212 	ld	a, #0x01
    00002248 28 01            [12] 6213 	jr	Z, 00828$
    0000224A AF               [ 4] 6214 	xor	a, a
    0000224B                       6215 00828$:
    0000224B 4F               [ 4] 6216 	ld	c, a
                                   6217 ;./exsoccer.c:1434: bool isHuman = (g_RestartKickTeamId == TEAM_1 || (g_GameWith2Players && g_RestartKickTeamId == TEAM_2));
    0000224C 41               [ 4] 6218 	ld	b, c
    0000224D CB 40            [ 8] 6219 	bit	0, b
    0000224F 20 11            [12] 6220 	jr	NZ, 00291$
    00002251 3Ar0Ar00         [13] 6221 	ld	a, (_g_GameWith2Players+0)
    00002254 B7               [ 4] 6222 	or	a, a
    00002255 28 07            [12] 6223 	jr	Z, 00290$
    00002257 3Ar7Er01         [13] 6224 	ld	a, (_g_RestartKickTeamId+0)
    0000225A D6 02            [ 7] 6225 	sub	a, #0x02
    0000225C 28 04            [12] 6226 	jr	Z, 00291$
    0000225E                       6227 00290$:
    0000225E AF               [ 4] 6228 	xor	a, a
    0000225F C3r64r22         [10] 6229 	jp	00292$
    00002262                       6230 00291$:
    00002262 3E 01            [ 7] 6231 	ld	a, #0x01
    00002264                       6232 00292$:
    00002264 47               [ 4] 6233 	ld	b, a
                                   6234 ;./exsoccer.c:1437: if (isHuman) s_ForceKickTimer++;
    00002265 B7               [ 4] 6235 	or	a, a
    00002266 28 07            [12] 6236 	jr	Z, 00173$
    00002268 2Ar80r01         [16] 6237 	ld	hl, (_TickCornerKick_s_ForceKickTimer_65537_1604)
    0000226B 23               [ 6] 6238 	inc	hl
    0000226C 22r80r01         [16] 6239 	ld	(_TickCornerKick_s_ForceKickTimer_65537_1604), hl
    0000226F                       6240 00173$:
                                   6241 ;./exsoccer.c:1439: if (isHuman) {
    0000226F 78               [ 4] 6242 	ld	a, b
    00002270 B7               [ 4] 6243 	or	a, a
    00002271 CAr03r26         [10] 6244 	jp	Z, 00260$
                                   6245 ;./exsoccer.c:1440: if (g_RestartKickTeamId == TEAM_1) {
    00002274 79               [ 4] 6246 	ld	a, c
    00002275 B7               [ 4] 6247 	or	a, a
    00002276 CAr1Er25         [10] 6248 	jp	Z, 00246$
                                   6249 ;./exsoccer.c:1442: u8 candLeft = NO_VALUE;
    00002279 DD 36 F9 FF      [19] 6250 	ld	-7 (ix), #0xff
                                   6251 ;./exsoccer.c:1443: u8 candRight = NO_VALUE;
    0000227D DD 36 FA FF      [19] 6252 	ld	-6 (ix), #0xff
                                   6253 ;./exsoccer.c:1445: for(u8 c=0; c<14; c++) {
    00002281 DD 36 FF 00      [19] 6254 	ld	-1 (ix), #0x00
    00002285                       6255 00268$:
    00002285 DD 7E FF         [19] 6256 	ld	a, -1 (ix)
    00002288 D6 0E            [ 7] 6257 	sub	a, #0x0e
    0000228A D2r34r23         [10] 6258 	jp	NC, 00184$
                                   6259 ;./exsoccer.c:1446: if (g_Players[c].TeamId == TEAM_1 && c != kickerId && g_Players[c].Role != PLAYER_ROLE_GOALKEEPER) {
    0000228D DD 4E FF         [19] 6260 	ld	c, -1 (ix)
    00002290 06 00            [ 7] 6261 	ld	b, #0x00
    00002292 69               [ 4] 6262 	ld	l, c
    00002293 60               [ 4] 6263 	ld	h, b
    00002294 29               [11] 6264 	add	hl, hl
    00002295 29               [11] 6265 	add	hl, hl
    00002296 09               [11] 6266 	add	hl, bc
    00002297 29               [11] 6267 	add	hl, hl
    00002298 29               [11] 6268 	add	hl, hl
    00002299 09               [11] 6269 	add	hl, bc
    0000229A DD 75 FD         [19] 6270 	ld	-3 (ix), l
    0000229D DD 74 FE         [19] 6271 	ld	-2 (ix), h
    000022A0 DD 7E FD         [19] 6272 	ld	a, -3 (ix)
    000022A3 C6r06            [ 7] 6273 	add	a, #<(_g_Players)
    000022A5 DD 77 FB         [19] 6274 	ld	-5 (ix), a
    000022A8 DD 7E FE         [19] 6275 	ld	a, -2 (ix)
    000022AB CEs00            [ 7] 6276 	adc	a, #>(_g_Players)
    000022AD DD 77 FC         [19] 6277 	ld	-4 (ix), a
    000022B0 DD 7E FB         [19] 6278 	ld	a, -5 (ix)
    000022B3 DD 77 FD         [19] 6279 	ld	-3 (ix), a
    000022B6 DD 7E FC         [19] 6280 	ld	a, -4 (ix)
    000022B9 DD 77 FE         [19] 6281 	ld	-2 (ix), a
    000022BC DD 6E FD         [19] 6282 	ld	l, -3 (ix)
    000022BF DD 66 FE         [19] 6283 	ld	h, -2 (ix)
    000022C2 11 09 00         [10] 6284 	ld	de, #0x0009
    000022C5 19               [11] 6285 	add	hl, de
    000022C6 7E               [ 7] 6286 	ld	a, (hl)
    000022C7 3D               [ 4] 6287 	dec	a
    000022C8 20 64            [12] 6288 	jr	NZ, 00269$
    000022CA DD 7E E9         [19] 6289 	ld	a, -23 (ix)
    000022CD DD 96 FF         [19] 6290 	sub	a, -1 (ix)
    000022D0 28 5C            [12] 6291 	jr	Z, 00269$
    000022D2 DD 7E FB         [19] 6292 	ld	a, -5 (ix)
    000022D5 DD 77 FD         [19] 6293 	ld	-3 (ix), a
    000022D8 DD 7E FC         [19] 6294 	ld	a, -4 (ix)
    000022DB DD 77 FE         [19] 6295 	ld	-2 (ix), a
    000022DE DD 6E FD         [19] 6296 	ld	l, -3 (ix)
    000022E1 DD 66 FE         [19] 6297 	ld	h, -2 (ix)
    000022E4 11 0D 00         [10] 6298 	ld	de, #0x000d
    000022E7 19               [11] 6299 	add	hl, de
    000022E8 7E               [ 7] 6300 	ld	a, (hl)
    000022E9 DD 77 FE         [19] 6301 	ld	-2 (ix), a
    000022EC B7               [ 4] 6302 	or	a, a
    000022ED 28 3F            [12] 6303 	jr	Z, 00269$
                                   6304 ;./exsoccer.c:1447: u8 tx = g_Players[c].TargetX;
    000022EF DD 7E FB         [19] 6305 	ld	a, -5 (ix)
    000022F2 DD 77 FD         [19] 6306 	ld	-3 (ix), a
    000022F5 DD 7E FC         [19] 6307 	ld	a, -4 (ix)
    000022F8 DD 77 FE         [19] 6308 	ld	-2 (ix), a
    000022FB DD 6E FD         [19] 6309 	ld	l, -3 (ix)
    000022FE DD 66 FE         [19] 6310 	ld	h, -2 (ix)
    00002301 11 10 00         [10] 6311 	ld	de, #0x0010
    00002304 19               [11] 6312 	add	hl, de
    00002305 7E               [ 7] 6313 	ld	a, (hl)
                                   6314 ;./exsoccer.c:1449: if (tx >= 40 && tx <= 110) candLeft = c;
    00002306 DD 77 FE         [19] 6315 	ld	-2 (ix), a
    00002309 D6 28            [ 7] 6316 	sub	a, #0x28
    0000230B 38 0D            [12] 6317 	jr	C, 00175$
    0000230D 3E 6E            [ 7] 6318 	ld	a, #0x6e
    0000230F DD 96 FE         [19] 6319 	sub	a, -2 (ix)
    00002312 38 06            [12] 6320 	jr	C, 00175$
    00002314 DD 7E FF         [19] 6321 	ld	a, -1 (ix)
    00002317 DD 77 F9         [19] 6322 	ld	-7 (ix), a
    0000231A                       6323 00175$:
                                   6324 ;./exsoccer.c:1450: if (tx >= 130 && tx <= 220) candRight = c;
    0000231A DD 7E FE         [19] 6325 	ld	a, -2 (ix)
    0000231D D6 82            [ 7] 6326 	sub	a, #0x82
    0000231F 38 0D            [12] 6327 	jr	C, 00269$
    00002321 3E DC            [ 7] 6328 	ld	a, #0xdc
    00002323 DD 96 FE         [19] 6329 	sub	a, -2 (ix)
    00002326 38 06            [12] 6330 	jr	C, 00269$
    00002328 DD 7E FF         [19] 6331 	ld	a, -1 (ix)
    0000232B DD 77 FA         [19] 6332 	ld	-6 (ix), a
    0000232E                       6333 00269$:
                                   6334 ;./exsoccer.c:1445: for(u8 c=0; c<14; c++) {
    0000232E DD 34 FF         [23] 6335 	inc	-1 (ix)
    00002331 C3r85r22         [10] 6336 	jp	00268$
    00002334                       6337 00184$:
                                   6338 ;./exsoccer.c:1453: if (candLeft == NO_VALUE) candLeft = GetPlayerIdByRole(TEAM_1, PLAYER_ROLE_LEFT_HALFFIELDER);
    00002334 DD 7E F9         [19] 6339 	ld	a, -7 (ix)
    00002337 3C               [ 4] 6340 	inc	a
    00002338 20 0A            [12] 6341 	jr	NZ, 00186$
    0000233A 2E 03            [ 7] 6342 	ld	l, #0x03
                                   6343 ;	spillPairReg hl
                                   6344 ;	spillPairReg hl
    0000233C 3E 01            [ 7] 6345 	ld	a, #0x01
    0000233E CDr00r00         [17] 6346 	call	_GetPlayerIdByRole
    00002341 DD 77 F9         [19] 6347 	ld	-7 (ix), a
    00002344                       6348 00186$:
                                   6349 ;./exsoccer.c:1454: if (candRight == NO_VALUE) candRight = GetPlayerIdByRole(TEAM_1, PLAYER_ROLE_RIGHT_HALFFIELDER);
    00002344 DD 7E FA         [19] 6350 	ld	a, -6 (ix)
    00002347 3C               [ 4] 6351 	inc	a
    00002348 20 0A            [12] 6352 	jr	NZ, 00188$
    0000234A 2E 04            [ 7] 6353 	ld	l, #0x04
                                   6354 ;	spillPairReg hl
                                   6355 ;	spillPairReg hl
    0000234C 3E 01            [ 7] 6356 	ld	a, #0x01
    0000234E CDr00r00         [17] 6357 	call	_GetPlayerIdByRole
    00002351 DD 77 FA         [19] 6358 	ld	-6 (ix), a
    00002354                       6359 00188$:
                                   6360 ;./exsoccer.c:1457: if (g_CornerKickTargetId == NO_VALUE) {
    00002354 3Ar15r00         [13] 6361 	ld	a, (_g_CornerKickTargetId+0)
    00002357 3C               [ 4] 6362 	inc	a
    00002358 20 1B            [12] 6363 	jr	NZ, 00195$
                                   6364 ;./exsoccer.c:1458: if (candLeft != NO_VALUE) g_CornerKickTargetId = candLeft;
    0000235A DD 7E F9         [19] 6365 	ld	a, -7 (ix)
    0000235D 3C               [ 4] 6366 	inc	a
    0000235E 28 09            [12] 6367 	jr	Z, 00192$
    00002360 DD 7E F9         [19] 6368 	ld	a, -7 (ix)
    00002363 32r15r00         [13] 6369 	ld	(_g_CornerKickTargetId+0), a
    00002366 C3r75r23         [10] 6370 	jp	00195$
    00002369                       6371 00192$:
                                   6372 ;./exsoccer.c:1459: else if (candRight != NO_VALUE) g_CornerKickTargetId = candRight; 
    00002369 DD 7E FA         [19] 6373 	ld	a, -6 (ix)
    0000236C 3C               [ 4] 6374 	inc	a
    0000236D 28 06            [12] 6375 	jr	Z, 00195$
    0000236F DD 7E FA         [19] 6376 	ld	a, -6 (ix)
    00002372 32r15r00         [13] 6377 	ld	(_g_CornerKickTargetId+0), a
    00002375                       6378 00195$:
                                   6379 ;./exsoccer.c:1463: u8 joyDir = GetJoystick1Direction();
    00002375 CDr00r00         [17] 6380 	call	_GetJoystick1Direction
                                   6381 ;./exsoccer.c:1466: if (joyDir == DIRECTION_LEFT && !joyMoved && candLeft != NO_VALUE) {
    00002378 4F               [ 4] 6382 	ld	c, a
    00002379 D6 07            [ 7] 6383 	sub	a, #0x07
    0000237B 20 1A            [12] 6384 	jr	NZ, 00204$
    0000237D 3Ar82r01         [13] 6385 	ld	a, (_TickCornerKick_joyMoved_196614_1638+0)
    00002380 B7               [ 4] 6386 	or	a, a
    00002381 20 14            [12] 6387 	jr	NZ, 00204$
    00002383 DD 7E F9         [19] 6388 	ld	a, -7 (ix)
    00002386 3C               [ 4] 6389 	inc	a
    00002387 28 0E            [12] 6390 	jr	Z, 00204$
                                   6391 ;./exsoccer.c:1467: g_CornerKickTargetId = candLeft; joyMoved = true;
    00002389 DD 7E F9         [19] 6392 	ld	a, -7 (ix)
    0000238C 32r15r00         [13] 6393 	ld	(_g_CornerKickTargetId+0), a
    0000238F 21r82r01         [10] 6394 	ld	hl, #_TickCornerKick_joyMoved_196614_1638
    00002392 36 01            [10] 6395 	ld	(hl), #0x01
    00002394 C3rBFr23         [10] 6396 	jp	00205$
    00002397                       6397 00204$:
                                   6398 ;./exsoccer.c:1468: } else if (joyDir == DIRECTION_RIGHT && !joyMoved && candRight != NO_VALUE) {
    00002397 79               [ 4] 6399 	ld	a, c
    00002398 D6 03            [ 7] 6400 	sub	a, #0x03
    0000239A 20 1A            [12] 6401 	jr	NZ, 00199$
    0000239C 3Ar82r01         [13] 6402 	ld	a, (_TickCornerKick_joyMoved_196614_1638+0)
    0000239F B7               [ 4] 6403 	or	a, a
    000023A0 20 14            [12] 6404 	jr	NZ, 00199$
    000023A2 DD 7E FA         [19] 6405 	ld	a, -6 (ix)
    000023A5 3C               [ 4] 6406 	inc	a
    000023A6 28 0E            [12] 6407 	jr	Z, 00199$
                                   6408 ;./exsoccer.c:1469: g_CornerKickTargetId = candRight; joyMoved = true;
    000023A8 DD 7E FA         [19] 6409 	ld	a, -6 (ix)
    000023AB 32r15r00         [13] 6410 	ld	(_g_CornerKickTargetId+0), a
    000023AE 21r82r01         [10] 6411 	ld	hl, #_TickCornerKick_joyMoved_196614_1638
    000023B1 36 01            [10] 6412 	ld	(hl), #0x01
    000023B3 C3rBFr23         [10] 6413 	jp	00205$
    000023B6                       6414 00199$:
                                   6415 ;./exsoccer.c:1470: } else if (joyDir == DIRECTION_NONE) {
    000023B6 79               [ 4] 6416 	ld	a, c
    000023B7 B7               [ 4] 6417 	or	a, a
    000023B8 20 05            [12] 6418 	jr	NZ, 00205$
                                   6419 ;./exsoccer.c:1471: joyMoved = false;
    000023BA 21r82r01         [10] 6420 	ld	hl, #_TickCornerKick_joyMoved_196614_1638
    000023BD 36 00            [10] 6421 	ld	(hl), #0x00
    000023BF                       6422 00205$:
                                   6423 ;./exsoccer.c:1478: if (kickerId != NO_VALUE) {
    000023BF DD CB EB 46      [20] 6424 	bit	0, -21 (ix)
    000023C3 C2rC0r24         [10] 6425 	jp	NZ, 00209$
                                   6426 ;./exsoccer.c:1479: u8 kDir = (g_CornerKickSide == CORNER_SIDE_LEFT) ? DIRECTION_DOWN_RIGHT : DIRECTION_DOWN_LEFT;
    000023C6 3Ar13r00         [13] 6427 	ld	a, (_g_CornerKickSide+0)
    000023C9 B7               [ 4] 6428 	or	a, a
    000023CA 20 0B            [12] 6429 	jr	NZ, 00296$
    000023CC DD 36 FE 04      [19] 6430 	ld	-2 (ix), #0x04
    000023D0 DD 36 FF 00      [19] 6431 	ld	-1 (ix), #0
    000023D4 C3rDFr23         [10] 6432 	jp	00297$
    000023D7                       6433 00296$:
    000023D7 DD 36 FE 06      [19] 6434 	ld	-2 (ix), #0x06
    000023DB DD 36 FF 00      [19] 6435 	ld	-1 (ix), #0
    000023DF                       6436 00297$:
    000023DF DD 7E FE         [19] 6437 	ld	a, -2 (ix)
    000023E2 DD 77 FD         [19] 6438 	ld	-3 (ix), a
                                   6439 ;./exsoccer.c:1480: g_Players[kickerId].Direction = kDir;
    000023E5 DD 4E E9         [19] 6440 	ld	c, -23 (ix)
    000023E8 06 00            [ 7] 6441 	ld	b, #0x00
    000023EA 69               [ 4] 6442 	ld	l, c
    000023EB 60               [ 4] 6443 	ld	h, b
    000023EC 29               [11] 6444 	add	hl, hl
    000023ED 29               [11] 6445 	add	hl, hl
    000023EE 09               [11] 6446 	add	hl, bc
    000023EF 29               [11] 6447 	add	hl, hl
    000023F0 29               [11] 6448 	add	hl, hl
    000023F1 09               [11] 6449 	add	hl, bc
    000023F2 DD 75 FE         [19] 6450 	ld	-2 (ix), l
    000023F5 DD 74 FF         [19] 6451 	ld	-1 (ix), h
    000023F8 3Er06            [ 7] 6452 	ld	a, #<(_g_Players)
    000023FA DD 86 FE         [19] 6453 	add	a, -2 (ix)
    000023FD DD 77 FA         [19] 6454 	ld	-6 (ix), a
    00002400 3Es00            [ 7] 6455 	ld	a, #>(_g_Players)
    00002402 DD 8E FF         [19] 6456 	adc	a, -1 (ix)
    00002405 DD 77 FB         [19] 6457 	ld	-5 (ix), a
    00002408 DD 7E FA         [19] 6458 	ld	a, -6 (ix)
    0000240B C6 0A            [ 7] 6459 	add	a, #0x0a
    0000240D DD 77 FE         [19] 6460 	ld	-2 (ix), a
    00002410 DD 7E FB         [19] 6461 	ld	a, -5 (ix)
    00002413 CE 00            [ 7] 6462 	adc	a, #0x00
    00002415 DD 77 FF         [19] 6463 	ld	-1 (ix), a
    00002418 DD 6E FE         [19] 6464 	ld	l, -2 (ix)
    0000241B DD 66 FF         [19] 6465 	ld	h, -1 (ix)
    0000241E DD 7E FD         [19] 6466 	ld	a, -3 (ix)
    00002421 77               [ 7] 6467 	ld	(hl), a
                                   6468 ;./exsoccer.c:1481: g_Players[kickerId].PatternId = GetNoMovingPlayerPatternId(kDir);
    00002422 DD 7E FA         [19] 6469 	ld	a, -6 (ix)
    00002425 C6 08            [ 7] 6470 	add	a, #0x08
    00002427 DD 77 FE         [19] 6471 	ld	-2 (ix), a
    0000242A DD 7E FB         [19] 6472 	ld	a, -5 (ix)
    0000242D CE 00            [ 7] 6473 	adc	a, #0x00
    0000242F DD 77 FF         [19] 6474 	ld	-1 (ix), a
    00002432 DD 7E FD         [19] 6475 	ld	a, -3 (ix)
    00002435 CDr7Br13         [17] 6476 	call	_GetNoMovingPlayerPatternId
    00002438 DD 77 FD         [19] 6477 	ld	-3 (ix), a
    0000243B DD 6E FE         [19] 6478 	ld	l, -2 (ix)
    0000243E DD 66 FF         [19] 6479 	ld	h, -1 (ix)
    00002441 DD 7E FD         [19] 6480 	ld	a, -3 (ix)
    00002444 77               [ 7] 6481 	ld	(hl), a
                                   6482 ;./exsoccer.c:1482: g_Players[kickerId].X = g_Players[kickerId].TargetX;
    00002445 DD 7E FA         [19] 6483 	ld	a, -6 (ix)
    00002448 C6 02            [ 7] 6484 	add	a, #0x02
    0000244A DD 77 FC         [19] 6485 	ld	-4 (ix), a
    0000244D DD 7E FB         [19] 6486 	ld	a, -5 (ix)
    00002450 CE 00            [ 7] 6487 	adc	a, #0x00
    00002452 DD 77 FD         [19] 6488 	ld	-3 (ix), a
    00002455 DD 7E FA         [19] 6489 	ld	a, -6 (ix)
    00002458 DD 77 FE         [19] 6490 	ld	-2 (ix), a
    0000245B DD 7E FB         [19] 6491 	ld	a, -5 (ix)
    0000245E DD 77 FF         [19] 6492 	ld	-1 (ix), a
    00002461 DD 6E FE         [19] 6493 	ld	l, -2 (ix)
    00002464 DD 66 FF         [19] 6494 	ld	h, -1 (ix)
    00002467 11 10 00         [10] 6495 	ld	de, #0x0010
    0000246A 19               [11] 6496 	add	hl, de
    0000246B 7E               [ 7] 6497 	ld	a, (hl)
    0000246C DD 77 FE         [19] 6498 	ld	-2 (ix), a
    0000246F 23               [ 6] 6499 	inc	hl
    00002470 7E               [ 7] 6500 	ld	a, (hl)
    00002471 DD 77 FF         [19] 6501 	ld	-1 (ix), a
    00002474 DD 6E FC         [19] 6502 	ld	l, -4 (ix)
    00002477 DD 66 FD         [19] 6503 	ld	h, -3 (ix)
    0000247A DD 7E FE         [19] 6504 	ld	a, -2 (ix)
    0000247D 77               [ 7] 6505 	ld	(hl), a
    0000247E 23               [ 6] 6506 	inc	hl
    0000247F DD 7E FF         [19] 6507 	ld	a, -1 (ix)
    00002482 77               [ 7] 6508 	ld	(hl), a
                                   6509 ;./exsoccer.c:1483: g_Players[kickerId].Y = g_Players[kickerId].TargetY;
    00002483 DD 7E FA         [19] 6510 	ld	a, -6 (ix)
    00002486 DD 77 FE         [19] 6511 	ld	-2 (ix), a
    00002489 DD 7E FB         [19] 6512 	ld	a, -5 (ix)
    0000248C DD 77 FF         [19] 6513 	ld	-1 (ix), a
    0000248F DD 6E FE         [19] 6514 	ld	l, -2 (ix)
    00002492 DD 66 FF         [19] 6515 	ld	h, -1 (ix)
    00002495 11 0E 00         [10] 6516 	ld	de, #0x000e
    00002498 19               [11] 6517 	add	hl, de
    00002499 7E               [ 7] 6518 	ld	a, (hl)
    0000249A DD 77 FE         [19] 6519 	ld	-2 (ix), a
    0000249D 23               [ 6] 6520 	inc	hl
    0000249E 7E               [ 7] 6521 	ld	a, (hl)
    0000249F DD 77 FF         [19] 6522 	ld	-1 (ix), a
    000024A2 DD 6E FA         [19] 6523 	ld	l, -6 (ix)
    000024A5 DD 66 FB         [19] 6524 	ld	h, -5 (ix)
    000024A8 DD 7E FE         [19] 6525 	ld	a, -2 (ix)
    000024AB 77               [ 7] 6526 	ld	(hl), a
    000024AC 23               [ 6] 6527 	inc	hl
    000024AD DD 7E FF         [19] 6528 	ld	a, -1 (ix)
    000024B0 77               [ 7] 6529 	ld	(hl), a
                                   6530 ;./exsoccer.c:1485: g_Players[kickerId].Status = PLAYER_STATUS_POSITIONED; 
    000024B1 DD 6E FA         [19] 6531 	ld	l, -6 (ix)
    000024B4 DD 66 FB         [19] 6532 	ld	h, -5 (ix)
    000024B7 11 12 00         [10] 6533 	ld	de, #0x0012
    000024BA 19               [11] 6534 	add	hl, de
    000024BB 36 04            [10] 6535 	ld	(hl), #0x04
    000024BD 23               [ 6] 6536 	inc	hl
    000024BE 36 00            [10] 6537 	ld	(hl), #0x00
    000024C0                       6538 00209$:
                                   6539 ;./exsoccer.c:1489: bool t1Trigger = IsTeamJoystickTriggerPressed(TEAM_1);
    000024C0 3E 01            [ 7] 6540 	ld	a, #0x01
    000024C2 CDr00r00         [17] 6541 	call	_IsTeamJoystickTriggerPressed
    000024C5 4F               [ 4] 6542 	ld	c, a
                                   6543 ;./exsoccer.c:1491: if (g_Timer == 180) t1Latched = true;
    000024C6 3Ar06r00         [13] 6544 	ld	a, (_g_Timer+0)
    000024C9 D6 B4            [ 7] 6545 	sub	a, #0xb4
    000024CB 20 05            [12] 6546 	jr	NZ, 00211$
    000024CD 21r83r01         [10] 6547 	ld	hl, #_TickCornerKick_t1Latched_196615_1643
    000024D0 36 01            [10] 6548 	ld	(hl), #0x01
    000024D2                       6549 00211$:
                                   6550 ;./exsoccer.c:1492: if (!t1Trigger) t1Latched = false;
    000024D2 79               [ 4] 6551 	ld	a, c
    000024D3 B7               [ 4] 6552 	or	a, a
    000024D4 20 05            [12] 6553 	jr	NZ, 00213$
    000024D6 21r83r01         [10] 6554 	ld	hl, #_TickCornerKick_t1Latched_196615_1643
    000024D9 36 00            [10] 6555 	ld	(hl), #0x00
    000024DB                       6556 00213$:
                                   6557 ;./exsoccer.c:1495: if (g_CornerKickTargetId != NO_VALUE) {
    000024DB 3Ar15r00         [13] 6558 	ld	a, (_g_CornerKickTargetId+0)
    000024DE 3C               [ 4] 6559 	inc	a
    000024DF 28 0D            [12] 6560 	jr	Z, 00215$
                                   6561 ;./exsoccer.c:1496: g_Ball.PassTargetPlayerId = g_CornerKickTargetId;
    000024E1 21r6Fr01         [10] 6562 	ld	hl, #(_g_Ball + 16)
    000024E4 3Ar15r00         [13] 6563 	ld	a, (_g_CornerKickTargetId+0)
    000024E7 77               [ 7] 6564 	ld	(hl), a
                                   6565 ;./exsoccer.c:1497: g_PassTargetPlayer = g_CornerKickTargetId;
    000024E8 3Ar15r00         [13] 6566 	ld	a, (_g_CornerKickTargetId+0)
    000024EB 32r09r00         [13] 6567 	ld	(_g_PassTargetPlayer+0), a
    000024EE                       6568 00215$:
                                   6569 ;./exsoccer.c:1500: if ((t1Trigger && !t1Latched || s_ForceKickTimer > 240) && g_CornerKickTargetId != NO_VALUE) {
    000024EE 79               [ 4] 6570 	ld	a, c
    000024EF B7               [ 4] 6571 	or	a, a
    000024F0 28 06            [12] 6572 	jr	Z, 00219$
    000024F2 3Ar83r01         [13] 6573 	ld	a, (_TickCornerKick_t1Latched_196615_1643+0)
    000024F5 B7               [ 4] 6574 	or	a, a
    000024F6 28 0C            [12] 6575 	jr	Z, 00220$
    000024F8                       6576 00219$:
    000024F8 2Ar80r01         [16] 6577 	ld	hl, (_TickCornerKick_s_ForceKickTimer_65537_1604)
    000024FB 3E F0            [ 7] 6578 	ld	a, #0xf0
    000024FD BD               [ 4] 6579 	cp	a, l
    000024FE 3E 00            [ 7] 6580 	ld	a, #0x00
    00002500 9C               [ 4] 6581 	sbc	a, h
    00002501 D2r6Cr26         [10] 6582 	jp	NC, 00270$
    00002504                       6583 00220$:
    00002504 3Ar15r00         [13] 6584 	ld	a, (_g_CornerKickTargetId+0)
    00002507 3C               [ 4] 6585 	inc	a
    00002508 CAr6Cr26         [10] 6586 	jp	Z,00270$
                                   6587 ;./exsoccer.c:1501: PerformPass(g_CornerKickTargetId);
    0000250B 3Ar15r00         [13] 6588 	ld	a, (_g_CornerKickTargetId+0)
    0000250E CDr00r00         [17] 6589 	call	_PerformPass
                                   6590 ;./exsoccer.c:1502: g_MatchStatus = MATCH_IN_ACTION;
    00002511 21r04r00         [10] 6591 	ld	hl, #_g_MatchStatus
    00002514 36 0C            [10] 6592 	ld	(hl), #0x0c
                                   6593 ;./exsoccer.c:1503: g_CornerKickTargetId = NO_VALUE;
    00002516 21r15r00         [10] 6594 	ld	hl, #_g_CornerKickTargetId
    00002519 36 FF            [10] 6595 	ld	(hl), #0xff
    0000251B C3r6Cr26         [10] 6596 	jp	00270$
    0000251E                       6597 00246$:
                                   6598 ;./exsoccer.c:1508: u8 joyDir = GetJoystick2Direction();
    0000251E CDr00r00         [17] 6599 	call	_GetJoystick2Direction
    00002521 47               [ 4] 6600 	ld	b, a
                                   6601 ;./exsoccer.c:1509: bool trigger = IsTeamJoystickTriggerPressed(TEAM_2);
    00002522 C5               [11] 6602 	push	bc
    00002523 3E 02            [ 7] 6603 	ld	a, #0x02
    00002525 CDr00r00         [17] 6604 	call	_IsTeamJoystickTriggerPressed
    00002528 C1               [10] 6605 	pop	bc
    00002529 DD 77 FC         [19] 6606 	ld	-4 (ix), a
                                   6607 ;./exsoccer.c:1512: if (g_CornerKickTargetId == NO_VALUE) g_CornerKickTargetId = GetPlayerIdByRole(TEAM_2, PLAYER_ROLE_LEFT_STRIKER);
    0000252C 3Ar15r00         [13] 6608 	ld	a, (_g_CornerKickTargetId+0)
    0000252F 3C               [ 4] 6609 	inc	a
    00002530 20 0C            [12] 6610 	jr	NZ, 00222$
    00002532 C5               [11] 6611 	push	bc
    00002533 2E 05            [ 7] 6612 	ld	l, #0x05
                                   6613 ;	spillPairReg hl
                                   6614 ;	spillPairReg hl
    00002535 3E 02            [ 7] 6615 	ld	a, #0x02
    00002537 CDr00r00         [17] 6616 	call	_GetPlayerIdByRole
    0000253A C1               [10] 6617 	pop	bc
    0000253B 32r15r00         [13] 6618 	ld	(_g_CornerKickTargetId+0), a
    0000253E                       6619 00222$:
                                   6620 ;./exsoccer.c:1514: if ((joyDir == DIRECTION_LEFT || joyDir == DIRECTION_RIGHT) && !joyMoved) {
    0000253E 78               [ 4] 6621 	ld	a,b
    0000253F FE 07            [ 7] 6622 	cp	a,#0x07
    00002541 28 04            [12] 6623 	jr	Z, 00238$
    00002543 D6 03            [ 7] 6624 	sub	a, #0x03
    00002545 20 75            [12] 6625 	jr	NZ, 00235$
    00002547                       6626 00238$:
    00002547 3Ar84r01         [13] 6627 	ld	a, (_TickCornerKick_joyMoved_196613_1646+0)
    0000254A B7               [ 4] 6628 	or	a, a
    0000254B 20 6F            [12] 6629 	jr	NZ, 00235$
                                   6630 ;./exsoccer.c:1515: u8 curr = g_CornerKickTargetId;
    0000254D 3Ar15r00         [13] 6631 	ld	a, (_g_CornerKickTargetId+0)
    00002550 4F               [ 4] 6632 	ld	c, a
                                   6633 ;./exsoccer.c:1517: do {
    00002551 78               [ 4] 6634 	ld	a, b
    00002552 D6 03            [ 7] 6635 	sub	a, #0x03
    00002554 3E 01            [ 7] 6636 	ld	a, #0x01
    00002556 28 01            [12] 6637 	jr	Z, 00857$
    00002558 AF               [ 4] 6638 	xor	a, a
    00002559                       6639 00857$:
    00002559 DD 77 FD         [19] 6640 	ld	-3 (ix), a
    0000255C DD 36 FF 00      [19] 6641 	ld	-1 (ix), #0x00
    00002560                       6642 00229$:
                                   6643 ;./exsoccer.c:1518: curr = (joyDir==DIRECTION_RIGHT) ? curr+1 : curr-1;
    00002560 DD 71 FE         [19] 6644 	ld	-2 (ix), c
    00002563 DD 7E FD         [19] 6645 	ld	a, -3 (ix)
    00002566 B7               [ 4] 6646 	or	a, a
    00002567 28 07            [12] 6647 	jr	Z, 00298$
    00002569 DD 4E FE         [19] 6648 	ld	c, -2 (ix)
    0000256C 0C               [ 4] 6649 	inc	c
    0000256D C3r74r25         [10] 6650 	jp	00299$
    00002570                       6651 00298$:
    00002570 DD 4E FE         [19] 6652 	ld	c, -2 (ix)
    00002573 0D               [ 4] 6653 	dec	c
    00002574                       6654 00299$:
                                   6655 ;./exsoccer.c:1519: if (curr > 13) curr = 0;
    00002574 3E 0D            [ 7] 6656 	ld	a, #0x0d
    00002576 91               [ 4] 6657 	sub	a, c
    00002577 30 02            [12] 6658 	jr	NC, 00224$
    00002579 0E 00            [ 7] 6659 	ld	c, #0x00
    0000257B                       6660 00224$:
                                   6661 ;./exsoccer.c:1520: if (g_Players[curr].TeamId == TEAM_2 && g_Players[curr].Role != PLAYER_ROLE_GOALKEEPER && curr != kickerId) {
    0000257B 06 00            [ 7] 6662 	ld	b, #0x00
    0000257D 69               [ 4] 6663 	ld	l, c
    0000257E 60               [ 4] 6664 	ld	h, b
    0000257F 29               [11] 6665 	add	hl, hl
    00002580 29               [11] 6666 	add	hl, hl
    00002581 09               [11] 6667 	add	hl, bc
    00002582 29               [11] 6668 	add	hl, hl
    00002583 29               [11] 6669 	add	hl, hl
    00002584 09               [11] 6670 	add	hl, bc
    00002585 EB               [ 4] 6671 	ex	de, hl
    00002586 21r06r00         [10] 6672 	ld	hl, #_g_Players
    00002589 19               [11] 6673 	add	hl, de
    0000258A EB               [ 4] 6674 	ex	de, hl
    0000258B D5               [11] 6675 	push	de
    0000258C FD E1            [14] 6676 	pop	iy
    0000258E FD 7E 09         [19] 6677 	ld	a, 9 (iy)
    00002591 D6 02            [ 7] 6678 	sub	a, #0x02
    00002593 20 15            [12] 6679 	jr	NZ, 00226$
    00002595 21 0D 00         [10] 6680 	ld	hl, #13
    00002598 19               [11] 6681 	add	hl, de
    00002599 7E               [ 7] 6682 	ld	a, (hl)
    0000259A B7               [ 4] 6683 	or	a, a
    0000259B 28 0D            [12] 6684 	jr	Z, 00226$
    0000259D DD 7E E9         [19] 6685 	ld	a, -23 (ix)
    000025A0 91               [ 4] 6686 	sub	a, c
    000025A1 28 07            [12] 6687 	jr	Z, 00226$
                                   6688 ;./exsoccer.c:1521: g_CornerKickTargetId = curr; break;
    000025A3 21r15r00         [10] 6689 	ld	hl, #_g_CornerKickTargetId
    000025A6 71               [ 7] 6690 	ld	(hl), c
    000025A7 C3rB4r25         [10] 6691 	jp	00231$
    000025AA                       6692 00226$:
                                   6693 ;./exsoccer.c:1523: loop++;
    000025AA DD 34 FF         [23] 6694 	inc	-1 (ix)
                                   6695 ;./exsoccer.c:1524: } while (loop < 15);
    000025AD DD 7E FF         [19] 6696 	ld	a, -1 (ix)
    000025B0 D6 0F            [ 7] 6697 	sub	a, #0x0f
    000025B2 38 AC            [12] 6698 	jr	C, 00229$
    000025B4                       6699 00231$:
                                   6700 ;./exsoccer.c:1525: joyMoved = true;
    000025B4 21r84r01         [10] 6701 	ld	hl, #_TickCornerKick_joyMoved_196613_1646
    000025B7 36 01            [10] 6702 	ld	(hl), #0x01
    000025B9 C3rC5r25         [10] 6703 	jp	00236$
    000025BC                       6704 00235$:
                                   6705 ;./exsoccer.c:1526: } else if (joyDir == DIRECTION_NONE) joyMoved = false;
    000025BC 78               [ 4] 6706 	ld	a, b
    000025BD B7               [ 4] 6707 	or	a, a
    000025BE 20 05            [12] 6708 	jr	NZ, 00236$
    000025C0 21r84r01         [10] 6709 	ld	hl, #_TickCornerKick_joyMoved_196613_1646
    000025C3 36 00            [10] 6710 	ld	(hl), #0x00
    000025C5                       6711 00236$:
                                   6712 ;./exsoccer.c:1528: if (g_CornerKickTargetId != NO_VALUE) {
    000025C5 3Ar15r00         [13] 6713 	ld	a, (_g_CornerKickTargetId+0)
    000025C8 3C               [ 4] 6714 	inc	a
    000025C9 28 0D            [12] 6715 	jr	Z, 00240$
                                   6716 ;./exsoccer.c:1529: g_Ball.PassTargetPlayerId = g_CornerKickTargetId;
    000025CB 21r6Fr01         [10] 6717 	ld	hl, #(_g_Ball + 16)
    000025CE 3Ar15r00         [13] 6718 	ld	a, (_g_CornerKickTargetId+0)
    000025D1 77               [ 7] 6719 	ld	(hl), a
                                   6720 ;./exsoccer.c:1530: g_PassTargetPlayer = g_CornerKickTargetId;
    000025D2 3Ar15r00         [13] 6721 	ld	a, (_g_CornerKickTargetId+0)
    000025D5 32r09r00         [13] 6722 	ld	(_g_PassTargetPlayer+0), a
    000025D8                       6723 00240$:
                                   6724 ;./exsoccer.c:1533: if ((trigger || s_ForceKickTimer > 240) && g_CornerKickTargetId != NO_VALUE) {
    000025D8 DD 7E FC         [19] 6725 	ld	a, -4 (ix)
    000025DB B7               [ 4] 6726 	or	a, a
    000025DC 20 0C            [12] 6727 	jr	NZ, 00244$
    000025DE 2Ar80r01         [16] 6728 	ld	hl, (_TickCornerKick_s_ForceKickTimer_65537_1604)
    000025E1 3E F0            [ 7] 6729 	ld	a, #0xf0
    000025E3 BD               [ 4] 6730 	cp	a, l
    000025E4 3E 00            [ 7] 6731 	ld	a, #0x00
    000025E6 9C               [ 4] 6732 	sbc	a, h
    000025E7 D2r6Cr26         [10] 6733 	jp	NC, 00270$
    000025EA                       6734 00244$:
    000025EA 3Ar15r00         [13] 6735 	ld	a, (_g_CornerKickTargetId+0)
    000025ED 3C               [ 4] 6736 	inc	a
    000025EE 28 7C            [12] 6737 	jr	Z, 00270$
                                   6738 ;./exsoccer.c:1534: PerformPass(g_CornerKickTargetId);
    000025F0 3Ar15r00         [13] 6739 	ld	a, (_g_CornerKickTargetId+0)
    000025F3 CDr00r00         [17] 6740 	call	_PerformPass
                                   6741 ;./exsoccer.c:1535: g_MatchStatus = MATCH_IN_ACTION;
    000025F6 21r04r00         [10] 6742 	ld	hl, #_g_MatchStatus
    000025F9 36 0C            [10] 6743 	ld	(hl), #0x0c
                                   6744 ;./exsoccer.c:1536: g_CornerKickTargetId = NO_VALUE;
    000025FB 21r15r00         [10] 6745 	ld	hl, #_g_CornerKickTargetId
    000025FE 36 FF            [10] 6746 	ld	(hl), #0xff
    00002600 C3r6Cr26         [10] 6747 	jp	00270$
    00002603                       6748 00260$:
                                   6749 ;./exsoccer.c:1542: if (g_CornerKickTargetId == NO_VALUE) {
    00002603 3Ar15r00         [13] 6750 	ld	a, (_g_CornerKickTargetId+0)
    00002606 3C               [ 4] 6751 	inc	a
    00002607 20 32            [12] 6752 	jr	NZ, 00253$
                                   6753 ;./exsoccer.c:1543: u8 randomRole = ((g_Timer & 1) == 0) ? PLAYER_ROLE_LEFT_STRIKER : PLAYER_ROLE_RIGHT_STRIKER;
    00002609 3Ar06r00         [13] 6754 	ld	a, (_g_Timer+0)
    0000260C 0F               [ 4] 6755 	rrca
    0000260D 38 06            [12] 6756 	jr	C, 00300$
    0000260F 21 05 00         [10] 6757 	ld	hl, #0x0005
    00002612 C3r18r26         [10] 6758 	jp	00301$
    00002615                       6759 00300$:
    00002615 21 06 00         [10] 6760 	ld	hl, #0x0006
    00002618                       6761 00301$:
                                   6762 ;./exsoccer.c:1544: u8 strikerId = GetPlayerIdByRole(g_RestartKickTeamId, randomRole);
    00002618 3Ar7Er01         [13] 6763 	ld	a, (_g_RestartKickTeamId+0)
    0000261B CDr00r00         [17] 6764 	call	_GetPlayerIdByRole
                                   6765 ;./exsoccer.c:1547: if (strikerId != NO_VALUE && strikerId != kickerId) {
    0000261E 4F               [ 4] 6766 	ld	c, a
    0000261F 3C               [ 4] 6767 	inc	a
    00002620 28 0D            [12] 6768 	jr	Z, 00249$
    00002622 DD 7E E9         [19] 6769 	ld	a, -23 (ix)
    00002625 91               [ 4] 6770 	sub	a, c
    00002626 28 07            [12] 6771 	jr	Z, 00249$
                                   6772 ;./exsoccer.c:1548: g_CornerKickTargetId = strikerId;
    00002628 21r15r00         [10] 6773 	ld	hl, #_g_CornerKickTargetId
    0000262B 71               [ 7] 6774 	ld	(hl), c
    0000262C C3r3Br26         [10] 6775 	jp	00253$
    0000262F                       6776 00249$:
                                   6777 ;./exsoccer.c:1550: g_CornerKickTargetId = GetClosestPlayerToBall(g_RestartKickTeamId, kickerId);
    0000262F DD 6E E9         [19] 6778 	ld	l, -23 (ix)
                                   6779 ;	spillPairReg hl
                                   6780 ;	spillPairReg hl
    00002632 3Ar7Er01         [13] 6781 	ld	a, (_g_RestartKickTeamId+0)
    00002635 CDr00r00         [17] 6782 	call	_GetClosestPlayerToBall
    00002638 32r15r00         [13] 6783 	ld	(_g_CornerKickTargetId+0), a
    0000263B                       6784 00253$:
                                   6785 ;./exsoccer.c:1554: if (g_Timer > 200) {
    0000263B 3E C8            [ 7] 6786 	ld	a, #0xc8
    0000263D 21r06r00         [10] 6787 	ld	hl, #_g_Timer
    00002640 96               [ 7] 6788 	sub	a, (hl)
    00002641 30 25            [12] 6789 	jr	NC, 00257$
                                   6790 ;./exsoccer.c:1555: if (g_CornerKickTargetId == NO_VALUE) g_CornerKickTargetId = GetClosestPlayerToBall(g_RestartKickTeamId, kickerId);
    00002643 3Ar15r00         [13] 6791 	ld	a, (_g_CornerKickTargetId+0)
    00002646 3C               [ 4] 6792 	inc	a
    00002647 20 0C            [12] 6793 	jr	NZ, 00255$
    00002649 DD 6E E9         [19] 6794 	ld	l, -23 (ix)
                                   6795 ;	spillPairReg hl
                                   6796 ;	spillPairReg hl
    0000264C 3Ar7Er01         [13] 6797 	ld	a, (_g_RestartKickTeamId+0)
    0000264F CDr00r00         [17] 6798 	call	_GetClosestPlayerToBall
    00002652 32r15r00         [13] 6799 	ld	(_g_CornerKickTargetId+0), a
    00002655                       6800 00255$:
                                   6801 ;./exsoccer.c:1557: PerformPass(g_CornerKickTargetId);
    00002655 3Ar15r00         [13] 6802 	ld	a, (_g_CornerKickTargetId+0)
    00002658 CDr00r00         [17] 6803 	call	_PerformPass
                                   6804 ;./exsoccer.c:1558: g_MatchStatus = MATCH_IN_ACTION; 
    0000265B 21r04r00         [10] 6805 	ld	hl, #_g_MatchStatus
    0000265E 36 0C            [10] 6806 	ld	(hl), #0x0c
                                   6807 ;./exsoccer.c:1559: g_CornerKickTargetId = NO_VALUE;
    00002660 21r15r00         [10] 6808 	ld	hl, #_g_CornerKickTargetId
    00002663 36 FF            [10] 6809 	ld	(hl), #0xff
    00002665 C3r6Cr26         [10] 6810 	jp	00270$
    00002668                       6811 00257$:
                                   6812 ;./exsoccer.c:1561: g_Timer++;
    00002668 21r06r00         [10] 6813 	ld	hl, #_g_Timer
    0000266B 34               [11] 6814 	inc	(hl)
    0000266C                       6815 00270$:
                                   6816 ;./exsoccer.c:1564: }
    0000266C DD F9            [10] 6817 	ld	sp, ix
    0000266E DD E1            [14] 6818 	pop	ix
    00002670 C9               [10] 6819 	ret
                                   6820 	.area _CODE
                                   6821 	.area _INITIALIZER
    00000000                       6822 __xinit__g_FieldCurrentYPosition:
    00000000 00 00                 6823 	.dw #0x0000
    00000002                       6824 __xinit__g_FieldScrollingActionInProgress:
    00000002 00                    6825 	.db #0x00	; 0
    00000003                       6826 __xinit__g_PlayersPositioningPhaseCount:
    00000003 FF                    6827 	.db #0xff	; 255
    00000004                       6828 __xinit__g_MatchStatus:
    00000004 00                    6829 	.db #0x00	; 0
    00000005                       6830 __xinit__g_FieldScrollSpeed:
    00000005 01                    6831 	.db #0x01	; 1
    00000006                       6832 __xinit__g_Timer:
    00000006 FF                    6833 	.db #0xff	; 255
    00000007                       6834 __xinit__g_Team1ActivePlayer:
    00000007 FF                    6835 	.db #0xff	; 255
    00000008                       6836 __xinit__g_Team2ActivePlayer:
    00000008 FF                    6837 	.db #0xff	; 255
    00000009                       6838 __xinit__g_PassTargetPlayer:
    00000009 FF                    6839 	.db #0xff	; 255
    0000000A                       6840 __xinit__g_GameWith2Players:
    0000000A 00                    6841 	.db #0x00	; 0
    0000000B                       6842 __xinit__g_GameLevel:
    0000000B 01                    6843 	.db #0x01	; 1
    0000000C                       6844 __xinit__g_ActionCooldown:
    0000000C 00                    6845 	.db #0x00	; 0
    0000000D                       6846 __xinit__g_ShootCooldown:
    0000000D 00                    6847 	.db #0x00	; 0
    0000000E                       6848 __xinit__g_ShotCursorX:
    0000000E 78 00                 6849 	.dw #0x0078
    00000010                       6850 __xinit__g_ShotCursorDir:
    00000010 02                    6851 	.db #0x02	;  2
    00000011                       6852 __xinit__g_FioBre:
    00000011 00                    6853 	.db #0x00	; 0
    00000012                       6854 __xinit__g_GoalScorerId:
    00000012 FF                    6855 	.db #0xff	; 255
    00000013                       6856 __xinit__g_CornerKickSide:
    00000013 00                    6857 	.db #0x00	; 0
    00000014                       6858 __xinit__g_GoalKickSide:
    00000014 00                    6859 	.db #0x00	; 0
    00000015                       6860 __xinit__g_CornerKickTargetId:
    00000015 FF                    6861 	.db #0xff	; 255
    00000016                       6862 __xinit__g_ThrowInPlayerId:
    00000016 FF                    6863 	.db #0xff	; 255
    00000017                       6864 __xinit__g_VSynch:
    00000017 00                    6865 	.db #0x00	; 0
    00000018                       6866 __xinit__g_GkRecoilY:
    00000018 00                    6867 	.db #0x00	;  0
                                   6868 	.area _CABS (ABS)
