                                      1 ;--------------------------------------------------------
                                      2 ; File Created by SDCC : free open source ANSI-C Compiler
                                      3 ; Version 4.2.0 #13081 (MINGW64)
                                      4 ;--------------------------------------------------------
                                      5 	.module exsoccer
                                      6 	.optsdcc -mz80
                                      7 	
                                      8 ;--------------------------------------------------------
                                      9 ; Public variables in this module
                                     10 ;--------------------------------------------------------
                                     11 	.globl _TickGoalCelebration
                                     12 	.globl _ayFX_Update
                                     13 	.globl _PCM_Play_11K
                                     14 	.globl _PT3_UpdatePSG
                                     15 	.globl _PT3_Decode
                                     16 	.globl _PT3_SetLoop
                                     17 	.globl _PT3_Resume
                                     18 	.globl _PT3_Pause
                                     19 	.globl _PT3_InitSong
                                     20 	.globl _PT3_Init
                                     21 	.globl _DEBUG_INIT
                                     22 	.globl _EffectPlay
                                     23 	.globl _ShowMenu
                                     24 	.globl _LoadPresentation
                                     25 	.globl _TickPonPonGirlsAnimation
                                     26 	.globl _InitPonPonGirls
                                     27 	.globl _EnforcePenaltyBoxRestriction
                                     28 	.globl _TickBallFlying
                                     29 	.globl _TickGoalKick
                                     30 	.globl _TickThrowIn
                                     31 	.globl _TickCornerKick
                                     32 	.globl _TickGoalkeeperAnimation
                                     33 	.globl _UpdatePassTarget
                                     34 	.globl _TickBallCollision
                                     35 	.globl _TickAI
                                     36 	.globl _TickCheckBallBoundaries
                                     37 	.globl _TickTeamJoystick
                                     38 	.globl _ClearTextFromLayerA
                                     39 	.globl _TickShowKickOff
                                     40 	.globl _TimeUp
                                     41 	.globl _GetJoystick2Direction
                                     42 	.globl _GetJoystick1Direction
                                     43 	.globl _TickPlayerToOwnTarget
                                     44 	.globl _PutBallSprite
                                     45 	.globl _UpdateSpritesPositions
                                     46 	.globl _SetTeamsPresentationSpritesPosition
                                     47 	.globl _ShowHeaderInfo
                                     48 	.globl _ShowFieldZone
                                     49 	.globl _SetTeam2Palette
                                     50 	.globl _SetTeam1Palette
                                     51 	.globl _V9_PutLayerBTileAtPos
                                     52 	.globl _V9_PutLayerATileAtPos
                                     53 	.globl _InitPalette
                                     54 	.globl _V9_Detect
                                     55 	.globl _V9_SetScrollingBY
                                     56 	.globl _V9_SetScrollingY
                                     57 	.globl _V9_SetScreenMode
                                     58 	.globl _V9_WriteVRAM_CurrentAddr
                                     59 	.globl _V9_FillVRAM16_CurrentAddr
                                     60 	.globl _V9_FillVRAM_CurrentAddr
                                     61 	.globl _V9_SetWriteAddress
                                     62 	.globl _V9_GetRegister
                                     63 	.globl _V9_SetRegister
                                     64 	.globl _V9_SetPort
                                     65 	.globl _Print_SetColor
                                     66 	.globl _Print_DrawText
                                     67 	.globl _Print_SetTextFont
                                     68 	.globl _VDP_RegWriteBakMask
                                     69 	.globl _VDP_SetMode
                                     70 	.globl _VDP_ClearVRAM
                                     71 	.globl _Mem_Copy
                                     72 	.globl _g_ponPonGirlsInitailized
                                     73 	.globl _g_peopleState
                                     74 	.globl _g_PonPonGrilsPoseCounter
                                     75 	.globl _g_ponPonPatternIndex
                                     76 	.globl _g_GkIsGroundKick
                                     77 	.globl _g_GkRecoilY
                                     78 	.globl _g_VSynch
                                     79 	.globl _g_ThrowInPlayerId
                                     80 	.globl _g_CornerKickTargetId
                                     81 	.globl _g_GoalKickSide
                                     82 	.globl _g_CornerKickSide
                                     83 	.globl _g_GoalScorerId
                                     84 	.globl _g_ShotCursorDir
                                     85 	.globl _g_ShotCursorX
                                     86 	.globl _g_ShootCooldown
                                     87 	.globl _g_ActionCooldown
                                     88 	.globl _g_GameLevel
                                     89 	.globl _g_GameWith2Players
                                     90 	.globl _g_PassTargetPlayer
                                     91 	.globl _g_Team2ActivePlayer
                                     92 	.globl _g_Team1ActivePlayer
                                     93 	.globl _g_Timer
                                     94 	.globl _g_FieldScrollSpeed
                                     95 	.globl _g_MatchStatus
                                     96 	.globl _g_PlayersPositioningPhaseCount
                                     97 	.globl _g_FieldCurrentYPosition
                                     98 	.globl _g_History2
                                     99 	.globl _g_History1
                                    100 	.globl _g_GkAnimPlayerId
                                    101 	.globl _g_GkAnimTimer
                                    102 	.globl _g_GirlPatterns
                                    103 	.globl _g_PonPonGirlsPos
                                    104 	.globl _g_PmcSoundPlaying
                                    105 	.globl _g_SoundRequest
                                    106 	.globl _g_PcmStartPlaying
                                    107 	.globl _g_SoundEffectLoopIsActive
                                    108 	.globl _g_FioBre
                                    109 	.globl _g_SecondsToEndOfMatch
                                    110 	.globl _g_RestartKickTeamId
                                    111 	.globl _g_ActiveFieldZone
                                    112 	.globl _g_Ball
                                    113 	.globl _g_PonPonGirls
                                    114 	.globl _g_Players
                                    115 	.globl _g_Team2Score
                                    116 	.globl _g_Team1Score
                                    117 	.globl _g_Team2PaletteId
                                    118 	.globl _g_Team1PaletteId
                                    119 	.globl _g_FieldScrollingActionInProgress
                                    120 	.globl _g_FrameCounter
                                    121 	.globl _g_RAM_MusicBuffer
                                    122 	.globl _g_PlayMatchMusic
                                    123 	.globl _g_SLTSL
                                    124 	.globl _g_GRPACY
                                    125 	.globl _g_GRPACX
                                    126 	.globl _g_LOGOPR
                                    127 	.globl _g_CMASK
                                    128 	.globl _g_CLOC
                                    129 	.globl _g_FNKSTR
                                    130 	.globl _g_ATRBYT
                                    131 	.globl _g_BDRCLR
                                    132 	.globl _g_BAKCLR
                                    133 	.globl _g_FORCLR
                                    134 	.globl _g_CSRX
                                    135 	.globl _g_CSRY
                                    136 	.globl _g_CLIKSW
                                    137 	.globl _g_MLTPAT
                                    138 	.globl _g_MLTATR
                                    139 	.globl _g_MLTCGP
                                    140 	.globl _g_MLTCOL
                                    141 	.globl _g_MLTNAM
                                    142 	.globl _g_GRPPAT
                                    143 	.globl _g_GRPATR
                                    144 	.globl _g_GRPCGP
                                    145 	.globl _g_GRPCOL
                                    146 	.globl _g_GRPNAM
                                    147 	.globl _g_T32PAT
                                    148 	.globl _g_T32ATR
                                    149 	.globl _g_T32CGP
                                    150 	.globl _g_T32COL
                                    151 	.globl _g_T32NAM
                                    152 	.globl _g_TXTPAT
                                    153 	.globl _g_TXTATR
                                    154 	.globl _g_TXTCGP
                                    155 	.globl _g_TXTCOL
                                    156 	.globl _g_TXTNAM
                                    157 	.globl _g_CLMLST
                                    158 	.globl _g_CRTCNT
                                    159 	.globl _g_LINLEN
                                    160 	.globl _g_LINL32
                                    161 	.globl _g_LINL40
                                    162 	.globl _g_TeamStats
                                    163 	.globl _PT3_NT2
                                    164 	.globl _g_BDOS
                                    165 	.globl _g_MASTER
                                    166 	.globl _g_RAMAD3
                                    167 	.globl _g_RAMAD2
                                    168 	.globl _g_RAMAD1
                                    169 	.globl _g_RAMAD0
                                    170 	.globl _g_BREAKV
                                    171 	.globl _g_DISKVE
                                    172 	.globl _g_KANJTABLE
                                    173 	.globl _g_STRSRC
                                    174 	.globl _g_SUBRID
                                    175 	.globl _g_CHAR_16
                                    176 	.globl _g_MSXMID
                                    177 	.globl _g_MSXVER
                                    178 	.globl _g_ROMVersion
                                    179 	.globl _g_BASRVN
                                    180 	.globl _g_VDP_DW
                                    181 	.globl _g_VDP_DR
                                    182 	.globl _g_CGTABL
                                    183 	.globl _g_SVFFFD
                                    184 	.globl _g_RG27SAV
                                    185 	.globl _g_RG26SAV
                                    186 	.globl _g_RG25SAV
                                    187 	.globl _g_SVFFF8
                                    188 	.globl _g_MINROM
                                    189 	.globl _g_RG23SAV
                                    190 	.globl _g_RG22SAV
                                    191 	.globl _g_RG21SAV
                                    192 	.globl _g_RG20SAV
                                    193 	.globl _g_RG19SAV
                                    194 	.globl _g_RG18SAV
                                    195 	.globl _g_RG17SAV
                                    196 	.globl _g_RG16SAV
                                    197 	.globl _g_RG15SAV
                                    198 	.globl _g_RG14SAV
                                    199 	.globl _g_RG13SAV
                                    200 	.globl _g_RG12SAV
                                    201 	.globl _g_RG11SAV
                                    202 	.globl _g_RG10SAV
                                    203 	.globl _g_RG09SAV
                                    204 	.globl _g_RG08SAV
                                    205 	.globl _g_PROCNM
                                    206 	.globl _g_SLTWRK
                                    207 	.globl _g_SLTATR
                                    208 	.globl _g_SLTTBL
                                    209 	.globl _g_EXPTBL
                                    210 	.globl _g_MNROM
                                    211 	.globl _g_DRWANG
                                    212 	.globl _g_DRWSCL
                                    213 	.globl _g_DRWFLG
                                    214 	.globl _g_GYPOS
                                    215 	.globl _g_GXPOS
                                    216 	.globl _g_BRDATR
                                    217 	.globl _g_CASPRV
                                    218 	.globl _g_OLDSCR
                                    219 	.globl _g_SCRMOD
                                    220 	.globl _g_FLBMEM
                                    221 	.globl _g_KANAMD
                                    222 	.globl _g_KANAST
                                    223 	.globl _g_CAPST
                                    224 	.globl _g_CSTYLE
                                    225 	.globl _g_CSRSW
                                    226 	.globl _g_INSFLG
                                    227 	.globl _g_ESCCNT
                                    228 	.globl _g_GRPHED
                                    229 	.globl _g_WINWID
                                    230 	.globl _g_LOWLIM
                                    231 	.globl _g_INTCNT
                                    232 	.globl _g_INTVAL
                                    233 	.globl _g_JIFFY
                                    234 	.globl _g_PADX
                                    235 	.globl _g_PADY
                                    236 	.globl _g_INTFLG
                                    237 	.globl _g_RTYCNT
                                    238 	.globl _g_TRPTBL
                                    239 	.globl _g_HIMEM
                                    240 	.globl _g_BOTTOM
                                    241 	.globl _g_PATWRK
                                    242 	.globl _g_LINWRK
                                    243 	.globl _g_KEYBUF
                                    244 	.globl _g_NEWKEY
                                    245 	.globl _g_OLDKEY
                                    246 	.globl _g_CLIKFL
                                    247 	.globl _g_ONGSBF
                                    248 	.globl _g_FNKFLG
                                    249 	.globl _g_FNKSWI
                                    250 	.globl _g_CODSAV
                                    251 	.globl _g_FSTPOS
                                    252 	.globl _g_LINTTB
                                    253 	.globl _g_BASROM
                                    254 	.globl _g_ENSTOP
                                    255 	.globl _g_VCBC
                                    256 	.globl _g_VCBB
                                    257 	.globl _g_VCBA
                                    258 	.globl _g_PLYCNT
                                    259 	.globl _g_MUSICF
                                    260 	.globl _g_QUEUEN
                                    261 	.globl _g_MCLPTR
                                    262 	.globl _g_MCLLEN
                                    263 	.globl _g_SAVVOL
                                    264 	.globl _g_VOICEN
                                    265 	.globl _g_SAVSP
                                    266 	.globl _g_PRSCNT
                                    267 	.globl _g_LSTMOD
                                    268 	.globl _g_LSTCOM
                                    269 	.globl _g_COMMSK
                                    270 	.globl _g_ESTBLS
                                    271 	.globl _g_FLAGS
                                    272 	.globl _g_ERRORS
                                    273 	.globl _g_DATCNT
                                    274 	.globl _g_DEVNUM
                                    275 	.globl _g_OLDINT
                                    276 	.globl _g_OLDSTT
                                    277 	.globl _g_MEXBIh
                                    278 	.globl _g_RSIQLN
                                    279 	.globl _g_RSFCB
                                    280 	.globl _g_TOCNT
                                    281 	.globl _g_RSTMP
                                    282 	.globl _g_YSAVE
                                    283 	.globl _g_XSAVE
                                    284 	.globl _g_NORUSE
                                    285 	.globl _g_MODE
                                    286 	.globl _g_ROMA
                                    287 	.globl _g_CHRCNT
                                    288 	.globl _g_EXBRSA
                                    289 	.globl _g_AVCSAV
                                    290 	.globl _g_ACPAGE
                                    291 	.globl _g_DPPAGE
                                    292 	.globl _g_RS2IQ
                                    293 	.globl _g_VOICCQ
                                    294 	.globl _g_VOICBQ
                                    295 	.globl _g_VOICAQ
                                    296 	.globl _g_QUEBAK
                                    297 	.globl _g_QUETAB
                                    298 	.globl _g_ASPCT2
                                    299 	.globl _g_ASPCT1
                                    300 	.globl _g_HEADER
                                    301 	.globl _g_HIGH
                                    302 	.globl _g_LOW
                                    303 	.globl _g_CS240
                                    304 	.globl _g_CS120
                                    305 	.globl _g_GETPNT
                                    306 	.globl _g_PUTPNT
                                    307 	.globl _g_REPCNT
                                    308 	.globl _g_SCNCNT
                                    309 	.globl _g_FRCNEW
                                    310 	.globl _g_QUEUES
                                    311 	.globl _g_MINUPD
                                    312 	.globl _g_MAXUPD
                                    313 	.globl _g_TRGFLG
                                    314 	.globl _g_STATFL
                                    315 	.globl _g_RG7SAV
                                    316 	.globl _g_RG6SAV
                                    317 	.globl _g_RG5SAV
                                    318 	.globl _g_RG4SAV
                                    319 	.globl _g_RG3SAV
                                    320 	.globl _g_RG2SAV
                                    321 	.globl _g_RG1SAV
                                    322 	.globl _g_RG0SAV
                                    323 	.globl _g_CNSDFG
                                    324 	.globl _g_USRTAB
                                    325 	.globl _g_CLPRIM
                                    326 	.globl _g_WRPRIM
                                    327 	.globl _g_RDPRIM
                                    328 	.globl _PlayPcm
                                    329 	.globl _UpdateV9990
                                    330 	.globl _InitVariables
                                    331 	.globl _WaitV9990Synch
                                    332 	.globl _StopPT3Music
                                    333 	.globl _PlayPT3Music
                                    334 	.globl _LoadP1LayerA
                                    335 	.globl _LoadP1LayerB
                                    336 	.globl _ShowField
                                    337 	.globl _V9_InterruptHBlank
                                    338 	.globl _V9_InterruptVBlank
                                    339 	.globl _PutPonPonGirlSprite
                                    340 	.globl _V9_InterruptCommand
                                    341 	.globl _GameStart
                                    342 	.globl _V9_PrintLayerAStringAtPos
                                    343 	.globl _TickActiveFieldZone
                                    344 	.globl _TickUpdateTime
                                    345 	.globl _GetOffsideLineY
                                    346 	.globl _PutBallOnPlayerFeet
                                    347 	.globl _InitializeV9990
                                    348 	.globl _TickShotCursor
                                    349 	.globl _LoadSprites
                                    350 	.globl _main
                                    351 	.globl _MainGameLoop
                                    352 	.globl _UpdatePlayerPatternByDirection
                                    353 	.globl _GetNoMovingPlayerPatternId
                                    354 	.globl _GetNewPoseByDirection
                                    355 	.globl _GetPatternIdByPoseAndDirection
                                    356 	.globl _SetPlayerTarget
                                    357 	.globl _GetTeamStats
                                    358 	.globl _IsOffside
                                    359 	.globl _PerformPass
                                    360 	.globl _SetPlayerBallPossession
                                    361 ;--------------------------------------------------------
                                    362 ; special function registers
                                    363 ;--------------------------------------------------------
                         000000A8   364 _g_PortPrimarySlot	=	0x00a8
                         000000A9   365 _g_PortReadKeyboard	=	0x00a9
                         000000AA   366 _g_PortAccessKeyboard	=	0x00aa
                         000000AB   367 _g_PortControl	=	0x00ab
                         00000098   368 _g_VDP_DataPort	=	0x0098
                         00000099   369 _g_VDP_RegPort	=	0x0099
                         00000099   370 _g_VDP_AddrPort	=	0x0099
                         00000099   371 _g_VDP_StatPort	=	0x0099
                         000000A0   372 _g_PSG_RegPort	=	0x00a0
                         000000A1   373 _g_PSG_DataPort	=	0x00a1
                         000000A2   374 _g_PSG_StatPort	=	0x00a2
                         00000010   375 _g_PSG_Ext_RegPort	=	0x0010
                         00000011   376 _g_PSG_Ext_DataPort	=	0x0011
                         00000012   377 _g_PSG_Ext_StatPort	=	0x0012
                         0000007C   378 _g_MSXMusic_IndexPort	=	0x007c
                         0000007D   379 _g_MSXMusic_DataPort	=	0x007d
                         000000C0   380 _g_MSXAudio_IndexPort	=	0x00c0
                         000000C1   381 _g_MSXAudio_DataPort	=	0x00c1
                         000000C2   382 _g_MSXAudio_IndexPort2	=	0x00c2
                         000000C3   383 _g_MSXAudio_DataPort2	=	0x00c3
                         000000B4   384 _g_RTC_AddrPort	=	0x00b4
                         000000B5   385 _g_RTC_DataPort	=	0x00b5
                         00000060   386 _g_V9_VRAMPort	=	0x0060
                         00000061   387 _g_V9_PalettePort	=	0x0061
                         00000062   388 _g_V9_CmdDataPort	=	0x0062
                         00000063   389 _g_V9_RegDataPort	=	0x0063
                         00000064   390 _g_V9_RegSelectPort	=	0x0064
                         00000065   391 _g_V9_SatusPort	=	0x0065
                         00000066   392 _g_V9_IntFlagPort	=	0x0066
                         00000067   393 _g_V9_SysCtrlPort	=	0x0067
                         00000068   394 _g_V9_KanjiAddrLPort	=	0x0068
                         00000069   395 _g_V9_KanjiAddrHPort	=	0x0069
                         00000069   396 _g_V9_KanjiDataPort	=	0x0069
                         0000006A   397 _g_V9_Kanji2AddrLPort	=	0x006a
                         0000006B   398 _g_V9_Kanji2AddrHPort	=	0x006b
                         0000006B   399 _g_V9_Kanji2DataPort	=	0x006b
                         0000006F   400 _g_V9_OutputCtrPort	=	0x006f
                                    401 ;--------------------------------------------------------
                                    402 ; ram data
                                    403 ;--------------------------------------------------------
                                    404 	.area _DATA
                         0000F3AE   405 _g_LINL40	=	0xf3ae
                         0000F3AF   406 _g_LINL32	=	0xf3af
                         0000F3B0   407 _g_LINLEN	=	0xf3b0
                         0000F3B1   408 _g_CRTCNT	=	0xf3b1
                         0000F3B2   409 _g_CLMLST	=	0xf3b2
                         0000F3B3   410 _g_TXTNAM	=	0xf3b3
                         0000F3B5   411 _g_TXTCOL	=	0xf3b5
                         0000F3B7   412 _g_TXTCGP	=	0xf3b7
                         0000F3B9   413 _g_TXTATR	=	0xf3b9
                         0000F3BB   414 _g_TXTPAT	=	0xf3bb
                         0000F3BD   415 _g_T32NAM	=	0xf3bd
                         0000F3BF   416 _g_T32COL	=	0xf3bf
                         0000F3C1   417 _g_T32CGP	=	0xf3c1
                         0000F3C3   418 _g_T32ATR	=	0xf3c3
                         0000F3C5   419 _g_T32PAT	=	0xf3c5
                         0000F3C7   420 _g_GRPNAM	=	0xf3c7
                         0000F3C9   421 _g_GRPCOL	=	0xf3c9
                         0000F3CB   422 _g_GRPCGP	=	0xf3cb
                         0000F3CD   423 _g_GRPATR	=	0xf3cd
                         0000F3CF   424 _g_GRPPAT	=	0xf3cf
                         0000F3D1   425 _g_MLTNAM	=	0xf3d1
                         0000F3D3   426 _g_MLTCOL	=	0xf3d3
                         0000F3D5   427 _g_MLTCGP	=	0xf3d5
                         0000F3D7   428 _g_MLTATR	=	0xf3d7
                         0000F3D9   429 _g_MLTPAT	=	0xf3d9
                         0000F3DB   430 _g_CLIKSW	=	0xf3db
                         0000F3DC   431 _g_CSRY	=	0xf3dc
                         0000F3DD   432 _g_CSRX	=	0xf3dd
                         0000F3E9   433 _g_FORCLR	=	0xf3e9
                         0000F3EA   434 _g_BAKCLR	=	0xf3ea
                         0000F3EB   435 _g_BDRCLR	=	0xf3eb
                         0000F3F2   436 _g_ATRBYT	=	0xf3f2
                         0000F87F   437 _g_FNKSTR	=	0xf87f
                         0000F92A   438 _g_CLOC	=	0xf92a
                         0000F92C   439 _g_CMASK	=	0xf92c
                         0000FB02   440 _g_LOGOPR	=	0xfb02
                         0000FCB7   441 _g_GRPACX	=	0xfcb7
                         0000FCB9   442 _g_GRPACY	=	0xfcb9
                         0000FFFF   443 _g_SLTSL	=	0xffff
    00000000                        444 _g_PlayMatchMusic::
    00000000                        445 	.ds 1
    00000001                        446 _g_RAM_MusicBuffer::
    00000001                        447 	.ds 4096
    00001001                        448 _g_FrameCounter::
    00001001                        449 	.ds 2
    00001003                        450 _g_FieldScrollingActionInProgress::
    00001003                        451 	.ds 1
    00001004                        452 _g_Team1PaletteId::
    00001004                        453 	.ds 1
    00001005                        454 _g_Team2PaletteId::
    00001005                        455 	.ds 1
    00001006                        456 _g_Team1Score::
    00001006                        457 	.ds 1
    00001007                        458 _g_Team2Score::
    00001007                        459 	.ds 1
    00001008                        460 _g_Players::
    00001008                        461 	.ds 315
    00001143                        462 _g_PonPonGirls::
    00001143                        463 	.ds 30
    00001161                        464 _g_Ball::
    00001161                        465 	.ds 30
    0000117F                        466 _g_ActiveFieldZone::
    0000117F                        467 	.ds 1
    00001180                        468 _g_RestartKickTeamId::
    00001180                        469 	.ds 1
    00001181                        470 _g_SecondsToEndOfMatch::
    00001181                        471 	.ds 1
    00001182                        472 _g_FioBre::
    00001182                        473 	.ds 1
    00001183                        474 _g_SoundEffectLoopIsActive::
    00001183                        475 	.ds 1
                                    476 ;--------------------------------------------------------
                                    477 ; ram data
                                    478 ;--------------------------------------------------------
                                    479 	.area _INITIALIZED
    00000000                        480 _g_PcmStartPlaying::
    00000000                        481 	.ds 1
    00000001                        482 _g_SoundRequest::
    00000001                        483 	.ds 1
    00000002                        484 _g_PmcSoundPlaying::
    00000002                        485 	.ds 1
    00000003                        486 _g_PonPonGirlsPos::
    00000003                        487 	.ds 6
    00000009                        488 _g_GirlPatterns::
    00000009                        489 	.ds 9
    00000012                        490 _g_GkAnimTimer::
    00000012                        491 	.ds 1
    00000013                        492 _g_GkAnimPlayerId::
    00000013                        493 	.ds 1
    00000014                        494 _g_History1::
    00000014                        495 	.ds 20
    00000028                        496 _g_History2::
    00000028                        497 	.ds 20
    0000003C                        498 _g_FieldCurrentYPosition::
    0000003C                        499 	.ds 2
    0000003E                        500 _g_PlayersPositioningPhaseCount::
    0000003E                        501 	.ds 1
    0000003F                        502 _g_MatchStatus::
    0000003F                        503 	.ds 1
    00000040                        504 _g_FieldScrollSpeed::
    00000040                        505 	.ds 1
    00000041                        506 _g_Timer::
    00000041                        507 	.ds 1
    00000042                        508 _g_Team1ActivePlayer::
    00000042                        509 	.ds 1
    00000043                        510 _g_Team2ActivePlayer::
    00000043                        511 	.ds 1
    00000044                        512 _g_PassTargetPlayer::
    00000044                        513 	.ds 1
    00000045                        514 _g_GameWith2Players::
    00000045                        515 	.ds 1
    00000046                        516 _g_GameLevel::
    00000046                        517 	.ds 1
    00000047                        518 _g_ActionCooldown::
    00000047                        519 	.ds 1
    00000048                        520 _g_ShootCooldown::
    00000048                        521 	.ds 1
    00000049                        522 _g_ShotCursorX::
    00000049                        523 	.ds 2
    0000004B                        524 _g_ShotCursorDir::
    0000004B                        525 	.ds 1
    0000004C                        526 _g_GoalScorerId::
    0000004C                        527 	.ds 1
    0000004D                        528 _g_CornerKickSide::
    0000004D                        529 	.ds 1
    0000004E                        530 _g_GoalKickSide::
    0000004E                        531 	.ds 1
    0000004F                        532 _g_CornerKickTargetId::
    0000004F                        533 	.ds 1
    00000050                        534 _g_ThrowInPlayerId::
    00000050                        535 	.ds 1
    00000051                        536 _g_VSynch::
    00000051                        537 	.ds 1
    00000052                        538 _g_GkRecoilY::
    00000052                        539 	.ds 1
    00000053                        540 _g_GkIsGroundKick::
    00000053                        541 	.ds 1
    00000054                        542 _g_ponPonPatternIndex::
    00000054                        543 	.ds 1
    00000055                        544 _g_PonPonGrilsPoseCounter::
    00000055                        545 	.ds 1
    00000056                        546 _g_peopleState::
    00000056                        547 	.ds 1
    00000057                        548 _g_ponPonGirlsInitailized::
    00000057                        549 	.ds 1
                                    550 ;--------------------------------------------------------
                                    551 ; absolute external ram data
                                    552 ;--------------------------------------------------------
                                    553 	.area _DABS (ABS)
                                    554 ;--------------------------------------------------------
                                    555 ; global & static initialisations
                                    556 ;--------------------------------------------------------
                                    557 	.area _HOME
                                    558 	.area _GSINIT
                                    559 	.area _GSFINAL
                                    560 	.area _GSINIT
                                    561 ;--------------------------------------------------------
                                    562 ; Home
                                    563 ;--------------------------------------------------------
                                    564 	.area _HOME
                                    565 	.area _HOME
                                    566 ;--------------------------------------------------------
                                    567 ; code
                                    568 ;--------------------------------------------------------
                                    569 	.area _CODE
                                    570 ;./exsoccer.c:116: void PlayPcm(u8 id){
                                    571 ;	---------------------------------
                                    572 ; Function PlayPcm
                                    573 ; ---------------------------------
    00000000                        574 _PlayPcm::
    00000000 4F               [ 4]  575 	ld	c, a
                                    576 ;./exsoccer.c:118: switch(id){
    00000001 3E 0A            [ 7]  577 	ld	a, #0x0a
    00000003 91               [ 4]  578 	sub	a, c
    00000004 DArF9r00         [10]  579 	jp	C, 00109$
    00000007 06 00            [ 7]  580 	ld	b, #0x00
    00000009 21r10r00         [10]  581 	ld	hl, #00282$
    0000000C 09               [11]  582 	add	hl, bc
    0000000D 09               [11]  583 	add	hl, bc
    0000000E 09               [11]  584 	add	hl, bc
    0000000F E9               [ 4]  585 	jp	(hl)
    00000010                        586 00282$:
    00000010 C3rF9r00         [10]  587 	jp	00109$
    00000013 C3r5Br00         [10]  588 	jp	00103$
    00000016 C3r31r00         [10]  589 	jp	00101$
    00000019 C3r43r00         [10]  590 	jp	00102$
    0000001C C3rC0r00         [10]  591 	jp	00106$
    0000001F C3r72r00         [10]  592 	jp	00104$
    00000022 C3rF9r00         [10]  593 	jp	00109$
    00000025 C3rF9r00         [10]  594 	jp	00109$
    00000028 C3rA8r00         [10]  595 	jp	00105$
    0000002B C3rD8r00         [10]  596 	jp	00107$
    0000002E C3rEAr00         [10]  597 	jp	00108$
                                    598 ;./exsoccer.c:119: case SOUND_REFEREE:
    00000031                        599 00101$:
                                    600 ;E:/Dropbox/FAUSTO/SVILUPPI/MSX/CODE/C/MSXgl/engine/src/rom_mapper.h:112: g_Bank0Segment[b] = s;
    00000031 21 1F 00         [10]  601 	ld	hl, #0x001f
    00000034 22r04r00         [16]  602 	ld	((_g_Bank0Segment + 4)), hl
                                    603 ;E:/Dropbox/FAUSTO/SVILUPPI/MSX/CODE/C/MSXgl/engine/src/system.h:109: inline void Poke16(u16 addr, u16 val) { *(u16*)addr = val; }
    00000037 22 00 70         [16]  604 	ld	(0x7000), hl
                                    605 ;./exsoccer.c:121: PCM_Play_11K((u16)g_SoundRefereer);
    0000003A 21r00r00         [10]  606 	ld	hl, #_g_SoundRefereer
    0000003D CDr00r00         [17]  607 	call	_PCM_Play_11K
                                    608 ;./exsoccer.c:122: break;
    00000040 C3rF9r00         [10]  609 	jp	00109$
                                    610 ;./exsoccer.c:123: case SOUND_CORNERKICK:
    00000043                        611 00102$:
                                    612 ;./exsoccer.c:124: PT3_Pause();
    00000043 CDr00r00         [17]  613 	call	_PT3_Pause
                                    614 ;E:/Dropbox/FAUSTO/SVILUPPI/MSX/CODE/C/MSXgl/engine/src/rom_mapper.h:112: g_Bank0Segment[b] = s;
    00000046 21 20 00         [10]  615 	ld	hl, #0x0020
    00000049 22r04r00         [16]  616 	ld	((_g_Bank0Segment + 4)), hl
                                    617 ;E:/Dropbox/FAUSTO/SVILUPPI/MSX/CODE/C/MSXgl/engine/src/system.h:109: inline void Poke16(u16 addr, u16 val) { *(u16*)addr = val; }
    0000004C 22 00 70         [16]  618 	ld	(0x7000), hl
                                    619 ;./exsoccer.c:126: PCM_Play_11K((u16)g_SoundCornerKick);
    0000004F 21r00r00         [10]  620 	ld	hl, #_g_SoundCornerKick
    00000052 CDr00r00         [17]  621 	call	_PCM_Play_11K
                                    622 ;./exsoccer.c:127: PT3_Resume();
    00000055 CDr00r00         [17]  623 	call	_PT3_Resume
                                    624 ;./exsoccer.c:128: break;
    00000058 C3rF9r00         [10]  625 	jp	00109$
                                    626 ;./exsoccer.c:129: case SOUND_KICKOFF:
    0000005B                        627 00103$:
                                    628 ;E:/Dropbox/FAUSTO/SVILUPPI/MSX/CODE/C/MSXgl/engine/src/rom_mapper.h:112: g_Bank0Segment[b] = s;
    0000005B 21 1E 00         [10]  629 	ld	hl, #0x001e
    0000005E 22r04r00         [16]  630 	ld	((_g_Bank0Segment + 4)), hl
                                    631 ;E:/Dropbox/FAUSTO/SVILUPPI/MSX/CODE/C/MSXgl/engine/src/system.h:109: inline void Poke16(u16 addr, u16 val) { *(u16*)addr = val; }
    00000061 22 00 70         [16]  632 	ld	(0x7000), hl
                                    633 ;./exsoccer.c:131: PCM_Play_11K((u16)g_SoundKickoff);
    00000064 21r00r00         [10]  634 	ld	hl, #_g_SoundKickoff
    00000067 CDr00r00         [17]  635 	call	_PCM_Play_11K
                                    636 ;./exsoccer.c:132: g_PlayMatchMusic=true;
    0000006A 21r00r00         [10]  637 	ld	hl, #_g_PlayMatchMusic
    0000006D 36 01            [10]  638 	ld	(hl), #0x01
                                    639 ;./exsoccer.c:133: break;
    0000006F C3rF9r00         [10]  640 	jp	00109$
                                    641 ;./exsoccer.c:134: case SOUND_INGOAL:
    00000072                        642 00104$:
                                    643 ;E:/Dropbox/FAUSTO/SVILUPPI/MSX/CODE/C/MSXgl/engine/src/rom_mapper.h:112: g_Bank0Segment[b] = s;
    00000072 21 21 00         [10]  644 	ld	hl, #0x0021
    00000075 22r04r00         [16]  645 	ld	((_g_Bank0Segment + 4)), hl
                                    646 ;E:/Dropbox/FAUSTO/SVILUPPI/MSX/CODE/C/MSXgl/engine/src/system.h:109: inline void Poke16(u16 addr, u16 val) { *(u16*)addr = val; }
    00000078 22 00 70         [16]  647 	ld	(0x7000), hl
                                    648 ;./exsoccer.c:136: PCM_Play_11K((u16)g_SoundInGoal);
    0000007B 21r00r00         [10]  649 	ld	hl, #_g_SoundInGoal
    0000007E CDr00r00         [17]  650 	call	_PCM_Play_11K
                                    651 ;E:/Dropbox/FAUSTO/SVILUPPI/MSX/CODE/C/MSXgl/engine/src/rom_mapper.h:112: g_Bank0Segment[b] = s;
    00000081 21 23 00         [10]  652 	ld	hl, #0x0023
    00000084 22r04r00         [16]  653 	ld	((_g_Bank0Segment + 4)), hl
                                    654 ;E:/Dropbox/FAUSTO/SVILUPPI/MSX/CODE/C/MSXgl/engine/src/system.h:109: inline void Poke16(u16 addr, u16 val) { *(u16*)addr = val; }
    00000087 22 00 70         [16]  655 	ld	(0x7000), hl
                                    656 ;./exsoccer.c:138: PCM_Play_11K((u16)g_SoundInGoal1);
    0000008A 21r00r00         [10]  657 	ld	hl, #_g_SoundInGoal1
    0000008D CDr00r00         [17]  658 	call	_PCM_Play_11K
                                    659 ;E:/Dropbox/FAUSTO/SVILUPPI/MSX/CODE/C/MSXgl/engine/src/rom_mapper.h:112: g_Bank0Segment[b] = s;
    00000090 21 24 00         [10]  660 	ld	hl, #0x0024
    00000093 22r04r00         [16]  661 	ld	((_g_Bank0Segment + 4)), hl
                                    662 ;E:/Dropbox/FAUSTO/SVILUPPI/MSX/CODE/C/MSXgl/engine/src/system.h:109: inline void Poke16(u16 addr, u16 val) { *(u16*)addr = val; }
    00000096 22 00 70         [16]  663 	ld	(0x7000), hl
                                    664 ;./exsoccer.c:140: PCM_Play_11K((u16)g_SoundInGoal2);
    00000099 21r00r00         [10]  665 	ld	hl, #_g_SoundInGoal2
    0000009C CDr00r00         [17]  666 	call	_PCM_Play_11K
                                    667 ;./exsoccer.c:141: PCM_Play_11K((u16)g_SoundInGoal2);
    0000009F 21r00r00         [10]  668 	ld	hl, #_g_SoundInGoal2
    000000A2 CDr00r00         [17]  669 	call	_PCM_Play_11K
                                    670 ;./exsoccer.c:142: break;
    000000A5 C3rF9r00         [10]  671 	jp	00109$
                                    672 ;./exsoccer.c:143: case SOUND_THROWIN:
    000000A8                        673 00105$:
                                    674 ;./exsoccer.c:144: PT3_Pause();
    000000A8 CDr00r00         [17]  675 	call	_PT3_Pause
                                    676 ;E:/Dropbox/FAUSTO/SVILUPPI/MSX/CODE/C/MSXgl/engine/src/rom_mapper.h:112: g_Bank0Segment[b] = s;
    000000AB 21 22 00         [10]  677 	ld	hl, #0x0022
    000000AE 22r04r00         [16]  678 	ld	((_g_Bank0Segment + 4)), hl
                                    679 ;E:/Dropbox/FAUSTO/SVILUPPI/MSX/CODE/C/MSXgl/engine/src/system.h:109: inline void Poke16(u16 addr, u16 val) { *(u16*)addr = val; }
    000000B1 22 00 70         [16]  680 	ld	(0x7000), hl
                                    681 ;./exsoccer.c:146: PCM_Play_11K((u16)g_SoundThrowIn);
    000000B4 21r00r00         [10]  682 	ld	hl, #_g_SoundThrowIn
    000000B7 CDr00r00         [17]  683 	call	_PCM_Play_11K
                                    684 ;./exsoccer.c:147: PT3_Resume();
    000000BA CDr00r00         [17]  685 	call	_PT3_Resume
                                    686 ;./exsoccer.c:148: break;
    000000BD C3rF9r00         [10]  687 	jp	00109$
                                    688 ;./exsoccer.c:149: case SOUND_GOALKICK:
    000000C0                        689 00106$:
                                    690 ;./exsoccer.c:150: PT3_Pause();
    000000C0 CDr00r00         [17]  691 	call	_PT3_Pause
                                    692 ;E:/Dropbox/FAUSTO/SVILUPPI/MSX/CODE/C/MSXgl/engine/src/rom_mapper.h:112: g_Bank0Segment[b] = s;
    000000C3 21 25 00         [10]  693 	ld	hl, #0x0025
    000000C6 22r04r00         [16]  694 	ld	((_g_Bank0Segment + 4)), hl
                                    695 ;E:/Dropbox/FAUSTO/SVILUPPI/MSX/CODE/C/MSXgl/engine/src/system.h:109: inline void Poke16(u16 addr, u16 val) { *(u16*)addr = val; }
    000000C9 22 00 70         [16]  696 	ld	(0x7000), hl
                                    697 ;./exsoccer.c:152: PCM_Play_11K((u16)g_SoundGoalKick);
    000000CC 21r00r00         [10]  698 	ld	hl, #_g_SoundGoalKick
    000000CF CDr00r00         [17]  699 	call	_PCM_Play_11K
                                    700 ;./exsoccer.c:153: PT3_Resume();
    000000D2 CDr00r00         [17]  701 	call	_PT3_Resume
                                    702 ;./exsoccer.c:154: break;
    000000D5 C3rF9r00         [10]  703 	jp	00109$
                                    704 ;./exsoccer.c:155: case SOUND_PERFORM_PASS:
    000000D8                        705 00107$:
                                    706 ;E:/Dropbox/FAUSTO/SVILUPPI/MSX/CODE/C/MSXgl/engine/src/rom_mapper.h:112: g_Bank0Segment[b] = s;
    000000D8 21 26 00         [10]  707 	ld	hl, #0x0026
    000000DB 22r04r00         [16]  708 	ld	((_g_Bank0Segment + 4)), hl
                                    709 ;E:/Dropbox/FAUSTO/SVILUPPI/MSX/CODE/C/MSXgl/engine/src/system.h:109: inline void Poke16(u16 addr, u16 val) { *(u16*)addr = val; }
    000000DE 22 00 70         [16]  710 	ld	(0x7000), hl
                                    711 ;./exsoccer.c:157: PCM_Play_11K((u16)g_SoundPerformPass);
    000000E1 21r00r00         [10]  712 	ld	hl, #_g_SoundPerformPass
    000000E4 CDr00r00         [17]  713 	call	_PCM_Play_11K
                                    714 ;./exsoccer.c:158: break;
    000000E7 C3rF9r00         [10]  715 	jp	00109$
                                    716 ;./exsoccer.c:159: case SOUND_PUBLIC:
    000000EA                        717 00108$:
                                    718 ;E:/Dropbox/FAUSTO/SVILUPPI/MSX/CODE/C/MSXgl/engine/src/rom_mapper.h:112: g_Bank0Segment[b] = s;
    000000EA 21 26 00         [10]  719 	ld	hl, #0x0026
    000000ED 22r04r00         [16]  720 	ld	((_g_Bank0Segment + 4)), hl
                                    721 ;E:/Dropbox/FAUSTO/SVILUPPI/MSX/CODE/C/MSXgl/engine/src/system.h:109: inline void Poke16(u16 addr, u16 val) { *(u16*)addr = val; }
    000000F0 22 00 70         [16]  722 	ld	(0x7000), hl
                                    723 ;./exsoccer.c:161: PCM_Play_11K((u16)g_SoundPublic);
    000000F3 21r00r00         [10]  724 	ld	hl, #_g_SoundPublic
    000000F6 CDr00r00         [17]  725 	call	_PCM_Play_11K
                                    726 ;./exsoccer.c:163: }
    000000F9                        727 00109$:
                                    728 ;E:/Dropbox/FAUSTO/SVILUPPI/MSX/CODE/C/MSXgl/engine/src/rom_mapper.h:112: g_Bank0Segment[b] = s;
    000000F9 21 01 00         [10]  729 	ld	hl, #0x0001
    000000FC 22r04r00         [16]  730 	ld	((_g_Bank0Segment + 4)), hl
                                    731 ;E:/Dropbox/FAUSTO/SVILUPPI/MSX/CODE/C/MSXgl/engine/src/system.h:109: inline void Poke16(u16 addr, u16 val) { *(u16*)addr = val; }
    000000FF 22 00 70         [16]  732 	ld	(0x7000), hl
                                    733 ;./exsoccer.c:164: SET_BANK_SEGMENT(2, 1);
                                    734 ;./exsoccer.c:165: }
    00000102 C9               [10]  735 	ret
                         0000F380   736 _g_RDPRIM	=	0xf380
                         0000F385   737 _g_WRPRIM	=	0xf385
                         0000F38C   738 _g_CLPRIM	=	0xf38c
                         0000F39A   739 _g_USRTAB	=	0xf39a
                         0000F3DE   740 _g_CNSDFG	=	0xf3de
                         0000F3DF   741 _g_RG0SAV	=	0xf3df
                         0000F3E0   742 _g_RG1SAV	=	0xf3e0
                         0000F3E1   743 _g_RG2SAV	=	0xf3e1
                         0000F3E2   744 _g_RG3SAV	=	0xf3e2
                         0000F3E3   745 _g_RG4SAV	=	0xf3e3
                         0000F3E4   746 _g_RG5SAV	=	0xf3e4
                         0000F3E5   747 _g_RG6SAV	=	0xf3e5
                         0000F3E6   748 _g_RG7SAV	=	0xf3e6
                         0000F3E7   749 _g_STATFL	=	0xf3e7
                         0000F3E8   750 _g_TRGFLG	=	0xf3e8
                         0000F3EC   751 _g_MAXUPD	=	0xf3ec
                         0000F3EF   752 _g_MINUPD	=	0xf3ef
                         0000F3F3   753 _g_QUEUES	=	0xf3f3
                         0000F3F5   754 _g_FRCNEW	=	0xf3f5
                         0000F3F6   755 _g_SCNCNT	=	0xf3f6
                         0000F3F7   756 _g_REPCNT	=	0xf3f7
                         0000F3F8   757 _g_PUTPNT	=	0xf3f8
                         0000F3FA   758 _g_GETPNT	=	0xf3fa
                         0000F3FC   759 _g_CS120	=	0xf3fc
                         0000F401   760 _g_CS240	=	0xf401
                         0000F406   761 _g_LOW	=	0xf406
                         0000F408   762 _g_HIGH	=	0xf408
                         0000F40A   763 _g_HEADER	=	0xf40a
                         0000F40B   764 _g_ASPCT1	=	0xf40b
                         0000F40D   765 _g_ASPCT2	=	0xf40d
                         0000F959   766 _g_QUETAB	=	0xf959
                         0000F971   767 _g_QUEBAK	=	0xf971
                         0000F975   768 _g_VOICAQ	=	0xf975
                         0000F9F5   769 _g_VOICBQ	=	0xf9f5
                         0000FA75   770 _g_VOICCQ	=	0xfa75
                         0000FAF5   771 _g_RS2IQ	=	0xfaf5
                         0000FAF5   772 _g_DPPAGE	=	0xfaf5
                         0000FAF6   773 _g_ACPAGE	=	0xfaf6
                         0000FAF7   774 _g_AVCSAV	=	0xfaf7
                         0000FAF8   775 _g_EXBRSA	=	0xfaf8
                         0000FAF9   776 _g_CHRCNT	=	0xfaf9
                         0000FAFA   777 _g_ROMA	=	0xfafa
                         0000FAFC   778 _g_MODE	=	0xfafc
                         0000FAFD   779 _g_NORUSE	=	0xfafd
                         0000FAFE   780 _g_XSAVE	=	0xfafe
                         0000FB00   781 _g_YSAVE	=	0xfb00
                         0000FB03   782 _g_RSTMP	=	0xfb03
                         0000FB03   783 _g_TOCNT	=	0xfb03
                         0000FB04   784 _g_RSFCB	=	0xfb04
                         0000FB06   785 _g_RSIQLN	=	0xfb06
                         0000FB07   786 _g_MEXBIh	=	0xfb07
                         0000FB0C   787 _g_OLDSTT	=	0xfb0c
                         0000FB0C   788 _g_OLDINT	=	0xfb0c
                         0000FB16   789 _g_DEVNUM	=	0xfb16
                         0000FB17   790 _g_DATCNT	=	0xfb17
                         0000FB1A   791 _g_ERRORS	=	0xfb1a
                         0000FB1B   792 _g_FLAGS	=	0xfb1b
                         0000FB1C   793 _g_ESTBLS	=	0xfb1c
                         0000FB1D   794 _g_COMMSK	=	0xfb1d
                         0000FB1E   795 _g_LSTCOM	=	0xfb1e
                         0000FB1F   796 _g_LSTMOD	=	0xfb1f
                         0000FB35   797 _g_PRSCNT	=	0xfb35
                         0000FB36   798 _g_SAVSP	=	0xfb36
                         0000FB38   799 _g_VOICEN	=	0xfb38
                         0000FB39   800 _g_SAVVOL	=	0xfb39
                         0000FB3B   801 _g_MCLLEN	=	0xfb3b
                         0000FB3C   802 _g_MCLPTR	=	0xfb3c
                         0000FB3E   803 _g_QUEUEN	=	0xfb3e
                         0000FB3F   804 _g_MUSICF	=	0xfb3f
                         0000FB40   805 _g_PLYCNT	=	0xfb40
                         0000FB41   806 _g_VCBA	=	0xfb41
                         0000FB66   807 _g_VCBB	=	0xfb66
                         0000FB8B   808 _g_VCBC	=	0xfb8b
                         0000FBB0   809 _g_ENSTOP	=	0xfbb0
                         0000FBB1   810 _g_BASROM	=	0xfbb1
                         0000FBB2   811 _g_LINTTB	=	0xfbb2
                         0000FBCA   812 _g_FSTPOS	=	0xfbca
                         0000FBCC   813 _g_CODSAV	=	0xfbcc
                         0000FBCD   814 _g_FNKSWI	=	0xfbcd
                         0000FBCE   815 _g_FNKFLG	=	0xfbce
                         0000FBD8   816 _g_ONGSBF	=	0xfbd8
                         0000FBD9   817 _g_CLIKFL	=	0xfbd9
                         0000FBDA   818 _g_OLDKEY	=	0xfbda
                         0000FBE5   819 _g_NEWKEY	=	0xfbe5
                         0000FBF0   820 _g_KEYBUF	=	0xfbf0
                         0000FC18   821 _g_LINWRK	=	0xfc18
                         0000FC40   822 _g_PATWRK	=	0xfc40
                         0000FC48   823 _g_BOTTOM	=	0xfc48
                         0000FC4A   824 _g_HIMEM	=	0xfc4a
                         0000FC4C   825 _g_TRPTBL	=	0xfc4c
                         0000FC9A   826 _g_RTYCNT	=	0xfc9a
                         0000FC9B   827 _g_INTFLG	=	0xfc9b
                         0000FC9C   828 _g_PADY	=	0xfc9c
                         0000FC9D   829 _g_PADX	=	0xfc9d
                         0000FC9E   830 _g_JIFFY	=	0xfc9e
                         0000FCA0   831 _g_INTVAL	=	0xfca0
                         0000FCA2   832 _g_INTCNT	=	0xfca2
                         0000FCA4   833 _g_LOWLIM	=	0xfca4
                         0000FCA5   834 _g_WINWID	=	0xfca5
                         0000FCA6   835 _g_GRPHED	=	0xfca6
                         0000FCA7   836 _g_ESCCNT	=	0xfca7
                         0000FCA8   837 _g_INSFLG	=	0xfca8
                         0000FCA9   838 _g_CSRSW	=	0xfca9
                         0000FCAA   839 _g_CSTYLE	=	0xfcaa
                         0000FCAB   840 _g_CAPST	=	0xfcab
                         0000FCAC   841 _g_KANAST	=	0xfcac
                         0000FCAD   842 _g_KANAMD	=	0xfcad
                         0000FCAE   843 _g_FLBMEM	=	0xfcae
                         0000FCAF   844 _g_SCRMOD	=	0xfcaf
                         0000FCB0   845 _g_OLDSCR	=	0xfcb0
                         0000FCB1   846 _g_CASPRV	=	0xfcb1
                         0000FCB2   847 _g_BRDATR	=	0xfcb2
                         0000FCB3   848 _g_GXPOS	=	0xfcb3
                         0000FCB5   849 _g_GYPOS	=	0xfcb5
                         0000FCBB   850 _g_DRWFLG	=	0xfcbb
                         0000FCBC   851 _g_DRWSCL	=	0xfcbc
                         0000FCBD   852 _g_DRWANG	=	0xfcbd
                         0000FCC1   853 _g_MNROM	=	0xfcc1
                         0000FCC1   854 _g_EXPTBL	=	0xfcc1
                         0000FCC5   855 _g_SLTTBL	=	0xfcc5
                         0000FCC9   856 _g_SLTATR	=	0xfcc9
                         0000FD09   857 _g_SLTWRK	=	0xfd09
                         0000FD89   858 _g_PROCNM	=	0xfd89
                         0000FFE7   859 _g_RG08SAV	=	0xffe7
                         0000FFE8   860 _g_RG09SAV	=	0xffe8
                         0000FFE9   861 _g_RG10SAV	=	0xffe9
                         0000FFEA   862 _g_RG11SAV	=	0xffea
                         0000FFEB   863 _g_RG12SAV	=	0xffeb
                         0000FFEC   864 _g_RG13SAV	=	0xffec
                         0000FFED   865 _g_RG14SAV	=	0xffed
                         0000FFEE   866 _g_RG15SAV	=	0xffee
                         0000FFEF   867 _g_RG16SAV	=	0xffef
                         0000FFF0   868 _g_RG17SAV	=	0xfff0
                         0000FFF1   869 _g_RG18SAV	=	0xfff1
                         0000FFF2   870 _g_RG19SAV	=	0xfff2
                         0000FFF3   871 _g_RG20SAV	=	0xfff3
                         0000FFF4   872 _g_RG21SAV	=	0xfff4
                         0000FFF5   873 _g_RG22SAV	=	0xfff5
                         0000FFF6   874 _g_RG23SAV	=	0xfff6
                         0000FFF7   875 _g_MINROM	=	0xfff7
                         0000FFF8   876 _g_SVFFF8	=	0xfff8
                         0000FFFA   877 _g_RG25SAV	=	0xfffa
                         0000FFFB   878 _g_RG26SAV	=	0xfffb
                         0000FFFC   879 _g_RG27SAV	=	0xfffc
                         0000FFFD   880 _g_SVFFFD	=	0xfffd
                         00000004   881 _g_CGTABL	=	0x0004
                         00000006   882 _g_VDP_DR	=	0x0006
                         00000007   883 _g_VDP_DW	=	0x0007
                         0000002B   884 _g_BASRVN	=	0x002b
                         0000002B   885 _g_ROMVersion	=	0x002b
                         0000002D   886 _g_MSXVER	=	0x002d
                         0000002E   887 _g_MSXMID	=	0x002e
                         00000034   888 _g_CHAR_16	=	0x0034
                         00000000   889 _g_SUBRID	=	0x0000
                         00000002   890 _g_STRSRC	=	0x0002
                         0000F30F   891 _g_KANJTABLE	=	0xf30f
                         0000F323   892 _g_DISKVE	=	0xf323
                         0000F325   893 _g_BREAKV	=	0xf325
                         0000F341   894 _g_RAMAD0	=	0xf341
                         0000F342   895 _g_RAMAD1	=	0xf342
                         0000F343   896 _g_RAMAD2	=	0xf343
                         0000F344   897 _g_RAMAD3	=	0xf344
                         0000F348   898 _g_MASTER	=	0xf348
                         0000F37D   899 _g_BDOS	=	0xf37d
    00000103                        900 _PT3_NT2:
    00000103 10 0D                  901 	.dw #0x0d10
    00000105 55 0C                  902 	.dw #0x0c55
    00000107 A4 0B                  903 	.dw #0x0ba4
    00000109 FC 0A                  904 	.dw #0x0afc
    0000010B 5F 0A                  905 	.dw #0x0a5f
    0000010D CA 09                  906 	.dw #0x09ca
    0000010F 3D 09                  907 	.dw #0x093d
    00000111 B8 08                  908 	.dw #0x08b8
    00000113 3B 08                  909 	.dw #0x083b
    00000115 C5 07                  910 	.dw #0x07c5
    00000117 55 07                  911 	.dw #0x0755
    00000119 EC 06                  912 	.dw #0x06ec
    0000011B 88 06                  913 	.dw #0x0688
    0000011D 2A 06                  914 	.dw #0x062a
    0000011F D2 05                  915 	.dw #0x05d2
    00000121 7E 05                  916 	.dw #0x057e
    00000123 2F 05                  917 	.dw #0x052f
    00000125 E5 04                  918 	.dw #0x04e5
    00000127 9E 04                  919 	.dw #0x049e
    00000129 5C 04                  920 	.dw #0x045c
    0000012B 1D 04                  921 	.dw #0x041d
    0000012D E2 03                  922 	.dw #0x03e2
    0000012F AB 03                  923 	.dw #0x03ab
    00000131 76 03                  924 	.dw #0x0376
    00000133 44 03                  925 	.dw #0x0344
    00000135 15 03                  926 	.dw #0x0315
    00000137 E9 02                  927 	.dw #0x02e9
    00000139 BF 02                  928 	.dw #0x02bf
    0000013B 98 02                  929 	.dw #0x0298
    0000013D 72 02                  930 	.dw #0x0272
    0000013F 4F 02                  931 	.dw #0x024f
    00000141 2E 02                  932 	.dw #0x022e
    00000143 0F 02                  933 	.dw #0x020f
    00000145 F1 01                  934 	.dw #0x01f1
    00000147 D5 01                  935 	.dw #0x01d5
    00000149 BB 01                  936 	.dw #0x01bb
    0000014B A2 01                  937 	.dw #0x01a2
    0000014D 8B 01                  938 	.dw #0x018b
    0000014F 74 01                  939 	.dw #0x0174
    00000151 60 01                  940 	.dw #0x0160
    00000153 4C 01                  941 	.dw #0x014c
    00000155 39 01                  942 	.dw #0x0139
    00000157 28 01                  943 	.dw #0x0128
    00000159 17 01                  944 	.dw #0x0117
    0000015B 07 01                  945 	.dw #0x0107
    0000015D F9 00                  946 	.dw #0x00f9
    0000015F EB 00                  947 	.dw #0x00eb
    00000161 DD 00                  948 	.dw #0x00dd
    00000163 D1 00                  949 	.dw #0x00d1
    00000165 C5 00                  950 	.dw #0x00c5
    00000167 BA 00                  951 	.dw #0x00ba
    00000169 B0 00                  952 	.dw #0x00b0
    0000016B A6 00                  953 	.dw #0x00a6
    0000016D 9D 00                  954 	.dw #0x009d
    0000016F 94 00                  955 	.dw #0x0094
    00000171 8C 00                  956 	.dw #0x008c
    00000173 84 00                  957 	.dw #0x0084
    00000175 7C 00                  958 	.dw #0x007c
    00000177 75 00                  959 	.dw #0x0075
    00000179 6F 00                  960 	.dw #0x006f
    0000017B 69 00                  961 	.dw #0x0069
    0000017D 63 00                  962 	.dw #0x0063
    0000017F 5D 00                  963 	.dw #0x005d
    00000181 58 00                  964 	.dw #0x0058
    00000183 53 00                  965 	.dw #0x0053
    00000185 4E 00                  966 	.dw #0x004e
    00000187 4A 00                  967 	.dw #0x004a
    00000189 46 00                  968 	.dw #0x0046
    0000018B 42 00                  969 	.dw #0x0042
    0000018D 3E 00                  970 	.dw #0x003e
    0000018F 3B 00                  971 	.dw #0x003b
    00000191 37 00                  972 	.dw #0x0037
    00000193 34 00                  973 	.dw #0x0034
    00000195 31 00                  974 	.dw #0x0031
    00000197 2F 00                  975 	.dw #0x002f
    00000199 2C 00                  976 	.dw #0x002c
    0000019B 29 00                  977 	.dw #0x0029
    0000019D 27 00                  978 	.dw #0x0027
    0000019F 25 00                  979 	.dw #0x0025
    000001A1 23 00                  980 	.dw #0x0023
    000001A3 21 00                  981 	.dw #0x0021
    000001A5 1F 00                  982 	.dw #0x001f
    000001A7 1D 00                  983 	.dw #0x001d
    000001A9 1C 00                  984 	.dw #0x001c
    000001AB 1A 00                  985 	.dw #0x001a
    000001AD 19 00                  986 	.dw #0x0019
    000001AF 17 00                  987 	.dw #0x0017
    000001B1 16 00                  988 	.dw #0x0016
    000001B3 15 00                  989 	.dw #0x0015
    000001B5 14 00                  990 	.dw #0x0014
    000001B7 12 00                  991 	.dw #0x0012
    000001B9 11 00                  992 	.dw #0x0011
    000001BB 10 00                  993 	.dw #0x0010
    000001BD 0F 00                  994 	.dw #0x000f
    000001BF 0E 00                  995 	.dw #0x000e
    000001C1 0D 00                  996 	.dw #0x000d
    000001C3                        997 _g_TeamStats:
    000001C3 03                     998 	.db #0x03	; 3
    000001C4 0C                     999 	.db #0x0c	; 12
    000001C5 05                    1000 	.db #0x05	; 5
    000001C6 05                    1001 	.db #0x05	; 5
    000001C7 0E                    1002 	.db #0x0e	; 14
    000001C8 05                    1003 	.db #0x05	; 5
    000001C9 0F                    1004 	.db #0x0f	; 15
    000001CA 08                    1005 	.db #0x08	; 8
    000001CB 09                    1006 	.db #0x09	; 9
    000001CC 0E                    1007 	.db #0x0e	; 14
    000001CD 03                    1008 	.db #0x03	; 3
    000001CE 11                    1009 	.db #0x11	; 17
    000001CF 04                    1010 	.db #0x04	; 4
    000001D0 05                    1011 	.db #0x05	; 5
    000001D1 10                    1012 	.db #0x10	; 16
    000001D2 03                    1013 	.db #0x03	; 3
    000001D3 0C                    1014 	.db #0x0c	; 12
    000001D4 06                    1015 	.db #0x06	; 6
    000001D5 08                    1016 	.db #0x08	; 8
    000001D6 0E                    1017 	.db #0x0e	; 14
    000001D7 03                    1018 	.db #0x03	; 3
    000001D8 0F                    1019 	.db #0x0f	; 15
    000001D9 06                    1020 	.db #0x06	; 6
    000001DA 05                    1021 	.db #0x05	; 5
    000001DB 0E                    1022 	.db #0x0e	; 14
    000001DC 05                    1023 	.db #0x05	; 5
    000001DD 10                    1024 	.db #0x10	; 16
    000001DE 07                    1025 	.db #0x07	; 7
    000001DF 08                    1026 	.db #0x08	; 8
    000001E0 0F                    1027 	.db #0x0f	; 15
                                   1028 ;./exsoccer.c:166: void UpdateV9990()
                                   1029 ;	---------------------------------
                                   1030 ; Function UpdateV9990
                                   1031 ; ---------------------------------
    000001E1                       1032 _UpdateV9990::
                                   1033 ;./exsoccer.c:168: WaitV9990Synch();
                                   1034 ;./exsoccer.c:169: }
    000001E1 C3rFEr01         [10] 1035 	jp	_WaitV9990Synch
                                   1036 ;./exsoccer.c:170: void InitVariables(){
                                   1037 ;	---------------------------------
                                   1038 ; Function InitVariables
                                   1039 ; ---------------------------------
    000001E4                       1040 _InitVariables::
                                   1041 ;./exsoccer.c:172: g_Ball.PossessionPlayerId = NO_VALUE;
    000001E4 21r67r11         [10] 1042 	ld	hl, #(_g_Ball + 6)
    000001E7 36 FF            [10] 1043 	ld	(hl), #0xff
                                   1044 ;./exsoccer.c:173: g_Ball.PassTargetPlayerId = NO_VALUE;
    000001E9 21r71r11         [10] 1045 	ld	hl, #(_g_Ball + 16)
    000001EC 36 FF            [10] 1046 	ld	(hl), #0xff
                                   1047 ;./exsoccer.c:174: g_Ball.ShotActive = 0;
    000001EE 21r7Cr11         [10] 1048 	ld	hl, #(_g_Ball + 27)
    000001F1 36 00            [10] 1049 	ld	(hl), #0x00
                                   1050 ;./exsoccer.c:175: g_Ball.LastTouchTeamId = NO_VALUE;
    000001F3 21r6Fr11         [10] 1051 	ld	hl, #(_g_Ball + 14)
    000001F6 36 FF            [10] 1052 	ld	(hl), #0xff
                                   1053 ;./exsoccer.c:176: g_Ball.ComingFromRestart = 0;
    000001F8 21r7Er11         [10] 1054 	ld	hl, #(_g_Ball + 29)
    000001FB 36 00            [10] 1055 	ld	(hl), #0x00
                                   1056 ;./exsoccer.c:178: }
    000001FD C9               [10] 1057 	ret
                                   1058 ;./exsoccer.c:180: void WaitV9990Synch()
                                   1059 ;	---------------------------------
                                   1060 ; Function WaitV9990Synch
                                   1061 ; ---------------------------------
    000001FE                       1062 _WaitV9990Synch::
                                   1063 ;./exsoccer.c:182: while(!g_VSynch) {}
    000001FE                       1064 00101$:
    000001FE 3Ar51r00         [13] 1065 	ld	a, (_g_VSynch+0)
    00000201 B7               [ 4] 1066 	or	a, a
    00000202 28 FA            [12] 1067 	jr	Z, 00101$
                                   1068 ;./exsoccer.c:183: g_VSynch = FALSE;
    00000204 21r51r00         [10] 1069 	ld	hl, #_g_VSynch
    00000207 36 00            [10] 1070 	ld	(hl), #0x00
                                   1071 ;./exsoccer.c:184: g_FrameCounter++;
    00000209 2Ar01r10         [16] 1072 	ld	hl, (_g_FrameCounter)
    0000020C 23               [ 6] 1073 	inc	hl
                                   1074 ;./exsoccer.c:185: if(g_FrameCounter==60){
    0000020D 22r01r10         [16] 1075 	ld	(_g_FrameCounter), hl
    00000210 7D               [ 4] 1076 	ld	a, l
    00000211 D6 3C            [ 7] 1077 	sub	a, #0x3c
    00000213 B4               [ 4] 1078 	or	a, h
    00000214 C0               [11] 1079 	ret	NZ
                                   1080 ;./exsoccer.c:186: g_FrameCounter=0;
    00000215 21 00 00         [10] 1081 	ld	hl, #0x0000
    00000218 22r01r10         [16] 1082 	ld	(_g_FrameCounter), hl
                                   1083 ;./exsoccer.c:188: }
    0000021B C9               [10] 1084 	ret
                                   1085 ;./exsoccer.c:190: void StopPT3Music()
                                   1086 ;	---------------------------------
                                   1087 ; Function StopPT3Music
                                   1088 ; ---------------------------------
    0000021C                       1089 _StopPT3Music::
                                   1090 ;E:/Dropbox/FAUSTO/SVILUPPI/MSX/CODE/C/MSXgl/engine/src/pt3/pt3_player.h:301: PT3_State |= 1 << (chan + 1);
    0000021C 3Ar00r00         [13] 1091 	ld	a, (_PT3_State+0)
    0000021F F6 08            [ 7] 1092 	or	a, #0x08
    00000221 32r00r00         [13] 1093 	ld	(_PT3_State+0), a
                                   1094 ;./exsoccer.c:193: PT3_Pause();
    00000224 CDr00r00         [17] 1095 	call	_PT3_Pause
                                   1096 ;./exsoccer.c:194: PT3_UpdatePSG();
                                   1097 ;./exsoccer.c:195: }
    00000227 C3r00r00         [10] 1098 	jp	_PT3_UpdatePSG
                                   1099 ;./exsoccer.c:196: void PlayPT3Music(u8 id){
                                   1100 ;	---------------------------------
                                   1101 ; Function PlayPT3Music
                                   1102 ; ---------------------------------
    0000022A                       1103 _PlayPT3Music::
    0000022A 4F               [ 4] 1104 	ld	c, a
                                   1105 ;./exsoccer.c:198: PT3_Init();                
    0000022B C5               [11] 1106 	push	bc
    0000022C CDr00r00         [17] 1107 	call	_PT3_Init
    0000022F C1               [10] 1108 	pop	bc
                                   1109 ;./exsoccer.c:199: PT3_SetNoteTable(PT3_NT2); 
    00000230 21r03r01         [10] 1110 	ld	hl, #_PT3_NT2+0
    00000233 22r00r00         [16] 1111 	ld	(_PT3_NoteTable), hl
                                   1112 ;./exsoccer.c:200: PT3_SetLoop(TRUE);
    00000236 C5               [11] 1113 	push	bc
    00000237 3E 01            [ 7] 1114 	ld	a, #0x01
    00000239 CDr00r00         [17] 1115 	call	_PT3_SetLoop
    0000023C C1               [10] 1116 	pop	bc
                                   1117 ;./exsoccer.c:201: switch(id){
    0000023D 79               [ 4] 1118 	ld	a, c
    0000023E D6 0A            [ 7] 1119 	sub	a, #0x0a
    00000240 28 08            [12] 1120 	jr	Z, 00101$
    00000242 79               [ 4] 1121 	ld	a, c
    00000243 D6 0B            [ 7] 1122 	sub	a, #0x0b
    00000245 28 25            [12] 1123 	jr	Z, 00102$
    00000247 C3r8Br02         [10] 1124 	jp	00103$
                                   1125 ;./exsoccer.c:202: case PT3_MENU:
    0000024A                       1126 00101$:
                                   1127 ;E:/Dropbox/FAUSTO/SVILUPPI/MSX/CODE/C/MSXgl/engine/src/rom_mapper.h:112: g_Bank0Segment[b] = s;
    0000024A 21 0F 00         [10] 1128 	ld	hl, #0x000f
    0000024D 22r04r00         [16] 1129 	ld	((_g_Bank0Segment + 4)), hl
                                   1130 ;E:/Dropbox/FAUSTO/SVILUPPI/MSX/CODE/C/MSXgl/engine/src/system.h:109: inline void Poke16(u16 addr, u16 val) { *(u16*)addr = val; }
    00000250 22 00 70         [16] 1131 	ld	(0x7000), hl
                                   1132 ;./exsoccer.c:204: Mem_Copy(g_MusicMenu, g_RAM_MusicBuffer, sizeof(g_MusicMenu));
    00000253 21 1A 0E         [10] 1133 	ld	hl, #0x0e1a
    00000256 E5               [11] 1134 	push	hl
    00000257 11r01r00         [10] 1135 	ld	de, #_g_RAM_MusicBuffer
    0000025A 21r00r00         [10] 1136 	ld	hl, #_g_MusicMenu
    0000025D CDr00r00         [17] 1137 	call	_Mem_Copy
                                   1138 ;E:/Dropbox/FAUSTO/SVILUPPI/MSX/CODE/C/MSXgl/engine/src/rom_mapper.h:112: g_Bank0Segment[b] = s;
    00000260 21 01 00         [10] 1139 	ld	hl, #0x0001
    00000263 22r04r00         [16] 1140 	ld	((_g_Bank0Segment + 4)), hl
                                   1141 ;E:/Dropbox/FAUSTO/SVILUPPI/MSX/CODE/C/MSXgl/engine/src/system.h:109: inline void Poke16(u16 addr, u16 val) { *(u16*)addr = val; }
    00000266 22 00 70         [16] 1142 	ld	(0x7000), hl
                                   1143 ;./exsoccer.c:206: break;
    00000269 C3r8Br02         [10] 1144 	jp	00103$
                                   1145 ;./exsoccer.c:207: case PT3_MATCH:
    0000026C                       1146 00102$:
                                   1147 ;E:/Dropbox/FAUSTO/SVILUPPI/MSX/CODE/C/MSXgl/engine/src/rom_mapper.h:112: g_Bank0Segment[b] = s;
    0000026C 21 0F 00         [10] 1148 	ld	hl, #0x000f
    0000026F 22r04r00         [16] 1149 	ld	((_g_Bank0Segment + 4)), hl
                                   1150 ;E:/Dropbox/FAUSTO/SVILUPPI/MSX/CODE/C/MSXgl/engine/src/system.h:109: inline void Poke16(u16 addr, u16 val) { *(u16*)addr = val; }
    00000272 22 00 70         [16] 1151 	ld	(0x7000), hl
                                   1152 ;./exsoccer.c:209: Mem_Copy(g_MusicMatch, g_RAM_MusicBuffer, sizeof(g_MusicMatch));
    00000275 21 D9 05         [10] 1153 	ld	hl, #0x05d9
    00000278 E5               [11] 1154 	push	hl
    00000279 11r01r00         [10] 1155 	ld	de, #_g_RAM_MusicBuffer
    0000027C 21r00r00         [10] 1156 	ld	hl, #_g_MusicMatch
    0000027F CDr00r00         [17] 1157 	call	_Mem_Copy
                                   1158 ;E:/Dropbox/FAUSTO/SVILUPPI/MSX/CODE/C/MSXgl/engine/src/rom_mapper.h:112: g_Bank0Segment[b] = s;
    00000282 21 01 00         [10] 1159 	ld	hl, #0x0001
    00000285 22r04r00         [16] 1160 	ld	((_g_Bank0Segment + 4)), hl
                                   1161 ;E:/Dropbox/FAUSTO/SVILUPPI/MSX/CODE/C/MSXgl/engine/src/system.h:109: inline void Poke16(u16 addr, u16 val) { *(u16*)addr = val; }
    00000288 22 00 70         [16] 1162 	ld	(0x7000), hl
                                   1163 ;./exsoccer.c:212: }
    0000028B                       1164 00103$:
                                   1165 ;./exsoccer.c:213: PT3_InitSong(g_RAM_MusicBuffer);
    0000028B 21r01r00         [10] 1166 	ld	hl, #_g_RAM_MusicBuffer
                                   1167 ;./exsoccer.c:214: }
    0000028E C3r00r00         [10] 1168 	jp	_PT3_InitSong
                                   1169 ;./exsoccer.c:216: void LoadP1LayerA(){
                                   1170 ;	---------------------------------
                                   1171 ; Function LoadP1LayerA
                                   1172 ; ---------------------------------
    00000291                       1173 _LoadP1LayerA::
                                   1174 ;E:/Dropbox/FAUSTO/SVILUPPI/MSX/CODE/C/MSXgl/engine/src/v9990.h:353: inline void V9_FillVRAM(u32 addr, u8 value, u16 count) { V9_SetWriteAddress(addr); V9_FillVRAM_CurrentAddr(value, count); }
    00000291 11 00 00         [10] 1175 	ld	de, #0x0000
    00000294 21 00 00         [10] 1176 	ld	hl, #0x0000
    00000297 CDr00r00         [17] 1177 	call	_V9_SetWriteAddress
    0000029A 11 00 6A         [10] 1178 	ld	de, #0x6a00
    0000029D AF               [ 4] 1179 	xor	a, a
    0000029E CDr00r00         [17] 1180 	call	_V9_FillVRAM_CurrentAddr
                                   1181 ;E:/Dropbox/FAUSTO/SVILUPPI/MSX/CODE/C/MSXgl/engine/src/rom_mapper.h:112: g_Bank0Segment[b] = s;
    000002A1 21 07 00         [10] 1182 	ld	hl, #0x0007
    000002A4 22r04r00         [16] 1183 	ld	((_g_Bank0Segment + 4)), hl
                                   1184 ;E:/Dropbox/FAUSTO/SVILUPPI/MSX/CODE/C/MSXgl/engine/src/system.h:109: inline void Poke16(u16 addr, u16 val) { *(u16*)addr = val; }
    000002A7 22 00 70         [16] 1185 	ld	(0x7000), hl
                                   1186 ;./exsoccer.c:219: V9_WriteVRAM(V9_P1_PGT_A, g_GameFieldLayerATiles, sizeof(g_GameFieldLayerATiles)); // Load fonts
                                   1187 ;E:/Dropbox/FAUSTO/SVILUPPI/MSX/CODE/C/MSXgl/engine/src/v9990.h:371: inline void V9_WriteVRAM(u32 addr, const u8* src, u16 count) { V9_SetWriteAddress(addr); V9_WriteVRAM_CurrentAddr(src, count); }
    000002AA 11 00 00         [10] 1188 	ld	de, #0x0000
    000002AD 6C               [ 4] 1189 	ld	l, h
    000002AE CDr00r00         [17] 1190 	call	_V9_SetWriteAddress
    000002B1 11 00 40         [10] 1191 	ld	de, #0x4000
    000002B4 21r00r00         [10] 1192 	ld	hl, #_g_GameFieldLayerATiles
    000002B7 CDr00r00         [17] 1193 	call	_V9_WriteVRAM_CurrentAddr
                                   1194 ;E:/Dropbox/FAUSTO/SVILUPPI/MSX/CODE/C/MSXgl/engine/src/rom_mapper.h:112: g_Bank0Segment[b] = s;
    000002BA 21 10 00         [10] 1195 	ld	hl, #0x0010
    000002BD 22r04r00         [16] 1196 	ld	((_g_Bank0Segment + 4)), hl
                                   1197 ;E:/Dropbox/FAUSTO/SVILUPPI/MSX/CODE/C/MSXgl/engine/src/system.h:109: inline void Poke16(u16 addr, u16 val) { *(u16*)addr = val; }
    000002C0 22 00 70         [16] 1198 	ld	(0x7000), hl
                                   1199 ;./exsoccer.c:221: V9_WriteVRAM(V9_P1_PGT_A + 8192L, g_Teams_part1, sizeof(g_Teams_part1));
                                   1200 ;E:/Dropbox/FAUSTO/SVILUPPI/MSX/CODE/C/MSXgl/engine/src/v9990.h:371: inline void V9_WriteVRAM(u32 addr, const u8* src, u16 count) { V9_SetWriteAddress(addr); V9_WriteVRAM_CurrentAddr(src, count); }
    000002C3 11 00 20         [10] 1201 	ld	de, #0x2000
    000002C6 6C               [ 4] 1202 	ld	l, h
    000002C7 CDr00r00         [17] 1203 	call	_V9_SetWriteAddress
    000002CA 11 00 40         [10] 1204 	ld	de, #0x4000
    000002CD 21r00r00         [10] 1205 	ld	hl, #_g_Teams_part1
    000002D0 CDr00r00         [17] 1206 	call	_V9_WriteVRAM_CurrentAddr
                                   1207 ;E:/Dropbox/FAUSTO/SVILUPPI/MSX/CODE/C/MSXgl/engine/src/rom_mapper.h:112: g_Bank0Segment[b] = s;
    000002D3 21 11 00         [10] 1208 	ld	hl, #0x0011
    000002D6 22r04r00         [16] 1209 	ld	((_g_Bank0Segment + 4)), hl
                                   1210 ;E:/Dropbox/FAUSTO/SVILUPPI/MSX/CODE/C/MSXgl/engine/src/system.h:109: inline void Poke16(u16 addr, u16 val) { *(u16*)addr = val; }
    000002D9 22 00 70         [16] 1211 	ld	(0x7000), hl
                                   1212 ;./exsoccer.c:223: V9_WriteVRAM(V9_P1_PGT_A + 8192L + 16384L, g_Teams_part2, sizeof(g_Teams_part2));
                                   1213 ;E:/Dropbox/FAUSTO/SVILUPPI/MSX/CODE/C/MSXgl/engine/src/v9990.h:371: inline void V9_WriteVRAM(u32 addr, const u8* src, u16 count) { V9_SetWriteAddress(addr); V9_WriteVRAM_CurrentAddr(src, count); }
    000002DC 11 00 60         [10] 1214 	ld	de, #0x6000
    000002DF 6C               [ 4] 1215 	ld	l, h
    000002E0 CDr00r00         [17] 1216 	call	_V9_SetWriteAddress
    000002E3 11 00 10         [10] 1217 	ld	de, #0x1000
    000002E6 21r00r00         [10] 1218 	ld	hl, #_g_Teams_part2
    000002E9 CDr00r00         [17] 1219 	call	_V9_WriteVRAM_CurrentAddr
                                   1220 ;E:/Dropbox/FAUSTO/SVILUPPI/MSX/CODE/C/MSXgl/engine/src/v9990.h:362: inline void V9_FillVRAM16(u32 addr, u16 value, u16 count) { V9_SetWriteAddress(addr); V9_FillVRAM16_CurrentAddr(value, count); }
    000002EC 11 00 C0         [10] 1221 	ld	de, #0xc000
    000002EF 21 07 00         [10] 1222 	ld	hl, #0x0007
    000002F2 CDr00r00         [17] 1223 	call	_V9_SetWriteAddress
    000002F5 11 00 10         [10] 1224 	ld	de, #0x1000
    000002F8 21 00 00         [10] 1225 	ld	hl, #0x0000
    000002FB CDr00r00         [17] 1226 	call	_V9_FillVRAM16_CurrentAddr
                                   1227 ;E:/Dropbox/FAUSTO/SVILUPPI/MSX/CODE/C/MSXgl/engine/src/rom_mapper.h:112: g_Bank0Segment[b] = s;
    000002FE 21 01 00         [10] 1228 	ld	hl, #0x0001
    00000301 22r04r00         [16] 1229 	ld	((_g_Bank0Segment + 4)), hl
                                   1230 ;E:/Dropbox/FAUSTO/SVILUPPI/MSX/CODE/C/MSXgl/engine/src/system.h:109: inline void Poke16(u16 addr, u16 val) { *(u16*)addr = val; }
    00000304 22 00 70         [16] 1231 	ld	(0x7000), hl
                                   1232 ;./exsoccer.c:226: SET_BANK_SEGMENT(2, 1);
                                   1233 ;./exsoccer.c:229: }
    00000307 C9               [10] 1234 	ret
                                   1235 ;./exsoccer.c:230: void LoadP1LayerB(){
                                   1236 ;	---------------------------------
                                   1237 ; Function LoadP1LayerB
                                   1238 ; ---------------------------------
    00000308                       1239 _LoadP1LayerB::
                                   1240 ;E:/Dropbox/FAUSTO/SVILUPPI/MSX/CODE/C/MSXgl/engine/src/v9990.h:353: inline void V9_FillVRAM(u32 addr, u8 value, u16 count) { V9_SetWriteAddress(addr); V9_FillVRAM_CurrentAddr(value, count); }
    00000308 11 00 00         [10] 1241 	ld	de, #0x0000
    0000030B 21 04 00         [10] 1242 	ld	hl, #0x0004
    0000030E CDr00r00         [17] 1243 	call	_V9_SetWriteAddress
    00000311 11 00 6A         [10] 1244 	ld	de, #0x6a00
    00000314 AF               [ 4] 1245 	xor	a, a
    00000315 CDr00r00         [17] 1246 	call	_V9_FillVRAM_CurrentAddr
                                   1247 ;E:/Dropbox/FAUSTO/SVILUPPI/MSX/CODE/C/MSXgl/engine/src/rom_mapper.h:112: g_Bank0Segment[b] = s;
    00000318 21 03 00         [10] 1248 	ld	hl, #0x0003
    0000031B 22r04r00         [16] 1249 	ld	((_g_Bank0Segment + 4)), hl
                                   1250 ;E:/Dropbox/FAUSTO/SVILUPPI/MSX/CODE/C/MSXgl/engine/src/system.h:109: inline void Poke16(u16 addr, u16 val) { *(u16*)addr = val; }
    0000031E 22 00 70         [16] 1251 	ld	(0x7000), hl
                                   1252 ;./exsoccer.c:233: V9_WriteVRAM(V9_P1_PGT_B, g_GameFieldLayerBTiles_part1, sizeof(g_GameFieldLayerBTiles_part1)); // Load tiles (part 1)
                                   1253 ;E:/Dropbox/FAUSTO/SVILUPPI/MSX/CODE/C/MSXgl/engine/src/v9990.h:371: inline void V9_WriteVRAM(u32 addr, const u8* src, u16 count) { V9_SetWriteAddress(addr); V9_WriteVRAM_CurrentAddr(src, count); }
    00000321 11 00 00         [10] 1254 	ld	de, #0x0000
    00000324 2E 04            [ 7] 1255 	ld	l, #0x04
    00000326 CDr00r00         [17] 1256 	call	_V9_SetWriteAddress
    00000329 11 00 40         [10] 1257 	ld	de, #0x4000
    0000032C 21r00r00         [10] 1258 	ld	hl, #_g_GameFieldLayerBTiles_part1
    0000032F CDr00r00         [17] 1259 	call	_V9_WriteVRAM_CurrentAddr
                                   1260 ;E:/Dropbox/FAUSTO/SVILUPPI/MSX/CODE/C/MSXgl/engine/src/rom_mapper.h:112: g_Bank0Segment[b] = s;
    00000332 21 04 00         [10] 1261 	ld	hl, #0x0004
    00000335 22r04r00         [16] 1262 	ld	((_g_Bank0Segment + 4)), hl
                                   1263 ;E:/Dropbox/FAUSTO/SVILUPPI/MSX/CODE/C/MSXgl/engine/src/system.h:109: inline void Poke16(u16 addr, u16 val) { *(u16*)addr = val; }
    00000338 22 00 70         [16] 1264 	ld	(0x7000), hl
                                   1265 ;./exsoccer.c:235: V9_WriteVRAM(V9_P1_PGT_B + 16384, g_GameFieldLayerBTiles_part2, sizeof(g_GameFieldLayerBTiles_part2)); // Load tiles (part 2)
                                   1266 ;E:/Dropbox/FAUSTO/SVILUPPI/MSX/CODE/C/MSXgl/engine/src/v9990.h:371: inline void V9_WriteVRAM(u32 addr, const u8* src, u16 count) { V9_SetWriteAddress(addr); V9_WriteVRAM_CurrentAddr(src, count); }
    0000033B 11 00 40         [10] 1267 	ld	de, #0x4000
    0000033E CDr00r00         [17] 1268 	call	_V9_SetWriteAddress
    00000341 11 00 40         [10] 1269 	ld	de, #0x4000
    00000344 21r00r00         [10] 1270 	ld	hl, #_g_GameFieldLayerBTiles_part2
    00000347 CDr00r00         [17] 1271 	call	_V9_WriteVRAM_CurrentAddr
                                   1272 ;E:/Dropbox/FAUSTO/SVILUPPI/MSX/CODE/C/MSXgl/engine/src/rom_mapper.h:112: g_Bank0Segment[b] = s;
    0000034A 21 05 00         [10] 1273 	ld	hl, #0x0005
    0000034D 22r04r00         [16] 1274 	ld	((_g_Bank0Segment + 4)), hl
                                   1275 ;E:/Dropbox/FAUSTO/SVILUPPI/MSX/CODE/C/MSXgl/engine/src/system.h:109: inline void Poke16(u16 addr, u16 val) { *(u16*)addr = val; }
    00000350 22 00 70         [16] 1276 	ld	(0x7000), hl
                                   1277 ;./exsoccer.c:237: V9_WriteVRAM(V9_P1_PGT_B + 16384L*2, g_GameFieldLayerBTiles_part3, sizeof(g_GameFieldLayerBTiles_part3)); // Load tiles (part 3)
                                   1278 ;E:/Dropbox/FAUSTO/SVILUPPI/MSX/CODE/C/MSXgl/engine/src/v9990.h:371: inline void V9_WriteVRAM(u32 addr, const u8* src, u16 count) { V9_SetWriteAddress(addr); V9_WriteVRAM_CurrentAddr(src, count); }
    00000353 11 00 80         [10] 1279 	ld	de, #0x8000
    00000356 2E 04            [ 7] 1280 	ld	l, #0x04
    00000358 CDr00r00         [17] 1281 	call	_V9_SetWriteAddress
    0000035B 11 00 40         [10] 1282 	ld	de, #0x4000
    0000035E 21r00r00         [10] 1283 	ld	hl, #_g_GameFieldLayerBTiles_part3
    00000361 CDr00r00         [17] 1284 	call	_V9_WriteVRAM_CurrentAddr
                                   1285 ;E:/Dropbox/FAUSTO/SVILUPPI/MSX/CODE/C/MSXgl/engine/src/rom_mapper.h:112: g_Bank0Segment[b] = s;
    00000364 21 06 00         [10] 1286 	ld	hl, #0x0006
    00000367 22r04r00         [16] 1287 	ld	((_g_Bank0Segment + 4)), hl
                                   1288 ;E:/Dropbox/FAUSTO/SVILUPPI/MSX/CODE/C/MSXgl/engine/src/system.h:109: inline void Poke16(u16 addr, u16 val) { *(u16*)addr = val; }
    0000036A 22 00 70         [16] 1289 	ld	(0x7000), hl
                                   1290 ;./exsoccer.c:239: V9_WriteVRAM(V9_P1_PGT_B + 16384L*3, g_GameFieldLayerBTiles_part4, sizeof(g_GameFieldLayerBTiles_part4)); // Load tiles (part 4)
                                   1291 ;E:/Dropbox/FAUSTO/SVILUPPI/MSX/CODE/C/MSXgl/engine/src/v9990.h:371: inline void V9_WriteVRAM(u32 addr, const u8* src, u16 count) { V9_SetWriteAddress(addr); V9_WriteVRAM_CurrentAddr(src, count); }
    0000036D 11 00 C0         [10] 1292 	ld	de, #0xc000
    00000370 2E 04            [ 7] 1293 	ld	l, #0x04
    00000372 CDr00r00         [17] 1294 	call	_V9_SetWriteAddress
    00000375 11 00 38         [10] 1295 	ld	de, #0x3800
    00000378 21r00r00         [10] 1296 	ld	hl, #_g_GameFieldLayerBTiles_part4
    0000037B CDr00r00         [17] 1297 	call	_V9_WriteVRAM_CurrentAddr
                                   1298 ;E:/Dropbox/FAUSTO/SVILUPPI/MSX/CODE/C/MSXgl/engine/src/rom_mapper.h:112: g_Bank0Segment[b] = s;
    0000037E 21 0B 00         [10] 1299 	ld	hl, #0x000b
    00000381 22r04r00         [16] 1300 	ld	((_g_Bank0Segment + 4)), hl
                                   1301 ;E:/Dropbox/FAUSTO/SVILUPPI/MSX/CODE/C/MSXgl/engine/src/system.h:109: inline void Poke16(u16 addr, u16 val) { *(u16*)addr = val; }
    00000384 22 00 70         [16] 1302 	ld	(0x7000), hl
                                   1303 ;./exsoccer.c:241: V9_WriteVRAM(V9_P1_PGT_B + 16384L*4, g_GameFieldLayerBTiles_part5, sizeof(g_GameFieldLayerBTiles_part5)); // Load tiles (part 4)
                                   1304 ;E:/Dropbox/FAUSTO/SVILUPPI/MSX/CODE/C/MSXgl/engine/src/v9990.h:371: inline void V9_WriteVRAM(u32 addr, const u8* src, u16 count) { V9_SetWriteAddress(addr); V9_WriteVRAM_CurrentAddr(src, count); }
    00000387 11 00 00         [10] 1305 	ld	de, #0x0000
    0000038A 2E 05            [ 7] 1306 	ld	l, #0x05
    0000038C CDr00r00         [17] 1307 	call	_V9_SetWriteAddress
    0000038F 11 00 40         [10] 1308 	ld	de, #0x4000
    00000392 21r00r00         [10] 1309 	ld	hl, #_g_GameFieldLayerBTiles_part5
    00000395 CDr00r00         [17] 1310 	call	_V9_WriteVRAM_CurrentAddr
                                   1311 ;E:/Dropbox/FAUSTO/SVILUPPI/MSX/CODE/C/MSXgl/engine/src/rom_mapper.h:112: g_Bank0Segment[b] = s;
    00000398 21 01 00         [10] 1312 	ld	hl, #0x0001
    0000039B 22r04r00         [16] 1313 	ld	((_g_Bank0Segment + 4)), hl
                                   1314 ;E:/Dropbox/FAUSTO/SVILUPPI/MSX/CODE/C/MSXgl/engine/src/system.h:109: inline void Poke16(u16 addr, u16 val) { *(u16*)addr = val; }
    0000039E 22 00 70         [16] 1315 	ld	(0x7000), hl
                                   1316 ;./exsoccer.c:242: SET_BANK_SEGMENT(2, 1); 
                                   1317 ;./exsoccer.c:245: }
    000003A1 C9               [10] 1318 	ret
                                   1319 ;./exsoccer.c:246: void ShowField(){
                                   1320 ;	---------------------------------
                                   1321 ; Function ShowField
                                   1322 ; ---------------------------------
    000003A2                       1323 _ShowField::
                                   1324 ;./exsoccer.c:247: u16 tileId=0;
    000003A2 01 00 00         [10] 1325 	ld	bc, #0x0000
                                   1326 ;./exsoccer.c:249: for (u8 y=0;y<64;y++){
    000003A5 1E 00            [ 7] 1327 	ld	e, #0x00
    000003A7                       1328 00110$:
    000003A7 7B               [ 4] 1329 	ld	a, e
    000003A8 D6 40            [ 7] 1330 	sub	a, #0x40
    000003AA 30 1C            [12] 1331 	jr	NC, 00102$
                                   1332 ;./exsoccer.c:250: for (u8 x=0;x<32;x++){
    000003AC 16 00            [ 7] 1333 	ld	d, #0x00
    000003AE                       1334 00107$:
    000003AE 7A               [ 4] 1335 	ld	a, d
    000003AF D6 20            [ 7] 1336 	sub	a, #0x20
    000003B1 30 11            [12] 1337 	jr	NC, 00133$
                                   1338 ;./exsoccer.c:251: V9_PutLayerBTileAtPos(x,y,tileId++);
    000003B3 69               [ 4] 1339 	ld	l, c
                                   1340 ;	spillPairReg hl
                                   1341 ;	spillPairReg hl
    000003B4 60               [ 4] 1342 	ld	h, b
                                   1343 ;	spillPairReg hl
                                   1344 ;	spillPairReg hl
    000003B5 03               [ 6] 1345 	inc	bc
    000003B6 C5               [11] 1346 	push	bc
    000003B7 D5               [11] 1347 	push	de
    000003B8 E5               [11] 1348 	push	hl
    000003B9 6B               [ 4] 1349 	ld	l, e
                                   1350 ;	spillPairReg hl
                                   1351 ;	spillPairReg hl
    000003BA 7A               [ 4] 1352 	ld	a, d
    000003BB CDr00r00         [17] 1353 	call	_V9_PutLayerBTileAtPos
    000003BE D1               [10] 1354 	pop	de
    000003BF C1               [10] 1355 	pop	bc
                                   1356 ;./exsoccer.c:250: for (u8 x=0;x<32;x++){
    000003C0 14               [ 4] 1357 	inc	d
    000003C1 C3rAEr03         [10] 1358 	jp	00107$
    000003C4                       1359 00133$:
                                   1360 ;./exsoccer.c:249: for (u8 y=0;y<64;y++){
    000003C4 1C               [ 4] 1361 	inc	e
    000003C5 C3rA7r03         [10] 1362 	jp	00110$
    000003C8                       1363 00102$:
                                   1364 ;./exsoccer.c:255: for (u8 y=0;y<64;y++){
    000003C8 0E 00            [ 7] 1365 	ld	c, #0x00
    000003CA                       1366 00116$:
    000003CA 79               [ 4] 1367 	ld	a, c
    000003CB D6 40            [ 7] 1368 	sub	a, #0x40
    000003CD 30 1A            [12] 1369 	jr	NC, 00104$
                                   1370 ;./exsoccer.c:256: for (u8 x=0;x<32;x++){
    000003CF 06 00            [ 7] 1371 	ld	b, #0x00
    000003D1                       1372 00113$:
    000003D1 78               [ 4] 1373 	ld	a, b
    000003D2 D6 20            [ 7] 1374 	sub	a, #0x20
    000003D4 30 0F            [12] 1375 	jr	NC, 00117$
                                   1376 ;./exsoccer.c:257: V9_PutLayerATileAtPos(x,y,0);
    000003D6 C5               [11] 1377 	push	bc
    000003D7 21 00 00         [10] 1378 	ld	hl, #0x0000
    000003DA E5               [11] 1379 	push	hl
    000003DB 69               [ 4] 1380 	ld	l, c
                                   1381 ;	spillPairReg hl
                                   1382 ;	spillPairReg hl
    000003DC 78               [ 4] 1383 	ld	a, b
    000003DD CDr00r00         [17] 1384 	call	_V9_PutLayerATileAtPos
    000003E0 C1               [10] 1385 	pop	bc
                                   1386 ;./exsoccer.c:256: for (u8 x=0;x<32;x++){
    000003E1 04               [ 4] 1387 	inc	b
    000003E2 C3rD1r03         [10] 1388 	jp	00113$
    000003E5                       1389 00117$:
                                   1390 ;./exsoccer.c:255: for (u8 y=0;y<64;y++){
    000003E5 0C               [ 4] 1391 	inc	c
    000003E6 C3rCAr03         [10] 1392 	jp	00116$
    000003E9                       1393 00104$:
                                   1394 ;./exsoccer.c:260: for (u8 x=0;x<64;x++){
    000003E9 0E 00            [ 7] 1395 	ld	c, #0x00
    000003EB                       1396 00119$:
    000003EB 79               [ 4] 1397 	ld	a, c
    000003EC D6 40            [ 7] 1398 	sub	a, #0x40
    000003EE D0               [11] 1399 	ret	NC
                                   1400 ;./exsoccer.c:261: V9_PutLayerATileAtPos(x,0,32);
    000003EF C5               [11] 1401 	push	bc
    000003F0 21 20 00         [10] 1402 	ld	hl, #0x0020
    000003F3 E5               [11] 1403 	push	hl
    000003F4 2E 00            [ 7] 1404 	ld	l, #0x00
                                   1405 ;	spillPairReg hl
                                   1406 ;	spillPairReg hl
    000003F6 79               [ 4] 1407 	ld	a, c
    000003F7 CDr00r00         [17] 1408 	call	_V9_PutLayerATileAtPos
    000003FA C1               [10] 1409 	pop	bc
                                   1410 ;./exsoccer.c:260: for (u8 x=0;x<64;x++){
    000003FB 0C               [ 4] 1411 	inc	c
                                   1412 ;./exsoccer.c:263: }
    000003FC C3rEBr03         [10] 1413 	jp	00119$
                                   1414 ;./exsoccer.c:265: void V9_InterruptHBlank(){
                                   1415 ;	---------------------------------
                                   1416 ; Function V9_InterruptHBlank
                                   1417 ; ---------------------------------
    000003FF                       1418 _V9_InterruptHBlank::
                                   1419 ;./exsoccer.c:267: }
    000003FF C9               [10] 1420 	ret
                                   1421 ;./exsoccer.c:269: void V9_InterruptVBlank(){
                                   1422 ;	---------------------------------
                                   1423 ; Function V9_InterruptVBlank
                                   1424 ; ---------------------------------
    00000400                       1425 _V9_InterruptVBlank::
                                   1426 ;./exsoccer.c:277: if(g_PlayMatchMusic){
    00000400 3Ar00r00         [13] 1427 	ld	a, (_g_PlayMatchMusic+0)
    00000403 B7               [ 4] 1428 	or	a, a
    00000404 28 0F            [12] 1429 	jr	Z, 00104$
                                   1430 ;./exsoccer.c:278: if(!g_SoundEffectLoopIsActive){
    00000406 3Ar83r11         [13] 1431 	ld	a, (_g_SoundEffectLoopIsActive+0)
    00000409 B7               [ 4] 1432 	or	a, a
    0000040A 20 03            [12] 1433 	jr	NZ, 00102$
                                   1434 ;./exsoccer.c:279: PT3_Decode();
    0000040C CDr00r00         [17] 1435 	call	_PT3_Decode
    0000040F                       1436 00102$:
                                   1437 ;./exsoccer.c:282: ayFX_Update(); 	 
    0000040F CDr00r00         [17] 1438 	call	_ayFX_Update
                                   1439 ;./exsoccer.c:283: PT3_UpdatePSG(); 
    00000412 CDr00r00         [17] 1440 	call	_PT3_UpdatePSG
    00000415                       1441 00104$:
                                   1442 ;./exsoccer.c:288: if(g_MatchStatus==MATCH_PRESENTATION){
    00000415 3Ar3Fr00         [13] 1443 	ld	a, (_g_MatchStatus+0)
    00000418 D6 0F            [ 7] 1444 	sub	a, #0x0f
    0000041A 20 05            [12] 1445 	jr	NZ, 00106$
                                   1446 ;./exsoccer.c:290: g_Timer++;
    0000041C 21r41r00         [10] 1447 	ld	hl, #_g_Timer
    0000041F 34               [11] 1448 	inc	(hl)
                                   1449 ;./exsoccer.c:291: return;
    00000420 C9               [10] 1450 	ret
    00000421                       1451 00106$:
                                   1452 ;./exsoccer.c:295: g_VSynch = TRUE;
    00000421 3E 01            [ 7] 1453 	ld	a, #0x01
    00000423 32r51r00         [13] 1454 	ld	(#_g_VSynch), a
                                   1455 ;./exsoccer.c:297: if (g_FieldScrollingActionInProgress != NO_VALUE) {
    00000426 3Ar03r10         [13] 1456 	ld	a, (_g_FieldScrollingActionInProgress+0)
    00000429 3C               [ 4] 1457 	inc	a
    0000042A C8               [11] 1458 	ret	Z
                                   1459 ;./exsoccer.c:298: switch (g_FieldScrollingActionInProgress) {
    0000042B 3Ar03r10         [13] 1460 	ld	a, (_g_FieldScrollingActionInProgress+0)
    0000042E B7               [ 4] 1461 	or	a, a
    0000042F 28 11            [12] 1462 	jr	Z, 00107$
    00000431 3Ar03r10         [13] 1463 	ld	a, (_g_FieldScrollingActionInProgress+0)
    00000434 3D               [ 4] 1464 	dec	a
    00000435 28 36            [12] 1465 	jr	Z, 00110$
    00000437 3Ar03r10         [13] 1466 	ld	a, (_g_FieldScrollingActionInProgress+0)
    0000043A D6 02            [ 7] 1467 	sub	a, #0x02
    0000043C CArEFr04         [10] 1468 	jp	Z,00121$
    0000043F C3r20r05         [10] 1469 	jp	00124$
                                   1470 ;./exsoccer.c:299: case FIELD_NORTH_ZONE:
    00000442                       1471 00107$:
                                   1472 ;./exsoccer.c:300: g_FieldCurrentYPosition = g_FieldCurrentYPosition - g_FieldScrollSpeed;
    00000442 3Ar40r00         [13] 1473 	ld	a, (_g_FieldScrollSpeed+0)
    00000445 4F               [ 4] 1474 	ld	c, a
    00000446 06 00            [ 7] 1475 	ld	b, #0x00
    00000448 21r3Cr00         [10] 1476 	ld	hl, #_g_FieldCurrentYPosition
    0000044B 7E               [ 7] 1477 	ld	a, (hl)
    0000044C 91               [ 4] 1478 	sub	a, c
    0000044D 77               [ 7] 1479 	ld	(hl), a
    0000044E 23               [ 6] 1480 	inc	hl
    0000044F 7E               [ 7] 1481 	ld	a, (hl)
    00000450 98               [ 4] 1482 	sbc	a, b
    00000451 77               [ 7] 1483 	ld	(hl), a
                                   1484 ;./exsoccer.c:301: if (g_FieldCurrentYPosition < 0) {
    00000452 3Ar3Dr00         [13] 1485 	ld	a, (_g_FieldCurrentYPosition+1)
    00000455 CB 7F            [ 8] 1486 	bit	7, a
    00000457 CAr20r05         [10] 1487 	jp	Z, 00124$
                                   1488 ;./exsoccer.c:302: g_FieldCurrentYPosition = 1;
    0000045A 21 01 00         [10] 1489 	ld	hl, #0x0001
    0000045D 22r3Cr00         [16] 1490 	ld	(_g_FieldCurrentYPosition), hl
                                   1491 ;./exsoccer.c:303: g_FieldScrollingActionInProgress = NO_VALUE;
    00000460 21r03r10         [10] 1492 	ld	hl, #_g_FieldScrollingActionInProgress
    00000463 36 FF            [10] 1493 	ld	(hl), #0xff
                                   1494 ;./exsoccer.c:304: g_ActiveFieldZone = FIELD_NORTH_ZONE;
    00000465 21r7Fr11         [10] 1495 	ld	hl, #_g_ActiveFieldZone
    00000468 36 00            [10] 1496 	ld	(hl), #0x00
                                   1497 ;./exsoccer.c:306: break;
    0000046A C3r20r05         [10] 1498 	jp	00124$
                                   1499 ;./exsoccer.c:307: case FIELD_CENTRAL_ZONE:
    0000046D                       1500 00110$:
                                   1501 ;./exsoccer.c:308: if (g_FieldCurrentYPosition != 136) {
    0000046D 3Ar3Cr00         [13] 1502 	ld	a, (_g_FieldCurrentYPosition+0)
    00000470 D6 88            [ 7] 1503 	sub	a, #0x88
    00000472 FD 21r3Cr00      [14] 1504 	ld	iy, #_g_FieldCurrentYPosition
    00000476 FD B6 01         [19] 1505 	or	a, 1 (iy)
    00000479 28 67            [12] 1506 	jr	Z, 00119$
                                   1507 ;./exsoccer.c:300: g_FieldCurrentYPosition = g_FieldCurrentYPosition - g_FieldScrollSpeed;
    0000047B 3Ar40r00         [13] 1508 	ld	a, (_g_FieldScrollSpeed+0)
    0000047E 4F               [ 4] 1509 	ld	c, a
    0000047F 06 00            [ 7] 1510 	ld	b, #0x00
                                   1511 ;./exsoccer.c:309: if (g_FieldCurrentYPosition > FIELD_CENTRAL_Y) {
    00000481 3E 8C            [ 7] 1512 	ld	a, #0x8c
    00000483 FD BE 00         [19] 1513 	cp	a, 0 (iy)
    00000486 3E 00            [ 7] 1514 	ld	a, #0x00
    00000488 FD 9E 01         [19] 1515 	sbc	a, 1 (iy)
    0000048B E2r90r04         [10] 1516 	jp	PO, 00216$
    0000048E EE 80            [ 7] 1517 	xor	a, #0x80
    00000490                       1518 00216$:
    00000490 F2rB5r04         [10] 1519 	jp	P, 00116$
                                   1520 ;./exsoccer.c:310: g_FieldCurrentYPosition = g_FieldCurrentYPosition - g_FieldScrollSpeed;
    00000493 21r3Cr00         [10] 1521 	ld	hl, #_g_FieldCurrentYPosition
    00000496 7E               [ 7] 1522 	ld	a, (hl)
    00000497 91               [ 4] 1523 	sub	a, c
    00000498 77               [ 7] 1524 	ld	(hl), a
    00000499 23               [ 6] 1525 	inc	hl
    0000049A 7E               [ 7] 1526 	ld	a, (hl)
    0000049B 98               [ 4] 1527 	sbc	a, b
    0000049C 77               [ 7] 1528 	ld	(hl), a
                                   1529 ;./exsoccer.c:311: if(g_FieldCurrentYPosition < 136) g_FieldCurrentYPosition = 136;
    0000049D 3Ar3Cr00         [13] 1530 	ld	a, (_g_FieldCurrentYPosition+0)
    000004A0 D6 88            [ 7] 1531 	sub	a, #0x88
    000004A2 3Ar3Dr00         [13] 1532 	ld	a, (_g_FieldCurrentYPosition+1)
    000004A5 17               [ 4] 1533 	rla
    000004A6 3F               [ 4] 1534 	ccf
    000004A7 1F               [ 4] 1535 	rra
    000004A8 DE 80            [ 7] 1536 	sbc	a, #0x80
    000004AA 30 74            [12] 1537 	jr	NC, 00124$
    000004AC 21 88 00         [10] 1538 	ld	hl, #0x0088
    000004AF 22r3Cr00         [16] 1539 	ld	(_g_FieldCurrentYPosition), hl
    000004B2 C3r20r05         [10] 1540 	jp	00124$
    000004B5                       1541 00116$:
                                   1542 ;./exsoccer.c:314: g_FieldCurrentYPosition = g_FieldCurrentYPosition + g_FieldScrollSpeed;
    000004B5 79               [ 4] 1543 	ld	a, c
    000004B6 FD 21r3Cr00      [14] 1544 	ld	iy, #_g_FieldCurrentYPosition
    000004BA FD 86 00         [19] 1545 	add	a, 0 (iy)
    000004BD 32r3Cr00         [13] 1546 	ld	(_g_FieldCurrentYPosition+0), a
    000004C0 78               [ 4] 1547 	ld	a, b
    000004C1 FD 8E 01         [19] 1548 	adc	a, 1 (iy)
    000004C4 32r3Dr00         [13] 1549 	ld	(_g_FieldCurrentYPosition+1), a
                                   1550 ;./exsoccer.c:315: if(g_FieldCurrentYPosition > 136) g_FieldCurrentYPosition = 136;
    000004C7 3E 88            [ 7] 1551 	ld	a, #0x88
    000004C9 FD BE 00         [19] 1552 	cp	a, 0 (iy)
    000004CC 3E 00            [ 7] 1553 	ld	a, #0x00
    000004CE FD 9E 01         [19] 1554 	sbc	a, 1 (iy)
    000004D1 E2rD6r04         [10] 1555 	jp	PO, 00217$
    000004D4 EE 80            [ 7] 1556 	xor	a, #0x80
    000004D6                       1557 00217$:
    000004D6 F2r20r05         [10] 1558 	jp	P, 00124$
    000004D9 21 88 00         [10] 1559 	ld	hl, #0x0088
    000004DC 22r3Cr00         [16] 1560 	ld	(_g_FieldCurrentYPosition), hl
    000004DF C3r20r05         [10] 1561 	jp	00124$
    000004E2                       1562 00119$:
                                   1563 ;./exsoccer.c:320: g_FieldScrollingActionInProgress = NO_VALUE;
    000004E2 21r03r10         [10] 1564 	ld	hl, #_g_FieldScrollingActionInProgress
    000004E5 36 FF            [10] 1565 	ld	(hl), #0xff
                                   1566 ;./exsoccer.c:321: g_ActiveFieldZone = FIELD_CENTRAL_ZONE;
    000004E7 21r7Fr11         [10] 1567 	ld	hl, #_g_ActiveFieldZone
    000004EA 36 01            [10] 1568 	ld	(hl), #0x01
                                   1569 ;./exsoccer.c:323: break;
    000004EC C3r20r05         [10] 1570 	jp	00124$
                                   1571 ;./exsoccer.c:324: case FIELD_SOUTH_ZONE:
    000004EF                       1572 00121$:
                                   1573 ;./exsoccer.c:325: g_FieldCurrentYPosition = g_FieldCurrentYPosition + g_FieldScrollSpeed;
    000004EF 3Ar40r00         [13] 1574 	ld	a, (_g_FieldScrollSpeed+0)
    000004F2 4F               [ 4] 1575 	ld	c, a
    000004F3 06 00            [ 7] 1576 	ld	b, #0x00
    000004F5 79               [ 4] 1577 	ld	a, c
    000004F6 FD 21r3Cr00      [14] 1578 	ld	iy, #_g_FieldCurrentYPosition
    000004FA FD 86 00         [19] 1579 	add	a, 0 (iy)
    000004FD 32r3Cr00         [13] 1580 	ld	(_g_FieldCurrentYPosition+0), a
    00000500 78               [ 4] 1581 	ld	a, b
    00000501 FD 8E 01         [19] 1582 	adc	a, 1 (iy)
    00000504 32r3Dr00         [13] 1583 	ld	(_g_FieldCurrentYPosition+1), a
                                   1584 ;./exsoccer.c:326: if (g_FieldCurrentYPosition >= FIELD_BOTTOM_Y) {
    00000507 3Ar3Cr00         [13] 1585 	ld	a, (_g_FieldCurrentYPosition+0)
    0000050A D6 18            [ 7] 1586 	sub	a, #0x18
    0000050C 3Ar3Dr00         [13] 1587 	ld	a, (_g_FieldCurrentYPosition+1)
    0000050F 17               [ 4] 1588 	rla
    00000510 3F               [ 4] 1589 	ccf
    00000511 1F               [ 4] 1590 	rra
    00000512 DE 81            [ 7] 1591 	sbc	a, #0x81
    00000514 38 0A            [12] 1592 	jr	C, 00124$
                                   1593 ;./exsoccer.c:327: g_ActiveFieldZone = FIELD_SOUTH_ZONE;
    00000516 21r7Fr11         [10] 1594 	ld	hl, #_g_ActiveFieldZone
    00000519 36 02            [10] 1595 	ld	(hl), #0x02
                                   1596 ;./exsoccer.c:328: g_FieldScrollingActionInProgress = NO_VALUE;
    0000051B 21r03r10         [10] 1597 	ld	hl, #_g_FieldScrollingActionInProgress
    0000051E 36 FF            [10] 1598 	ld	(hl), #0xff
                                   1599 ;./exsoccer.c:331: }
    00000520                       1600 00124$:
                                   1601 ;./exsoccer.c:332: V9_SetScrollingBY(g_FieldCurrentYPosition);
    00000520 2Ar3Cr00         [16] 1602 	ld	hl, (_g_FieldCurrentYPosition)
    00000523 CDr00r00         [17] 1603 	call	_V9_SetScrollingBY
                                   1604 ;./exsoccer.c:334: for(u8 i=0;i<6;i++){
    00000526 0E 00            [ 7] 1605 	ld	c, #0x00
    00000528                       1606 00129$:
    00000528 79               [ 4] 1607 	ld	a, c
    00000529 D6 06            [ 7] 1608 	sub	a, #0x06
    0000052B D0               [11] 1609 	ret	NC
                                   1610 ;./exsoccer.c:335: PutPonPonGirlSprite(i);
    0000052C C5               [11] 1611 	push	bc
    0000052D 79               [ 4] 1612 	ld	a, c
    0000052E CDr36r05         [17] 1613 	call	_PutPonPonGirlSprite
    00000531 C1               [10] 1614 	pop	bc
                                   1615 ;./exsoccer.c:334: for(u8 i=0;i<6;i++){
    00000532 0C               [ 4] 1616 	inc	c
                                   1617 ;./exsoccer.c:339: }
    00000533 C3r28r05         [10] 1618 	jp	00129$
                                   1619 ;./exsoccer.c:340: void PutPonPonGirlSprite(u8 ponPonGirlId){
                                   1620 ;	---------------------------------
                                   1621 ; Function PutPonPonGirlSprite
                                   1622 ; ---------------------------------
    00000536                       1623 _PutPonPonGirlSprite::
    00000536 DD E5            [15] 1624 	push	ix
    00000538 DD 21 00 00      [14] 1625 	ld	ix,#0
    0000053C DD 39            [15] 1626 	add	ix,sp
    0000053E 21 FB FF         [10] 1627 	ld	hl, #-5
    00000541 39               [11] 1628 	add	hl, sp
    00000542 F9               [ 6] 1629 	ld	sp, hl
    00000543 DD 77 FF         [19] 1630 	ld	-1 (ix), a
                                   1631 ;./exsoccer.c:342: attr.D=0;
    00000546 21 03 00         [10] 1632 	ld	hl, #3
    00000549 39               [11] 1633 	add	hl, sp
    0000054A CB A6            [15] 1634 	res	4, (hl)
                                   1635 ;./exsoccer.c:344: attr.SC=0;
    0000054C 21 03 00         [10] 1636 	ld	hl, #3
    0000054F 39               [11] 1637 	add	hl, sp
    00000550 7E               [ 7] 1638 	ld	a, (hl)
    00000551 E6 3F            [ 7] 1639 	and	a, #0x3f
    00000553 77               [ 7] 1640 	ld	(hl), a
                                   1641 ;./exsoccer.c:345: attr.Y=g_PonPonGirls[ponPonGirlId].Y-g_FieldCurrentYPosition;
    00000554 01r43r11         [10] 1642 	ld	bc, #_g_PonPonGirls+0
    00000557 DD 5E FF         [19] 1643 	ld	e, -1 (ix)
    0000055A 16 00            [ 7] 1644 	ld	d, #0x00
    0000055C 6B               [ 4] 1645 	ld	l, e
    0000055D 62               [ 4] 1646 	ld	h, d
    0000055E 29               [11] 1647 	add	hl, hl
    0000055F 29               [11] 1648 	add	hl, hl
    00000560 19               [11] 1649 	add	hl, de
    00000561 09               [11] 1650 	add	hl, bc
    00000562 EB               [ 4] 1651 	ex	de, hl
    00000563 1A               [ 7] 1652 	ld	a, (de)
    00000564 6F               [ 4] 1653 	ld	l, a
                                   1654 ;	spillPairReg hl
                                   1655 ;	spillPairReg hl
    00000565 3Ar3Cr00         [13] 1656 	ld	a, (_g_FieldCurrentYPosition+0)
    00000568 4F               [ 4] 1657 	ld	c, a
    00000569 7D               [ 4] 1658 	ld	a, l
    0000056A 91               [ 4] 1659 	sub	a, c
    0000056B DD 77 FB         [19] 1660 	ld	-5 (ix), a
                                   1661 ;./exsoccer.c:346: attr.X=g_PonPonGirls[ponPonGirlId].X;
    0000056E 6B               [ 4] 1662 	ld	l, e
                                   1663 ;	spillPairReg hl
                                   1664 ;	spillPairReg hl
    0000056F 62               [ 4] 1665 	ld	h, d
                                   1666 ;	spillPairReg hl
                                   1667 ;	spillPairReg hl
    00000570 23               [ 6] 1668 	inc	hl
    00000571 23               [ 6] 1669 	inc	hl
    00000572 4E               [ 7] 1670 	ld	c, (hl)
    00000573 23               [ 6] 1671 	inc	hl
    00000574 46               [ 7] 1672 	ld	b, (hl)
    00000575 21 02 00         [10] 1673 	ld	hl, #2
    00000578 39               [11] 1674 	add	hl, sp
    00000579 71               [ 7] 1675 	ld	(hl), c
    0000057A 23               [ 6] 1676 	inc	hl
    0000057B 78               [ 4] 1677 	ld	a, b
    0000057C E6 03            [ 7] 1678 	and	a, #0x03
    0000057E 4F               [ 4] 1679 	ld	c,a
    0000057F 7E               [ 7] 1680 	ld	a, (hl)
    00000580 E6 FC            [ 7] 1681 	and	a, #0xfc
    00000582 B1               [ 4] 1682 	or	a, c
    00000583 77               [ 7] 1683 	ld	(hl), a
                                   1684 ;./exsoccer.c:347: if(g_ActiveFieldZone!=FIELD_NORTH_ZONE||attr.Y>100){
    00000584 3Ar7Fr11         [13] 1685 	ld	a, (_g_ActiveFieldZone+0)
    00000587 B7               [ 4] 1686 	or	a, a
    00000588 20 08            [12] 1687 	jr	NZ, 00101$
    0000058A DD 4E FB         [19] 1688 	ld	c, -5 (ix)
    0000058D 3E 64            [ 7] 1689 	ld	a, #0x64
    0000058F 91               [ 4] 1690 	sub	a, c
    00000590 30 06            [12] 1691 	jr	NC, 00102$
    00000592                       1692 00101$:
                                   1693 ;./exsoccer.c:348: attr.D=1;
    00000592 21 03 00         [10] 1694 	ld	hl, #3
    00000595 39               [11] 1695 	add	hl, sp
    00000596 CB E6            [15] 1696 	set	4, (hl)
    00000598                       1697 00102$:
                                   1698 ;./exsoccer.c:350: attr.Pattern = g_PonPonGirls[ponPonGirlId].PatternId;
    00000598 21 04 00         [10] 1699 	ld	hl, #4
    0000059B 19               [11] 1700 	add	hl, de
    0000059C 7E               [ 7] 1701 	ld	a, (hl)
    0000059D DD 77 FC         [19] 1702 	ld	-4 (ix), a
                                   1703 ;./exsoccer.c:351: attr.P = 1;
    000005A0 21 03 00         [10] 1704 	ld	hl, #3
    000005A3 39               [11] 1705 	add	hl, sp
    000005A4 CB EE            [15] 1706 	set	5, (hl)
                                   1707 ;./exsoccer.c:352: V9_SetSpriteP1(ponPonGirlId+20, &attr);
    000005A6 DD 7E FF         [19] 1708 	ld	a, -1 (ix)
    000005A9 C6 14            [ 7] 1709 	add	a, #0x14
                                   1710 ;E:/Dropbox/FAUSTO/SVILUPPI/MSX/CODE/C/MSXgl/engine/src/v9990.h:781: inline void V9_SetSpriteP1(u8 id, const V9_Sprite* attr) { V9_WriteVRAM(V9_P1_SPAT + (id * 4), (const u8*)attr, 4); }
    000005AB 6F               [ 4] 1711 	ld	l, a
                                   1712 ;	spillPairReg hl
                                   1713 ;	spillPairReg hl
    000005AC 26 00            [ 7] 1714 	ld	h, #0x00
                                   1715 ;	spillPairReg hl
                                   1716 ;	spillPairReg hl
    000005AE 29               [11] 1717 	add	hl, hl
    000005AF 29               [11] 1718 	add	hl, hl
    000005B0 7C               [ 4] 1719 	ld	a, h
    000005B1 07               [ 4] 1720 	rlca
    000005B2 9F               [ 4] 1721 	sbc	a, a
    000005B3 5F               [ 4] 1722 	ld	e, a
    000005B4 57               [ 4] 1723 	ld	d, a
    000005B5 7C               [ 4] 1724 	ld	a, h
    000005B6 C6 FE            [ 7] 1725 	add	a, #0xfe
    000005B8 67               [ 4] 1726 	ld	h, a
                                   1727 ;	spillPairReg hl
                                   1728 ;	spillPairReg hl
    000005B9 7B               [ 4] 1729 	ld	a, e
    000005BA CE 03            [ 7] 1730 	adc	a, #0x03
    000005BC 5F               [ 4] 1731 	ld	e, a
    000005BD 30 01            [12] 1732 	jr	NC, 00113$
    000005BF 14               [ 4] 1733 	inc	d
    000005C0                       1734 00113$:
                                   1735 ;E:/Dropbox/FAUSTO/SVILUPPI/MSX/CODE/C/MSXgl/engine/src/v9990.h:371: inline void V9_WriteVRAM(u32 addr, const u8* src, u16 count) { V9_SetWriteAddress(addr); V9_WriteVRAM_CurrentAddr(src, count); }
    000005C0 EB               [ 4] 1736 	ex	de, hl
    000005C1 CDr00r00         [17] 1737 	call	_V9_SetWriteAddress
    000005C4 11 04 00         [10] 1738 	ld	de, #0x0004
    000005C7 21 00 00         [10] 1739 	ld	hl, #0
    000005CA 39               [11] 1740 	add	hl, sp
    000005CB CDr00r00         [17] 1741 	call	_V9_WriteVRAM_CurrentAddr
                                   1742 ;./exsoccer.c:352: V9_SetSpriteP1(ponPonGirlId+20, &attr);
                                   1743 ;./exsoccer.c:353: }
    000005CE DD F9            [10] 1744 	ld	sp, ix
    000005D0 DD E1            [14] 1745 	pop	ix
    000005D2 C9               [10] 1746 	ret
                                   1747 ;./exsoccer.c:354: void V9_InterruptCommand()
                                   1748 ;	---------------------------------
                                   1749 ; Function V9_InterruptCommand
                                   1750 ; ---------------------------------
    000005D3                       1751 _V9_InterruptCommand::
                                   1752 ;./exsoccer.c:357: }
    000005D3 C9               [10] 1753 	ret
                                   1754 ;./exsoccer.c:359: void GameStart(){
                                   1755 ;	---------------------------------
                                   1756 ; Function GameStart
                                   1757 ; ---------------------------------
    000005D4                       1758 _GameStart::
                                   1759 ;./exsoccer.c:360: g_PcmStartPlaying=FALSE;
    000005D4 21r00r00         [10] 1760 	ld	hl, #_g_PcmStartPlaying
    000005D7 36 00            [10] 1761 	ld	(hl), #0x00
                                   1762 ;./exsoccer.c:361: g_PmcSoundPlaying=NO_VALUE;
    000005D9 21r02r00         [10] 1763 	ld	hl, #_g_PmcSoundPlaying
    000005DC 36 FF            [10] 1764 	ld	(hl), #0xff
                                   1765 ;./exsoccer.c:362: g_PassTargetPlayer=NO_VALUE;
    000005DE 21r44r00         [10] 1766 	ld	hl, #_g_PassTargetPlayer
    000005E1 36 FF            [10] 1767 	ld	(hl), #0xff
                                   1768 ;./exsoccer.c:363: g_Team1ActivePlayer=NO_VALUE;
    000005E3 21r42r00         [10] 1769 	ld	hl, #_g_Team1ActivePlayer
    000005E6 36 FF            [10] 1770 	ld	(hl), #0xff
                                   1771 ;E:/Dropbox/FAUSTO/SVILUPPI/MSX/CODE/C/MSXgl/engine/src/v9990.h:258: inline void V9_SetFlag(u8 reg, u8 mask, u8 flag) { V9_SetRegister(reg, V9_GetRegister(reg) & (~mask) | flag); }
    000005E8 3E 08            [ 7] 1772 	ld	a, #0x08
    000005EA CDr00r00         [17] 1773 	call	_V9_GetRegister
    000005ED 6F               [ 4] 1774 	ld	l, a
                                   1775 ;	spillPairReg hl
                                   1776 ;	spillPairReg hl
    000005EE CB BD            [ 8] 1777 	res	7, l
    000005F0 3E 08            [ 7] 1778 	ld	a, #0x08
    000005F2 CDr00r00         [17] 1779 	call	_V9_SetRegister
                                   1780 ;./exsoccer.c:365: g_SecondsToEndOfMatch=MATCH_DURATION;
    000005F5 21r81r11         [10] 1781 	ld	hl, #_g_SecondsToEndOfMatch
    000005F8 36 78            [10] 1782 	ld	(hl), #0x78
                                   1783 ;./exsoccer.c:366: g_RestartKickTeamId=TEAM_1;
    000005FA 21r80r11         [10] 1784 	ld	hl, #_g_RestartKickTeamId
    000005FD 36 01            [10] 1785 	ld	(hl), #0x01
                                   1786 ;./exsoccer.c:367: g_FieldScrollSpeed=FIELD_SCROLL_PRESENTATION_SPEED;
    000005FF 21r40r00         [10] 1787 	ld	hl, #_g_FieldScrollSpeed
    00000602 36 01            [10] 1788 	ld	(hl), #0x01
                                   1789 ;./exsoccer.c:368: g_FieldScrollingActionInProgress=NO_VALUE;
    00000604 21r03r10         [10] 1790 	ld	hl, #_g_FieldScrollingActionInProgress
    00000607 36 FF            [10] 1791 	ld	(hl), #0xff
                                   1792 ;./exsoccer.c:369: g_FieldCurrentYPosition=FIELD_TOP_Y;
    00000609 21 01 00         [10] 1793 	ld	hl, #0x0001
    0000060C 22r3Cr00         [16] 1794 	ld	(_g_FieldCurrentYPosition), hl
                                   1795 ;./exsoccer.c:370: g_Team1Score=0;
    0000060F AF               [ 4] 1796 	xor	a, a
    00000610 32r06r10         [13] 1797 	ld	(#_g_Team1Score), a
                                   1798 ;./exsoccer.c:371: g_Team2Score=0;
    00000613 AF               [ 4] 1799 	xor	a, a
    00000614 32r07r10         [13] 1800 	ld	(#_g_Team2Score), a
                                   1801 ;./exsoccer.c:372: V9_SetScrollingY(0);
    00000617 6C               [ 4] 1802 	ld	l, h
    00000618 CDr00r00         [17] 1803 	call	_V9_SetScrollingY
                                   1804 ;./exsoccer.c:373: V9_SetScrollingBY(1);
    0000061B 21 01 00         [10] 1805 	ld	hl, #0x0001
    0000061E CDr00r00         [17] 1806 	call	_V9_SetScrollingBY
                                   1807 ;./exsoccer.c:374: SetTeam1Palette();
    00000621 CDr00r00         [17] 1808 	call	_SetTeam1Palette
                                   1809 ;./exsoccer.c:375: SetTeam2Palette();
    00000624 CDr00r00         [17] 1810 	call	_SetTeam2Palette
                                   1811 ;./exsoccer.c:376: SetTeamsPresentationSpritesPosition();
    00000627 CDr00r00         [17] 1812 	call	_SetTeamsPresentationSpritesPosition
                                   1813 ;./exsoccer.c:377: ShowFieldZone(FIELD_CENTRAL_ZONE);
    0000062A 3E 01            [ 7] 1814 	ld	a, #0x01
    0000062C CDr00r00         [17] 1815 	call	_ShowFieldZone
                                   1816 ;./exsoccer.c:378: ShowHeaderInfo();
    0000062F CDr00r00         [17] 1817 	call	_ShowHeaderInfo
                                   1818 ;E:/Dropbox/FAUSTO/SVILUPPI/MSX/CODE/C/MSXgl/engine/src/rom_mapper.h:112: g_Bank0Segment[b] = s;
    00000632 21 17 00         [10] 1819 	ld	hl, #0x0017
    00000635 22r04r00         [16] 1820 	ld	((_g_Bank0Segment + 4)), hl
                                   1821 ;E:/Dropbox/FAUSTO/SVILUPPI/MSX/CODE/C/MSXgl/engine/src/system.h:109: inline void Poke16(u16 addr, u16 val) { *(u16*)addr = val; }
    00000638 22 00 70         [16] 1822 	ld	(0x7000), hl
                                   1823 ;./exsoccer.c:380: InitPonPonGirls();
    0000063B CDr00r00         [17] 1824 	call	_InitPonPonGirls
                                   1825 ;E:/Dropbox/FAUSTO/SVILUPPI/MSX/CODE/C/MSXgl/engine/src/rom_mapper.h:112: g_Bank0Segment[b] = s;
    0000063E 21 01 00         [10] 1826 	ld	hl, #0x0001
    00000641 22r04r00         [16] 1827 	ld	((_g_Bank0Segment + 4)), hl
                                   1828 ;E:/Dropbox/FAUSTO/SVILUPPI/MSX/CODE/C/MSXgl/engine/src/system.h:109: inline void Poke16(u16 addr, u16 val) { *(u16*)addr = val; }
    00000644 22 00 70         [16] 1829 	ld	(0x7000), hl
                                   1830 ;E:/Dropbox/FAUSTO/SVILUPPI/MSX/CODE/C/MSXgl/engine/src/v9990.h:258: inline void V9_SetFlag(u8 reg, u8 mask, u8 flag) { V9_SetRegister(reg, V9_GetRegister(reg) & (~mask) | flag); }
    00000647 3E 08            [ 7] 1831 	ld	a, #0x08
    00000649 CDr00r00         [17] 1832 	call	_V9_GetRegister
    0000064C CB BF            [ 8] 1833 	res	7, a
    0000064E 6F               [ 4] 1834 	ld	l, a
                                   1835 ;	spillPairReg hl
                                   1836 ;	spillPairReg hl
    0000064F CB FD            [ 8] 1837 	set	7, l
    00000651 3E 08            [ 7] 1838 	ld	a, #0x08
                                   1839 ;./exsoccer.c:382: V9_SetDisplayEnable(TRUE);
                                   1840 ;./exsoccer.c:383: }
    00000653 C3r00r00         [10] 1841 	jp	_V9_SetRegister
                                   1842 ;./exsoccer.c:384: void V9_PrintLayerAStringAtPos(u8 x, u8 y, const c8* str)
                                   1843 ;	---------------------------------
                                   1844 ; Function V9_PrintLayerAStringAtPos
                                   1845 ; ---------------------------------
    00000656                       1846 _V9_PrintLayerAStringAtPos::
    00000656 DD E5            [15] 1847 	push	ix
    00000658 DD 21 00 00      [14] 1848 	ld	ix,#0
    0000065C DD 39            [15] 1849 	add	ix,sp
    0000065E 4F               [ 4] 1850 	ld	c, a
    0000065F 45               [ 4] 1851 	ld	b, l
                                   1852 ;./exsoccer.c:387: while (*str != 0){
    00000660 DD 5E 04         [19] 1853 	ld	e, 4 (ix)
    00000663 DD 56 05         [19] 1854 	ld	d, 5 (ix)
    00000666                       1855 00101$:
    00000666 1A               [ 7] 1856 	ld	a, (de)
    00000667 B7               [ 4] 1857 	or	a, a
    00000668 28 12            [12] 1858 	jr	Z, 00104$
                                   1859 ;./exsoccer.c:388: V9_PutLayerATileAtPos(x,y,*(str++));
    0000066A 13               [ 6] 1860 	inc	de
    0000066B 26 00            [ 7] 1861 	ld	h, #0x00
                                   1862 ;	spillPairReg hl
                                   1863 ;	spillPairReg hl
    0000066D C5               [11] 1864 	push	bc
    0000066E D5               [11] 1865 	push	de
    0000066F 6F               [ 4] 1866 	ld	l, a
                                   1867 ;	spillPairReg hl
                                   1868 ;	spillPairReg hl
    00000670 E5               [11] 1869 	push	hl
    00000671 68               [ 4] 1870 	ld	l, b
                                   1871 ;	spillPairReg hl
                                   1872 ;	spillPairReg hl
    00000672 79               [ 4] 1873 	ld	a, c
    00000673 CDr00r00         [17] 1874 	call	_V9_PutLayerATileAtPos
    00000676 D1               [10] 1875 	pop	de
    00000677 C1               [10] 1876 	pop	bc
                                   1877 ;./exsoccer.c:389: x++;
    00000678 0C               [ 4] 1878 	inc	c
                                   1879 ;./exsoccer.c:390: pos++;
    00000679 C3r66r06         [10] 1880 	jp	00101$
    0000067C                       1881 00104$:
                                   1882 ;./exsoccer.c:393: }
    0000067C DD E1            [14] 1883 	pop	ix
    0000067E E1               [10] 1884 	pop	hl
    0000067F F1               [10] 1885 	pop	af
    00000680 E9               [ 4] 1886 	jp	(hl)
                                   1887 ;./exsoccer.c:394: void TickActiveFieldZone(){
                                   1888 ;	---------------------------------
                                   1889 ; Function TickActiveFieldZone
                                   1890 ; ---------------------------------
    00000681                       1891 _TickActiveFieldZone::
                                   1892 ;./exsoccer.c:397: if (g_MatchStatus != MATCH_IN_ACTION) return;
    00000681 3Ar3Fr00         [13] 1893 	ld	a, (_g_MatchStatus+0)
    00000684 D6 0C            [ 7] 1894 	sub	a, #0x0c
    00000686 C0               [11] 1895 	ret	NZ
                                   1896 ;./exsoccer.c:399: if (g_ActiveFieldZone == FIELD_CENTRAL_ZONE) {
    00000687 3Ar7Fr11         [13] 1897 	ld	a, (_g_ActiveFieldZone+0)
    0000068A 3D               [ 4] 1898 	dec	a
    0000068B 20 22            [12] 1899 	jr	NZ, 00116$
                                   1900 ;./exsoccer.c:400: if (g_Ball.Y < 170) ShowFieldZone(FIELD_NORTH_ZONE);
    0000068D 2Ar61r11         [16] 1901 	ld	hl, (#_g_Ball + 0)
    00000690 7D               [ 4] 1902 	ld	a, l
    00000691 D6 AA            [ 7] 1903 	sub	a, #0xaa
    00000693 7C               [ 4] 1904 	ld	a, h
    00000694 DE 00            [ 7] 1905 	sbc	a, #0x00
    00000696 30 07            [12] 1906 	jr	NC, 00106$
    00000698 AF               [ 4] 1907 	xor	a, a
    00000699 CDr00r00         [17] 1908 	call	_ShowFieldZone
    0000069C C3rD8r06         [10] 1909 	jp	00117$
    0000069F                       1910 00106$:
                                   1911 ;./exsoccer.c:401: else if (g_Ball.Y > 320) ShowFieldZone(FIELD_SOUTH_ZONE);
    0000069F 3E 40            [ 7] 1912 	ld	a, #0x40
    000006A1 BD               [ 4] 1913 	cp	a, l
    000006A2 3E 01            [ 7] 1914 	ld	a, #0x01
    000006A4 9C               [ 4] 1915 	sbc	a, h
    000006A5 30 31            [12] 1916 	jr	NC, 00117$
    000006A7 3E 02            [ 7] 1917 	ld	a, #0x02
    000006A9 CDr00r00         [17] 1918 	call	_ShowFieldZone
    000006AC C3rD8r06         [10] 1919 	jp	00117$
    000006AF                       1920 00116$:
                                   1921 ;./exsoccer.c:403: else if (g_ActiveFieldZone == FIELD_NORTH_ZONE) {
    000006AF 3Ar7Fr11         [13] 1922 	ld	a, (_g_ActiveFieldZone+0)
    000006B2 B7               [ 4] 1923 	or	a, a
    000006B3 20 13            [12] 1924 	jr	NZ, 00113$
                                   1925 ;./exsoccer.c:404: if (g_Ball.Y > 190) ShowFieldZone(FIELD_CENTRAL_ZONE);
    000006B5 2Ar61r11         [16] 1926 	ld	hl, (#_g_Ball + 0)
    000006B8 3E BE            [ 7] 1927 	ld	a, #0xbe
    000006BA BD               [ 4] 1928 	cp	a, l
    000006BB 3E 00            [ 7] 1929 	ld	a, #0x00
    000006BD 9C               [ 4] 1930 	sbc	a, h
    000006BE 30 18            [12] 1931 	jr	NC, 00117$
    000006C0 3E 01            [ 7] 1932 	ld	a, #0x01
    000006C2 CDr00r00         [17] 1933 	call	_ShowFieldZone
    000006C5 C3rD8r06         [10] 1934 	jp	00117$
    000006C8                       1935 00113$:
                                   1936 ;./exsoccer.c:407: if (g_Ball.Y < 300) ShowFieldZone(FIELD_CENTRAL_ZONE);
    000006C8 2Ar61r11         [16] 1937 	ld	hl, (#_g_Ball + 0)
    000006CB 11 2C 01         [10] 1938 	ld	de, #0x012c
    000006CE BF               [ 4] 1939 	cp	a, a
    000006CF ED 52            [15] 1940 	sbc	hl, de
    000006D1 30 05            [12] 1941 	jr	NC, 00117$
    000006D3 3E 01            [ 7] 1942 	ld	a, #0x01
    000006D5 CDr00r00         [17] 1943 	call	_ShowFieldZone
    000006D8                       1944 00117$:
                                   1945 ;./exsoccer.c:409: g_Ball.PreviousY=g_Ball.Y;
    000006D8 ED 4Br61r11      [20] 1946 	ld	bc, (#_g_Ball + 0)
    000006DC ED 43r68r11      [20] 1947 	ld	((_g_Ball + 7)), bc
                                   1948 ;./exsoccer.c:410: }
    000006E0 C9               [10] 1949 	ret
                                   1950 ;./exsoccer.c:411: void TickUpdateTime(){
                                   1951 ;	---------------------------------
                                   1952 ; Function TickUpdateTime
                                   1953 ; ---------------------------------
    000006E1                       1954 _TickUpdateTime::
                                   1955 ;./exsoccer.c:412: if(g_MatchStatus==MATCH_IN_ACTION){
    000006E1 3Ar3Fr00         [13] 1956 	ld	a, (_g_MatchStatus+0)
    000006E4 D6 0C            [ 7] 1957 	sub	a, #0x0c
    000006E6 20 19            [12] 1958 	jr	NZ, 00106$
                                   1959 ;./exsoccer.c:414: if(g_FrameCounter==58){
    000006E8 2Ar01r10         [16] 1960 	ld	hl, (_g_FrameCounter)
    000006EB 7D               [ 4] 1961 	ld	a, l
    000006EC D6 3A            [ 7] 1962 	sub	a, #0x3a
    000006EE B4               [ 4] 1963 	or	a, h
    000006EF 20 10            [12] 1964 	jr	NZ, 00106$
                                   1965 ;./exsoccer.c:415: g_SecondsToEndOfMatch--;
    000006F1 21r81r11         [10] 1966 	ld	hl, #_g_SecondsToEndOfMatch
    000006F4 35               [11] 1967 	dec	(hl)
                                   1968 ;./exsoccer.c:416: ShowHeaderInfo();
    000006F5 CDr00r00         [17] 1969 	call	_ShowHeaderInfo
                                   1970 ;./exsoccer.c:417: if(g_SecondsToEndOfMatch==0){
    000006F8 3Ar81r11         [13] 1971 	ld	a, (_g_SecondsToEndOfMatch+0)
    000006FB B7               [ 4] 1972 	or	a, a
    000006FC 20 03            [12] 1973 	jr	NZ, 00106$
                                   1974 ;./exsoccer.c:418: TimeUp();
    000006FE CDr00r00         [17] 1975 	call	_TimeUp
    00000701                       1976 00106$:
                                   1977 ;./exsoccer.c:422: if(g_Timer!=NO_VALUE){
    00000701 3Ar41r00         [13] 1978 	ld	a, (_g_Timer+0)
    00000704 3C               [ 4] 1979 	inc	a
    00000705 C8               [11] 1980 	ret	Z
                                   1981 ;./exsoccer.c:423: if(g_FrameCounter==58){
    00000706 2Ar01r10         [16] 1982 	ld	hl, (_g_FrameCounter)
    00000709 7D               [ 4] 1983 	ld	a, l
    0000070A D6 3A            [ 7] 1984 	sub	a, #0x3a
    0000070C B4               [ 4] 1985 	or	a, h
    0000070D C0               [11] 1986 	ret	NZ
                                   1987 ;./exsoccer.c:424: g_Timer++;
    0000070E 21r41r00         [10] 1988 	ld	hl, #_g_Timer
    00000711 34               [11] 1989 	inc	(hl)
                                   1990 ;./exsoccer.c:428: }
    00000712 C9               [10] 1991 	ret
                                   1992 ;./exsoccer.c:429: u16 GetOffsideLineY(u8 attackingTeamId) {
                                   1993 ;	---------------------------------
                                   1994 ; Function GetOffsideLineY
                                   1995 ; ---------------------------------
    00000713                       1996 _GetOffsideLineY::
    00000713 DD E5            [15] 1997 	push	ix
    00000715 DD 21 00 00      [14] 1998 	ld	ix,#0
    00000719 DD 39            [15] 1999 	add	ix,sp
    0000071B 21 FB FF         [10] 2000 	ld	hl, #-5
    0000071E 39               [11] 2001 	add	hl, sp
    0000071F F9               [ 6] 2002 	ld	sp, hl
    00000720 4F               [ 4] 2003 	ld	c, a
                                   2004 ;./exsoccer.c:430: u8 defendingTeamId = (attackingTeamId == TEAM_1) ? TEAM_2 : TEAM_1;
    00000721 0D               [ 4] 2005 	dec	c
    00000722 3E 01            [ 7] 2006 	ld	a, #0x01
    00000724 28 01            [12] 2007 	jr	Z, 00199$
    00000726 AF               [ 4] 2008 	xor	a, a
    00000727                       2009 00199$:
    00000727 B7               [ 4] 2010 	or	a, a
    00000728 28 06            [12] 2011 	jr	Z, 00124$
    0000072A 01 02 00         [10] 2012 	ld	bc, #0x0002
    0000072D C3r33r07         [10] 2013 	jp	00125$
    00000730                       2014 00124$:
    00000730 01 01 00         [10] 2015 	ld	bc, #0x0001
    00000733                       2016 00125$:
    00000733 DD 71 FB         [19] 2017 	ld	-5 (ix), c
                                   2018 ;./exsoccer.c:431: bool findMin = (attackingTeamId == TEAM_1);
                                   2019 ;./exsoccer.c:434: u16 val1 = findMin ? 0xFFFF : 0;
    00000736 5F               [ 4] 2020 	ld	e, a
    00000737 B7               [ 4] 2021 	or	a, a
    00000738 28 06            [12] 2022 	jr	Z, 00126$
    0000073A 01 FF FF         [10] 2023 	ld	bc, #0xffff
    0000073D C3r43r07         [10] 2024 	jp	00127$
    00000740                       2025 00126$:
    00000740 01 00 00         [10] 2026 	ld	bc, #0x0000
    00000743                       2027 00127$:
                                   2028 ;./exsoccer.c:435: u16 val2 = val1;
    00000743 DD 71 FC         [19] 2029 	ld	-4 (ix), c
    00000746 DD 70 FD         [19] 2030 	ld	-3 (ix), b
                                   2031 ;./exsoccer.c:437: for(u8 i=0; i<14; i++){
    00000749 16 00            [ 7] 2032 	ld	d, #0x00
    0000074B                       2033 00121$:
    0000074B 7A               [ 4] 2034 	ld	a, d
    0000074C D6 0E            [ 7] 2035 	sub	a, #0x0e
    0000074E D2rD3r07         [10] 2036 	jp	NC, 00117$
                                   2037 ;./exsoccer.c:438: if(g_Players[i].TeamId != defendingTeamId) continue;
    00000751 D5               [11] 2038 	push	de
    00000752 5A               [ 4] 2039 	ld	e, d
    00000753 16 00            [ 7] 2040 	ld	d, #0x00
    00000755 6B               [ 4] 2041 	ld	l, e
    00000756 62               [ 4] 2042 	ld	h, d
    00000757 29               [11] 2043 	add	hl, hl
    00000758 29               [11] 2044 	add	hl, hl
    00000759 19               [11] 2045 	add	hl, de
    0000075A 29               [11] 2046 	add	hl, hl
    0000075B 29               [11] 2047 	add	hl, hl
    0000075C 19               [11] 2048 	add	hl, de
    0000075D D1               [10] 2049 	pop	de
    0000075E 7D               [ 4] 2050 	ld	a, l
    0000075F C6r08            [ 7] 2051 	add	a, #<(_g_Players)
    00000761 DD 77 FE         [19] 2052 	ld	-2 (ix), a
    00000764 7C               [ 4] 2053 	ld	a, h
    00000765 CEs10            [ 7] 2054 	adc	a, #>(_g_Players)
    00000767 DD 77 FF         [19] 2055 	ld	-1 (ix), a
    0000076A DD 6E FE         [19] 2056 	ld	l, -2 (ix)
                                   2057 ;	spillPairReg hl
                                   2058 ;	spillPairReg hl
    0000076D DD 66 FF         [19] 2059 	ld	h, -1 (ix)
                                   2060 ;	spillPairReg hl
                                   2061 ;	spillPairReg hl
    00000770 C5               [11] 2062 	push	bc
    00000771 01 09 00         [10] 2063 	ld	bc, #0x0009
    00000774 09               [11] 2064 	add	hl, bc
    00000775 C1               [10] 2065 	pop	bc
                                   2066 ;	spillPairReg hl
    00000776 DD 7E FB         [19] 2067 	ld	a,-5 (ix)
    00000779 96               [ 7] 2068 	sub	a,(hl)
    0000077A 20 53            [12] 2069 	jr	NZ, 00116$
                                   2070 ;./exsoccer.c:439: u16 y = g_Players[i].Y;
    0000077C DD 6E FE         [19] 2071 	ld	l, -2 (ix)
    0000077F DD 66 FF         [19] 2072 	ld	h, -1 (ix)
    00000782 7E               [ 7] 2073 	ld	a, (hl)
    00000783 23               [ 6] 2074 	inc	hl
    00000784 66               [ 7] 2075 	ld	h, (hl)
                                   2076 ;	spillPairReg hl
    00000785 6F               [ 4] 2077 	ld	l, a
                                   2078 ;	spillPairReg hl
                                   2079 ;	spillPairReg hl
                                   2080 ;./exsoccer.c:441: if (findMin) {
    00000786 7B               [ 4] 2081 	ld	a, e
    00000787 B7               [ 4] 2082 	or	a, a
    00000788 28 24            [12] 2083 	jr	Z, 00114$
                                   2084 ;./exsoccer.c:442: if (y < val1) { val2 = val1; val1 = y; }
    0000078A 7D               [ 4] 2085 	ld	a, l
    0000078B DD 96 FC         [19] 2086 	sub	a, -4 (ix)
    0000078E 7C               [ 4] 2087 	ld	a, h
    0000078F DD 9E FD         [19] 2088 	sbc	a, -3 (ix)
    00000792 30 0F            [12] 2089 	jr	NC, 00106$
    00000794 DD 4E FC         [19] 2090 	ld	c, -4 (ix)
    00000797 DD 46 FD         [19] 2091 	ld	b, -3 (ix)
    0000079A DD 75 FC         [19] 2092 	ld	-4 (ix), l
    0000079D DD 74 FD         [19] 2093 	ld	-3 (ix), h
    000007A0 C3rCFr07         [10] 2094 	jp	00116$
    000007A3                       2095 00106$:
                                   2096 ;./exsoccer.c:443: else if (y < val2) { val2 = y; }
    000007A3 7D               [ 4] 2097 	ld	a, l
    000007A4 91               [ 4] 2098 	sub	a, c
    000007A5 7C               [ 4] 2099 	ld	a, h
    000007A6 98               [ 4] 2100 	sbc	a, b
    000007A7 30 26            [12] 2101 	jr	NC, 00116$
    000007A9 4D               [ 4] 2102 	ld	c, l
    000007AA 44               [ 4] 2103 	ld	b, h
    000007AB C3rCFr07         [10] 2104 	jp	00116$
    000007AE                       2105 00114$:
                                   2106 ;./exsoccer.c:445: if (y > val1) { val2 = val1; val1 = y; }
    000007AE DD 7E FC         [19] 2107 	ld	a, -4 (ix)
    000007B1 95               [ 4] 2108 	sub	a, l
    000007B2 DD 7E FD         [19] 2109 	ld	a, -3 (ix)
    000007B5 9C               [ 4] 2110 	sbc	a, h
    000007B6 30 0F            [12] 2111 	jr	NC, 00111$
    000007B8 DD 4E FC         [19] 2112 	ld	c, -4 (ix)
    000007BB DD 46 FD         [19] 2113 	ld	b, -3 (ix)
    000007BE DD 75 FC         [19] 2114 	ld	-4 (ix), l
    000007C1 DD 74 FD         [19] 2115 	ld	-3 (ix), h
    000007C4 C3rCFr07         [10] 2116 	jp	00116$
    000007C7                       2117 00111$:
                                   2118 ;./exsoccer.c:446: else if (y > val2) { val2 = y; }
    000007C7 79               [ 4] 2119 	ld	a, c
    000007C8 95               [ 4] 2120 	sub	a, l
    000007C9 78               [ 4] 2121 	ld	a, b
    000007CA 9C               [ 4] 2122 	sbc	a, h
    000007CB 30 02            [12] 2123 	jr	NC, 00116$
    000007CD 4D               [ 4] 2124 	ld	c, l
    000007CE 44               [ 4] 2125 	ld	b, h
    000007CF                       2126 00116$:
                                   2127 ;./exsoccer.c:437: for(u8 i=0; i<14; i++){
    000007CF 14               [ 4] 2128 	inc	d
    000007D0 C3r4Br07         [10] 2129 	jp	00121$
    000007D3                       2130 00117$:
                                   2131 ;./exsoccer.c:450: if (findMin) return (val2 == 0xFFFF) ? FIELD_BOUND_Y_TOP : val2;
    000007D3 7B               [ 4] 2132 	ld	a, e
    000007D4 B7               [ 4] 2133 	or	a, a
    000007D5 28 0F            [12] 2134 	jr	Z, 00119$
    000007D7 59               [ 4] 2135 	ld	e, c
    000007D8 50               [ 4] 2136 	ld	d, b
    000007D9 7B               [ 4] 2137 	ld	a, e
    000007DA A2               [ 4] 2138 	and	a, d
    000007DB 3C               [ 4] 2139 	inc	a
    000007DC 20 03            [12] 2140 	jr	NZ, 00128$
    000007DE 01 32 00         [10] 2141 	ld	bc, #0x0032
    000007E1                       2142 00128$:
    000007E1 59               [ 4] 2143 	ld	e, c
    000007E2 50               [ 4] 2144 	ld	d, b
    000007E3 C3rEFr07         [10] 2145 	jp	00122$
    000007E6                       2146 00119$:
                                   2147 ;./exsoccer.c:451: return (val2 == 0) ? FIELD_BOUND_Y_BOTTOM : val2;
    000007E6 78               [ 4] 2148 	ld	a, b
    000007E7 B1               [ 4] 2149 	or	a, c
    000007E8 20 03            [12] 2150 	jr	NZ, 00130$
    000007EA 01 AE 01         [10] 2151 	ld	bc, #0x01ae
    000007ED                       2152 00130$:
    000007ED 59               [ 4] 2153 	ld	e, c
    000007EE 50               [ 4] 2154 	ld	d, b
    000007EF                       2155 00122$:
                                   2156 ;./exsoccer.c:452: }
    000007EF DD F9            [10] 2157 	ld	sp, ix
    000007F1 DD E1            [14] 2158 	pop	ix
    000007F3 C9               [10] 2159 	ret
                                   2160 ;./exsoccer.c:453: void PutBallOnPlayerFeet(u8 playerId){
                                   2161 ;	---------------------------------
                                   2162 ; Function PutBallOnPlayerFeet
                                   2163 ; ---------------------------------
    000007F4                       2164 _PutBallOnPlayerFeet::
    000007F4 DD E5            [15] 2165 	push	ix
    000007F6 DD 21 00 00      [14] 2166 	ld	ix,#0
    000007FA DD 39            [15] 2167 	add	ix,sp
    000007FC 21 C9 FF         [10] 2168 	ld	hl, #-55
    000007FF 39               [11] 2169 	add	hl, sp
    00000800 F9               [ 6] 2170 	ld	sp, hl
    00000801 4F               [ 4] 2171 	ld	c, a
                                   2172 ;./exsoccer.c:455: if (g_Ball.PossessionPlayerId != playerId) {
    00000802 21r67r11         [10] 2173 	ld	hl, #(_g_Ball + 6)
    00000805 46               [ 7] 2174 	ld	b, (hl)
                                   2175 ;./exsoccer.c:457: g_Ball.LastTouchTeamId=g_Players[playerId].TeamId;
    00000806 59               [ 4] 2176 	ld	e, c
    00000807 16 00            [ 7] 2177 	ld	d, #0x00
    00000809 6B               [ 4] 2178 	ld	l, e
    0000080A 62               [ 4] 2179 	ld	h, d
    0000080B 29               [11] 2180 	add	hl, hl
    0000080C 29               [11] 2181 	add	hl, hl
    0000080D 19               [11] 2182 	add	hl, de
    0000080E 29               [11] 2183 	add	hl, hl
    0000080F 29               [11] 2184 	add	hl, hl
    00000810 19               [11] 2185 	add	hl, de
    00000811 EB               [ 4] 2186 	ex	de, hl
                                   2187 ;./exsoccer.c:455: if (g_Ball.PossessionPlayerId != playerId) {
    00000812 79               [ 4] 2188 	ld	a, c
    00000813 90               [ 4] 2189 	sub	a, b
    00000814 28 39            [12] 2190 	jr	Z, 00104$
                                   2191 ;./exsoccer.c:456: g_Ball.PossessionPlayerId=playerId;
    00000816 21r67r11         [10] 2192 	ld	hl, #(_g_Ball + 6)
    00000819 71               [ 7] 2193 	ld	(hl), c
                                   2194 ;./exsoccer.c:457: g_Ball.LastTouchTeamId=g_Players[playerId].TeamId;
    0000081A FD 21r08r10      [14] 2195 	ld	iy, #_g_Players
    0000081E FD 19            [15] 2196 	add	iy, de
    00000820 FD 7E 09         [19] 2197 	ld	a, 9 (iy)
    00000823 32r6Fr11         [13] 2198 	ld	(#(_g_Ball + 14)),a
                                   2199 ;./exsoccer.c:458: g_Ball.PassTargetPlayerId = NO_VALUE; // Clear any pending pass
    00000826 21r71r11         [10] 2200 	ld	hl, #(_g_Ball + 16)
    00000829 36 FF            [10] 2201 	ld	(hl), #0xff
                                   2202 ;./exsoccer.c:459: g_Ball.ShotActive = 0; // Clear any pending shot
    0000082B 21r7Cr11         [10] 2203 	ld	hl, #(_g_Ball + 27)
    0000082E 36 00            [10] 2204 	ld	(hl), #0x00
                                   2205 ;./exsoccer.c:460: SetPlayerBallPossession(g_Ball.PossessionPlayerId);
    00000830 D5               [11] 2206 	push	de
    00000831 79               [ 4] 2207 	ld	a, c
    00000832 CDr8Cr1D         [17] 2208 	call	_SetPlayerBallPossession
    00000835 D1               [10] 2209 	pop	de
                                   2210 ;./exsoccer.c:463: g_ActionCooldown = 8;
    00000836 FD 21r47r00      [14] 2211 	ld	iy, #_g_ActionCooldown
    0000083A FD 36 00 08      [19] 2212 	ld	0 (iy), #0x08
                                   2213 ;./exsoccer.c:465: if (g_Ball.ComingFromRestart) {
    0000083E 01r7Er11         [10] 2214 	ld	bc, #_g_Ball + 29
    00000841 0A               [ 7] 2215 	ld	a, (bc)
    00000842 B7               [ 4] 2216 	or	a, a
    00000843 28 0A            [12] 2217 	jr	Z, 00104$
                                   2218 ;./exsoccer.c:466: g_ShootCooldown = 45; // 0.75s ban on shooting after restart
    00000845 FD 21r48r00      [14] 2219 	ld	iy, #_g_ShootCooldown
    00000849 FD 36 00 2D      [19] 2220 	ld	0 (iy), #0x2d
                                   2221 ;./exsoccer.c:467: g_Ball.ComingFromRestart = 0;
    0000084D AF               [ 4] 2222 	xor	a, a
    0000084E 02               [ 7] 2223 	ld	(bc), a
    0000084F                       2224 00104$:
                                   2225 ;./exsoccer.c:473: const u8 BallBaseDistX[] = { 0, 0, 4, 6, 4, 0, 4, 6, 4 };
    0000084F DD 36 C9 00      [19] 2226 	ld	-55 (ix), #0x00
    00000853 DD 36 CA 00      [19] 2227 	ld	-54 (ix), #0x00
    00000857 DD 36 CB 04      [19] 2228 	ld	-53 (ix), #0x04
    0000085B DD 36 CC 06      [19] 2229 	ld	-52 (ix), #0x06
    0000085F DD 36 CD 04      [19] 2230 	ld	-51 (ix), #0x04
    00000863 DD 36 CE 00      [19] 2231 	ld	-50 (ix), #0x00
    00000867 DD 36 CF 04      [19] 2232 	ld	-49 (ix), #0x04
    0000086B DD 36 D0 06      [19] 2233 	ld	-48 (ix), #0x06
    0000086F DD 36 D1 04      [19] 2234 	ld	-47 (ix), #0x04
                                   2235 ;./exsoccer.c:474: const u8 BallBaseDistY[] = { 0, 6, 4, 0, 4, 6, 4, 2, 4 };
    00000873 21 09 00         [10] 2236 	ld	hl, #9
    00000876 39               [11] 2237 	add	hl, sp
    00000877 4D               [ 4] 2238 	ld	c, l
    00000878 44               [ 4] 2239 	ld	b, h
    00000879 AF               [ 4] 2240 	xor	a, a
    0000087A 02               [ 7] 2241 	ld	(bc), a
    0000087B DD 36 D3 06      [19] 2242 	ld	-45 (ix), #0x06
    0000087F DD 36 D4 04      [19] 2243 	ld	-44 (ix), #0x04
    00000883 DD 36 D5 00      [19] 2244 	ld	-43 (ix), #0x00
    00000887 DD 36 D6 04      [19] 2245 	ld	-42 (ix), #0x04
    0000088B DD 36 D7 06      [19] 2246 	ld	-41 (ix), #0x06
    0000088F DD 36 D8 04      [19] 2247 	ld	-40 (ix), #0x04
    00000893 DD 36 D9 02      [19] 2248 	ld	-39 (ix), #0x02
    00000897 DD 36 DA 04      [19] 2249 	ld	-38 (ix), #0x04
                                   2250 ;./exsoccer.c:476: const u8 DribbleAnimOffsets[] = {5, 4, 2, 0};
    0000089B DD 36 DB 05      [19] 2251 	ld	-37 (ix), #0x05
    0000089F DD 36 DC 04      [19] 2252 	ld	-36 (ix), #0x04
    000008A3 DD 36 DD 02      [19] 2253 	ld	-35 (ix), #0x02
    000008A7 DD 36 DE 00      [19] 2254 	ld	-34 (ix), #0x00
                                   2255 ;./exsoccer.c:477: const u8 DribbleAnimOffsetsDiag[] = {3, 3, 1, 0};
    000008AB DD 36 DF 03      [19] 2256 	ld	-33 (ix), #0x03
    000008AF DD 36 E0 03      [19] 2257 	ld	-32 (ix), #0x03
    000008B3 DD 36 E1 01      [19] 2258 	ld	-31 (ix), #0x01
    000008B7 DD 36 E2 00      [19] 2259 	ld	-30 (ix), #0x00
                                   2260 ;./exsoccer.c:481: const i8 BallAlignCorrectX[] = { 0, 0, 0, 0, 2, 0, -2, 0, 0 };
    000008BB DD 36 E3 00      [19] 2261 	ld	-29 (ix), #0x00
    000008BF DD 36 E4 00      [19] 2262 	ld	-28 (ix), #0x00
    000008C3 DD 36 E5 00      [19] 2263 	ld	-27 (ix), #0x00
    000008C7 DD 36 E6 00      [19] 2264 	ld	-26 (ix), #0x00
    000008CB DD 36 E7 02      [19] 2265 	ld	-25 (ix), #0x02
    000008CF DD 36 E8 00      [19] 2266 	ld	-24 (ix), #0x00
    000008D3 DD 36 E9 FE      [19] 2267 	ld	-23 (ix), #0xfe
    000008D7 DD 36 EA 00      [19] 2268 	ld	-22 (ix), #0x00
    000008DB DD 36 EB 00      [19] 2269 	ld	-21 (ix), #0x00
                                   2270 ;./exsoccer.c:482: const i8 BallAlignCorrectY[] = { 0, 0, 0, 4, 2, 4, 2, 4, 0 };
    000008DF DD 36 EC 00      [19] 2271 	ld	-20 (ix), #0x00
    000008E3 DD 36 ED 00      [19] 2272 	ld	-19 (ix), #0x00
    000008E7 DD 36 EE 00      [19] 2273 	ld	-18 (ix), #0x00
    000008EB DD 36 EF 04      [19] 2274 	ld	-17 (ix), #0x04
    000008EF DD 36 F0 02      [19] 2275 	ld	-16 (ix), #0x02
    000008F3 DD 36 F1 04      [19] 2276 	ld	-15 (ix), #0x04
    000008F7 DD 36 F2 02      [19] 2277 	ld	-14 (ix), #0x02
    000008FB DD 36 F3 04      [19] 2278 	ld	-13 (ix), #0x04
    000008FF DD 36 F4 00      [19] 2279 	ld	-12 (ix), #0x00
                                   2280 ;./exsoccer.c:484: u8 dir = g_Players[playerId].Direction;
    00000903 21r08r10         [10] 2281 	ld	hl, #_g_Players
    00000906 19               [11] 2282 	add	hl, de
    00000907 DD 75 F5         [19] 2283 	ld	-11 (ix), l
    0000090A DD 74 F6         [19] 2284 	ld	-10 (ix), h
    0000090D 11 0A 00         [10] 2285 	ld	de, #10
    00000910 19               [11] 2286 	add	hl, de
    00000911 7E               [ 7] 2287 	ld	a, (hl)
                                   2288 ;./exsoccer.c:485: if(dir == DIRECTION_NONE) dir = g_Players[playerId].PreviousDirection; // Fallback se fermo
    00000912 DD 77 F7         [19] 2289 	ld	-9 (ix), a
    00000915 B7               [ 4] 2290 	or	a, a
    00000916 20 0E            [12] 2291 	jr	NZ, 00106$
    00000918 DD 5E F5         [19] 2292 	ld	e, -11 (ix)
    0000091B DD 56 F6         [19] 2293 	ld	d, -10 (ix)
    0000091E 21 0B 00         [10] 2294 	ld	hl, #11
    00000921 19               [11] 2295 	add	hl, de
    00000922 7E               [ 7] 2296 	ld	a, (hl)
    00000923 DD 77 F7         [19] 2297 	ld	-9 (ix), a
    00000926                       2298 00106$:
                                   2299 ;./exsoccer.c:488: u8 calcDir = dir;
    00000926 DD 7E F7         [19] 2300 	ld	a, -9 (ix)
    00000929 DD 77 F8         [19] 2301 	ld	-8 (ix), a
                                   2302 ;./exsoccer.c:490: if (g_Players[playerId].Role == PLAYER_ROLE_GOALKEEPER && (dir == DIRECTION_LEFT || dir == DIRECTION_RIGHT)) {
    0000092C DD 5E F5         [19] 2303 	ld	e, -11 (ix)
    0000092F DD 56 F6         [19] 2304 	ld	d, -10 (ix)
    00000932 21 0D 00         [10] 2305 	ld	hl, #13
    00000935 19               [11] 2306 	add	hl, de
    00000936 7E               [ 7] 2307 	ld	a, (hl)
    00000937 DD 77 F9         [19] 2308 	ld	-7 (ix), a
    0000093A B7               [ 4] 2309 	or	a, a
    0000093B 20 27            [12] 2310 	jr	NZ, 00111$
    0000093D DD 7E F7         [19] 2311 	ld	a, -9 (ix)
    00000940 D6 07            [ 7] 2312 	sub	a, #0x07
    00000942 28 07            [12] 2313 	jr	Z, 00110$
    00000944 DD 7E F7         [19] 2314 	ld	a, -9 (ix)
    00000947 D6 03            [ 7] 2315 	sub	a, #0x03
    00000949 20 19            [12] 2316 	jr	NZ, 00111$
    0000094B                       2317 00110$:
                                   2318 ;./exsoccer.c:492: if (g_Players[playerId].TeamId == TEAM_1) calcDir = DIRECTION_UP;
    0000094B DD 5E F5         [19] 2319 	ld	e, -11 (ix)
    0000094E DD 56 F6         [19] 2320 	ld	d, -10 (ix)
    00000951 21 09 00         [10] 2321 	ld	hl, #9
    00000954 19               [11] 2322 	add	hl, de
    00000955 7E               [ 7] 2323 	ld	a, (hl)
    00000956 3D               [ 4] 2324 	dec	a
    00000957 20 07            [12] 2325 	jr	NZ, 00108$
    00000959 DD 36 F8 01      [19] 2326 	ld	-8 (ix), #0x01
    0000095D C3r64r09         [10] 2327 	jp	00111$
    00000960                       2328 00108$:
                                   2329 ;./exsoccer.c:493: else calcDir = DIRECTION_DOWN;
    00000960 DD 36 F8 05      [19] 2330 	ld	-8 (ix), #0x05
    00000964                       2331 00111$:
                                   2332 ;./exsoccer.c:497: u8 animStep = g_Ball.KickMoveState;
    00000964 21r6Er11         [10] 2333 	ld	hl, #_g_Ball + 13
    00000967 5E               [ 7] 2334 	ld	e, (hl)
                                   2335 ;./exsoccer.c:498: if (animStep > 3) animStep = 3; // Default/Reset to 3 (Close) if NO_VALUE (255)
    00000968 3E 03            [ 7] 2336 	ld	a, #0x03
    0000096A 93               [ 4] 2337 	sub	a, e
    0000096B 30 02            [12] 2338 	jr	NC, 00115$
    0000096D 1E 03            [ 7] 2339 	ld	e, #0x03
    0000096F                       2340 00115$:
                                   2341 ;./exsoccer.c:500: u8 currentOffset = DribbleAnimOffsets[animStep];
    0000096F D5               [11] 2342 	push	de
    00000970 16 00            [ 7] 2343 	ld	d, #0x00
    00000972 21 14 00         [10] 2344 	ld	hl, #20
    00000975 39               [11] 2345 	add	hl, sp
    00000976 19               [11] 2346 	add	hl, de
    00000977 D1               [10] 2347 	pop	de
    00000978 7E               [ 7] 2348 	ld	a, (hl)
    00000979 DD 77 FA         [19] 2349 	ld	-6 (ix), a
                                   2350 ;./exsoccer.c:501: u8 currentOffsetDiag = DribbleAnimOffsetsDiag[animStep];
    0000097C 16 00            [ 7] 2351 	ld	d, #0x00
    0000097E 21 16 00         [10] 2352 	ld	hl, #22
    00000981 39               [11] 2353 	add	hl, sp
    00000982 19               [11] 2354 	add	hl, de
    00000983 7E               [ 7] 2355 	ld	a, (hl)
    00000984 DD 77 FB         [19] 2356 	ld	-5 (ix), a
                                   2357 ;./exsoccer.c:503: u8 distX = BallBaseDistX[calcDir] + ((calcDir==DIRECTION_UP || calcDir==DIRECTION_DOWN) ? 0 : (calcDir == DIRECTION_LEFT || calcDir == DIRECTION_RIGHT ? currentOffset : currentOffsetDiag));
    00000987 DD 5E F8         [19] 2358 	ld	e, -8 (ix)
    0000098A 16 00            [ 7] 2359 	ld	d, #0x00
    0000098C 21 00 00         [10] 2360 	ld	hl, #0
    0000098F 39               [11] 2361 	add	hl, sp
    00000990 19               [11] 2362 	add	hl, de
    00000991 5E               [ 7] 2363 	ld	e, (hl)
    00000992 DD 7E F8         [19] 2364 	ld	a, -8 (ix)
    00000995 3D               [ 4] 2365 	dec	a
    00000996 3E 01            [ 7] 2366 	ld	a, #0x01
    00000998 28 01            [12] 2367 	jr	Z, 00232$
    0000099A AF               [ 4] 2368 	xor	a, a
    0000099B                       2369 00232$:
    0000099B DD 77 FC         [19] 2370 	ld	-4 (ix), a
    0000099E DD 7E F8         [19] 2371 	ld	a, -8 (ix)
    000009A1 D6 07            [ 7] 2372 	sub	a, #0x07
    000009A3 3E 01            [ 7] 2373 	ld	a, #0x01
    000009A5 28 01            [12] 2374 	jr	Z, 00234$
    000009A7 AF               [ 4] 2375 	xor	a, a
    000009A8                       2376 00234$:
    000009A8 DD 77 FD         [19] 2377 	ld	-3 (ix), a
    000009AB DD CB FC 46      [20] 2378 	bit	0, -4 (ix)
    000009AF 20 07            [12] 2379 	jr	NZ, 00132$
    000009B1 DD 7E F8         [19] 2380 	ld	a, -8 (ix)
    000009B4 D6 05            [ 7] 2381 	sub	a, #0x05
    000009B6 20 05            [12] 2382 	jr	NZ, 00129$
    000009B8                       2383 00132$:
    000009B8 AF               [ 4] 2384 	xor	a, a
    000009B9 57               [ 4] 2385 	ld	d, a
    000009BA C3rD5r09         [10] 2386 	jp	00130$
    000009BD                       2387 00129$:
    000009BD DD CB FD 46      [20] 2388 	bit	0, -3 (ix)
    000009C1 20 07            [12] 2389 	jr	NZ, 00137$
    000009C3 DD 7E F8         [19] 2390 	ld	a, -8 (ix)
    000009C6 D6 03            [ 7] 2391 	sub	a, #0x03
    000009C8 20 06            [12] 2392 	jr	NZ, 00134$
    000009CA                       2393 00137$:
    000009CA DD 7E FA         [19] 2394 	ld	a, -6 (ix)
    000009CD C3rD3r09         [10] 2395 	jp	00135$
    000009D0                       2396 00134$:
    000009D0 DD 7E FB         [19] 2397 	ld	a, -5 (ix)
    000009D3                       2398 00135$:
    000009D3 16 00            [ 7] 2399 	ld	d, #0x00
    000009D5                       2400 00130$:
    000009D5 83               [ 4] 2401 	add	a, e
    000009D6 DD 77 FE         [19] 2402 	ld	-2 (ix), a
                                   2403 ;./exsoccer.c:504: u8 distY = BallBaseDistY[calcDir] + ((calcDir==DIRECTION_LEFT || calcDir==DIRECTION_RIGHT) ? 0 : (calcDir == DIRECTION_UP || calcDir == DIRECTION_DOWN ? currentOffset : currentOffsetDiag));
    000009D9 DD 6E F8         [19] 2404 	ld	l, -8 (ix)
    000009DC 26 00            [ 7] 2405 	ld	h, #0x00
    000009DE 09               [11] 2406 	add	hl, bc
    000009DF 7E               [ 7] 2407 	ld	a, (hl)
    000009E0 DD 77 FF         [19] 2408 	ld	-1 (ix), a
    000009E3 DD CB FD 46      [20] 2409 	bit	0, -3 (ix)
    000009E7 20 07            [12] 2410 	jr	NZ, 00142$
    000009E9 DD 7E F8         [19] 2411 	ld	a, -8 (ix)
    000009EC D6 03            [ 7] 2412 	sub	a, #0x03
    000009EE 20 0A            [12] 2413 	jr	NZ, 00139$
    000009F0                       2414 00142$:
    000009F0 AF               [ 4] 2415 	xor	a, a
    000009F1 DD 77 FC         [19] 2416 	ld	-4 (ix), a
    000009F4 DD 77 FD         [19] 2417 	ld	-3 (ix), a
    000009F7 C3r17r0A         [10] 2418 	jp	00140$
    000009FA                       2419 00139$:
    000009FA DD CB FC 46      [20] 2420 	bit	0, -4 (ix)
    000009FE 20 07            [12] 2421 	jr	NZ, 00147$
    00000A00 DD 7E F8         [19] 2422 	ld	a, -8 (ix)
    00000A03 D6 05            [ 7] 2423 	sub	a, #0x05
    00000A05 20 06            [12] 2424 	jr	NZ, 00144$
    00000A07                       2425 00147$:
    00000A07 DD 7E FA         [19] 2426 	ld	a, -6 (ix)
    00000A0A C3r10r0A         [10] 2427 	jp	00145$
    00000A0D                       2428 00144$:
    00000A0D DD 7E FB         [19] 2429 	ld	a, -5 (ix)
    00000A10                       2430 00145$:
    00000A10 DD 77 FC         [19] 2431 	ld	-4 (ix), a
    00000A13 DD 36 FD 00      [19] 2432 	ld	-3 (ix), #0x00
    00000A17                       2433 00140$:
    00000A17 DD 7E FC         [19] 2434 	ld	a, -4 (ix)
    00000A1A DD 77 FD         [19] 2435 	ld	-3 (ix), a
    00000A1D DD 7E FF         [19] 2436 	ld	a, -1 (ix)
    00000A20 DD 86 FD         [19] 2437 	add	a, -3 (ix)
    00000A23 DD 77 FF         [19] 2438 	ld	-1 (ix), a
                                   2439 ;./exsoccer.c:507: if (g_Players[playerId].Role == PLAYER_ROLE_GOALKEEPER) {
    00000A26 DD 7E F9         [19] 2440 	ld	a, -7 (ix)
    00000A29 B7               [ 4] 2441 	or	a, a
    00000A2A 20 15            [12] 2442 	jr	NZ, 00117$
                                   2443 ;./exsoccer.c:508: distY = (distY > 2) ? (distY - 2) : distY; // bring ball 2px closer vertically
    00000A2C 3E 02            [ 7] 2444 	ld	a, #0x02
    00000A2E DD 96 FF         [19] 2445 	sub	a, -1 (ix)
    00000A31 30 08            [12] 2446 	jr	NC, 00149$
    00000A33 DD 7E FF         [19] 2447 	ld	a, -1 (ix)
    00000A36 3D               [ 4] 2448 	dec	a
    00000A37 3D               [ 4] 2449 	dec	a
    00000A38 C3r3Er0A         [10] 2450 	jp	00150$
    00000A3B                       2451 00149$:
    00000A3B DD 7E FF         [19] 2452 	ld	a, -1 (ix)
    00000A3E                       2453 00150$:
    00000A3E DD 77 FF         [19] 2454 	ld	-1 (ix), a
    00000A41                       2455 00117$:
                                   2456 ;./exsoccer.c:513: switch (calcDir){
    00000A41 3E 08            [ 7] 2457 	ld	a, #0x08
    00000A43 DD 96 F8         [19] 2458 	sub	a, -8 (ix)
    00000A46 DArE7r0C         [10] 2459 	jp	C, 00126$
    00000A49 DD 4E F8         [19] 2460 	ld	c, -8 (ix)
    00000A4C 06 00            [ 7] 2461 	ld	b, #0x00
    00000A4E 21r55r0A         [10] 2462 	ld	hl, #00243$
    00000A51 09               [11] 2463 	add	hl, bc
    00000A52 09               [11] 2464 	add	hl, bc
    00000A53 09               [11] 2465 	add	hl, bc
    00000A54 E9               [ 4] 2466 	jp	(hl)
    00000A55                       2467 00243$:
    00000A55 C3rE7r0C         [10] 2468 	jp	00126$
    00000A58 C3r70r0A         [10] 2469 	jp	00118$
    00000A5B C3rF1r0B         [10] 2470 	jp	00123$
    00000A5E C3r51r0B         [10] 2471 	jp	00121$
    00000A61 C3r99r0C         [10] 2472 	jp	00125$
    00000A64 C3rBCr0A         [10] 2473 	jp	00119$
    00000A67 C3r45r0C         [10] 2474 	jp	00124$
    00000A6A C3r05r0B         [10] 2475 	jp	00120$
    00000A6D C3r9Ar0B         [10] 2476 	jp	00122$
                                   2477 ;./exsoccer.c:514: case DIRECTION_UP:
    00000A70                       2478 00118$:
                                   2479 ;./exsoccer.c:515: g_Ball.X=g_Players[playerId].X + BallAlignCorrectX[calcDir] + extraX;
    00000A70 DD 6E F5         [19] 2480 	ld	l, -11 (ix)
                                   2481 ;	spillPairReg hl
                                   2482 ;	spillPairReg hl
    00000A73 DD 66 F6         [19] 2483 	ld	h, -10 (ix)
                                   2484 ;	spillPairReg hl
                                   2485 ;	spillPairReg hl
    00000A76 23               [ 6] 2486 	inc	hl
    00000A77 23               [ 6] 2487 	inc	hl
    00000A78 4E               [ 7] 2488 	ld	c, (hl)
    00000A79 23               [ 6] 2489 	inc	hl
    00000A7A 46               [ 7] 2490 	ld	b, (hl)
    00000A7B DD 5E F8         [19] 2491 	ld	e, -8 (ix)
    00000A7E 16 00            [ 7] 2492 	ld	d, #0x00
    00000A80 21 1A 00         [10] 2493 	ld	hl, #26
    00000A83 39               [11] 2494 	add	hl, sp
    00000A84 19               [11] 2495 	add	hl, de
    00000A85 7E               [ 7] 2496 	ld	a, (hl)
    00000A86 6F               [ 4] 2497 	ld	l, a
                                   2498 ;	spillPairReg hl
                                   2499 ;	spillPairReg hl
    00000A87 07               [ 4] 2500 	rlca
    00000A88 9F               [ 4] 2501 	sbc	a, a
    00000A89 67               [ 4] 2502 	ld	h, a
                                   2503 ;	spillPairReg hl
                                   2504 ;	spillPairReg hl
    00000A8A 09               [11] 2505 	add	hl, bc
    00000A8B EB               [ 4] 2506 	ex	de, hl
    00000A8C ED 53r63r11      [20] 2507 	ld	((_g_Ball + 2)), de
                                   2508 ;./exsoccer.c:516: g_Ball.Y=g_Players[playerId].Y - distY + BallAlignCorrectY[calcDir];
    00000A90 DD 6E F5         [19] 2509 	ld	l, -11 (ix)
    00000A93 DD 66 F6         [19] 2510 	ld	h, -10 (ix)
    00000A96 4E               [ 7] 2511 	ld	c, (hl)
    00000A97 23               [ 6] 2512 	inc	hl
    00000A98 46               [ 7] 2513 	ld	b, (hl)
    00000A99 DD 5E FF         [19] 2514 	ld	e, -1 (ix)
    00000A9C 16 00            [ 7] 2515 	ld	d, #0x00
    00000A9E 79               [ 4] 2516 	ld	a, c
    00000A9F 93               [ 4] 2517 	sub	a, e
    00000AA0 4F               [ 4] 2518 	ld	c, a
    00000AA1 78               [ 4] 2519 	ld	a, b
    00000AA2 9A               [ 4] 2520 	sbc	a, d
    00000AA3 47               [ 4] 2521 	ld	b, a
    00000AA4 DD 5E F8         [19] 2522 	ld	e, -8 (ix)
    00000AA7 16 00            [ 7] 2523 	ld	d, #0x00
    00000AA9 21 23 00         [10] 2524 	ld	hl, #35
    00000AAC 39               [11] 2525 	add	hl, sp
    00000AAD 19               [11] 2526 	add	hl, de
    00000AAE 7E               [ 7] 2527 	ld	a, (hl)
    00000AAF 6F               [ 4] 2528 	ld	l, a
                                   2529 ;	spillPairReg hl
                                   2530 ;	spillPairReg hl
    00000AB0 07               [ 4] 2531 	rlca
    00000AB1 9F               [ 4] 2532 	sbc	a, a
    00000AB2 67               [ 4] 2533 	ld	h, a
                                   2534 ;	spillPairReg hl
                                   2535 ;	spillPairReg hl
    00000AB3 09               [11] 2536 	add	hl, bc
    00000AB4 EB               [ 4] 2537 	ex	de, hl
    00000AB5 ED 53r61r11      [20] 2538 	ld	(_g_Ball), de
                                   2539 ;./exsoccer.c:517: break;
    00000AB9 C3rE7r0C         [10] 2540 	jp	00126$
                                   2541 ;./exsoccer.c:518: case DIRECTION_DOWN:
    00000ABC                       2542 00119$:
                                   2543 ;./exsoccer.c:519: g_Ball.X=g_Players[playerId].X + BallAlignCorrectX[calcDir];
    00000ABC DD 6E F5         [19] 2544 	ld	l, -11 (ix)
                                   2545 ;	spillPairReg hl
                                   2546 ;	spillPairReg hl
    00000ABF DD 66 F6         [19] 2547 	ld	h, -10 (ix)
                                   2548 ;	spillPairReg hl
                                   2549 ;	spillPairReg hl
    00000AC2 23               [ 6] 2550 	inc	hl
    00000AC3 23               [ 6] 2551 	inc	hl
    00000AC4 4E               [ 7] 2552 	ld	c, (hl)
    00000AC5 23               [ 6] 2553 	inc	hl
    00000AC6 46               [ 7] 2554 	ld	b, (hl)
    00000AC7 DD 5E F8         [19] 2555 	ld	e, -8 (ix)
    00000ACA 16 00            [ 7] 2556 	ld	d, #0x00
    00000ACC 21 1A 00         [10] 2557 	ld	hl, #26
    00000ACF 39               [11] 2558 	add	hl, sp
    00000AD0 19               [11] 2559 	add	hl, de
    00000AD1 7E               [ 7] 2560 	ld	a, (hl)
    00000AD2 6F               [ 4] 2561 	ld	l, a
                                   2562 ;	spillPairReg hl
                                   2563 ;	spillPairReg hl
    00000AD3 07               [ 4] 2564 	rlca
    00000AD4 9F               [ 4] 2565 	sbc	a, a
    00000AD5 67               [ 4] 2566 	ld	h, a
                                   2567 ;	spillPairReg hl
                                   2568 ;	spillPairReg hl
    00000AD6 09               [11] 2569 	add	hl, bc
    00000AD7 EB               [ 4] 2570 	ex	de, hl
    00000AD8 ED 53r63r11      [20] 2571 	ld	((_g_Ball + 2)), de
                                   2572 ;./exsoccer.c:520: g_Ball.Y=g_Players[playerId].Y + distY + BallAlignCorrectY[calcDir];
    00000ADC DD 6E F5         [19] 2573 	ld	l, -11 (ix)
    00000ADF DD 66 F6         [19] 2574 	ld	h, -10 (ix)
    00000AE2 4E               [ 7] 2575 	ld	c, (hl)
    00000AE3 23               [ 6] 2576 	inc	hl
    00000AE4 46               [ 7] 2577 	ld	b, (hl)
    00000AE5 DD 6E FF         [19] 2578 	ld	l, -1 (ix)
                                   2579 ;	spillPairReg hl
                                   2580 ;	spillPairReg hl
    00000AE8 26 00            [ 7] 2581 	ld	h, #0x00
                                   2582 ;	spillPairReg hl
                                   2583 ;	spillPairReg hl
    00000AEA 09               [11] 2584 	add	hl, bc
    00000AEB 4D               [ 4] 2585 	ld	c, l
    00000AEC 44               [ 4] 2586 	ld	b, h
    00000AED DD 5E F8         [19] 2587 	ld	e, -8 (ix)
    00000AF0 16 00            [ 7] 2588 	ld	d, #0x00
    00000AF2 21 23 00         [10] 2589 	ld	hl, #35
    00000AF5 39               [11] 2590 	add	hl, sp
    00000AF6 19               [11] 2591 	add	hl, de
    00000AF7 7E               [ 7] 2592 	ld	a, (hl)
    00000AF8 6F               [ 4] 2593 	ld	l, a
                                   2594 ;	spillPairReg hl
                                   2595 ;	spillPairReg hl
    00000AF9 07               [ 4] 2596 	rlca
    00000AFA 9F               [ 4] 2597 	sbc	a, a
    00000AFB 67               [ 4] 2598 	ld	h, a
                                   2599 ;	spillPairReg hl
                                   2600 ;	spillPairReg hl
    00000AFC 09               [11] 2601 	add	hl, bc
    00000AFD EB               [ 4] 2602 	ex	de, hl
    00000AFE ED 53r61r11      [20] 2603 	ld	(_g_Ball), de
                                   2604 ;./exsoccer.c:521: break;
    00000B02 C3rE7r0C         [10] 2605 	jp	00126$
                                   2606 ;./exsoccer.c:522: case DIRECTION_LEFT:
    00000B05                       2607 00120$:
                                   2608 ;./exsoccer.c:523: g_Ball.X=g_Players[playerId].X - distX + BallAlignCorrectX[calcDir];
    00000B05 DD 6E F5         [19] 2609 	ld	l, -11 (ix)
                                   2610 ;	spillPairReg hl
                                   2611 ;	spillPairReg hl
    00000B08 DD 66 F6         [19] 2612 	ld	h, -10 (ix)
                                   2613 ;	spillPairReg hl
                                   2614 ;	spillPairReg hl
    00000B0B 23               [ 6] 2615 	inc	hl
    00000B0C 23               [ 6] 2616 	inc	hl
    00000B0D 4E               [ 7] 2617 	ld	c, (hl)
    00000B0E 23               [ 6] 2618 	inc	hl
    00000B0F 46               [ 7] 2619 	ld	b, (hl)
    00000B10 DD 5E FE         [19] 2620 	ld	e, -2 (ix)
    00000B13 16 00            [ 7] 2621 	ld	d, #0x00
    00000B15 79               [ 4] 2622 	ld	a, c
    00000B16 93               [ 4] 2623 	sub	a, e
    00000B17 4F               [ 4] 2624 	ld	c, a
    00000B18 78               [ 4] 2625 	ld	a, b
    00000B19 9A               [ 4] 2626 	sbc	a, d
    00000B1A 47               [ 4] 2627 	ld	b, a
    00000B1B DD 5E F8         [19] 2628 	ld	e, -8 (ix)
    00000B1E 16 00            [ 7] 2629 	ld	d, #0x00
    00000B20 21 1A 00         [10] 2630 	ld	hl, #26
    00000B23 39               [11] 2631 	add	hl, sp
    00000B24 19               [11] 2632 	add	hl, de
    00000B25 7E               [ 7] 2633 	ld	a, (hl)
    00000B26 6F               [ 4] 2634 	ld	l, a
                                   2635 ;	spillPairReg hl
                                   2636 ;	spillPairReg hl
    00000B27 07               [ 4] 2637 	rlca
    00000B28 9F               [ 4] 2638 	sbc	a, a
    00000B29 67               [ 4] 2639 	ld	h, a
                                   2640 ;	spillPairReg hl
                                   2641 ;	spillPairReg hl
    00000B2A 09               [11] 2642 	add	hl, bc
    00000B2B EB               [ 4] 2643 	ex	de, hl
    00000B2C ED 53r63r11      [20] 2644 	ld	((_g_Ball + 2)), de
                                   2645 ;./exsoccer.c:524: g_Ball.Y=g_Players[playerId].Y + BallAlignCorrectY[calcDir];
    00000B30 DD 6E F5         [19] 2646 	ld	l, -11 (ix)
    00000B33 DD 66 F6         [19] 2647 	ld	h, -10 (ix)
    00000B36 4E               [ 7] 2648 	ld	c, (hl)
    00000B37 23               [ 6] 2649 	inc	hl
    00000B38 46               [ 7] 2650 	ld	b, (hl)
    00000B39 DD 5E F8         [19] 2651 	ld	e, -8 (ix)
    00000B3C 16 00            [ 7] 2652 	ld	d, #0x00
    00000B3E 21 23 00         [10] 2653 	ld	hl, #35
    00000B41 39               [11] 2654 	add	hl, sp
    00000B42 19               [11] 2655 	add	hl, de
    00000B43 7E               [ 7] 2656 	ld	a, (hl)
    00000B44 6F               [ 4] 2657 	ld	l, a
                                   2658 ;	spillPairReg hl
                                   2659 ;	spillPairReg hl
    00000B45 07               [ 4] 2660 	rlca
    00000B46 9F               [ 4] 2661 	sbc	a, a
    00000B47 67               [ 4] 2662 	ld	h, a
                                   2663 ;	spillPairReg hl
                                   2664 ;	spillPairReg hl
    00000B48 09               [11] 2665 	add	hl, bc
    00000B49 EB               [ 4] 2666 	ex	de, hl
    00000B4A ED 53r61r11      [20] 2667 	ld	(_g_Ball), de
                                   2668 ;./exsoccer.c:525: break;
    00000B4E C3rE7r0C         [10] 2669 	jp	00126$
                                   2670 ;./exsoccer.c:526: case DIRECTION_RIGHT:
    00000B51                       2671 00121$:
                                   2672 ;./exsoccer.c:527: g_Ball.X=g_Players[playerId].X + distX + BallAlignCorrectX[calcDir];
    00000B51 DD 6E F5         [19] 2673 	ld	l, -11 (ix)
                                   2674 ;	spillPairReg hl
                                   2675 ;	spillPairReg hl
    00000B54 DD 66 F6         [19] 2676 	ld	h, -10 (ix)
                                   2677 ;	spillPairReg hl
                                   2678 ;	spillPairReg hl
    00000B57 23               [ 6] 2679 	inc	hl
    00000B58 23               [ 6] 2680 	inc	hl
    00000B59 4E               [ 7] 2681 	ld	c, (hl)
    00000B5A 23               [ 6] 2682 	inc	hl
    00000B5B 46               [ 7] 2683 	ld	b, (hl)
    00000B5C DD 6E FE         [19] 2684 	ld	l, -2 (ix)
                                   2685 ;	spillPairReg hl
                                   2686 ;	spillPairReg hl
    00000B5F 26 00            [ 7] 2687 	ld	h, #0x00
                                   2688 ;	spillPairReg hl
                                   2689 ;	spillPairReg hl
    00000B61 09               [11] 2690 	add	hl, bc
    00000B62 4D               [ 4] 2691 	ld	c, l
    00000B63 44               [ 4] 2692 	ld	b, h
    00000B64 DD 5E F8         [19] 2693 	ld	e, -8 (ix)
    00000B67 16 00            [ 7] 2694 	ld	d, #0x00
    00000B69 21 1A 00         [10] 2695 	ld	hl, #26
    00000B6C 39               [11] 2696 	add	hl, sp
    00000B6D 19               [11] 2697 	add	hl, de
    00000B6E 7E               [ 7] 2698 	ld	a, (hl)
    00000B6F 6F               [ 4] 2699 	ld	l, a
                                   2700 ;	spillPairReg hl
                                   2701 ;	spillPairReg hl
    00000B70 07               [ 4] 2702 	rlca
    00000B71 9F               [ 4] 2703 	sbc	a, a
    00000B72 67               [ 4] 2704 	ld	h, a
                                   2705 ;	spillPairReg hl
                                   2706 ;	spillPairReg hl
    00000B73 09               [11] 2707 	add	hl, bc
    00000B74 EB               [ 4] 2708 	ex	de, hl
    00000B75 ED 53r63r11      [20] 2709 	ld	((_g_Ball + 2)), de
                                   2710 ;./exsoccer.c:528: g_Ball.Y=g_Players[playerId].Y + BallAlignCorrectY[calcDir];
    00000B79 DD 6E F5         [19] 2711 	ld	l, -11 (ix)
    00000B7C DD 66 F6         [19] 2712 	ld	h, -10 (ix)
    00000B7F 4E               [ 7] 2713 	ld	c, (hl)
    00000B80 23               [ 6] 2714 	inc	hl
    00000B81 46               [ 7] 2715 	ld	b, (hl)
    00000B82 DD 5E F8         [19] 2716 	ld	e, -8 (ix)
    00000B85 16 00            [ 7] 2717 	ld	d, #0x00
    00000B87 21 23 00         [10] 2718 	ld	hl, #35
    00000B8A 39               [11] 2719 	add	hl, sp
    00000B8B 19               [11] 2720 	add	hl, de
    00000B8C 7E               [ 7] 2721 	ld	a, (hl)
    00000B8D 6F               [ 4] 2722 	ld	l, a
                                   2723 ;	spillPairReg hl
                                   2724 ;	spillPairReg hl
    00000B8E 07               [ 4] 2725 	rlca
    00000B8F 9F               [ 4] 2726 	sbc	a, a
    00000B90 67               [ 4] 2727 	ld	h, a
                                   2728 ;	spillPairReg hl
                                   2729 ;	spillPairReg hl
    00000B91 09               [11] 2730 	add	hl, bc
    00000B92 EB               [ 4] 2731 	ex	de, hl
    00000B93 ED 53r61r11      [20] 2732 	ld	(_g_Ball), de
                                   2733 ;./exsoccer.c:529: break;
    00000B97 C3rE7r0C         [10] 2734 	jp	00126$
                                   2735 ;./exsoccer.c:530: case DIRECTION_UP_LEFT:
    00000B9A                       2736 00122$:
                                   2737 ;./exsoccer.c:531: g_Ball.X=g_Players[playerId].X - distX + BallAlignCorrectX[calcDir];
    00000B9A DD 6E F5         [19] 2738 	ld	l, -11 (ix)
                                   2739 ;	spillPairReg hl
                                   2740 ;	spillPairReg hl
    00000B9D DD 66 F6         [19] 2741 	ld	h, -10 (ix)
                                   2742 ;	spillPairReg hl
                                   2743 ;	spillPairReg hl
    00000BA0 23               [ 6] 2744 	inc	hl
    00000BA1 23               [ 6] 2745 	inc	hl
    00000BA2 4E               [ 7] 2746 	ld	c, (hl)
    00000BA3 23               [ 6] 2747 	inc	hl
    00000BA4 46               [ 7] 2748 	ld	b, (hl)
    00000BA5 DD 5E FE         [19] 2749 	ld	e, -2 (ix)
    00000BA8 16 00            [ 7] 2750 	ld	d, #0x00
    00000BAA 79               [ 4] 2751 	ld	a, c
    00000BAB 93               [ 4] 2752 	sub	a, e
    00000BAC 4F               [ 4] 2753 	ld	c, a
    00000BAD 78               [ 4] 2754 	ld	a, b
    00000BAE 9A               [ 4] 2755 	sbc	a, d
    00000BAF 47               [ 4] 2756 	ld	b, a
    00000BB0 DD 5E F8         [19] 2757 	ld	e, -8 (ix)
    00000BB3 16 00            [ 7] 2758 	ld	d, #0x00
    00000BB5 21 1A 00         [10] 2759 	ld	hl, #26
    00000BB8 39               [11] 2760 	add	hl, sp
    00000BB9 19               [11] 2761 	add	hl, de
    00000BBA 7E               [ 7] 2762 	ld	a, (hl)
    00000BBB 6F               [ 4] 2763 	ld	l, a
                                   2764 ;	spillPairReg hl
                                   2765 ;	spillPairReg hl
    00000BBC 07               [ 4] 2766 	rlca
    00000BBD 9F               [ 4] 2767 	sbc	a, a
    00000BBE 67               [ 4] 2768 	ld	h, a
                                   2769 ;	spillPairReg hl
                                   2770 ;	spillPairReg hl
    00000BBF 09               [11] 2771 	add	hl, bc
    00000BC0 EB               [ 4] 2772 	ex	de, hl
    00000BC1 ED 53r63r11      [20] 2773 	ld	((_g_Ball + 2)), de
                                   2774 ;./exsoccer.c:532: g_Ball.Y=g_Players[playerId].Y - distY + BallAlignCorrectY[calcDir];
    00000BC5 DD 6E F5         [19] 2775 	ld	l, -11 (ix)
    00000BC8 DD 66 F6         [19] 2776 	ld	h, -10 (ix)
    00000BCB 4E               [ 7] 2777 	ld	c, (hl)
    00000BCC 23               [ 6] 2778 	inc	hl
    00000BCD 46               [ 7] 2779 	ld	b, (hl)
    00000BCE DD 5E FF         [19] 2780 	ld	e, -1 (ix)
    00000BD1 16 00            [ 7] 2781 	ld	d, #0x00
    00000BD3 79               [ 4] 2782 	ld	a, c
    00000BD4 93               [ 4] 2783 	sub	a, e
    00000BD5 4F               [ 4] 2784 	ld	c, a
    00000BD6 78               [ 4] 2785 	ld	a, b
    00000BD7 9A               [ 4] 2786 	sbc	a, d
    00000BD8 47               [ 4] 2787 	ld	b, a
    00000BD9 DD 5E F8         [19] 2788 	ld	e, -8 (ix)
    00000BDC 16 00            [ 7] 2789 	ld	d, #0x00
    00000BDE 21 23 00         [10] 2790 	ld	hl, #35
    00000BE1 39               [11] 2791 	add	hl, sp
    00000BE2 19               [11] 2792 	add	hl, de
    00000BE3 7E               [ 7] 2793 	ld	a, (hl)
    00000BE4 6F               [ 4] 2794 	ld	l, a
                                   2795 ;	spillPairReg hl
                                   2796 ;	spillPairReg hl
    00000BE5 07               [ 4] 2797 	rlca
    00000BE6 9F               [ 4] 2798 	sbc	a, a
    00000BE7 67               [ 4] 2799 	ld	h, a
                                   2800 ;	spillPairReg hl
                                   2801 ;	spillPairReg hl
    00000BE8 09               [11] 2802 	add	hl, bc
    00000BE9 EB               [ 4] 2803 	ex	de, hl
    00000BEA ED 53r61r11      [20] 2804 	ld	(_g_Ball), de
                                   2805 ;./exsoccer.c:533: break;
    00000BEE C3rE7r0C         [10] 2806 	jp	00126$
                                   2807 ;./exsoccer.c:534: case DIRECTION_UP_RIGHT:
    00000BF1                       2808 00123$:
                                   2809 ;./exsoccer.c:535: g_Ball.X=g_Players[playerId].X + distX + BallAlignCorrectX[calcDir];
    00000BF1 DD 6E F5         [19] 2810 	ld	l, -11 (ix)
                                   2811 ;	spillPairReg hl
                                   2812 ;	spillPairReg hl
    00000BF4 DD 66 F6         [19] 2813 	ld	h, -10 (ix)
                                   2814 ;	spillPairReg hl
                                   2815 ;	spillPairReg hl
    00000BF7 23               [ 6] 2816 	inc	hl
    00000BF8 23               [ 6] 2817 	inc	hl
    00000BF9 4E               [ 7] 2818 	ld	c, (hl)
    00000BFA 23               [ 6] 2819 	inc	hl
    00000BFB 46               [ 7] 2820 	ld	b, (hl)
    00000BFC DD 6E FE         [19] 2821 	ld	l, -2 (ix)
                                   2822 ;	spillPairReg hl
                                   2823 ;	spillPairReg hl
    00000BFF 26 00            [ 7] 2824 	ld	h, #0x00
                                   2825 ;	spillPairReg hl
                                   2826 ;	spillPairReg hl
    00000C01 09               [11] 2827 	add	hl, bc
    00000C02 4D               [ 4] 2828 	ld	c, l
    00000C03 44               [ 4] 2829 	ld	b, h
    00000C04 DD 5E F8         [19] 2830 	ld	e, -8 (ix)
    00000C07 16 00            [ 7] 2831 	ld	d, #0x00
    00000C09 21 1A 00         [10] 2832 	ld	hl, #26
    00000C0C 39               [11] 2833 	add	hl, sp
    00000C0D 19               [11] 2834 	add	hl, de
    00000C0E 7E               [ 7] 2835 	ld	a, (hl)
    00000C0F 6F               [ 4] 2836 	ld	l, a
                                   2837 ;	spillPairReg hl
                                   2838 ;	spillPairReg hl
    00000C10 07               [ 4] 2839 	rlca
    00000C11 9F               [ 4] 2840 	sbc	a, a
    00000C12 67               [ 4] 2841 	ld	h, a
                                   2842 ;	spillPairReg hl
                                   2843 ;	spillPairReg hl
    00000C13 09               [11] 2844 	add	hl, bc
    00000C14 EB               [ 4] 2845 	ex	de, hl
    00000C15 ED 53r63r11      [20] 2846 	ld	((_g_Ball + 2)), de
                                   2847 ;./exsoccer.c:536: g_Ball.Y=g_Players[playerId].Y - distY + BallAlignCorrectY[calcDir];
    00000C19 DD 6E F5         [19] 2848 	ld	l, -11 (ix)
    00000C1C DD 66 F6         [19] 2849 	ld	h, -10 (ix)
    00000C1F 4E               [ 7] 2850 	ld	c, (hl)
    00000C20 23               [ 6] 2851 	inc	hl
    00000C21 46               [ 7] 2852 	ld	b, (hl)
    00000C22 DD 5E FF         [19] 2853 	ld	e, -1 (ix)
    00000C25 16 00            [ 7] 2854 	ld	d, #0x00
    00000C27 79               [ 4] 2855 	ld	a, c
    00000C28 93               [ 4] 2856 	sub	a, e
    00000C29 4F               [ 4] 2857 	ld	c, a
    00000C2A 78               [ 4] 2858 	ld	a, b
    00000C2B 9A               [ 4] 2859 	sbc	a, d
    00000C2C 47               [ 4] 2860 	ld	b, a
    00000C2D DD 5E F8         [19] 2861 	ld	e, -8 (ix)
    00000C30 16 00            [ 7] 2862 	ld	d, #0x00
    00000C32 21 23 00         [10] 2863 	ld	hl, #35
    00000C35 39               [11] 2864 	add	hl, sp
    00000C36 19               [11] 2865 	add	hl, de
    00000C37 7E               [ 7] 2866 	ld	a, (hl)
    00000C38 6F               [ 4] 2867 	ld	l, a
                                   2868 ;	spillPairReg hl
                                   2869 ;	spillPairReg hl
    00000C39 07               [ 4] 2870 	rlca
    00000C3A 9F               [ 4] 2871 	sbc	a, a
    00000C3B 67               [ 4] 2872 	ld	h, a
                                   2873 ;	spillPairReg hl
                                   2874 ;	spillPairReg hl
    00000C3C 09               [11] 2875 	add	hl, bc
    00000C3D EB               [ 4] 2876 	ex	de, hl
    00000C3E ED 53r61r11      [20] 2877 	ld	(_g_Ball), de
                                   2878 ;./exsoccer.c:537: break;
    00000C42 C3rE7r0C         [10] 2879 	jp	00126$
                                   2880 ;./exsoccer.c:538: case DIRECTION_DOWN_LEFT:
    00000C45                       2881 00124$:
                                   2882 ;./exsoccer.c:539: g_Ball.X=g_Players[playerId].X - distX + BallAlignCorrectX[calcDir];
    00000C45 DD 6E F5         [19] 2883 	ld	l, -11 (ix)
                                   2884 ;	spillPairReg hl
                                   2885 ;	spillPairReg hl
    00000C48 DD 66 F6         [19] 2886 	ld	h, -10 (ix)
                                   2887 ;	spillPairReg hl
                                   2888 ;	spillPairReg hl
    00000C4B 23               [ 6] 2889 	inc	hl
    00000C4C 23               [ 6] 2890 	inc	hl
    00000C4D 4E               [ 7] 2891 	ld	c, (hl)
    00000C4E 23               [ 6] 2892 	inc	hl
    00000C4F 46               [ 7] 2893 	ld	b, (hl)
    00000C50 DD 5E FE         [19] 2894 	ld	e, -2 (ix)
    00000C53 16 00            [ 7] 2895 	ld	d, #0x00
    00000C55 79               [ 4] 2896 	ld	a, c
    00000C56 93               [ 4] 2897 	sub	a, e
    00000C57 4F               [ 4] 2898 	ld	c, a
    00000C58 78               [ 4] 2899 	ld	a, b
    00000C59 9A               [ 4] 2900 	sbc	a, d
    00000C5A 47               [ 4] 2901 	ld	b, a
    00000C5B DD 5E F8         [19] 2902 	ld	e, -8 (ix)
    00000C5E 16 00            [ 7] 2903 	ld	d, #0x00
    00000C60 21 1A 00         [10] 2904 	ld	hl, #26
    00000C63 39               [11] 2905 	add	hl, sp
    00000C64 19               [11] 2906 	add	hl, de
    00000C65 7E               [ 7] 2907 	ld	a, (hl)
    00000C66 6F               [ 4] 2908 	ld	l, a
                                   2909 ;	spillPairReg hl
                                   2910 ;	spillPairReg hl
    00000C67 07               [ 4] 2911 	rlca
    00000C68 9F               [ 4] 2912 	sbc	a, a
    00000C69 67               [ 4] 2913 	ld	h, a
                                   2914 ;	spillPairReg hl
                                   2915 ;	spillPairReg hl
    00000C6A 09               [11] 2916 	add	hl, bc
    00000C6B EB               [ 4] 2917 	ex	de, hl
    00000C6C ED 53r63r11      [20] 2918 	ld	((_g_Ball + 2)), de
                                   2919 ;./exsoccer.c:540: g_Ball.Y=g_Players[playerId].Y + distY + BallAlignCorrectY[calcDir];
    00000C70 DD 6E F5         [19] 2920 	ld	l, -11 (ix)
    00000C73 DD 66 F6         [19] 2921 	ld	h, -10 (ix)
    00000C76 4E               [ 7] 2922 	ld	c, (hl)
    00000C77 23               [ 6] 2923 	inc	hl
    00000C78 46               [ 7] 2924 	ld	b, (hl)
    00000C79 DD 6E FF         [19] 2925 	ld	l, -1 (ix)
                                   2926 ;	spillPairReg hl
                                   2927 ;	spillPairReg hl
    00000C7C 26 00            [ 7] 2928 	ld	h, #0x00
                                   2929 ;	spillPairReg hl
                                   2930 ;	spillPairReg hl
    00000C7E 09               [11] 2931 	add	hl, bc
    00000C7F 4D               [ 4] 2932 	ld	c, l
    00000C80 44               [ 4] 2933 	ld	b, h
    00000C81 DD 5E F8         [19] 2934 	ld	e, -8 (ix)
    00000C84 16 00            [ 7] 2935 	ld	d, #0x00
    00000C86 21 23 00         [10] 2936 	ld	hl, #35
    00000C89 39               [11] 2937 	add	hl, sp
    00000C8A 19               [11] 2938 	add	hl, de
    00000C8B 7E               [ 7] 2939 	ld	a, (hl)
    00000C8C 6F               [ 4] 2940 	ld	l, a
                                   2941 ;	spillPairReg hl
                                   2942 ;	spillPairReg hl
    00000C8D 07               [ 4] 2943 	rlca
    00000C8E 9F               [ 4] 2944 	sbc	a, a
    00000C8F 67               [ 4] 2945 	ld	h, a
                                   2946 ;	spillPairReg hl
                                   2947 ;	spillPairReg hl
    00000C90 09               [11] 2948 	add	hl, bc
    00000C91 EB               [ 4] 2949 	ex	de, hl
    00000C92 ED 53r61r11      [20] 2950 	ld	(_g_Ball), de
                                   2951 ;./exsoccer.c:541: break;
    00000C96 C3rE7r0C         [10] 2952 	jp	00126$
                                   2953 ;./exsoccer.c:542: case DIRECTION_DOWN_RIGHT:
    00000C99                       2954 00125$:
                                   2955 ;./exsoccer.c:543: g_Ball.X=g_Players[playerId].X + distX + BallAlignCorrectX[calcDir];
    00000C99 DD 6E F5         [19] 2956 	ld	l, -11 (ix)
                                   2957 ;	spillPairReg hl
                                   2958 ;	spillPairReg hl
    00000C9C DD 66 F6         [19] 2959 	ld	h, -10 (ix)
                                   2960 ;	spillPairReg hl
                                   2961 ;	spillPairReg hl
    00000C9F 23               [ 6] 2962 	inc	hl
    00000CA0 23               [ 6] 2963 	inc	hl
    00000CA1 4E               [ 7] 2964 	ld	c, (hl)
    00000CA2 23               [ 6] 2965 	inc	hl
    00000CA3 46               [ 7] 2966 	ld	b, (hl)
    00000CA4 DD 6E FE         [19] 2967 	ld	l, -2 (ix)
                                   2968 ;	spillPairReg hl
                                   2969 ;	spillPairReg hl
    00000CA7 26 00            [ 7] 2970 	ld	h, #0x00
                                   2971 ;	spillPairReg hl
                                   2972 ;	spillPairReg hl
    00000CA9 09               [11] 2973 	add	hl, bc
    00000CAA 4D               [ 4] 2974 	ld	c, l
    00000CAB 44               [ 4] 2975 	ld	b, h
    00000CAC DD 5E F8         [19] 2976 	ld	e, -8 (ix)
    00000CAF 16 00            [ 7] 2977 	ld	d, #0x00
    00000CB1 21 1A 00         [10] 2978 	ld	hl, #26
    00000CB4 39               [11] 2979 	add	hl, sp
    00000CB5 19               [11] 2980 	add	hl, de
    00000CB6 7E               [ 7] 2981 	ld	a, (hl)
    00000CB7 6F               [ 4] 2982 	ld	l, a
                                   2983 ;	spillPairReg hl
                                   2984 ;	spillPairReg hl
    00000CB8 07               [ 4] 2985 	rlca
    00000CB9 9F               [ 4] 2986 	sbc	a, a
    00000CBA 67               [ 4] 2987 	ld	h, a
                                   2988 ;	spillPairReg hl
                                   2989 ;	spillPairReg hl
    00000CBB 09               [11] 2990 	add	hl, bc
    00000CBC EB               [ 4] 2991 	ex	de, hl
    00000CBD ED 53r63r11      [20] 2992 	ld	((_g_Ball + 2)), de
                                   2993 ;./exsoccer.c:544: g_Ball.Y=g_Players[playerId].Y + distY + BallAlignCorrectY[calcDir];
    00000CC1 DD 6E F5         [19] 2994 	ld	l, -11 (ix)
    00000CC4 DD 66 F6         [19] 2995 	ld	h, -10 (ix)
    00000CC7 4E               [ 7] 2996 	ld	c, (hl)
    00000CC8 23               [ 6] 2997 	inc	hl
    00000CC9 46               [ 7] 2998 	ld	b, (hl)
    00000CCA DD 6E FF         [19] 2999 	ld	l, -1 (ix)
                                   3000 ;	spillPairReg hl
                                   3001 ;	spillPairReg hl
    00000CCD 26 00            [ 7] 3002 	ld	h, #0x00
                                   3003 ;	spillPairReg hl
                                   3004 ;	spillPairReg hl
    00000CCF 09               [11] 3005 	add	hl, bc
    00000CD0 4D               [ 4] 3006 	ld	c, l
    00000CD1 44               [ 4] 3007 	ld	b, h
    00000CD2 DD 5E F8         [19] 3008 	ld	e, -8 (ix)
    00000CD5 16 00            [ 7] 3009 	ld	d, #0x00
    00000CD7 21 23 00         [10] 3010 	ld	hl, #35
    00000CDA 39               [11] 3011 	add	hl, sp
    00000CDB 19               [11] 3012 	add	hl, de
    00000CDC 7E               [ 7] 3013 	ld	a, (hl)
    00000CDD 6F               [ 4] 3014 	ld	l, a
                                   3015 ;	spillPairReg hl
                                   3016 ;	spillPairReg hl
    00000CDE 07               [ 4] 3017 	rlca
    00000CDF 9F               [ 4] 3018 	sbc	a, a
    00000CE0 67               [ 4] 3019 	ld	h, a
                                   3020 ;	spillPairReg hl
                                   3021 ;	spillPairReg hl
    00000CE1 09               [11] 3022 	add	hl, bc
    00000CE2 EB               [ 4] 3023 	ex	de, hl
    00000CE3 ED 53r61r11      [20] 3024 	ld	(_g_Ball), de
                                   3025 ;./exsoccer.c:546: }
    00000CE7                       3026 00126$:
                                   3027 ;./exsoccer.c:547: g_Ball.PreviousY=g_Ball.Y;
    00000CE7 ED 4Br61r11      [20] 3028 	ld	bc, (#_g_Ball + 0)
    00000CEB ED 43r68r11      [20] 3029 	ld	((_g_Ball + 7)), bc
                                   3030 ;./exsoccer.c:548: g_Ball.Direction=dir;
    00000CEF 21r66r11         [10] 3031 	ld	hl, #(_g_Ball + 5)
    00000CF2 DD 7E F7         [19] 3032 	ld	a, -9 (ix)
    00000CF5 77               [ 7] 3033 	ld	(hl), a
                                   3034 ;./exsoccer.c:549: }
    00000CF6 DD F9            [10] 3035 	ld	sp, ix
    00000CF8 DD E1            [14] 3036 	pop	ix
    00000CFA C9               [10] 3037 	ret
                                   3038 ;./exsoccer.c:550: void InitializeV9990()
                                   3039 ;	---------------------------------
                                   3040 ; Function InitializeV9990
                                   3041 ; ---------------------------------
    00000CFB                       3042 _InitializeV9990::
                                   3043 ;E:/Dropbox/FAUSTO/SVILUPPI/MSX/CODE/C/MSXgl/engine/src/rom_mapper.h:112: g_Bank0Segment[b] = s;
    00000CFB 21 01 00         [10] 3044 	ld	hl, #0x0001
    00000CFE 22r04r00         [16] 3045 	ld	((_g_Bank0Segment + 4)), hl
                                   3046 ;E:/Dropbox/FAUSTO/SVILUPPI/MSX/CODE/C/MSXgl/engine/src/system.h:109: inline void Poke16(u16 addr, u16 val) { *(u16*)addr = val; }
    00000D01 22 00 70         [16] 3047 	ld	(0x7000), hl
                                   3048 ;E:/Dropbox/FAUSTO/SVILUPPI/MSX/CODE/C/MSXgl/engine/src/v9990.h:574: inline void V9_SetInterrupt(u8 flags) { V9_SetRegister(9, flags); }
    00000D04 2E 00            [ 7] 3049 	ld	l, #0x00
                                   3050 ;	spillPairReg hl
                                   3051 ;	spillPairReg hl
    00000D06 3E 09            [ 7] 3052 	ld	a, #0x09
    00000D08 CDr00r00         [17] 3053 	call	_V9_SetRegister
                                   3054 ;./exsoccer.c:554: LoadPresentation();
    00000D0B CDr00r00         [17] 3055 	call	_LoadPresentation
                                   3056 ;./exsoccer.c:558: InitPalette();
    00000D0E CDr00r00         [17] 3057 	call	_InitPalette
                                   3058 ;./exsoccer.c:559: V9_SetScreenMode(V9_MODE_P1);
    00000D11 AF               [ 4] 3059 	xor	a, a
    00000D12 CDr00r00         [17] 3060 	call	_V9_SetScreenMode
                                   3061 ;E:/Dropbox/FAUSTO/SVILUPPI/MSX/CODE/C/MSXgl/engine/src/v9990.h:480: inline void V9_SetBackgroundColor(u8 color) { V9_SetRegister(15, color); }
    00000D15 2E 01            [ 7] 3062 	ld	l, #0x01
                                   3063 ;	spillPairReg hl
                                   3064 ;	spillPairReg hl
    00000D17 3E 0F            [ 7] 3065 	ld	a, #0x0f
    00000D19 CDr00r00         [17] 3066 	call	_V9_SetRegister
                                   3067 ;E:/Dropbox/FAUSTO/SVILUPPI/MSX/CODE/C/MSXgl/engine/src/v9990.h:258: inline void V9_SetFlag(u8 reg, u8 mask, u8 flag) { V9_SetRegister(reg, V9_GetRegister(reg) & (~mask) | flag); }
    00000D1C 3E 08            [ 7] 3068 	ld	a, #0x08
    00000D1E CDr00r00         [17] 3069 	call	_V9_GetRegister
    00000D21 6F               [ 4] 3070 	ld	l, a
                                   3071 ;	spillPairReg hl
                                   3072 ;	spillPairReg hl
    00000D22 CB BD            [ 8] 3073 	res	7, l
    00000D24 3E 08            [ 7] 3074 	ld	a, #0x08
    00000D26 CDr00r00         [17] 3075 	call	_V9_SetRegister
                                   3076 ;./exsoccer.c:570: LoadP1LayerA();
    00000D29 CDr91r02         [17] 3077 	call	_LoadP1LayerA
                                   3078 ;./exsoccer.c:572: ShowMenu();
                                   3079 ;./exsoccer.c:575: }
    00000D2C C3r00r00         [10] 3080 	jp	_ShowMenu
                                   3081 ;./exsoccer.c:576: void TickShotCursor() {
                                   3082 ;	---------------------------------
                                   3083 ; Function TickShotCursor
                                   3084 ; ---------------------------------
    00000D2F                       3085 _TickShotCursor::
    00000D2F DD E5            [15] 3086 	push	ix
    00000D31 DD 21 00 00      [14] 3087 	ld	ix,#0
    00000D35 DD 39            [15] 3088 	add	ix,sp
    00000D37 F5               [11] 3089 	push	af
    00000D38 F5               [11] 3090 	push	af
                                   3091 ;./exsoccer.c:578: g_ShotCursorX += g_ShotCursorDir;
    00000D39 3Ar4Br00         [13] 3092 	ld	a, (_g_ShotCursorDir+0)
    00000D3C 4F               [ 4] 3093 	ld	c, a
    00000D3D 07               [ 4] 3094 	rlca
    00000D3E 9F               [ 4] 3095 	sbc	a, a
    00000D3F 47               [ 4] 3096 	ld	b, a
    00000D40 2Ar49r00         [16] 3097 	ld	hl, (_g_ShotCursorX)
    00000D43 09               [11] 3098 	add	hl, bc
    00000D44 22r49r00         [16] 3099 	ld	(_g_ShotCursorX), hl
                                   3100 ;./exsoccer.c:579: if (g_ShotCursorX < (GOAL_X_MIN - 30)) {
    00000D47 11 42 00         [10] 3101 	ld	de, #0x0042
    00000D4A 2Ar49r00         [16] 3102 	ld	hl, (_g_ShotCursorX)
    00000D4D BF               [ 4] 3103 	cp	a, a
    00000D4E ED 52            [15] 3104 	sbc	hl, de
    00000D50 30 0C            [12] 3105 	jr	NC, 00102$
                                   3106 ;./exsoccer.c:580: g_ShotCursorX = (GOAL_X_MIN - 30);
    00000D52 21 42 00         [10] 3107 	ld	hl, #0x0042
    00000D55 22r49r00         [16] 3108 	ld	(_g_ShotCursorX), hl
                                   3109 ;./exsoccer.c:581: g_ShotCursorDir = -g_ShotCursorDir;
    00000D58 21r4Br00         [10] 3110 	ld	hl, #_g_ShotCursorDir
    00000D5B AF               [ 4] 3111 	xor	a, a
    00000D5C 96               [ 7] 3112 	sub	a, (hl)
    00000D5D 77               [ 7] 3113 	ld	(hl), a
    00000D5E                       3114 00102$:
                                   3115 ;./exsoccer.c:583: if (g_ShotCursorX > (GOAL_X_MAX + 30)) {
    00000D5E 3E AE            [ 7] 3116 	ld	a, #0xae
    00000D60 FD 21r49r00      [14] 3117 	ld	iy, #_g_ShotCursorX
    00000D64 FD BE 00         [19] 3118 	cp	a, 0 (iy)
    00000D67 3E 00            [ 7] 3119 	ld	a, #0x00
    00000D69 FD 9E 01         [19] 3120 	sbc	a, 1 (iy)
    00000D6C 30 0C            [12] 3121 	jr	NC, 00104$
                                   3122 ;./exsoccer.c:584: g_ShotCursorX = (GOAL_X_MAX + 30);
    00000D6E 21 AE 00         [10] 3123 	ld	hl, #0x00ae
    00000D71 22r49r00         [16] 3124 	ld	(_g_ShotCursorX), hl
                                   3125 ;./exsoccer.c:585: g_ShotCursorDir = -g_ShotCursorDir;
    00000D74 21r4Br00         [10] 3126 	ld	hl, #_g_ShotCursorDir
    00000D77 AF               [ 4] 3127 	xor	a, a
    00000D78 96               [ 7] 3128 	sub	a, (hl)
    00000D79 77               [ 7] 3129 	ld	(hl), a
    00000D7A                       3130 00104$:
                                   3131 ;./exsoccer.c:589: bool show = false;
    00000D7A 0E 00            [ 7] 3132 	ld	c, #0x00
                                   3133 ;./exsoccer.c:590: if (g_MatchStatus == MATCH_IN_ACTION && g_ActiveFieldZone == FIELD_NORTH_ZONE) {
    00000D7C 3Ar3Fr00         [13] 3134 	ld	a, (_g_MatchStatus+0)
    00000D7F D6 0C            [ 7] 3135 	sub	a, #0x0c
    00000D81 20 26            [12] 3136 	jr	NZ, 00110$
    00000D83 3Ar7Fr11         [13] 3137 	ld	a, (_g_ActiveFieldZone+0)
    00000D86 B7               [ 4] 3138 	or	a, a
    00000D87 20 20            [12] 3139 	jr	NZ, 00110$
                                   3140 ;./exsoccer.c:591: if (g_Ball.PossessionPlayerId != NO_VALUE) {
    00000D89 21r67r11         [10] 3141 	ld	hl, #_g_Ball+6
    00000D8C 5E               [ 7] 3142 	ld	e, (hl)
    00000D8D 7B               [ 4] 3143 	ld	a, e
    00000D8E 3C               [ 4] 3144 	inc	a
    00000D8F 28 18            [12] 3145 	jr	Z, 00110$
                                   3146 ;./exsoccer.c:592: if (g_Players[g_Ball.PossessionPlayerId].TeamId == TEAM_1) {
    00000D91 16 00            [ 7] 3147 	ld	d, #0x00
    00000D93 6B               [ 4] 3148 	ld	l, e
    00000D94 62               [ 4] 3149 	ld	h, d
    00000D95 29               [11] 3150 	add	hl, hl
    00000D96 29               [11] 3151 	add	hl, hl
    00000D97 19               [11] 3152 	add	hl, de
    00000D98 29               [11] 3153 	add	hl, hl
    00000D99 29               [11] 3154 	add	hl, hl
    00000D9A 19               [11] 3155 	add	hl, de
    00000D9B 11r08r10         [10] 3156 	ld	de, #_g_Players
    00000D9E 19               [11] 3157 	add	hl, de
    00000D9F 11 09 00         [10] 3158 	ld	de, #0x0009
    00000DA2 19               [11] 3159 	add	hl, de
    00000DA3 7E               [ 7] 3160 	ld	a, (hl)
    00000DA4 3D               [ 4] 3161 	dec	a
    00000DA5 20 02            [12] 3162 	jr	NZ, 00110$
                                   3163 ;./exsoccer.c:593: show = true;
    00000DA7 0E 01            [ 7] 3164 	ld	c, #0x01
    00000DA9                       3165 00110$:
                                   3166 ;./exsoccer.c:599: if (show) {
    00000DA9 79               [ 4] 3167 	ld	a, c
    00000DAA B7               [ 4] 3168 	or	a, a
    00000DAB 28 67            [12] 3169 	jr	Z, 00117$
                                   3170 ;./exsoccer.c:601: int screenY = (FIELD_BOUND_Y_TOP - 30) - g_FieldCurrentYPosition;
    00000DAD 21r3Cr00         [10] 3171 	ld	hl, #_g_FieldCurrentYPosition
    00000DB0 3E 14            [ 7] 3172 	ld	a, #0x14
    00000DB2 96               [ 7] 3173 	sub	a, (hl)
    00000DB3 23               [ 6] 3174 	inc	hl
    00000DB4 4F               [ 4] 3175 	ld	c, a
    00000DB5 9F               [ 4] 3176 	sbc	a, a
    00000DB6 96               [ 7] 3177 	sub	a, (hl)
    00000DB7 47               [ 4] 3178 	ld	b, a
                                   3179 ;./exsoccer.c:604: if (screenY < -16 || screenY > 212) {
    00000DB8 79               [ 4] 3180 	ld	a, c
    00000DB9 D6 F0            [ 7] 3181 	sub	a, #0xf0
    00000DBB 78               [ 4] 3182 	ld	a, b
    00000DBC 17               [ 4] 3183 	rla
    00000DBD 3F               [ 4] 3184 	ccf
    00000DBE 1F               [ 4] 3185 	rra
    00000DBF DE 7F            [ 7] 3186 	sbc	a, #0x7f
    00000DC1 38 0E            [12] 3187 	jr	C, 00112$
    00000DC3 3E D4            [ 7] 3188 	ld	a, #0xd4
    00000DC5 B9               [ 4] 3189 	cp	a, c
    00000DC6 3E 00            [ 7] 3190 	ld	a, #0x00
    00000DC8 98               [ 4] 3191 	sbc	a, b
    00000DC9 E2rCEr0D         [10] 3192 	jp	PO, 00170$
    00000DCC EE 80            [ 7] 3193 	xor	a, #0x80
    00000DCE                       3194 00170$:
    00000DCE F2rD8r0D         [10] 3195 	jp	P, 00113$
    00000DD1                       3196 00112$:
                                   3197 ;./exsoccer.c:605: attr.Y = 216; 
    00000DD1 DD 36 FC D8      [19] 3198 	ld	-4 (ix), #0xd8
    00000DD5 C3rDBr0D         [10] 3199 	jp	00114$
    00000DD8                       3200 00113$:
                                   3201 ;./exsoccer.c:607: attr.Y = (u8)screenY;
    00000DD8 DD 71 FC         [19] 3202 	ld	-4 (ix), c
    00000DDB                       3203 00114$:
                                   3204 ;./exsoccer.c:610: attr.X = (u8)g_ShotCursorX;
    00000DDB 3Ar49r00         [13] 3205 	ld	a, (_g_ShotCursorX+0)
    00000DDE 4F               [ 4] 3206 	ld	c, a
    00000DDF 06 00            [ 7] 3207 	ld	b, #0x00
    00000DE1 21 02 00         [10] 3208 	ld	hl, #2
    00000DE4 39               [11] 3209 	add	hl, sp
    00000DE5 71               [ 7] 3210 	ld	(hl), c
    00000DE6 23               [ 6] 3211 	inc	hl
    00000DE7 78               [ 4] 3212 	ld	a, b
    00000DE8 E6 03            [ 7] 3213 	and	a, #0x03
    00000DEA 5F               [ 4] 3214 	ld	e,a
    00000DEB 7E               [ 7] 3215 	ld	a, (hl)
    00000DEC E6 FC            [ 7] 3216 	and	a, #0xfc
    00000DEE B3               [ 4] 3217 	or	a, e
    00000DEF 77               [ 7] 3218 	ld	(hl), a
                                   3219 ;./exsoccer.c:611: attr.Pattern = SPRITE_DOWN_ARROW;
    00000DF0 DD 36 FD 79      [19] 3220 	ld	-3 (ix), #0x79
                                   3221 ;./exsoccer.c:612: attr.P = 1; 
    00000DF4 21 03 00         [10] 3222 	ld	hl,#0x3
    00000DF7 39               [11] 3223 	add	hl,sp
    00000DF8 CB EE            [15] 3224 	set	5, (hl)
                                   3225 ;./exsoccer.c:613: attr.SC = 0; 
    00000DFA 7E               [ 7] 3226 	ld	a, (hl)
    00000DFB E6 3F            [ 7] 3227 	and	a, #0x3f
    00000DFD 77               [ 7] 3228 	ld	(hl), a
                                   3229 ;./exsoccer.c:615: V9_SetSpriteP1(16, &attr);
                                   3230 ;E:/Dropbox/FAUSTO/SVILUPPI/MSX/CODE/C/MSXgl/engine/src/v9990.h:781: inline void V9_SetSpriteP1(u8 id, const V9_Sprite* attr) { V9_WriteVRAM(V9_P1_SPAT + (id * 4), (const u8*)attr, 4); }
                                   3231 ;E:/Dropbox/FAUSTO/SVILUPPI/MSX/CODE/C/MSXgl/engine/src/v9990.h:371: inline void V9_WriteVRAM(u32 addr, const u8* src, u16 count) { V9_SetWriteAddress(addr); V9_WriteVRAM_CurrentAddr(src, count); }
    00000DFE 11 40 FE         [10] 3232 	ld	de, #0xfe40
    00000E01 21 03 00         [10] 3233 	ld	hl, #0x0003
    00000E04 CDr00r00         [17] 3234 	call	_V9_SetWriteAddress
    00000E07 11 04 00         [10] 3235 	ld	de, #0x0004
    00000E0A 21 00 00         [10] 3236 	ld	hl, #0
    00000E0D 39               [11] 3237 	add	hl, sp
    00000E0E CDr00r00         [17] 3238 	call	_V9_WriteVRAM_CurrentAddr
                                   3239 ;./exsoccer.c:615: V9_SetSpriteP1(16, &attr);
    00000E11 C3r2Br0E         [10] 3240 	jp	00123$
    00000E14                       3241 00117$:
                                   3242 ;./exsoccer.c:618: attr.Y = 216;
    00000E14 DD 36 FC D8      [19] 3243 	ld	-4 (ix), #0xd8
                                   3244 ;./exsoccer.c:619: V9_SetSpriteP1(16, &attr);
                                   3245 ;E:/Dropbox/FAUSTO/SVILUPPI/MSX/CODE/C/MSXgl/engine/src/v9990.h:781: inline void V9_SetSpriteP1(u8 id, const V9_Sprite* attr) { V9_WriteVRAM(V9_P1_SPAT + (id * 4), (const u8*)attr, 4); }
                                   3246 ;E:/Dropbox/FAUSTO/SVILUPPI/MSX/CODE/C/MSXgl/engine/src/v9990.h:371: inline void V9_WriteVRAM(u32 addr, const u8* src, u16 count) { V9_SetWriteAddress(addr); V9_WriteVRAM_CurrentAddr(src, count); }
    00000E18 11 40 FE         [10] 3247 	ld	de, #0xfe40
    00000E1B 21 03 00         [10] 3248 	ld	hl, #0x0003
    00000E1E CDr00r00         [17] 3249 	call	_V9_SetWriteAddress
    00000E21 11 04 00         [10] 3250 	ld	de, #0x0004
    00000E24 21 00 00         [10] 3251 	ld	hl, #0
    00000E27 39               [11] 3252 	add	hl, sp
    00000E28 CDr00r00         [17] 3253 	call	_V9_WriteVRAM_CurrentAddr
                                   3254 ;./exsoccer.c:619: V9_SetSpriteP1(16, &attr);
    00000E2B                       3255 00123$:
                                   3256 ;./exsoccer.c:621: }
    00000E2B DD F9            [10] 3257 	ld	sp, ix
    00000E2D DD E1            [14] 3258 	pop	ix
    00000E2F C9               [10] 3259 	ret
                                   3260 ;./exsoccer.c:622: void LoadSprites(){
                                   3261 ;	---------------------------------
                                   3262 ; Function LoadSprites
                                   3263 ; ---------------------------------
    00000E30                       3264 _LoadSprites::
                                   3265 ;E:/Dropbox/FAUSTO/SVILUPPI/MSX/CODE/C/MSXgl/engine/src/rom_mapper.h:112: g_Bank0Segment[b] = s;
    00000E30 21 08 00         [10] 3266 	ld	hl, #0x0008
    00000E33 22r04r00         [16] 3267 	ld	((_g_Bank0Segment + 4)), hl
                                   3268 ;E:/Dropbox/FAUSTO/SVILUPPI/MSX/CODE/C/MSXgl/engine/src/system.h:109: inline void Poke16(u16 addr, u16 val) { *(u16*)addr = val; }
    00000E36 22 00 70         [16] 3269 	ld	(0x7000), hl
                                   3270 ;E:/Dropbox/FAUSTO/SVILUPPI/MSX/CODE/C/MSXgl/engine/src/v9990.h:739: inline void V9_SetSpritePatternAddr(u8 addr) { V9_SetRegister(25, addr); }
    00000E39 2E 02            [ 7] 3271 	ld	l, #0x02
                                   3272 ;	spillPairReg hl
                                   3273 ;	spillPairReg hl
    00000E3B 3E 19            [ 7] 3274 	ld	a, #0x19
    00000E3D CDr00r00         [17] 3275 	call	_V9_SetRegister
                                   3276 ;./exsoccer.c:625: V9_WriteVRAM(0x08000, g_Sprites1, sizeof(g_Sprites1));	
                                   3277 ;E:/Dropbox/FAUSTO/SVILUPPI/MSX/CODE/C/MSXgl/engine/src/v9990.h:371: inline void V9_WriteVRAM(u32 addr, const u8* src, u16 count) { V9_SetWriteAddress(addr); V9_WriteVRAM_CurrentAddr(src, count); }
    00000E40 11 00 80         [10] 3278 	ld	de, #0x8000
    00000E43 21 00 00         [10] 3279 	ld	hl, #0x0000
    00000E46 CDr00r00         [17] 3280 	call	_V9_SetWriteAddress
    00000E49 11 00 40         [10] 3281 	ld	de, #0x4000
    00000E4C 21r00r00         [10] 3282 	ld	hl, #_g_Sprites1
    00000E4F CDr00r00         [17] 3283 	call	_V9_WriteVRAM_CurrentAddr
                                   3284 ;E:/Dropbox/FAUSTO/SVILUPPI/MSX/CODE/C/MSXgl/engine/src/rom_mapper.h:112: g_Bank0Segment[b] = s;
    00000E52 21 09 00         [10] 3285 	ld	hl, #0x0009
    00000E55 22r04r00         [16] 3286 	ld	((_g_Bank0Segment + 4)), hl
                                   3287 ;E:/Dropbox/FAUSTO/SVILUPPI/MSX/CODE/C/MSXgl/engine/src/system.h:109: inline void Poke16(u16 addr, u16 val) { *(u16*)addr = val; }
    00000E58 22 00 70         [16] 3288 	ld	(0x7000), hl
                                   3289 ;./exsoccer.c:627: V9_WriteVRAM(0x08000+sizeof(g_Sprites1), g_Sprites2, sizeof(g_Sprites2));	
                                   3290 ;E:/Dropbox/FAUSTO/SVILUPPI/MSX/CODE/C/MSXgl/engine/src/v9990.h:371: inline void V9_WriteVRAM(u32 addr, const u8* src, u16 count) { V9_SetWriteAddress(addr); V9_WriteVRAM_CurrentAddr(src, count); }
    00000E5B 11 00 C0         [10] 3291 	ld	de, #0xc000
    00000E5E 6C               [ 4] 3292 	ld	l, h
    00000E5F CDr00r00         [17] 3293 	call	_V9_SetWriteAddress
    00000E62 11 00 40         [10] 3294 	ld	de, #0x4000
    00000E65 21r00r00         [10] 3295 	ld	hl, #_g_Sprites2
    00000E68 CDr00r00         [17] 3296 	call	_V9_WriteVRAM_CurrentAddr
                                   3297 ;E:/Dropbox/FAUSTO/SVILUPPI/MSX/CODE/C/MSXgl/engine/src/rom_mapper.h:112: g_Bank0Segment[b] = s;
    00000E6B 21 01 00         [10] 3298 	ld	hl, #0x0001
    00000E6E 22r04r00         [16] 3299 	ld	((_g_Bank0Segment + 4)), hl
                                   3300 ;E:/Dropbox/FAUSTO/SVILUPPI/MSX/CODE/C/MSXgl/engine/src/system.h:109: inline void Poke16(u16 addr, u16 val) { *(u16*)addr = val; }
    00000E71 22 00 70         [16] 3301 	ld	(0x7000), hl
                                   3302 ;./exsoccer.c:628: SET_BANK_SEGMENT(2, 1); 
                                   3303 ;./exsoccer.c:629: }
    00000E74 C9               [10] 3304 	ret
                                   3305 ;./exsoccer.c:630: void TickGoalCelebration(){
                                   3306 ;	---------------------------------
                                   3307 ; Function TickGoalCelebration
                                   3308 ; ---------------------------------
    00000E75                       3309 _TickGoalCelebration::
    00000E75 DD E5            [15] 3310 	push	ix
    00000E77 DD 21 00 00      [14] 3311 	ld	ix,#0
    00000E7B DD 39            [15] 3312 	add	ix,sp
    00000E7D 21 F3 FF         [10] 3313 	ld	hl, #-13
    00000E80 39               [11] 3314 	add	hl, sp
    00000E81 F9               [ 6] 3315 	ld	sp, hl
                                   3316 ;./exsoccer.c:631: if(g_MatchStatus!=MATCH_AFTER_IN_GOAL) return;
    00000E82 3Ar3Fr00         [13] 3317 	ld	a, (_g_MatchStatus+0)
    00000E85 D6 06            [ 7] 3318 	sub	a, #0x06
    00000E87 C2r3Fr12         [10] 3319 	jp	NZ,00158$
                                   3320 ;./exsoccer.c:633: EffectPlay(SOUND_PUBLIC);
    00000E8A 3E 0A            [ 7] 3321 	ld	a, #0x0a
    00000E8C CDr00r00         [17] 3322 	call	_EffectPlay
                                   3323 ;./exsoccer.c:635: g_Timer++;
    00000E8F 21r41r00         [10] 3324 	ld	hl, #_g_Timer
    00000E92 34               [11] 3325 	inc	(hl)
                                   3326 ;./exsoccer.c:637: if((g_Timer % 10) < 5){
    00000E93 3Ar41r00         [13] 3327 	ld	a, (_g_Timer+0)
    00000E96 6F               [ 4] 3328 	ld	l, a
                                   3329 ;	spillPairReg hl
                                   3330 ;	spillPairReg hl
    00000E97 26 00            [ 7] 3331 	ld	h, #0x00
                                   3332 ;	spillPairReg hl
                                   3333 ;	spillPairReg hl
    00000E99 11 0A 00         [10] 3334 	ld	de, #0x000a
    00000E9C CDr00r00         [17] 3335 	call	__modsint
    00000E9F 7B               [ 4] 3336 	ld	a, e
    00000EA0 D6 05            [ 7] 3337 	sub	a, #0x05
    00000EA2 7A               [ 4] 3338 	ld	a, d
    00000EA3 17               [ 4] 3339 	rla
    00000EA4 3F               [ 4] 3340 	ccf
    00000EA5 1F               [ 4] 3341 	rra
    00000EA6 DE 80            [ 7] 3342 	sbc	a, #0x80
    00000EA8 30 0A            [12] 3343 	jr	NC, 00104$
                                   3344 ;E:/Dropbox/FAUSTO/SVILUPPI/MSX/CODE/C/MSXgl/engine/src/v9990.h:480: inline void V9_SetBackgroundColor(u8 color) { V9_SetRegister(15, color); }
    00000EAA 2E 08            [ 7] 3345 	ld	l, #0x08
                                   3346 ;	spillPairReg hl
                                   3347 ;	spillPairReg hl
    00000EAC 3E 0F            [ 7] 3348 	ld	a, #0x0f
    00000EAE CDr00r00         [17] 3349 	call	_V9_SetRegister
                                   3350 ;./exsoccer.c:638: V9_SetBackgroundColor(8); // Cyan/Flash
    00000EB1 C3rBBr0E         [10] 3351 	jp	00105$
    00000EB4                       3352 00104$:
                                   3353 ;E:/Dropbox/FAUSTO/SVILUPPI/MSX/CODE/C/MSXgl/engine/src/v9990.h:480: inline void V9_SetBackgroundColor(u8 color) { V9_SetRegister(15, color); }
    00000EB4 2E 01            [ 7] 3354 	ld	l, #0x01
                                   3355 ;	spillPairReg hl
                                   3356 ;	spillPairReg hl
    00000EB6 3E 0F            [ 7] 3357 	ld	a, #0x0f
    00000EB8 CDr00r00         [17] 3358 	call	_V9_SetRegister
                                   3359 ;./exsoccer.c:640: V9_SetBackgroundColor(1); // Default Blue
    00000EBB                       3360 00105$:
                                   3361 ;./exsoccer.c:646: if (g_Timer < 120) {
    00000EBB 3Ar41r00         [13] 3362 	ld	a, (_g_Timer+0)
    00000EBE D6 78            [ 7] 3363 	sub	a, #0x78
    00000EC0 D2r1Fr11         [10] 3364 	jp	NC, 00136$
                                   3365 ;./exsoccer.c:647: u8 scoringTeamId = (g_RestartKickTeamId == TEAM_1) ? TEAM_2 : TEAM_1;
    00000EC3 3Ar80r11         [13] 3366 	ld	a, (_g_RestartKickTeamId+0)
    00000EC6 3D               [ 4] 3367 	dec	a
    00000EC7 20 06            [12] 3368 	jr	NZ, 00160$
    00000EC9 01 02 00         [10] 3369 	ld	bc, #0x0002
    00000ECC C3rD2r0E         [10] 3370 	jp	00161$
    00000ECF                       3371 00160$:
    00000ECF 01 01 00         [10] 3372 	ld	bc, #0x0001
    00000ED2                       3373 00161$:
    00000ED2 DD 71 F5         [19] 3374 	ld	-11 (ix), c
                                   3375 ;./exsoccer.c:650: u16 limitY_Top = FIELD_BOUND_Y_TOP;
    00000ED5 DD 36 F6 32      [19] 3376 	ld	-10 (ix), #0x32
    00000ED9 AF               [ 4] 3377 	xor	a, a
    00000EDA DD 77 F7         [19] 3378 	ld	-9 (ix), a
                                   3379 ;./exsoccer.c:651: u16 limitY_Bottom = FIELD_BOUND_Y_BOTTOM;
    00000EDD DD 36 F8 AE      [19] 3380 	ld	-8 (ix), #0xae
    00000EE1 DD 36 F9 01      [19] 3381 	ld	-7 (ix), #0x01
                                   3382 ;./exsoccer.c:653: if (g_Ball.Y < FIELD_CENTRAL_Y) { // Top Goal
    00000EE5 21r61r11         [10] 3383 	ld	hl, #_g_Ball
    00000EE8 7E               [ 7] 3384 	ld	a, (hl)
    00000EE9 DD 77 FE         [19] 3385 	ld	-2 (ix), a
    00000EEC 23               [ 6] 3386 	inc	hl
    00000EED 7E               [ 7] 3387 	ld	a, (hl)
    00000EEE DD 77 FF         [19] 3388 	ld	-1 (ix), a
    00000EF1 DD 7E FE         [19] 3389 	ld	a, -2 (ix)
    00000EF4 D6 8C            [ 7] 3390 	sub	a, #0x8c
    00000EF6 DD 7E FF         [19] 3391 	ld	a, -1 (ix)
    00000EF9 DE 00            [ 7] 3392 	sbc	a, #0x00
    00000EFB 30 0B            [12] 3393 	jr	NC, 00107$
                                   3394 ;./exsoccer.c:654: limitY_Bottom = FIELD_BOUND_Y_TOP + 160; 
    00000EFD DD 36 F8 D2      [19] 3395 	ld	-8 (ix), #0xd2
    00000F01 DD 36 F9 00      [19] 3396 	ld	-7 (ix), #0
    00000F05 C3r10r0F         [10] 3397 	jp	00200$
    00000F08                       3398 00107$:
                                   3399 ;./exsoccer.c:656: limitY_Top = FIELD_BOUND_Y_BOTTOM - 160;
    00000F08 DD 36 F6 0E      [19] 3400 	ld	-10 (ix), #0x0e
    00000F0C DD 36 F7 01      [19] 3401 	ld	-9 (ix), #0x01
                                   3402 ;./exsoccer.c:664: for(u8 i=0; i<15; i++){
    00000F10                       3403 00200$:
    00000F10 DD 36 FF 00      [19] 3404 	ld	-1 (ix), #0x00
    00000F14                       3405 00154$:
    00000F14 DD 7E FF         [19] 3406 	ld	a, -1 (ix)
    00000F17 D6 0F            [ 7] 3407 	sub	a, #0x0f
    00000F19 D2r1Fr11         [10] 3408 	jp	NC, 00136$
                                   3409 ;./exsoccer.c:665: if(i == REFEREE) continue;
    00000F1C DD 7E FF         [19] 3410 	ld	a, -1 (ix)
    00000F1F D6 0E            [ 7] 3411 	sub	a, #0x0e
    00000F21 CAr19r11         [10] 3412 	jp	Z,00133$
                                   3413 ;./exsoccer.c:666: u8 dir = g_Players[i].Direction;
    00000F24 DD 4E FF         [19] 3414 	ld	c, -1 (ix)
    00000F27 06 00            [ 7] 3415 	ld	b, #0x00
    00000F29 69               [ 4] 3416 	ld	l, c
    00000F2A 60               [ 4] 3417 	ld	h, b
    00000F2B 29               [11] 3418 	add	hl, hl
    00000F2C 29               [11] 3419 	add	hl, hl
    00000F2D 09               [11] 3420 	add	hl, bc
    00000F2E 29               [11] 3421 	add	hl, hl
    00000F2F 29               [11] 3422 	add	hl, hl
    00000F30 09               [11] 3423 	add	hl, bc
    00000F31 11r08r10         [10] 3424 	ld	de, #_g_Players
    00000F34 19               [11] 3425 	add	hl, de
    00000F35 E3               [19] 3426 	ex	(sp), hl
    00000F36 DD 7E F3         [19] 3427 	ld	a, -13 (ix)
    00000F39 C6 0A            [ 7] 3428 	add	a, #0x0a
    00000F3B 4F               [ 4] 3429 	ld	c, a
    00000F3C DD 7E F4         [19] 3430 	ld	a, -12 (ix)
    00000F3F CE 00            [ 7] 3431 	adc	a, #0x00
    00000F41 47               [ 4] 3432 	ld	b, a
    00000F42 0A               [ 7] 3433 	ld	a, (bc)
    00000F43 DD 77 FE         [19] 3434 	ld	-2 (ix), a
                                   3435 ;./exsoccer.c:669: if (g_Players[i].TeamId == scoringTeamId) {
    00000F46 D1               [10] 3436 	pop	de
    00000F47 D5               [11] 3437 	push	de
    00000F48 21 09 00         [10] 3438 	ld	hl, #9
    00000F4B 19               [11] 3439 	add	hl, de
    00000F4C 5E               [ 7] 3440 	ld	e, (hl)
                                   3441 ;./exsoccer.c:693: if (isBack) g_Players[i].PatternId = (animFrame1) ? PLAYER_POSE_CELEBRATION_BACK_1 : PLAYER_POSE_CELEBRATION_BACK_2;
    00000F4D DD 7E F3         [19] 3442 	ld	a, -13 (ix)
    00000F50 C6 08            [ 7] 3443 	add	a, #0x08
    00000F52 DD 77 FA         [19] 3444 	ld	-6 (ix), a
    00000F55 DD 7E F4         [19] 3445 	ld	a, -12 (ix)
    00000F58 CE 00            [ 7] 3446 	adc	a, #0x00
    00000F5A DD 77 FB         [19] 3447 	ld	-5 (ix), a
                                   3448 ;./exsoccer.c:669: if (g_Players[i].TeamId == scoringTeamId) {
    00000F5D DD 7E F5         [19] 3449 	ld	a, -11 (ix)
    00000F60 93               [ 4] 3450 	sub	a, e
    00000F61 C2rD9r10         [10] 3451 	jp	NZ,00131$
                                   3452 ;./exsoccer.c:673: if ((g_Timer % 19) == 0) {
    00000F64 3Ar41r00         [13] 3453 	ld	a, (_g_Timer+0)
    00000F67 6F               [ 4] 3454 	ld	l, a
                                   3455 ;	spillPairReg hl
                                   3456 ;	spillPairReg hl
    00000F68 26 00            [ 7] 3457 	ld	h, #0x00
                                   3458 ;	spillPairReg hl
                                   3459 ;	spillPairReg hl
    00000F6A C5               [11] 3460 	push	bc
    00000F6B 11 13 00         [10] 3461 	ld	de, #0x0013
    00000F6E CDr00r00         [17] 3462 	call	__modsint
    00000F71 C1               [10] 3463 	pop	bc
    00000F72 7A               [ 4] 3464 	ld	a, d
    00000F73 B3               [ 4] 3465 	or	a, e
    00000F74 20 1C            [12] 3466 	jr	NZ, 00112$
                                   3467 ;./exsoccer.c:675: u8 rnd = (g_Timer * 3) + (i * 37); 
    00000F76 3Ar41r00         [13] 3468 	ld	a, (_g_Timer+0)
    00000F79 5F               [ 4] 3469 	ld	e, a
    00000F7A 87               [ 4] 3470 	add	a, a
    00000F7B 83               [ 4] 3471 	add	a, e
    00000F7C 5F               [ 4] 3472 	ld	e, a
    00000F7D DD 7E FF         [19] 3473 	ld	a, -1 (ix)
    00000F80 D5               [11] 3474 	push	de
    00000F81 5F               [ 4] 3475 	ld	e, a
    00000F82 87               [ 4] 3476 	add	a, a
    00000F83 87               [ 4] 3477 	add	a, a
    00000F84 87               [ 4] 3478 	add	a, a
    00000F85 83               [ 4] 3479 	add	a, e
    00000F86 87               [ 4] 3480 	add	a, a
    00000F87 87               [ 4] 3481 	add	a, a
    00000F88 83               [ 4] 3482 	add	a, e
    00000F89 D1               [10] 3483 	pop	de
    00000F8A 83               [ 4] 3484 	add	a, e
                                   3485 ;./exsoccer.c:676: dir = (rnd % 8) + 1; 
    00000F8B E6 07            [ 7] 3486 	and	a, #0x07
    00000F8D 3C               [ 4] 3487 	inc	a
                                   3488 ;./exsoccer.c:677: g_Players[i].Direction = dir;
    00000F8E DD 77 FE         [19] 3489 	ld	-2 (ix), a
    00000F91 02               [ 7] 3490 	ld	(bc), a
    00000F92                       3491 00112$:
                                   3492 ;./exsoccer.c:680: i8 dy = k_CelebDY[dir];
    00000F92 3Er4D            [ 7] 3493 	ld	a, #<(_TickGoalCelebration_k_CelebDY_131073_1769)
    00000F94 DD 86 FE         [19] 3494 	add	a, -2 (ix)
    00000F97 6F               [ 4] 3495 	ld	l, a
                                   3496 ;	spillPairReg hl
                                   3497 ;	spillPairReg hl
    00000F98 3Es12            [ 7] 3498 	ld	a, #>(_TickGoalCelebration_k_CelebDY_131073_1769)
    00000F9A CE 00            [ 7] 3499 	adc	a, #0x00
    00000F9C 67               [ 4] 3500 	ld	h, a
    00000F9D 4E               [ 7] 3501 	ld	c, (hl)
                                   3502 ;./exsoccer.c:681: i8 dx = k_CelebDX[dir];
    00000F9E 3Er44            [ 7] 3503 	ld	a, #<(_TickGoalCelebration_k_CelebDX_131073_1769)
    00000FA0 DD 86 FE         [19] 3504 	add	a, -2 (ix)
    00000FA3 6F               [ 4] 3505 	ld	l, a
                                   3506 ;	spillPairReg hl
                                   3507 ;	spillPairReg hl
    00000FA4 3Es12            [ 7] 3508 	ld	a, #>(_TickGoalCelebration_k_CelebDX_131073_1769)
    00000FA6 CE 00            [ 7] 3509 	adc	a, #0x00
    00000FA8 67               [ 4] 3510 	ld	h, a
    00000FA9 46               [ 7] 3511 	ld	b, (hl)
                                   3512 ;./exsoccer.c:683: if (dy < 0 && g_Players[i].Y > limitY_Top) g_Players[i].Y--;
    00000FAA 79               [ 4] 3513 	ld	a, c
    00000FAB 07               [ 4] 3514 	rlca
    00000FAC E6 01            [ 7] 3515 	and	a,#0x01
    00000FAE DD 77 FC         [19] 3516 	ld	-4 (ix), a
    00000FB1 B7               [ 4] 3517 	or	a, a
    00000FB2 28 18            [12] 3518 	jr	Z, 00117$
    00000FB4 E1               [10] 3519 	pop	hl
    00000FB5 E5               [11] 3520 	push	hl
    00000FB6 5E               [ 7] 3521 	ld	e, (hl)
    00000FB7 23               [ 6] 3522 	inc	hl
    00000FB8 56               [ 7] 3523 	ld	d, (hl)
    00000FB9 DD 7E F6         [19] 3524 	ld	a, -10 (ix)
    00000FBC 93               [ 4] 3525 	sub	a, e
    00000FBD DD 7E F7         [19] 3526 	ld	a, -9 (ix)
    00000FC0 9A               [ 4] 3527 	sbc	a, d
    00000FC1 30 09            [12] 3528 	jr	NC, 00117$
    00000FC3 1B               [ 6] 3529 	dec	de
    00000FC4 E1               [10] 3530 	pop	hl
    00000FC5 E5               [11] 3531 	push	hl
    00000FC6 73               [ 7] 3532 	ld	(hl), e
    00000FC7 23               [ 6] 3533 	inc	hl
    00000FC8 72               [ 7] 3534 	ld	(hl), d
    00000FC9 C3rEBr0F         [10] 3535 	jp	00118$
    00000FCC                       3536 00117$:
                                   3537 ;./exsoccer.c:684: else if (dy > 0 && g_Players[i].Y < limitY_Bottom) g_Players[i].Y++;
    00000FCC AF               [ 4] 3538 	xor	a, a
    00000FCD 91               [ 4] 3539 	sub	a, c
    00000FCE E2rD3r0F         [10] 3540 	jp	PO, 00387$
    00000FD1 EE 80            [ 7] 3541 	xor	a, #0x80
    00000FD3                       3542 00387$:
    00000FD3 F2rEBr0F         [10] 3543 	jp	P, 00118$
    00000FD6 E1               [10] 3544 	pop	hl
    00000FD7 E5               [11] 3545 	push	hl
    00000FD8 5E               [ 7] 3546 	ld	e, (hl)
    00000FD9 23               [ 6] 3547 	inc	hl
    00000FDA 56               [ 7] 3548 	ld	d, (hl)
    00000FDB 7B               [ 4] 3549 	ld	a, e
    00000FDC DD 96 F8         [19] 3550 	sub	a, -8 (ix)
    00000FDF 7A               [ 4] 3551 	ld	a, d
    00000FE0 DD 9E F9         [19] 3552 	sbc	a, -7 (ix)
    00000FE3 30 06            [12] 3553 	jr	NC, 00118$
    00000FE5 13               [ 6] 3554 	inc	de
    00000FE6 E1               [10] 3555 	pop	hl
    00000FE7 E5               [11] 3556 	push	hl
    00000FE8 73               [ 7] 3557 	ld	(hl), e
    00000FE9 23               [ 6] 3558 	inc	hl
    00000FEA 72               [ 7] 3559 	ld	(hl), d
    00000FEB                       3560 00118$:
                                   3561 ;./exsoccer.c:686: if (dx < 0 && g_Players[i].X > FIELD_BOUND_X_LEFT) g_Players[i].X--;
    00000FEB CB 78            [ 8] 3562 	bit	7, b
    00000FED 28 21            [12] 3563 	jr	Z, 00124$
    00000FEF E1               [10] 3564 	pop	hl
    00000FF0 E5               [11] 3565 	push	hl
    00000FF1 23               [ 6] 3566 	inc	hl
    00000FF2 23               [ 6] 3567 	inc	hl
    00000FF3 5E               [ 7] 3568 	ld	e, (hl)
    00000FF4 23               [ 6] 3569 	inc	hl
    00000FF5 56               [ 7] 3570 	ld	d, (hl)
    00000FF6 2B               [ 6] 3571 	dec	hl
    00000FF7 DD 73 FD         [19] 3572 	ld	-3 (ix), e
    00000FFA DD 72 FE         [19] 3573 	ld	-2 (ix), d
    00000FFD 3E 0A            [ 7] 3574 	ld	a, #0x0a
    00000FFF DD BE FD         [19] 3575 	cp	a, -3 (ix)
    00001002 3E 00            [ 7] 3576 	ld	a, #0x00
    00001004 DD 9E FE         [19] 3577 	sbc	a, -2 (ix)
    00001007 30 07            [12] 3578 	jr	NC, 00124$
    00001009 1B               [ 6] 3579 	dec	de
    0000100A 73               [ 7] 3580 	ld	(hl), e
    0000100B 23               [ 6] 3581 	inc	hl
    0000100C 72               [ 7] 3582 	ld	(hl), d
    0000100D C3r30r10         [10] 3583 	jp	00125$
    00001010                       3584 00124$:
                                   3585 ;./exsoccer.c:687: else if (dx > 0 && g_Players[i].X < FIELD_BOUND_X_RIGHT) g_Players[i].X++;
    00001010 AF               [ 4] 3586 	xor	a, a
    00001011 90               [ 4] 3587 	sub	a, b
    00001012 E2r17r10         [10] 3588 	jp	PO, 00388$
    00001015 EE 80            [ 7] 3589 	xor	a, #0x80
    00001017                       3590 00388$:
    00001017 F2r30r10         [10] 3591 	jp	P, 00125$
    0000101A E1               [10] 3592 	pop	hl
    0000101B E5               [11] 3593 	push	hl
    0000101C 23               [ 6] 3594 	inc	hl
    0000101D 23               [ 6] 3595 	inc	hl
    0000101E 4E               [ 7] 3596 	ld	c, (hl)
    0000101F 23               [ 6] 3597 	inc	hl
    00001020 46               [ 7] 3598 	ld	b, (hl)
    00001021 2B               [ 6] 3599 	dec	hl
    00001022 59               [ 4] 3600 	ld	e, c
    00001023 50               [ 4] 3601 	ld	d, b
    00001024 7B               [ 4] 3602 	ld	a, e
    00001025 D6 EC            [ 7] 3603 	sub	a, #0xec
    00001027 7A               [ 4] 3604 	ld	a, d
    00001028 DE 00            [ 7] 3605 	sbc	a, #0x00
    0000102A 30 04            [12] 3606 	jr	NC, 00125$
    0000102C 03               [ 6] 3607 	inc	bc
    0000102D 71               [ 7] 3608 	ld	(hl), c
    0000102E 23               [ 6] 3609 	inc	hl
    0000102F 70               [ 7] 3610 	ld	(hl), b
    00001030                       3611 00125$:
                                   3612 ;./exsoccer.c:690: bool animFrame1 = ((g_Timer / 8) % 2) == 0;
    00001030 3Ar41r00         [13] 3613 	ld	a, (_g_Timer+0)
    00001033 5F               [ 4] 3614 	ld	e, a
    00001034 16 00            [ 7] 3615 	ld	d, #0x00
    00001036 4B               [ 4] 3616 	ld	c, e
    00001037 42               [ 4] 3617 	ld	b, d
    00001038 CB 7A            [ 8] 3618 	bit	7, d
    0000103A 28 06            [12] 3619 	jr	Z, 00162$
    0000103C 21 07 00         [10] 3620 	ld	hl, #0x0007
    0000103F 19               [11] 3621 	add	hl, de
    00001040 4D               [ 4] 3622 	ld	c, l
    00001041 44               [ 4] 3623 	ld	b, h
    00001042                       3624 00162$:
    00001042 DD 71 FD         [19] 3625 	ld	-3 (ix), c
    00001045 DD 70 FE         [19] 3626 	ld	-2 (ix), b
    00001048 DD CB FE 2E      [23] 3627 	sra	-2 (ix)
    0000104C DD CB FD 1E      [23] 3628 	rr	-3 (ix)
    00001050 DD CB FE 2E      [23] 3629 	sra	-2 (ix)
    00001054 DD CB FD 1E      [23] 3630 	rr	-3 (ix)
    00001058 DD CB FE 2E      [23] 3631 	sra	-2 (ix)
    0000105C DD CB FD 1E      [23] 3632 	rr	-3 (ix)
    00001060 11 02 00         [10] 3633 	ld	de, #0x0002
    00001063 DD 6E FD         [19] 3634 	ld	l, -3 (ix)
                                   3635 ;	spillPairReg hl
                                   3636 ;	spillPairReg hl
    00001066 DD 66 FE         [19] 3637 	ld	h, -2 (ix)
                                   3638 ;	spillPairReg hl
                                   3639 ;	spillPairReg hl
    00001069 CDr00r00         [17] 3640 	call	__modsint
    0000106C DD 73 FD         [19] 3641 	ld	-3 (ix), e
    0000106F DD 72 FE         [19] 3642 	ld	-2 (ix), d
    00001072 DD 7E FD         [19] 3643 	ld	a, -3 (ix)
    00001075 B7               [ 4] 3644 	or	a, a
    00001076 DD B6 FE         [19] 3645 	or	a, -2 (ix)
    00001079 3E 01            [ 7] 3646 	ld	a, #0x01
    0000107B 28 01            [12] 3647 	jr	Z, 00390$
    0000107D AF               [ 4] 3648 	xor	a, a
    0000107E                       3649 00390$:
    0000107E DD 77 FE         [19] 3650 	ld	-2 (ix), a
                                   3651 ;./exsoccer.c:693: if (isBack) g_Players[i].PatternId = (animFrame1) ? PLAYER_POSE_CELEBRATION_BACK_1 : PLAYER_POSE_CELEBRATION_BACK_2;
    00001081 DD 7E FC         [19] 3652 	ld	a, -4 (ix)
    00001084 B7               [ 4] 3653 	or	a, a
    00001085 28 2C            [12] 3654 	jr	Z, 00128$
    00001087 DD 7E FE         [19] 3655 	ld	a, -2 (ix)
    0000108A B7               [ 4] 3656 	or	a, a
    0000108B 28 0B            [12] 3657 	jr	Z, 00163$
    0000108D DD 36 FD 32      [19] 3658 	ld	-3 (ix), #0x32
    00001091 DD 36 FE 00      [19] 3659 	ld	-2 (ix), #0
    00001095 C3rA0r10         [10] 3660 	jp	00164$
    00001098                       3661 00163$:
    00001098 DD 36 FD 33      [19] 3662 	ld	-3 (ix), #0x33
    0000109C DD 36 FE 00      [19] 3663 	ld	-2 (ix), #0
    000010A0                       3664 00164$:
    000010A0 DD 7E FD         [19] 3665 	ld	a, -3 (ix)
    000010A3 DD 77 FE         [19] 3666 	ld	-2 (ix), a
    000010A6 DD 6E FA         [19] 3667 	ld	l, -6 (ix)
    000010A9 DD 66 FB         [19] 3668 	ld	h, -5 (ix)
    000010AC DD 7E FE         [19] 3669 	ld	a, -2 (ix)
    000010AF 77               [ 7] 3670 	ld	(hl), a
    000010B0 C3r19r11         [10] 3671 	jp	00133$
    000010B3                       3672 00128$:
                                   3673 ;./exsoccer.c:694: else g_Players[i].PatternId = (animFrame1) ? PLAYER_POSE_CELEBRATION_FRONT_1 : PLAYER_POSE_CELEBRATION_FRONT_2;
    000010B3 DD 7E FE         [19] 3674 	ld	a, -2 (ix)
    000010B6 B7               [ 4] 3675 	or	a, a
    000010B7 28 0B            [12] 3676 	jr	Z, 00165$
    000010B9 DD 36 FD 30      [19] 3677 	ld	-3 (ix), #0x30
    000010BD DD 36 FE 00      [19] 3678 	ld	-2 (ix), #0
    000010C1 C3rCCr10         [10] 3679 	jp	00166$
    000010C4                       3680 00165$:
    000010C4 DD 36 FD 31      [19] 3681 	ld	-3 (ix), #0x31
    000010C8 DD 36 FE 00      [19] 3682 	ld	-2 (ix), #0
    000010CC                       3683 00166$:
    000010CC DD 7E FD         [19] 3684 	ld	a, -3 (ix)
    000010CF DD 6E FA         [19] 3685 	ld	l, -6 (ix)
    000010D2 DD 66 FB         [19] 3686 	ld	h, -5 (ix)
    000010D5 77               [ 7] 3687 	ld	(hl), a
    000010D6 C3r19r11         [10] 3688 	jp	00133$
    000010D9                       3689 00131$:
                                   3690 ;./exsoccer.c:698: bool isUp = (dir == DIRECTION_UP || dir == DIRECTION_UP_LEFT || dir == DIRECTION_UP_RIGHT);
    000010D9 DD 7E FE         [19] 3691 	ld	a, -2 (ix)
    000010DC 3D               [ 4] 3692 	dec	a
    000010DD 28 12            [12] 3693 	jr	Z, 00168$
    000010DF DD 7E FE         [19] 3694 	ld	a, -2 (ix)
    000010E2 D6 08            [ 7] 3695 	sub	a, #0x08
    000010E4 28 0B            [12] 3696 	jr	Z, 00168$
    000010E6 DD 7E FE         [19] 3697 	ld	a, -2 (ix)
    000010E9 D6 02            [ 7] 3698 	sub	a, #0x02
    000010EB 28 04            [12] 3699 	jr	Z, 00168$
    000010ED AF               [ 4] 3700 	xor	a, a
    000010EE C3rF3r10         [10] 3701 	jp	00169$
    000010F1                       3702 00168$:
    000010F1 3E 01            [ 7] 3703 	ld	a, #0x01
    000010F3                       3704 00169$:
                                   3705 ;./exsoccer.c:699: g_Players[i].PatternId = isUp ? PLAYER_POSE_BACK : PLAYER_POSE_FRONT;
    000010F3 B7               [ 4] 3706 	or	a, a
    000010F4 28 0B            [12] 3707 	jr	Z, 00173$
    000010F6 DD 36 FD 11      [19] 3708 	ld	-3 (ix), #0x11
    000010FA DD 36 FE 00      [19] 3709 	ld	-2 (ix), #0
    000010FE C3r09r11         [10] 3710 	jp	00174$
    00001101                       3711 00173$:
    00001101 DD 36 FD 10      [19] 3712 	ld	-3 (ix), #0x10
    00001105 DD 36 FE 00      [19] 3713 	ld	-2 (ix), #0
    00001109                       3714 00174$:
    00001109 DD 7E FD         [19] 3715 	ld	a, -3 (ix)
    0000110C DD 77 FE         [19] 3716 	ld	-2 (ix), a
    0000110F DD 6E FA         [19] 3717 	ld	l, -6 (ix)
    00001112 DD 66 FB         [19] 3718 	ld	h, -5 (ix)
    00001115 DD 7E FE         [19] 3719 	ld	a, -2 (ix)
    00001118 77               [ 7] 3720 	ld	(hl), a
    00001119                       3721 00133$:
                                   3722 ;./exsoccer.c:664: for(u8 i=0; i<15; i++){
    00001119 DD 34 FF         [23] 3723 	inc	-1 (ix)
    0000111C C3r14r0F         [10] 3724 	jp	00154$
    0000111F                       3725 00136$:
                                   3726 ;./exsoccer.c:704: if(g_Timer > 150){
    0000111F 3E 96            [ 7] 3727 	ld	a, #0x96
    00001121 21r41r00         [10] 3728 	ld	hl, #_g_Timer
    00001124 96               [ 7] 3729 	sub	a, (hl)
    00001125 D2r3Fr12         [10] 3730 	jp	NC, 00158$
                                   3731 ;E:/Dropbox/FAUSTO/SVILUPPI/MSX/CODE/C/MSXgl/engine/src/v9990.h:480: inline void V9_SetBackgroundColor(u8 color) { V9_SetRegister(15, color); }
    00001128 2E 01            [ 7] 3732 	ld	l, #0x01
                                   3733 ;	spillPairReg hl
                                   3734 ;	spillPairReg hl
    0000112A 3E 0F            [ 7] 3735 	ld	a, #0x0f
    0000112C CDr00r00         [17] 3736 	call	_V9_SetRegister
                                   3737 ;./exsoccer.c:706: ClearTextFromLayerA(12, 18, 8); // "IN  GOAL"
    0000112F 3E 08            [ 7] 3738 	ld	a, #0x08
    00001131 F5               [11] 3739 	push	af
    00001132 33               [ 6] 3740 	inc	sp
    00001133 2E 12            [ 7] 3741 	ld	l, #0x12
                                   3742 ;	spillPairReg hl
                                   3743 ;	spillPairReg hl
    00001135 3E 0C            [ 7] 3744 	ld	a, #0x0c
    00001137 CDr00r00         [17] 3745 	call	_ClearTextFromLayerA
                                   3746 ;./exsoccer.c:708: g_MatchStatus = MATCH_BEFORE_KICK_OFF;
    0000113A 21r3Fr00         [10] 3747 	ld	hl, #_g_MatchStatus
    0000113D 36 01            [10] 3748 	ld	(hl), #0x01
                                   3749 ;./exsoccer.c:709: g_Ball.PossessionPlayerId = NO_VALUE;
    0000113F 21r67r11         [10] 3750 	ld	hl, #(_g_Ball + 6)
    00001142 36 FF            [10] 3751 	ld	(hl), #0xff
                                   3752 ;./exsoccer.c:710: g_Ball.KickMoveState = 0;
    00001144 21r6Er11         [10] 3753 	ld	hl, #(_g_Ball + 13)
    00001147 36 00            [10] 3754 	ld	(hl), #0x00
                                   3755 ;./exsoccer.c:711: g_Ball.ShotActive = 0;
    00001149 21r7Cr11         [10] 3756 	ld	hl, #(_g_Ball + 27)
    0000114C 36 00            [10] 3757 	ld	(hl), #0x00
                                   3758 ;./exsoccer.c:712: if(g_Team1ActivePlayer!=NO_VALUE) g_Players[g_Team1ActivePlayer].Status=PLAYER_STATUS_NONE;
    0000114E 3Ar42r00         [13] 3759 	ld	a, (_g_Team1ActivePlayer+0)
    00001151 3C               [ 4] 3760 	inc	a
    00001152 28 1A            [12] 3761 	jr	Z, 00138$
    00001154 01r08r10         [10] 3762 	ld	bc, #_g_Players+0
    00001157 ED 5Br42r00      [20] 3763 	ld	de, (_g_Team1ActivePlayer)
    0000115B 16 00            [ 7] 3764 	ld	d, #0x00
    0000115D 6B               [ 4] 3765 	ld	l, e
    0000115E 62               [ 4] 3766 	ld	h, d
    0000115F 29               [11] 3767 	add	hl, hl
    00001160 29               [11] 3768 	add	hl, hl
    00001161 19               [11] 3769 	add	hl, de
    00001162 29               [11] 3770 	add	hl, hl
    00001163 29               [11] 3771 	add	hl, hl
    00001164 19               [11] 3772 	add	hl, de
    00001165 09               [11] 3773 	add	hl, bc
    00001166 01 12 00         [10] 3774 	ld	bc, #0x0012
    00001169 09               [11] 3775 	add	hl, bc
    0000116A AF               [ 4] 3776 	xor	a, a
    0000116B 77               [ 7] 3777 	ld	(hl), a
    0000116C 23               [ 6] 3778 	inc	hl
    0000116D 77               [ 7] 3779 	ld	(hl), a
    0000116E                       3780 00138$:
                                   3781 ;./exsoccer.c:713: if(g_Team2ActivePlayer!=NO_VALUE) g_Players[g_Team2ActivePlayer].Status=PLAYER_STATUS_NONE;
    0000116E 3Ar43r00         [13] 3782 	ld	a, (_g_Team2ActivePlayer+0)
    00001171 3C               [ 4] 3783 	inc	a
    00001172 28 1A            [12] 3784 	jr	Z, 00140$
    00001174 01r08r10         [10] 3785 	ld	bc, #_g_Players+0
    00001177 ED 5Br43r00      [20] 3786 	ld	de, (_g_Team2ActivePlayer)
    0000117B 16 00            [ 7] 3787 	ld	d, #0x00
    0000117D 6B               [ 4] 3788 	ld	l, e
    0000117E 62               [ 4] 3789 	ld	h, d
    0000117F 29               [11] 3790 	add	hl, hl
    00001180 29               [11] 3791 	add	hl, hl
    00001181 19               [11] 3792 	add	hl, de
    00001182 29               [11] 3793 	add	hl, hl
    00001183 29               [11] 3794 	add	hl, hl
    00001184 19               [11] 3795 	add	hl, de
    00001185 09               [11] 3796 	add	hl, bc
    00001186 01 12 00         [10] 3797 	ld	bc, #0x0012
    00001189 09               [11] 3798 	add	hl, bc
    0000118A AF               [ 4] 3799 	xor	a, a
    0000118B 77               [ 7] 3800 	ld	(hl), a
    0000118C 23               [ 6] 3801 	inc	hl
    0000118D 77               [ 7] 3802 	ld	(hl), a
    0000118E                       3803 00140$:
                                   3804 ;./exsoccer.c:714: g_Team1ActivePlayer=NO_VALUE;
    0000118E 21r42r00         [10] 3805 	ld	hl, #_g_Team1ActivePlayer
    00001191 36 FF            [10] 3806 	ld	(hl), #0xff
                                   3807 ;./exsoccer.c:715: g_Team2ActivePlayer=NO_VALUE;
    00001193 21r43r00         [10] 3808 	ld	hl, #_g_Team2ActivePlayer
    00001196 36 FF            [10] 3809 	ld	(hl), #0xff
                                   3810 ;./exsoccer.c:717: g_Ball.X = FIELD_POS_X_CENTER;
    00001198 21 78 00         [10] 3811 	ld	hl, #0x0078
    0000119B 22r63r11         [16] 3812 	ld	((_g_Ball + 2)), hl
                                   3813 ;./exsoccer.c:718: g_Ball.Y = FIELD_POS_Y_CENTER;
    0000119E 2E F3            [ 7] 3814 	ld	l, #0xf3
    000011A0 22r61r11         [16] 3815 	ld	(_g_Ball), hl
                                   3816 ;./exsoccer.c:719: g_Ball.PreviousY = g_Ball.Y;
    000011A3 ED 4Br61r11      [20] 3817 	ld	bc, (#_g_Ball + 0)
    000011A7 ED 43r68r11      [20] 3818 	ld	((_g_Ball + 7)), bc
                                   3819 ;./exsoccer.c:720: PutBallSprite();
    000011AB CDr00r00         [17] 3820 	call	_PutBallSprite
                                   3821 ;./exsoccer.c:722: for(u8 i=0; i<15; i++){
    000011AE 11r08r10         [10] 3822 	ld	de, #_g_Players
    000011B1 DD 36 FF 00      [19] 3823 	ld	-1 (ix), #0x00
    000011B5                       3824 00156$:
    000011B5 DD 7E FF         [19] 3825 	ld	a, -1 (ix)
    000011B8 D6 0F            [ 7] 3826 	sub	a, #0x0f
    000011BA D2r3Ar12         [10] 3827 	jp	NC, 00147$
                                   3828 ;./exsoccer.c:723: if(i==REFEREE || g_Players[i].TeamId==TEAM_1 || g_Players[i].TeamId==TEAM_2){
    000011BD DD 7E FF         [19] 3829 	ld	a, -1 (ix)
    000011C0 D6 0E            [ 7] 3830 	sub	a, #0x0e
    000011C2 3E 01            [ 7] 3831 	ld	a, #0x01
    000011C4 28 01            [12] 3832 	jr	Z, 00397$
    000011C6 AF               [ 4] 3833 	xor	a, a
    000011C7                       3834 00397$:
    000011C7 4F               [ 4] 3835 	ld	c, a
    000011C8 B7               [ 4] 3836 	or	a, a
    000011C9 20 24            [12] 3837 	jr	NZ, 00143$
    000011CB D5               [11] 3838 	push	de
    000011CC DD 5E FF         [19] 3839 	ld	e, -1 (ix)
    000011CF 16 00            [ 7] 3840 	ld	d, #0x00
    000011D1 6B               [ 4] 3841 	ld	l, e
    000011D2 62               [ 4] 3842 	ld	h, d
    000011D3 29               [11] 3843 	add	hl, hl
    000011D4 29               [11] 3844 	add	hl, hl
    000011D5 19               [11] 3845 	add	hl, de
    000011D6 29               [11] 3846 	add	hl, hl
    000011D7 29               [11] 3847 	add	hl, hl
    000011D8 19               [11] 3848 	add	hl, de
    000011D9 D1               [10] 3849 	pop	de
    000011DA FD 21r08r10      [14] 3850 	ld	iy, #_g_Players
    000011DE C5               [11] 3851 	push	bc
    000011DF 4D               [ 4] 3852 	ld	c, l
    000011E0 44               [ 4] 3853 	ld	b, h
    000011E1 FD 09            [15] 3854 	add	iy, bc
    000011E3 C1               [10] 3855 	pop	bc
    000011E4 FD 7E 09         [19] 3856 	ld	a, 9 (iy)
    000011E7 FE 01            [ 7] 3857 	cp	a, #0x01
    000011E9 28 04            [12] 3858 	jr	Z, 00143$
    000011EB D6 02            [ 7] 3859 	sub	a, #0x02
    000011ED 20 45            [12] 3860 	jr	NZ, 00157$
    000011EF                       3861 00143$:
                                   3862 ;./exsoccer.c:725: if (i==REFEREE) {
    000011EF 79               [ 4] 3863 	ld	a, c
    000011F0 B7               [ 4] 3864 	or	a, a
    000011F1 28 39            [12] 3865 	jr	Z, 00142$
                                   3866 ;./exsoccer.c:726: g_Players[i].Direction=DIRECTION_RIGHT;
    000011F3 DD 4E FF         [19] 3867 	ld	c, -1 (ix)
    000011F6 06 00            [ 7] 3868 	ld	b, #0x00
    000011F8 69               [ 4] 3869 	ld	l, c
    000011F9 60               [ 4] 3870 	ld	h, b
    000011FA 29               [11] 3871 	add	hl, hl
    000011FB 29               [11] 3872 	add	hl, hl
    000011FC 09               [11] 3873 	add	hl, bc
    000011FD 29               [11] 3874 	add	hl, hl
    000011FE 29               [11] 3875 	add	hl, hl
    000011FF 09               [11] 3876 	add	hl, bc
    00001200 DD 75 FB         [19] 3877 	ld	-5 (ix), l
    00001203 DD 74 FC         [19] 3878 	ld	-4 (ix), h
    00001206 7B               [ 4] 3879 	ld	a, e
    00001207 DD 86 FB         [19] 3880 	add	a, -5 (ix)
    0000120A DD 77 FD         [19] 3881 	ld	-3 (ix), a
    0000120D 7A               [ 4] 3882 	ld	a, d
    0000120E DD 8E FC         [19] 3883 	adc	a, -4 (ix)
    00001211 DD 77 FE         [19] 3884 	ld	-2 (ix), a
    00001214 DD 6E FD         [19] 3885 	ld	l, -3 (ix)
    00001217 DD 66 FE         [19] 3886 	ld	h, -2 (ix)
    0000121A 01 0A 00         [10] 3887 	ld	bc, #0x000a
    0000121D 09               [11] 3888 	add	hl, bc
    0000121E 36 03            [10] 3889 	ld	(hl), #0x03
                                   3890 ;./exsoccer.c:727: g_Players[i].LastPose=0;
    00001220 DD 6E FD         [19] 3891 	ld	l, -3 (ix)
    00001223 DD 66 FE         [19] 3892 	ld	h, -2 (ix)
    00001226 01 0C 00         [10] 3893 	ld	bc, #0x000c
    00001229 09               [11] 3894 	add	hl, bc
    0000122A 36 00            [10] 3895 	ld	(hl), #0x00
    0000122C                       3896 00142$:
                                   3897 ;./exsoccer.c:729: SetPlayerTarget(i); 
    0000122C D5               [11] 3898 	push	de
    0000122D DD 7E FF         [19] 3899 	ld	a, -1 (ix)
    00001230 CDr03r17         [17] 3900 	call	_SetPlayerTarget
    00001233 D1               [10] 3901 	pop	de
    00001234                       3902 00157$:
                                   3903 ;./exsoccer.c:722: for(u8 i=0; i<15; i++){
    00001234 DD 34 FF         [23] 3904 	inc	-1 (ix)
    00001237 C3rB5r11         [10] 3905 	jp	00156$
    0000123A                       3906 00147$:
                                   3907 ;./exsoccer.c:734: ShowFieldZone(FIELD_CENTRAL_ZONE);
    0000123A 3E 01            [ 7] 3908 	ld	a, #0x01
    0000123C CDr00r00         [17] 3909 	call	_ShowFieldZone
    0000123F                       3910 00158$:
                                   3911 ;./exsoccer.c:736: }
    0000123F DD F9            [10] 3912 	ld	sp, ix
    00001241 DD E1            [14] 3913 	pop	ix
    00001243 C9               [10] 3914 	ret
    00001244                       3915 _TickGoalCelebration_k_CelebDX_131073_1769:
    00001244 00                    3916 	.db #0x00	;  0
    00001245 00                    3917 	.db #0x00	;  0
    00001246 01                    3918 	.db #0x01	;  1
    00001247 01                    3919 	.db #0x01	;  1
    00001248 01                    3920 	.db #0x01	;  1
    00001249 00                    3921 	.db #0x00	;  0
    0000124A FF                    3922 	.db #0xff	; -1
    0000124B FF                    3923 	.db #0xff	; -1
    0000124C FF                    3924 	.db #0xff	; -1
    0000124D                       3925 _TickGoalCelebration_k_CelebDY_131073_1769:
    0000124D 00                    3926 	.db #0x00	;  0
    0000124E FF                    3927 	.db #0xff	; -1
    0000124F FF                    3928 	.db #0xff	; -1
    00001250 00                    3929 	.db #0x00	;  0
    00001251 01                    3930 	.db #0x01	;  1
    00001252 01                    3931 	.db #0x01	;  1
    00001253 01                    3932 	.db #0x01	;  1
    00001254 00                    3933 	.db #0x00	;  0
    00001255 FF                    3934 	.db #0xff	; -1
                                   3935 ;./exsoccer.c:737: void main()
                                   3936 ;	---------------------------------
                                   3937 ; Function main
                                   3938 ; ---------------------------------
    00001256                       3939 _main::
    00001256 DD E5            [15] 3940 	push	ix
    00001258 DD 21 00 00      [14] 3941 	ld	ix,#0
    0000125C DD 39            [15] 3942 	add	ix,sp
    0000125E 3B               [ 6] 3943 	dec	sp
                                   3944 ;./exsoccer.c:740: DEBUG_INIT();
    0000125F CDr00r00         [17] 3945 	call	_DEBUG_INIT
                                   3946 ;./exsoccer.c:741: g_PlayMatchMusic=false;
    00001262 21r00r00         [10] 3947 	ld	hl, #_g_PlayMatchMusic
    00001265 36 00            [10] 3948 	ld	(hl), #0x00
                                   3949 ;./exsoccer.c:742: InitVariables();
    00001267 CDrE4r01         [17] 3950 	call	_InitVariables
                                   3951 ;./exsoccer.c:743: V9_SetPort(V9_P15, 0);
    0000126A 2E 00            [ 7] 3952 	ld	l, #0x00
                                   3953 ;	spillPairReg hl
                                   3954 ;	spillPairReg hl
    0000126C 3E 6F            [ 7] 3955 	ld	a, #0x6f
    0000126E CDr00r00         [17] 3956 	call	_V9_SetPort
                                   3957 ;./exsoccer.c:745: VDP_SetMode(VDP_MODE_SCREEN0);
    00001271 AF               [ 4] 3958 	xor	a, a
    00001272 CDr00r00         [17] 3959 	call	_VDP_SetMode
                                   3960 ;E:/Dropbox/FAUSTO/SVILUPPI/MSX/CODE/C/MSXgl/engine/src/vdp.h:712: inline void VDP_EnableVBlank(bool enable) { VDP_RegWriteBakMask(1, (u8)~R01_IE0, enable ? R01_IE0 : 0); }
    00001275 AF               [ 4] 3961 	xor	a, a
    00001276 F5               [11] 3962 	push	af
    00001277 33               [ 6] 3963 	inc	sp
    00001278 2E DF            [ 7] 3964 	ld	l, #0xdf
                                   3965 ;	spillPairReg hl
                                   3966 ;	spillPairReg hl
    0000127A 3E 01            [ 7] 3967 	ld	a, #0x01
    0000127C CDr00r00         [17] 3968 	call	_VDP_RegWriteBakMask
                                   3969 ;./exsoccer.c:747: VDP_ClearVRAM();
    0000127F CDr00r00         [17] 3970 	call	_VDP_ClearVRAM
                                   3971 ;E:/Dropbox/FAUSTO/SVILUPPI/MSX/CODE/C/MSXgl/engine/src/rom_mapper.h:112: g_Bank0Segment[b] = s;
    00001282 21 0A 00         [10] 3972 	ld	hl, #0x000a
    00001285 22r04r00         [16] 3973 	ld	((_g_Bank0Segment + 4)), hl
                                   3974 ;E:/Dropbox/FAUSTO/SVILUPPI/MSX/CODE/C/MSXgl/engine/src/system.h:109: inline void Poke16(u16 addr, u16 val) { *(u16*)addr = val; }
    00001288 22 00 70         [16] 3975 	ld	(0x7000), hl
                                   3976 ;./exsoccer.c:754: Print_SetTextFont(g_Font_MGL_Sample6, 1);
    0000128B 3E 01            [ 7] 3977 	ld	a, #0x01
    0000128D F5               [11] 3978 	push	af
    0000128E 33               [ 6] 3979 	inc	sp
    0000128F 21r00r00         [10] 3980 	ld	hl, #_g_Font_MGL_Sample6
    00001292 CDr00r00         [17] 3981 	call	_Print_SetTextFont
                                   3982 ;E:/Dropbox/FAUSTO/SVILUPPI/MSX/CODE/C/MSXgl/engine/src/rom_mapper.h:112: g_Bank0Segment[b] = s;
    00001295 21 01 00         [10] 3983 	ld	hl, #0x0001
    00001298 22r04r00         [16] 3984 	ld	((_g_Bank0Segment + 4)), hl
                                   3985 ;E:/Dropbox/FAUSTO/SVILUPPI/MSX/CODE/C/MSXgl/engine/src/system.h:109: inline void Poke16(u16 addr, u16 val) { *(u16*)addr = val; }
    0000129B 22 00 70         [16] 3986 	ld	(0x7000), hl
                                   3987 ;./exsoccer.c:756: Print_SetColor(15, 1);
    0000129E 2E 01            [ 7] 3988 	ld	l, #0x01
                                   3989 ;	spillPairReg hl
                                   3990 ;	spillPairReg hl
    000012A0 3E 0F            [ 7] 3991 	ld	a, #0x0f
    000012A2 CDr00r00         [17] 3992 	call	_Print_SetColor
                                   3993 ;E:/Dropbox/FAUSTO/SVILUPPI/MSX/CODE/C/MSXgl/engine/src/print.h:223: g_PrintData.CursorX = x;
    000012A5 01r05r00         [10] 3994 	ld	bc, #_g_PrintData + 5
    000012A8 AF               [ 4] 3995 	xor	a, a
    000012A9 02               [ 7] 3996 	ld	(bc), a
                                   3997 ;E:/Dropbox/FAUSTO/SVILUPPI/MSX/CODE/C/MSXgl/engine/src/print.h:224: g_PrintData.CursorY = y;
    000012AA 21r06r00         [10] 3998 	ld	hl, #(_g_PrintData + 6)
    000012AD 36 00            [10] 3999 	ld	(hl), #0x00
                                   4000 ;./exsoccer.c:758: Print_DrawText("Soccer League - 2026 Fausto Pracek");
    000012AF C5               [11] 4001 	push	bc
    000012B0 21r25r13         [10] 4002 	ld	hl, #___str_1
    000012B3 CDr00r00         [17] 4003 	call	_Print_DrawText
    000012B6 C1               [10] 4004 	pop	bc
                                   4005 ;E:/Dropbox/FAUSTO/SVILUPPI/MSX/CODE/C/MSXgl/engine/src/print.h:223: g_PrintData.CursorX = x;
    000012B7 AF               [ 4] 4006 	xor	a, a
    000012B8 02               [ 7] 4007 	ld	(bc), a
                                   4008 ;E:/Dropbox/FAUSTO/SVILUPPI/MSX/CODE/C/MSXgl/engine/src/print.h:224: g_PrintData.CursorY = y;
    000012B9 21r06r00         [10] 4009 	ld	hl, #(_g_PrintData + 6)
    000012BC 36 01            [10] 4010 	ld	(hl), #0x01
                                   4011 ;./exsoccer.c:760: Print_DrawText("fpracek@gmail.com");
    000012BE C5               [11] 4012 	push	bc
    000012BF 21r48r13         [10] 4013 	ld	hl, #___str_2
    000012C2 CDr00r00         [17] 4014 	call	_Print_DrawText
    000012C5 C1               [10] 4015 	pop	bc
                                   4016 ;./exsoccer.c:762: const c8* str = "V9990 not found!";
    000012C6 11r14r13         [10] 4017 	ld	de, #___str_0
                                   4018 ;./exsoccer.c:763: bool v9990IsFound=V9_Detect();
    000012C9 C5               [11] 4019 	push	bc
    000012CA D5               [11] 4020 	push	de
    000012CB CDr00r00         [17] 4021 	call	_V9_Detect
    000012CE D1               [10] 4022 	pop	de
    000012CF C1               [10] 4023 	pop	bc
    000012D0 DD 77 FF         [19] 4024 	ld	-1 (ix), a
                                   4025 ;./exsoccer.c:765: if (v9990IsFound){
    000012D3 B7               [ 4] 4026 	or	a, a
    000012D4 28 14            [12] 4027 	jr	Z, 00102$
                                   4028 ;./exsoccer.c:766: str = "V9990 found!";
    000012D6 11r5Ar13         [10] 4029 	ld	de, #___str_3
                                   4030 ;E:/Dropbox/FAUSTO/SVILUPPI/MSX/CODE/C/MSXgl/engine/src/print.h:223: g_PrintData.CursorX = x;
    000012D9 AF               [ 4] 4031 	xor	a, a
    000012DA 02               [ 7] 4032 	ld	(bc), a
                                   4033 ;E:/Dropbox/FAUSTO/SVILUPPI/MSX/CODE/C/MSXgl/engine/src/print.h:224: g_PrintData.CursorY = y;
    000012DB 21r06r00         [10] 4034 	ld	hl, #(_g_PrintData + 6)
    000012DE 36 07            [10] 4035 	ld	(hl), #0x07
                                   4036 ;./exsoccer.c:768: Print_DrawText("The game is running on V9990 monitor.");
    000012E0 C5               [11] 4037 	push	bc
    000012E1 D5               [11] 4038 	push	de
    000012E2 21r67r13         [10] 4039 	ld	hl, #___str_4
    000012E5 CDr00r00         [17] 4040 	call	_Print_DrawText
    000012E8 D1               [10] 4041 	pop	de
    000012E9 C1               [10] 4042 	pop	bc
    000012EA                       4043 00102$:
                                   4044 ;E:/Dropbox/FAUSTO/SVILUPPI/MSX/CODE/C/MSXgl/engine/src/print.h:223: g_PrintData.CursorX = x;
    000012EA AF               [ 4] 4045 	xor	a, a
    000012EB 02               [ 7] 4046 	ld	(bc), a
                                   4047 ;E:/Dropbox/FAUSTO/SVILUPPI/MSX/CODE/C/MSXgl/engine/src/print.h:224: g_PrintData.CursorY = y;
    000012EC 21r06r00         [10] 4048 	ld	hl, #(_g_PrintData + 6)
    000012EF 36 03            [10] 4049 	ld	(hl), #0x03
                                   4050 ;./exsoccer.c:771: Print_DrawText(str);
    000012F1 EB               [ 4] 4051 	ex	de, hl
    000012F2 CDr00r00         [17] 4052 	call	_Print_DrawText
                                   4053 ;./exsoccer.c:772: if(!v9990IsFound){
    000012F5 DD 7E FF         [19] 4054 	ld	a, -1 (ix)
    000012F8 B7               [ 4] 4055 	or	a, a
    000012F9 20 03            [12] 4056 	jr	NZ, 00105$
    000012FB                       4057 00136$:
    000012FB C3rFBr12         [10] 4058 	jp	00136$
    000012FE                       4059 00105$:
                                   4060 ;./exsoccer.c:776: PlayPT3Music(PT3_MATCH);
    000012FE 3E 0B            [ 7] 4061 	ld	a, #0x0b
    00001300 CDr2Ar02         [17] 4062 	call	_PlayPT3Music
                                   4063 ;./exsoccer.c:778: InitializeV9990();
    00001303 CDrFBr0C         [17] 4064 	call	_InitializeV9990
                                   4065 ;./exsoccer.c:781: V9_SetPort(V9_P15, 0x10);
    00001306 2E 10            [ 7] 4066 	ld	l, #0x10
                                   4067 ;	spillPairReg hl
                                   4068 ;	spillPairReg hl
    00001308 3E 6F            [ 7] 4069 	ld	a, #0x6f
    0000130A CDr00r00         [17] 4070 	call	_V9_SetPort
                                   4071 ;./exsoccer.c:785: MainGameLoop();
    0000130D CDr8Dr13         [17] 4072 	call	_MainGameLoop
                                   4073 ;./exsoccer.c:789: }
    00001310 33               [ 6] 4074 	inc	sp
    00001311 DD E1            [14] 4075 	pop	ix
    00001313 C9               [10] 4076 	ret
    00001314                       4077 ___str_0:
    00001314 56 39 39 39 30 20 6E  4078 	.ascii "V9990 not found!"
             6F 74 20 66 6F 75 6E
             64 21
    00001324 00                    4079 	.db 0x00
    00001325                       4080 ___str_1:
    00001325 53 6F 63 63 65 72 20  4081 	.ascii "Soccer League - 2026 Fausto Pracek"
             4C 65 61 67 75 65 20
             2D 20 32 30 32 36 20
             46 61 75 73 74 6F 20
             50 72 61 63 65 6B
    00001347 00                    4082 	.db 0x00
    00001348                       4083 ___str_2:
    00001348 66 70 72 61 63 65 6B  4084 	.ascii "fpracek@gmail.com"
             40 67 6D 61 69 6C 2E
             63 6F 6D
    00001359 00                    4085 	.db 0x00
    0000135A                       4086 ___str_3:
    0000135A 56 39 39 39 30 20 66  4087 	.ascii "V9990 found!"
             6F 75 6E 64 21
    00001366 00                    4088 	.db 0x00
    00001367                       4089 ___str_4:
    00001367 54 68 65 20 67 61 6D  4090 	.ascii "The game is running on V9990 monitor."
             65 20 69 73 20 72 75
             6E 6E 69 6E 67 20 6F
             6E 20 56 39 39 39 30
             20 6D 6F 6E 69 74 6F
             72 2E
    0000138C 00                    4091 	.db 0x00
                                   4092 ;./exsoccer.c:790: void MainGameLoop(){
                                   4093 ;	---------------------------------
                                   4094 ; Function MainGameLoop
                                   4095 ; ---------------------------------
    0000138D                       4096 _MainGameLoop::
    0000138D DD E5            [15] 4097 	push	ix
    0000138F DD 21 00 00      [14] 4098 	ld	ix,#0
    00001393 DD 39            [15] 4099 	add	ix,sp
    00001395 F5               [11] 4100 	push	af
                                   4101 ;./exsoccer.c:791: u8 TickAiPlayerId=0;
    00001396 DD 36 FE 00      [19] 4102 	ld	-2 (ix), #0x00
                                   4103 ;./exsoccer.c:792: u8 AiTickSpeed=0;
    0000139A DD 36 FF 00      [19] 4104 	ld	-1 (ix), #0x00
    0000139E                       4105 00218$:
                                   4106 ;./exsoccer.c:795: UpdateV9990();
    0000139E CDrE1r01         [17] 4107 	call	_UpdateV9990
                                   4108 ;./exsoccer.c:796: if(g_PcmStartPlaying){
    000013A1 3Ar00r00         [13] 4109 	ld	a, (_g_PcmStartPlaying+0)
    000013A4 B7               [ 4] 4110 	or	a, a
    000013A5 28 0B            [12] 4111 	jr	Z, 00102$
                                   4112 ;./exsoccer.c:797: g_PcmStartPlaying=false;
    000013A7 21r00r00         [10] 4113 	ld	hl, #_g_PcmStartPlaying
    000013AA 36 00            [10] 4114 	ld	(hl), #0x00
                                   4115 ;./exsoccer.c:798: PlayPcm(g_PmcSoundPlaying);
    000013AC 3Ar02r00         [13] 4116 	ld	a, (_g_PmcSoundPlaying+0)
    000013AF CDr00r00         [17] 4117 	call	_PlayPcm
    000013B2                       4118 00102$:
                                   4119 ;./exsoccer.c:801: if(g_MatchStatus==MATCH_NOT_STARTED && g_FieldScrollingActionInProgress==NO_VALUE && g_ActiveFieldZone==FIELD_CENTRAL_ZONE){
    000013B2 3Ar3Fr00         [13] 4120 	ld	a, (_g_MatchStatus+0)
    000013B5 B7               [ 4] 4121 	or	a, a
    000013B6 20 22            [12] 4122 	jr	NZ, 00105$
    000013B8 3Ar03r10         [13] 4123 	ld	a, (_g_FieldScrollingActionInProgress+0)
    000013BB 3C               [ 4] 4124 	inc	a
    000013BC 20 1C            [12] 4125 	jr	NZ, 00105$
    000013BE 3Ar7Fr11         [13] 4126 	ld	a, (_g_ActiveFieldZone+0)
    000013C1 3D               [ 4] 4127 	dec	a
    000013C2 20 16            [12] 4128 	jr	NZ, 00105$
                                   4129 ;./exsoccer.c:802: g_MatchStatus=MATCH_BEFORE_KICK_OFF;
    000013C4 21r3Fr00         [10] 4130 	ld	hl, #_g_MatchStatus
    000013C7 36 01            [10] 4131 	ld	(hl), #0x01
                                   4132 ;./exsoccer.c:803: for(u8 i=0;i<15;i++){
    000013C9 0E 00            [ 7] 4133 	ld	c, #0x00
    000013CB                       4134 00216$:
    000013CB 79               [ 4] 4135 	ld	a, c
    000013CC D6 0F            [ 7] 4136 	sub	a, #0x0f
    000013CE 30 0A            [12] 4137 	jr	NC, 00105$
                                   4138 ;./exsoccer.c:804: SetPlayerTarget(i);
    000013D0 C5               [11] 4139 	push	bc
    000013D1 79               [ 4] 4140 	ld	a, c
    000013D2 CDr03r17         [17] 4141 	call	_SetPlayerTarget
    000013D5 C1               [10] 4142 	pop	bc
                                   4143 ;./exsoccer.c:803: for(u8 i=0;i<15;i++){
    000013D6 0C               [ 4] 4144 	inc	c
    000013D7 C3rCBr13         [10] 4145 	jp	00216$
    000013DA                       4146 00105$:
                                   4147 ;./exsoccer.c:809: TickCornerKick(); 
    000013DA CDr00r00         [17] 4148 	call	_TickCornerKick
                                   4149 ;./exsoccer.c:810: if(g_MatchStatus == MATCH_BEFORE_GOAL_KICK){
    000013DD 3Ar3Fr00         [13] 4150 	ld	a, (_g_MatchStatus+0)
    000013E0 D6 05            [ 7] 4151 	sub	a, #0x05
    000013E2 20 03            [12] 4152 	jr	NZ, 00109$
                                   4153 ;./exsoccer.c:811: TickGoalKick();
    000013E4 CDr00r00         [17] 4154 	call	_TickGoalKick
    000013E7                       4155 00109$:
                                   4156 ;./exsoccer.c:814: TickThrowIn();
    000013E7 CDr00r00         [17] 4157 	call	_TickThrowIn
                                   4158 ;E:/Dropbox/FAUSTO/SVILUPPI/MSX/CODE/C/MSXgl/engine/src/rom_mapper.h:112: g_Bank0Segment[b] = s;
    000013EA 21 17 00         [10] 4159 	ld	hl, #0x0017
    000013ED 22r04r00         [16] 4160 	ld	((_g_Bank0Segment + 4)), hl
                                   4161 ;E:/Dropbox/FAUSTO/SVILUPPI/MSX/CODE/C/MSXgl/engine/src/system.h:109: inline void Poke16(u16 addr, u16 val) { *(u16*)addr = val; }
    000013F0 22 00 70         [16] 4162 	ld	(0x7000), hl
                                   4163 ;./exsoccer.c:816: TickPonPonGirlsAnimation();
    000013F3 CDr00r00         [17] 4164 	call	_TickPonPonGirlsAnimation
                                   4165 ;./exsoccer.c:817: TickPlayerToOwnTarget();
    000013F6 CDr00r00         [17] 4166 	call	_TickPlayerToOwnTarget
                                   4167 ;E:/Dropbox/FAUSTO/SVILUPPI/MSX/CODE/C/MSXgl/engine/src/rom_mapper.h:112: g_Bank0Segment[b] = s;
    000013F9 21 01 00         [10] 4168 	ld	hl, #0x0001
    000013FC 22r04r00         [16] 4169 	ld	((_g_Bank0Segment + 4)), hl
                                   4170 ;E:/Dropbox/FAUSTO/SVILUPPI/MSX/CODE/C/MSXgl/engine/src/system.h:109: inline void Poke16(u16 addr, u16 val) { *(u16*)addr = val; }
    000013FF 22 00 70         [16] 4171 	ld	(0x7000), hl
                                   4172 ;./exsoccer.c:820: if (g_SoundRequest != NO_VALUE) {
    00001402 3Ar01r00         [13] 4173 	ld	a, (_g_SoundRequest+0)
    00001405 3C               [ 4] 4174 	inc	a
    00001406 28 0B            [12] 4175 	jr	Z, 00111$
                                   4176 ;./exsoccer.c:821: PlayPcm(g_SoundRequest);
    00001408 3Ar01r00         [13] 4177 	ld	a, (_g_SoundRequest+0)
    0000140B CDr00r00         [17] 4178 	call	_PlayPcm
                                   4179 ;./exsoccer.c:822: g_SoundRequest = NO_VALUE;
    0000140E 21r01r00         [10] 4180 	ld	hl, #_g_SoundRequest
    00001411 36 FF            [10] 4181 	ld	(hl), #0xff
    00001413                       4182 00111$:
                                   4183 ;./exsoccer.c:825: TickGoalCelebration();
    00001413 CDr75r0E         [17] 4184 	call	_TickGoalCelebration
                                   4185 ;./exsoccer.c:827: TickActiveFieldZone();
    00001416 CDr81r06         [17] 4186 	call	_TickActiveFieldZone
                                   4187 ;./exsoccer.c:828: if(g_FieldScrollingActionInProgress==NO_VALUE){
    00001419 3Ar03r10         [13] 4188 	ld	a, (_g_FieldScrollingActionInProgress+0)
    0000141C 3C               [ 4] 4189 	inc	a
    0000141D 20 6A            [12] 4190 	jr	NZ, 00125$
                                   4191 ;./exsoccer.c:830: if(g_MatchStatus == MATCH_IN_ACTION || g_MatchStatus == MATCH_BALL_ON_GOALKEEPER) {
    0000141F 3Ar3Fr00         [13] 4192 	ld	a,(_g_MatchStatus+0)
    00001422 FE 0C            [ 7] 4193 	cp	a,#0x0c
    00001424 28 04            [12] 4194 	jr	Z, 00121$
    00001426 D6 0D            [ 7] 4195 	sub	a, #0x0d
    00001428 20 5F            [12] 4196 	jr	NZ, 00125$
    0000142A                       4197 00121$:
                                   4198 ;./exsoccer.c:832: if(AiTickSpeed >= 2){ // Speed up AI cycle (was 5)
    0000142A DD 7E FF         [19] 4199 	ld	a, -1 (ix)
    0000142D D6 02            [ 7] 4200 	sub	a, #0x02
    0000142F 38 58            [12] 4201 	jr	C, 00125$
                                   4202 ;./exsoccer.c:833: AiTickSpeed=0;
    00001431 DD 36 FF 00      [19] 4203 	ld	-1 (ix), #0x00
                                   4204 ;E:/Dropbox/FAUSTO/SVILUPPI/MSX/CODE/C/MSXgl/engine/src/rom_mapper.h:112: g_Bank0Segment[b] = s;
    00001435 21 16 00         [10] 4205 	ld	hl, #0x0016
    00001438 22r04r00         [16] 4206 	ld	((_g_Bank0Segment + 4)), hl
                                   4207 ;E:/Dropbox/FAUSTO/SVILUPPI/MSX/CODE/C/MSXgl/engine/src/system.h:109: inline void Poke16(u16 addr, u16 val) { *(u16*)addr = val; }
    0000143B 22 00 70         [16] 4208 	ld	(0x7000), hl
                                   4209 ;./exsoccer.c:835: TickAI(REFEREE);
    0000143E 3E 0E            [ 7] 4210 	ld	a, #0x0e
    00001440 CDr00r00         [17] 4211 	call	_TickAI
                                   4212 ;./exsoccer.c:836: TickAI(TickAiPlayerId);
    00001443 DD 7E FE         [19] 4213 	ld	a, -2 (ix)
    00001446 CDr00r00         [17] 4214 	call	_TickAI
                                   4215 ;E:/Dropbox/FAUSTO/SVILUPPI/MSX/CODE/C/MSXgl/engine/src/rom_mapper.h:112: g_Bank0Segment[b] = s;
    00001449 21 01 00         [10] 4216 	ld	hl, #0x0001
    0000144C 22r04r00         [16] 4217 	ld	((_g_Bank0Segment + 4)), hl
                                   4218 ;E:/Dropbox/FAUSTO/SVILUPPI/MSX/CODE/C/MSXgl/engine/src/system.h:109: inline void Poke16(u16 addr, u16 val) { *(u16*)addr = val; }
    0000144F 22 00 70         [16] 4219 	ld	(0x7000), hl
                                   4220 ;./exsoccer.c:838: TickAiPlayerId++;
    00001452 DD 34 FE         [23] 4221 	inc	-2 (ix)
                                   4222 ;./exsoccer.c:839: if(TickAiPlayerId==14){ // Only iterate 0-13 (Players)
    00001455 DD 7E FE         [19] 4223 	ld	a, -2 (ix)
    00001458 D6 0E            [ 7] 4224 	sub	a, #0x0e
    0000145A 20 04            [12] 4225 	jr	NZ, 00113$
                                   4226 ;./exsoccer.c:840: TickAiPlayerId=0;
    0000145C DD 36 FE 00      [19] 4227 	ld	-2 (ix), #0x00
    00001460                       4228 00113$:
                                   4229 ;./exsoccer.c:844: if (g_Ball.PossessionPlayerId != NO_VALUE && g_Ball.PossessionPlayerId < 14) {
    00001460 01r67r11         [10] 4230 	ld	bc, #_g_Ball+6
    00001463 0A               [ 7] 4231 	ld	a, (bc)
    00001464 5F               [ 4] 4232 	ld	e, a
    00001465 3C               [ 4] 4233 	inc	a
    00001466 28 21            [12] 4234 	jr	Z, 00125$
    00001468 7B               [ 4] 4235 	ld	a, e
    00001469 D6 0E            [ 7] 4236 	sub	a, #0x0e
    0000146B 30 1C            [12] 4237 	jr	NC, 00125$
                                   4238 ;./exsoccer.c:846: if (g_Ball.PossessionPlayerId != TickAiPlayerId) {
    0000146D DD 7E FE         [19] 4239 	ld	a, -2 (ix)
    00001470 93               [ 4] 4240 	sub	a, e
    00001471 28 16            [12] 4241 	jr	Z, 00125$
                                   4242 ;E:/Dropbox/FAUSTO/SVILUPPI/MSX/CODE/C/MSXgl/engine/src/rom_mapper.h:112: g_Bank0Segment[b] = s;
    00001473 21 16 00         [10] 4243 	ld	hl, #0x0016
    00001476 22r04r00         [16] 4244 	ld	((_g_Bank0Segment + 4)), hl
                                   4245 ;E:/Dropbox/FAUSTO/SVILUPPI/MSX/CODE/C/MSXgl/engine/src/system.h:109: inline void Poke16(u16 addr, u16 val) { *(u16*)addr = val; }
    00001479 22 00 70         [16] 4246 	ld	(0x7000), hl
                                   4247 ;./exsoccer.c:848: TickAI(g_Ball.PossessionPlayerId);
    0000147C 0A               [ 7] 4248 	ld	a, (bc)
    0000147D CDr00r00         [17] 4249 	call	_TickAI
                                   4250 ;E:/Dropbox/FAUSTO/SVILUPPI/MSX/CODE/C/MSXgl/engine/src/rom_mapper.h:112: g_Bank0Segment[b] = s;
    00001480 21 01 00         [10] 4251 	ld	hl, #0x0001
    00001483 22r04r00         [16] 4252 	ld	((_g_Bank0Segment + 4)), hl
                                   4253 ;E:/Dropbox/FAUSTO/SVILUPPI/MSX/CODE/C/MSXgl/engine/src/system.h:109: inline void Poke16(u16 addr, u16 val) { *(u16*)addr = val; }
    00001486 22 00 70         [16] 4254 	ld	(0x7000), hl
                                   4255 ;./exsoccer.c:849: SET_BANK_SEGMENT(2,1);
    00001489                       4256 00125$:
                                   4257 ;./exsoccer.c:857: EnforcePenaltyBoxRestriction();
    00001489 CDr00r00         [17] 4258 	call	_EnforcePenaltyBoxRestriction
                                   4259 ;./exsoccer.c:859: UpdateSpritesPositions();
    0000148C CDr00r00         [17] 4260 	call	_UpdateSpritesPositions
                                   4261 ;./exsoccer.c:860: TickShotCursor();
    0000148F CDr2Fr0D         [17] 4262 	call	_TickShotCursor
                                   4263 ;./exsoccer.c:861: TickUpdateTime();
    00001492 CDrE1r06         [17] 4264 	call	_TickUpdateTime
                                   4265 ;./exsoccer.c:862: TickShowKickOff();
    00001495 CDr00r00         [17] 4266 	call	_TickShowKickOff
                                   4267 ;./exsoccer.c:863: if(g_FieldScrollingActionInProgress==NO_VALUE){
    00001498 3Ar03r10         [13] 4268 	ld	a, (_g_FieldScrollingActionInProgress+0)
    0000149B 3C               [ 4] 4269 	inc	a
    0000149C 20 0C            [12] 4270 	jr	NZ, 00127$
                                   4271 ;./exsoccer.c:864: TickBallCollision();
    0000149E CDr00r00         [17] 4272 	call	_TickBallCollision
                                   4273 ;./exsoccer.c:865: TickBallFlying();
    000014A1 CDr00r00         [17] 4274 	call	_TickBallFlying
                                   4275 ;./exsoccer.c:866: UpdatePassTarget();
    000014A4 CDr00r00         [17] 4276 	call	_UpdatePassTarget
                                   4277 ;./exsoccer.c:867: TickGoalkeeperAnimation();
    000014A7 CDr00r00         [17] 4278 	call	_TickGoalkeeperAnimation
    000014AA                       4279 00127$:
                                   4280 ;./exsoccer.c:870: TickCheckBallBoundaries();
    000014AA CDr00r00         [17] 4281 	call	_TickCheckBallBoundaries
                                   4282 ;./exsoccer.c:871: TickTeamJoystick(TEAM_1,GetJoystick1Direction());
    000014AD CDr00r00         [17] 4283 	call	_GetJoystick1Direction
    000014B0 6F               [ 4] 4284 	ld	l, a
                                   4285 ;	spillPairReg hl
                                   4286 ;	spillPairReg hl
    000014B1 3E 01            [ 7] 4287 	ld	a, #0x01
    000014B3 CDr00r00         [17] 4288 	call	_TickTeamJoystick
                                   4289 ;./exsoccer.c:872: if(g_GameWith2Players){
    000014B6 3Ar45r00         [13] 4290 	ld	a, (_g_GameWith2Players+0)
    000014B9 B7               [ 4] 4291 	or	a, a
    000014BA 28 09            [12] 4292 	jr	Z, 00129$
                                   4293 ;./exsoccer.c:873: TickTeamJoystick(TEAM_2,GetJoystick2Direction());
    000014BC CDr00r00         [17] 4294 	call	_GetJoystick2Direction
    000014BF 6F               [ 4] 4295 	ld	l, a
                                   4296 ;	spillPairReg hl
                                   4297 ;	spillPairReg hl
    000014C0 3E 02            [ 7] 4298 	ld	a, #0x02
    000014C2 CDr00r00         [17] 4299 	call	_TickTeamJoystick
    000014C5                       4300 00129$:
                                   4301 ;./exsoccer.c:876: AiTickSpeed++;
    000014C5 DD 34 FF         [23] 4302 	inc	-1 (ix)
                                   4303 ;./exsoccer.c:878: if (g_ActionCooldown > 0) {
    000014C8 3Ar47r00         [13] 4304 	ld	a, (_g_ActionCooldown+0)
    000014CB B7               [ 4] 4305 	or	a, a
    000014CC 28 07            [12] 4306 	jr	Z, 00138$
                                   4307 ;./exsoccer.c:879: g_ActionCooldown--;
    000014CE 21r47r00         [10] 4308 	ld	hl, #_g_ActionCooldown
    000014D1 35               [11] 4309 	dec	(hl)
    000014D2 C3r2Dr15         [10] 4310 	jp	00139$
    000014D5                       4311 00138$:
                                   4312 ;./exsoccer.c:882: if (g_Team1ActivePlayer != NO_VALUE && g_Players[g_Team1ActivePlayer].Status == PLAYER_STATUS_POSITIONED) 
    000014D5 3Ar42r00         [13] 4313 	ld	a, (_g_Team1ActivePlayer+0)
    000014D8 3C               [ 4] 4314 	inc	a
    000014D9 28 23            [12] 4315 	jr	Z, 00131$
    000014DB 01r08r10         [10] 4316 	ld	bc, #_g_Players+0
    000014DE ED 5Br42r00      [20] 4317 	ld	de, (_g_Team1ActivePlayer)
    000014E2 16 00            [ 7] 4318 	ld	d, #0x00
    000014E4 6B               [ 4] 4319 	ld	l, e
    000014E5 62               [ 4] 4320 	ld	h, d
    000014E6 29               [11] 4321 	add	hl, hl
    000014E7 29               [11] 4322 	add	hl, hl
    000014E8 19               [11] 4323 	add	hl, de
    000014E9 29               [11] 4324 	add	hl, hl
    000014EA 29               [11] 4325 	add	hl, hl
    000014EB 19               [11] 4326 	add	hl, de
    000014EC 09               [11] 4327 	add	hl, bc
    000014ED 01 12 00         [10] 4328 	ld	bc, #0x0012
    000014F0 09               [11] 4329 	add	hl, bc
    000014F1 4E               [ 7] 4330 	ld	c, (hl)
    000014F2 23               [ 6] 4331 	inc	hl
    000014F3 46               [ 7] 4332 	ld	b, (hl)
    000014F4 2B               [ 6] 4333 	dec	hl
    000014F5 79               [ 4] 4334 	ld	a, c
    000014F6 D6 04            [ 7] 4335 	sub	a, #0x04
                                   4336 ;./exsoccer.c:883: g_Players[g_Team1ActivePlayer].Status = PLAYER_STATUS_NONE;
    000014F8 B0               [ 4] 4337 	or	a,b
    000014F9 20 03            [12] 4338 	jr	NZ, 00131$
    000014FB 77               [ 7] 4339 	ld	(hl), a
    000014FC 23               [ 6] 4340 	inc	hl
    000014FD 77               [ 7] 4341 	ld	(hl), a
    000014FE                       4342 00131$:
                                   4343 ;./exsoccer.c:884: if (g_GameWith2Players && g_Team2ActivePlayer != NO_VALUE && g_Players[g_Team2ActivePlayer].Status == PLAYER_STATUS_POSITIONED)
    000014FE 3Ar45r00         [13] 4344 	ld	a, (_g_GameWith2Players+0)
    00001501 B7               [ 4] 4345 	or	a, a
    00001502 28 29            [12] 4346 	jr	Z, 00139$
    00001504 3Ar43r00         [13] 4347 	ld	a, (_g_Team2ActivePlayer+0)
    00001507 3C               [ 4] 4348 	inc	a
    00001508 28 23            [12] 4349 	jr	Z, 00139$
    0000150A ED 4Br43r00      [20] 4350 	ld	bc, (_g_Team2ActivePlayer)
    0000150E 06 00            [ 7] 4351 	ld	b, #0x00
    00001510 69               [ 4] 4352 	ld	l, c
    00001511 60               [ 4] 4353 	ld	h, b
    00001512 29               [11] 4354 	add	hl, hl
    00001513 29               [11] 4355 	add	hl, hl
    00001514 09               [11] 4356 	add	hl, bc
    00001515 29               [11] 4357 	add	hl, hl
    00001516 29               [11] 4358 	add	hl, hl
    00001517 09               [11] 4359 	add	hl, bc
    00001518 11r08r10         [10] 4360 	ld	de, #_g_Players
    0000151B 19               [11] 4361 	add	hl, de
    0000151C 01 12 00         [10] 4362 	ld	bc, #0x0012
    0000151F 09               [11] 4363 	add	hl, bc
    00001520 4E               [ 7] 4364 	ld	c, (hl)
    00001521 23               [ 6] 4365 	inc	hl
    00001522 46               [ 7] 4366 	ld	b, (hl)
    00001523 2B               [ 6] 4367 	dec	hl
    00001524 79               [ 4] 4368 	ld	a, c
    00001525 D6 04            [ 7] 4369 	sub	a, #0x04
                                   4370 ;./exsoccer.c:885: g_Players[g_Team2ActivePlayer].Status = PLAYER_STATUS_NONE;
    00001527 B0               [ 4] 4371 	or	a,b
    00001528 20 03            [12] 4372 	jr	NZ, 00139$
    0000152A 77               [ 7] 4373 	ld	(hl), a
    0000152B 23               [ 6] 4374 	inc	hl
    0000152C 77               [ 7] 4375 	ld	(hl), a
    0000152D                       4376 00139$:
                                   4377 ;./exsoccer.c:888: if (g_ShootCooldown > 0) {
    0000152D 3Ar48r00         [13] 4378 	ld	a, (_g_ShootCooldown+0)
    00001530 B7               [ 4] 4379 	or	a, a
    00001531 CAr9Er13         [10] 4380 	jp	Z, 00218$
                                   4381 ;./exsoccer.c:889: g_ShootCooldown--;
    00001534 21r48r00         [10] 4382 	ld	hl, #_g_ShootCooldown
    00001537 35               [11] 4383 	dec	(hl)
                                   4384 ;./exsoccer.c:892: }
    00001538 C3r9Er13         [10] 4385 	jp	00218$
                                   4386 ;./exsoccer.c:893: void UpdatePlayerPatternByDirection(u8 playerId){
                                   4387 ;	---------------------------------
                                   4388 ; Function UpdatePlayerPatternByDirection
                                   4389 ; ---------------------------------
    0000153B                       4390 _UpdatePlayerPatternByDirection::
    0000153B DD E5            [15] 4391 	push	ix
    0000153D DD 21 00 00      [14] 4392 	ld	ix,#0
    00001541 DD 39            [15] 4393 	add	ix,sp
    00001543 21 FB FF         [10] 4394 	ld	hl, #-5
    00001546 39               [11] 4395 	add	hl, sp
    00001547 F9               [ 6] 4396 	ld	sp, hl
    00001548 DD 77 FF         [19] 4397 	ld	-1 (ix), a
                                   4398 ;./exsoccer.c:894: if(g_Players[playerId].Status==PLAYER_STATUS_POSITIONED){
    0000154B 01r08r10         [10] 4399 	ld	bc, #_g_Players+0
    0000154E DD 5E FF         [19] 4400 	ld	e, -1 (ix)
    00001551 16 00            [ 7] 4401 	ld	d, #0x00
    00001553 6B               [ 4] 4402 	ld	l, e
    00001554 62               [ 4] 4403 	ld	h, d
    00001555 29               [11] 4404 	add	hl, hl
    00001556 29               [11] 4405 	add	hl, hl
    00001557 19               [11] 4406 	add	hl, de
    00001558 29               [11] 4407 	add	hl, hl
    00001559 29               [11] 4408 	add	hl, hl
    0000155A 19               [11] 4409 	add	hl, de
    0000155B 09               [11] 4410 	add	hl, bc
    0000155C EB               [ 4] 4411 	ex	de, hl
    0000155D 4B               [ 4] 4412 	ld	c, e
    0000155E 42               [ 4] 4413 	ld	b, d
    0000155F 21 12 00         [10] 4414 	ld	hl, #18
    00001562 09               [11] 4415 	add	hl, bc
    00001563 4E               [ 7] 4416 	ld	c, (hl)
    00001564 23               [ 6] 4417 	inc	hl
    00001565 46               [ 7] 4418 	ld	b, (hl)
    00001566 79               [ 4] 4419 	ld	a, c
    00001567 D6 04            [ 7] 4420 	sub	a, #0x04
    00001569 B0               [ 4] 4421 	or	a, b
    0000156A CArFDr15         [10] 4422 	jp	Z,00122$
                                   4423 ;./exsoccer.c:895: return;
    0000156D C3r70r15         [10] 4424 	jp	00102$
    00001570                       4425 00102$:
                                   4426 ;./exsoccer.c:899: if(g_Players[playerId].Direction!=g_Players[playerId].PreviousDirection){
    00001570 21 0A 00         [10] 4427 	ld	hl, #0x000a
    00001573 19               [11] 4428 	add	hl, de
    00001574 E3               [19] 4429 	ex	(sp), hl
    00001575 E1               [10] 4430 	pop	hl
    00001576 E5               [11] 4431 	push	hl
    00001577 4E               [ 7] 4432 	ld	c, (hl)
    00001578 21 0B 00         [10] 4433 	ld	hl, #0x000b
    0000157B 19               [11] 4434 	add	hl, de
    0000157C DD 75 FD         [19] 4435 	ld	-3 (ix), l
    0000157F DD 74 FE         [19] 4436 	ld	-2 (ix), h
    00001582 46               [ 7] 4437 	ld	b, (hl)
                                   4438 ;./exsoccer.c:900: if(g_Players[playerId].Direction==DIRECTION_NONE){
    00001583 79               [ 4] 4439 	ld	a,c
    00001584 B8               [ 4] 4440 	cp	a,b
    00001585 28 2B            [12] 4441 	jr	Z, 00112$
    00001587 B7               [ 4] 4442 	or	a, a
    00001588 20 18            [12] 4443 	jr	NZ, 00104$
                                   4444 ;./exsoccer.c:901: g_Players[playerId].PatternId=GetNoMovingPlayerPatternId(g_Players[playerId].PreviousDirection);
    0000158A 21 08 00         [10] 4445 	ld	hl, #0x0008
    0000158D 19               [11] 4446 	add	hl, de
    0000158E E5               [11] 4447 	push	hl
    0000158F D5               [11] 4448 	push	de
    00001590 78               [ 4] 4449 	ld	a, b
    00001591 CDr02r16         [17] 4450 	call	_GetNoMovingPlayerPatternId
    00001594 D1               [10] 4451 	pop	de
    00001595 E1               [10] 4452 	pop	hl
    00001596 77               [ 7] 4453 	ld	(hl), a
                                   4454 ;./exsoccer.c:902: g_Players[playerId].PreviousDirection=g_Players[playerId].Direction;
    00001597 E1               [10] 4455 	pop	hl
    00001598 E5               [11] 4456 	push	hl
    00001599 7E               [ 7] 4457 	ld	a, (hl)
    0000159A C1               [10] 4458 	pop	bc
    0000159B E1               [10] 4459 	pop	hl
    0000159C E5               [11] 4460 	push	hl
    0000159D C5               [11] 4461 	push	bc
    0000159E 77               [ 7] 4462 	ld	(hl), a
    0000159F C3rC4r15         [10] 4463 	jp	00113$
    000015A2                       4464 00104$:
                                   4465 ;./exsoccer.c:905: g_Players[playerId].PreviousDirection=g_Players[playerId].Direction;
    000015A2 DD 6E FD         [19] 4466 	ld	l, -3 (ix)
    000015A5 DD 66 FE         [19] 4467 	ld	h, -2 (ix)
    000015A8 71               [ 7] 4468 	ld	(hl), c
                                   4469 ;./exsoccer.c:906: g_Players[playerId].LastPose=0;
    000015A9 21 0C 00         [10] 4470 	ld	hl, #0x000c
    000015AC 19               [11] 4471 	add	hl, de
    000015AD 36 00            [10] 4472 	ld	(hl), #0x00
    000015AF C3rC4r15         [10] 4473 	jp	00113$
    000015B2                       4474 00112$:
                                   4475 ;./exsoccer.c:912: if(g_Players[playerId].Direction!=DIRECTION_NONE){
    000015B2 79               [ 4] 4476 	ld	a, c
    000015B3 B7               [ 4] 4477 	or	a, a
    000015B4 28 0E            [12] 4478 	jr	Z, 00113$
                                   4479 ;./exsoccer.c:913: if(g_Players[playerId].LastPose==1){
    000015B6 21 0C 00         [10] 4480 	ld	hl, #0x000c
    000015B9 19               [11] 4481 	add	hl, de
    000015BA 7E               [ 7] 4482 	ld	a, (hl)
                                   4483 ;./exsoccer.c:914: g_Players[playerId].LastPose=0;
    000015BB 3D               [ 4] 4484 	dec	a
    000015BC 20 04            [12] 4485 	jr	NZ, 00107$
    000015BE 77               [ 7] 4486 	ld	(hl),a
    000015BF C3rC4r15         [10] 4487 	jp	00113$
    000015C2                       4488 00107$:
                                   4489 ;./exsoccer.c:917: g_Players[playerId].LastPose=1;
    000015C2 36 01            [10] 4490 	ld	(hl), #0x01
    000015C4                       4491 00113$:
                                   4492 ;./exsoccer.c:923: if(g_Players[playerId].TeamId==REFEREE && g_MatchStatus==MATCH_BEFORE_KICK_OFF ){
    000015C4 4B               [ 4] 4493 	ld	c, e
    000015C5 42               [ 4] 4494 	ld	b, d
    000015C6 21 09 00         [10] 4495 	ld	hl, #9
    000015C9 09               [11] 4496 	add	hl, bc
    000015CA 7E               [ 7] 4497 	ld	a, (hl)
                                   4498 ;./exsoccer.c:899: if(g_Players[playerId].Direction!=g_Players[playerId].PreviousDirection){
    000015CB E1               [10] 4499 	pop	hl
    000015CC E5               [11] 4500 	push	hl
    000015CD 4E               [ 7] 4501 	ld	c, (hl)
                                   4502 ;./exsoccer.c:923: if(g_Players[playerId].TeamId==REFEREE && g_MatchStatus==MATCH_BEFORE_KICK_OFF ){
    000015CE D6 0E            [ 7] 4503 	sub	a, #0x0e
    000015D0 20 1A            [12] 4504 	jr	NZ, 00119$
    000015D2 3Ar3Fr00         [13] 4505 	ld	a, (_g_MatchStatus+0)
    000015D5 3D               [ 4] 4506 	dec	a
    000015D6 20 14            [12] 4507 	jr	NZ, 00119$
                                   4508 ;./exsoccer.c:926: if(g_Players[playerId].Direction!=DIRECTION_NONE){
    000015D8 79               [ 4] 4509 	ld	a, c
    000015D9 B7               [ 4] 4510 	or	a, a
    000015DA 28 21            [12] 4511 	jr	Z, 00122$
                                   4512 ;./exsoccer.c:927: g_Players[playerId].PatternId=GetPatternIdByPoseAndDirection(playerId);
    000015DC 21 08 00         [10] 4513 	ld	hl, #0x0008
    000015DF 19               [11] 4514 	add	hl, de
    000015E0 E5               [11] 4515 	push	hl
    000015E1 DD 7E FF         [19] 4516 	ld	a, -1 (ix)
    000015E4 CDrADr16         [17] 4517 	call	_GetPatternIdByPoseAndDirection
    000015E7 D1               [10] 4518 	pop	de
    000015E8 12               [ 7] 4519 	ld	(de), a
    000015E9 C3rFDr15         [10] 4520 	jp	00122$
    000015EC                       4521 00119$:
                                   4522 ;./exsoccer.c:931: if(g_Players[playerId].Direction!=DIRECTION_NONE){
    000015EC 79               [ 4] 4523 	ld	a, c
    000015ED B7               [ 4] 4524 	or	a, a
    000015EE 28 0D            [12] 4525 	jr	Z, 00122$
                                   4526 ;./exsoccer.c:932: g_Players[playerId].PatternId=GetPatternIdByPoseAndDirection(playerId);
    000015F0 21 08 00         [10] 4527 	ld	hl, #0x0008
    000015F3 19               [11] 4528 	add	hl, de
    000015F4 E5               [11] 4529 	push	hl
    000015F5 DD 7E FF         [19] 4530 	ld	a, -1 (ix)
    000015F8 CDrADr16         [17] 4531 	call	_GetPatternIdByPoseAndDirection
    000015FB E1               [10] 4532 	pop	hl
    000015FC 77               [ 7] 4533 	ld	(hl), a
    000015FD                       4534 00122$:
                                   4535 ;./exsoccer.c:935: }
    000015FD DD F9            [10] 4536 	ld	sp, ix
    000015FF DD E1            [14] 4537 	pop	ix
    00001601 C9               [10] 4538 	ret
                                   4539 ;./exsoccer.c:936: u8 GetNoMovingPlayerPatternId(u8 direction){
                                   4540 ;	---------------------------------
                                   4541 ; Function GetNoMovingPlayerPatternId
                                   4542 ; ---------------------------------
    00001602                       4543 _GetNoMovingPlayerPatternId::
    00001602 5F               [ 4] 4544 	ld	e, a
                                   4545 ;./exsoccer.c:937: u8 patternId=PLAYER_POSE_FRONT_PLAYING; // Default fallback
    00001603 0E 13            [ 7] 4546 	ld	c, #0x13
                                   4547 ;./exsoccer.c:938: switch (direction){
    00001605 3E 08            [ 7] 4548 	ld	a, #0x08
    00001607 93               [ 4] 4549 	sub	a, e
    00001608 38 4E            [12] 4550 	jr	C, 00110$
    0000160A 16 00            [ 7] 4551 	ld	d, #0x00
    0000160C 21r13r16         [10] 4552 	ld	hl, #00118$
    0000160F 19               [11] 4553 	add	hl, de
    00001610 19               [11] 4554 	add	hl, de
    00001611 19               [11] 4555 	add	hl, de
    00001612 E9               [ 4] 4556 	jp	(hl)
    00001613                       4557 00118$:
    00001613 C3r56r16         [10] 4558 	jp	00109$
    00001616 C3r33r16         [10] 4559 	jp	00102$
    00001619 C3r47r16         [10] 4560 	jp	00106$
    0000161C C3r3Dr16         [10] 4561 	jp	00104$
    0000161F C3r51r16         [10] 4562 	jp	00108$
    00001622 C3r2Er16         [10] 4563 	jp	00101$
    00001625 C3r4Cr16         [10] 4564 	jp	00107$
    00001628 C3r38r16         [10] 4565 	jp	00103$
    0000162B C3r42r16         [10] 4566 	jp	00105$
                                   4567 ;./exsoccer.c:939: case DIRECTION_DOWN:
    0000162E                       4568 00101$:
                                   4569 ;./exsoccer.c:940: patternId=PLAYER_POSE_FRONT_PLAYING;
    0000162E 0E 13            [ 7] 4570 	ld	c, #0x13
                                   4571 ;./exsoccer.c:941: break;
    00001630 C3r58r16         [10] 4572 	jp	00110$
                                   4573 ;./exsoccer.c:942: case DIRECTION_UP:
    00001633                       4574 00102$:
                                   4575 ;./exsoccer.c:943: patternId=PLAYER_POSE_BACK_PLAYING;
    00001633 0E 16            [ 7] 4576 	ld	c, #0x16
                                   4577 ;./exsoccer.c:944: break;
    00001635 C3r58r16         [10] 4578 	jp	00110$
                                   4579 ;./exsoccer.c:945: case DIRECTION_LEFT:
    00001638                       4580 00103$:
                                   4581 ;./exsoccer.c:946: patternId=PLAYER_POSE_LEFT;
    00001638 0E 12            [ 7] 4582 	ld	c, #0x12
                                   4583 ;./exsoccer.c:947: break;
    0000163A C3r58r16         [10] 4584 	jp	00110$
                                   4585 ;./exsoccer.c:948: case DIRECTION_RIGHT:
    0000163D                       4586 00104$:
                                   4587 ;./exsoccer.c:949: patternId=PLAYER_POSE_RIGHT;
    0000163D 0E 9D            [ 7] 4588 	ld	c, #0x9d
                                   4589 ;./exsoccer.c:950: break;
    0000163F C3r58r16         [10] 4590 	jp	00110$
                                   4591 ;./exsoccer.c:951: case DIRECTION_UP_LEFT:
    00001642                       4592 00105$:
                                   4593 ;./exsoccer.c:952: patternId=PLAYER_POSE_MOVE_UP_LEFT_2;
    00001642 0E 82            [ 7] 4594 	ld	c, #0x82
                                   4595 ;./exsoccer.c:953: break;
    00001644 C3r58r16         [10] 4596 	jp	00110$
                                   4597 ;./exsoccer.c:954: case DIRECTION_UP_RIGHT:
    00001647                       4598 00106$:
                                   4599 ;./exsoccer.c:955: patternId=PLAYER_POSE_MOVE_UP_RIGHT_1;
    00001647 0E 0D            [ 7] 4600 	ld	c, #0x0d
                                   4601 ;./exsoccer.c:956: break;
    00001649 C3r58r16         [10] 4602 	jp	00110$
                                   4603 ;./exsoccer.c:957: case DIRECTION_DOWN_LEFT:
    0000164C                       4604 00107$:
                                   4605 ;./exsoccer.c:958: patternId=PLAYER_POSE_MOVE_DOWN_LEFT_1;
    0000164C 0E 09            [ 7] 4606 	ld	c, #0x09
                                   4607 ;./exsoccer.c:959: break;
    0000164E C3r58r16         [10] 4608 	jp	00110$
                                   4609 ;./exsoccer.c:960: case DIRECTION_DOWN_RIGHT:
    00001651                       4610 00108$:
                                   4611 ;./exsoccer.c:961: patternId=PLAYER_POSE_MOVE_DOWN_RIGHT_2;
    00001651 0E 86            [ 7] 4612 	ld	c, #0x86
                                   4613 ;./exsoccer.c:962: break;
    00001653 C3r58r16         [10] 4614 	jp	00110$
                                   4615 ;./exsoccer.c:963: case DIRECTION_NONE:
    00001656                       4616 00109$:
                                   4617 ;./exsoccer.c:966: patternId=PLAYER_POSE_FRONT_PLAYING;
    00001656 0E 13            [ 7] 4618 	ld	c, #0x13
                                   4619 ;./exsoccer.c:968: }
    00001658                       4620 00110$:
                                   4621 ;./exsoccer.c:969: return patternId;
    00001658 79               [ 4] 4622 	ld	a, c
                                   4623 ;./exsoccer.c:970: }
    00001659 C9               [10] 4624 	ret
                                   4625 ;./exsoccer.c:971: u8 GetNewPoseByDirection(u8 direction){
                                   4626 ;	---------------------------------
                                   4627 ; Function GetNewPoseByDirection
                                   4628 ; ---------------------------------
    0000165A                       4629 _GetNewPoseByDirection::
    0000165A 5F               [ 4] 4630 	ld	e, a
                                   4631 ;./exsoccer.c:972: u8 pose=NO_VALUE;
    0000165B 0E FF            [ 7] 4632 	ld	c, #0xff
                                   4633 ;./exsoccer.c:973: switch (direction)
    0000165D 3E 08            [ 7] 4634 	ld	a, #0x08
    0000165F 93               [ 4] 4635 	sub	a, e
    00001660 38 49            [12] 4636 	jr	C, 00109$
    00001662 16 00            [ 7] 4637 	ld	d, #0x00
    00001664 21r6Br16         [10] 4638 	ld	hl, #00117$
    00001667 19               [11] 4639 	add	hl, de
    00001668 19               [11] 4640 	add	hl, de
    00001669 19               [11] 4641 	add	hl, de
    0000166A E9               [ 4] 4642 	jp	(hl)
    0000166B                       4643 00117$:
    0000166B C3rABr16         [10] 4644 	jp	00109$
    0000166E C3r8Br16         [10] 4645 	jp	00102$
    00001671 C3r9Ar16         [10] 4646 	jp	00105$
    00001674 C3r95r16         [10] 4647 	jp	00104$
    00001677 C3r9Fr16         [10] 4648 	jp	00106$
    0000167A C3r86r16         [10] 4649 	jp	00101$
    0000167D C3rA9r16         [10] 4650 	jp	00108$
    00001680 C3r90r16         [10] 4651 	jp	00103$
    00001683 C3rA4r16         [10] 4652 	jp	00107$
                                   4653 ;./exsoccer.c:975: case DIRECTION_DOWN:
    00001686                       4654 00101$:
                                   4655 ;./exsoccer.c:976: pose=PLAYER_POSE_MOVE_DOWN_1;
    00001686 0E 00            [ 7] 4656 	ld	c, #0x00
                                   4657 ;./exsoccer.c:977: break;
    00001688 C3rABr16         [10] 4658 	jp	00109$
                                   4659 ;./exsoccer.c:978: case DIRECTION_UP:
    0000168B                       4660 00102$:
                                   4661 ;./exsoccer.c:979: pose=PLAYER_POSE_MOVE_UP_1;
    0000168B 0E 02            [ 7] 4662 	ld	c, #0x02
                                   4663 ;./exsoccer.c:980: break;
    0000168D C3rABr16         [10] 4664 	jp	00109$
                                   4665 ;./exsoccer.c:981: case DIRECTION_LEFT:
    00001690                       4666 00103$:
                                   4667 ;./exsoccer.c:982: pose=PLAYER_POSE_MOVE_LEFT_1;
    00001690 0E 05            [ 7] 4668 	ld	c, #0x05
                                   4669 ;./exsoccer.c:983: break;	
    00001692 C3rABr16         [10] 4670 	jp	00109$
                                   4671 ;./exsoccer.c:984: case DIRECTION_RIGHT:
    00001695                       4672 00104$:
                                   4673 ;./exsoccer.c:985: pose=PLAYER_POSE_MOVE_RIGHT_1;
    00001695 0E 89            [ 7] 4674 	ld	c, #0x89
                                   4675 ;./exsoccer.c:986: break;	
    00001697 C3rABr16         [10] 4676 	jp	00109$
                                   4677 ;./exsoccer.c:987: case DIRECTION_UP_RIGHT:
    0000169A                       4678 00105$:
                                   4679 ;./exsoccer.c:988: pose=PLAYER_POSE_MOVE_UP_RIGHT_1;
    0000169A 0E 0D            [ 7] 4680 	ld	c, #0x0d
                                   4681 ;./exsoccer.c:989: break;	
    0000169C C3rABr16         [10] 4682 	jp	00109$
                                   4683 ;./exsoccer.c:990: case DIRECTION_DOWN_RIGHT:
    0000169F                       4684 00106$:
                                   4685 ;./exsoccer.c:991: pose=PLAYER_POSE_MOVE_DOWN_RIGHT_1;
    0000169F 0E 85            [ 7] 4686 	ld	c, #0x85
                                   4687 ;./exsoccer.c:992: break;	
    000016A1 C3rABr16         [10] 4688 	jp	00109$
                                   4689 ;./exsoccer.c:993: case DIRECTION_UP_LEFT:
    000016A4                       4690 00107$:
                                   4691 ;./exsoccer.c:994: pose=PLAYER_POSE_MOVE_UP_LEFT_1;
    000016A4 0E 83            [ 7] 4692 	ld	c, #0x83
                                   4693 ;./exsoccer.c:995: break;	
    000016A6 C3rABr16         [10] 4694 	jp	00109$
                                   4695 ;./exsoccer.c:996: case DIRECTION_DOWN_LEFT:
    000016A9                       4696 00108$:
                                   4697 ;./exsoccer.c:997: pose=PLAYER_POSE_MOVE_DOWN_LEFT_1;
    000016A9 0E 09            [ 7] 4698 	ld	c, #0x09
                                   4699 ;./exsoccer.c:999: }
    000016AB                       4700 00109$:
                                   4701 ;./exsoccer.c:1000: return pose;
    000016AB 79               [ 4] 4702 	ld	a, c
                                   4703 ;./exsoccer.c:1001: }
    000016AC C9               [10] 4704 	ret
                                   4705 ;./exsoccer.c:1002: u8 GetPatternIdByPoseAndDirection(u8 playerId){
                                   4706 ;	---------------------------------
                                   4707 ; Function GetPatternIdByPoseAndDirection
                                   4708 ; ---------------------------------
    000016AD                       4709 _GetPatternIdByPoseAndDirection::
    000016AD 5F               [ 4] 4710 	ld	e, a
                                   4711 ;./exsoccer.c:1003: u8 pose = g_Players[playerId].LastPose;
    000016AE 01r08r10         [10] 4712 	ld	bc, #_g_Players+0
    000016B1 16 00            [ 7] 4713 	ld	d, #0x00
    000016B3 6B               [ 4] 4714 	ld	l, e
    000016B4 62               [ 4] 4715 	ld	h, d
    000016B5 29               [11] 4716 	add	hl, hl
    000016B6 29               [11] 4717 	add	hl, hl
    000016B7 19               [11] 4718 	add	hl, de
    000016B8 29               [11] 4719 	add	hl, hl
    000016B9 29               [11] 4720 	add	hl, hl
    000016BA 19               [11] 4721 	add	hl, de
    000016BB 09               [11] 4722 	add	hl, bc
    000016BC EB               [ 4] 4723 	ex	de, hl
    000016BD D5               [11] 4724 	push	de
    000016BE FD E1            [14] 4725 	pop	iy
    000016C0 FD 4E 0C         [19] 4726 	ld	c, 12 (iy)
                                   4727 ;./exsoccer.c:1004: u8 dir = g_Players[playerId].Direction;
    000016C3 21 0A 00         [10] 4728 	ld	hl, #10
    000016C6 19               [11] 4729 	add	hl, de
    000016C7 5E               [ 7] 4730 	ld	e, (hl)
                                   4731 ;./exsoccer.c:1007: if (dir > 8) dir = DIRECTION_NONE;
    000016C8 3E 08            [ 7] 4732 	ld	a, #0x08
    000016CA 93               [ 4] 4733 	sub	a, e
    000016CB 30 02            [12] 4734 	jr	NC, 00102$
    000016CD 1E 00            [ 7] 4735 	ld	e, #0x00
    000016CF                       4736 00102$:
                                   4737 ;./exsoccer.c:1009: if (dir == DIRECTION_NONE) {
    000016CF 7B               [ 4] 4738 	ld	a, e
    000016D0 B7               [ 4] 4739 	or	a, a
    000016D1 20 04            [12] 4740 	jr	NZ, 00104$
                                   4741 ;./exsoccer.c:1010: return GetNoMovingPlayerPatternId(dir); // Assuming logic for NONE inside
    000016D3 7B               [ 4] 4742 	ld	a, e
    000016D4 C3r02r16         [10] 4743 	jp	_GetNoMovingPlayerPatternId
    000016D7                       4744 00104$:
                                   4745 ;./exsoccer.c:1028: return k_MovePats[dir * 2 + (pose ? 1 : 0)];
    000016D7 CB 23            [ 8] 4746 	sla	e
    000016D9 79               [ 4] 4747 	ld	a, c
    000016DA B7               [ 4] 4748 	or	a, a
    000016DB 28 06            [12] 4749 	jr	Z, 00107$
    000016DD 21 01 00         [10] 4750 	ld	hl, #0x0001
    000016E0 C3rE6r16         [10] 4751 	jp	00108$
    000016E3                       4752 00107$:
    000016E3 21 00 00         [10] 4753 	ld	hl, #0x0000
    000016E6                       4754 00108$:
    000016E6 19               [11] 4755 	add	hl, de
    000016E7 7D               [ 4] 4756 	ld	a, l
    000016E8 07               [ 4] 4757 	rlca
    000016E9 9F               [ 4] 4758 	sbc	a, a
    000016EA 67               [ 4] 4759 	ld	h, a
                                   4760 ;	spillPairReg hl
                                   4761 ;	spillPairReg hl
    000016EB 11rF1r16         [10] 4762 	ld	de, #_GetPatternIdByPoseAndDirection_k_MovePats_65537_1951
    000016EE 19               [11] 4763 	add	hl, de
    000016EF 7E               [ 7] 4764 	ld	a, (hl)
                                   4765 ;./exsoccer.c:1029: }
    000016F0 C9               [10] 4766 	ret
    000016F1                       4767 _GetPatternIdByPoseAndDirection_k_MovePats_65537_1951:
    000016F1 00                    4768 	.db #0x00	; 0
    000016F2 00                    4769 	.db #0x00	; 0
    000016F3 02                    4770 	.db #0x02	; 2
    000016F4 03                    4771 	.db #0x03	; 3
    000016F5 0D                    4772 	.db #0x0d	; 13
    000016F6 0E                    4773 	.db #0x0e	; 14
    000016F7 89                    4774 	.db #0x89	; 137
    000016F8 8A                    4775 	.db #0x8a	; 138
    000016F9 85                    4776 	.db #0x85	; 133
    000016FA 86                    4777 	.db #0x86	; 134
    000016FB 00                    4778 	.db #0x00	; 0
    000016FC 01                    4779 	.db #0x01	; 1
    000016FD 09                    4780 	.db #0x09	; 9
    000016FE 0A                    4781 	.db #0x0a	; 10
    000016FF 05                    4782 	.db #0x05	; 5
    00001700 06                    4783 	.db #0x06	; 6
    00001701 83                    4784 	.db #0x83	; 131
    00001702 82                    4785 	.db #0x82	; 130
                                   4786 ;./exsoccer.c:1030: void SetPlayerTarget(u8 playerId){
                                   4787 ;	---------------------------------
                                   4788 ; Function SetPlayerTarget
                                   4789 ; ---------------------------------
    00001703                       4790 _SetPlayerTarget::
    00001703 DD E5            [15] 4791 	push	ix
    00001705 DD 21 00 00      [14] 4792 	ld	ix,#0
    00001709 DD 39            [15] 4793 	add	ix,sp
    0000170B 21 F1 FF         [10] 4794 	ld	hl, #-15
    0000170E 39               [11] 4795 	add	hl, sp
    0000170F F9               [ 6] 4796 	ld	sp, hl
    00001710 DD 77 FF         [19] 4797 	ld	-1 (ix), a
                                   4798 ;./exsoccer.c:1031: if(g_FieldScrollingActionInProgress!=NO_VALUE && g_MatchStatus!=MATCH_BEFORE_KICK_OFF){
    00001713 3Ar3Fr00         [13] 4799 	ld	a, (_g_MatchStatus+0)
    00001716 3D               [ 4] 4800 	dec	a
    00001717 3E 01            [ 7] 4801 	ld	a, #0x01
    00001719 28 01            [12] 4802 	jr	Z, 00188$
    0000171B AF               [ 4] 4803 	xor	a, a
    0000171C                       4804 00188$:
    0000171C DD 77 FE         [19] 4805 	ld	-2 (ix), a
    0000171F 3Ar03r10         [13] 4806 	ld	a, (_g_FieldScrollingActionInProgress+0)
    00001722 3C               [ 4] 4807 	inc	a
    00001723 28 07            [12] 4808 	jr	Z, 00102$
    00001725 DD CB FE 46      [20] 4809 	bit	0, -2 (ix)
                                   4810 ;./exsoccer.c:1032: return;
    00001729 CAr88r18         [10] 4811 	jp	Z,00121$
    0000172C                       4812 00102$:
                                   4813 ;./exsoccer.c:1034: switch(g_MatchStatus){
    0000172C DD 7E FE         [19] 4814 	ld	a, -2 (ix)
    0000172F B7               [ 4] 4815 	or	a, a
    00001730 CAr88r18         [10] 4816 	jp	Z, 00121$
                                   4817 ;./exsoccer.c:1056: if(g_Players[playerId].TeamId==REFEREE){
    00001733 01r08r10         [10] 4818 	ld	bc, #_g_Players+0
    00001736 DD 5E FF         [19] 4819 	ld	e, -1 (ix)
    00001739 16 00            [ 7] 4820 	ld	d, #0x00
    0000173B 6B               [ 4] 4821 	ld	l, e
    0000173C 62               [ 4] 4822 	ld	h, d
    0000173D 29               [11] 4823 	add	hl, hl
    0000173E 29               [11] 4824 	add	hl, hl
    0000173F 19               [11] 4825 	add	hl, de
    00001740 29               [11] 4826 	add	hl, hl
    00001741 29               [11] 4827 	add	hl, hl
    00001742 19               [11] 4828 	add	hl, de
    00001743 09               [11] 4829 	add	hl, bc
    00001744 EB               [ 4] 4830 	ex	de, hl
    00001745 D5               [11] 4831 	push	de
    00001746 FD E1            [14] 4832 	pop	iy
    00001748 FD 7E 09         [19] 4833 	ld	a, 9 (iy)
    0000174B DD 77 F3         [19] 4834 	ld	-13 (ix), a
                                   4835 ;./exsoccer.c:1058: g_Players[playerId].TargetX=FIELD_POS_X_CENTER - 30; 
    0000174E 21 10 00         [10] 4836 	ld	hl, #0x0010
    00001751 19               [11] 4837 	add	hl, de
    00001752 DD 75 F4         [19] 4838 	ld	-12 (ix), l
    00001755 DD 74 F5         [19] 4839 	ld	-11 (ix), h
                                   4840 ;./exsoccer.c:1059: g_Players[playerId].TargetY=FIELD_POS_Y_CENTER - 40; 
    00001758 21 0E 00         [10] 4841 	ld	hl, #0x000e
    0000175B 19               [11] 4842 	add	hl, de
    0000175C DD 75 F6         [19] 4843 	ld	-10 (ix), l
    0000175F DD 74 F7         [19] 4844 	ld	-9 (ix), h
                                   4845 ;./exsoccer.c:1056: if(g_Players[playerId].TeamId==REFEREE){
    00001762 DD 7E F3         [19] 4846 	ld	a, -13 (ix)
    00001765 D6 0E            [ 7] 4847 	sub	a, #0x0e
    00001767 20 19            [12] 4848 	jr	NZ, 00118$
                                   4849 ;./exsoccer.c:1058: g_Players[playerId].TargetX=FIELD_POS_X_CENTER - 30; 
    00001769 DD 6E F4         [19] 4850 	ld	l, -12 (ix)
    0000176C DD 66 F5         [19] 4851 	ld	h, -11 (ix)
    0000176F 36 5A            [10] 4852 	ld	(hl), #0x5a
    00001771 23               [ 6] 4853 	inc	hl
    00001772 36 00            [10] 4854 	ld	(hl), #0x00
                                   4855 ;./exsoccer.c:1059: g_Players[playerId].TargetY=FIELD_POS_Y_CENTER - 40; 
    00001774 DD 6E F6         [19] 4856 	ld	l, -10 (ix)
    00001777 DD 66 F7         [19] 4857 	ld	h, -9 (ix)
    0000177A 36 CB            [10] 4858 	ld	(hl), #0xcb
    0000177C 23               [ 6] 4859 	inc	hl
    0000177D 36 00            [10] 4860 	ld	(hl), #0x00
    0000177F C3r88r18         [10] 4861 	jp	00121$
    00001782                       4862 00118$:
                                   4863 ;./exsoccer.c:1062: u8 role = g_Players[playerId].Role;
    00001782 21 0D 00         [10] 4864 	ld	hl, #13
    00001785 19               [11] 4865 	add	hl, de
    00001786 7E               [ 7] 4866 	ld	a, (hl)
    00001787 DD 77 F8         [19] 4867 	ld	-8 (ix), a
                                   4868 ;./exsoccer.c:1063: if (role > 6) role = 0; // Safety
    0000178A 3E 06            [ 7] 4869 	ld	a, #0x06
    0000178C DD 96 F8         [19] 4870 	sub	a, -8 (ix)
    0000178F 30 04            [12] 4871 	jr	NC, 00106$
    00001791 DD 36 F8 00      [19] 4872 	ld	-8 (ix), #0x00
    00001795                       4873 00106$:
                                   4874 ;./exsoccer.c:1065: bool isTeam1 = (g_Players[playerId].TeamId == TEAM_1);
    00001795 DD 7E F3         [19] 4875 	ld	a, -13 (ix)
    00001798 3D               [ 4] 4876 	dec	a
    00001799 3E 01            [ 7] 4877 	ld	a, #0x01
    0000179B 28 01            [12] 4878 	jr	Z, 00193$
    0000179D AF               [ 4] 4879 	xor	a, a
    0000179E                       4880 00193$:
    0000179E DD 77 F9         [19] 4881 	ld	-7 (ix), a
                                   4882 ;./exsoccer.c:1068: u16 tx = k_KO_X[role];
    000017A1 01r8Dr18         [10] 4883 	ld	bc, #_SetPlayerTarget_k_KO_X_196608_1956+0
    000017A4 DD 6E F8         [19] 4884 	ld	l, -8 (ix)
    000017A7 26 00            [ 7] 4885 	ld	h, #0x00
    000017A9 09               [11] 4886 	add	hl, bc
    000017AA 7E               [ 7] 4887 	ld	a, (hl)
    000017AB DD 77 FE         [19] 4888 	ld	-2 (ix), a
    000017AE DD 77 FA         [19] 4889 	ld	-6 (ix), a
    000017B1 DD 36 FB 00      [19] 4890 	ld	-5 (ix), #0x00
                                   4891 ;./exsoccer.c:1069: u16 ty = isTeam1 ? k_KO_Y_T1[role] : k_KO_Y_T2[role];
    000017B5 DD 7E F8         [19] 4892 	ld	a, -8 (ix)
    000017B8 DD 77 FD         [19] 4893 	ld	-3 (ix), a
    000017BB DD 36 FE 00      [19] 4894 	ld	-2 (ix), #0x00
    000017BF DD CB FD 26      [23] 4895 	sla	-3 (ix)
    000017C3 DD CB FE 16      [23] 4896 	rl	-2 (ix)
    000017C7 DD 7E F9         [19] 4897 	ld	a, -7 (ix)
    000017CA B7               [ 4] 4898 	or	a, a
    000017CB 28 16            [12] 4899 	jr	Z, 00123$
    000017CD 01r94r18         [10] 4900 	ld	bc, #_SetPlayerTarget_k_KO_Y_T1_196608_1956+0
    000017D0 DD 6E FD         [19] 4901 	ld	l, -3 (ix)
    000017D3 DD 66 FE         [19] 4902 	ld	h, -2 (ix)
    000017D6 09               [11] 4903 	add	hl, bc
    000017D7 7E               [ 7] 4904 	ld	a, (hl)
    000017D8 DD 77 F1         [19] 4905 	ld	-15 (ix), a
    000017DB 23               [ 6] 4906 	inc	hl
    000017DC 7E               [ 7] 4907 	ld	a, (hl)
    000017DD DD 77 F2         [19] 4908 	ld	-14 (ix), a
    000017E0 C3rF8r17         [10] 4909 	jp	00124$
    000017E3                       4910 00123$:
    000017E3 DD 7E FD         [19] 4911 	ld	a, -3 (ix)
    000017E6 C6rA2            [ 7] 4912 	add	a, #<(_SetPlayerTarget_k_KO_Y_T2_196608_1956)
    000017E8 4F               [ 4] 4913 	ld	c, a
    000017E9 DD 7E FE         [19] 4914 	ld	a, -2 (ix)
    000017EC CEs18            [ 7] 4915 	adc	a, #>(_SetPlayerTarget_k_KO_Y_T2_196608_1956)
    000017EE 47               [ 4] 4916 	ld	b, a
    000017EF 0A               [ 7] 4917 	ld	a, (bc)
    000017F0 DD 77 F1         [19] 4918 	ld	-15 (ix), a
    000017F3 03               [ 6] 4919 	inc	bc
    000017F4 0A               [ 7] 4920 	ld	a, (bc)
    000017F5 DD 77 F2         [19] 4921 	ld	-14 (ix), a
    000017F8                       4922 00124$:
    000017F8 DD 7E F1         [19] 4923 	ld	a, -15 (ix)
    000017FB DD 77 FC         [19] 4924 	ld	-4 (ix), a
    000017FE DD 7E F2         [19] 4925 	ld	a, -14 (ix)
    00001801 DD 77 FD         [19] 4926 	ld	-3 (ix), a
                                   4927 ;./exsoccer.c:1072: if (!isTeam1 && role == PLAYER_ROLE_RIGHT_HALFFIELDER) {
    00001804 DD 7E F9         [19] 4928 	ld	a, -7 (ix)
    00001807 B7               [ 4] 4929 	or	a, a
    00001808 20 0F            [12] 4930 	jr	NZ, 00108$
    0000180A DD 7E F8         [19] 4931 	ld	a, -8 (ix)
    0000180D D6 04            [ 7] 4932 	sub	a, #0x04
    0000180F 20 08            [12] 4933 	jr	NZ, 00108$
                                   4934 ;./exsoccer.c:1073: tx = FIELD_POS_X_RIGHT - 116; 
    00001811 DD 36 FA 52      [19] 4935 	ld	-6 (ix), #0x52
    00001815 DD 36 FB 00      [19] 4936 	ld	-5 (ix), #0
    00001819                       4937 00108$:
                                   4938 ;./exsoccer.c:1077: if ((role == PLAYER_ROLE_LEFT_HALFFIELDER || role == PLAYER_ROLE_RIGHT_HALFFIELDER) &&
    00001819 DD 7E F8         [19] 4939 	ld	a, -8 (ix)
    0000181C D6 03            [ 7] 4940 	sub	a, #0x03
    0000181E 3E 01            [ 7] 4941 	ld	a, #0x01
    00001820 28 01            [12] 4942 	jr	Z, 00198$
    00001822 AF               [ 4] 4943 	xor	a, a
    00001823                       4944 00198$:
    00001823 DD 77 FE         [19] 4945 	ld	-2 (ix), a
    00001826 B7               [ 4] 4946 	or	a, a
    00001827 20 07            [12] 4947 	jr	NZ, 00116$
    00001829 DD 7E F8         [19] 4948 	ld	a, -8 (ix)
    0000182C D6 04            [ 7] 4949 	sub	a, #0x04
    0000182E 20 3A            [12] 4950 	jr	NZ, 00114$
    00001830                       4951 00116$:
                                   4952 ;./exsoccer.c:1078: g_RestartKickTeamId == g_Players[playerId].TeamId) 
    00001830 3Ar80r11         [13] 4953 	ld	a, (_g_RestartKickTeamId+0)
    00001833 DD 96 F3         [19] 4954 	sub	a, -13 (ix)
    00001836 20 32            [12] 4955 	jr	NZ, 00114$
                                   4956 ;./exsoccer.c:1080: ty = isTeam1 ? FIELD_POS_Y_CENTER : (FIELD_POS_Y_CENTER - 10);
    00001838 DD 7E F9         [19] 4957 	ld	a, -7 (ix)
    0000183B B7               [ 4] 4958 	or	a, a
    0000183C 28 0B            [12] 4959 	jr	Z, 00125$
    0000183E DD 36 FC F3      [19] 4960 	ld	-4 (ix), #0xf3
    00001842 DD 36 FD 00      [19] 4961 	ld	-3 (ix), #0
    00001846 C3r51r18         [10] 4962 	jp	00126$
    00001849                       4963 00125$:
    00001849 DD 36 FC E9      [19] 4964 	ld	-4 (ix), #0xe9
    0000184D DD 36 FD 00      [19] 4965 	ld	-3 (ix), #0
    00001851                       4966 00126$:
                                   4967 ;./exsoccer.c:1081: if (role == PLAYER_ROLE_LEFT_HALFFIELDER) tx = FIELD_POS_X_CENTER - 7;
    00001851 DD 7E FE         [19] 4968 	ld	a, -2 (ix)
    00001854 B7               [ 4] 4969 	or	a, a
    00001855 28 0B            [12] 4970 	jr	Z, 00111$
    00001857 DD 36 FA 71      [19] 4971 	ld	-6 (ix), #0x71
    0000185B DD 36 FB 00      [19] 4972 	ld	-5 (ix), #0
    0000185F C3r6Ar18         [10] 4973 	jp	00114$
    00001862                       4974 00111$:
                                   4975 ;./exsoccer.c:1082: else tx = FIELD_POS_X_CENTER + 7;
    00001862 DD 36 FA 7F      [19] 4976 	ld	-6 (ix), #0x7f
    00001866 DD 36 FB 00      [19] 4977 	ld	-5 (ix), #0
    0000186A                       4978 00114$:
                                   4979 ;./exsoccer.c:1085: g_Players[playerId].TargetX = tx;
    0000186A DD 6E F4         [19] 4980 	ld	l, -12 (ix)
    0000186D DD 66 F5         [19] 4981 	ld	h, -11 (ix)
    00001870 DD 7E FA         [19] 4982 	ld	a, -6 (ix)
    00001873 77               [ 7] 4983 	ld	(hl), a
    00001874 23               [ 6] 4984 	inc	hl
    00001875 DD 7E FB         [19] 4985 	ld	a, -5 (ix)
    00001878 77               [ 7] 4986 	ld	(hl), a
                                   4987 ;./exsoccer.c:1086: g_Players[playerId].TargetY = ty;
    00001879 DD 6E F6         [19] 4988 	ld	l, -10 (ix)
    0000187C DD 66 F7         [19] 4989 	ld	h, -9 (ix)
    0000187F DD 7E FC         [19] 4990 	ld	a, -4 (ix)
    00001882 77               [ 7] 4991 	ld	(hl), a
    00001883 23               [ 6] 4992 	inc	hl
    00001884 DD 7E FD         [19] 4993 	ld	a, -3 (ix)
    00001887 77               [ 7] 4994 	ld	(hl), a
                                   4995 ;./exsoccer.c:1090: }
    00001888                       4996 00121$:
                                   4997 ;./exsoccer.c:1091: }
    00001888 DD F9            [10] 4998 	ld	sp, ix
    0000188A DD E1            [14] 4999 	pop	ix
    0000188C C9               [10] 5000 	ret
    0000188D                       5001 _SetPlayerTarget_k_KO_X_196608_1956:
    0000188D 78                    5002 	.db #0x78	; 120	'x'
    0000188E 28                    5003 	.db #0x28	; 40
    0000188F C6                    5004 	.db #0xc6	; 198
    00001890 8C                    5005 	.db #0x8c	; 140
    00001891 62                    5006 	.db #0x62	; 98	'b'
    00001892 28                    5007 	.db #0x28	; 40
    00001893 C6                    5008 	.db #0xc6	; 198
    00001894                       5009 _SetPlayerTarget_k_KO_Y_T1_196608_1956:
    00001894 A8 01                 5010 	.dw #0x01a8
    00001896 76 01                 5011 	.dw #0x0176
    00001898 76 01                 5012 	.dw #0x0176
    0000189A 44 01                 5013 	.dw #0x0144
    0000189C 44 01                 5014 	.dw #0x0144
    0000189E 1C 01                 5015 	.dw #0x011c
    000018A0 1C 01                 5016 	.dw #0x011c
    000018A2                       5017 _SetPlayerTarget_k_KO_Y_T2_196608_1956:
    000018A2 32 00                 5018 	.dw #0x0032
    000018A4 82 00                 5019 	.dw #0x0082
    000018A6 82 00                 5020 	.dw #0x0082
    000018A8 B4 00                 5021 	.dw #0x00b4
    000018AA B4 00                 5022 	.dw #0x00b4
    000018AC DC 00                 5023 	.dw #0x00dc
    000018AE DC 00                 5024 	.dw #0x00dc
                                   5025 ;./exsoccer.c:1092: const TeamStats* GetTeamStats(u8 teamId) {
                                   5026 ;	---------------------------------
                                   5027 ; Function GetTeamStats
                                   5028 ; ---------------------------------
    000018B0                       5029 _GetTeamStats::
    000018B0 4F               [ 4] 5030 	ld	c, a
                                   5031 ;./exsoccer.c:1093: if (teamId > 5) return &g_TeamStats[0];
    000018B1 3E 05            [ 7] 5032 	ld	a, #0x05
    000018B3 91               [ 4] 5033 	sub	a, c
    000018B4 30 04            [12] 5034 	jr	NC, 00102$
    000018B6 11rC3r01         [10] 5035 	ld	de, #_g_TeamStats
    000018B9 C9               [10] 5036 	ret
    000018BA                       5037 00102$:
                                   5038 ;./exsoccer.c:1094: return &g_TeamStats[teamId];
    000018BA 06 00            [ 7] 5039 	ld	b, #0x00
    000018BC 69               [ 4] 5040 	ld	l, c
    000018BD 60               [ 4] 5041 	ld	h, b
    000018BE 29               [11] 5042 	add	hl, hl
    000018BF 29               [11] 5043 	add	hl, hl
    000018C0 09               [11] 5044 	add	hl, bc
    000018C1 11rC3r01         [10] 5045 	ld	de, #_g_TeamStats
    000018C4 19               [11] 5046 	add	hl, de
    000018C5 EB               [ 4] 5047 	ex	de, hl
                                   5048 ;./exsoccer.c:1095: }
    000018C6 C9               [10] 5049 	ret
                                   5050 ;./exsoccer.c:1096: bool IsOffside(u8 playerId) {
                                   5051 ;	---------------------------------
                                   5052 ; Function IsOffside
                                   5053 ; ---------------------------------
    000018C7                       5054 _IsOffside::
    000018C7 DD E5            [15] 5055 	push	ix
    000018C9 DD 21 00 00      [14] 5056 	ld	ix,#0
    000018CD DD 39            [15] 5057 	add	ix,sp
    000018CF 21 F9 FF         [10] 5058 	ld	hl, #-7
    000018D2 39               [11] 5059 	add	hl, sp
    000018D3 F9               [ 6] 5060 	ld	sp, hl
    000018D4 4F               [ 4] 5061 	ld	c, a
                                   5062 ;./exsoccer.c:1097: u8 teamId = g_Players[playerId].TeamId;
    000018D5 06 00            [ 7] 5063 	ld	b, #0x00
    000018D7 69               [ 4] 5064 	ld	l, c
    000018D8 60               [ 4] 5065 	ld	h, b
    000018D9 29               [11] 5066 	add	hl, hl
    000018DA 29               [11] 5067 	add	hl, hl
    000018DB 09               [11] 5068 	add	hl, bc
    000018DC 29               [11] 5069 	add	hl, hl
    000018DD 29               [11] 5070 	add	hl, hl
    000018DE 09               [11] 5071 	add	hl, bc
    000018DF EB               [ 4] 5072 	ex	de, hl
    000018E0 21r08r10         [10] 5073 	ld	hl, #_g_Players
    000018E3 19               [11] 5074 	add	hl, de
    000018E4 EB               [ 4] 5075 	ex	de, hl
    000018E5 D5               [11] 5076 	push	de
    000018E6 FD E1            [14] 5077 	pop	iy
    000018E8 FD 7E 09         [19] 5078 	ld	a, 9 (iy)
    000018EB DD 77 F9         [19] 5079 	ld	-7 (ix), a
                                   5080 ;./exsoccer.c:1098: u16 playerY = g_Players[playerId].Y;
    000018EE 1A               [ 7] 5081 	ld	a, (de)
    000018EF DD 77 FA         [19] 5082 	ld	-6 (ix), a
    000018F2 13               [ 6] 5083 	inc	de
    000018F3 1A               [ 7] 5084 	ld	a, (de)
    000018F4 DD 77 FB         [19] 5085 	ld	-5 (ix), a
                                   5086 ;./exsoccer.c:1099: u8 opponentCount = 0;
    000018F7 DD 36 FF 00      [19] 5087 	ld	-1 (ix), #0x00
                                   5088 ;./exsoccer.c:1103: if (teamId == TEAM_1) {
    000018FB DD 7E F9         [19] 5089 	ld	a, -7 (ix)
    000018FE 3D               [ 4] 5090 	dec	a
    000018FF 3E 01            [ 7] 5091 	ld	a, #0x01
    00001901 28 01            [12] 5092 	jr	Z, 00198$
    00001903 AF               [ 4] 5093 	xor	a, a
    00001904                       5094 00198$:
    00001904 DD 77 FC         [19] 5095 	ld	-4 (ix), a
                                   5096 ;./exsoccer.c:1104: if (playerY >= FIELD_POS_Y_CENTER) return FALSE; // Own half
    00001907 DD 7E FA         [19] 5097 	ld	a, -6 (ix)
    0000190A DD 77 FD         [19] 5098 	ld	-3 (ix), a
    0000190D DD 7E FB         [19] 5099 	ld	a, -5 (ix)
    00001910 DD 77 FE         [19] 5100 	ld	-2 (ix), a
                                   5101 ;./exsoccer.c:1103: if (teamId == TEAM_1) {
    00001913 DD 7E FC         [19] 5102 	ld	a, -4 (ix)
    00001916 B7               [ 4] 5103 	or	a, a
    00001917 28 10            [12] 5104 	jr	Z, 00106$
                                   5105 ;./exsoccer.c:1104: if (playerY >= FIELD_POS_Y_CENTER) return FALSE; // Own half
    00001919 DD 7E FD         [19] 5106 	ld	a, -3 (ix)
    0000191C D6 F3            [ 7] 5107 	sub	a, #0xf3
    0000191E DD 7E FE         [19] 5108 	ld	a, -2 (ix)
    00001921 DE 00            [ 7] 5109 	sbc	a, #0x00
    00001923 38 14            [12] 5110 	jr	C, 00107$
    00001925 AF               [ 4] 5111 	xor	a, a
    00001926 C3rB9r19         [10] 5112 	jp	00129$
    00001929                       5113 00106$:
                                   5114 ;./exsoccer.c:1106: if (playerY <= FIELD_POS_Y_CENTER) return FALSE; // Own half
    00001929 3E F3            [ 7] 5115 	ld	a, #0xf3
    0000192B DD BE FD         [19] 5116 	cp	a, -3 (ix)
    0000192E 3E 00            [ 7] 5117 	ld	a, #0x00
    00001930 DD 9E FE         [19] 5118 	sbc	a, -2 (ix)
    00001933 38 04            [12] 5119 	jr	C, 00107$
    00001935 AF               [ 4] 5120 	xor	a, a
    00001936 C3rB9r19         [10] 5121 	jp	00129$
    00001939                       5122 00107$:
                                   5123 ;./exsoccer.c:1111: if (teamId == TEAM_1) {
    00001939 DD 7E FC         [19] 5124 	ld	a, -4 (ix)
    0000193C B7               [ 4] 5125 	or	a, a
    0000193D 28 11            [12] 5126 	jr	Z, 00113$
                                   5127 ;./exsoccer.c:1112: if (playerY >= g_Ball.Y) return FALSE; 
    0000193F 2Ar61r11         [16] 5128 	ld	hl, (#_g_Ball + 0)
    00001942 DD 7E FA         [19] 5129 	ld	a, -6 (ix)
    00001945 95               [ 4] 5130 	sub	a, l
    00001946 DD 7E FB         [19] 5131 	ld	a, -5 (ix)
    00001949 9C               [ 4] 5132 	sbc	a, h
    0000194A 38 15            [12] 5133 	jr	C, 00141$
    0000194C AF               [ 4] 5134 	xor	a, a
    0000194D C3rB9r19         [10] 5135 	jp	00129$
    00001950                       5136 00113$:
                                   5137 ;./exsoccer.c:1114: if (playerY <= g_Ball.Y) return FALSE;
    00001950 2Ar61r11         [16] 5138 	ld	hl, (#_g_Ball + 0)
    00001953 7D               [ 4] 5139 	ld	a, l
    00001954 DD 96 FA         [19] 5140 	sub	a, -6 (ix)
    00001957 7C               [ 4] 5141 	ld	a, h
    00001958 DD 9E FB         [19] 5142 	sbc	a, -5 (ix)
    0000195B 38 04            [12] 5143 	jr	C, 00141$
    0000195D AF               [ 4] 5144 	xor	a, a
    0000195E C3rB9r19         [10] 5145 	jp	00129$
                                   5146 ;./exsoccer.c:1118: for (i = 0; i < 14; i++) {
    00001961                       5147 00141$:
    00001961 0E 00            [ 7] 5148 	ld	c, #0x00
    00001963                       5149 00128$:
                                   5150 ;./exsoccer.c:1119: if (g_Players[i].TeamId == teamId) continue;
    00001963 06 00            [ 7] 5151 	ld	b, #0x00
    00001965 69               [ 4] 5152 	ld	l, c
    00001966 60               [ 4] 5153 	ld	h, b
    00001967 29               [11] 5154 	add	hl, hl
    00001968 29               [11] 5155 	add	hl, hl
    00001969 09               [11] 5156 	add	hl, bc
    0000196A 29               [11] 5157 	add	hl, hl
    0000196B 29               [11] 5158 	add	hl, hl
    0000196C 09               [11] 5159 	add	hl, bc
    0000196D 11r08r10         [10] 5160 	ld	de, #_g_Players
    00001970 19               [11] 5161 	add	hl, de
                                   5162 ;	spillPairReg hl
                                   5163 ;	spillPairReg hl
    00001971 5D               [ 4] 5164 	ld	e, l
    00001972 54               [ 4] 5165 	ld	d, h
                                   5166 ;	spillPairReg hl
                                   5167 ;	spillPairReg hl
    00001973 C5               [11] 5168 	push	bc
    00001974 01 09 00         [10] 5169 	ld	bc, #0x0009
    00001977 09               [11] 5170 	add	hl, bc
    00001978 C1               [10] 5171 	pop	bc
    00001979 DD 7E F9         [19] 5172 	ld	a,-7 (ix)
    0000197C 96               [ 7] 5173 	sub	a,(hl)
    0000197D 28 27            [12] 5174 	jr	Z, 00124$
                                   5175 ;./exsoccer.c:1123: if (g_Players[i].Y <= playerY) opponentCount++;
    0000197F EB               [ 4] 5176 	ex	de,hl
    00001980 5E               [ 7] 5177 	ld	e, (hl)
    00001981 23               [ 6] 5178 	inc	hl
    00001982 56               [ 7] 5179 	ld	d, (hl)
                                   5180 ;./exsoccer.c:1122: if (teamId == TEAM_1) { // Attacking UP
    00001983 DD 7E FC         [19] 5181 	ld	a, -4 (ix)
    00001986 B7               [ 4] 5182 	or	a, a
    00001987 28 10            [12] 5183 	jr	Z, 00122$
                                   5184 ;./exsoccer.c:1123: if (g_Players[i].Y <= playerY) opponentCount++;
    00001989 DD 7E FA         [19] 5185 	ld	a, -6 (ix)
    0000198C 93               [ 4] 5186 	sub	a, e
    0000198D DD 7E FB         [19] 5187 	ld	a, -5 (ix)
    00001990 9A               [ 4] 5188 	sbc	a, d
    00001991 38 13            [12] 5189 	jr	C, 00124$
    00001993 DD 34 FF         [23] 5190 	inc	-1 (ix)
    00001996 C3rA6r19         [10] 5191 	jp	00124$
    00001999                       5192 00122$:
                                   5193 ;./exsoccer.c:1125: if (g_Players[i].Y >= playerY) opponentCount++;
    00001999 7B               [ 4] 5194 	ld	a, e
    0000199A DD 96 FA         [19] 5195 	sub	a, -6 (ix)
    0000199D 7A               [ 4] 5196 	ld	a, d
    0000199E DD 9E FB         [19] 5197 	sbc	a, -5 (ix)
    000019A1 38 03            [12] 5198 	jr	C, 00124$
    000019A3 DD 34 FF         [23] 5199 	inc	-1 (ix)
    000019A6                       5200 00124$:
                                   5201 ;./exsoccer.c:1118: for (i = 0; i < 14; i++) {
    000019A6 0C               [ 4] 5202 	inc	c
    000019A7 79               [ 4] 5203 	ld	a, c
    000019A8 D6 0E            [ 7] 5204 	sub	a, #0x0e
    000019AA 38 B7            [12] 5205 	jr	C, 00128$
                                   5206 ;./exsoccer.c:1129: if (opponentCount < 2) return TRUE;
    000019AC DD 7E FF         [19] 5207 	ld	a, -1 (ix)
    000019AF D6 02            [ 7] 5208 	sub	a, #0x02
    000019B1 30 05            [12] 5209 	jr	NC, 00127$
    000019B3 3E 01            [ 7] 5210 	ld	a, #0x01
    000019B5 C3rB9r19         [10] 5211 	jp	00129$
    000019B8                       5212 00127$:
                                   5213 ;./exsoccer.c:1130: return FALSE;
    000019B8 AF               [ 4] 5214 	xor	a, a
    000019B9                       5215 00129$:
                                   5216 ;./exsoccer.c:1131: }
    000019B9 DD F9            [10] 5217 	ld	sp, ix
    000019BB DD E1            [14] 5218 	pop	ix
    000019BD C9               [10] 5219 	ret
                                   5220 ;./exsoccer.c:1132: void PerformPass(u8 toPlayerId) {
                                   5221 ;	---------------------------------
                                   5222 ; Function PerformPass
                                   5223 ; ---------------------------------
    000019BE                       5224 _PerformPass::
    000019BE DD E5            [15] 5225 	push	ix
    000019C0 DD 21 00 00      [14] 5226 	ld	ix,#0
    000019C4 DD 39            [15] 5227 	add	ix,sp
    000019C6 21 EB FF         [10] 5228 	ld	hl, #-21
    000019C9 39               [11] 5229 	add	hl, sp
    000019CA F9               [ 6] 5230 	ld	sp, hl
    000019CB DD 77 FF         [19] 5231 	ld	-1 (ix), a
                                   5232 ;./exsoccer.c:1134: u8 fromId = g_Ball.PossessionPlayerId;
    000019CE 3Ar67r11         [13] 5233 	ld	a, (#(_g_Ball + 6) + 0)
                                   5234 ;./exsoccer.c:1138: if (fromId == NO_VALUE) return;
    000019D1 DD 77 FE         [19] 5235 	ld	-2 (ix), a
    000019D4 3C               [ 4] 5236 	inc	a
    000019D5 CAr87r1D         [10] 5237 	jp	Z,00155$
    000019D8 C3rDBr19         [10] 5238 	jp	00102$
    000019DB                       5239 00102$:
                                   5240 ;./exsoccer.c:1139: if (toPlayerId == NO_VALUE) return;
    000019DB DD 7E FF         [19] 5241 	ld	a, -1 (ix)
    000019DE 3C               [ 4] 5242 	inc	a
    000019DF CAr87r1D         [10] 5243 	jp	Z,00155$
    000019E2 C3rE5r19         [10] 5244 	jp	00104$
    000019E5                       5245 00104$:
                                   5246 ;./exsoccer.c:1142: if (g_Players[toPlayerId].Role == PLAYER_ROLE_GOALKEEPER) return;
    000019E5 01r08r10         [10] 5247 	ld	bc, #_g_Players+0
    000019E8 DD 5E FF         [19] 5248 	ld	e, -1 (ix)
    000019EB 16 00            [ 7] 5249 	ld	d, #0x00
    000019ED 6B               [ 4] 5250 	ld	l, e
    000019EE 62               [ 4] 5251 	ld	h, d
    000019EF 29               [11] 5252 	add	hl, hl
    000019F0 29               [11] 5253 	add	hl, hl
    000019F1 19               [11] 5254 	add	hl, de
    000019F2 29               [11] 5255 	add	hl, hl
    000019F3 29               [11] 5256 	add	hl, hl
    000019F4 19               [11] 5257 	add	hl, de
    000019F5 09               [11] 5258 	add	hl, bc
    000019F6 E3               [19] 5259 	ex	(sp), hl
    000019F7 D1               [10] 5260 	pop	de
    000019F8 D5               [11] 5261 	push	de
    000019F9 21 0D 00         [10] 5262 	ld	hl, #13
    000019FC 19               [11] 5263 	add	hl, de
    000019FD 7E               [ 7] 5264 	ld	a, (hl)
    000019FE B7               [ 4] 5265 	or	a, a
    000019FF CAr87r1D         [10] 5266 	jp	Z,00155$
                                   5267 ;./exsoccer.c:1146: if (g_Players[fromId].Role != PLAYER_ROLE_GOALKEEPER) {
    00001A02 DD 5E FE         [19] 5268 	ld	e, -2 (ix)
    00001A05 16 00            [ 7] 5269 	ld	d, #0x00
    00001A07 6B               [ 4] 5270 	ld	l, e
    00001A08 62               [ 4] 5271 	ld	h, d
    00001A09 29               [11] 5272 	add	hl, hl
    00001A0A 29               [11] 5273 	add	hl, hl
    00001A0B 19               [11] 5274 	add	hl, de
    00001A0C 29               [11] 5275 	add	hl, hl
    00001A0D 29               [11] 5276 	add	hl, hl
    00001A0E 19               [11] 5277 	add	hl, de
    00001A0F 09               [11] 5278 	add	hl, bc
    00001A10 DD 75 ED         [19] 5279 	ld	-19 (ix), l
    00001A13 DD 74 EE         [19] 5280 	ld	-18 (ix), h
    00001A16 DD 7E ED         [19] 5281 	ld	a, -19 (ix)
    00001A19 C6 0D            [ 7] 5282 	add	a, #0x0d
    00001A1B DD 77 EF         [19] 5283 	ld	-17 (ix), a
    00001A1E DD 7E EE         [19] 5284 	ld	a, -18 (ix)
    00001A21 CE 00            [ 7] 5285 	adc	a, #0x00
    00001A23 DD 77 F0         [19] 5286 	ld	-16 (ix), a
    00001A26 DD 6E EF         [19] 5287 	ld	l, -17 (ix)
    00001A29 DD 66 F0         [19] 5288 	ld	h, -16 (ix)
    00001A2C 7E               [ 7] 5289 	ld	a, (hl)
    00001A2D B7               [ 4] 5290 	or	a, a
    00001A2E 28 0A            [12] 5291 	jr	Z, 00110$
                                   5292 ;./exsoccer.c:1147: if (IsOffside(toPlayerId)) {
    00001A30 DD 7E FF         [19] 5293 	ld	a, -1 (ix)
    00001A33 CDrC7r18         [17] 5294 	call	_IsOffside
    00001A36 B7               [ 4] 5295 	or	a, a
                                   5296 ;./exsoccer.c:1149: return;
    00001A37 C2r87r1D         [10] 5297 	jp	NZ,00155$
    00001A3A                       5298 00110$:
                                   5299 ;./exsoccer.c:1154: dx = (i16)g_Players[toPlayerId].X - (i16)g_Players[fromId].X;
    00001A3A DD 7E EB         [19] 5300 	ld	a, -21 (ix)
    00001A3D C6 02            [ 7] 5301 	add	a, #0x02
    00001A3F DD 77 F1         [19] 5302 	ld	-15 (ix), a
    00001A42 DD 7E EC         [19] 5303 	ld	a, -20 (ix)
    00001A45 CE 00            [ 7] 5304 	adc	a, #0x00
    00001A47 DD 77 F2         [19] 5305 	ld	-14 (ix), a
    00001A4A DD 6E F1         [19] 5306 	ld	l, -15 (ix)
    00001A4D DD 66 F2         [19] 5307 	ld	h, -14 (ix)
    00001A50 4E               [ 7] 5308 	ld	c, (hl)
    00001A51 23               [ 6] 5309 	inc	hl
    00001A52 46               [ 7] 5310 	ld	b, (hl)
    00001A53 DD 7E ED         [19] 5311 	ld	a, -19 (ix)
    00001A56 C6 02            [ 7] 5312 	add	a, #0x02
    00001A58 DD 77 F3         [19] 5313 	ld	-13 (ix), a
    00001A5B DD 7E EE         [19] 5314 	ld	a, -18 (ix)
    00001A5E CE 00            [ 7] 5315 	adc	a, #0x00
    00001A60 DD 77 F4         [19] 5316 	ld	-12 (ix), a
    00001A63 DD 6E F3         [19] 5317 	ld	l, -13 (ix)
    00001A66 DD 66 F4         [19] 5318 	ld	h, -12 (ix)
    00001A69 5E               [ 7] 5319 	ld	e, (hl)
    00001A6A 23               [ 6] 5320 	inc	hl
    00001A6B 56               [ 7] 5321 	ld	d, (hl)
    00001A6C 79               [ 4] 5322 	ld	a, c
    00001A6D 93               [ 4] 5323 	sub	a, e
    00001A6E DD 77 FB         [19] 5324 	ld	-5 (ix), a
    00001A71 78               [ 4] 5325 	ld	a, b
    00001A72 9A               [ 4] 5326 	sbc	a, d
    00001A73 DD 77 FC         [19] 5327 	ld	-4 (ix), a
                                   5328 ;./exsoccer.c:1155: dy = (i16)g_Players[toPlayerId].Y - (i16)g_Players[fromId].Y;
    00001A76 E1               [10] 5329 	pop	hl
    00001A77 E5               [11] 5330 	push	hl
    00001A78 4E               [ 7] 5331 	ld	c, (hl)
    00001A79 23               [ 6] 5332 	inc	hl
    00001A7A 46               [ 7] 5333 	ld	b, (hl)
    00001A7B DD 6E ED         [19] 5334 	ld	l, -19 (ix)
    00001A7E DD 66 EE         [19] 5335 	ld	h, -18 (ix)
    00001A81 5E               [ 7] 5336 	ld	e, (hl)
    00001A82 23               [ 6] 5337 	inc	hl
    00001A83 56               [ 7] 5338 	ld	d, (hl)
    00001A84 79               [ 4] 5339 	ld	a, c
    00001A85 93               [ 4] 5340 	sub	a, e
    00001A86 DD 77 F5         [19] 5341 	ld	-11 (ix), a
    00001A89 78               [ 4] 5342 	ld	a, b
    00001A8A 9A               [ 4] 5343 	sbc	a, d
    00001A8B DD 77 F6         [19] 5344 	ld	-10 (ix), a
                                   5345 ;./exsoccer.c:1156: adx = (dx < 0) ? -dx : dx;
    00001A8E DD 7E FB         [19] 5346 	ld	a, -5 (ix)
    00001A91 DD 77 F7         [19] 5347 	ld	-9 (ix), a
    00001A94 DD 7E FC         [19] 5348 	ld	a, -4 (ix)
    00001A97 DD 77 F8         [19] 5349 	ld	-8 (ix), a
    00001A9A DD CB F8 7E      [20] 5350 	bit	7, -8 (ix)
    00001A9E 28 11            [12] 5351 	jr	Z, 00157$
    00001AA0 AF               [ 4] 5352 	xor	a, a
    00001AA1 DD 96 FB         [19] 5353 	sub	a, -5 (ix)
    00001AA4 DD 77 FD         [19] 5354 	ld	-3 (ix), a
    00001AA7 9F               [ 4] 5355 	sbc	a, a
    00001AA8 DD 96 FC         [19] 5356 	sub	a, -4 (ix)
    00001AAB DD 77 FE         [19] 5357 	ld	-2 (ix), a
    00001AAE C3rBDr1A         [10] 5358 	jp	00158$
    00001AB1                       5359 00157$:
    00001AB1 DD 7E FB         [19] 5360 	ld	a, -5 (ix)
    00001AB4 DD 77 FD         [19] 5361 	ld	-3 (ix), a
    00001AB7 DD 7E FC         [19] 5362 	ld	a, -4 (ix)
    00001ABA DD 77 FE         [19] 5363 	ld	-2 (ix), a
    00001ABD                       5364 00158$:
    00001ABD DD 7E FD         [19] 5365 	ld	a, -3 (ix)
    00001AC0 DD 77 F9         [19] 5366 	ld	-7 (ix), a
    00001AC3 DD 7E FE         [19] 5367 	ld	a, -2 (ix)
    00001AC6 DD 77 FA         [19] 5368 	ld	-6 (ix), a
                                   5369 ;./exsoccer.c:1157: ady = (dy < 0) ? -dy : dy;
    00001AC9 DD 7E F5         [19] 5370 	ld	a, -11 (ix)
    00001ACC DD 77 FB         [19] 5371 	ld	-5 (ix), a
    00001ACF DD 7E F6         [19] 5372 	ld	a, -10 (ix)
    00001AD2 DD 77 FC         [19] 5373 	ld	-4 (ix), a
    00001AD5 DD CB FC 7E      [20] 5374 	bit	7, -4 (ix)
    00001AD9 28 11            [12] 5375 	jr	Z, 00159$
    00001ADB AF               [ 4] 5376 	xor	a, a
    00001ADC DD 96 F5         [19] 5377 	sub	a, -11 (ix)
    00001ADF DD 77 FD         [19] 5378 	ld	-3 (ix), a
    00001AE2 9F               [ 4] 5379 	sbc	a, a
    00001AE3 DD 96 F6         [19] 5380 	sub	a, -10 (ix)
    00001AE6 DD 77 FE         [19] 5381 	ld	-2 (ix), a
    00001AE9 C3rF8r1A         [10] 5382 	jp	00160$
    00001AEC                       5383 00159$:
    00001AEC DD 7E F5         [19] 5384 	ld	a, -11 (ix)
    00001AEF DD 77 FD         [19] 5385 	ld	-3 (ix), a
    00001AF2 DD 7E F6         [19] 5386 	ld	a, -10 (ix)
    00001AF5 DD 77 FE         [19] 5387 	ld	-2 (ix), a
    00001AF8                       5388 00160$:
    00001AF8 DD 4E FD         [19] 5389 	ld	c, -3 (ix)
    00001AFB DD 46 FE         [19] 5390 	ld	b, -2 (ix)
                                   5391 ;./exsoccer.c:1159: if (adx > ady * 2) {
    00001AFE 69               [ 4] 5392 	ld	l, c
    00001AFF 60               [ 4] 5393 	ld	h, b
    00001B00 29               [11] 5394 	add	hl, hl
    00001B01 DD 5E F9         [19] 5395 	ld	e, -7 (ix)
    00001B04 DD 56 FA         [19] 5396 	ld	d, -6 (ix)
    00001B07 7D               [ 4] 5397 	ld	a, l
    00001B08 93               [ 4] 5398 	sub	a, e
    00001B09 7C               [ 4] 5399 	ld	a, h
    00001B0A 9A               [ 4] 5400 	sbc	a, d
    00001B0B E2r10r1B         [10] 5401 	jp	PO, 00322$
    00001B0E EE 80            [ 7] 5402 	xor	a, #0x80
    00001B10                       5403 00322$:
    00001B10 F2r31r1B         [10] 5404 	jp	P, 00118$
                                   5405 ;./exsoccer.c:1160: newDir = (dx > 0) ? DIRECTION_RIGHT : DIRECTION_LEFT;
    00001B13 AF               [ 4] 5406 	xor	a, a
    00001B14 DD BE F7         [19] 5407 	cp	a, -9 (ix)
    00001B17 DD 9E F8         [19] 5408 	sbc	a, -8 (ix)
    00001B1A E2r1Fr1B         [10] 5409 	jp	PO, 00323$
    00001B1D EE 80            [ 7] 5410 	xor	a, #0x80
    00001B1F                       5411 00323$:
    00001B1F F2r28r1B         [10] 5412 	jp	P, 00161$
    00001B22 01 03 00         [10] 5413 	ld	bc, #0x0003
    00001B25 C3r2Br1B         [10] 5414 	jp	00162$
    00001B28                       5415 00161$:
    00001B28 01 07 00         [10] 5416 	ld	bc, #0x0007
    00001B2B                       5417 00162$:
    00001B2B DD 71 FC         [19] 5418 	ld	-4 (ix), c
    00001B2E C3r95r1B         [10] 5419 	jp	00119$
    00001B31                       5420 00118$:
                                   5421 ;./exsoccer.c:1161: } else if (ady > adx * 2) {
    00001B31 EB               [ 4] 5422 	ex	de, hl
    00001B32 29               [11] 5423 	add	hl, hl
    00001B33 EB               [ 4] 5424 	ex	de, hl
                                   5425 ;./exsoccer.c:1162: newDir = (dy > 0) ? DIRECTION_DOWN : DIRECTION_UP;
    00001B34 AF               [ 4] 5426 	xor	a, a
    00001B35 DD BE FB         [19] 5427 	cp	a, -5 (ix)
    00001B38 DD 9E FC         [19] 5428 	sbc	a, -4 (ix)
    00001B3B E2r40r1B         [10] 5429 	jp	PO, 00324$
    00001B3E EE 80            [ 7] 5430 	xor	a, #0x80
    00001B40                       5431 00324$:
    00001B40 07               [ 4] 5432 	rlca
    00001B41 E6 01            [ 7] 5433 	and	a,#0x01
    00001B43 6F               [ 4] 5434 	ld	l, a
                                   5435 ;	spillPairReg hl
                                   5436 ;	spillPairReg hl
                                   5437 ;./exsoccer.c:1161: } else if (ady > adx * 2) {
    00001B44 7B               [ 4] 5438 	ld	a, e
    00001B45 91               [ 4] 5439 	sub	a, c
    00001B46 7A               [ 4] 5440 	ld	a, d
    00001B47 98               [ 4] 5441 	sbc	a, b
    00001B48 E2r4Dr1B         [10] 5442 	jp	PO, 00325$
    00001B4B EE 80            [ 7] 5443 	xor	a, #0x80
    00001B4D                       5444 00325$:
    00001B4D F2r63r1B         [10] 5445 	jp	P, 00115$
                                   5446 ;./exsoccer.c:1162: newDir = (dy > 0) ? DIRECTION_DOWN : DIRECTION_UP;
    00001B50 7D               [ 4] 5447 	ld	a, l
    00001B51 B7               [ 4] 5448 	or	a, a
    00001B52 28 06            [12] 5449 	jr	Z, 00163$
    00001B54 01 05 00         [10] 5450 	ld	bc, #0x0005
    00001B57 C3r5Dr1B         [10] 5451 	jp	00164$
    00001B5A                       5452 00163$:
    00001B5A 01 01 00         [10] 5453 	ld	bc, #0x0001
    00001B5D                       5454 00164$:
    00001B5D DD 71 FC         [19] 5455 	ld	-4 (ix), c
    00001B60 C3r95r1B         [10] 5456 	jp	00119$
    00001B63                       5457 00115$:
                                   5458 ;./exsoccer.c:1164: if (dx > 0) newDir = (dy > 0) ? DIRECTION_DOWN_RIGHT : DIRECTION_UP_RIGHT;
    00001B63 AF               [ 4] 5459 	xor	a, a
    00001B64 DD BE F7         [19] 5460 	cp	a, -9 (ix)
    00001B67 DD 9E F8         [19] 5461 	sbc	a, -8 (ix)
    00001B6A E2r6Fr1B         [10] 5462 	jp	PO, 00326$
    00001B6D EE 80            [ 7] 5463 	xor	a, #0x80
    00001B6F                       5464 00326$:
    00001B6F F2r85r1B         [10] 5465 	jp	P, 00112$
    00001B72 7D               [ 4] 5466 	ld	a, l
    00001B73 B7               [ 4] 5467 	or	a, a
    00001B74 28 06            [12] 5468 	jr	Z, 00165$
    00001B76 01 04 00         [10] 5469 	ld	bc, #0x0004
    00001B79 C3r7Fr1B         [10] 5470 	jp	00166$
    00001B7C                       5471 00165$:
    00001B7C 01 02 00         [10] 5472 	ld	bc, #0x0002
    00001B7F                       5473 00166$:
    00001B7F DD 71 FC         [19] 5474 	ld	-4 (ix), c
    00001B82 C3r95r1B         [10] 5475 	jp	00119$
    00001B85                       5476 00112$:
                                   5477 ;./exsoccer.c:1165: else newDir = (dy > 0) ? DIRECTION_DOWN_LEFT : DIRECTION_UP_LEFT;
    00001B85 7D               [ 4] 5478 	ld	a, l
    00001B86 B7               [ 4] 5479 	or	a, a
    00001B87 28 06            [12] 5480 	jr	Z, 00167$
    00001B89 01 06 00         [10] 5481 	ld	bc, #0x0006
    00001B8C C3r92r1B         [10] 5482 	jp	00168$
    00001B8F                       5483 00167$:
    00001B8F 01 08 00         [10] 5484 	ld	bc, #0x0008
    00001B92                       5485 00168$:
    00001B92 DD 71 FC         [19] 5486 	ld	-4 (ix), c
    00001B95                       5487 00119$:
                                   5488 ;./exsoccer.c:1167: g_Players[fromId].Direction = newDir;
    00001B95 DD 6E ED         [19] 5489 	ld	l, -19 (ix)
    00001B98 DD 66 EE         [19] 5490 	ld	h, -18 (ix)
    00001B9B 11 0A 00         [10] 5491 	ld	de, #0x000a
    00001B9E 19               [11] 5492 	add	hl, de
    00001B9F DD 7E FC         [19] 5493 	ld	a, -4 (ix)
    00001BA2 77               [ 7] 5494 	ld	(hl), a
                                   5495 ;./exsoccer.c:1170: if (newDir == DIRECTION_UP || newDir == DIRECTION_UP_LEFT || newDir == DIRECTION_UP_RIGHT) g_Players[fromId].PatternId = PLAYER_POSE_SHOT_FRONT;
    00001BA3 DD 7E FC         [19] 5496 	ld	a, -4 (ix)
    00001BA6 3D               [ 4] 5497 	dec	a
    00001BA7 28 0E            [12] 5498 	jr	Z, 00130$
    00001BA9 DD 7E FC         [19] 5499 	ld	a, -4 (ix)
    00001BAC D6 08            [ 7] 5500 	sub	a, #0x08
    00001BAE 28 07            [12] 5501 	jr	Z, 00130$
    00001BB0 DD 7E FC         [19] 5502 	ld	a, -4 (ix)
    00001BB3 D6 02            [ 7] 5503 	sub	a, #0x02
    00001BB5 20 1B            [12] 5504 	jr	NZ, 00131$
    00001BB7                       5505 00130$:
    00001BB7 DD 7E ED         [19] 5506 	ld	a, -19 (ix)
    00001BBA C6 08            [ 7] 5507 	add	a, #0x08
    00001BBC DD 77 FD         [19] 5508 	ld	-3 (ix), a
    00001BBF DD 7E EE         [19] 5509 	ld	a, -18 (ix)
    00001BC2 CE 00            [ 7] 5510 	adc	a, #0x00
    00001BC4 DD 77 FE         [19] 5511 	ld	-2 (ix), a
    00001BC7 DD 6E FD         [19] 5512 	ld	l, -3 (ix)
    00001BCA DD 66 FE         [19] 5513 	ld	h, -2 (ix)
    00001BCD 36 18            [10] 5514 	ld	(hl), #0x18
    00001BCF C3r1Fr1C         [10] 5515 	jp	00132$
    00001BD2                       5516 00131$:
                                   5517 ;./exsoccer.c:1171: else if (newDir == DIRECTION_DOWN || newDir == DIRECTION_DOWN_LEFT || newDir == DIRECTION_DOWN_RIGHT) g_Players[fromId].PatternId = PLAYER_POSE_SHOT_BACK;
    00001BD2 DD 7E FC         [19] 5518 	ld	a, -4 (ix)
    00001BD5 D6 05            [ 7] 5519 	sub	a, #0x05
    00001BD7 28 0E            [12] 5520 	jr	Z, 00125$
    00001BD9 DD 7E FC         [19] 5521 	ld	a, -4 (ix)
    00001BDC D6 06            [ 7] 5522 	sub	a, #0x06
    00001BDE 28 07            [12] 5523 	jr	Z, 00125$
    00001BE0 DD 7E FC         [19] 5524 	ld	a, -4 (ix)
    00001BE3 D6 04            [ 7] 5525 	sub	a, #0x04
    00001BE5 20 0F            [12] 5526 	jr	NZ, 00126$
    00001BE7                       5527 00125$:
    00001BE7 DD 6E ED         [19] 5528 	ld	l, -19 (ix)
    00001BEA DD 66 EE         [19] 5529 	ld	h, -18 (ix)
    00001BED 11 08 00         [10] 5530 	ld	de, #0x0008
    00001BF0 19               [11] 5531 	add	hl, de
    00001BF1 36 15            [10] 5532 	ld	(hl), #0x15
    00001BF3 C3r1Fr1C         [10] 5533 	jp	00132$
    00001BF6                       5534 00126$:
                                   5535 ;./exsoccer.c:1172: else if (newDir == DIRECTION_LEFT) g_Players[fromId].PatternId = PLAYER_POSE_SHOT_LEFT;
    00001BF6 DD 7E FC         [19] 5536 	ld	a, -4 (ix)
    00001BF9 D6 07            [ 7] 5537 	sub	a, #0x07
    00001BFB 20 0F            [12] 5538 	jr	NZ, 00123$
    00001BFD DD 6E ED         [19] 5539 	ld	l, -19 (ix)
    00001C00 DD 66 EE         [19] 5540 	ld	h, -18 (ix)
    00001C03 11 08 00         [10] 5541 	ld	de, #0x0008
    00001C06 19               [11] 5542 	add	hl, de
    00001C07 36 A4            [10] 5543 	ld	(hl), #0xa4
    00001C09 C3r1Fr1C         [10] 5544 	jp	00132$
    00001C0C                       5545 00123$:
                                   5546 ;./exsoccer.c:1173: else if (newDir == DIRECTION_RIGHT) g_Players[fromId].PatternId = PLAYER_POSE_SHOT_RIGHT;
    00001C0C DD 7E FC         [19] 5547 	ld	a, -4 (ix)
    00001C0F D6 03            [ 7] 5548 	sub	a, #0x03
    00001C11 20 0C            [12] 5549 	jr	NZ, 00132$
    00001C13 DD 6E ED         [19] 5550 	ld	l, -19 (ix)
    00001C16 DD 66 EE         [19] 5551 	ld	h, -18 (ix)
    00001C19 11 08 00         [10] 5552 	ld	de, #0x0008
    00001C1C 19               [11] 5553 	add	hl, de
    00001C1D 36 1B            [10] 5554 	ld	(hl), #0x1b
    00001C1F                       5555 00132$:
                                   5556 ;./exsoccer.c:1175: g_Players[fromId].Status = PLAYER_STATUS_POSITIONED; // Lock pose for this frame
    00001C1F DD 6E ED         [19] 5557 	ld	l, -19 (ix)
    00001C22 DD 66 EE         [19] 5558 	ld	h, -18 (ix)
    00001C25 11 12 00         [10] 5559 	ld	de, #0x0012
    00001C28 19               [11] 5560 	add	hl, de
    00001C29 36 04            [10] 5561 	ld	(hl), #0x04
    00001C2B 23               [ 6] 5562 	inc	hl
    00001C2C 36 00            [10] 5563 	ld	(hl), #0x00
                                   5564 ;./exsoccer.c:1178: g_Players[fromId].TargetX = g_Players[fromId].X;
    00001C2E DD 7E ED         [19] 5565 	ld	a, -19 (ix)
    00001C31 C6 10            [ 7] 5566 	add	a, #0x10
    00001C33 4F               [ 4] 5567 	ld	c, a
    00001C34 DD 7E EE         [19] 5568 	ld	a, -18 (ix)
    00001C37 CE 00            [ 7] 5569 	adc	a, #0x00
    00001C39 47               [ 4] 5570 	ld	b, a
    00001C3A DD 6E F3         [19] 5571 	ld	l, -13 (ix)
    00001C3D DD 66 F4         [19] 5572 	ld	h, -12 (ix)
    00001C40 5E               [ 7] 5573 	ld	e, (hl)
    00001C41 23               [ 6] 5574 	inc	hl
    00001C42 56               [ 7] 5575 	ld	d, (hl)
    00001C43 7B               [ 4] 5576 	ld	a, e
    00001C44 02               [ 7] 5577 	ld	(bc), a
    00001C45 03               [ 6] 5578 	inc	bc
    00001C46 7A               [ 4] 5579 	ld	a, d
    00001C47 02               [ 7] 5580 	ld	(bc), a
                                   5581 ;./exsoccer.c:1179: g_Players[fromId].TargetY = g_Players[fromId].Y;
    00001C48 DD 7E ED         [19] 5582 	ld	a, -19 (ix)
    00001C4B C6 0E            [ 7] 5583 	add	a, #0x0e
    00001C4D 4F               [ 4] 5584 	ld	c, a
    00001C4E DD 7E EE         [19] 5585 	ld	a, -18 (ix)
    00001C51 CE 00            [ 7] 5586 	adc	a, #0x00
    00001C53 47               [ 4] 5587 	ld	b, a
    00001C54 DD 6E ED         [19] 5588 	ld	l, -19 (ix)
    00001C57 DD 66 EE         [19] 5589 	ld	h, -18 (ix)
    00001C5A 5E               [ 7] 5590 	ld	e, (hl)
    00001C5B 23               [ 6] 5591 	inc	hl
    00001C5C 56               [ 7] 5592 	ld	d, (hl)
    00001C5D 7B               [ 4] 5593 	ld	a, e
    00001C5E 02               [ 7] 5594 	ld	(bc), a
    00001C5F 03               [ 6] 5595 	inc	bc
    00001C60 7A               [ 4] 5596 	ld	a, d
    00001C61 02               [ 7] 5597 	ld	(bc), a
                                   5598 ;./exsoccer.c:1182: SetPlayerBallPossession(NO_VALUE); 
    00001C62 3E FF            [ 7] 5599 	ld	a, #0xff
    00001C64 CDr8Cr1D         [17] 5600 	call	_SetPlayerBallPossession
                                   5601 ;./exsoccer.c:1183: g_Ball.PossessionPlayerId = NO_VALUE; 
    00001C67 21r67r11         [10] 5602 	ld	hl, #(_g_Ball + 6)
    00001C6A 36 FF            [10] 5603 	ld	(hl), #0xff
                                   5604 ;./exsoccer.c:1185: g_Ball.PassTargetPlayerId = toPlayerId;
    00001C6C 21r71r11         [10] 5605 	ld	hl, #(_g_Ball + 16)
    00001C6F DD 7E FF         [19] 5606 	ld	a, -1 (ix)
    00001C72 77               [ 7] 5607 	ld	(hl), a
                                   5608 ;./exsoccer.c:1186: g_Ball.ShotActive = 0; // Not a shot
    00001C73 21r7Cr11         [10] 5609 	ld	hl, #(_g_Ball + 27)
    00001C76 36 00            [10] 5610 	ld	(hl), #0x00
                                   5611 ;./exsoccer.c:1189: if (g_Players[fromId].Role == PLAYER_ROLE_GOALKEEPER) {
    00001C78 DD 6E EF         [19] 5612 	ld	l, -17 (ix)
    00001C7B DD 66 F0         [19] 5613 	ld	h, -16 (ix)
                                   5614 ;./exsoccer.c:1201: g_Ball.X = g_Ball.X; 
                                   5615 ;./exsoccer.c:1189: if (g_Players[fromId].Role == PLAYER_ROLE_GOALKEEPER) {
    00001C7E 7E               [ 7] 5616 	ld	a, (hl)
    00001C7F B7               [ 4] 5617 	or	a, a
    00001C80 C2r2Cr1D         [10] 5618 	jp	NZ, 00154$
                                   5619 ;./exsoccer.c:1192: bool applyOffset = true;
    00001C83 0E 01            [ 7] 5620 	ld	c, #0x01
                                   5621 ;./exsoccer.c:1194: if (g_GkIsGroundKick) {
    00001C85 3Ar53r00         [13] 5622 	ld	a, (_g_GkIsGroundKick+0)
    00001C88 B7               [ 4] 5623 	or	a, a
    00001C89 28 12            [12] 5624 	jr	Z, 00136$
                                   5625 ;./exsoccer.c:1195: applyOffset = false;
    00001C8B 0E 00            [ 7] 5626 	ld	c, #0x00
                                   5627 ;./exsoccer.c:1201: g_Ball.X = g_Ball.X; 
    00001C8D ED 5Br63r11      [20] 5628 	ld	de, (#(_g_Ball + 2) + 0)
    00001C91 ED 53r63r11      [20] 5629 	ld	((_g_Ball + 2)), de
                                   5630 ;./exsoccer.c:1202: g_Ball.Y = g_Ball.Y;
    00001C95 ED 5Br61r11      [20] 5631 	ld	de, (#_g_Ball + 0)
    00001C99 ED 53r61r11      [20] 5632 	ld	(_g_Ball), de
    00001C9D                       5633 00136$:
                                   5634 ;./exsoccer.c:1206: if (g_MatchStatus == MATCH_CORNER_KICK || g_MatchStatus == MATCH_BEFORE_CORNER_KICK ||
    00001C9D 3Ar3Fr00         [13] 5635 	ld	a,(_g_MatchStatus+0)
    00001CA0 FE 09            [ 7] 5636 	cp	a,#0x09
    00001CA2 28 0C            [12] 5637 	jr	Z, 00137$
                                   5638 ;./exsoccer.c:1207: g_MatchStatus == MATCH_GOAL_KICK || g_MatchStatus == MATCH_BEFORE_GOAL_KICK) {
    00001CA4 FE 02            [ 7] 5639 	cp	a,#0x02
    00001CA6 28 08            [12] 5640 	jr	Z, 00137$
    00001CA8 FE 0A            [ 7] 5641 	cp	a,#0x0a
    00001CAA 28 04            [12] 5642 	jr	Z, 00137$
    00001CAC D6 05            [ 7] 5643 	sub	a, #0x05
    00001CAE 20 02            [12] 5644 	jr	NZ, 00138$
    00001CB0                       5645 00137$:
                                   5646 ;./exsoccer.c:1208: applyOffset = false;
    00001CB0 0E 00            [ 7] 5647 	ld	c, #0x00
    00001CB2                       5648 00138$:
                                   5649 ;./exsoccer.c:1213: if (applyOffset) {
    00001CB2 79               [ 4] 5650 	ld	a, c
    00001CB3 B7               [ 4] 5651 	or	a, a
    00001CB4 28 76            [12] 5652 	jr	Z, 00154$
                                   5653 ;./exsoccer.c:1214: i8 offX = 0; i8 offY = 0;
    00001CB6 01 00 00         [10] 5654 	ld	bc, #0x0
                                   5655 ;./exsoccer.c:1215: switch (newDir) {
    00001CB9 3E 08            [ 7] 5656 	ld	a, #0x08
    00001CBB DD 96 FC         [19] 5657 	sub	a, -4 (ix)
    00001CBE 38 50            [12] 5658 	jr	C, 00150$
    00001CC0 DD 5E FC         [19] 5659 	ld	e, -4 (ix)
    00001CC3 16 00            [ 7] 5660 	ld	d, #0x00
    00001CC5 21rCCr1C         [10] 5661 	ld	hl, #00344$
    00001CC8 19               [11] 5662 	add	hl, de
    00001CC9 19               [11] 5663 	add	hl, de
    00001CCA 19               [11] 5664 	add	hl, de
    00001CCB E9               [ 4] 5665 	jp	(hl)
    00001CCC                       5666 00344$:
    00001CCC C3r10r1D         [10] 5667 	jp	00150$
    00001CCF C3rE7r1C         [10] 5668 	jp	00142$
    00001CD2 C3r01r1D         [10] 5669 	jp	00147$
    00001CD5 C3rF6r1C         [10] 5670 	jp	00145$
    00001CD8 C3r0Dr1D         [10] 5671 	jp	00149$
    00001CDB C3rECr1C         [10] 5672 	jp	00143$
    00001CDE C3r07r1D         [10] 5673 	jp	00148$
    00001CE1 C3rF1r1C         [10] 5674 	jp	00144$
    00001CE4 C3rFBr1C         [10] 5675 	jp	00146$
                                   5676 ;./exsoccer.c:1216: case DIRECTION_UP:        offY = -30; break;
    00001CE7                       5677 00142$:
    00001CE7 06 E2            [ 7] 5678 	ld	b, #0xe2
    00001CE9 C3r10r1D         [10] 5679 	jp	00150$
                                   5680 ;./exsoccer.c:1217: case DIRECTION_DOWN:      offY = 30; break;
    00001CEC                       5681 00143$:
    00001CEC 06 1E            [ 7] 5682 	ld	b, #0x1e
    00001CEE C3r10r1D         [10] 5683 	jp	00150$
                                   5684 ;./exsoccer.c:1218: case DIRECTION_LEFT:      offX = -30; break;
    00001CF1                       5685 00144$:
    00001CF1 0E E2            [ 7] 5686 	ld	c, #0xe2
    00001CF3 C3r10r1D         [10] 5687 	jp	00150$
                                   5688 ;./exsoccer.c:1219: case DIRECTION_RIGHT:     offX = 30; break;
    00001CF6                       5689 00145$:
    00001CF6 0E 1E            [ 7] 5690 	ld	c, #0x1e
    00001CF8 C3r10r1D         [10] 5691 	jp	00150$
                                   5692 ;./exsoccer.c:1220: case DIRECTION_UP_LEFT:   offX = -21; offY = -21; break;
    00001CFB                       5693 00146$:
    00001CFB 01 EB EB         [10] 5694 	ld	bc, #0xebeb
    00001CFE C3r10r1D         [10] 5695 	jp	00150$
                                   5696 ;./exsoccer.c:1221: case DIRECTION_UP_RIGHT:  offX = 21; offY = -21; break;
    00001D01                       5697 00147$:
    00001D01 01 15 EB         [10] 5698 	ld	bc, #0xeb15
    00001D04 C3r10r1D         [10] 5699 	jp	00150$
                                   5700 ;./exsoccer.c:1222: case DIRECTION_DOWN_LEFT: offX = -21; offY = 21; break;
    00001D07                       5701 00148$:
    00001D07 01 EB 15         [10] 5702 	ld	bc, #0x15eb
    00001D0A C3r10r1D         [10] 5703 	jp	00150$
                                   5704 ;./exsoccer.c:1223: case DIRECTION_DOWN_RIGHT:offX = 21; offY = 21; break;
    00001D0D                       5705 00149$:
    00001D0D 01 15 15         [10] 5706 	ld	bc, #0x1515
                                   5707 ;./exsoccer.c:1224: }
    00001D10                       5708 00150$:
                                   5709 ;./exsoccer.c:1225: g_Ball.X += offX;
    00001D10 2Ar63r11         [16] 5710 	ld	hl, (#(_g_Ball + 2) + 0)
    00001D13 79               [ 4] 5711 	ld	a, c
    00001D14 5F               [ 4] 5712 	ld	e, a
    00001D15 07               [ 4] 5713 	rlca
    00001D16 9F               [ 4] 5714 	sbc	a, a
    00001D17 57               [ 4] 5715 	ld	d, a
    00001D18 19               [11] 5716 	add	hl, de
    00001D19 EB               [ 4] 5717 	ex	de, hl
    00001D1A ED 53r63r11      [20] 5718 	ld	((_g_Ball + 2)), de
                                   5719 ;./exsoccer.c:1226: g_Ball.Y += offY;
    00001D1E 2Ar61r11         [16] 5720 	ld	hl, (#_g_Ball + 0)
    00001D21 78               [ 4] 5721 	ld	a, b
    00001D22 4F               [ 4] 5722 	ld	c, a
    00001D23 07               [ 4] 5723 	rlca
    00001D24 9F               [ 4] 5724 	sbc	a, a
    00001D25 47               [ 4] 5725 	ld	b, a
    00001D26 09               [11] 5726 	add	hl, bc
    00001D27 EB               [ 4] 5727 	ex	de, hl
    00001D28 ED 53r61r11      [20] 5728 	ld	(_g_Ball), de
    00001D2C                       5729 00154$:
                                   5730 ;./exsoccer.c:1232: g_Ball.PassStartX = g_Ball.X;
    00001D2C ED 4Br63r11      [20] 5731 	ld	bc, (#(_g_Ball + 2) + 0)
    00001D30 ED 43r72r11      [20] 5732 	ld	((_g_Ball + 17)), bc
                                   5733 ;./exsoccer.c:1233: g_Ball.PassStartY = g_Ball.Y;
    00001D34 ED 4Br61r11      [20] 5734 	ld	bc, (#_g_Ball + 0)
    00001D38 ED 43r74r11      [20] 5735 	ld	((_g_Ball + 19)), bc
                                   5736 ;./exsoccer.c:1236: g_ActionCooldown = 20;
    00001D3C 21r47r00         [10] 5737 	ld	hl, #_g_ActionCooldown
    00001D3F 36 14            [10] 5738 	ld	(hl), #0x14
                                   5739 ;./exsoccer.c:1237: g_Ball.KickMoveState = 0;
    00001D41 21r6Er11         [10] 5740 	ld	hl, #(_g_Ball + 13)
    00001D44 36 00            [10] 5741 	ld	(hl), #0x00
                                   5742 ;./exsoccer.c:1239: dx = (i16)g_Players[toPlayerId].X - (i16)g_Ball.X;
    00001D46 DD 6E F1         [19] 5743 	ld	l, -15 (ix)
    00001D49 DD 66 F2         [19] 5744 	ld	h, -14 (ix)
    00001D4C 4E               [ 7] 5745 	ld	c, (hl)
    00001D4D 23               [ 6] 5746 	inc	hl
    00001D4E 46               [ 7] 5747 	ld	b, (hl)
    00001D4F 2Ar63r11         [16] 5748 	ld	hl, (#(_g_Ball + 2) + 0)
    00001D52 79               [ 4] 5749 	ld	a, c
    00001D53 95               [ 4] 5750 	sub	a, l
    00001D54 4F               [ 4] 5751 	ld	c, a
    00001D55 78               [ 4] 5752 	ld	a, b
    00001D56 9C               [ 4] 5753 	sbc	a, h
    00001D57 47               [ 4] 5754 	ld	b, a
                                   5755 ;./exsoccer.c:1240: dy = (i16)g_Players[toPlayerId].Y - (i16)g_Ball.Y;
    00001D58 E1               [10] 5756 	pop	hl
    00001D59 E5               [11] 5757 	push	hl
    00001D5A 5E               [ 7] 5758 	ld	e, (hl)
    00001D5B 23               [ 6] 5759 	inc	hl
    00001D5C 56               [ 7] 5760 	ld	d, (hl)
    00001D5D 2Ar61r11         [16] 5761 	ld	hl, (#_g_Ball + 0)
    00001D60 7B               [ 4] 5762 	ld	a, e
    00001D61 95               [ 4] 5763 	sub	a, l
    00001D62 5F               [ 4] 5764 	ld	e, a
    00001D63 7A               [ 4] 5765 	ld	a, d
    00001D64 9C               [ 4] 5766 	sbc	a, h
    00001D65 57               [ 4] 5767 	ld	d, a
                                   5768 ;./exsoccer.c:1241: g_Ball.PassTotalDist = (u16)((dx<0?-dx:dx) + (dy<0?-dy:dy)); 
                                   5769 ;	spillPairReg hl
                                   5770 ;	spillPairReg hl
    00001D66 60               [ 4] 5771 	ld	h, b
                                   5772 ;	spillPairReg hl
                                   5773 ;	spillPairReg hl
    00001D67 CB 7C            [ 8] 5774 	bit	7, h
    00001D69 28 06            [12] 5775 	jr	Z, 00169$
    00001D6B AF               [ 4] 5776 	xor	a, a
    00001D6C 91               [ 4] 5777 	sub	a, c
    00001D6D 4F               [ 4] 5778 	ld	c, a
    00001D6E 9F               [ 4] 5779 	sbc	a, a
    00001D6F 90               [ 4] 5780 	sub	a, b
    00001D70 47               [ 4] 5781 	ld	b, a
    00001D71                       5782 00169$:
    00001D71 6B               [ 4] 5783 	ld	l, e
                                   5784 ;	spillPairReg hl
                                   5785 ;	spillPairReg hl
    00001D72 62               [ 4] 5786 	ld	h, d
                                   5787 ;	spillPairReg hl
                                   5788 ;	spillPairReg hl
    00001D73 CB 7C            [ 8] 5789 	bit	7, h
    00001D75 28 09            [12] 5790 	jr	Z, 00171$
    00001D77 21 00 00         [10] 5791 	ld	hl, #0x0000
    00001D7A BF               [ 4] 5792 	cp	a, a
    00001D7B ED 52            [15] 5793 	sbc	hl, de
    00001D7D C3r81r1D         [10] 5794 	jp	00172$
    00001D80                       5795 00171$:
    00001D80 EB               [ 4] 5796 	ex	de, hl
    00001D81                       5797 00172$:
    00001D81 09               [11] 5798 	add	hl, bc
    00001D82 EB               [ 4] 5799 	ex	de, hl
    00001D83 ED 53r76r11      [20] 5800 	ld	((_g_Ball + 21)), de
    00001D87                       5801 00155$:
                                   5802 ;./exsoccer.c:1242: }
    00001D87 DD F9            [10] 5803 	ld	sp, ix
    00001D89 DD E1            [14] 5804 	pop	ix
    00001D8B C9               [10] 5805 	ret
                                   5806 ;./exsoccer.c:1243: void SetPlayerBallPossession(u8 playerId){
                                   5807 ;	---------------------------------
                                   5808 ; Function SetPlayerBallPossession
                                   5809 ; ---------------------------------
    00001D8C                       5810 _SetPlayerBallPossession::
                                   5811 ;./exsoccer.c:1244: if (playerId == NO_VALUE) {
    00001D8C 4F               [ 4] 5812 	ld	c, a
    00001D8D 3C               [ 4] 5813 	inc	a
    00001D8E C8               [11] 5814 	ret	Z
                                   5815 ;./exsoccer.c:1249: return;
    00001D8F C3r92r1D         [10] 5816 	jp	00102$
    00001D92                       5817 00102$:
                                   5818 ;./exsoccer.c:1252: if(g_Players[playerId].TeamId==TEAM_1){
    00001D92 11r08r10         [10] 5819 	ld	de, #_g_Players+0
    00001D95 06 00            [ 7] 5820 	ld	b, #0x00
    00001D97 69               [ 4] 5821 	ld	l, c
    00001D98 60               [ 4] 5822 	ld	h, b
    00001D99 29               [11] 5823 	add	hl, hl
    00001D9A 29               [11] 5824 	add	hl, hl
    00001D9B 09               [11] 5825 	add	hl, bc
    00001D9C 29               [11] 5826 	add	hl, hl
    00001D9D 29               [11] 5827 	add	hl, hl
    00001D9E 09               [11] 5828 	add	hl, bc
    00001D9F 19               [11] 5829 	add	hl, de
                                   5830 ;	spillPairReg hl
                                   5831 ;	spillPairReg hl
    00001DA0 5D               [ 4] 5832 	ld	e, l
    00001DA1 54               [ 4] 5833 	ld	d, h
                                   5834 ;	spillPairReg hl
                                   5835 ;	spillPairReg hl
    00001DA2 C5               [11] 5836 	push	bc
    00001DA3 01 09 00         [10] 5837 	ld	bc, #0x0009
    00001DA6 09               [11] 5838 	add	hl, bc
    00001DA7 C1               [10] 5839 	pop	bc
    00001DA8 7E               [ 7] 5840 	ld	a, (hl)
                                   5841 ;./exsoccer.c:1253: if (g_Players[playerId].Role != PLAYER_ROLE_GOALKEEPER) g_Team1ActivePlayer=playerId;
    00001DA9 21 0D 00         [10] 5842 	ld	hl, #13
    00001DAC 19               [11] 5843 	add	hl, de
    00001DAD 46               [ 7] 5844 	ld	b, (hl)
                                   5845 ;./exsoccer.c:1252: if(g_Players[playerId].TeamId==TEAM_1){
    00001DAE 3D               [ 4] 5846 	dec	a
    00001DAF 20 0B            [12] 5847 	jr	NZ, 00108$
                                   5848 ;./exsoccer.c:1253: if (g_Players[playerId].Role != PLAYER_ROLE_GOALKEEPER) g_Team1ActivePlayer=playerId;
    00001DB1 78               [ 4] 5849 	ld	a, b
    00001DB2 B7               [ 4] 5850 	or	a, a
    00001DB3 28 0F            [12] 5851 	jr	Z, 00109$
    00001DB5 21r42r00         [10] 5852 	ld	hl, #_g_Team1ActivePlayer
    00001DB8 71               [ 7] 5853 	ld	(hl), c
    00001DB9 C3rC4r1D         [10] 5854 	jp	00109$
    00001DBC                       5855 00108$:
                                   5856 ;./exsoccer.c:1256: if (g_Players[playerId].Role != PLAYER_ROLE_GOALKEEPER) g_Team2ActivePlayer=playerId;
    00001DBC 78               [ 4] 5857 	ld	a, b
    00001DBD B7               [ 4] 5858 	or	a, a
    00001DBE 28 04            [12] 5859 	jr	Z, 00109$
    00001DC0 21r43r00         [10] 5860 	ld	hl, #_g_Team2ActivePlayer
    00001DC3 71               [ 7] 5861 	ld	(hl), c
    00001DC4                       5862 00109$:
                                   5863 ;./exsoccer.c:1259: g_Ball.PossessionTimer = 0; // Reset hold timer
    00001DC4 21r7Dr11         [10] 5864 	ld	hl, #(_g_Ball + 28)
    00001DC7 36 00            [10] 5865 	ld	(hl), #0x00
                                   5866 ;./exsoccer.c:1260: }
    00001DC9 C9               [10] 5867 	ret
                                   5868 	.area _CODE
                                   5869 	.area _INITIALIZER
    00000000                       5870 __xinit__g_PcmStartPlaying:
    00000000 00                    5871 	.db #0x00	; 0
    00000001                       5872 __xinit__g_SoundRequest:
    00000001 FF                    5873 	.db #0xff	; 255
    00000002                       5874 __xinit__g_PmcSoundPlaying:
    00000002 FF                    5875 	.db #0xff	; 255
    00000003                       5876 __xinit__g_PonPonGirlsPos:
    00000003 1E                    5877 	.db #0x1e	; 30
    00000004 32                    5878 	.db #0x32	; 50	'2'
    00000005 46                    5879 	.db #0x46	; 70	'F'
    00000006 AF                    5880 	.db #0xaf	; 175
    00000007 C3                    5881 	.db #0xc3	; 195
    00000008 D7                    5882 	.db #0xd7	; 215
    00000009                       5883 __xinit__g_GirlPatterns:
    00000009 7A                    5884 	.db #0x7a	; 122	'z'
    0000000A 7B                    5885 	.db #0x7b	; 123
    0000000B 7C                    5886 	.db #0x7c	; 124
    0000000C 7D                    5887 	.db #0x7d	; 125
    0000000D 7E                    5888 	.db #0x7e	; 126
    0000000E 7F                    5889 	.db #0x7f	; 127
    0000000F F0                    5890 	.db #0xf0	; 240
    00000010 F1                    5891 	.db #0xf1	; 241
    00000011 F2                    5892 	.db #0xf2	; 242
    00000012                       5893 __xinit__g_GkAnimTimer:
    00000012 00                    5894 	.db #0x00	; 0
    00000013                       5895 __xinit__g_GkAnimPlayerId:
    00000013 FF                    5896 	.db #0xff	; 255
    00000014                       5897 __xinit__g_History1:
    00000014 50 4C 59 3A 20 20 20  5898 	.ascii "PLY:      "
             20 20 20
    0000001E 00                    5899 	.db 0x00
    0000001F 00                    5900 	.db 0x00
    00000020 00                    5901 	.db 0x00
    00000021 00                    5902 	.db 0x00
    00000022 00                    5903 	.db 0x00
    00000023 00                    5904 	.db 0x00
    00000024 00                    5905 	.db 0x00
    00000025 00                    5906 	.db 0x00
    00000026 00                    5907 	.db 0x00
    00000027 00                    5908 	.db 0x00
    00000028                       5909 __xinit__g_History2:
    00000028 43 50 55 3A 20 20 20  5910 	.ascii "CPU:      "
             20 20 20
    00000032 00                    5911 	.db 0x00
    00000033 00                    5912 	.db 0x00
    00000034 00                    5913 	.db 0x00
    00000035 00                    5914 	.db 0x00
    00000036 00                    5915 	.db 0x00
    00000037 00                    5916 	.db 0x00
    00000038 00                    5917 	.db 0x00
    00000039 00                    5918 	.db 0x00
    0000003A 00                    5919 	.db 0x00
    0000003B 00                    5920 	.db 0x00
    0000003C                       5921 __xinit__g_FieldCurrentYPosition:
    0000003C 00 00                 5922 	.dw #0x0000
    0000003E                       5923 __xinit__g_PlayersPositioningPhaseCount:
    0000003E FF                    5924 	.db #0xff	; 255
    0000003F                       5925 __xinit__g_MatchStatus:
    0000003F 00                    5926 	.db #0x00	; 0
    00000040                       5927 __xinit__g_FieldScrollSpeed:
    00000040 01                    5928 	.db #0x01	; 1
    00000041                       5929 __xinit__g_Timer:
    00000041 FF                    5930 	.db #0xff	; 255
    00000042                       5931 __xinit__g_Team1ActivePlayer:
    00000042 FF                    5932 	.db #0xff	; 255
    00000043                       5933 __xinit__g_Team2ActivePlayer:
    00000043 FF                    5934 	.db #0xff	; 255
    00000044                       5935 __xinit__g_PassTargetPlayer:
    00000044 FF                    5936 	.db #0xff	; 255
    00000045                       5937 __xinit__g_GameWith2Players:
    00000045 00                    5938 	.db #0x00	; 0
    00000046                       5939 __xinit__g_GameLevel:
    00000046 01                    5940 	.db #0x01	; 1
    00000047                       5941 __xinit__g_ActionCooldown:
    00000047 00                    5942 	.db #0x00	; 0
    00000048                       5943 __xinit__g_ShootCooldown:
    00000048 00                    5944 	.db #0x00	; 0
    00000049                       5945 __xinit__g_ShotCursorX:
    00000049 78 00                 5946 	.dw #0x0078
    0000004B                       5947 __xinit__g_ShotCursorDir:
    0000004B 02                    5948 	.db #0x02	;  2
    0000004C                       5949 __xinit__g_GoalScorerId:
    0000004C FF                    5950 	.db #0xff	; 255
    0000004D                       5951 __xinit__g_CornerKickSide:
    0000004D 00                    5952 	.db #0x00	; 0
    0000004E                       5953 __xinit__g_GoalKickSide:
    0000004E 00                    5954 	.db #0x00	; 0
    0000004F                       5955 __xinit__g_CornerKickTargetId:
    0000004F FF                    5956 	.db #0xff	; 255
    00000050                       5957 __xinit__g_ThrowInPlayerId:
    00000050 FF                    5958 	.db #0xff	; 255
    00000051                       5959 __xinit__g_VSynch:
    00000051 00                    5960 	.db #0x00	; 0
    00000052                       5961 __xinit__g_GkRecoilY:
    00000052 00                    5962 	.db #0x00	;  0
    00000053                       5963 __xinit__g_GkIsGroundKick:
    00000053 00                    5964 	.db #0x00	; 0
    00000054                       5965 __xinit__g_ponPonPatternIndex:
    00000054 00                    5966 	.db #0x00	; 0
    00000055                       5967 __xinit__g_PonPonGrilsPoseCounter:
    00000055 00                    5968 	.db #0x00	; 0
    00000056                       5969 __xinit__g_peopleState:
    00000056 00                    5970 	.db #0x00	; 0
    00000057                       5971 __xinit__g_ponPonGirlsInitailized:
    00000057 00                    5972 	.db #0x00	; 0
                                   5973 	.area _CABS (ABS)
