                                      1 ;--------------------------------------------------------
                                      2 ; File Created by SDCC : free open source ANSI-C Compiler
                                      3 ; Version 4.2.0 #13081 (MINGW64)
                                      4 ;--------------------------------------------------------
                                      5 	.module exsoccer_s1_b2
                                      6 	.optsdcc -mz80
                                      7 	
                                      8 ;--------------------------------------------------------
                                      9 ; Public variables in this module
                                     10 ;--------------------------------------------------------
                                     11 	.globl _HandleOffside
                                     12 	.globl _StopStadiumSound
                                     13 	.globl _EffectPlay
                                     14 	.globl _PlayPcm
                                     15 	.globl _Math_Abs32
                                     16 	.globl _GetTeamStats
                                     17 	.globl _PerformPass
                                     18 	.globl _GetClosestPlayerToBall
                                     19 	.globl _PerformShot
                                     20 	.globl _GetNoMovingPlayerPatternId
                                     21 	.globl _SetPlayerBallPossession
                                     22 	.globl _GetPlayerIdByRole
                                     23 	.globl _PutBallOnPlayerFeet
                                     24 	.globl _ClearTextFromLayerA
                                     25 	.globl _ResetPlayersInfo
                                     26 	.globl _IsTeamJoystickTriggerPressed
                                     27 	.globl _GetJoystick2Direction
                                     28 	.globl _GetJoystick1Direction
                                     29 	.globl _SetPlayerTarget
                                     30 	.globl _PutBallSprite
                                     31 	.globl _ShowHeaderInfo
                                     32 	.globl _ShowFieldZone
                                     33 	.globl _V9_PrintLayerAStringAtPos
                                     34 	.globl _V9_SetPaletteEntry
                                     35 	.globl _V9_GetRegister
                                     36 	.globl _V9_SetRegister
                                     37 	.globl _g_SLTSL
                                     38 	.globl _g_GRPACY
                                     39 	.globl _g_GRPACX
                                     40 	.globl _g_LOGOPR
                                     41 	.globl _g_CMASK
                                     42 	.globl _g_CLOC
                                     43 	.globl _g_FNKSTR
                                     44 	.globl _g_ATRBYT
                                     45 	.globl _g_BDRCLR
                                     46 	.globl _g_BAKCLR
                                     47 	.globl _g_FORCLR
                                     48 	.globl _g_CSRX
                                     49 	.globl _g_CSRY
                                     50 	.globl _g_CLIKSW
                                     51 	.globl _g_MLTPAT
                                     52 	.globl _g_MLTATR
                                     53 	.globl _g_MLTCGP
                                     54 	.globl _g_MLTCOL
                                     55 	.globl _g_MLTNAM
                                     56 	.globl _g_GRPPAT
                                     57 	.globl _g_GRPATR
                                     58 	.globl _g_GRPCGP
                                     59 	.globl _g_GRPCOL
                                     60 	.globl _g_GRPNAM
                                     61 	.globl _g_T32PAT
                                     62 	.globl _g_T32ATR
                                     63 	.globl _g_T32CGP
                                     64 	.globl _g_T32COL
                                     65 	.globl _g_T32NAM
                                     66 	.globl _g_TXTPAT
                                     67 	.globl _g_TXTATR
                                     68 	.globl _g_TXTCGP
                                     69 	.globl _g_TXTCOL
                                     70 	.globl _g_TXTNAM
                                     71 	.globl _g_CLMLST
                                     72 	.globl _g_CRTCNT
                                     73 	.globl _g_LINLEN
                                     74 	.globl _g_LINL32
                                     75 	.globl _g_LINL40
                                     76 	.globl _g_Sprites1_palette_fio
                                     77 	.globl _g_Sprites1_palette_bra
                                     78 	.globl _g_Sprites1_palette_gbr
                                     79 	.globl _g_Sprites1_palette_ger
                                     80 	.globl _g_Sprites1_palette_fra
                                     81 	.globl _g_Sprites1_palette_aus
                                     82 	.globl _g_Sprites1_palette_ita
                                     83 	.globl _g_GameFieldLayerBTilesPalette
                                     84 	.globl _g_GameFieldLayerATilesPalette
                                     85 	.globl _g_BDOS
                                     86 	.globl _g_MASTER
                                     87 	.globl _g_RAMAD3
                                     88 	.globl _g_RAMAD2
                                     89 	.globl _g_RAMAD1
                                     90 	.globl _g_RAMAD0
                                     91 	.globl _g_BREAKV
                                     92 	.globl _g_DISKVE
                                     93 	.globl _g_KANJTABLE
                                     94 	.globl _g_STRSRC
                                     95 	.globl _g_SUBRID
                                     96 	.globl _g_CHAR_16
                                     97 	.globl _g_MSXMID
                                     98 	.globl _g_MSXVER
                                     99 	.globl _g_ROMVersion
                                    100 	.globl _g_BASRVN
                                    101 	.globl _g_VDP_DW
                                    102 	.globl _g_VDP_DR
                                    103 	.globl _g_CGTABL
                                    104 	.globl _g_SVFFFD
                                    105 	.globl _g_RG27SAV
                                    106 	.globl _g_RG26SAV
                                    107 	.globl _g_RG25SAV
                                    108 	.globl _g_SVFFF8
                                    109 	.globl _g_MINROM
                                    110 	.globl _g_RG23SAV
                                    111 	.globl _g_RG22SAV
                                    112 	.globl _g_RG21SAV
                                    113 	.globl _g_RG20SAV
                                    114 	.globl _g_RG19SAV
                                    115 	.globl _g_RG18SAV
                                    116 	.globl _g_RG17SAV
                                    117 	.globl _g_RG16SAV
                                    118 	.globl _g_RG15SAV
                                    119 	.globl _g_RG14SAV
                                    120 	.globl _g_RG13SAV
                                    121 	.globl _g_RG12SAV
                                    122 	.globl _g_RG11SAV
                                    123 	.globl _g_RG10SAV
                                    124 	.globl _g_RG09SAV
                                    125 	.globl _g_RG08SAV
                                    126 	.globl _g_PROCNM
                                    127 	.globl _g_SLTWRK
                                    128 	.globl _g_SLTATR
                                    129 	.globl _g_SLTTBL
                                    130 	.globl _g_EXPTBL
                                    131 	.globl _g_MNROM
                                    132 	.globl _g_DRWANG
                                    133 	.globl _g_DRWSCL
                                    134 	.globl _g_DRWFLG
                                    135 	.globl _g_GYPOS
                                    136 	.globl _g_GXPOS
                                    137 	.globl _g_BRDATR
                                    138 	.globl _g_CASPRV
                                    139 	.globl _g_OLDSCR
                                    140 	.globl _g_SCRMOD
                                    141 	.globl _g_FLBMEM
                                    142 	.globl _g_KANAMD
                                    143 	.globl _g_KANAST
                                    144 	.globl _g_CAPST
                                    145 	.globl _g_CSTYLE
                                    146 	.globl _g_CSRSW
                                    147 	.globl _g_INSFLG
                                    148 	.globl _g_ESCCNT
                                    149 	.globl _g_GRPHED
                                    150 	.globl _g_WINWID
                                    151 	.globl _g_LOWLIM
                                    152 	.globl _g_INTCNT
                                    153 	.globl _g_INTVAL
                                    154 	.globl _g_JIFFY
                                    155 	.globl _g_PADX
                                    156 	.globl _g_PADY
                                    157 	.globl _g_INTFLG
                                    158 	.globl _g_RTYCNT
                                    159 	.globl _g_TRPTBL
                                    160 	.globl _g_HIMEM
                                    161 	.globl _g_BOTTOM
                                    162 	.globl _g_PATWRK
                                    163 	.globl _g_LINWRK
                                    164 	.globl _g_KEYBUF
                                    165 	.globl _g_NEWKEY
                                    166 	.globl _g_OLDKEY
                                    167 	.globl _g_CLIKFL
                                    168 	.globl _g_ONGSBF
                                    169 	.globl _g_FNKFLG
                                    170 	.globl _g_FNKSWI
                                    171 	.globl _g_CODSAV
                                    172 	.globl _g_FSTPOS
                                    173 	.globl _g_LINTTB
                                    174 	.globl _g_BASROM
                                    175 	.globl _g_ENSTOP
                                    176 	.globl _g_VCBC
                                    177 	.globl _g_VCBB
                                    178 	.globl _g_VCBA
                                    179 	.globl _g_PLYCNT
                                    180 	.globl _g_MUSICF
                                    181 	.globl _g_QUEUEN
                                    182 	.globl _g_MCLPTR
                                    183 	.globl _g_MCLLEN
                                    184 	.globl _g_SAVVOL
                                    185 	.globl _g_VOICEN
                                    186 	.globl _g_SAVSP
                                    187 	.globl _g_PRSCNT
                                    188 	.globl _g_LSTMOD
                                    189 	.globl _g_LSTCOM
                                    190 	.globl _g_COMMSK
                                    191 	.globl _g_ESTBLS
                                    192 	.globl _g_FLAGS
                                    193 	.globl _g_ERRORS
                                    194 	.globl _g_DATCNT
                                    195 	.globl _g_DEVNUM
                                    196 	.globl _g_OLDINT
                                    197 	.globl _g_OLDSTT
                                    198 	.globl _g_MEXBIh
                                    199 	.globl _g_RSIQLN
                                    200 	.globl _g_RSFCB
                                    201 	.globl _g_TOCNT
                                    202 	.globl _g_RSTMP
                                    203 	.globl _g_YSAVE
                                    204 	.globl _g_XSAVE
                                    205 	.globl _g_NORUSE
                                    206 	.globl _g_MODE
                                    207 	.globl _g_ROMA
                                    208 	.globl _g_CHRCNT
                                    209 	.globl _g_EXBRSA
                                    210 	.globl _g_AVCSAV
                                    211 	.globl _g_ACPAGE
                                    212 	.globl _g_DPPAGE
                                    213 	.globl _g_RS2IQ
                                    214 	.globl _g_VOICCQ
                                    215 	.globl _g_VOICBQ
                                    216 	.globl _g_VOICAQ
                                    217 	.globl _g_QUEBAK
                                    218 	.globl _g_QUETAB
                                    219 	.globl _g_ASPCT2
                                    220 	.globl _g_ASPCT1
                                    221 	.globl _g_HEADER
                                    222 	.globl _g_HIGH
                                    223 	.globl _g_LOW
                                    224 	.globl _g_CS240
                                    225 	.globl _g_CS120
                                    226 	.globl _g_GETPNT
                                    227 	.globl _g_PUTPNT
                                    228 	.globl _g_REPCNT
                                    229 	.globl _g_SCNCNT
                                    230 	.globl _g_FRCNEW
                                    231 	.globl _g_QUEUES
                                    232 	.globl _g_MINUPD
                                    233 	.globl _g_MAXUPD
                                    234 	.globl _g_TRGFLG
                                    235 	.globl _g_STATFL
                                    236 	.globl _g_RG7SAV
                                    237 	.globl _g_RG6SAV
                                    238 	.globl _g_RG5SAV
                                    239 	.globl _g_RG4SAV
                                    240 	.globl _g_RG3SAV
                                    241 	.globl _g_RG2SAV
                                    242 	.globl _g_RG1SAV
                                    243 	.globl _g_RG0SAV
                                    244 	.globl _g_CNSDFG
                                    245 	.globl _g_USRTAB
                                    246 	.globl _g_CLPRIM
                                    247 	.globl _g_WRPRIM
                                    248 	.globl _g_RDPRIM
                                    249 	.globl _GoalKick
                                    250 	.globl _BallInGoal
                                    251 	.globl _GoalkeeperWithBall
                                    252 	.globl _TickGoalkeeperAnimation
                                    253 	.globl _GetBestPassTarget
                                    254 	.globl _BallThrowIn
                                    255 	.globl _CornerKick
                                    256 	.globl _UpdatePassTarget
                                    257 	.globl _TickGoalKick
                                    258 	.globl _SpriteBlinking
                                    259 	.globl _SetTeamsPresentationSpritesPosition
                                    260 	.globl _TickCornerKick
                                    261 	.globl _TickTeamJoystick
                                    262 	.globl _TickBallCollision
                                    263 	.globl _EnforcePenaltyBoxRestriction
                                    264 	.globl _InitPalette
                                    265 	.globl _TickTeamSelection
                                    266 	.globl _SetTeam1Palette
                                    267 	.globl _SetTeam2Palette
                                    268 	.globl _GetTeamPaletteById
                                    269 	.globl _TickShowKickOff
                                    270 	.globl _ResetBallInfo
                                    271 ;--------------------------------------------------------
                                    272 ; special function registers
                                    273 ;--------------------------------------------------------
                         000000A8   274 _g_PortPrimarySlot	=	0x00a8
                         000000A9   275 _g_PortReadKeyboard	=	0x00a9
                         000000AA   276 _g_PortAccessKeyboard	=	0x00aa
                         000000AB   277 _g_PortControl	=	0x00ab
                         00000098   278 _g_VDP_DataPort	=	0x0098
                         00000099   279 _g_VDP_RegPort	=	0x0099
                         00000099   280 _g_VDP_AddrPort	=	0x0099
                         00000099   281 _g_VDP_StatPort	=	0x0099
                         000000A0   282 _g_PSG_RegPort	=	0x00a0
                         000000A1   283 _g_PSG_DataPort	=	0x00a1
                         000000A2   284 _g_PSG_StatPort	=	0x00a2
                         00000010   285 _g_PSG_Ext_RegPort	=	0x0010
                         00000011   286 _g_PSG_Ext_DataPort	=	0x0011
                         00000012   287 _g_PSG_Ext_StatPort	=	0x0012
                         0000007C   288 _g_MSXMusic_IndexPort	=	0x007c
                         0000007D   289 _g_MSXMusic_DataPort	=	0x007d
                         000000C0   290 _g_MSXAudio_IndexPort	=	0x00c0
                         000000C1   291 _g_MSXAudio_DataPort	=	0x00c1
                         000000C2   292 _g_MSXAudio_IndexPort2	=	0x00c2
                         000000C3   293 _g_MSXAudio_DataPort2	=	0x00c3
                         000000B4   294 _g_RTC_AddrPort	=	0x00b4
                         000000B5   295 _g_RTC_DataPort	=	0x00b5
                         00000060   296 _g_V9_VRAMPort	=	0x0060
                         00000061   297 _g_V9_PalettePort	=	0x0061
                         00000062   298 _g_V9_CmdDataPort	=	0x0062
                         00000063   299 _g_V9_RegDataPort	=	0x0063
                         00000064   300 _g_V9_RegSelectPort	=	0x0064
                         00000065   301 _g_V9_SatusPort	=	0x0065
                         00000066   302 _g_V9_IntFlagPort	=	0x0066
                         00000067   303 _g_V9_SysCtrlPort	=	0x0067
                         00000068   304 _g_V9_KanjiAddrLPort	=	0x0068
                         00000069   305 _g_V9_KanjiAddrHPort	=	0x0069
                         00000069   306 _g_V9_KanjiDataPort	=	0x0069
                         0000006A   307 _g_V9_Kanji2AddrLPort	=	0x006a
                         0000006B   308 _g_V9_Kanji2AddrHPort	=	0x006b
                         0000006B   309 _g_V9_Kanji2DataPort	=	0x006b
                         0000006F   310 _g_V9_OutputCtrPort	=	0x006f
                                    311 ;--------------------------------------------------------
                                    312 ; ram data
                                    313 ;--------------------------------------------------------
                                    314 	.area _DATA
                         0000F3AE   315 _g_LINL40	=	0xf3ae
                         0000F3AF   316 _g_LINL32	=	0xf3af
                         0000F3B0   317 _g_LINLEN	=	0xf3b0
                         0000F3B1   318 _g_CRTCNT	=	0xf3b1
                         0000F3B2   319 _g_CLMLST	=	0xf3b2
                         0000F3B3   320 _g_TXTNAM	=	0xf3b3
                         0000F3B5   321 _g_TXTCOL	=	0xf3b5
                         0000F3B7   322 _g_TXTCGP	=	0xf3b7
                         0000F3B9   323 _g_TXTATR	=	0xf3b9
                         0000F3BB   324 _g_TXTPAT	=	0xf3bb
                         0000F3BD   325 _g_T32NAM	=	0xf3bd
                         0000F3BF   326 _g_T32COL	=	0xf3bf
                         0000F3C1   327 _g_T32CGP	=	0xf3c1
                         0000F3C3   328 _g_T32ATR	=	0xf3c3
                         0000F3C5   329 _g_T32PAT	=	0xf3c5
                         0000F3C7   330 _g_GRPNAM	=	0xf3c7
                         0000F3C9   331 _g_GRPCOL	=	0xf3c9
                         0000F3CB   332 _g_GRPCGP	=	0xf3cb
                         0000F3CD   333 _g_GRPATR	=	0xf3cd
                         0000F3CF   334 _g_GRPPAT	=	0xf3cf
                         0000F3D1   335 _g_MLTNAM	=	0xf3d1
                         0000F3D3   336 _g_MLTCOL	=	0xf3d3
                         0000F3D5   337 _g_MLTCGP	=	0xf3d5
                         0000F3D7   338 _g_MLTATR	=	0xf3d7
                         0000F3D9   339 _g_MLTPAT	=	0xf3d9
                         0000F3DB   340 _g_CLIKSW	=	0xf3db
                         0000F3DC   341 _g_CSRY	=	0xf3dc
                         0000F3DD   342 _g_CSRX	=	0xf3dd
                         0000F3E9   343 _g_FORCLR	=	0xf3e9
                         0000F3EA   344 _g_BAKCLR	=	0xf3ea
                         0000F3EB   345 _g_BDRCLR	=	0xf3eb
                         0000F3F2   346 _g_ATRBYT	=	0xf3f2
                         0000F87F   347 _g_FNKSTR	=	0xf87f
                         0000F92A   348 _g_CLOC	=	0xf92a
                         0000F92C   349 _g_CMASK	=	0xf92c
                         0000FB02   350 _g_LOGOPR	=	0xfb02
                         0000FCB7   351 _g_GRPACX	=	0xfcb7
                         0000FCB9   352 _g_GRPACY	=	0xfcb9
                         0000FFFF   353 _g_SLTSL	=	0xffff
    00000000                        354 _UpdatePassTarget_passUpdateTimer_65537_1241:
    00000000                        355 	.ds 1
    00000001                        356 _TickCornerKick_s_ForceKickTimer_65537_1326:
    00000001                        357 	.ds 2
    00000003                        358 _TickCornerKick_joyMoved_196614_1360:
    00000003                        359 	.ds 1
    00000004                        360 _TickCornerKick_t1Latched_196615_1365:
    00000004                        361 	.ds 1
    00000005                        362 _TickCornerKick_joyMoved_196613_1368:
    00000005                        363 	.ds 1
                                    364 ;--------------------------------------------------------
                                    365 ; ram data
                                    366 ;--------------------------------------------------------
                                    367 	.area _INITIALIZED
                                    368 ;--------------------------------------------------------
                                    369 ; absolute external ram data
                                    370 ;--------------------------------------------------------
                                    371 	.area _DABS (ABS)
                                    372 ;--------------------------------------------------------
                                    373 ; global & static initialisations
                                    374 ;--------------------------------------------------------
                                    375 	.area _HOME
                                    376 	.area _GSINIT
                                    377 	.area _GSFINAL
                                    378 	.area _GSINIT
                                    379 ;E:\Dropbox\FAUSTO\SVILUPPI\MSX\CODE\C\MSXgl\projects\exsoccer/exsoccer_s1_b2.c:571: static u8 passUpdateTimer = 0;
    00000000 FD 21r00r00      [14]  380 	ld	iy, #_UpdatePassTarget_passUpdateTimer_65537_1241
    00000004 FD 36 00 00      [19]  381 	ld	0 (iy), #0x00
                                    382 ;E:\Dropbox\FAUSTO\SVILUPPI\MSX\CODE\C\MSXgl\projects\exsoccer/exsoccer_s1_b2.c:832: static u16 s_ForceKickTimer = 0;
    00000008 21 00 00         [10]  383 	ld	hl, #0x0000
    0000000B 22r01r00         [16]  384 	ld	(_TickCornerKick_s_ForceKickTimer_65537_1326), hl
                                    385 ;E:\Dropbox\FAUSTO\SVILUPPI\MSX\CODE\C\MSXgl\projects\exsoccer/exsoccer_s1_b2.c:982: static bool joyMoved = false;
    0000000E FD 21r03r00      [14]  386 	ld	iy, #_TickCornerKick_joyMoved_196614_1360
    00000012 FD 36 00 00      [19]  387 	ld	0 (iy), #0x00
                                    388 ;E:\Dropbox\FAUSTO\SVILUPPI\MSX\CODE\C\MSXgl\projects\exsoccer/exsoccer_s1_b2.c:1008: static bool t1Latched = false;
    00000016 FD 21r04r00      [14]  389 	ld	iy, #_TickCornerKick_t1Latched_196615_1365
    0000001A FD 36 00 00      [19]  390 	ld	0 (iy), #0x00
                                    391 ;E:\Dropbox\FAUSTO\SVILUPPI\MSX\CODE\C\MSXgl\projects\exsoccer/exsoccer_s1_b2.c:1028: static bool joyMoved = false;
    0000001E FD 21r05r00      [14]  392 	ld	iy, #_TickCornerKick_joyMoved_196613_1368
    00000022 FD 36 00 00      [19]  393 	ld	0 (iy), #0x00
                                    394 ;--------------------------------------------------------
                                    395 ; Home
                                    396 ;--------------------------------------------------------
                                    397 	.area _HOME
                                    398 	.area _HOME
                                    399 ;--------------------------------------------------------
                                    400 ; code
                                    401 ;--------------------------------------------------------
                                    402 	.area _SEG1
                                    403 ;E:\Dropbox\FAUSTO\SVILUPPI\MSX\CODE\C\MSXgl\projects\exsoccer/exsoccer_s1_b2.c:47: void GoalKick(u8 teamId){
                                    404 ;	---------------------------------
                                    405 ; Function GoalKick
                                    406 ; ---------------------------------
    00000000                        407 _GoalKick::
    00000000 4F               [ 4]  408 	ld	c, a
                                    409 ;E:\Dropbox\FAUSTO\SVILUPPI\MSX\CODE\C\MSXgl\projects\exsoccer/exsoccer_s1_b2.c:49: V9_PrintLayerAStringAtPos(10,18,"GOAL KICK");
    00000001 C5               [11]  410 	push	bc
    00000002 21r38r00         [10]  411 	ld	hl, #___str_0
    00000005 E5               [11]  412 	push	hl
    00000006 2E 12            [ 7]  413 	ld	l, #0x12
                                    414 ;	spillPairReg hl
                                    415 ;	spillPairReg hl
    00000008 3E 0A            [ 7]  416 	ld	a, #0x0a
    0000000A CDr00r00         [17]  417 	call	_V9_PrintLayerAStringAtPos
    0000000D 3E 04            [ 7]  418 	ld	a, #0x04
    0000000F CDr00r00         [17]  419 	call	_PlayPcm
    00000012 C1               [10]  420 	pop	bc
                                    421 ;E:\Dropbox\FAUSTO\SVILUPPI\MSX\CODE\C\MSXgl\projects\exsoccer/exsoccer_s1_b2.c:51: g_MatchStatus=MATCH_BEFORE_GOAL_KICK;
    00000013 21r00r00         [10]  422 	ld	hl, #_g_MatchStatus
    00000016 36 05            [10]  423 	ld	(hl), #0x05
                                    424 ;E:\Dropbox\FAUSTO\SVILUPPI\MSX\CODE\C\MSXgl\projects\exsoccer/exsoccer_s1_b2.c:52: g_RestartKickTeamId = teamId;
    00000018 21r00r00         [10]  425 	ld	hl, #_g_RestartKickTeamId
    0000001B 71               [ 7]  426 	ld	(hl), c
                                    427 ;E:\Dropbox\FAUSTO\SVILUPPI\MSX\CODE\C\MSXgl\projects\exsoccer/exsoccer_s1_b2.c:53: g_Timer = 0;
    0000001C 21r00r00         [10]  428 	ld	hl, #_g_Timer
    0000001F 36 00            [10]  429 	ld	(hl), #0x00
                                    430 ;E:\Dropbox\FAUSTO\SVILUPPI\MSX\CODE\C\MSXgl\projects\exsoccer/exsoccer_s1_b2.c:56: if (g_Ball.X < FIELD_POS_X_CENTER) g_GoalKickSide = CORNER_SIDE_LEFT;
    00000021 2Ar02r00         [16]  431 	ld	hl, (#(_g_Ball + 2) + 0)
    00000024 11 78 00         [10]  432 	ld	de, #0x0078
    00000027 BF               [ 4]  433 	cp	a, a
    00000028 ED 52            [15]  434 	sbc	hl, de
    0000002A 30 06            [12]  435 	jr	NC, 00102$
    0000002C 21r00r00         [10]  436 	ld	hl, #_g_GoalKickSide
    0000002F 36 00            [10]  437 	ld	(hl), #0x00
    00000031 C9               [10]  438 	ret
    00000032                        439 00102$:
                                    440 ;E:\Dropbox\FAUSTO\SVILUPPI\MSX\CODE\C\MSXgl\projects\exsoccer/exsoccer_s1_b2.c:57: else g_GoalKickSide = CORNER_SIDE_RIGHT;
    00000032 21r00r00         [10]  441 	ld	hl, #_g_GoalKickSide
    00000035 36 01            [10]  442 	ld	(hl), #0x01
                                    443 ;E:\Dropbox\FAUSTO\SVILUPPI\MSX\CODE\C\MSXgl\projects\exsoccer/exsoccer_s1_b2.c:58: }
    00000037 C9               [10]  444 	ret
                         0000F380   445 _g_RDPRIM	=	0xf380
                         0000F385   446 _g_WRPRIM	=	0xf385
                         0000F38C   447 _g_CLPRIM	=	0xf38c
                         0000F39A   448 _g_USRTAB	=	0xf39a
                         0000F3DE   449 _g_CNSDFG	=	0xf3de
                         0000F3DF   450 _g_RG0SAV	=	0xf3df
                         0000F3E0   451 _g_RG1SAV	=	0xf3e0
                         0000F3E1   452 _g_RG2SAV	=	0xf3e1
                         0000F3E2   453 _g_RG3SAV	=	0xf3e2
                         0000F3E3   454 _g_RG4SAV	=	0xf3e3
                         0000F3E4   455 _g_RG5SAV	=	0xf3e4
                         0000F3E5   456 _g_RG6SAV	=	0xf3e5
                         0000F3E6   457 _g_RG7SAV	=	0xf3e6
                         0000F3E7   458 _g_STATFL	=	0xf3e7
                         0000F3E8   459 _g_TRGFLG	=	0xf3e8
                         0000F3EC   460 _g_MAXUPD	=	0xf3ec
                         0000F3EF   461 _g_MINUPD	=	0xf3ef
                         0000F3F3   462 _g_QUEUES	=	0xf3f3
                         0000F3F5   463 _g_FRCNEW	=	0xf3f5
                         0000F3F6   464 _g_SCNCNT	=	0xf3f6
                         0000F3F7   465 _g_REPCNT	=	0xf3f7
                         0000F3F8   466 _g_PUTPNT	=	0xf3f8
                         0000F3FA   467 _g_GETPNT	=	0xf3fa
                         0000F3FC   468 _g_CS120	=	0xf3fc
                         0000F401   469 _g_CS240	=	0xf401
                         0000F406   470 _g_LOW	=	0xf406
                         0000F408   471 _g_HIGH	=	0xf408
                         0000F40A   472 _g_HEADER	=	0xf40a
                         0000F40B   473 _g_ASPCT1	=	0xf40b
                         0000F40D   474 _g_ASPCT2	=	0xf40d
                         0000F959   475 _g_QUETAB	=	0xf959
                         0000F971   476 _g_QUEBAK	=	0xf971
                         0000F975   477 _g_VOICAQ	=	0xf975
                         0000F9F5   478 _g_VOICBQ	=	0xf9f5
                         0000FA75   479 _g_VOICCQ	=	0xfa75
                         0000FAF5   480 _g_RS2IQ	=	0xfaf5
                         0000FAF5   481 _g_DPPAGE	=	0xfaf5
                         0000FAF6   482 _g_ACPAGE	=	0xfaf6
                         0000FAF7   483 _g_AVCSAV	=	0xfaf7
                         0000FAF8   484 _g_EXBRSA	=	0xfaf8
                         0000FAF9   485 _g_CHRCNT	=	0xfaf9
                         0000FAFA   486 _g_ROMA	=	0xfafa
                         0000FAFC   487 _g_MODE	=	0xfafc
                         0000FAFD   488 _g_NORUSE	=	0xfafd
                         0000FAFE   489 _g_XSAVE	=	0xfafe
                         0000FB00   490 _g_YSAVE	=	0xfb00
                         0000FB03   491 _g_RSTMP	=	0xfb03
                         0000FB03   492 _g_TOCNT	=	0xfb03
                         0000FB04   493 _g_RSFCB	=	0xfb04
                         0000FB06   494 _g_RSIQLN	=	0xfb06
                         0000FB07   495 _g_MEXBIh	=	0xfb07
                         0000FB0C   496 _g_OLDSTT	=	0xfb0c
                         0000FB0C   497 _g_OLDINT	=	0xfb0c
                         0000FB16   498 _g_DEVNUM	=	0xfb16
                         0000FB17   499 _g_DATCNT	=	0xfb17
                         0000FB1A   500 _g_ERRORS	=	0xfb1a
                         0000FB1B   501 _g_FLAGS	=	0xfb1b
                         0000FB1C   502 _g_ESTBLS	=	0xfb1c
                         0000FB1D   503 _g_COMMSK	=	0xfb1d
                         0000FB1E   504 _g_LSTCOM	=	0xfb1e
                         0000FB1F   505 _g_LSTMOD	=	0xfb1f
                         0000FB35   506 _g_PRSCNT	=	0xfb35
                         0000FB36   507 _g_SAVSP	=	0xfb36
                         0000FB38   508 _g_VOICEN	=	0xfb38
                         0000FB39   509 _g_SAVVOL	=	0xfb39
                         0000FB3B   510 _g_MCLLEN	=	0xfb3b
                         0000FB3C   511 _g_MCLPTR	=	0xfb3c
                         0000FB3E   512 _g_QUEUEN	=	0xfb3e
                         0000FB3F   513 _g_MUSICF	=	0xfb3f
                         0000FB40   514 _g_PLYCNT	=	0xfb40
                         0000FB41   515 _g_VCBA	=	0xfb41
                         0000FB66   516 _g_VCBB	=	0xfb66
                         0000FB8B   517 _g_VCBC	=	0xfb8b
                         0000FBB0   518 _g_ENSTOP	=	0xfbb0
                         0000FBB1   519 _g_BASROM	=	0xfbb1
                         0000FBB2   520 _g_LINTTB	=	0xfbb2
                         0000FBCA   521 _g_FSTPOS	=	0xfbca
                         0000FBCC   522 _g_CODSAV	=	0xfbcc
                         0000FBCD   523 _g_FNKSWI	=	0xfbcd
                         0000FBCE   524 _g_FNKFLG	=	0xfbce
                         0000FBD8   525 _g_ONGSBF	=	0xfbd8
                         0000FBD9   526 _g_CLIKFL	=	0xfbd9
                         0000FBDA   527 _g_OLDKEY	=	0xfbda
                         0000FBE5   528 _g_NEWKEY	=	0xfbe5
                         0000FBF0   529 _g_KEYBUF	=	0xfbf0
                         0000FC18   530 _g_LINWRK	=	0xfc18
                         0000FC40   531 _g_PATWRK	=	0xfc40
                         0000FC48   532 _g_BOTTOM	=	0xfc48
                         0000FC4A   533 _g_HIMEM	=	0xfc4a
                         0000FC4C   534 _g_TRPTBL	=	0xfc4c
                         0000FC9A   535 _g_RTYCNT	=	0xfc9a
                         0000FC9B   536 _g_INTFLG	=	0xfc9b
                         0000FC9C   537 _g_PADY	=	0xfc9c
                         0000FC9D   538 _g_PADX	=	0xfc9d
                         0000FC9E   539 _g_JIFFY	=	0xfc9e
                         0000FCA0   540 _g_INTVAL	=	0xfca0
                         0000FCA2   541 _g_INTCNT	=	0xfca2
                         0000FCA4   542 _g_LOWLIM	=	0xfca4
                         0000FCA5   543 _g_WINWID	=	0xfca5
                         0000FCA6   544 _g_GRPHED	=	0xfca6
                         0000FCA7   545 _g_ESCCNT	=	0xfca7
                         0000FCA8   546 _g_INSFLG	=	0xfca8
                         0000FCA9   547 _g_CSRSW	=	0xfca9
                         0000FCAA   548 _g_CSTYLE	=	0xfcaa
                         0000FCAB   549 _g_CAPST	=	0xfcab
                         0000FCAC   550 _g_KANAST	=	0xfcac
                         0000FCAD   551 _g_KANAMD	=	0xfcad
                         0000FCAE   552 _g_FLBMEM	=	0xfcae
                         0000FCAF   553 _g_SCRMOD	=	0xfcaf
                         0000FCB0   554 _g_OLDSCR	=	0xfcb0
                         0000FCB1   555 _g_CASPRV	=	0xfcb1
                         0000FCB2   556 _g_BRDATR	=	0xfcb2
                         0000FCB3   557 _g_GXPOS	=	0xfcb3
                         0000FCB5   558 _g_GYPOS	=	0xfcb5
                         0000FCBB   559 _g_DRWFLG	=	0xfcbb
                         0000FCBC   560 _g_DRWSCL	=	0xfcbc
                         0000FCBD   561 _g_DRWANG	=	0xfcbd
                         0000FCC1   562 _g_MNROM	=	0xfcc1
                         0000FCC1   563 _g_EXPTBL	=	0xfcc1
                         0000FCC5   564 _g_SLTTBL	=	0xfcc5
                         0000FCC9   565 _g_SLTATR	=	0xfcc9
                         0000FD09   566 _g_SLTWRK	=	0xfd09
                         0000FD89   567 _g_PROCNM	=	0xfd89
                         0000FFE7   568 _g_RG08SAV	=	0xffe7
                         0000FFE8   569 _g_RG09SAV	=	0xffe8
                         0000FFE9   570 _g_RG10SAV	=	0xffe9
                         0000FFEA   571 _g_RG11SAV	=	0xffea
                         0000FFEB   572 _g_RG12SAV	=	0xffeb
                         0000FFEC   573 _g_RG13SAV	=	0xffec
                         0000FFED   574 _g_RG14SAV	=	0xffed
                         0000FFEE   575 _g_RG15SAV	=	0xffee
                         0000FFEF   576 _g_RG16SAV	=	0xffef
                         0000FFF0   577 _g_RG17SAV	=	0xfff0
                         0000FFF1   578 _g_RG18SAV	=	0xfff1
                         0000FFF2   579 _g_RG19SAV	=	0xfff2
                         0000FFF3   580 _g_RG20SAV	=	0xfff3
                         0000FFF4   581 _g_RG21SAV	=	0xfff4
                         0000FFF5   582 _g_RG22SAV	=	0xfff5
                         0000FFF6   583 _g_RG23SAV	=	0xfff6
                         0000FFF7   584 _g_MINROM	=	0xfff7
                         0000FFF8   585 _g_SVFFF8	=	0xfff8
                         0000FFFA   586 _g_RG25SAV	=	0xfffa
                         0000FFFB   587 _g_RG26SAV	=	0xfffb
                         0000FFFC   588 _g_RG27SAV	=	0xfffc
                         0000FFFD   589 _g_SVFFFD	=	0xfffd
                         00000004   590 _g_CGTABL	=	0x0004
                         00000006   591 _g_VDP_DR	=	0x0006
                         00000007   592 _g_VDP_DW	=	0x0007
                         0000002B   593 _g_BASRVN	=	0x002b
                         0000002B   594 _g_ROMVersion	=	0x002b
                         0000002D   595 _g_MSXVER	=	0x002d
                         0000002E   596 _g_MSXMID	=	0x002e
                         00000034   597 _g_CHAR_16	=	0x0034
                         00000000   598 _g_SUBRID	=	0x0000
                         00000002   599 _g_STRSRC	=	0x0002
                         0000F30F   600 _g_KANJTABLE	=	0xf30f
                         0000F323   601 _g_DISKVE	=	0xf323
                         0000F325   602 _g_BREAKV	=	0xf325
                         0000F341   603 _g_RAMAD0	=	0xf341
                         0000F342   604 _g_RAMAD1	=	0xf342
                         0000F343   605 _g_RAMAD2	=	0xf343
                         0000F344   606 _g_RAMAD3	=	0xf344
                         0000F348   607 _g_MASTER	=	0xf348
                         0000F37D   608 _g_BDOS	=	0xf37d
    00000038                        609 ___str_0:
    00000038 47 4F 41 4C 20 4B 49   610 	.ascii "GOAL KICK"
             43 4B
    00000041 00                     611 	.db 0x00
                                    612 ;E:\Dropbox\FAUSTO\SVILUPPI\MSX\CODE\C\MSXgl\projects\exsoccer/exsoccer_s1_b2.c:59: void BallInGoal(u8 teamScored){
                                    613 ;	---------------------------------
                                    614 ; Function BallInGoal
                                    615 ; ---------------------------------
    00000042                        616 _BallInGoal::
    00000042 4F               [ 4]  617 	ld	c, a
                                    618 ;E:\Dropbox\FAUSTO\SVILUPPI\MSX\CODE\C\MSXgl\projects\exsoccer/exsoccer_s1_b2.c:61: V9_PrintLayerAStringAtPos(12,18,"IN  GOAL");
    00000043 C5               [11]  619 	push	bc
    00000044 21rBFr00         [10]  620 	ld	hl, #___str_1
    00000047 E5               [11]  621 	push	hl
    00000048 2E 12            [ 7]  622 	ld	l, #0x12
                                    623 ;	spillPairReg hl
                                    624 ;	spillPairReg hl
    0000004A 3E 0C            [ 7]  625 	ld	a, #0x0c
    0000004C CDr00r00         [17]  626 	call	_V9_PrintLayerAStringAtPos
    0000004F C1               [10]  627 	pop	bc
                                    628 ;E:\Dropbox\FAUSTO\SVILUPPI\MSX\CODE\C\MSXgl\projects\exsoccer/exsoccer_s1_b2.c:63: g_GoalScorerId = g_Ball.PossessionPlayerId;
    00000050 21r06r00         [10]  629 	ld	hl, #(_g_Ball + 6)
    00000053 7E               [ 7]  630 	ld	a, (hl)
                                    631 ;E:\Dropbox\FAUSTO\SVILUPPI\MSX\CODE\C\MSXgl\projects\exsoccer/exsoccer_s1_b2.c:66: if (g_GoalScorerId == NO_VALUE) {
    00000054 32r00r00         [13]  632 	ld	(_g_GoalScorerId+0), a
    00000057 3C               [ 4]  633 	inc	a
    00000058 20 0B            [12]  634 	jr	NZ, 00102$
                                    635 ;E:\Dropbox\FAUSTO\SVILUPPI\MSX\CODE\C\MSXgl\projects\exsoccer/exsoccer_s1_b2.c:67: g_GoalScorerId = GetClosestPlayerToBall(teamScored, NO_VALUE);
    0000005A C5               [11]  636 	push	bc
    0000005B 2E FF            [ 7]  637 	ld	l, #0xff
                                    638 ;	spillPairReg hl
                                    639 ;	spillPairReg hl
    0000005D 79               [ 4]  640 	ld	a, c
    0000005E CDr00r00         [17]  641 	call	_GetClosestPlayerToBall
    00000061 C1               [10]  642 	pop	bc
    00000062 32r00r00         [13]  643 	ld	(_g_GoalScorerId+0), a
    00000065                        644 00102$:
                                    645 ;E:\Dropbox\FAUSTO\SVILUPPI\MSX\CODE\C\MSXgl\projects\exsoccer/exsoccer_s1_b2.c:70: if(teamScored==TEAM_1){
    00000065 0D               [ 4]  646 	dec	c
    00000066 3E 01            [ 7]  647 	ld	a, #0x01
    00000068 28 01            [12]  648 	jr	Z, 00128$
    0000006A AF               [ 4]  649 	xor	a, a
    0000006B                        650 00128$:
    0000006B 4F               [ 4]  651 	ld	c, a
    0000006C B7               [ 4]  652 	or	a, a
    0000006D 28 0D            [12]  653 	jr	Z, 00104$
                                    654 ;E:\Dropbox\FAUSTO\SVILUPPI\MSX\CODE\C\MSXgl\projects\exsoccer/exsoccer_s1_b2.c:72: g_Ball.Y = FIELD_BOUND_Y_TOP - 12;
    0000006F 21 26 00         [10]  655 	ld	hl, #0x0026
    00000072 22r00r00         [16]  656 	ld	(_g_Ball), hl
                                    657 ;E:\Dropbox\FAUSTO\SVILUPPI\MSX\CODE\C\MSXgl\projects\exsoccer/exsoccer_s1_b2.c:73: g_Team1Score++;
    00000075 21r00r00         [10]  658 	ld	hl, #_g_Team1Score
    00000078 34               [11]  659 	inc	(hl)
    00000079 C3r86r00         [10]  660 	jp	00105$
    0000007C                        661 00104$:
                                    662 ;E:\Dropbox\FAUSTO\SVILUPPI\MSX\CODE\C\MSXgl\projects\exsoccer/exsoccer_s1_b2.c:77: g_Ball.Y = FIELD_BOUND_Y_BOTTOM + 24L;
    0000007C 21 C6 01         [10]  663 	ld	hl, #0x01c6
    0000007F 22r00r00         [16]  664 	ld	(_g_Ball), hl
                                    665 ;E:\Dropbox\FAUSTO\SVILUPPI\MSX\CODE\C\MSXgl\projects\exsoccer/exsoccer_s1_b2.c:78: g_Team2Score++;
    00000082 21r00r00         [10]  666 	ld	hl, #_g_Team2Score
    00000085 34               [11]  667 	inc	(hl)
    00000086                        668 00105$:
                                    669 ;E:\Dropbox\FAUSTO\SVILUPPI\MSX\CODE\C\MSXgl\projects\exsoccer/exsoccer_s1_b2.c:80: ShowHeaderInfo();
    00000086 C5               [11]  670 	push	bc
    00000087 CDr00r00         [17]  671 	call	_ShowHeaderInfo
    0000008A CDr00r00         [17]  672 	call	_PutBallSprite
    0000008D 3E 05            [ 7]  673 	ld	a, #0x05
    0000008F CDr00r00         [17]  674 	call	_PlayPcm
    00000092 C1               [10]  675 	pop	bc
                                    676 ;E:\Dropbox\FAUSTO\SVILUPPI\MSX\CODE\C\MSXgl\projects\exsoccer/exsoccer_s1_b2.c:85: g_MatchStatus=MATCH_AFTER_IN_GOAL;
    00000093 21r00r00         [10]  677 	ld	hl, #_g_MatchStatus
    00000096 36 06            [10]  678 	ld	(hl), #0x06
                                    679 ;E:\Dropbox\FAUSTO\SVILUPPI\MSX\CODE\C\MSXgl\projects\exsoccer/exsoccer_s1_b2.c:86: g_RestartKickTeamId = (teamScored == TEAM_1) ? TEAM_2 : TEAM_1;
    00000098 79               [ 4]  680 	ld	a, c
    00000099 B7               [ 4]  681 	or	a, a
    0000009A 28 07            [12]  682 	jr	Z, 00108$
    0000009C 3E 02            [ 7]  683 	ld	a, #0x02
    0000009E 0E 00            [ 7]  684 	ld	c, #0x00
    000000A0 C3rA7r00         [10]  685 	jp	00109$
    000000A3                        686 00108$:
    000000A3 3E 01            [ 7]  687 	ld	a, #0x01
    000000A5 0E 00            [ 7]  688 	ld	c, #0x00
    000000A7                        689 00109$:
    000000A7 32r00r00         [13]  690 	ld	(_g_RestartKickTeamId+0), a
                                    691 ;E:\Dropbox\FAUSTO\SVILUPPI\MSX\CODE\C\MSXgl\projects\exsoccer/exsoccer_s1_b2.c:87: g_Timer = 0; // Start timer for celebration/reset
    000000AA 21r00r00         [10]  692 	ld	hl, #_g_Timer
    000000AD 36 00            [10]  693 	ld	(hl), #0x00
                                    694 ;E:\Dropbox\FAUSTO\SVILUPPI\MSX\CODE\C\MSXgl\projects\exsoccer/exsoccer_s1_b2.c:88: g_Ball.ShotActive = 0;
    000000AF 21r1Br00         [10]  695 	ld	hl, #(_g_Ball + 27)
    000000B2 36 00            [10]  696 	ld	(hl), #0x00
                                    697 ;E:\Dropbox\FAUSTO\SVILUPPI\MSX\CODE\C\MSXgl\projects\exsoccer/exsoccer_s1_b2.c:89: g_Ball.PassTargetPlayerId = NO_VALUE;
    000000B4 21r10r00         [10]  698 	ld	hl, #(_g_Ball + 16)
    000000B7 36 FF            [10]  699 	ld	(hl), #0xff
                                    700 ;E:\Dropbox\FAUSTO\SVILUPPI\MSX\CODE\C\MSXgl\projects\exsoccer/exsoccer_s1_b2.c:90: g_Ball.PossessionPlayerId = NO_VALUE;
    000000B9 21r06r00         [10]  701 	ld	hl, #(_g_Ball + 6)
    000000BC 36 FF            [10]  702 	ld	(hl), #0xff
                                    703 ;E:\Dropbox\FAUSTO\SVILUPPI\MSX\CODE\C\MSXgl\projects\exsoccer/exsoccer_s1_b2.c:91: }
    000000BE C9               [10]  704 	ret
    000000BF                        705 ___str_1:
    000000BF 49 4E 20 20 47 4F 41   706 	.ascii "IN  GOAL"
             4C
    000000C7 00                     707 	.db 0x00
                                    708 ;E:\Dropbox\FAUSTO\SVILUPPI\MSX\CODE\C\MSXgl\projects\exsoccer/exsoccer_s1_b2.c:92: void GoalkeeperWithBall(u8 teamId, bool isSteal) {
                                    709 ;	---------------------------------
                                    710 ; Function GoalkeeperWithBall
                                    711 ; ---------------------------------
    000000C8                        712 _GoalkeeperWithBall::
    000000C8 DD E5            [15]  713 	push	ix
    000000CA DD 21 00 00      [14]  714 	ld	ix,#0
    000000CE DD 39            [15]  715 	add	ix,sp
    000000D0 FD 21 F8 FF      [14]  716 	ld	iy, #-8
    000000D4 FD 39            [15]  717 	add	iy, sp
    000000D6 FD F9            [10]  718 	ld	sp, iy
    000000D8 DD 77 FE         [19]  719 	ld	-2 (ix), a
    000000DB DD 75 FD         [19]  720 	ld	-3 (ix), l
                                    721 ;E:\Dropbox\FAUSTO\SVILUPPI\MSX\CODE\C\MSXgl\projects\exsoccer/exsoccer_s1_b2.c:93: u8 gkId = GetPlayerIdByRole(teamId, PLAYER_ROLE_GOALKEEPER);
    000000DE 2E 00            [ 7]  722 	ld	l, #0x00
                                    723 ;	spillPairReg hl
                                    724 ;	spillPairReg hl
    000000E0 DD 7E FE         [19]  725 	ld	a, -2 (ix)
    000000E3 CDr00r00         [17]  726 	call	_GetPlayerIdByRole
                                    727 ;E:\Dropbox\FAUSTO\SVILUPPI\MSX\CODE\C\MSXgl\projects\exsoccer/exsoccer_s1_b2.c:94: if(gkId == NO_VALUE) return;
    000000E6 DD 77 F8         [19]  728 	ld	-8 (ix), a
    000000E9 3C               [ 4]  729 	inc	a
    000000EA CArCCr02         [10]  730 	jp	Z,00159$
    000000ED C3rF0r00         [10]  731 	jp	00102$
    000000F0                        732 00102$:
                                    733 ;E:\Dropbox\FAUSTO\SVILUPPI\MSX\CODE\C\MSXgl\projects\exsoccer/exsoccer_s1_b2.c:96: g_GkAnimPlayerId = gkId;
    000000F0 DD 7E F8         [19]  734 	ld	a, -8 (ix)
    000000F3 32r00r00         [13]  735 	ld	(_g_GkAnimPlayerId+0), a
                                    736 ;E:\Dropbox\FAUSTO\SVILUPPI\MSX\CODE\C\MSXgl\projects\exsoccer/exsoccer_s1_b2.c:97: g_GkAnimTimer = 0;
    000000F6 21r00r00         [10]  737 	ld	hl, #_g_GkAnimTimer
    000000F9 36 00            [10]  738 	ld	(hl), #0x00
                                    739 ;E:\Dropbox\FAUSTO\SVILUPPI\MSX\CODE\C\MSXgl\projects\exsoccer/exsoccer_s1_b2.c:100: if (teamId == TEAM_1) {
    000000FB DD 7E FE         [19]  740 	ld	a, -2 (ix)
    000000FE 3D               [ 4]  741 	dec	a
    000000FF 3E 01            [ 7]  742 	ld	a, #0x01
    00000101 28 01            [12]  743 	jr	Z, 00275$
    00000103 AF               [ 4]  744 	xor	a, a
    00000104                        745 00275$:
    00000104 DD 77 F9         [19]  746 	ld	-7 (ix), a
                                    747 ;E:\Dropbox\FAUSTO\SVILUPPI\MSX\CODE\C\MSXgl\projects\exsoccer/exsoccer_s1_b2.c:101: g_Players[gkId].PatternId = PLAYER_POSE_TEAM1_GK_BALL_FRONT;
    00000107 DD 4E F8         [19]  748 	ld	c, -8 (ix)
    0000010A 06 00            [ 7]  749 	ld	b, #0x00
    0000010C 69               [ 4]  750 	ld	l, c
    0000010D 60               [ 4]  751 	ld	h, b
    0000010E 29               [11]  752 	add	hl, hl
    0000010F 29               [11]  753 	add	hl, hl
    00000110 09               [11]  754 	add	hl, bc
    00000111 29               [11]  755 	add	hl, hl
    00000112 29               [11]  756 	add	hl, hl
    00000113 09               [11]  757 	add	hl, bc
    00000114 4D               [ 4]  758 	ld	c, l
    00000115 44               [ 4]  759 	ld	b, h
                                    760 ;E:\Dropbox\FAUSTO\SVILUPPI\MSX\CODE\C\MSXgl\projects\exsoccer/exsoccer_s1_b2.c:100: if (teamId == TEAM_1) {
    00000116 DD 7E F9         [19]  761 	ld	a, -7 (ix)
    00000119 B7               [ 4]  762 	or	a, a
    0000011A 28 14            [12]  763 	jr	Z, 00104$
                                    764 ;E:\Dropbox\FAUSTO\SVILUPPI\MSX\CODE\C\MSXgl\projects\exsoccer/exsoccer_s1_b2.c:101: g_Players[gkId].PatternId = PLAYER_POSE_TEAM1_GK_BALL_FRONT;
    0000011C 21r00r00         [10]  765 	ld	hl, #_g_Players+0
    0000011F 09               [11]  766 	add	hl, bc
    00000120 EB               [ 4]  767 	ex	de, hl
    00000121 21 08 00         [10]  768 	ld	hl, #0x0008
    00000124 19               [11]  769 	add	hl, de
    00000125 36 9E            [10]  770 	ld	(hl), #0x9e
                                    771 ;E:\Dropbox\FAUSTO\SVILUPPI\MSX\CODE\C\MSXgl\projects\exsoccer/exsoccer_s1_b2.c:102: g_Players[gkId].Direction = DIRECTION_UP; // Face Up (Attack Direction)
    00000127 21 0A 00         [10]  772 	ld	hl, #0x000a
    0000012A 19               [11]  773 	add	hl, de
    0000012B 36 01            [10]  774 	ld	(hl), #0x01
    0000012D C3r41r01         [10]  775 	jp	00105$
    00000130                        776 00104$:
                                    777 ;E:\Dropbox\FAUSTO\SVILUPPI\MSX\CODE\C\MSXgl\projects\exsoccer/exsoccer_s1_b2.c:105: g_Players[gkId].PatternId = PLAYER_POSE_FRONT; // Team 2 GK plays like a player (feet)
    00000130 21r00r00         [10]  778 	ld	hl, #_g_Players+0
    00000133 09               [11]  779 	add	hl, bc
    00000134 EB               [ 4]  780 	ex	de, hl
    00000135 21 08 00         [10]  781 	ld	hl, #0x0008
    00000138 19               [11]  782 	add	hl, de
    00000139 36 10            [10]  783 	ld	(hl), #0x10
                                    784 ;E:\Dropbox\FAUSTO\SVILUPPI\MSX\CODE\C\MSXgl\projects\exsoccer/exsoccer_s1_b2.c:106: g_Players[gkId].Direction = DIRECTION_DOWN; // Face Down (Attack Direction)
    0000013B 21 0A 00         [10]  785 	ld	hl, #0x000a
    0000013E 19               [11]  786 	add	hl, de
    0000013F 36 05            [10]  787 	ld	(hl), #0x05
    00000141                        788 00105$:
                                    789 ;E:\Dropbox\FAUSTO\SVILUPPI\MSX\CODE\C\MSXgl\projects\exsoccer/exsoccer_s1_b2.c:110: g_Players[gkId].Status = PLAYER_STATUS_POSITIONED;
    00000141 21r00r00         [10]  790 	ld	hl, #_g_Players
    00000144 09               [11]  791 	add	hl, bc
    00000145 DD 75 FB         [19]  792 	ld	-5 (ix), l
    00000148 DD 74 FC         [19]  793 	ld	-4 (ix), h
    0000014B 11 12 00         [10]  794 	ld	de, #0x0012
    0000014E 19               [11]  795 	add	hl, de
    0000014F 36 04            [10]  796 	ld	(hl), #0x04
    00000151 23               [ 6]  797 	inc	hl
    00000152 36 00            [10]  798 	ld	(hl), #0x00
                                    799 ;E:\Dropbox\FAUSTO\SVILUPPI\MSX\CODE\C\MSXgl\projects\exsoccer/exsoccer_s1_b2.c:114: bool closeToLine = false;
    00000154 DD 36 FF 00      [19]  800 	ld	-1 (ix), #0x00
                                    801 ;E:\Dropbox\FAUSTO\SVILUPPI\MSX\CODE\C\MSXgl\projects\exsoccer/exsoccer_s1_b2.c:115: if (teamId == TEAM_2) { // GK 2 (Top)
    00000158 DD 7E FE         [19]  802 	ld	a, -2 (ix)
    0000015B D6 02            [ 7]  803 	sub	a, #0x02
    0000015D 20 1D            [12]  804 	jr	NZ, 00111$
                                    805 ;E:\Dropbox\FAUSTO\SVILUPPI\MSX\CODE\C\MSXgl\projects\exsoccer/exsoccer_s1_b2.c:116: g_GkRecoilY = -1;
    0000015F 21r00r00         [10]  806 	ld	hl, #_g_GkRecoilY
    00000162 36 FF            [10]  807 	ld	(hl), #0xff
                                    808 ;E:\Dropbox\FAUSTO\SVILUPPI\MSX\CODE\C\MSXgl\projects\exsoccer/exsoccer_s1_b2.c:117: if (g_Players[gkId].Y <= FIELD_BOUND_Y_TOP + 4) closeToLine = true;
    00000164 DD 6E FB         [19]  809 	ld	l, -5 (ix)
    00000167 DD 66 FC         [19]  810 	ld	h, -4 (ix)
    0000016A 4E               [ 7]  811 	ld	c, (hl)
    0000016B 23               [ 6]  812 	inc	hl
    0000016C 46               [ 7]  813 	ld	b, (hl)
    0000016D 3E 36            [ 7]  814 	ld	a, #0x36
    0000016F B9               [ 4]  815 	cp	a, c
    00000170 3E 00            [ 7]  816 	ld	a, #0x00
    00000172 98               [ 4]  817 	sbc	a, b
    00000173 38 2D            [12]  818 	jr	C, 00112$
    00000175 DD 36 FF 01      [19]  819 	ld	-1 (ix), #0x01
    00000179 C3rA2r01         [10]  820 	jp	00112$
    0000017C                        821 00111$:
                                    822 ;E:\Dropbox\FAUSTO\SVILUPPI\MSX\CODE\C\MSXgl\projects\exsoccer/exsoccer_s1_b2.c:119: g_GkRecoilY = 1;
    0000017C 21r00r00         [10]  823 	ld	hl, #_g_GkRecoilY
    0000017F 36 01            [10]  824 	ld	(hl), #0x01
                                    825 ;E:\Dropbox\FAUSTO\SVILUPPI\MSX\CODE\C\MSXgl\projects\exsoccer/exsoccer_s1_b2.c:120: if (g_Players[gkId].Y >= FIELD_BOUND_Y_BOTTOM - 4) closeToLine = true;
    00000181 DD 6E FB         [19]  826 	ld	l, -5 (ix)
    00000184 DD 66 FC         [19]  827 	ld	h, -4 (ix)
    00000187 7E               [ 7]  828 	ld	a, (hl)
    00000188 DD 77 FB         [19]  829 	ld	-5 (ix), a
    0000018B 23               [ 6]  830 	inc	hl
    0000018C 7E               [ 7]  831 	ld	a, (hl)
    0000018D DD 77 FC         [19]  832 	ld	-4 (ix), a
    00000190 DD 4E FB         [19]  833 	ld	c, -5 (ix)
    00000193 DD 46 FC         [19]  834 	ld	b, -4 (ix)
    00000196 79               [ 4]  835 	ld	a, c
    00000197 D6 AA            [ 7]  836 	sub	a, #0xaa
    00000199 78               [ 4]  837 	ld	a, b
    0000019A DE 01            [ 7]  838 	sbc	a, #0x01
    0000019C 38 04            [12]  839 	jr	C, 00112$
    0000019E DD 36 FF 01      [19]  840 	ld	-1 (ix), #0x01
    000001A2                        841 00112$:
                                    842 ;E:\Dropbox\FAUSTO\SVILUPPI\MSX\CODE\C\MSXgl\projects\exsoccer/exsoccer_s1_b2.c:123: if (closeToLine || isSteal) g_GkRecoilY = 0; // No recoil for Steals
    000001A2 DD 7E FF         [19]  843 	ld	a, -1 (ix)
    000001A5 B7               [ 4]  844 	or	a, a
    000001A6 20 06            [12]  845 	jr	NZ, 00113$
    000001A8 DD 7E FD         [19]  846 	ld	a, -3 (ix)
    000001AB B7               [ 4]  847 	or	a, a
    000001AC 28 05            [12]  848 	jr	Z, 00114$
    000001AE                        849 00113$:
    000001AE 21r00r00         [10]  850 	ld	hl, #_g_GkRecoilY
    000001B1 36 00            [10]  851 	ld	(hl), #0x00
    000001B3                        852 00114$:
                                    853 ;E:\Dropbox\FAUSTO\SVILUPPI\MSX\CODE\C\MSXgl\projects\exsoccer/exsoccer_s1_b2.c:124: g_GkIsGroundKick = isSteal; // Track if this is a ground kick (no offset needed)
    000001B3 DD 7E FD         [19]  854 	ld	a, -3 (ix)
    000001B6 32r00r00         [13]  855 	ld	(_g_GkIsGroundKick+0), a
                                    856 ;E:\Dropbox\FAUSTO\SVILUPPI\MSX\CODE\C\MSXgl\projects\exsoccer/exsoccer_s1_b2.c:127: SetPlayerBallPossession(gkId);
    000001B9 DD 7E F8         [19]  857 	ld	a, -8 (ix)
    000001BC CDr00r00         [17]  858 	call	_SetPlayerBallPossession
                                    859 ;E:\Dropbox\FAUSTO\SVILUPPI\MSX\CODE\C\MSXgl\projects\exsoccer/exsoccer_s1_b2.c:128: g_Ball.PossessionPlayerId = gkId; // Fix: Ensure AI knows GK has ball immediately to prevent chasing
    000001BF 21r06r00         [10]  860 	ld	hl, #(_g_Ball + 6)
    000001C2 DD 7E F8         [19]  861 	ld	a, -8 (ix)
    000001C5 77               [ 7]  862 	ld	(hl), a
                                    863 ;E:\Dropbox\FAUSTO\SVILUPPI\MSX\CODE\C\MSXgl\projects\exsoccer/exsoccer_s1_b2.c:129: g_Ball.ShotActive = 0;
    000001C6 21r1Br00         [10]  864 	ld	hl, #(_g_Ball + 27)
    000001C9 36 00            [10]  865 	ld	(hl), #0x00
                                    866 ;E:\Dropbox\FAUSTO\SVILUPPI\MSX\CODE\C\MSXgl\projects\exsoccer/exsoccer_s1_b2.c:131: g_MatchStatus = MATCH_BALL_ON_GOALKEEPER;
    000001CB 21r00r00         [10]  867 	ld	hl, #_g_MatchStatus
    000001CE 36 0D            [10]  868 	ld	(hl), #0x0d
                                    869 ;E:\Dropbox\FAUSTO\SVILUPPI\MSX\CODE\C\MSXgl\projects\exsoccer/exsoccer_s1_b2.c:134: for(u8 i=0; i<14; i++) {
    000001D0 DD 36 FF 00      [19]  870 	ld	-1 (ix), #0x00
    000001D4                        871 00158$:
    000001D4 DD 7E FF         [19]  872 	ld	a, -1 (ix)
    000001D7 D6 0E            [ 7]  873 	sub	a, #0x0e
    000001D9 D2rCCr02         [10]  874 	jp	NC, 00159$
                                    875 ;E:\Dropbox\FAUSTO\SVILUPPI\MSX\CODE\C\MSXgl\projects\exsoccer/exsoccer_s1_b2.c:135: if(i == gkId) continue;
    000001DC DD 7E F8         [19]  876 	ld	a, -8 (ix)
    000001DF DD 96 FF         [19]  877 	sub	a, -1 (ix)
    000001E2 CArC6r02         [10]  878 	jp	Z,00155$
                                    879 ;E:\Dropbox\FAUSTO\SVILUPPI\MSX\CODE\C\MSXgl\projects\exsoccer/exsoccer_s1_b2.c:136: if(g_Players[i].TeamId == REFEREE) continue;
    000001E5 DD 4E FF         [19]  880 	ld	c, -1 (ix)
    000001E8 06 00            [ 7]  881 	ld	b, #0x00
    000001EA 69               [ 4]  882 	ld	l, c
    000001EB 60               [ 4]  883 	ld	h, b
    000001EC 29               [11]  884 	add	hl, hl
    000001ED 29               [11]  885 	add	hl, hl
    000001EE 09               [11]  886 	add	hl, bc
    000001EF 29               [11]  887 	add	hl, hl
    000001F0 29               [11]  888 	add	hl, hl
    000001F1 09               [11]  889 	add	hl, bc
    000001F2 EB               [ 4]  890 	ex	de, hl
    000001F3 21r00r00         [10]  891 	ld	hl, #_g_Players
    000001F6 19               [11]  892 	add	hl, de
    000001F7 EB               [ 4]  893 	ex	de, hl
    000001F8 D5               [11]  894 	push	de
    000001F9 FD E1            [14]  895 	pop	iy
    000001FB FD 46 09         [19]  896 	ld	b, 9 (iy)
    000001FE 78               [ 4]  897 	ld	a, b
    000001FF D6 0E            [ 7]  898 	sub	a, #0x0e
    00000201 CArC6r02         [10]  899 	jp	Z,00155$
                                    900 ;E:\Dropbox\FAUSTO\SVILUPPI\MSX\CODE\C\MSXgl\projects\exsoccer/exsoccer_s1_b2.c:137: if(g_Players[i].Role == PLAYER_ROLE_GOALKEEPER) continue;
    00000204 D5               [11]  901 	push	de
    00000205 FD E1            [14]  902 	pop	iy
    00000207 FD 7E 0D         [19]  903 	ld	a, 13 (iy)
    0000020A DD 77 FA         [19]  904 	ld	-6 (ix), a
    0000020D B7               [ 4]  905 	or	a, a
    0000020E CArC6r02         [10]  906 	jp	Z, 00155$
                                    907 ;E:\Dropbox\FAUSTO\SVILUPPI\MSX\CODE\C\MSXgl\projects\exsoccer/exsoccer_s1_b2.c:141: tx = g_Players[i].X;
    00000211 6B               [ 4]  908 	ld	l, e
                                    909 ;	spillPairReg hl
                                    910 ;	spillPairReg hl
    00000212 62               [ 4]  911 	ld	h, d
                                    912 ;	spillPairReg hl
                                    913 ;	spillPairReg hl
    00000213 23               [ 6]  914 	inc	hl
    00000214 23               [ 6]  915 	inc	hl
    00000215 7E               [ 7]  916 	ld	a, (hl)
    00000216 DD 77 FB         [19]  917 	ld	-5 (ix), a
    00000219 23               [ 6]  918 	inc	hl
    0000021A 7E               [ 7]  919 	ld	a, (hl)
    0000021B DD 77 FC         [19]  920 	ld	-4 (ix), a
                                    921 ;E:\Dropbox\FAUSTO\SVILUPPI\MSX\CODE\C\MSXgl\projects\exsoccer/exsoccer_s1_b2.c:148: if (g_Players[i].Role >= PLAYER_ROLE_LEFT_STRIKER) ty = 160;
    0000021E DD 7E FA         [19]  922 	ld	a, -6 (ix)
    00000221 D6 05            [ 7]  923 	sub	a, #0x05
    00000223 3E 00            [ 7]  924 	ld	a, #0x00
    00000225 17               [ 4]  925 	rla
    00000226 4F               [ 4]  926 	ld	c, a
                                    927 ;E:\Dropbox\FAUSTO\SVILUPPI\MSX\CODE\C\MSXgl\projects\exsoccer/exsoccer_s1_b2.c:144: if(g_Players[i].TeamId == teamId) {
    00000227 DD 7E FE         [19]  928 	ld	a, -2 (ix)
    0000022A 90               [ 4]  929 	sub	a, b
    0000022B 20 40            [12]  930 	jr	NZ, 00153$
                                    931 ;E:\Dropbox\FAUSTO\SVILUPPI\MSX\CODE\C\MSXgl\projects\exsoccer/exsoccer_s1_b2.c:147: if(teamId == TEAM_1) { // Moving UP
    0000022D DD 7E F9         [19]  932 	ld	a, -7 (ix)
    00000230 B7               [ 4]  933 	or	a, a
    00000231 28 1D            [12]  934 	jr	Z, 00135$
                                    935 ;E:\Dropbox\FAUSTO\SVILUPPI\MSX\CODE\C\MSXgl\projects\exsoccer/exsoccer_s1_b2.c:148: if (g_Players[i].Role >= PLAYER_ROLE_LEFT_STRIKER) ty = 160;
    00000233 CB 41            [ 8]  936 	bit	0, c
    00000235 20 06            [12]  937 	jr	NZ, 00126$
    00000237 01 A0 00         [10]  938 	ld	bc, #0x00a0
    0000023A C3rAAr02         [10]  939 	jp	00154$
    0000023D                        940 00126$:
                                    941 ;E:\Dropbox\FAUSTO\SVILUPPI\MSX\CODE\C\MSXgl\projects\exsoccer/exsoccer_s1_b2.c:149: else if (g_Players[i].Role >= PLAYER_ROLE_LEFT_HALFFIELDER) ty = 240;
    0000023D DD 7E FA         [19]  942 	ld	a, -6 (ix)
    00000240 D6 03            [ 7]  943 	sub	a, #0x03
    00000242 38 06            [12]  944 	jr	C, 00123$
    00000244 01 F0 00         [10]  945 	ld	bc, #0x00f0
    00000247 C3rAAr02         [10]  946 	jp	00154$
    0000024A                        947 00123$:
                                    948 ;E:\Dropbox\FAUSTO\SVILUPPI\MSX\CODE\C\MSXgl\projects\exsoccer/exsoccer_s1_b2.c:150: else ty = 350;
    0000024A 01 5E 01         [10]  949 	ld	bc, #0x015e
    0000024D C3rAAr02         [10]  950 	jp	00154$
    00000250                        951 00135$:
                                    952 ;E:\Dropbox\FAUSTO\SVILUPPI\MSX\CODE\C\MSXgl\projects\exsoccer/exsoccer_s1_b2.c:152: if (g_Players[i].Role >= PLAYER_ROLE_LEFT_STRIKER) ty = 320;
    00000250 CB 41            [ 8]  953 	bit	0, c
    00000252 20 06            [12]  954 	jr	NZ, 00132$
    00000254 01 40 01         [10]  955 	ld	bc, #0x0140
    00000257 C3rAAr02         [10]  956 	jp	00154$
    0000025A                        957 00132$:
                                    958 ;E:\Dropbox\FAUSTO\SVILUPPI\MSX\CODE\C\MSXgl\projects\exsoccer/exsoccer_s1_b2.c:153: else if (g_Players[i].Role >= PLAYER_ROLE_LEFT_HALFFIELDER) ty = 240;
    0000025A DD 7E FA         [19]  959 	ld	a, -6 (ix)
    0000025D D6 03            [ 7]  960 	sub	a, #0x03
    0000025F 38 06            [12]  961 	jr	C, 00129$
    00000261 01 F0 00         [10]  962 	ld	bc, #0x00f0
    00000264 C3rAAr02         [10]  963 	jp	00154$
    00000267                        964 00129$:
                                    965 ;E:\Dropbox\FAUSTO\SVILUPPI\MSX\CODE\C\MSXgl\projects\exsoccer/exsoccer_s1_b2.c:154: else ty = 130;
    00000267 01 82 00         [10]  966 	ld	bc, #0x0082
    0000026A C3rAAr02         [10]  967 	jp	00154$
    0000026D                        968 00153$:
                                    969 ;E:\Dropbox\FAUSTO\SVILUPPI\MSX\CODE\C\MSXgl\projects\exsoccer/exsoccer_s1_b2.c:159: if(teamId == TEAM_1) { // Opponent is Team 2 (Top) -> Retreat UP? No, Team 2 Defends Top.
    0000026D DD 7E F9         [19]  970 	ld	a, -7 (ix)
    00000270 B7               [ 4]  971 	or	a, a
    00000271 28 1D            [12]  972 	jr	Z, 00150$
                                    973 ;E:\Dropbox\FAUSTO\SVILUPPI\MSX\CODE\C\MSXgl\projects\exsoccer/exsoccer_s1_b2.c:161: if (g_Players[i].Role >= PLAYER_ROLE_LEFT_STRIKER) ty = 243; // Midfield
    00000273 CB 41            [ 8]  974 	bit	0, c
    00000275 20 06            [12]  975 	jr	NZ, 00141$
    00000277 01 F3 00         [10]  976 	ld	bc, #0x00f3
    0000027A C3rAAr02         [10]  977 	jp	00154$
    0000027D                        978 00141$:
                                    979 ;E:\Dropbox\FAUSTO\SVILUPPI\MSX\CODE\C\MSXgl\projects\exsoccer/exsoccer_s1_b2.c:162: else if (g_Players[i].Role >= PLAYER_ROLE_LEFT_HALFFIELDER) ty = 106;
    0000027D DD 7E FA         [19]  980 	ld	a, -6 (ix)
    00000280 D6 03            [ 7]  981 	sub	a, #0x03
    00000282 38 06            [12]  982 	jr	C, 00138$
    00000284 01 6A 00         [10]  983 	ld	bc, #0x006a
    00000287 C3rAAr02         [10]  984 	jp	00154$
    0000028A                        985 00138$:
                                    986 ;E:\Dropbox\FAUSTO\SVILUPPI\MSX\CODE\C\MSXgl\projects\exsoccer/exsoccer_s1_b2.c:163: else ty = 130;
    0000028A 01 82 00         [10]  987 	ld	bc, #0x0082
    0000028D C3rAAr02         [10]  988 	jp	00154$
    00000290                        989 00150$:
                                    990 ;E:\Dropbox\FAUSTO\SVILUPPI\MSX\CODE\C\MSXgl\projects\exsoccer/exsoccer_s1_b2.c:166: if (g_Players[i].Role >= PLAYER_ROLE_LEFT_STRIKER) ty = 243;
    00000290 CB 41            [ 8]  991 	bit	0, c
    00000292 20 06            [12]  992 	jr	NZ, 00147$
    00000294 01 F3 00         [10]  993 	ld	bc, #0x00f3
    00000297 C3rAAr02         [10]  994 	jp	00154$
    0000029A                        995 00147$:
                                    996 ;E:\Dropbox\FAUSTO\SVILUPPI\MSX\CODE\C\MSXgl\projects\exsoccer/exsoccer_s1_b2.c:167: else if (g_Players[i].Role >= PLAYER_ROLE_LEFT_HALFFIELDER) ty = 318;
    0000029A DD 7E FA         [19]  997 	ld	a, -6 (ix)
    0000029D D6 03            [ 7]  998 	sub	a, #0x03
    0000029F 38 06            [12]  999 	jr	C, 00144$
    000002A1 01 3E 01         [10] 1000 	ld	bc, #0x013e
    000002A4 C3rAAr02         [10] 1001 	jp	00154$
    000002A7                       1002 00144$:
                                   1003 ;E:\Dropbox\FAUSTO\SVILUPPI\MSX\CODE\C\MSXgl\projects\exsoccer/exsoccer_s1_b2.c:168: else ty = 350;
    000002A7 01 5E 01         [10] 1004 	ld	bc, #0x015e
    000002AA                       1005 00154$:
                                   1006 ;E:\Dropbox\FAUSTO\SVILUPPI\MSX\CODE\C\MSXgl\projects\exsoccer/exsoccer_s1_b2.c:173: g_Players[i].TargetX = tx;
    000002AA 21 10 00         [10] 1007 	ld	hl, #0x0010
    000002AD 19               [11] 1008 	add	hl, de
    000002AE DD 7E FB         [19] 1009 	ld	a, -5 (ix)
    000002B1 77               [ 7] 1010 	ld	(hl), a
    000002B2 23               [ 6] 1011 	inc	hl
    000002B3 DD 7E FC         [19] 1012 	ld	a, -4 (ix)
    000002B6 77               [ 7] 1013 	ld	(hl), a
                                   1014 ;E:\Dropbox\FAUSTO\SVILUPPI\MSX\CODE\C\MSXgl\projects\exsoccer/exsoccer_s1_b2.c:174: g_Players[i].TargetY = ty;
    000002B7 21 0E 00         [10] 1015 	ld	hl, #0x000e
    000002BA 19               [11] 1016 	add	hl, de
    000002BB 71               [ 7] 1017 	ld	(hl), c
    000002BC 23               [ 6] 1018 	inc	hl
    000002BD 70               [ 7] 1019 	ld	(hl), b
                                   1020 ;E:\Dropbox\FAUSTO\SVILUPPI\MSX\CODE\C\MSXgl\projects\exsoccer/exsoccer_s1_b2.c:175: g_Players[i].Status = PLAYER_STATUS_NONE; // Unlock movement
    000002BE 21 12 00         [10] 1021 	ld	hl, #0x0012
    000002C1 19               [11] 1022 	add	hl, de
    000002C2 AF               [ 4] 1023 	xor	a, a
    000002C3 77               [ 7] 1024 	ld	(hl), a
    000002C4 23               [ 6] 1025 	inc	hl
    000002C5 77               [ 7] 1026 	ld	(hl), a
    000002C6                       1027 00155$:
                                   1028 ;E:\Dropbox\FAUSTO\SVILUPPI\MSX\CODE\C\MSXgl\projects\exsoccer/exsoccer_s1_b2.c:134: for(u8 i=0; i<14; i++) {
    000002C6 DD 34 FF         [23] 1029 	inc	-1 (ix)
    000002C9 C3rD4r01         [10] 1030 	jp	00158$
    000002CC                       1031 00159$:
                                   1032 ;E:\Dropbox\FAUSTO\SVILUPPI\MSX\CODE\C\MSXgl\projects\exsoccer/exsoccer_s1_b2.c:177: }
    000002CC DD F9            [10] 1033 	ld	sp, ix
    000002CE DD E1            [14] 1034 	pop	ix
    000002D0 C9               [10] 1035 	ret
                                   1036 ;E:\Dropbox\FAUSTO\SVILUPPI\MSX\CODE\C\MSXgl\projects\exsoccer/exsoccer_s1_b2.c:178: void TickGoalkeeperAnimation() {
                                   1037 ;	---------------------------------
                                   1038 ; Function TickGoalkeeperAnimation
                                   1039 ; ---------------------------------
    000002D1                       1040 _TickGoalkeeperAnimation::
    000002D1 DD E5            [15] 1041 	push	ix
    000002D3 DD 21 00 00      [14] 1042 	ld	ix,#0
    000002D7 DD 39            [15] 1043 	add	ix,sp
    000002D9 21 F9 FF         [10] 1044 	ld	hl, #-7
    000002DC 39               [11] 1045 	add	hl, sp
    000002DD F9               [ 6] 1046 	ld	sp, hl
                                   1047 ;E:\Dropbox\FAUSTO\SVILUPPI\MSX\CODE\C\MSXgl\projects\exsoccer/exsoccer_s1_b2.c:179: if (g_MatchStatus != MATCH_BALL_ON_GOALKEEPER) return;
    000002DE 3Ar00r00         [13] 1048 	ld	a, (_g_MatchStatus+0)
    000002E1 D6 0D            [ 7] 1049 	sub	a, #0x0d
    000002E3 C2rC8r06         [10] 1050 	jp	NZ,00160$
                                   1051 ;E:\Dropbox\FAUSTO\SVILUPPI\MSX\CODE\C\MSXgl\projects\exsoccer/exsoccer_s1_b2.c:180: if (g_GkAnimPlayerId == NO_VALUE) return;
    000002E6 3Ar00r00         [13] 1052 	ld	a, (_g_GkAnimPlayerId+0)
    000002E9 3C               [ 4] 1053 	inc	a
    000002EA CArC8r06         [10] 1054 	jp	Z,00160$
    000002ED C3rF0r02         [10] 1055 	jp	00104$
    000002F0                       1056 00104$:
                                   1057 ;E:\Dropbox\FAUSTO\SVILUPPI\MSX\CODE\C\MSXgl\projects\exsoccer/exsoccer_s1_b2.c:183: g_Players[g_GkAnimPlayerId].Status = PLAYER_STATUS_POSITIONED;
    000002F0 01r00r00         [10] 1058 	ld	bc, #_g_Players+0
    000002F3 ED 5Br00r00      [20] 1059 	ld	de, (_g_GkAnimPlayerId)
    000002F7 16 00            [ 7] 1060 	ld	d, #0x00
    000002F9 6B               [ 4] 1061 	ld	l, e
    000002FA 62               [ 4] 1062 	ld	h, d
    000002FB 29               [11] 1063 	add	hl, hl
    000002FC 29               [11] 1064 	add	hl, hl
    000002FD 19               [11] 1065 	add	hl, de
    000002FE 29               [11] 1066 	add	hl, hl
    000002FF 29               [11] 1067 	add	hl, hl
    00000300 19               [11] 1068 	add	hl, de
    00000301 09               [11] 1069 	add	hl, bc
    00000302 11 12 00         [10] 1070 	ld	de, #0x0012
    00000305 19               [11] 1071 	add	hl, de
    00000306 36 04            [10] 1072 	ld	(hl), #0x04
    00000308 23               [ 6] 1073 	inc	hl
    00000309 36 00            [10] 1074 	ld	(hl), #0x00
                                   1075 ;E:\Dropbox\FAUSTO\SVILUPPI\MSX\CODE\C\MSXgl\projects\exsoccer/exsoccer_s1_b2.c:185: g_GkAnimTimer++;
    0000030B 21r00r00         [10] 1076 	ld	hl, #_g_GkAnimTimer
    0000030E 34               [11] 1077 	inc	(hl)
                                   1078 ;E:\Dropbox\FAUSTO\SVILUPPI\MSX\CODE\C\MSXgl\projects\exsoccer/exsoccer_s1_b2.c:187: u8 kickTime = 60; // 1 Second delay for all (was 30)
    0000030F 1E 3C            [ 7] 1079 	ld	e, #0x3c
                                   1080 ;E:\Dropbox\FAUSTO\SVILUPPI\MSX\CODE\C\MSXgl\projects\exsoccer/exsoccer_s1_b2.c:188: if (g_GkIsGroundKick) kickTime = 6; // Immediate kick for ground kicks
    00000311 3Ar00r00         [13] 1081 	ld	a, (_g_GkIsGroundKick+0)
    00000314 B7               [ 4] 1082 	or	a, a
    00000315 28 02            [12] 1083 	jr	Z, 00106$
    00000317 1E 06            [ 7] 1084 	ld	e, #0x06
    00000319                       1085 00106$:
                                   1086 ;E:\Dropbox\FAUSTO\SVILUPPI\MSX\CODE\C\MSXgl\projects\exsoccer/exsoccer_s1_b2.c:191: if (g_GkAnimTimer < kickTime) {
    00000319 3Ar00r00         [13] 1087 	ld	a, (_g_GkAnimTimer+0)
    0000031C 93               [ 4] 1088 	sub	a, e
    0000031D 3E 00            [ 7] 1089 	ld	a, #0x00
    0000031F 17               [ 4] 1090 	rla
    00000320 B7               [ 4] 1091 	or	a, a
    00000321 CAr00r04         [10] 1092 	jp	Z, 00158$
                                   1093 ;E:\Dropbox\FAUSTO\SVILUPPI\MSX\CODE\C\MSXgl\projects\exsoccer/exsoccer_s1_b2.c:192: if (g_GkAnimTimer < 30 && (g_GkAnimTimer % 2) == 0 && g_GkRecoilY != 0) { // Faster movement (every 2 frames)
    00000324 3Ar00r00         [13] 1094 	ld	a, (_g_GkAnimTimer+0)
    00000327 D6 1E            [ 7] 1095 	sub	a, #0x1e
    00000329 D2rD3r03         [10] 1096 	jp	NC, 00112$
    0000032C FD 21r00r00      [14] 1097 	ld	iy, #_g_GkAnimTimer
    00000330 FD CB 00 46      [20] 1098 	bit	0, 0 (iy)
    00000334 C2rD3r03         [10] 1099 	jp	NZ,00112$
    00000337 3Ar00r00         [13] 1100 	ld	a, (_g_GkRecoilY+0)
    0000033A B7               [ 4] 1101 	or	a, a
    0000033B CArD3r03         [10] 1102 	jp	Z, 00112$
                                   1103 ;E:\Dropbox\FAUSTO\SVILUPPI\MSX\CODE\C\MSXgl\projects\exsoccer/exsoccer_s1_b2.c:193: g_Players[g_GkAnimPlayerId].Y += g_GkRecoilY;
    0000033E ED 5Br00r00      [20] 1104 	ld	de, (_g_GkAnimPlayerId)
    00000342 16 00            [ 7] 1105 	ld	d, #0x00
    00000344 6B               [ 4] 1106 	ld	l, e
    00000345 62               [ 4] 1107 	ld	h, d
    00000346 29               [11] 1108 	add	hl, hl
    00000347 29               [11] 1109 	add	hl, hl
    00000348 19               [11] 1110 	add	hl, de
    00000349 29               [11] 1111 	add	hl, hl
    0000034A 29               [11] 1112 	add	hl, hl
    0000034B 19               [11] 1113 	add	hl, de
    0000034C 09               [11] 1114 	add	hl, bc
    0000034D 5E               [ 7] 1115 	ld	e, (hl)
    0000034E 23               [ 6] 1116 	inc	hl
    0000034F 56               [ 7] 1117 	ld	d, (hl)
    00000350 2B               [ 6] 1118 	dec	hl
    00000351 3Ar00r00         [13] 1119 	ld	a, (_g_GkRecoilY+0)
    00000354 FD E5            [15] 1120 	push	iy
    00000356 DD 77 F7         [19] 1121 	ld	-9 (ix), a
    00000359 FD E1            [14] 1122 	pop	iy
    0000035B 07               [ 4] 1123 	rlca
    0000035C 9F               [ 4] 1124 	sbc	a, a
    0000035D FD E5            [15] 1125 	push	iy
    0000035F DD 77 F8         [19] 1126 	ld	-8 (ix), a
    00000362 FD E1            [14] 1127 	pop	iy
    00000364 FD 19            [15] 1128 	add	iy, de
    00000366 FD E5            [15] 1129 	push	iy
    00000368 D1               [10] 1130 	pop	de
    00000369 73               [ 7] 1131 	ld	(hl), e
    0000036A 23               [ 6] 1132 	inc	hl
    0000036B 72               [ 7] 1133 	ld	(hl), d
                                   1134 ;E:\Dropbox\FAUSTO\SVILUPPI\MSX\CODE\C\MSXgl\projects\exsoccer/exsoccer_s1_b2.c:196: if(g_Players[g_GkAnimPlayerId].Y < FIELD_BOUND_Y_TOP) g_Players[g_GkAnimPlayerId].Y = FIELD_BOUND_Y_TOP;
    0000036C ED 5Br00r00      [20] 1135 	ld	de, (_g_GkAnimPlayerId)
    00000370 16 00            [ 7] 1136 	ld	d, #0x00
    00000372 6B               [ 4] 1137 	ld	l, e
    00000373 62               [ 4] 1138 	ld	h, d
    00000374 29               [11] 1139 	add	hl, hl
    00000375 29               [11] 1140 	add	hl, hl
    00000376 19               [11] 1141 	add	hl, de
    00000377 29               [11] 1142 	add	hl, hl
    00000378 29               [11] 1143 	add	hl, hl
    00000379 19               [11] 1144 	add	hl, de
    0000037A 09               [11] 1145 	add	hl, bc
    0000037B 5E               [ 7] 1146 	ld	e, (hl)
    0000037C 23               [ 6] 1147 	inc	hl
    0000037D 56               [ 7] 1148 	ld	d, (hl)
    0000037E 2B               [ 6] 1149 	dec	hl
    0000037F 7B               [ 4] 1150 	ld	a, e
    00000380 D6 32            [ 7] 1151 	sub	a, #0x32
    00000382 7A               [ 4] 1152 	ld	a, d
    00000383 DE 00            [ 7] 1153 	sbc	a, #0x00
    00000385 30 05            [12] 1154 	jr	NC, 00108$
    00000387 36 32            [10] 1155 	ld	(hl), #0x32
    00000389 23               [ 6] 1156 	inc	hl
    0000038A 36 00            [10] 1157 	ld	(hl), #0x00
    0000038C                       1158 00108$:
                                   1159 ;E:\Dropbox\FAUSTO\SVILUPPI\MSX\CODE\C\MSXgl\projects\exsoccer/exsoccer_s1_b2.c:197: if(g_Players[g_GkAnimPlayerId].Y > FIELD_BOUND_Y_BOTTOM) g_Players[g_GkAnimPlayerId].Y = FIELD_BOUND_Y_BOTTOM;
    0000038C ED 5Br00r00      [20] 1160 	ld	de, (_g_GkAnimPlayerId)
    00000390 16 00            [ 7] 1161 	ld	d, #0x00
    00000392 6B               [ 4] 1162 	ld	l, e
    00000393 62               [ 4] 1163 	ld	h, d
    00000394 29               [11] 1164 	add	hl, hl
    00000395 29               [11] 1165 	add	hl, hl
    00000396 19               [11] 1166 	add	hl, de
    00000397 29               [11] 1167 	add	hl, hl
    00000398 29               [11] 1168 	add	hl, hl
    00000399 19               [11] 1169 	add	hl, de
    0000039A 09               [11] 1170 	add	hl, bc
    0000039B 5E               [ 7] 1171 	ld	e, (hl)
    0000039C 23               [ 6] 1172 	inc	hl
    0000039D 56               [ 7] 1173 	ld	d, (hl)
    0000039E 2B               [ 6] 1174 	dec	hl
    0000039F 3E AE            [ 7] 1175 	ld	a, #0xae
    000003A1 BB               [ 4] 1176 	cp	a, e
    000003A2 3E 01            [ 7] 1177 	ld	a, #0x01
    000003A4 9A               [ 4] 1178 	sbc	a, d
    000003A5 30 05            [12] 1179 	jr	NC, 00110$
    000003A7 36 AE            [10] 1180 	ld	(hl), #0xae
    000003A9 23               [ 6] 1181 	inc	hl
    000003AA 36 01            [10] 1182 	ld	(hl), #0x01
    000003AC                       1183 00110$:
                                   1184 ;E:\Dropbox\FAUSTO\SVILUPPI\MSX\CODE\C\MSXgl\projects\exsoccer/exsoccer_s1_b2.c:199: g_Players[g_GkAnimPlayerId].TargetY = g_Players[g_GkAnimPlayerId].Y; // Sync target
    000003AC ED 5Br00r00      [20] 1185 	ld	de, (_g_GkAnimPlayerId)
    000003B0 16 00            [ 7] 1186 	ld	d, #0x00
    000003B2 6B               [ 4] 1187 	ld	l, e
    000003B3 62               [ 4] 1188 	ld	h, d
    000003B4 29               [11] 1189 	add	hl, hl
    000003B5 29               [11] 1190 	add	hl, hl
    000003B6 19               [11] 1191 	add	hl, de
    000003B7 29               [11] 1192 	add	hl, hl
    000003B8 29               [11] 1193 	add	hl, hl
    000003B9 19               [11] 1194 	add	hl, de
    000003BA 09               [11] 1195 	add	hl, bc
    000003BB 7D               [ 4] 1196 	ld	a, l
    000003BC C6 0E            [ 7] 1197 	add	a, #0x0e
    000003BE DD 77 FE         [19] 1198 	ld	-2 (ix), a
    000003C1 7C               [ 4] 1199 	ld	a, h
    000003C2 CE 00            [ 7] 1200 	adc	a, #0x00
    000003C4 DD 77 FF         [19] 1201 	ld	-1 (ix), a
    000003C7 5E               [ 7] 1202 	ld	e, (hl)
    000003C8 23               [ 6] 1203 	inc	hl
    000003C9 56               [ 7] 1204 	ld	d, (hl)
    000003CA DD 6E FE         [19] 1205 	ld	l, -2 (ix)
    000003CD DD 66 FF         [19] 1206 	ld	h, -1 (ix)
    000003D0 73               [ 7] 1207 	ld	(hl), e
    000003D1 23               [ 6] 1208 	inc	hl
    000003D2 72               [ 7] 1209 	ld	(hl), d
    000003D3                       1210 00112$:
                                   1211 ;E:\Dropbox\FAUSTO\SVILUPPI\MSX\CODE\C\MSXgl\projects\exsoccer/exsoccer_s1_b2.c:202: if (g_Players[g_GkAnimPlayerId].TeamId == TEAM_1) g_Players[g_GkAnimPlayerId].PatternId = PLAYER_POSE_TEAM1_GK_BALL_FRONT;
    000003D3 ED 5Br00r00      [20] 1212 	ld	de, (_g_GkAnimPlayerId)
    000003D7 16 00            [ 7] 1213 	ld	d, #0x00
    000003D9 6B               [ 4] 1214 	ld	l, e
    000003DA 62               [ 4] 1215 	ld	h, d
    000003DB 29               [11] 1216 	add	hl, hl
    000003DC 29               [11] 1217 	add	hl, hl
    000003DD 19               [11] 1218 	add	hl, de
    000003DE 29               [11] 1219 	add	hl, hl
    000003DF 29               [11] 1220 	add	hl, hl
    000003E0 19               [11] 1221 	add	hl, de
    000003E1 09               [11] 1222 	add	hl, bc
    000003E2 EB               [ 4] 1223 	ex	de, hl
    000003E3 D5               [11] 1224 	push	de
    000003E4 FD E1            [14] 1225 	pop	iy
    000003E6 FD 4E 09         [19] 1226 	ld	c, 9 (iy)
    000003E9 21 08 00         [10] 1227 	ld	hl, #0x0008
    000003EC 19               [11] 1228 	add	hl, de
    000003ED 0D               [ 4] 1229 	dec	c
    000003EE 20 05            [12] 1230 	jr	NZ, 00116$
    000003F0 36 9E            [10] 1231 	ld	(hl), #0x9e
    000003F2 C3rF7r03         [10] 1232 	jp	00117$
    000003F5                       1233 00116$:
                                   1234 ;E:\Dropbox\FAUSTO\SVILUPPI\MSX\CODE\C\MSXgl\projects\exsoccer/exsoccer_s1_b2.c:203: else g_Players[g_GkAnimPlayerId].PatternId = PLAYER_POSE_FRONT; // Team 2 GK plays like a player (feet)
    000003F5 36 10            [10] 1235 	ld	(hl), #0x10
    000003F7                       1236 00117$:
                                   1237 ;E:\Dropbox\FAUSTO\SVILUPPI\MSX\CODE\C\MSXgl\projects\exsoccer/exsoccer_s1_b2.c:205: PutBallOnPlayerFeet(g_GkAnimPlayerId);
    000003F7 3Ar00r00         [13] 1238 	ld	a, (_g_GkAnimPlayerId+0)
    000003FA CDr00r00         [17] 1239 	call	_PutBallOnPlayerFeet
    000003FD C3rC8r06         [10] 1240 	jp	00160$
    00000400                       1241 00158$:
                                   1242 ;E:\Dropbox\FAUSTO\SVILUPPI\MSX\CODE\C\MSXgl\projects\exsoccer/exsoccer_s1_b2.c:207: } else if (g_GkAnimTimer >= kickTime) {
    00000400 CB 47            [ 8] 1243 	bit	0,a
    00000402 C2rC8r06         [10] 1244 	jp	NZ, 00160$
                                   1245 ;E:\Dropbox\FAUSTO\SVILUPPI\MSX\CODE\C\MSXgl\projects\exsoccer/exsoccer_s1_b2.c:210: bool safeToKick = false;
    00000405 DD 36 F9 00      [19] 1246 	ld	-7 (ix), #0x00
                                   1247 ;E:\Dropbox\FAUSTO\SVILUPPI\MSX\CODE\C\MSXgl\projects\exsoccer/exsoccer_s1_b2.c:213: if (g_GkAnimTimer > (kickTime + 120)) safeToKick = true;
    00000409 16 00            [ 7] 1248 	ld	d, #0x00
    0000040B 21 78 00         [10] 1249 	ld	hl, #0x0078
    0000040E 19               [11] 1250 	add	hl, de
    0000040F 3Ar00r00         [13] 1251 	ld	a, (_g_GkAnimTimer+0)
    00000412 5F               [ 4] 1252 	ld	e, a
    00000413 16 00            [ 7] 1253 	ld	d, #0x00
    00000415 7D               [ 4] 1254 	ld	a, l
    00000416 93               [ 4] 1255 	sub	a, e
    00000417 7C               [ 4] 1256 	ld	a, h
    00000418 9A               [ 4] 1257 	sbc	a, d
    00000419 E2r1Er04         [10] 1258 	jp	PO, 00311$
    0000041C EE 80            [ 7] 1259 	xor	a, #0x80
    0000041E                       1260 00311$:
    0000041E F2r25r04         [10] 1261 	jp	P, 00119$
    00000421 DD 36 F9 01      [19] 1262 	ld	-7 (ix), #0x01
    00000425                       1263 00119$:
                                   1264 ;E:\Dropbox\FAUSTO\SVILUPPI\MSX\CODE\C\MSXgl\projects\exsoccer/exsoccer_s1_b2.c:216: u8 targetId = GetBestPassTarget(g_GkAnimPlayerId); 
    00000425 C5               [11] 1265 	push	bc
    00000426 3Ar00r00         [13] 1266 	ld	a, (_g_GkAnimPlayerId+0)
    00000429 CDrCDr06         [17] 1267 	call	_GetBestPassTarget
    0000042C C1               [10] 1268 	pop	bc
    0000042D 5F               [ 4] 1269 	ld	e, a
                                   1270 ;E:\Dropbox\FAUSTO\SVILUPPI\MSX\CODE\C\MSXgl\projects\exsoccer/exsoccer_s1_b2.c:217: if (!safeToKick && targetId != NO_VALUE) {
    0000042E DD 7E F9         [19] 1271 	ld	a, -7 (ix)
    00000431 B7               [ 4] 1272 	or	a, a
    00000432 C2r00r05         [10] 1273 	jp	NZ, 00123$
    00000435 7B               [ 4] 1274 	ld	a, e
    00000436 3C               [ 4] 1275 	inc	a
    00000437 CAr00r05         [10] 1276 	jp	Z,00123$
                                   1277 ;E:\Dropbox\FAUSTO\SVILUPPI\MSX\CODE\C\MSXgl\projects\exsoccer/exsoccer_s1_b2.c:218: u16 dist = (u16)(Math_Abs32((i16)g_Players[targetId].X - (i16)g_Players[g_GkAnimPlayerId].X) + 
    0000043A D5               [11] 1278 	push	de
    0000043B 16 00            [ 7] 1279 	ld	d, #0x00
    0000043D 6B               [ 4] 1280 	ld	l, e
    0000043E 62               [ 4] 1281 	ld	h, d
    0000043F 29               [11] 1282 	add	hl, hl
    00000440 29               [11] 1283 	add	hl, hl
    00000441 19               [11] 1284 	add	hl, de
    00000442 29               [11] 1285 	add	hl, hl
    00000443 29               [11] 1286 	add	hl, hl
    00000444 19               [11] 1287 	add	hl, de
    00000445 D1               [10] 1288 	pop	de
    00000446 09               [11] 1289 	add	hl, bc
                                   1290 ;	spillPairReg hl
                                   1291 ;	spillPairReg hl
    00000447 DD 75 FE         [19] 1292 	ld	-2 (ix), l
    0000044A DD 74 FF         [19] 1293 	ld	-1 (ix), h
                                   1294 ;	spillPairReg hl
                                   1295 ;	spillPairReg hl
    0000044D 23               [ 6] 1296 	inc	hl
    0000044E 23               [ 6] 1297 	inc	hl
    0000044F 56               [ 7] 1298 	ld	d, (hl)
    00000450 23               [ 6] 1299 	inc	hl
    00000451 7E               [ 7] 1300 	ld	a, (hl)
    00000452 DD 72 FC         [19] 1301 	ld	-4 (ix), d
    00000455 DD 77 FD         [19] 1302 	ld	-3 (ix), a
    00000458 D5               [11] 1303 	push	de
    00000459 ED 5Br00r00      [20] 1304 	ld	de, (_g_GkAnimPlayerId)
    0000045D 16 00            [ 7] 1305 	ld	d, #0x00
    0000045F 6B               [ 4] 1306 	ld	l, e
    00000460 62               [ 4] 1307 	ld	h, d
    00000461 29               [11] 1308 	add	hl, hl
    00000462 29               [11] 1309 	add	hl, hl
    00000463 19               [11] 1310 	add	hl, de
    00000464 29               [11] 1311 	add	hl, hl
    00000465 29               [11] 1312 	add	hl, hl
    00000466 19               [11] 1313 	add	hl, de
    00000467 D1               [10] 1314 	pop	de
    00000468 09               [11] 1315 	add	hl, bc
    00000469 23               [ 6] 1316 	inc	hl
    0000046A 23               [ 6] 1317 	inc	hl
    0000046B 56               [ 7] 1318 	ld	d, (hl)
    0000046C 23               [ 6] 1319 	inc	hl
    0000046D 66               [ 7] 1320 	ld	h, (hl)
                                   1321 ;	spillPairReg hl
    0000046E 6A               [ 4] 1322 	ld	l, d
                                   1323 ;	spillPairReg hl
                                   1324 ;	spillPairReg hl
    0000046F DD 7E FC         [19] 1325 	ld	a, -4 (ix)
    00000472 95               [ 4] 1326 	sub	a, l
    00000473 6F               [ 4] 1327 	ld	l, a
                                   1328 ;	spillPairReg hl
                                   1329 ;	spillPairReg hl
    00000474 DD 7E FD         [19] 1330 	ld	a, -3 (ix)
    00000477 9C               [ 4] 1331 	sbc	a, h
    00000478 67               [ 4] 1332 	ld	h, a
                                   1333 ;	spillPairReg hl
                                   1334 ;	spillPairReg hl
    00000479 07               [ 4] 1335 	rlca
    0000047A 9F               [ 4] 1336 	sbc	a, a
    0000047B FD E5            [15] 1337 	push	iy
    0000047D DD 77 F7         [19] 1338 	ld	-9 (ix), a
    00000480 FD E1            [14] 1339 	pop	iy
    00000482 57               [ 4] 1340 	ld	d, a
    00000483 C5               [11] 1341 	push	bc
    00000484 EB               [ 4] 1342 	ex	de, hl
    00000485 E5               [11] 1343 	push	hl
    00000486 FD E5            [15] 1344 	push	iy
    00000488 DD 6E F3         [19] 1345 	ld	l, -13 (ix)
                                   1346 ;	spillPairReg hl
    0000048B FD E1            [14] 1347 	pop	iy
    0000048D CDr00r00         [17] 1348 	call	_Math_Abs32
    00000490 DD 73 FA         [19] 1349 	ld	-6 (ix), e
    00000493 DD 72 FB         [19] 1350 	ld	-5 (ix), d
    00000496 DD 75 FC         [19] 1351 	ld	-4 (ix), l
    00000499 DD 74 FD         [19] 1352 	ld	-3 (ix), h
    0000049C D1               [10] 1353 	pop	de
    0000049D C1               [10] 1354 	pop	bc
    0000049E DD 6E FE         [19] 1355 	ld	l, -2 (ix)
    000004A1 DD 66 FF         [19] 1356 	ld	h, -1 (ix)
    000004A4 56               [ 7] 1357 	ld	d, (hl)
    000004A5 23               [ 6] 1358 	inc	hl
    000004A6 7E               [ 7] 1359 	ld	a, (hl)
    000004A7 DD 72 FE         [19] 1360 	ld	-2 (ix), d
    000004AA DD 77 FF         [19] 1361 	ld	-1 (ix), a
    000004AD D5               [11] 1362 	push	de
    000004AE ED 5Br00r00      [20] 1363 	ld	de, (_g_GkAnimPlayerId)
    000004B2 16 00            [ 7] 1364 	ld	d, #0x00
    000004B4 6B               [ 4] 1365 	ld	l, e
    000004B5 62               [ 4] 1366 	ld	h, d
    000004B6 29               [11] 1367 	add	hl, hl
    000004B7 29               [11] 1368 	add	hl, hl
    000004B8 19               [11] 1369 	add	hl, de
    000004B9 29               [11] 1370 	add	hl, hl
    000004BA 29               [11] 1371 	add	hl, hl
    000004BB 19               [11] 1372 	add	hl, de
    000004BC D1               [10] 1373 	pop	de
    000004BD 09               [11] 1374 	add	hl, bc
    000004BE 7E               [ 7] 1375 	ld	a, (hl)
    000004BF 23               [ 6] 1376 	inc	hl
    000004C0 66               [ 7] 1377 	ld	h, (hl)
                                   1378 ;	spillPairReg hl
    000004C1 6F               [ 4] 1379 	ld	l, a
                                   1380 ;	spillPairReg hl
                                   1381 ;	spillPairReg hl
    000004C2 DD 7E FE         [19] 1382 	ld	a, -2 (ix)
    000004C5 95               [ 4] 1383 	sub	a, l
    000004C6 6F               [ 4] 1384 	ld	l, a
                                   1385 ;	spillPairReg hl
                                   1386 ;	spillPairReg hl
    000004C7 DD 7E FF         [19] 1387 	ld	a, -1 (ix)
    000004CA 9C               [ 4] 1388 	sbc	a, h
    000004CB 67               [ 4] 1389 	ld	h, a
                                   1390 ;	spillPairReg hl
                                   1391 ;	spillPairReg hl
    000004CC 07               [ 4] 1392 	rlca
    000004CD 9F               [ 4] 1393 	sbc	a, a
    000004CE FD E5            [15] 1394 	push	iy
    000004D0 DD 77 F7         [19] 1395 	ld	-9 (ix), a
    000004D3 FD E1            [14] 1396 	pop	iy
    000004D5 57               [ 4] 1397 	ld	d, a
    000004D6 C5               [11] 1398 	push	bc
    000004D7 EB               [ 4] 1399 	ex	de, hl
    000004D8 E5               [11] 1400 	push	hl
    000004D9 FD E5            [15] 1401 	push	iy
    000004DB DD 6E F3         [19] 1402 	ld	l, -13 (ix)
                                   1403 ;	spillPairReg hl
    000004DE FD E1            [14] 1404 	pop	iy
    000004E0 CDr00r00         [17] 1405 	call	_Math_Abs32
    000004E3 E5               [11] 1406 	push	hl
    000004E4 FD E1            [14] 1407 	pop	iy
    000004E6 EB               [ 4] 1408 	ex	de, hl
    000004E7 D1               [10] 1409 	pop	de
    000004E8 C1               [10] 1410 	pop	bc
    000004E9 DD 7E FA         [19] 1411 	ld	a, -6 (ix)
    000004EC DD 56 FB         [19] 1412 	ld	d, -5 (ix)
    000004EF 85               [ 4] 1413 	add	a, l
    000004F0 6F               [ 4] 1414 	ld	l, a
                                   1415 ;	spillPairReg hl
                                   1416 ;	spillPairReg hl
    000004F1 7A               [ 4] 1417 	ld	a, d
    000004F2 8C               [ 4] 1418 	adc	a, h
                                   1419 ;E:\Dropbox\FAUSTO\SVILUPPI\MSX\CODE\C\MSXgl\projects\exsoccer/exsoccer_s1_b2.c:220: if (dist > 60) safeToKick = true;
    000004F3 57               [ 4] 1420 	ld	d, a
    000004F4 3E 3C            [ 7] 1421 	ld	a, #0x3c
    000004F6 BD               [ 4] 1422 	cp	a, l
    000004F7 3E 00            [ 7] 1423 	ld	a, #0x00
    000004F9 9A               [ 4] 1424 	sbc	a, d
    000004FA 30 04            [12] 1425 	jr	NC, 00123$
    000004FC DD 36 F9 01      [19] 1426 	ld	-7 (ix), #0x01
    00000500                       1427 00123$:
                                   1428 ;E:\Dropbox\FAUSTO\SVILUPPI\MSX\CODE\C\MSXgl\projects\exsoccer/exsoccer_s1_b2.c:224: if (!safeToKick) {
    00000500 DD 7E F9         [19] 1429 	ld	a, -7 (ix)
    00000503 B7               [ 4] 1430 	or	a, a
    00000504 C2rD6r05         [10] 1431 	jp	NZ, 00130$
                                   1432 ;E:\Dropbox\FAUSTO\SVILUPPI\MSX\CODE\C\MSXgl\projects\exsoccer/exsoccer_s1_b2.c:225: u8 closestOpp = GetClosestPlayerToBall((g_Players[g_GkAnimPlayerId].TeamId == TEAM_1) ? TEAM_2 : TEAM_1, NO_VALUE);
    00000507 D5               [11] 1433 	push	de
    00000508 ED 5Br00r00      [20] 1434 	ld	de, (_g_GkAnimPlayerId)
    0000050C 16 00            [ 7] 1435 	ld	d, #0x00
    0000050E 6B               [ 4] 1436 	ld	l, e
    0000050F 62               [ 4] 1437 	ld	h, d
    00000510 29               [11] 1438 	add	hl, hl
    00000511 29               [11] 1439 	add	hl, hl
    00000512 19               [11] 1440 	add	hl, de
    00000513 29               [11] 1441 	add	hl, hl
    00000514 29               [11] 1442 	add	hl, hl
    00000515 19               [11] 1443 	add	hl, de
    00000516 D1               [10] 1444 	pop	de
    00000517 09               [11] 1445 	add	hl, bc
    00000518 C5               [11] 1446 	push	bc
    00000519 01 09 00         [10] 1447 	ld	bc, #0x0009
    0000051C 09               [11] 1448 	add	hl, bc
    0000051D C1               [10] 1449 	pop	bc
    0000051E 7E               [ 7] 1450 	ld	a, (hl)
    0000051F 3D               [ 4] 1451 	dec	a
    00000520 20 06            [12] 1452 	jr	NZ, 00162$
    00000522 21 02 00         [10] 1453 	ld	hl, #0x0002
    00000525 C3r2Br05         [10] 1454 	jp	00163$
    00000528                       1455 00162$:
    00000528 21 01 00         [10] 1456 	ld	hl, #0x0001
    0000052B                       1457 00163$:
    0000052B 55               [ 4] 1458 	ld	d, l
    0000052C C5               [11] 1459 	push	bc
    0000052D D5               [11] 1460 	push	de
    0000052E 2E FF            [ 7] 1461 	ld	l, #0xff
                                   1462 ;	spillPairReg hl
                                   1463 ;	spillPairReg hl
    00000530 7A               [ 4] 1464 	ld	a, d
    00000531 CDr00r00         [17] 1465 	call	_GetClosestPlayerToBall
    00000534 D1               [10] 1466 	pop	de
    00000535 C1               [10] 1467 	pop	bc
                                   1468 ;E:\Dropbox\FAUSTO\SVILUPPI\MSX\CODE\C\MSXgl\projects\exsoccer/exsoccer_s1_b2.c:226: if (closestOpp != NO_VALUE) {
    00000536 FE FF            [ 7] 1469 	cp	a, #0xff
    00000538 CArD6r05         [10] 1470 	jp	Z,00130$
                                   1471 ;E:\Dropbox\FAUSTO\SVILUPPI\MSX\CODE\C\MSXgl\projects\exsoccer/exsoccer_s1_b2.c:230: u16 edist = (u16)(Math_Abs32((i16)g_Players[closestOpp].X - (i16)g_Ball.X) + 
    0000053B D5               [11] 1472 	push	de
    0000053C 5F               [ 4] 1473 	ld	e, a
    0000053D 16 00            [ 7] 1474 	ld	d, #0x00
    0000053F 6B               [ 4] 1475 	ld	l, e
    00000540 62               [ 4] 1476 	ld	h, d
    00000541 29               [11] 1477 	add	hl, hl
    00000542 29               [11] 1478 	add	hl, hl
    00000543 19               [11] 1479 	add	hl, de
    00000544 29               [11] 1480 	add	hl, hl
    00000545 29               [11] 1481 	add	hl, hl
    00000546 19               [11] 1482 	add	hl, de
    00000547 D1               [10] 1483 	pop	de
    00000548 09               [11] 1484 	add	hl, bc
                                   1485 ;	spillPairReg hl
                                   1486 ;	spillPairReg hl
    00000549 DD 75 FE         [19] 1487 	ld	-2 (ix), l
    0000054C DD 74 FF         [19] 1488 	ld	-1 (ix), h
                                   1489 ;	spillPairReg hl
                                   1490 ;	spillPairReg hl
    0000054F 23               [ 6] 1491 	inc	hl
    00000550 23               [ 6] 1492 	inc	hl
    00000551 56               [ 7] 1493 	ld	d, (hl)
    00000552 23               [ 6] 1494 	inc	hl
    00000553 7E               [ 7] 1495 	ld	a, (hl)
    00000554 DD 72 FC         [19] 1496 	ld	-4 (ix), d
    00000557 DD 77 FD         [19] 1497 	ld	-3 (ix), a
    0000055A 2Ar02r00         [16] 1498 	ld	hl, (#_g_Ball + 2)
    0000055D DD 7E FC         [19] 1499 	ld	a, -4 (ix)
    00000560 95               [ 4] 1500 	sub	a, l
    00000561 57               [ 4] 1501 	ld	d, a
    00000562 DD 7E FD         [19] 1502 	ld	a, -3 (ix)
    00000565 9C               [ 4] 1503 	sbc	a, h
    00000566 FD E5            [15] 1504 	push	iy
    00000568 DD 72 F7         [19] 1505 	ld	-9 (ix), d
    0000056B DD 77 F8         [19] 1506 	ld	-8 (ix), a
    0000056E FD E1            [14] 1507 	pop	iy
    00000570 07               [ 4] 1508 	rlca
    00000571 ED 62            [15] 1509 	sbc	hl, hl
    00000573 C5               [11] 1510 	push	bc
    00000574 D5               [11] 1511 	push	de
    00000575 FD E5            [15] 1512 	push	iy
    00000577 D1               [10] 1513 	pop	de
    00000578 CDr00r00         [17] 1514 	call	_Math_Abs32
    0000057B DD 73 FA         [19] 1515 	ld	-6 (ix), e
    0000057E DD 72 FB         [19] 1516 	ld	-5 (ix), d
    00000581 DD 75 FC         [19] 1517 	ld	-4 (ix), l
    00000584 DD 74 FD         [19] 1518 	ld	-3 (ix), h
    00000587 D1               [10] 1519 	pop	de
    00000588 C1               [10] 1520 	pop	bc
    00000589 DD 6E FE         [19] 1521 	ld	l, -2 (ix)
    0000058C DD 66 FF         [19] 1522 	ld	h, -1 (ix)
    0000058F 56               [ 7] 1523 	ld	d, (hl)
    00000590 23               [ 6] 1524 	inc	hl
    00000591 7E               [ 7] 1525 	ld	a, (hl)
    00000592 DD 72 FE         [19] 1526 	ld	-2 (ix), d
    00000595 DD 77 FF         [19] 1527 	ld	-1 (ix), a
    00000598 2Ar00r00         [16] 1528 	ld	hl, (#_g_Ball + 0)
    0000059B DD 7E FE         [19] 1529 	ld	a, -2 (ix)
    0000059E 95               [ 4] 1530 	sub	a, l
    0000059F 57               [ 4] 1531 	ld	d, a
    000005A0 DD 7E FF         [19] 1532 	ld	a, -1 (ix)
    000005A3 9C               [ 4] 1533 	sbc	a, h
    000005A4 FD E5            [15] 1534 	push	iy
    000005A6 DD 72 F7         [19] 1535 	ld	-9 (ix), d
    000005A9 DD 77 F8         [19] 1536 	ld	-8 (ix), a
    000005AC FD E1            [14] 1537 	pop	iy
    000005AE 07               [ 4] 1538 	rlca
    000005AF ED 62            [15] 1539 	sbc	hl, hl
    000005B1 C5               [11] 1540 	push	bc
    000005B2 D5               [11] 1541 	push	de
    000005B3 FD E5            [15] 1542 	push	iy
    000005B5 D1               [10] 1543 	pop	de
    000005B6 CDr00r00         [17] 1544 	call	_Math_Abs32
    000005B9 E5               [11] 1545 	push	hl
    000005BA FD E1            [14] 1546 	pop	iy
    000005BC EB               [ 4] 1547 	ex	de, hl
    000005BD D1               [10] 1548 	pop	de
    000005BE C1               [10] 1549 	pop	bc
    000005BF DD 7E FA         [19] 1550 	ld	a, -6 (ix)
    000005C2 DD 56 FB         [19] 1551 	ld	d, -5 (ix)
    000005C5 85               [ 4] 1552 	add	a, l
    000005C6 6F               [ 4] 1553 	ld	l, a
                                   1554 ;	spillPairReg hl
                                   1555 ;	spillPairReg hl
    000005C7 7A               [ 4] 1556 	ld	a, d
    000005C8 8C               [ 4] 1557 	adc	a, h
    000005C9 67               [ 4] 1558 	ld	h, a
                                   1559 ;	spillPairReg hl
                                   1560 ;	spillPairReg hl
                                   1561 ;E:\Dropbox\FAUSTO\SVILUPPI\MSX\CODE\C\MSXgl\projects\exsoccer/exsoccer_s1_b2.c:232: if (edist < 40) safeToKick = true;
    000005CA 7D               [ 4] 1562 	ld	a, l
    000005CB D6 28            [ 7] 1563 	sub	a, #0x28
    000005CD 7C               [ 4] 1564 	ld	a, h
    000005CE DE 00            [ 7] 1565 	sbc	a, #0x00
    000005D0 30 04            [12] 1566 	jr	NC, 00130$
    000005D2 DD 36 F9 01      [19] 1567 	ld	-7 (ix), #0x01
    000005D6                       1568 00130$:
                                   1569 ;E:\Dropbox\FAUSTO\SVILUPPI\MSX\CODE\C\MSXgl\projects\exsoccer/exsoccer_s1_b2.c:236: if (safeToKick) {
    000005D6 DD 7E F9         [19] 1570 	ld	a, -7 (ix)
    000005D9 B7               [ 4] 1571 	or	a, a
    000005DA CArC8r06         [10] 1572 	jp	Z, 00160$
                                   1573 ;E:\Dropbox\FAUSTO\SVILUPPI\MSX\CODE\C\MSXgl\projects\exsoccer/exsoccer_s1_b2.c:238: if (targetId != NO_VALUE) {
    000005DD 7B               [ 4] 1574 	ld	a, e
    000005DE 3C               [ 4] 1575 	inc	a
    000005DF 28 70            [12] 1576 	jr	Z, 00151$
                                   1577 ;E:\Dropbox\FAUSTO\SVILUPPI\MSX\CODE\C\MSXgl\projects\exsoccer/exsoccer_s1_b2.c:239: PerformPass(targetId);
    000005E1 C5               [11] 1578 	push	bc
    000005E2 7B               [ 4] 1579 	ld	a, e
    000005E3 CDr00r00         [17] 1580 	call	_PerformPass
    000005E6 C1               [10] 1581 	pop	bc
                                   1582 ;E:\Dropbox\FAUSTO\SVILUPPI\MSX\CODE\C\MSXgl\projects\exsoccer/exsoccer_s1_b2.c:242: u8 dir = g_Players[g_GkAnimPlayerId].Direction;
    000005E7 ED 5Br00r00      [20] 1583 	ld	de, (_g_GkAnimPlayerId)
    000005EB 16 00            [ 7] 1584 	ld	d, #0x00
    000005ED 6B               [ 4] 1585 	ld	l, e
    000005EE 62               [ 4] 1586 	ld	h, d
    000005EF 29               [11] 1587 	add	hl, hl
    000005F0 29               [11] 1588 	add	hl, hl
    000005F1 19               [11] 1589 	add	hl, de
    000005F2 29               [11] 1590 	add	hl, hl
    000005F3 29               [11] 1591 	add	hl, hl
    000005F4 19               [11] 1592 	add	hl, de
    000005F5 09               [11] 1593 	add	hl, bc
                                   1594 ;	spillPairReg hl
                                   1595 ;	spillPairReg hl
    000005F6 5D               [ 4] 1596 	ld	e, l
    000005F7 54               [ 4] 1597 	ld	d, h
                                   1598 ;	spillPairReg hl
                                   1599 ;	spillPairReg hl
    000005F8 C5               [11] 1600 	push	bc
    000005F9 01 0A 00         [10] 1601 	ld	bc, #0x000a
    000005FC 09               [11] 1602 	add	hl, bc
    000005FD C1               [10] 1603 	pop	bc
    000005FE 7E               [ 7] 1604 	ld	a, (hl)
                                   1605 ;E:\Dropbox\FAUSTO\SVILUPPI\MSX\CODE\C\MSXgl\projects\exsoccer/exsoccer_s1_b2.c:246: if (dir == DIRECTION_RIGHT || dir == DIRECTION_UP_RIGHT || dir == DIRECTION_DOWN_RIGHT) 
    000005FF FE 03            [ 7] 1606 	cp	a, #0x03
    00000601 28 08            [12] 1607 	jr	Z, 00136$
    00000603 FE 02            [ 7] 1608 	cp	a, #0x02
    00000605 28 04            [12] 1609 	jr	Z, 00136$
    00000607 FE 04            [ 7] 1610 	cp	a, #0x04
    00000609 20 07            [12] 1611 	jr	NZ, 00137$
    0000060B                       1612 00136$:
                                   1613 ;E:\Dropbox\FAUSTO\SVILUPPI\MSX\CODE\C\MSXgl\projects\exsoccer/exsoccer_s1_b2.c:247: pose = (team == TEAM_1) ? PLAYER_POSE_TEAM1_RESTART_RIGHT : PLAYER_POSE_TEAM2_RESTART_RIGHT;
    0000060B DD 36 FF CB      [19] 1614 	ld	-1 (ix), #0xcb
    0000060F C3r29r06         [10] 1615 	jp	00138$
    00000612                       1616 00137$:
                                   1617 ;E:\Dropbox\FAUSTO\SVILUPPI\MSX\CODE\C\MSXgl\projects\exsoccer/exsoccer_s1_b2.c:248: else if (dir == DIRECTION_LEFT || dir == DIRECTION_UP_LEFT || dir == DIRECTION_DOWN_LEFT)
    00000612 FE 07            [ 7] 1618 	cp	a, #0x07
    00000614 28 08            [12] 1619 	jr	Z, 00131$
    00000616 FE 08            [ 7] 1620 	cp	a, #0x08
    00000618 28 04            [12] 1621 	jr	Z, 00131$
    0000061A D6 06            [ 7] 1622 	sub	a, #0x06
    0000061C 20 07            [12] 1623 	jr	NZ, 00132$
    0000061E                       1624 00131$:
                                   1625 ;E:\Dropbox\FAUSTO\SVILUPPI\MSX\CODE\C\MSXgl\projects\exsoccer/exsoccer_s1_b2.c:249: pose = (team == TEAM_1) ? PLAYER_POSE_TEAM1_RESTART_LEFT : PLAYER_POSE_TEAM2_RESTART_LEFT;
    0000061E DD 36 FF 44      [19] 1626 	ld	-1 (ix), #0x44
    00000622 C3r29r06         [10] 1627 	jp	00138$
    00000625                       1628 00132$:
                                   1629 ;E:\Dropbox\FAUSTO\SVILUPPI\MSX\CODE\C\MSXgl\projects\exsoccer/exsoccer_s1_b2.c:251: pose = (team == TEAM_1) ? PLAYER_POSE_TEAM1_RESTART_FRONT : PLAYER_POSE_TEAM2_RESTART_FRONT;
    00000625 DD 36 FF 45      [19] 1630 	ld	-1 (ix), #0x45
    00000629                       1631 00138$:
                                   1632 ;E:\Dropbox\FAUSTO\SVILUPPI\MSX\CODE\C\MSXgl\projects\exsoccer/exsoccer_s1_b2.c:253: g_Players[g_GkAnimPlayerId].PatternId = pose;
    00000629 21 08 00         [10] 1633 	ld	hl, #0x0008
    0000062C 19               [11] 1634 	add	hl, de
    0000062D DD 7E FF         [19] 1635 	ld	a, -1 (ix)
    00000630 77               [ 7] 1636 	ld	(hl), a
                                   1637 ;E:\Dropbox\FAUSTO\SVILUPPI\MSX\CODE\C\MSXgl\projects\exsoccer/exsoccer_s1_b2.c:255: g_Players[g_GkAnimPlayerId].Status = PLAYER_STATUS_POSITIONED;
    00000631 ED 5Br00r00      [20] 1638 	ld	de, (_g_GkAnimPlayerId)
    00000635 16 00            [ 7] 1639 	ld	d, #0x00
    00000637 6B               [ 4] 1640 	ld	l, e
    00000638 62               [ 4] 1641 	ld	h, d
    00000639 29               [11] 1642 	add	hl, hl
    0000063A 29               [11] 1643 	add	hl, hl
    0000063B 19               [11] 1644 	add	hl, de
    0000063C 29               [11] 1645 	add	hl, hl
    0000063D 29               [11] 1646 	add	hl, hl
    0000063E 19               [11] 1647 	add	hl, de
    0000063F 09               [11] 1648 	add	hl, bc
    00000640 01 12 00         [10] 1649 	ld	bc, #0x0012
    00000643 09               [11] 1650 	add	hl, bc
    00000644 36 04            [10] 1651 	ld	(hl), #0x04
    00000646 23               [ 6] 1652 	inc	hl
    00000647 36 00            [10] 1653 	ld	(hl), #0x00
                                   1654 ;E:\Dropbox\FAUSTO\SVILUPPI\MSX\CODE\C\MSXgl\projects\exsoccer/exsoccer_s1_b2.c:258: g_MatchStatus = MATCH_IN_ACTION;
    00000649 21r00r00         [10] 1655 	ld	hl, #_g_MatchStatus
    0000064C 36 0C            [10] 1656 	ld	(hl), #0x0c
    0000064E C3rC8r06         [10] 1657 	jp	00160$
    00000651                       1658 00151$:
                                   1659 ;E:\Dropbox\FAUSTO\SVILUPPI\MSX\CODE\C\MSXgl\projects\exsoccer/exsoccer_s1_b2.c:262: u8 team = g_Players[g_GkAnimPlayerId].TeamId;
    00000651 ED 5Br00r00      [20] 1660 	ld	de, (_g_GkAnimPlayerId)
    00000655 16 00            [ 7] 1661 	ld	d, #0x00
    00000657 6B               [ 4] 1662 	ld	l, e
    00000658 62               [ 4] 1663 	ld	h, d
    00000659 29               [11] 1664 	add	hl, hl
    0000065A 29               [11] 1665 	add	hl, hl
    0000065B 19               [11] 1666 	add	hl, de
    0000065C 29               [11] 1667 	add	hl, hl
    0000065D 29               [11] 1668 	add	hl, hl
    0000065E 19               [11] 1669 	add	hl, de
    0000065F 09               [11] 1670 	add	hl, bc
                                   1671 ;	spillPairReg hl
                                   1672 ;	spillPairReg hl
    00000660 5D               [ 4] 1673 	ld	e, l
    00000661 54               [ 4] 1674 	ld	d, h
                                   1675 ;	spillPairReg hl
                                   1676 ;	spillPairReg hl
    00000662 C5               [11] 1677 	push	bc
    00000663 01 09 00         [10] 1678 	ld	bc, #0x0009
    00000666 09               [11] 1679 	add	hl, bc
    00000667 C1               [10] 1680 	pop	bc
    00000668 7E               [ 7] 1681 	ld	a, (hl)
    00000669 DD 77 FF         [19] 1682 	ld	-1 (ix), a
                                   1683 ;E:\Dropbox\FAUSTO\SVILUPPI\MSX\CODE\C\MSXgl\projects\exsoccer/exsoccer_s1_b2.c:264: g_Players[g_GkAnimPlayerId].PatternId = pose;
    0000066C 21 08 00         [10] 1684 	ld	hl, #0x0008
    0000066F 19               [11] 1685 	add	hl, de
    00000670 36 45            [10] 1686 	ld	(hl), #0x45
                                   1687 ;E:\Dropbox\FAUSTO\SVILUPPI\MSX\CODE\C\MSXgl\projects\exsoccer/exsoccer_s1_b2.c:267: u16 tx = g_Players[g_GkAnimPlayerId].X;
    00000672 ED 5Br00r00      [20] 1688 	ld	de, (_g_GkAnimPlayerId)
    00000676 16 00            [ 7] 1689 	ld	d, #0x00
    00000678 6B               [ 4] 1690 	ld	l, e
    00000679 62               [ 4] 1691 	ld	h, d
    0000067A 29               [11] 1692 	add	hl, hl
    0000067B 29               [11] 1693 	add	hl, hl
    0000067C 19               [11] 1694 	add	hl, de
    0000067D 29               [11] 1695 	add	hl, hl
    0000067E 29               [11] 1696 	add	hl, hl
    0000067F 19               [11] 1697 	add	hl, de
    00000680 09               [11] 1698 	add	hl, bc
                                   1699 ;	spillPairReg hl
                                   1700 ;	spillPairReg hl
    00000681 5D               [ 4] 1701 	ld	e, l
    00000682 54               [ 4] 1702 	ld	d, h
                                   1703 ;	spillPairReg hl
                                   1704 ;	spillPairReg hl
    00000683 23               [ 6] 1705 	inc	hl
    00000684 23               [ 6] 1706 	inc	hl
    00000685 4E               [ 7] 1707 	ld	c, (hl)
    00000686 23               [ 6] 1708 	inc	hl
    00000687 46               [ 7] 1709 	ld	b, (hl)
                                   1710 ;E:\Dropbox\FAUSTO\SVILUPPI\MSX\CODE\C\MSXgl\projects\exsoccer/exsoccer_s1_b2.c:270: if (g_Players[g_GkAnimPlayerId].Y > (FIELD_BOUND_Y_TOP + 100)) ty = g_Players[g_GkAnimPlayerId].Y - 100;
    00000688 EB               [ 4] 1711 	ex	de,hl
    00000689 5E               [ 7] 1712 	ld	e, (hl)
    0000068A 23               [ 6] 1713 	inc	hl
    0000068B 56               [ 7] 1714 	ld	d, (hl)
                                   1715 ;E:\Dropbox\FAUSTO\SVILUPPI\MSX\CODE\C\MSXgl\projects\exsoccer/exsoccer_s1_b2.c:269: if (team == TEAM_1) { // Shooting UP
    0000068C DD 7E FF         [19] 1716 	ld	a, -1 (ix)
    0000068F 3D               [ 4] 1717 	dec	a
    00000690 20 19            [12] 1718 	jr	NZ, 00148$
                                   1719 ;E:\Dropbox\FAUSTO\SVILUPPI\MSX\CODE\C\MSXgl\projects\exsoccer/exsoccer_s1_b2.c:270: if (g_Players[g_GkAnimPlayerId].Y > (FIELD_BOUND_Y_TOP + 100)) ty = g_Players[g_GkAnimPlayerId].Y - 100;
    00000692 3E 96            [ 7] 1720 	ld	a, #0x96
    00000694 BB               [ 4] 1721 	cp	a, e
    00000695 3E 00            [ 7] 1722 	ld	a, #0x00
    00000697 9A               [ 4] 1723 	sbc	a, d
    00000698 30 0B            [12] 1724 	jr	NC, 00142$
    0000069A 7B               [ 4] 1725 	ld	a, e
    0000069B C6 9C            [ 7] 1726 	add	a, #0x9c
    0000069D 5F               [ 4] 1727 	ld	e, a
    0000069E 7A               [ 4] 1728 	ld	a, d
    0000069F CE FF            [ 7] 1729 	adc	a, #0xff
    000006A1 57               [ 4] 1730 	ld	d, a
    000006A2 C3rBEr06         [10] 1731 	jp	00149$
    000006A5                       1732 00142$:
                                   1733 ;E:\Dropbox\FAUSTO\SVILUPPI\MSX\CODE\C\MSXgl\projects\exsoccer/exsoccer_s1_b2.c:271: else ty = FIELD_BOUND_Y_TOP;
    000006A5 11 32 00         [10] 1734 	ld	de, #0x0032
    000006A8 C3rBEr06         [10] 1735 	jp	00149$
    000006AB                       1736 00148$:
                                   1737 ;E:\Dropbox\FAUSTO\SVILUPPI\MSX\CODE\C\MSXgl\projects\exsoccer/exsoccer_s1_b2.c:273: if (g_Players[g_GkAnimPlayerId].Y < (FIELD_BOUND_Y_BOTTOM - 100)) ty = g_Players[g_GkAnimPlayerId].Y + 100;
    000006AB 7B               [ 4] 1738 	ld	a, e
    000006AC D6 4A            [ 7] 1739 	sub	a, #0x4a
    000006AE 7A               [ 4] 1740 	ld	a, d
    000006AF DE 01            [ 7] 1741 	sbc	a, #0x01
    000006B1 30 08            [12] 1742 	jr	NC, 00145$
    000006B3 21 64 00         [10] 1743 	ld	hl, #0x0064
    000006B6 19               [11] 1744 	add	hl, de
    000006B7 EB               [ 4] 1745 	ex	de, hl
    000006B8 C3rBEr06         [10] 1746 	jp	00149$
    000006BB                       1747 00145$:
                                   1748 ;E:\Dropbox\FAUSTO\SVILUPPI\MSX\CODE\C\MSXgl\projects\exsoccer/exsoccer_s1_b2.c:274: else ty = FIELD_BOUND_Y_BOTTOM;
    000006BB 11 AE 01         [10] 1749 	ld	de, #0x01ae
    000006BE                       1750 00149$:
                                   1751 ;E:\Dropbox\FAUSTO\SVILUPPI\MSX\CODE\C\MSXgl\projects\exsoccer/exsoccer_s1_b2.c:277: PerformShot(tx, ty);
    000006BE 69               [ 4] 1752 	ld	l, c
                                   1753 ;	spillPairReg hl
                                   1754 ;	spillPairReg hl
    000006BF 60               [ 4] 1755 	ld	h, b
                                   1756 ;	spillPairReg hl
                                   1757 ;	spillPairReg hl
    000006C0 CDr00r00         [17] 1758 	call	_PerformShot
                                   1759 ;E:\Dropbox\FAUSTO\SVILUPPI\MSX\CODE\C\MSXgl\projects\exsoccer/exsoccer_s1_b2.c:280: g_MatchStatus = MATCH_IN_ACTION;
    000006C3 21r00r00         [10] 1760 	ld	hl, #_g_MatchStatus
    000006C6 36 0C            [10] 1761 	ld	(hl), #0x0c
    000006C8                       1762 00160$:
                                   1763 ;E:\Dropbox\FAUSTO\SVILUPPI\MSX\CODE\C\MSXgl\projects\exsoccer/exsoccer_s1_b2.c:285: }
    000006C8 DD F9            [10] 1764 	ld	sp, ix
    000006CA DD E1            [14] 1765 	pop	ix
    000006CC C9               [10] 1766 	ret
                                   1767 ;E:\Dropbox\FAUSTO\SVILUPPI\MSX\CODE\C\MSXgl\projects\exsoccer/exsoccer_s1_b2.c:286: u8 GetBestPassTarget(u8 passerId) {
                                   1768 ;	---------------------------------
                                   1769 ; Function GetBestPassTarget
                                   1770 ; ---------------------------------
    000006CD                       1771 _GetBestPassTarget::
    000006CD DD E5            [15] 1772 	push	ix
    000006CF DD 21 00 00      [14] 1773 	ld	ix,#0
    000006D3 DD 39            [15] 1774 	add	ix,sp
    000006D5 21 E0 FF         [10] 1775 	ld	hl, #-32
    000006D8 39               [11] 1776 	add	hl, sp
    000006D9 F9               [ 6] 1777 	ld	sp, hl
    000006DA DD 77 FE         [19] 1778 	ld	-2 (ix), a
                                   1779 ;E:\Dropbox\FAUSTO\SVILUPPI\MSX\CODE\C\MSXgl\projects\exsoccer/exsoccer_s1_b2.c:287: u8 bestTarget = NO_VALUE;
    000006DD DD 36 E0 FF      [19] 1780 	ld	-32 (ix), #0xff
                                   1781 ;E:\Dropbox\FAUSTO\SVILUPPI\MSX\CODE\C\MSXgl\projects\exsoccer/exsoccer_s1_b2.c:288: i32 bestScore = -2100000000;
    000006E1 DD 36 E1 00      [19] 1782 	ld	-31 (ix), #0x00
    000006E5 DD 36 E2 8B      [19] 1783 	ld	-30 (ix), #0x8b
    000006E9 DD 36 E3 D4      [19] 1784 	ld	-29 (ix), #0xd4
    000006ED DD 36 E4 82      [19] 1785 	ld	-28 (ix), #0x82
                                   1786 ;E:\Dropbox\FAUSTO\SVILUPPI\MSX\CODE\C\MSXgl\projects\exsoccer/exsoccer_s1_b2.c:289: u8 teamId = g_Players[passerId].TeamId;
    000006F1 DD 4E FE         [19] 1787 	ld	c, -2 (ix)
    000006F4 06 00            [ 7] 1788 	ld	b, #0x00
    000006F6 69               [ 4] 1789 	ld	l, c
    000006F7 60               [ 4] 1790 	ld	h, b
    000006F8 29               [11] 1791 	add	hl, hl
    000006F9 29               [11] 1792 	add	hl, hl
    000006FA 09               [11] 1793 	add	hl, bc
    000006FB 29               [11] 1794 	add	hl, hl
    000006FC 29               [11] 1795 	add	hl, hl
    000006FD 09               [11] 1796 	add	hl, bc
    000006FE 11r00r00         [10] 1797 	ld	de, #_g_Players
    00000701 19               [11] 1798 	add	hl, de
    00000702 4D               [ 4] 1799 	ld	c, l
    00000703 44               [ 4] 1800 	ld	b, h
    00000704 C5               [11] 1801 	push	bc
    00000705 FD E1            [14] 1802 	pop	iy
    00000707 FD 7E 09         [19] 1803 	ld	a, 9 (iy)
    0000070A DD 77 E5         [19] 1804 	ld	-27 (ix), a
                                   1805 ;E:\Dropbox\FAUSTO\SVILUPPI\MSX\CODE\C\MSXgl\projects\exsoccer/exsoccer_s1_b2.c:290: u8 dir = g_Players[passerId].Direction;
    0000070D C5               [11] 1806 	push	bc
    0000070E FD E1            [14] 1807 	pop	iy
    00000710 FD 5E 0A         [19] 1808 	ld	e, 10 (iy)
                                   1809 ;E:\Dropbox\FAUSTO\SVILUPPI\MSX\CODE\C\MSXgl\projects\exsoccer/exsoccer_s1_b2.c:291: i16 px = (i16)g_Players[passerId].X;
    00000713 69               [ 4] 1810 	ld	l, c
                                   1811 ;	spillPairReg hl
                                   1812 ;	spillPairReg hl
    00000714 60               [ 4] 1813 	ld	h, b
                                   1814 ;	spillPairReg hl
                                   1815 ;	spillPairReg hl
    00000715 23               [ 6] 1816 	inc	hl
    00000716 23               [ 6] 1817 	inc	hl
    00000717 56               [ 7] 1818 	ld	d, (hl)
    00000718 23               [ 6] 1819 	inc	hl
    00000719 7E               [ 7] 1820 	ld	a, (hl)
    0000071A DD 72 E6         [19] 1821 	ld	-26 (ix), d
    0000071D DD 77 E7         [19] 1822 	ld	-25 (ix), a
                                   1823 ;E:\Dropbox\FAUSTO\SVILUPPI\MSX\CODE\C\MSXgl\projects\exsoccer/exsoccer_s1_b2.c:292: i16 py = (i16)g_Players[passerId].Y;
    00000720 69               [ 4] 1824 	ld	l, c
    00000721 60               [ 4] 1825 	ld	h, b
    00000722 56               [ 7] 1826 	ld	d, (hl)
    00000723 23               [ 6] 1827 	inc	hl
    00000724 7E               [ 7] 1828 	ld	a, (hl)
    00000725 DD 72 E8         [19] 1829 	ld	-24 (ix), d
    00000728 DD 77 E9         [19] 1830 	ld	-23 (ix), a
                                   1831 ;E:\Dropbox\FAUSTO\SVILUPPI\MSX\CODE\C\MSXgl\projects\exsoccer/exsoccer_s1_b2.c:295: i16 dirX = 0, dirY = 0;
    0000072B AF               [ 4] 1832 	xor	a, a
    0000072C DD 77 EA         [19] 1833 	ld	-22 (ix), a
    0000072F DD 77 EB         [19] 1834 	ld	-21 (ix), a
    00000732 AF               [ 4] 1835 	xor	a, a
    00000733 DD 77 EC         [19] 1836 	ld	-20 (ix), a
    00000736 DD 77 ED         [19] 1837 	ld	-19 (ix), a
                                   1838 ;E:\Dropbox\FAUSTO\SVILUPPI\MSX\CODE\C\MSXgl\projects\exsoccer/exsoccer_s1_b2.c:298: if (dir == DIRECTION_NONE) dir = g_Players[passerId].PreviousDirection;
    00000739 7B               [ 4] 1839 	ld	a, e
    0000073A B7               [ 4] 1840 	or	a, a
    0000073B 20 07            [12] 1841 	jr	NZ, 00102$
    0000073D 59               [ 4] 1842 	ld	e, c
    0000073E 50               [ 4] 1843 	ld	d, b
    0000073F 21 0B 00         [10] 1844 	ld	hl, #11
    00000742 19               [11] 1845 	add	hl, de
    00000743 5E               [ 7] 1846 	ld	e, (hl)
    00000744                       1847 00102$:
                                   1848 ;E:\Dropbox\FAUSTO\SVILUPPI\MSX\CODE\C\MSXgl\projects\exsoccer/exsoccer_s1_b2.c:300: if (dir == DIRECTION_UP) dirY = -100;
    00000744 7B               [ 4] 1849 	ld	a, e
    00000745 3D               [ 4] 1850 	dec	a
    00000746 20 0B            [12] 1851 	jr	NZ, 00128$
    00000748 DD 36 EC 9C      [19] 1852 	ld	-20 (ix), #0x9c
    0000074C DD 36 ED FF      [19] 1853 	ld	-19 (ix), #0xff
    00000750 C3rFCr07         [10] 1854 	jp	00180$
    00000753                       1855 00128$:
                                   1856 ;E:\Dropbox\FAUSTO\SVILUPPI\MSX\CODE\C\MSXgl\projects\exsoccer/exsoccer_s1_b2.c:301: else if (dir == DIRECTION_DOWN) dirY = 100;
    00000753 7B               [ 4] 1857 	ld	a, e
    00000754 D6 05            [ 7] 1858 	sub	a, #0x05
    00000756 20 0B            [12] 1859 	jr	NZ, 00125$
    00000758 DD 36 EC 64      [19] 1860 	ld	-20 (ix), #0x64
    0000075C DD 36 ED 00      [19] 1861 	ld	-19 (ix), #0
    00000760 C3rFCr07         [10] 1862 	jp	00180$
    00000763                       1863 00125$:
                                   1864 ;E:\Dropbox\FAUSTO\SVILUPPI\MSX\CODE\C\MSXgl\projects\exsoccer/exsoccer_s1_b2.c:302: else if (dir == DIRECTION_LEFT) dirX = -100;
    00000763 7B               [ 4] 1865 	ld	a, e
    00000764 D6 07            [ 7] 1866 	sub	a, #0x07
    00000766 20 0B            [12] 1867 	jr	NZ, 00122$
    00000768 DD 36 EA 9C      [19] 1868 	ld	-22 (ix), #0x9c
    0000076C DD 36 EB FF      [19] 1869 	ld	-21 (ix), #0xff
    00000770 C3rFCr07         [10] 1870 	jp	00180$
    00000773                       1871 00122$:
                                   1872 ;E:\Dropbox\FAUSTO\SVILUPPI\MSX\CODE\C\MSXgl\projects\exsoccer/exsoccer_s1_b2.c:303: else if (dir == DIRECTION_RIGHT) dirX = 100;
    00000773 7B               [ 4] 1873 	ld	a, e
    00000774 D6 03            [ 7] 1874 	sub	a, #0x03
    00000776 20 0B            [12] 1875 	jr	NZ, 00119$
    00000778 DD 36 EA 64      [19] 1876 	ld	-22 (ix), #0x64
    0000077C DD 36 EB 00      [19] 1877 	ld	-21 (ix), #0
    00000780 C3rFCr07         [10] 1878 	jp	00180$
    00000783                       1879 00119$:
                                   1880 ;E:\Dropbox\FAUSTO\SVILUPPI\MSX\CODE\C\MSXgl\projects\exsoccer/exsoccer_s1_b2.c:304: else if (dir == DIRECTION_UP_RIGHT) { dirX = 70; dirY = -70; }
    00000783 7B               [ 4] 1881 	ld	a, e
    00000784 D6 02            [ 7] 1882 	sub	a, #0x02
    00000786 20 13            [12] 1883 	jr	NZ, 00116$
    00000788 DD 36 EA 46      [19] 1884 	ld	-22 (ix), #0x46
    0000078C AF               [ 4] 1885 	xor	a, a
    0000078D DD 77 EB         [19] 1886 	ld	-21 (ix), a
    00000790 DD 36 EC BA      [19] 1887 	ld	-20 (ix), #0xba
    00000794 DD 36 ED FF      [19] 1888 	ld	-19 (ix), #0xff
    00000798 C3rFCr07         [10] 1889 	jp	00180$
    0000079B                       1890 00116$:
                                   1891 ;E:\Dropbox\FAUSTO\SVILUPPI\MSX\CODE\C\MSXgl\projects\exsoccer/exsoccer_s1_b2.c:305: else if (dir == DIRECTION_UP_LEFT) { dirX = -70; dirY = -70; }
    0000079B 7B               [ 4] 1892 	ld	a, e
    0000079C D6 08            [ 7] 1893 	sub	a, #0x08
    0000079E 20 13            [12] 1894 	jr	NZ, 00113$
    000007A0 DD 36 EA BA      [19] 1895 	ld	-22 (ix), #0xba
    000007A4 DD 36 EB FF      [19] 1896 	ld	-21 (ix), #0xff
    000007A8 DD 36 EC BA      [19] 1897 	ld	-20 (ix), #0xba
    000007AC DD 36 ED FF      [19] 1898 	ld	-19 (ix), #0xff
    000007B0 C3rFCr07         [10] 1899 	jp	00180$
    000007B3                       1900 00113$:
                                   1901 ;E:\Dropbox\FAUSTO\SVILUPPI\MSX\CODE\C\MSXgl\projects\exsoccer/exsoccer_s1_b2.c:306: else if (dir == DIRECTION_DOWN_RIGHT) { dirX = 70; dirY = 70; }
    000007B3 7B               [ 4] 1902 	ld	a, e
    000007B4 D6 04            [ 7] 1903 	sub	a, #0x04
    000007B6 20 13            [12] 1904 	jr	NZ, 00110$
    000007B8 DD 36 EA 46      [19] 1905 	ld	-22 (ix), #0x46
    000007BC DD 36 EB 00      [19] 1906 	ld	-21 (ix), #0
    000007C0 DD 36 EC 46      [19] 1907 	ld	-20 (ix), #0x46
    000007C4 DD 36 ED 00      [19] 1908 	ld	-19 (ix), #0
    000007C8 C3rFCr07         [10] 1909 	jp	00180$
    000007CB                       1910 00110$:
                                   1911 ;E:\Dropbox\FAUSTO\SVILUPPI\MSX\CODE\C\MSXgl\projects\exsoccer/exsoccer_s1_b2.c:307: else if (dir == DIRECTION_DOWN_LEFT) { dirX = -70; dirY = 70; }
    000007CB 7B               [ 4] 1912 	ld	a, e
    000007CC D6 06            [ 7] 1913 	sub	a, #0x06
    000007CE 20 13            [12] 1914 	jr	NZ, 00107$
    000007D0 DD 36 EA BA      [19] 1915 	ld	-22 (ix), #0xba
    000007D4 DD 36 EB FF      [19] 1916 	ld	-21 (ix), #0xff
    000007D8 DD 36 EC 46      [19] 1917 	ld	-20 (ix), #0x46
    000007DC DD 36 ED 00      [19] 1918 	ld	-19 (ix), #0
    000007E0 C3rFCr07         [10] 1919 	jp	00180$
    000007E3                       1920 00107$:
                                   1921 ;E:\Dropbox\FAUSTO\SVILUPPI\MSX\CODE\C\MSXgl\projects\exsoccer/exsoccer_s1_b2.c:309: if (teamId == TEAM_1) dirY = -100; 
    000007E3 DD 7E E5         [19] 1922 	ld	a, -27 (ix)
    000007E6 3D               [ 4] 1923 	dec	a
    000007E7 20 0B            [12] 1924 	jr	NZ, 00104$
    000007E9 DD 36 EC 9C      [19] 1925 	ld	-20 (ix), #0x9c
    000007ED DD 36 ED FF      [19] 1926 	ld	-19 (ix), #0xff
    000007F1 C3rFCr07         [10] 1927 	jp	00180$
    000007F4                       1928 00104$:
                                   1929 ;E:\Dropbox\FAUSTO\SVILUPPI\MSX\CODE\C\MSXgl\projects\exsoccer/exsoccer_s1_b2.c:310: else dirY = 100; 
    000007F4 DD 36 EC 64      [19] 1930 	ld	-20 (ix), #0x64
    000007F8 DD 36 ED 00      [19] 1931 	ld	-19 (ix), #0
                                   1932 ;E:\Dropbox\FAUSTO\SVILUPPI\MSX\CODE\C\MSXgl\projects\exsoccer/exsoccer_s1_b2.c:313: for(i=0; i<14; i++) {
    000007FC                       1933 00180$:
    000007FC DD 71 EE         [19] 1934 	ld	-18 (ix), c
    000007FF DD 70 EF         [19] 1935 	ld	-17 (ix), b
    00000802 DD 36 FF 00      [19] 1936 	ld	-1 (ix), #0x00
    00000806                       1937 00152$:
                                   1938 ;E:\Dropbox\FAUSTO\SVILUPPI\MSX\CODE\C\MSXgl\projects\exsoccer/exsoccer_s1_b2.c:318: if(g_Players[i].TeamId != teamId) continue;
    00000806 DD 4E FF         [19] 1939 	ld	c, -1 (ix)
    00000809 06 00            [ 7] 1940 	ld	b, #0x00
    0000080B 69               [ 4] 1941 	ld	l, c
    0000080C 60               [ 4] 1942 	ld	h, b
    0000080D 29               [11] 1943 	add	hl, hl
    0000080E 29               [11] 1944 	add	hl, hl
    0000080F 09               [11] 1945 	add	hl, bc
    00000810 29               [11] 1946 	add	hl, hl
    00000811 29               [11] 1947 	add	hl, hl
    00000812 09               [11] 1948 	add	hl, bc
    00000813 EB               [ 4] 1949 	ex	de, hl
    00000814 21r00r00         [10] 1950 	ld	hl, #_g_Players
    00000817 19               [11] 1951 	add	hl, de
    00000818 DD 75 FC         [19] 1952 	ld	-4 (ix), l
    0000081B DD 74 FD         [19] 1953 	ld	-3 (ix), h
    0000081E 01 09 00         [10] 1954 	ld	bc,#9
    00000821 09               [11] 1955 	add	hl,bc
    00000822 DD 7E E5         [19] 1956 	ld	a,-27 (ix)
    00000825 96               [ 7] 1957 	sub	a,(hl)
    00000826 C2rAAr0A         [10] 1958 	jp	NZ,00150$
                                   1959 ;E:\Dropbox\FAUSTO\SVILUPPI\MSX\CODE\C\MSXgl\projects\exsoccer/exsoccer_s1_b2.c:319: if(i == passerId) continue;
    00000829 DD 7E FE         [19] 1960 	ld	a, -2 (ix)
    0000082C DD 96 FF         [19] 1961 	sub	a, -1 (ix)
    0000082F CArAAr0A         [10] 1962 	jp	Z,00150$
                                   1963 ;E:\Dropbox\FAUSTO\SVILUPPI\MSX\CODE\C\MSXgl\projects\exsoccer/exsoccer_s1_b2.c:321: if(g_Players[i].Role == PLAYER_ROLE_GOALKEEPER) continue; 
    00000832 DD 4E FC         [19] 1964 	ld	c, -4 (ix)
    00000835 DD 46 FD         [19] 1965 	ld	b, -3 (ix)
    00000838 21 0D 00         [10] 1966 	ld	hl, #13
    0000083B 09               [11] 1967 	add	hl, bc
    0000083C 7E               [ 7] 1968 	ld	a, (hl)
    0000083D B7               [ 4] 1969 	or	a, a
    0000083E CArAAr0A         [10] 1970 	jp	Z, 00150$
                                   1971 ;E:\Dropbox\FAUSTO\SVILUPPI\MSX\CODE\C\MSXgl\projects\exsoccer/exsoccer_s1_b2.c:324: if (g_Players[i].Y < g_FieldCurrentYPosition || g_Players[i].Y > (g_FieldCurrentYPosition + 220)) {
    00000841 DD 6E FC         [19] 1972 	ld	l, -4 (ix)
    00000844 DD 66 FD         [19] 1973 	ld	h, -3 (ix)
    00000847 4E               [ 7] 1974 	ld	c, (hl)
    00000848 23               [ 6] 1975 	inc	hl
    00000849 46               [ 7] 1976 	ld	b, (hl)
    0000084A 59               [ 4] 1977 	ld	e, c
    0000084B 50               [ 4] 1978 	ld	d, b
    0000084C 2Ar00r00         [16] 1979 	ld	hl, (_g_FieldCurrentYPosition)
    0000084F 7B               [ 4] 1980 	ld	a, e
    00000850 95               [ 4] 1981 	sub	a, l
    00000851 7A               [ 4] 1982 	ld	a, d
    00000852 9C               [ 4] 1983 	sbc	a, h
    00000853 DArAAr0A         [10] 1984 	jp	C, 00150$
    00000856 FD 21 DC 00      [14] 1985 	ld	iy, #0x00dc
    0000085A C5               [11] 1986 	push	bc
    0000085B ED 4Br00r00      [20] 1987 	ld	bc, (_g_FieldCurrentYPosition)
    0000085F FD 09            [15] 1988 	add	iy, bc
    00000861 C1               [10] 1989 	pop	bc
    00000862 FD E5            [15] 1990 	push	iy
    00000864 E1               [10] 1991 	pop	hl
    00000865 AF               [ 4] 1992 	xor	a, a
    00000866 ED 52            [15] 1993 	sbc	hl, de
    00000868 DArAAr0A         [10] 1994 	jp	C, 00150$
                                   1995 ;E:\Dropbox\FAUSTO\SVILUPPI\MSX\CODE\C\MSXgl\projects\exsoccer/exsoccer_s1_b2.c:328: dx = (i16)g_Players[i].X - px;
    0000086B DD 6E FC         [19] 1996 	ld	l, -4 (ix)
                                   1997 ;	spillPairReg hl
                                   1998 ;	spillPairReg hl
    0000086E DD 66 FD         [19] 1999 	ld	h, -3 (ix)
                                   2000 ;	spillPairReg hl
                                   2001 ;	spillPairReg hl
    00000871 23               [ 6] 2002 	inc	hl
    00000872 23               [ 6] 2003 	inc	hl
    00000873 5E               [ 7] 2004 	ld	e, (hl)
    00000874 23               [ 6] 2005 	inc	hl
    00000875 56               [ 7] 2006 	ld	d, (hl)
    00000876 7B               [ 4] 2007 	ld	a, e
    00000877 DD 96 E6         [19] 2008 	sub	a, -26 (ix)
    0000087A 5F               [ 4] 2009 	ld	e, a
    0000087B 7A               [ 4] 2010 	ld	a, d
    0000087C DD 9E E7         [19] 2011 	sbc	a, -25 (ix)
    0000087F DD 73 FA         [19] 2012 	ld	-6 (ix), e
    00000882 DD 77 FB         [19] 2013 	ld	-5 (ix), a
                                   2014 ;E:\Dropbox\FAUSTO\SVILUPPI\MSX\CODE\C\MSXgl\projects\exsoccer/exsoccer_s1_b2.c:329: dy = (i16)g_Players[i].Y - py;
    00000885 79               [ 4] 2015 	ld	a, c
    00000886 DD 96 E8         [19] 2016 	sub	a, -24 (ix)
    00000889 4F               [ 4] 2017 	ld	c, a
    0000088A 78               [ 4] 2018 	ld	a, b
    0000088B DD 9E E9         [19] 2019 	sbc	a, -23 (ix)
    0000088E DD 71 FC         [19] 2020 	ld	-4 (ix), c
    00000891 DD 77 FD         [19] 2021 	ld	-3 (ix), a
                                   2022 ;E:\Dropbox\FAUSTO\SVILUPPI\MSX\CODE\C\MSXgl\projects\exsoccer/exsoccer_s1_b2.c:333: adx = (dx < 0) ? -dx : dx;
    00000894 DD 46 FB         [19] 2023 	ld	b, -5 (ix)
    00000897 CB 78            [ 8] 2024 	bit	7, b
    00000899 28 11            [12] 2025 	jr	Z, 00155$
    0000089B AF               [ 4] 2026 	xor	a, a
    0000089C DD 96 FA         [19] 2027 	sub	a, -6 (ix)
    0000089F DD 77 F8         [19] 2028 	ld	-8 (ix), a
    000008A2 9F               [ 4] 2029 	sbc	a, a
    000008A3 DD 96 FB         [19] 2030 	sub	a, -5 (ix)
    000008A6 DD 77 F9         [19] 2031 	ld	-7 (ix), a
    000008A9 C3rB8r08         [10] 2032 	jp	00156$
    000008AC                       2033 00155$:
    000008AC DD 7E FA         [19] 2034 	ld	a, -6 (ix)
    000008AF DD 77 F8         [19] 2035 	ld	-8 (ix), a
    000008B2 DD 7E FB         [19] 2036 	ld	a, -5 (ix)
    000008B5 DD 77 F9         [19] 2037 	ld	-7 (ix), a
    000008B8                       2038 00156$:
    000008B8 DD 4E F8         [19] 2039 	ld	c, -8 (ix)
    000008BB DD 46 F9         [19] 2040 	ld	b, -7 (ix)
                                   2041 ;E:\Dropbox\FAUSTO\SVILUPPI\MSX\CODE\C\MSXgl\projects\exsoccer/exsoccer_s1_b2.c:334: ady = (dy < 0) ? -dy : dy;
    000008BE DD 56 FD         [19] 2042 	ld	d, -3 (ix)
    000008C1 CB 7A            [ 8] 2043 	bit	7, d
    000008C3 28 0C            [12] 2044 	jr	Z, 00157$
    000008C5 AF               [ 4] 2045 	xor	a, a
    000008C6 DD 96 FC         [19] 2046 	sub	a, -4 (ix)
    000008C9 5F               [ 4] 2047 	ld	e, a
    000008CA 9F               [ 4] 2048 	sbc	a, a
    000008CB DD 96 FD         [19] 2049 	sub	a, -3 (ix)
    000008CE C3rD7r08         [10] 2050 	jp	00158$
    000008D1                       2051 00157$:
    000008D1 DD 5E FC         [19] 2052 	ld	e, -4 (ix)
    000008D4 DD 7E FD         [19] 2053 	ld	a, -3 (ix)
    000008D7                       2054 00158$:
    000008D7 DD 73 F0         [19] 2055 	ld	-16 (ix), e
    000008DA DD 77 F1         [19] 2056 	ld	-15 (ix), a
                                   2057 ;E:\Dropbox\FAUSTO\SVILUPPI\MSX\CODE\C\MSXgl\projects\exsoccer/exsoccer_s1_b2.c:335: if (adx < 32 && ady < 32) continue;
    000008DD 59               [ 4] 2058 	ld	e, c
    000008DE 50               [ 4] 2059 	ld	d, b
    000008DF 7B               [ 4] 2060 	ld	a, e
    000008E0 D6 20            [ 7] 2061 	sub	a, #0x20
    000008E2 7A               [ 4] 2062 	ld	a, d
    000008E3 17               [ 4] 2063 	rla
    000008E4 3F               [ 4] 2064 	ccf
    000008E5 1F               [ 4] 2065 	rra
    000008E6 DE 80            [ 7] 2066 	sbc	a, #0x80
    000008E8 30 12            [12] 2067 	jr	NC, 00140$
    000008EA DD 5E F0         [19] 2068 	ld	e, -16 (ix)
    000008ED DD 56 F1         [19] 2069 	ld	d, -15 (ix)
    000008F0 7B               [ 4] 2070 	ld	a, e
    000008F1 D6 20            [ 7] 2071 	sub	a, #0x20
    000008F3 7A               [ 4] 2072 	ld	a, d
    000008F4 17               [ 4] 2073 	rla
    000008F5 3F               [ 4] 2074 	ccf
    000008F6 1F               [ 4] 2075 	rra
    000008F7 DE 80            [ 7] 2076 	sbc	a, #0x80
    000008F9 DArAAr0A         [10] 2077 	jp	C, 00150$
    000008FC                       2078 00140$:
                                   2079 ;E:\Dropbox\FAUSTO\SVILUPPI\MSX\CODE\C\MSXgl\projects\exsoccer/exsoccer_s1_b2.c:338: if (g_Players[passerId].Role == PLAYER_ROLE_GOALKEEPER) {
    000008FC DD 6E EE         [19] 2080 	ld	l, -18 (ix)
    000008FF DD 66 EF         [19] 2081 	ld	h, -17 (ix)
    00000902 11 0D 00         [10] 2082 	ld	de, #0x000d
    00000905 19               [11] 2083 	add	hl, de
    00000906 5E               [ 7] 2084 	ld	e, (hl)
                                   2085 ;E:\Dropbox\FAUSTO\SVILUPPI\MSX\CODE\C\MSXgl\projects\exsoccer/exsoccer_s1_b2.c:340: if (((i32)dx*(i32)dx + (i32)dy*(i32)dy) > 40000) continue;
    00000907 DD 7E FA         [19] 2086 	ld	a, -6 (ix)
    0000090A DD 77 F2         [19] 2087 	ld	-14 (ix), a
    0000090D DD 7E FB         [19] 2088 	ld	a, -5 (ix)
    00000910 DD 77 F3         [19] 2089 	ld	-13 (ix), a
    00000913 07               [ 4] 2090 	rlca
    00000914 9F               [ 4] 2091 	sbc	a, a
    00000915 DD 77 F4         [19] 2092 	ld	-12 (ix), a
    00000918 DD 77 F5         [19] 2093 	ld	-11 (ix), a
    0000091B DD 7E FC         [19] 2094 	ld	a, -4 (ix)
    0000091E DD 77 F6         [19] 2095 	ld	-10 (ix), a
    00000921 DD 7E FD         [19] 2096 	ld	a, -3 (ix)
    00000924 DD 77 F7         [19] 2097 	ld	-9 (ix), a
    00000927 07               [ 4] 2098 	rlca
    00000928 9F               [ 4] 2099 	sbc	a, a
    00000929 DD 77 F8         [19] 2100 	ld	-8 (ix), a
    0000092C DD 77 F9         [19] 2101 	ld	-7 (ix), a
                                   2102 ;E:\Dropbox\FAUSTO\SVILUPPI\MSX\CODE\C\MSXgl\projects\exsoccer/exsoccer_s1_b2.c:338: if (g_Players[passerId].Role == PLAYER_ROLE_GOALKEEPER) {
    0000092F 7B               [ 4] 2103 	ld	a, e
    00000930 B7               [ 4] 2104 	or	a, a
    00000931 20 74            [12] 2105 	jr	NZ, 00145$
                                   2106 ;E:\Dropbox\FAUSTO\SVILUPPI\MSX\CODE\C\MSXgl\projects\exsoccer/exsoccer_s1_b2.c:340: if (((i32)dx*(i32)dx + (i32)dy*(i32)dy) > 40000) continue;
    00000933 C5               [11] 2107 	push	bc
    00000934 DD 6E F4         [19] 2108 	ld	l, -12 (ix)
                                   2109 ;	spillPairReg hl
                                   2110 ;	spillPairReg hl
    00000937 DD 66 F5         [19] 2111 	ld	h, -11 (ix)
                                   2112 ;	spillPairReg hl
                                   2113 ;	spillPairReg hl
    0000093A E5               [11] 2114 	push	hl
    0000093B DD 6E F2         [19] 2115 	ld	l, -14 (ix)
                                   2116 ;	spillPairReg hl
                                   2117 ;	spillPairReg hl
    0000093E DD 66 F3         [19] 2118 	ld	h, -13 (ix)
                                   2119 ;	spillPairReg hl
                                   2120 ;	spillPairReg hl
    00000941 E5               [11] 2121 	push	hl
    00000942 DD 5E F2         [19] 2122 	ld	e, -14 (ix)
    00000945 DD 56 F3         [19] 2123 	ld	d, -13 (ix)
    00000948 DD 6E F4         [19] 2124 	ld	l, -12 (ix)
                                   2125 ;	spillPairReg hl
                                   2126 ;	spillPairReg hl
    0000094B DD 66 F5         [19] 2127 	ld	h, -11 (ix)
                                   2128 ;	spillPairReg hl
                                   2129 ;	spillPairReg hl
    0000094E CDr00r00         [17] 2130 	call	__mullong
    00000951 F1               [10] 2131 	pop	af
    00000952 F1               [10] 2132 	pop	af
    00000953 DD 73 FA         [19] 2133 	ld	-6 (ix), e
    00000956 DD 72 FB         [19] 2134 	ld	-5 (ix), d
    00000959 DD 75 FC         [19] 2135 	ld	-4 (ix), l
    0000095C DD 74 FD         [19] 2136 	ld	-3 (ix), h
    0000095F DD 6E F8         [19] 2137 	ld	l, -8 (ix)
                                   2138 ;	spillPairReg hl
                                   2139 ;	spillPairReg hl
    00000962 DD 66 F9         [19] 2140 	ld	h, -7 (ix)
                                   2141 ;	spillPairReg hl
                                   2142 ;	spillPairReg hl
    00000965 E5               [11] 2143 	push	hl
    00000966 DD 6E F6         [19] 2144 	ld	l, -10 (ix)
                                   2145 ;	spillPairReg hl
                                   2146 ;	spillPairReg hl
    00000969 DD 66 F7         [19] 2147 	ld	h, -9 (ix)
                                   2148 ;	spillPairReg hl
                                   2149 ;	spillPairReg hl
    0000096C E5               [11] 2150 	push	hl
    0000096D DD 5E F6         [19] 2151 	ld	e, -10 (ix)
    00000970 DD 56 F7         [19] 2152 	ld	d, -9 (ix)
    00000973 DD 6E F8         [19] 2153 	ld	l, -8 (ix)
                                   2154 ;	spillPairReg hl
                                   2155 ;	spillPairReg hl
    00000976 DD 66 F9         [19] 2156 	ld	h, -7 (ix)
                                   2157 ;	spillPairReg hl
                                   2158 ;	spillPairReg hl
    00000979 CDr00r00         [17] 2159 	call	__mullong
    0000097C F1               [10] 2160 	pop	af
    0000097D F1               [10] 2161 	pop	af
    0000097E C1               [10] 2162 	pop	bc
    0000097F 7B               [ 4] 2163 	ld	a, e
    00000980 DD 86 FA         [19] 2164 	add	a, -6 (ix)
    00000983 5F               [ 4] 2165 	ld	e, a
    00000984 7A               [ 4] 2166 	ld	a, d
    00000985 DD 8E FB         [19] 2167 	adc	a, -5 (ix)
    00000988 57               [ 4] 2168 	ld	d, a
    00000989 7D               [ 4] 2169 	ld	a, l
    0000098A DD 8E FC         [19] 2170 	adc	a, -4 (ix)
    0000098D 6F               [ 4] 2171 	ld	l, a
                                   2172 ;	spillPairReg hl
                                   2173 ;	spillPairReg hl
    0000098E 7C               [ 4] 2174 	ld	a, h
    0000098F DD 8E FD         [19] 2175 	adc	a, -3 (ix)
    00000992 67               [ 4] 2176 	ld	h, a
                                   2177 ;	spillPairReg hl
                                   2178 ;	spillPairReg hl
    00000993 3E 40            [ 7] 2179 	ld	a, #0x40
    00000995 BB               [ 4] 2180 	cp	a, e
    00000996 3E 9C            [ 7] 2181 	ld	a, #0x9c
    00000998 9A               [ 4] 2182 	sbc	a, d
    00000999 3E 00            [ 7] 2183 	ld	a, #0x00
    0000099B 9D               [ 4] 2184 	sbc	a, l
    0000099C 3E 00            [ 7] 2185 	ld	a, #0x00
    0000099E 9C               [ 4] 2186 	sbc	a, h
    0000099F E2rA4r09         [10] 2187 	jp	PO, 00296$
    000009A2 EE 80            [ 7] 2188 	xor	a, #0x80
    000009A4                       2189 00296$:
    000009A4 FArAAr0A         [10] 2190 	jp	M, 00150$
    000009A7                       2191 00145$:
                                   2192 ;E:\Dropbox\FAUSTO\SVILUPPI\MSX\CODE\C\MSXgl\projects\exsoccer/exsoccer_s1_b2.c:343: dot = ((i32)dx * dirX) + ((i32)dy * dirY);
    000009A7 DD 5E EA         [19] 2193 	ld	e, -22 (ix)
    000009AA DD 7E EB         [19] 2194 	ld	a, -21 (ix)
    000009AD 57               [ 4] 2195 	ld	d, a
    000009AE 07               [ 4] 2196 	rlca
    000009AF ED 62            [15] 2197 	sbc	hl, hl
    000009B1 C5               [11] 2198 	push	bc
    000009B2 E5               [11] 2199 	push	hl
    000009B3 D5               [11] 2200 	push	de
    000009B4 DD 5E F2         [19] 2201 	ld	e, -14 (ix)
    000009B7 DD 56 F3         [19] 2202 	ld	d, -13 (ix)
    000009BA DD 6E F4         [19] 2203 	ld	l, -12 (ix)
                                   2204 ;	spillPairReg hl
                                   2205 ;	spillPairReg hl
    000009BD DD 66 F5         [19] 2206 	ld	h, -11 (ix)
                                   2207 ;	spillPairReg hl
                                   2208 ;	spillPairReg hl
    000009C0 CDr00r00         [17] 2209 	call	__mullong
    000009C3 F1               [10] 2210 	pop	af
    000009C4 F1               [10] 2211 	pop	af
    000009C5 DD 73 FA         [19] 2212 	ld	-6 (ix), e
    000009C8 DD 72 FB         [19] 2213 	ld	-5 (ix), d
    000009CB DD 75 FC         [19] 2214 	ld	-4 (ix), l
    000009CE DD 74 FD         [19] 2215 	ld	-3 (ix), h
    000009D1 C1               [10] 2216 	pop	bc
    000009D2 DD 5E EC         [19] 2217 	ld	e, -20 (ix)
    000009D5 DD 7E ED         [19] 2218 	ld	a, -19 (ix)
    000009D8 57               [ 4] 2219 	ld	d, a
    000009D9 07               [ 4] 2220 	rlca
    000009DA ED 62            [15] 2221 	sbc	hl, hl
    000009DC C5               [11] 2222 	push	bc
    000009DD E5               [11] 2223 	push	hl
    000009DE D5               [11] 2224 	push	de
    000009DF DD 5E F6         [19] 2225 	ld	e, -10 (ix)
    000009E2 DD 56 F7         [19] 2226 	ld	d, -9 (ix)
    000009E5 DD 6E F8         [19] 2227 	ld	l, -8 (ix)
                                   2228 ;	spillPairReg hl
                                   2229 ;	spillPairReg hl
    000009E8 DD 66 F9         [19] 2230 	ld	h, -7 (ix)
                                   2231 ;	spillPairReg hl
                                   2232 ;	spillPairReg hl
    000009EB CDr00r00         [17] 2233 	call	__mullong
    000009EE F1               [10] 2234 	pop	af
    000009EF F1               [10] 2235 	pop	af
    000009F0 C1               [10] 2236 	pop	bc
    000009F1 7B               [ 4] 2237 	ld	a, e
    000009F2 DD 86 FA         [19] 2238 	add	a, -6 (ix)
    000009F5 5F               [ 4] 2239 	ld	e, a
    000009F6 7A               [ 4] 2240 	ld	a, d
    000009F7 DD 8E FB         [19] 2241 	adc	a, -5 (ix)
    000009FA 57               [ 4] 2242 	ld	d, a
    000009FB 7D               [ 4] 2243 	ld	a, l
    000009FC DD 8E FC         [19] 2244 	adc	a, -4 (ix)
    000009FF 6F               [ 4] 2245 	ld	l, a
                                   2246 ;	spillPairReg hl
                                   2247 ;	spillPairReg hl
    00000A00 7C               [ 4] 2248 	ld	a, h
    00000A01 DD 8E FD         [19] 2249 	adc	a, -3 (ix)
    00000A04 67               [ 4] 2250 	ld	h, a
                                   2251 ;	spillPairReg hl
                                   2252 ;	spillPairReg hl
    00000A05 DD 73 FA         [19] 2253 	ld	-6 (ix), e
    00000A08 DD 72 FB         [19] 2254 	ld	-5 (ix), d
    00000A0B DD 75 FC         [19] 2255 	ld	-4 (ix), l
    00000A0E DD 74 FD         [19] 2256 	ld	-3 (ix), h
                                   2257 ;E:\Dropbox\FAUSTO\SVILUPPI\MSX\CODE\C\MSXgl\projects\exsoccer/exsoccer_s1_b2.c:346: if (dot <= 0) {
    00000A11 AF               [ 4] 2258 	xor	a, a
    00000A12 DD BE FA         [19] 2259 	cp	a, -6 (ix)
    00000A15 DD 9E FB         [19] 2260 	sbc	a, -5 (ix)
    00000A18 3E 00            [ 7] 2261 	ld	a, #0x00
    00000A1A DD 9E FC         [19] 2262 	sbc	a, -4 (ix)
    00000A1D 3E 00            [ 7] 2263 	ld	a, #0x00
    00000A1F DD 9E FD         [19] 2264 	sbc	a, -3 (ix)
    00000A22 E2r27r0A         [10] 2265 	jp	PO, 00297$
    00000A25 EE 80            [ 7] 2266 	xor	a, #0x80
    00000A27                       2267 00297$:
    00000A27 F2rAAr0A         [10] 2268 	jp	P, 00150$
                                   2269 ;E:\Dropbox\FAUSTO\SVILUPPI\MSX\CODE\C\MSXgl\projects\exsoccer/exsoccer_s1_b2.c:357: score = dot - ((i32)(adx + ady) * 40); 
    00000A2A DD 6E F0         [19] 2270 	ld	l, -16 (ix)
    00000A2D DD 66 F1         [19] 2271 	ld	h, -15 (ix)
    00000A30 09               [11] 2272 	add	hl, bc
    00000A31 EB               [ 4] 2273 	ex	de, hl
    00000A32 21 28 00         [10] 2274 	ld	hl, #0x0028
    00000A35 CDr00r00         [17] 2275 	call	___mulsint2slong
    00000A38 DD 73 F2         [19] 2276 	ld	-14 (ix), e
    00000A3B DD 72 F3         [19] 2277 	ld	-13 (ix), d
    00000A3E DD 75 F4         [19] 2278 	ld	-12 (ix), l
    00000A41 DD 74 F5         [19] 2279 	ld	-11 (ix), h
    00000A44 DD 7E FA         [19] 2280 	ld	a, -6 (ix)
    00000A47 DD 96 F2         [19] 2281 	sub	a, -14 (ix)
    00000A4A DD 77 F6         [19] 2282 	ld	-10 (ix), a
    00000A4D DD 7E FB         [19] 2283 	ld	a, -5 (ix)
    00000A50 DD 9E F3         [19] 2284 	sbc	a, -13 (ix)
    00000A53 DD 77 F7         [19] 2285 	ld	-9 (ix), a
    00000A56 DD 7E FC         [19] 2286 	ld	a, -4 (ix)
    00000A59 DD 9E F4         [19] 2287 	sbc	a, -12 (ix)
    00000A5C DD 77 F8         [19] 2288 	ld	-8 (ix), a
    00000A5F DD 7E FD         [19] 2289 	ld	a, -3 (ix)
    00000A62 DD 9E F5         [19] 2290 	sbc	a, -11 (ix)
    00000A65 DD 77 F9         [19] 2291 	ld	-7 (ix), a
    00000A68 21 1A 00         [10] 2292 	ld	hl, #26
    00000A6B 39               [11] 2293 	add	hl, sp
    00000A6C EB               [ 4] 2294 	ex	de, hl
    00000A6D 21 16 00         [10] 2295 	ld	hl, #22
    00000A70 39               [11] 2296 	add	hl, sp
    00000A71 01 04 00         [10] 2297 	ld	bc, #4
    00000A74 ED B0            [21] 2298 	ldir
                                   2299 ;E:\Dropbox\FAUSTO\SVILUPPI\MSX\CODE\C\MSXgl\projects\exsoccer/exsoccer_s1_b2.c:359: if (score > bestScore) {
    00000A76 DD 7E E1         [19] 2300 	ld	a, -31 (ix)
    00000A79 DD 96 FA         [19] 2301 	sub	a, -6 (ix)
    00000A7C DD 7E E2         [19] 2302 	ld	a, -30 (ix)
    00000A7F DD 9E FB         [19] 2303 	sbc	a, -5 (ix)
    00000A82 DD 7E E3         [19] 2304 	ld	a, -29 (ix)
    00000A85 DD 9E FC         [19] 2305 	sbc	a, -4 (ix)
    00000A88 DD 7E E4         [19] 2306 	ld	a, -28 (ix)
    00000A8B DD 9E FD         [19] 2307 	sbc	a, -3 (ix)
    00000A8E E2r93r0A         [10] 2308 	jp	PO, 00298$
    00000A91 EE 80            [ 7] 2309 	xor	a, #0x80
    00000A93                       2310 00298$:
    00000A93 F2rAAr0A         [10] 2311 	jp	P, 00150$
                                   2312 ;E:\Dropbox\FAUSTO\SVILUPPI\MSX\CODE\C\MSXgl\projects\exsoccer/exsoccer_s1_b2.c:360: bestScore = score;
    00000A96 21 01 00         [10] 2313 	ld	hl, #1
    00000A99 39               [11] 2314 	add	hl, sp
    00000A9A EB               [ 4] 2315 	ex	de, hl
    00000A9B 21 1A 00         [10] 2316 	ld	hl, #26
    00000A9E 39               [11] 2317 	add	hl, sp
    00000A9F 01 04 00         [10] 2318 	ld	bc, #4
    00000AA2 ED B0            [21] 2319 	ldir
                                   2320 ;E:\Dropbox\FAUSTO\SVILUPPI\MSX\CODE\C\MSXgl\projects\exsoccer/exsoccer_s1_b2.c:361: bestTarget = i;
    00000AA4 DD 7E FF         [19] 2321 	ld	a, -1 (ix)
    00000AA7 DD 77 E0         [19] 2322 	ld	-32 (ix), a
    00000AAA                       2323 00150$:
                                   2324 ;E:\Dropbox\FAUSTO\SVILUPPI\MSX\CODE\C\MSXgl\projects\exsoccer/exsoccer_s1_b2.c:313: for(i=0; i<14; i++) {
    00000AAA DD 34 FF         [23] 2325 	inc	-1 (ix)
    00000AAD DD 7E FF         [19] 2326 	ld	a, -1 (ix)
    00000AB0 D6 0E            [ 7] 2327 	sub	a, #0x0e
    00000AB2 DAr06r08         [10] 2328 	jp	C, 00152$
                                   2329 ;E:\Dropbox\FAUSTO\SVILUPPI\MSX\CODE\C\MSXgl\projects\exsoccer/exsoccer_s1_b2.c:397: return bestTarget;
    00000AB5 DD 7E E0         [19] 2330 	ld	a, -32 (ix)
                                   2331 ;E:\Dropbox\FAUSTO\SVILUPPI\MSX\CODE\C\MSXgl\projects\exsoccer/exsoccer_s1_b2.c:398: }
    00000AB8 DD F9            [10] 2332 	ld	sp, ix
    00000ABA DD E1            [14] 2333 	pop	ix
    00000ABC C9               [10] 2334 	ret
                                   2335 ;E:\Dropbox\FAUSTO\SVILUPPI\MSX\CODE\C\MSXgl\projects\exsoccer/exsoccer_s1_b2.c:399: void BallThrowIn(u8 teamId){
                                   2336 ;	---------------------------------
                                   2337 ; Function BallThrowIn
                                   2338 ; ---------------------------------
    00000ABD                       2339 _BallThrowIn::
    00000ABD DD E5            [15] 2340 	push	ix
    00000ABF DD 21 00 00      [14] 2341 	ld	ix,#0
    00000AC3 DD 39            [15] 2342 	add	ix,sp
    00000AC5 21 F8 FF         [10] 2343 	ld	hl, #-8
    00000AC8 39               [11] 2344 	add	hl, sp
    00000AC9 F9               [ 6] 2345 	ld	sp, hl
    00000ACA DD 77 FE         [19] 2346 	ld	-2 (ix), a
                                   2347 ;E:\Dropbox\FAUSTO\SVILUPPI\MSX\CODE\C\MSXgl\projects\exsoccer/exsoccer_s1_b2.c:402: V9_PrintLayerAStringAtPos(10,18,"THROW IN");
    00000ACD 21rD4r0B         [10] 2348 	ld	hl, #___str_2
    00000AD0 E5               [11] 2349 	push	hl
    00000AD1 2E 12            [ 7] 2350 	ld	l, #0x12
                                   2351 ;	spillPairReg hl
                                   2352 ;	spillPairReg hl
    00000AD3 3E 0A            [ 7] 2353 	ld	a, #0x0a
    00000AD5 CDr00r00         [17] 2354 	call	_V9_PrintLayerAStringAtPos
                                   2355 ;E:\Dropbox\FAUSTO\SVILUPPI\MSX\CODE\C\MSXgl\projects\exsoccer/exsoccer_s1_b2.c:403: PlayPcm(SOUND_THROWIN);
    00000AD8 3E 08            [ 7] 2356 	ld	a, #0x08
    00000ADA CDr00r00         [17] 2357 	call	_PlayPcm
                                   2358 ;E:\Dropbox\FAUSTO\SVILUPPI\MSX\CODE\C\MSXgl\projects\exsoccer/exsoccer_s1_b2.c:404: g_MatchStatus=MATCH_BEFORE_THROW_IN;
    00000ADD 21r00r00         [10] 2359 	ld	hl, #_g_MatchStatus
    00000AE0 36 03            [10] 2360 	ld	(hl), #0x03
                                   2361 ;E:\Dropbox\FAUSTO\SVILUPPI\MSX\CODE\C\MSXgl\projects\exsoccer/exsoccer_s1_b2.c:405: g_RestartKickTeamId = teamId;
    00000AE2 DD 7E FE         [19] 2362 	ld	a, -2 (ix)
    00000AE5 32r00r00         [13] 2363 	ld	(_g_RestartKickTeamId+0), a
                                   2364 ;E:\Dropbox\FAUSTO\SVILUPPI\MSX\CODE\C\MSXgl\projects\exsoccer/exsoccer_s1_b2.c:406: g_Timer = 0;
    00000AE8 21r00r00         [10] 2365 	ld	hl, #_g_Timer
    00000AEB 36 00            [10] 2366 	ld	(hl), #0x00
                                   2367 ;E:\Dropbox\FAUSTO\SVILUPPI\MSX\CODE\C\MSXgl\projects\exsoccer/exsoccer_s1_b2.c:409: g_Ball.ShotActive = 0;
    00000AED 21r1Br00         [10] 2368 	ld	hl, #(_g_Ball + 27)
    00000AF0 36 00            [10] 2369 	ld	(hl), #0x00
                                   2370 ;E:\Dropbox\FAUSTO\SVILUPPI\MSX\CODE\C\MSXgl\projects\exsoccer/exsoccer_s1_b2.c:410: g_Ball.PassTargetPlayerId = NO_VALUE;
    00000AF2 21r10r00         [10] 2371 	ld	hl, #(_g_Ball + 16)
    00000AF5 36 FF            [10] 2372 	ld	(hl), #0xff
                                   2373 ;E:\Dropbox\FAUSTO\SVILUPPI\MSX\CODE\C\MSXgl\projects\exsoccer/exsoccer_s1_b2.c:411: g_Ball.PossessionPlayerId = NO_VALUE;
    00000AF7 21r06r00         [10] 2374 	ld	hl, #(_g_Ball + 6)
    00000AFA 36 FF            [10] 2375 	ld	(hl), #0xff
                                   2376 ;E:\Dropbox\FAUSTO\SVILUPPI\MSX\CODE\C\MSXgl\projects\exsoccer/exsoccer_s1_b2.c:414: for(i=0; i<14; i++) {
    00000AFC DD 36 FF 00      [19] 2377 	ld	-1 (ix), #0x00
    00000B00                       2378 00110$:
                                   2379 ;E:\Dropbox\FAUSTO\SVILUPPI\MSX\CODE\C\MSXgl\projects\exsoccer/exsoccer_s1_b2.c:415: g_Players[i].TargetX = g_Players[i].X;
    00000B00 DD 4E FF         [19] 2380 	ld	c, -1 (ix)
    00000B03 06 00            [ 7] 2381 	ld	b, #0x00
    00000B05 69               [ 4] 2382 	ld	l, c
    00000B06 60               [ 4] 2383 	ld	h, b
    00000B07 29               [11] 2384 	add	hl, hl
    00000B08 29               [11] 2385 	add	hl, hl
    00000B09 09               [11] 2386 	add	hl, bc
    00000B0A 29               [11] 2387 	add	hl, hl
    00000B0B 29               [11] 2388 	add	hl, hl
    00000B0C 09               [11] 2389 	add	hl, bc
    00000B0D 11r00r00         [10] 2390 	ld	de, #_g_Players
    00000B10 19               [11] 2391 	add	hl, de
    00000B11 E3               [19] 2392 	ex	(sp), hl
    00000B12 DD 7E F8         [19] 2393 	ld	a, -8 (ix)
    00000B15 C6 10            [ 7] 2394 	add	a, #0x10
    00000B17 DD 77 FA         [19] 2395 	ld	-6 (ix), a
    00000B1A DD 7E F9         [19] 2396 	ld	a, -7 (ix)
    00000B1D CE 00            [ 7] 2397 	adc	a, #0x00
    00000B1F DD 77 FB         [19] 2398 	ld	-5 (ix), a
    00000B22 DD 7E F8         [19] 2399 	ld	a, -8 (ix)
    00000B25 DD 77 FC         [19] 2400 	ld	-4 (ix), a
    00000B28 DD 7E F9         [19] 2401 	ld	a, -7 (ix)
    00000B2B DD 77 FD         [19] 2402 	ld	-3 (ix), a
    00000B2E DD 6E FC         [19] 2403 	ld	l, -4 (ix)
    00000B31 DD 66 FD         [19] 2404 	ld	h, -3 (ix)
    00000B34 23               [ 6] 2405 	inc	hl
    00000B35 23               [ 6] 2406 	inc	hl
    00000B36 7E               [ 7] 2407 	ld	a, (hl)
    00000B37 DD 77 FC         [19] 2408 	ld	-4 (ix), a
    00000B3A 23               [ 6] 2409 	inc	hl
    00000B3B 7E               [ 7] 2410 	ld	a, (hl)
    00000B3C DD 77 FD         [19] 2411 	ld	-3 (ix), a
    00000B3F C1               [10] 2412 	pop	bc
    00000B40 E1               [10] 2413 	pop	hl
    00000B41 E5               [11] 2414 	push	hl
    00000B42 C5               [11] 2415 	push	bc
    00000B43 DD 7E FC         [19] 2416 	ld	a, -4 (ix)
    00000B46 77               [ 7] 2417 	ld	(hl), a
    00000B47 23               [ 6] 2418 	inc	hl
    00000B48 DD 7E FD         [19] 2419 	ld	a, -3 (ix)
    00000B4B 77               [ 7] 2420 	ld	(hl), a
                                   2421 ;E:\Dropbox\FAUSTO\SVILUPPI\MSX\CODE\C\MSXgl\projects\exsoccer/exsoccer_s1_b2.c:416: g_Players[i].TargetY = g_Players[i].Y;
    00000B4C DD 7E F8         [19] 2422 	ld	a, -8 (ix)
    00000B4F C6 0E            [ 7] 2423 	add	a, #0x0e
    00000B51 5F               [ 4] 2424 	ld	e, a
    00000B52 DD 7E F9         [19] 2425 	ld	a, -7 (ix)
    00000B55 CE 00            [ 7] 2426 	adc	a, #0x00
    00000B57 57               [ 4] 2427 	ld	d, a
    00000B58 E1               [10] 2428 	pop	hl
    00000B59 E5               [11] 2429 	push	hl
    00000B5A 4E               [ 7] 2430 	ld	c, (hl)
    00000B5B 23               [ 6] 2431 	inc	hl
    00000B5C 46               [ 7] 2432 	ld	b, (hl)
    00000B5D 6B               [ 4] 2433 	ld	l, e
    00000B5E 62               [ 4] 2434 	ld	h, d
    00000B5F 71               [ 7] 2435 	ld	(hl), c
    00000B60 23               [ 6] 2436 	inc	hl
    00000B61 70               [ 7] 2437 	ld	(hl), b
                                   2438 ;E:\Dropbox\FAUSTO\SVILUPPI\MSX\CODE\C\MSXgl\projects\exsoccer/exsoccer_s1_b2.c:418: if (g_Players[i].TargetX < FIELD_BOUND_X_LEFT) g_Players[i].TargetX = FIELD_BOUND_X_LEFT;
    00000B62 DD 7E FC         [19] 2439 	ld	a, -4 (ix)
    00000B65 DD 46 FD         [19] 2440 	ld	b, -3 (ix)
    00000B68 D6 0A            [ 7] 2441 	sub	a, #0x0a
    00000B6A 78               [ 4] 2442 	ld	a, b
    00000B6B DE 00            [ 7] 2443 	sbc	a, #0x00
    00000B6D 30 09            [12] 2444 	jr	NC, 00102$
    00000B6F C1               [10] 2445 	pop	bc
    00000B70 E1               [10] 2446 	pop	hl
    00000B71 E5               [11] 2447 	push	hl
    00000B72 C5               [11] 2448 	push	bc
    00000B73 36 0A            [10] 2449 	ld	(hl), #0x0a
    00000B75 23               [ 6] 2450 	inc	hl
    00000B76 36 00            [10] 2451 	ld	(hl), #0x00
    00000B78                       2452 00102$:
                                   2453 ;E:\Dropbox\FAUSTO\SVILUPPI\MSX\CODE\C\MSXgl\projects\exsoccer/exsoccer_s1_b2.c:419: if (g_Players[i].TargetX > FIELD_BOUND_X_RIGHT) g_Players[i].TargetX = FIELD_BOUND_X_RIGHT;
    00000B78 DD 6E FA         [19] 2454 	ld	l, -6 (ix)
    00000B7B DD 66 FB         [19] 2455 	ld	h, -5 (ix)
    00000B7E 4E               [ 7] 2456 	ld	c, (hl)
    00000B7F 23               [ 6] 2457 	inc	hl
    00000B80 46               [ 7] 2458 	ld	b, (hl)
    00000B81 3E EC            [ 7] 2459 	ld	a, #0xec
    00000B83 B9               [ 4] 2460 	cp	a, c
    00000B84 3E 00            [ 7] 2461 	ld	a, #0x00
    00000B86 98               [ 4] 2462 	sbc	a, b
    00000B87 30 09            [12] 2463 	jr	NC, 00104$
    00000B89 C1               [10] 2464 	pop	bc
    00000B8A E1               [10] 2465 	pop	hl
    00000B8B E5               [11] 2466 	push	hl
    00000B8C C5               [11] 2467 	push	bc
    00000B8D 36 EC            [10] 2468 	ld	(hl), #0xec
    00000B8F 23               [ 6] 2469 	inc	hl
    00000B90 36 00            [10] 2470 	ld	(hl), #0x00
    00000B92                       2471 00104$:
                                   2472 ;E:\Dropbox\FAUSTO\SVILUPPI\MSX\CODE\C\MSXgl\projects\exsoccer/exsoccer_s1_b2.c:420: if (g_Players[i].TargetY < FIELD_BOUND_Y_TOP) g_Players[i].TargetY = FIELD_BOUND_Y_TOP;
    00000B92 6B               [ 4] 2473 	ld	l, e
    00000B93 62               [ 4] 2474 	ld	h, d
    00000B94 4E               [ 7] 2475 	ld	c, (hl)
    00000B95 23               [ 6] 2476 	inc	hl
    00000B96 46               [ 7] 2477 	ld	b, (hl)
    00000B97 79               [ 4] 2478 	ld	a, c
    00000B98 D6 32            [ 7] 2479 	sub	a, #0x32
    00000B9A 78               [ 4] 2480 	ld	a, b
    00000B9B DE 00            [ 7] 2481 	sbc	a, #0x00
    00000B9D 30 07            [12] 2482 	jr	NC, 00106$
    00000B9F 6B               [ 4] 2483 	ld	l, e
    00000BA0 62               [ 4] 2484 	ld	h, d
    00000BA1 36 32            [10] 2485 	ld	(hl), #0x32
    00000BA3 23               [ 6] 2486 	inc	hl
    00000BA4 36 00            [10] 2487 	ld	(hl), #0x00
    00000BA6                       2488 00106$:
                                   2489 ;E:\Dropbox\FAUSTO\SVILUPPI\MSX\CODE\C\MSXgl\projects\exsoccer/exsoccer_s1_b2.c:421: if (g_Players[i].TargetY > FIELD_BOUND_Y_BOTTOM) g_Players[i].TargetY = FIELD_BOUND_Y_BOTTOM;
    00000BA6 6B               [ 4] 2490 	ld	l, e
    00000BA7 62               [ 4] 2491 	ld	h, d
    00000BA8 4E               [ 7] 2492 	ld	c, (hl)
    00000BA9 23               [ 6] 2493 	inc	hl
    00000BAA 46               [ 7] 2494 	ld	b, (hl)
    00000BAB 3E AE            [ 7] 2495 	ld	a, #0xae
    00000BAD B9               [ 4] 2496 	cp	a, c
    00000BAE 3E 01            [ 7] 2497 	ld	a, #0x01
    00000BB0 98               [ 4] 2498 	sbc	a, b
    00000BB1 30 07            [12] 2499 	jr	NC, 00108$
    00000BB3 3E AE            [ 7] 2500 	ld	a, #0xae
    00000BB5 12               [ 7] 2501 	ld	(de), a
    00000BB6 13               [ 6] 2502 	inc	de
    00000BB7 3E 01            [ 7] 2503 	ld	a, #0x01
    00000BB9 12               [ 7] 2504 	ld	(de), a
    00000BBA                       2505 00108$:
                                   2506 ;E:\Dropbox\FAUSTO\SVILUPPI\MSX\CODE\C\MSXgl\projects\exsoccer/exsoccer_s1_b2.c:423: g_Players[i].Status = PLAYER_STATUS_NONE;
    00000BBA E1               [10] 2507 	pop	hl
    00000BBB E5               [11] 2508 	push	hl
    00000BBC 11 12 00         [10] 2509 	ld	de, #0x0012
    00000BBF 19               [11] 2510 	add	hl, de
    00000BC0 AF               [ 4] 2511 	xor	a, a
    00000BC1 77               [ 7] 2512 	ld	(hl), a
    00000BC2 23               [ 6] 2513 	inc	hl
    00000BC3 77               [ 7] 2514 	ld	(hl), a
                                   2515 ;E:\Dropbox\FAUSTO\SVILUPPI\MSX\CODE\C\MSXgl\projects\exsoccer/exsoccer_s1_b2.c:414: for(i=0; i<14; i++) {
    00000BC4 DD 34 FF         [23] 2516 	inc	-1 (ix)
    00000BC7 DD 7E FF         [19] 2517 	ld	a, -1 (ix)
    00000BCA D6 0E            [ 7] 2518 	sub	a, #0x0e
    00000BCC DAr00r0B         [10] 2519 	jp	C, 00110$
                                   2520 ;E:\Dropbox\FAUSTO\SVILUPPI\MSX\CODE\C\MSXgl\projects\exsoccer/exsoccer_s1_b2.c:425: }
    00000BCF DD F9            [10] 2521 	ld	sp, ix
    00000BD1 DD E1            [14] 2522 	pop	ix
    00000BD3 C9               [10] 2523 	ret
    00000BD4                       2524 ___str_2:
    00000BD4 54 48 52 4F 57 20 49  2525 	.ascii "THROW IN"
             4E
    00000BDC 00                    2526 	.db 0x00
                                   2527 ;E:\Dropbox\FAUSTO\SVILUPPI\MSX\CODE\C\MSXgl\projects\exsoccer/exsoccer_s1_b2.c:427: void CornerKick(u8 teamId){
                                   2528 ;	---------------------------------
                                   2529 ; Function CornerKick
                                   2530 ; ---------------------------------
    00000BDD                       2531 _CornerKick::
    00000BDD DD E5            [15] 2532 	push	ix
    00000BDF DD 21 00 00      [14] 2533 	ld	ix,#0
    00000BE3 DD 39            [15] 2534 	add	ix,sp
    00000BE5 21 E7 FF         [10] 2535 	ld	hl, #-25
    00000BE8 39               [11] 2536 	add	hl, sp
    00000BE9 F9               [ 6] 2537 	ld	sp, hl
    00000BEA DD 77 FE         [19] 2538 	ld	-2 (ix), a
                                   2539 ;E:\Dropbox\FAUSTO\SVILUPPI\MSX\CODE\C\MSXgl\projects\exsoccer/exsoccer_s1_b2.c:429: V9_PrintLayerAStringAtPos(10,12,"CORNER KICK");
    00000BED 21r13r10         [10] 2540 	ld	hl, #___str_3
    00000BF0 E5               [11] 2541 	push	hl
    00000BF1 2E 0C            [ 7] 2542 	ld	l, #0x0c
                                   2543 ;	spillPairReg hl
                                   2544 ;	spillPairReg hl
    00000BF3 3E 0A            [ 7] 2545 	ld	a, #0x0a
    00000BF5 CDr00r00         [17] 2546 	call	_V9_PrintLayerAStringAtPos
                                   2547 ;E:\Dropbox\FAUSTO\SVILUPPI\MSX\CODE\C\MSXgl\projects\exsoccer/exsoccer_s1_b2.c:430: PlayPcm(SOUND_CORNERKICK);
    00000BF8 3E 03            [ 7] 2548 	ld	a, #0x03
    00000BFA CDr00r00         [17] 2549 	call	_PlayPcm
                                   2550 ;E:\Dropbox\FAUSTO\SVILUPPI\MSX\CODE\C\MSXgl\projects\exsoccer/exsoccer_s1_b2.c:431: g_MatchStatus=MATCH_BEFORE_CORNER_KICK;
    00000BFD 21r00r00         [10] 2551 	ld	hl, #_g_MatchStatus
    00000C00 36 02            [10] 2552 	ld	(hl), #0x02
                                   2553 ;E:\Dropbox\FAUSTO\SVILUPPI\MSX\CODE\C\MSXgl\projects\exsoccer/exsoccer_s1_b2.c:432: g_RestartKickTeamId = teamId;
    00000C02 DD 7E FE         [19] 2554 	ld	a, -2 (ix)
    00000C05 32r00r00         [13] 2555 	ld	(_g_RestartKickTeamId+0), a
                                   2556 ;E:\Dropbox\FAUSTO\SVILUPPI\MSX\CODE\C\MSXgl\projects\exsoccer/exsoccer_s1_b2.c:433: g_CornerKickTargetId = NO_VALUE;
    00000C08 21r00r00         [10] 2557 	ld	hl, #_g_CornerKickTargetId
    00000C0B 36 FF            [10] 2558 	ld	(hl), #0xff
                                   2559 ;E:\Dropbox\FAUSTO\SVILUPPI\MSX\CODE\C\MSXgl\projects\exsoccer/exsoccer_s1_b2.c:434: g_Timer = 0;
    00000C0D 21r00r00         [10] 2560 	ld	hl, #_g_Timer
    00000C10 36 00            [10] 2561 	ld	(hl), #0x00
                                   2562 ;E:\Dropbox\FAUSTO\SVILUPPI\MSX\CODE\C\MSXgl\projects\exsoccer/exsoccer_s1_b2.c:437: if (g_Ball.X < FIELD_POS_X_CENTER) g_CornerKickSide = CORNER_SIDE_LEFT;
    00000C12 01r00r00         [10] 2563 	ld	bc, #_g_Ball+0
    00000C15 2Ar02r00         [16] 2564 	ld	hl, (#(_g_Ball + 2) + 0)
    00000C18 11 78 00         [10] 2565 	ld	de, #0x0078
    00000C1B BF               [ 4] 2566 	cp	a, a
    00000C1C ED 52            [15] 2567 	sbc	hl, de
    00000C1E 30 08            [12] 2568 	jr	NC, 00102$
    00000C20 21r00r00         [10] 2569 	ld	hl, #_g_CornerKickSide
    00000C23 36 00            [10] 2570 	ld	(hl), #0x00
    00000C25 C3r30r0C         [10] 2571 	jp	00103$
    00000C28                       2572 00102$:
                                   2573 ;E:\Dropbox\FAUSTO\SVILUPPI\MSX\CODE\C\MSXgl\projects\exsoccer/exsoccer_s1_b2.c:438: else g_CornerKickSide = CORNER_SIDE_RIGHT;
    00000C28 21r00r00         [10] 2574 	ld	hl, #_g_CornerKickSide
    00000C2B 36 01            [10] 2575 	ld	(hl), #0x01
                                   2576 ;E:\Dropbox\FAUSTO\SVILUPPI\MSX\CODE\C\MSXgl\projects\exsoccer/exsoccer_s1_b2.c:443: u16 kickX = (g_CornerKickSide == CORNER_SIDE_LEFT) ? FIELD_BOUND_X_LEFT : FIELD_BOUND_X_RIGHT;
    00000C2D C3r36r0C         [10] 2577 	jp	00155$
                                   2578 ;E:\Dropbox\FAUSTO\SVILUPPI\MSX\CODE\C\MSXgl\projects\exsoccer/exsoccer_s1_b2.c:438: else g_CornerKickSide = CORNER_SIDE_RIGHT;
    00000C30                       2579 00103$:
                                   2580 ;E:\Dropbox\FAUSTO\SVILUPPI\MSX\CODE\C\MSXgl\projects\exsoccer/exsoccer_s1_b2.c:443: u16 kickX = (g_CornerKickSide == CORNER_SIDE_LEFT) ? FIELD_BOUND_X_LEFT : FIELD_BOUND_X_RIGHT;
    00000C30 11 0A 00         [10] 2581 	ld	de, #0x000a
    00000C33 C3r39r0C         [10] 2582 	jp	00156$
    00000C36                       2583 00155$:
    00000C36 11 EC 00         [10] 2584 	ld	de, #0x00ec
    00000C39                       2585 00156$:
    00000C39 DD 73 E9         [19] 2586 	ld	-23 (ix), e
    00000C3C DD 72 EA         [19] 2587 	ld	-22 (ix), d
                                   2588 ;E:\Dropbox\FAUSTO\SVILUPPI\MSX\CODE\C\MSXgl\projects\exsoccer/exsoccer_s1_b2.c:444: u16 kickY = (teamId == TEAM_1) ? FIELD_BOUND_Y_TOP : FIELD_BOUND_Y_BOTTOM;
    00000C3F DD 7E FE         [19] 2589 	ld	a, -2 (ix)
    00000C42 3D               [ 4] 2590 	dec	a
    00000C43 3E 01            [ 7] 2591 	ld	a, #0x01
    00000C45 28 01            [12] 2592 	jr	Z, 00323$
    00000C47 AF               [ 4] 2593 	xor	a, a
    00000C48                       2594 00323$:
    00000C48 DD 77 FD         [19] 2595 	ld	-3 (ix), a
    00000C4B B7               [ 4] 2596 	or	a, a
    00000C4C 28 06            [12] 2597 	jr	Z, 00157$
    00000C4E 11 32 00         [10] 2598 	ld	de, #0x0032
    00000C51 C3r57r0C         [10] 2599 	jp	00158$
    00000C54                       2600 00157$:
    00000C54 11 AE 01         [10] 2601 	ld	de, #0x01ae
    00000C57                       2602 00158$:
    00000C57 DD 73 EB         [19] 2603 	ld	-21 (ix), e
    00000C5A DD 72 EC         [19] 2604 	ld	-20 (ix), d
                                   2605 ;E:\Dropbox\FAUSTO\SVILUPPI\MSX\CODE\C\MSXgl\projects\exsoccer/exsoccer_s1_b2.c:447: if (teamId == TEAM_1) ShowFieldZone(FIELD_NORTH_ZONE);
    00000C5D DD 7E FD         [19] 2606 	ld	a, -3 (ix)
    00000C60 B7               [ 4] 2607 	or	a, a
    00000C61 28 09            [12] 2608 	jr	Z, 00105$
    00000C63 C5               [11] 2609 	push	bc
    00000C64 AF               [ 4] 2610 	xor	a, a
    00000C65 CDr00r00         [17] 2611 	call	_ShowFieldZone
    00000C68 C1               [10] 2612 	pop	bc
    00000C69 C3r73r0C         [10] 2613 	jp	00106$
    00000C6C                       2614 00105$:
                                   2615 ;E:\Dropbox\FAUSTO\SVILUPPI\MSX\CODE\C\MSXgl\projects\exsoccer/exsoccer_s1_b2.c:448: else ShowFieldZone(FIELD_SOUTH_ZONE);
    00000C6C C5               [11] 2616 	push	bc
    00000C6D 3E 02            [ 7] 2617 	ld	a, #0x02
    00000C6F CDr00r00         [17] 2618 	call	_ShowFieldZone
    00000C72 C1               [10] 2619 	pop	bc
    00000C73                       2620 00106$:
                                   2621 ;E:\Dropbox\FAUSTO\SVILUPPI\MSX\CODE\C\MSXgl\projects\exsoccer/exsoccer_s1_b2.c:452: if (g_CornerKickSide == CORNER_SIDE_LEFT) kickerId = GetPlayerIdByRole(teamId, PLAYER_ROLE_LEFT_STRIKER);
    00000C73 3Ar00r00         [13] 2622 	ld	a, (_g_CornerKickSide+0)
    00000C76 B7               [ 4] 2623 	or	a, a
    00000C77 20 10            [12] 2624 	jr	NZ, 00108$
    00000C79 C5               [11] 2625 	push	bc
    00000C7A 2E 05            [ 7] 2626 	ld	l, #0x05
                                   2627 ;	spillPairReg hl
                                   2628 ;	spillPairReg hl
    00000C7C DD 7E FE         [19] 2629 	ld	a, -2 (ix)
    00000C7F CDr00r00         [17] 2630 	call	_GetPlayerIdByRole
    00000C82 C1               [10] 2631 	pop	bc
    00000C83 DD 77 ED         [19] 2632 	ld	-19 (ix), a
    00000C86 C3r96r0C         [10] 2633 	jp	00109$
    00000C89                       2634 00108$:
                                   2635 ;E:\Dropbox\FAUSTO\SVILUPPI\MSX\CODE\C\MSXgl\projects\exsoccer/exsoccer_s1_b2.c:453: else kickerId = GetPlayerIdByRole(teamId, PLAYER_ROLE_RIGHT_STRIKER);
    00000C89 C5               [11] 2636 	push	bc
    00000C8A 2E 06            [ 7] 2637 	ld	l, #0x06
                                   2638 ;	spillPairReg hl
                                   2639 ;	spillPairReg hl
    00000C8C DD 7E FE         [19] 2640 	ld	a, -2 (ix)
    00000C8F CDr00r00         [17] 2641 	call	_GetPlayerIdByRole
    00000C92 C1               [10] 2642 	pop	bc
    00000C93 DD 77 ED         [19] 2643 	ld	-19 (ix), a
    00000C96                       2644 00109$:
                                   2645 ;E:\Dropbox\FAUSTO\SVILUPPI\MSX\CODE\C\MSXgl\projects\exsoccer/exsoccer_s1_b2.c:456: g_Ball.PossessionPlayerId = NO_VALUE; 
    00000C96 21r06r00         [10] 2646 	ld	hl, #(_g_Ball + 6)
    00000C99 36 FF            [10] 2647 	ld	(hl), #0xff
                                   2648 ;E:\Dropbox\FAUSTO\SVILUPPI\MSX\CODE\C\MSXgl\projects\exsoccer/exsoccer_s1_b2.c:457: SetPlayerBallPossession(NO_VALUE);
    00000C9B C5               [11] 2649 	push	bc
    00000C9C 3E FF            [ 7] 2650 	ld	a, #0xff
    00000C9E CDr00r00         [17] 2651 	call	_SetPlayerBallPossession
    00000CA1 C1               [10] 2652 	pop	bc
                                   2653 ;E:\Dropbox\FAUSTO\SVILUPPI\MSX\CODE\C\MSXgl\projects\exsoccer/exsoccer_s1_b2.c:458: if(teamId == TEAM_1) g_Team1ActivePlayer = kickerId; // Ensure kicker is selected active
    00000CA2 DD 7E FD         [19] 2654 	ld	a, -3 (ix)
    00000CA5 B7               [ 4] 2655 	or	a, a
    00000CA6 28 09            [12] 2656 	jr	Z, 00111$
    00000CA8 DD 7E ED         [19] 2657 	ld	a, -19 (ix)
    00000CAB 32r00r00         [13] 2658 	ld	(_g_Team1ActivePlayer+0), a
    00000CAE C3rB7r0C         [10] 2659 	jp	00112$
    00000CB1                       2660 00111$:
                                   2661 ;E:\Dropbox\FAUSTO\SVILUPPI\MSX\CODE\C\MSXgl\projects\exsoccer/exsoccer_s1_b2.c:459: else g_Team2ActivePlayer = kickerId;
    00000CB1 DD 7E ED         [19] 2662 	ld	a, -19 (ix)
    00000CB4 32r00r00         [13] 2663 	ld	(_g_Team2ActivePlayer+0), a
    00000CB7                       2664 00112$:
                                   2665 ;E:\Dropbox\FAUSTO\SVILUPPI\MSX\CODE\C\MSXgl\projects\exsoccer/exsoccer_s1_b2.c:467: i8 offX = 0; i8 offY = 0;
    00000CB7 2E 00            [ 7] 2666 	ld	l, #0x00
                                   2667 ;	spillPairReg hl
                                   2668 ;	spillPairReg hl
    00000CB9 DD 36 FF 00      [19] 2669 	ld	-1 (ix), #0x00
                                   2670 ;E:\Dropbox\FAUSTO\SVILUPPI\MSX\CODE\C\MSXgl\projects\exsoccer/exsoccer_s1_b2.c:468: if (teamId == TEAM_2 && g_CornerKickSide == CORNER_SIDE_RIGHT) {
    00000CBD DD 7E FE         [19] 2671 	ld	a, -2 (ix)
    00000CC0 D6 02            [ 7] 2672 	sub	a, #0x02
    00000CC2 20 0C            [12] 2673 	jr	NZ, 00114$
    00000CC4 3Ar00r00         [13] 2674 	ld	a, (_g_CornerKickSide+0)
    00000CC7 3D               [ 4] 2675 	dec	a
    00000CC8 20 06            [12] 2676 	jr	NZ, 00114$
                                   2677 ;E:\Dropbox\FAUSTO\SVILUPPI\MSX\CODE\C\MSXgl\projects\exsoccer/exsoccer_s1_b2.c:469: offX = -30;
    00000CCA 2E E2            [ 7] 2678 	ld	l, #0xe2
                                   2679 ;	spillPairReg hl
                                   2680 ;	spillPairReg hl
                                   2681 ;E:\Dropbox\FAUSTO\SVILUPPI\MSX\CODE\C\MSXgl\projects\exsoccer/exsoccer_s1_b2.c:470: offY = -5;
    00000CCC DD 36 FF FB      [19] 2682 	ld	-1 (ix), #0xfb
    00000CD0                       2683 00114$:
                                   2684 ;E:\Dropbox\FAUSTO\SVILUPPI\MSX\CODE\C\MSXgl\projects\exsoccer/exsoccer_s1_b2.c:473: g_Ball.X = kickX + offX;
    00000CD0 7D               [ 4] 2685 	ld	a, l
    00000CD1 07               [ 4] 2686 	rlca
    00000CD2 9F               [ 4] 2687 	sbc	a, a
    00000CD3 67               [ 4] 2688 	ld	h, a
                                   2689 ;	spillPairReg hl
                                   2690 ;	spillPairReg hl
    00000CD4 DD 5E E9         [19] 2691 	ld	e, -23 (ix)
    00000CD7 DD 56 EA         [19] 2692 	ld	d, -22 (ix)
    00000CDA 19               [11] 2693 	add	hl, de
    00000CDB EB               [ 4] 2694 	ex	de, hl
    00000CDC ED 53r02r00      [20] 2695 	ld	((_g_Ball + 2)), de
                                   2696 ;E:\Dropbox\FAUSTO\SVILUPPI\MSX\CODE\C\MSXgl\projects\exsoccer/exsoccer_s1_b2.c:474: g_Ball.Y = kickY + offY;
    00000CE0 DD 7E FF         [19] 2697 	ld	a, -1 (ix)
    00000CE3 6F               [ 4] 2698 	ld	l, a
                                   2699 ;	spillPairReg hl
                                   2700 ;	spillPairReg hl
    00000CE4 07               [ 4] 2701 	rlca
    00000CE5 9F               [ 4] 2702 	sbc	a, a
    00000CE6 67               [ 4] 2703 	ld	h, a
                                   2704 ;	spillPairReg hl
                                   2705 ;	spillPairReg hl
    00000CE7 DD 5E EB         [19] 2706 	ld	e, -21 (ix)
    00000CEA DD 56 EC         [19] 2707 	ld	d, -20 (ix)
    00000CED 19               [11] 2708 	add	hl, de
    00000CEE EB               [ 4] 2709 	ex	de, hl
    00000CEF 69               [ 4] 2710 	ld	l, c
    00000CF0 60               [ 4] 2711 	ld	h, b
    00000CF1 73               [ 7] 2712 	ld	(hl), e
    00000CF2 23               [ 6] 2713 	inc	hl
    00000CF3 72               [ 7] 2714 	ld	(hl), d
                                   2715 ;E:\Dropbox\FAUSTO\SVILUPPI\MSX\CODE\C\MSXgl\projects\exsoccer/exsoccer_s1_b2.c:475: g_Ball.PreviousY = g_Ball.Y;
    00000CF4 ED 53r07r00      [20] 2716 	ld	((_g_Ball + 7)), de
                                   2717 ;E:\Dropbox\FAUSTO\SVILUPPI\MSX\CODE\C\MSXgl\projects\exsoccer/exsoccer_s1_b2.c:479: bool attackingUp = (teamId == TEAM_1);
    00000CF8 DD 7E FD         [19] 2718 	ld	a, -3 (ix)
                                   2719 ;E:\Dropbox\FAUSTO\SVILUPPI\MSX\CODE\C\MSXgl\projects\exsoccer/exsoccer_s1_b2.c:483: u16 yBoxInside     = (attackingUp) ? (FIELD_BOUND_Y_TOP + 40) : (FIELD_BOUND_Y_BOTTOM - 40);
    00000CFB DD 77 EE         [19] 2720 	ld	-18 (ix), a
    00000CFE B7               [ 4] 2721 	or	a, a
    00000CFF 28 06            [12] 2722 	jr	Z, 00161$
    00000D01 01 5A 00         [10] 2723 	ld	bc, #0x005a
    00000D04 C3r0Ar0D         [10] 2724 	jp	00162$
    00000D07                       2725 00161$:
    00000D07 01 86 01         [10] 2726 	ld	bc, #0x0186
    00000D0A                       2727 00162$:
    00000D0A DD 71 EF         [19] 2728 	ld	-17 (ix), c
    00000D0D DD 70 F0         [19] 2729 	ld	-16 (ix), b
                                   2730 ;E:\Dropbox\FAUSTO\SVILUPPI\MSX\CODE\C\MSXgl\projects\exsoccer/exsoccer_s1_b2.c:484: u16 yBoxOutside    = (attackingUp) ? (FIELD_BOUND_Y_TOP + 90) : (FIELD_BOUND_Y_BOTTOM - 90);
    00000D10 DD 7E EE         [19] 2731 	ld	a, -18 (ix)
    00000D13 B7               [ 4] 2732 	or	a, a
    00000D14 28 06            [12] 2733 	jr	Z, 00163$
    00000D16 01 8C 00         [10] 2734 	ld	bc, #0x008c
    00000D19 C3r1Fr0D         [10] 2735 	jp	00164$
    00000D1C                       2736 00163$:
    00000D1C 01 54 01         [10] 2737 	ld	bc, #0x0154
    00000D1F                       2738 00164$:
    00000D1F DD 71 F1         [19] 2739 	ld	-15 (ix), c
    00000D22 DD 70 F2         [19] 2740 	ld	-14 (ix), b
                                   2741 ;E:\Dropbox\FAUSTO\SVILUPPI\MSX\CODE\C\MSXgl\projects\exsoccer/exsoccer_s1_b2.c:485: u16 yMidfieldAdv   = (attackingUp) ? (FIELD_BOUND_Y_TOP + 160) : (FIELD_BOUND_Y_BOTTOM - 160);
    00000D25 DD 7E EE         [19] 2742 	ld	a, -18 (ix)
    00000D28 B7               [ 4] 2743 	or	a, a
    00000D29 28 06            [12] 2744 	jr	Z, 00165$
    00000D2B 01 D2 00         [10] 2745 	ld	bc, #0x00d2
    00000D2E C3r34r0D         [10] 2746 	jp	00166$
    00000D31                       2747 00165$:
    00000D31 01 0E 01         [10] 2748 	ld	bc, #0x010e
    00000D34                       2749 00166$:
    00000D34 DD 71 F3         [19] 2750 	ld	-13 (ix), c
    00000D37 DD 70 F4         [19] 2751 	ld	-12 (ix), b
                                   2752 ;E:\Dropbox\FAUSTO\SVILUPPI\MSX\CODE\C\MSXgl\projects\exsoccer/exsoccer_s1_b2.c:487: u16 ySafety        = (attackingUp) ? (FIELD_BOUND_Y_BOTTOM - 100) : (FIELD_BOUND_Y_TOP + 100);
    00000D3A DD 7E EE         [19] 2753 	ld	a, -18 (ix)
    00000D3D B7               [ 4] 2754 	or	a, a
    00000D3E 28 06            [12] 2755 	jr	Z, 00167$
    00000D40 01 4A 01         [10] 2756 	ld	bc, #0x014a
    00000D43 C3r49r0D         [10] 2757 	jp	00168$
    00000D46                       2758 00167$:
    00000D46 01 96 00         [10] 2759 	ld	bc, #0x0096
    00000D49                       2760 00168$:
    00000D49 DD 71 F5         [19] 2761 	ld	-11 (ix), c
    00000D4C DD 70 F6         [19] 2762 	ld	-10 (ix), b
                                   2763 ;E:\Dropbox\FAUSTO\SVILUPPI\MSX\CODE\C\MSXgl\projects\exsoccer/exsoccer_s1_b2.c:489: for(u8 i=0; i<14; i++) {
    00000D4F DD 36 FF 00      [19] 2764 	ld	-1 (ix), #0x00
    00000D53                       2765 00152$:
    00000D53 DD 7E FF         [19] 2766 	ld	a, -1 (ix)
    00000D56 D6 0E            [ 7] 2767 	sub	a, #0x0e
    00000D58 D2r0Er10         [10] 2768 	jp	NC, 00153$
                                   2769 ;E:\Dropbox\FAUSTO\SVILUPPI\MSX\CODE\C\MSXgl\projects\exsoccer/exsoccer_s1_b2.c:490: g_Players[i].Status = PLAYER_STATUS_NONE;
    00000D5B DD 4E FF         [19] 2770 	ld	c, -1 (ix)
    00000D5E 06 00            [ 7] 2771 	ld	b, #0x00
    00000D60 69               [ 4] 2772 	ld	l, c
    00000D61 60               [ 4] 2773 	ld	h, b
    00000D62 29               [11] 2774 	add	hl, hl
    00000D63 29               [11] 2775 	add	hl, hl
    00000D64 09               [11] 2776 	add	hl, bc
    00000D65 29               [11] 2777 	add	hl, hl
    00000D66 29               [11] 2778 	add	hl, hl
    00000D67 09               [11] 2779 	add	hl, bc
    00000D68 DD 75 FA         [19] 2780 	ld	-6 (ix), l
    00000D6B DD 74 FB         [19] 2781 	ld	-5 (ix), h
    00000D6E DD 7E FA         [19] 2782 	ld	a, -6 (ix)
    00000D71 C6r00            [ 7] 2783 	add	a, #<(_g_Players)
    00000D73 DD 77 FC         [19] 2784 	ld	-4 (ix), a
    00000D76 DD 7E FB         [19] 2785 	ld	a, -5 (ix)
    00000D79 CEs00            [ 7] 2786 	adc	a, #>(_g_Players)
    00000D7B DD 77 FD         [19] 2787 	ld	-3 (ix), a
    00000D7E DD 7E FC         [19] 2788 	ld	a, -4 (ix)
    00000D81 C6 12            [ 7] 2789 	add	a, #0x12
    00000D83 DD 77 FA         [19] 2790 	ld	-6 (ix), a
    00000D86 DD 7E FD         [19] 2791 	ld	a, -3 (ix)
    00000D89 CE 00            [ 7] 2792 	adc	a, #0x00
    00000D8B DD 77 FB         [19] 2793 	ld	-5 (ix), a
    00000D8E DD 6E FA         [19] 2794 	ld	l, -6 (ix)
    00000D91 DD 66 FB         [19] 2795 	ld	h, -5 (ix)
    00000D94 AF               [ 4] 2796 	xor	a, a
    00000D95 77               [ 7] 2797 	ld	(hl), a
    00000D96 23               [ 6] 2798 	inc	hl
    00000D97 77               [ 7] 2799 	ld	(hl), a
                                   2800 ;E:\Dropbox\FAUSTO\SVILUPPI\MSX\CODE\C\MSXgl\projects\exsoccer/exsoccer_s1_b2.c:491: g_Players[i].TargetX = g_Players[i].X;
    00000D98 DD 7E FC         [19] 2801 	ld	a, -4 (ix)
    00000D9B C6 10            [ 7] 2802 	add	a, #0x10
    00000D9D DD 77 F7         [19] 2803 	ld	-9 (ix), a
    00000DA0 DD 7E FD         [19] 2804 	ld	a, -3 (ix)
    00000DA3 CE 00            [ 7] 2805 	adc	a, #0x00
    00000DA5 DD 77 F8         [19] 2806 	ld	-8 (ix), a
    00000DA8 DD 7E FC         [19] 2807 	ld	a, -4 (ix)
    00000DAB DD 77 FA         [19] 2808 	ld	-6 (ix), a
    00000DAE DD 7E FD         [19] 2809 	ld	a, -3 (ix)
    00000DB1 DD 77 FB         [19] 2810 	ld	-5 (ix), a
    00000DB4 DD 6E FA         [19] 2811 	ld	l, -6 (ix)
    00000DB7 DD 66 FB         [19] 2812 	ld	h, -5 (ix)
    00000DBA 23               [ 6] 2813 	inc	hl
    00000DBB 23               [ 6] 2814 	inc	hl
    00000DBC 7E               [ 7] 2815 	ld	a, (hl)
    00000DBD DD 77 FA         [19] 2816 	ld	-6 (ix), a
    00000DC0 23               [ 6] 2817 	inc	hl
    00000DC1 7E               [ 7] 2818 	ld	a, (hl)
    00000DC2 DD 77 FB         [19] 2819 	ld	-5 (ix), a
    00000DC5 DD 6E F7         [19] 2820 	ld	l, -9 (ix)
    00000DC8 DD 66 F8         [19] 2821 	ld	h, -8 (ix)
    00000DCB DD 7E FA         [19] 2822 	ld	a, -6 (ix)
    00000DCE 77               [ 7] 2823 	ld	(hl), a
    00000DCF 23               [ 6] 2824 	inc	hl
    00000DD0 DD 7E FB         [19] 2825 	ld	a, -5 (ix)
    00000DD3 77               [ 7] 2826 	ld	(hl), a
                                   2827 ;E:\Dropbox\FAUSTO\SVILUPPI\MSX\CODE\C\MSXgl\projects\exsoccer/exsoccer_s1_b2.c:492: g_Players[i].TargetY = g_Players[i].Y;
    00000DD4 DD 7E FC         [19] 2828 	ld	a, -4 (ix)
    00000DD7 C6 0E            [ 7] 2829 	add	a, #0x0e
    00000DD9 DD 77 F9         [19] 2830 	ld	-7 (ix), a
    00000DDC DD 7E FD         [19] 2831 	ld	a, -3 (ix)
    00000DDF CE 00            [ 7] 2832 	adc	a, #0x00
    00000DE1 DD 77 FA         [19] 2833 	ld	-6 (ix), a
    00000DE4 DD 6E FC         [19] 2834 	ld	l, -4 (ix)
    00000DE7 DD 66 FD         [19] 2835 	ld	h, -3 (ix)
    00000DEA 4E               [ 7] 2836 	ld	c, (hl)
    00000DEB 23               [ 6] 2837 	inc	hl
    00000DEC 46               [ 7] 2838 	ld	b, (hl)
    00000DED DD 6E F9         [19] 2839 	ld	l, -7 (ix)
    00000DF0 DD 66 FA         [19] 2840 	ld	h, -6 (ix)
    00000DF3 71               [ 7] 2841 	ld	(hl), c
    00000DF4 23               [ 6] 2842 	inc	hl
    00000DF5 70               [ 7] 2843 	ld	(hl), b
                                   2844 ;E:\Dropbox\FAUSTO\SVILUPPI\MSX\CODE\C\MSXgl\projects\exsoccer/exsoccer_s1_b2.c:494: u8 role = g_Players[i].Role;
    00000DF6 DD 7E FC         [19] 2845 	ld	a, -4 (ix)
    00000DF9 DD 77 E7         [19] 2846 	ld	-25 (ix), a
    00000DFC DD 7E FD         [19] 2847 	ld	a, -3 (ix)
    00000DFF DD 77 E8         [19] 2848 	ld	-24 (ix), a
    00000E02 E1               [10] 2849 	pop	hl
    00000E03 E5               [11] 2850 	push	hl
    00000E04 11 0D 00         [10] 2851 	ld	de, #0x000d
    00000E07 19               [11] 2852 	add	hl, de
    00000E08 7E               [ 7] 2853 	ld	a, (hl)
    00000E09 DD 77 FB         [19] 2854 	ld	-5 (ix), a
                                   2855 ;E:\Dropbox\FAUSTO\SVILUPPI\MSX\CODE\C\MSXgl\projects\exsoccer/exsoccer_s1_b2.c:495: bool isAttacker = (g_Players[i].TeamId == teamId);
    00000E0C DD 6E FC         [19] 2856 	ld	l, -4 (ix)
    00000E0F DD 66 FD         [19] 2857 	ld	h, -3 (ix)
    00000E12 11 09 00         [10] 2858 	ld	de, #0x0009
    00000E15 19               [11] 2859 	add	hl, de
    00000E16 DD 7E FE         [19] 2860 	ld	a,-2 (ix)
    00000E19 96               [ 7] 2861 	sub	a,(hl)
    00000E1A 3E 01            [ 7] 2862 	ld	a, #0x01
    00000E1C 28 01            [12] 2863 	jr	Z, 00329$
    00000E1E AF               [ 4] 2864 	xor	a, a
    00000E1F                       2865 00329$:
    00000E1F 4F               [ 4] 2866 	ld	c, a
                                   2867 ;E:\Dropbox\FAUSTO\SVILUPPI\MSX\CODE\C\MSXgl\projects\exsoccer/exsoccer_s1_b2.c:498: if (i == kickerId) {
    00000E20 DD 7E ED         [19] 2868 	ld	a, -19 (ix)
    00000E23 DD 96 FF         [19] 2869 	sub	a, -1 (ix)
    00000E26 20 21            [12] 2870 	jr	NZ, 00117$
                                   2871 ;E:\Dropbox\FAUSTO\SVILUPPI\MSX\CODE\C\MSXgl\projects\exsoccer/exsoccer_s1_b2.c:499: g_Players[i].TargetX = kickX;
    00000E28 DD 6E F7         [19] 2872 	ld	l, -9 (ix)
    00000E2B DD 66 F8         [19] 2873 	ld	h, -8 (ix)
    00000E2E DD 7E E9         [19] 2874 	ld	a, -23 (ix)
    00000E31 77               [ 7] 2875 	ld	(hl), a
    00000E32 23               [ 6] 2876 	inc	hl
    00000E33 DD 7E EA         [19] 2877 	ld	a, -22 (ix)
    00000E36 77               [ 7] 2878 	ld	(hl), a
                                   2879 ;E:\Dropbox\FAUSTO\SVILUPPI\MSX\CODE\C\MSXgl\projects\exsoccer/exsoccer_s1_b2.c:500: g_Players[i].TargetY = kickY;
    00000E37 DD 6E F9         [19] 2880 	ld	l, -7 (ix)
    00000E3A DD 66 FA         [19] 2881 	ld	h, -6 (ix)
    00000E3D DD 7E EB         [19] 2882 	ld	a, -21 (ix)
    00000E40 77               [ 7] 2883 	ld	(hl), a
    00000E41 23               [ 6] 2884 	inc	hl
    00000E42 DD 7E EC         [19] 2885 	ld	a, -20 (ix)
    00000E45 77               [ 7] 2886 	ld	(hl), a
                                   2887 ;E:\Dropbox\FAUSTO\SVILUPPI\MSX\CODE\C\MSXgl\projects\exsoccer/exsoccer_s1_b2.c:501: continue;
    00000E46 C3r08r10         [10] 2888 	jp	00149$
    00000E49                       2889 00117$:
                                   2890 ;E:\Dropbox\FAUSTO\SVILUPPI\MSX\CODE\C\MSXgl\projects\exsoccer/exsoccer_s1_b2.c:504: if (isAttacker) {
    00000E49 79               [ 4] 2891 	ld	a, c
    00000E4A B7               [ 4] 2892 	or	a, a
    00000E4B CAr3Cr0F         [10] 2893 	jp	Z, 00147$
                                   2894 ;E:\Dropbox\FAUSTO\SVILUPPI\MSX\CODE\C\MSXgl\projects\exsoccer/exsoccer_s1_b2.c:506: if (role == PLAYER_ROLE_GOALKEEPER) {
    00000E4E DD 7E FB         [19] 2895 	ld	a, -5 (ix)
    00000E51 B7               [ 4] 2896 	or	a, a
    00000E52 20 26            [12] 2897 	jr	NZ, 00133$
                                   2898 ;E:\Dropbox\FAUSTO\SVILUPPI\MSX\CODE\C\MSXgl\projects\exsoccer/exsoccer_s1_b2.c:508: g_Players[i].TargetX = FIELD_POS_X_CENTER;
    00000E54 DD 6E F7         [19] 2899 	ld	l, -9 (ix)
    00000E57 DD 66 F8         [19] 2900 	ld	h, -8 (ix)
    00000E5A 36 78            [10] 2901 	ld	(hl), #0x78
    00000E5C 23               [ 6] 2902 	inc	hl
    00000E5D 36 00            [10] 2903 	ld	(hl), #0x00
                                   2904 ;E:\Dropbox\FAUSTO\SVILUPPI\MSX\CODE\C\MSXgl\projects\exsoccer/exsoccer_s1_b2.c:509: g_Players[i].TargetY = (attackingUp) ? FIELD_BOUND_Y_BOTTOM - 20 : FIELD_BOUND_Y_TOP + 20;
    00000E5F DD 6E F9         [19] 2905 	ld	l, -7 (ix)
                                   2906 ;	spillPairReg hl
                                   2907 ;	spillPairReg hl
    00000E62 DD 66 FA         [19] 2908 	ld	h, -6 (ix)
                                   2909 ;	spillPairReg hl
                                   2910 ;	spillPairReg hl
    00000E65 DD 7E EE         [19] 2911 	ld	a, -18 (ix)
    00000E68 B7               [ 4] 2912 	or	a, a
    00000E69 28 06            [12] 2913 	jr	Z, 00169$
    00000E6B 11 9A 01         [10] 2914 	ld	de, #0x019a
    00000E6E C3r74r0E         [10] 2915 	jp	00170$
    00000E71                       2916 00169$:
    00000E71 11 46 00         [10] 2917 	ld	de, #0x0046
    00000E74                       2918 00170$:
    00000E74 73               [ 7] 2919 	ld	(hl), e
    00000E75 23               [ 6] 2920 	inc	hl
    00000E76 72               [ 7] 2921 	ld	(hl), d
    00000E77 C3r08r10         [10] 2922 	jp	00149$
    00000E7A                       2923 00133$:
                                   2924 ;E:\Dropbox\FAUSTO\SVILUPPI\MSX\CODE\C\MSXgl\projects\exsoccer/exsoccer_s1_b2.c:511: else if (role == PLAYER_ROLE_LEFT_DEFENDER || role == PLAYER_ROLE_RIGHT_DEFENDER) {
    00000E7A DD 7E FB         [19] 2925 	ld	a, -5 (ix)
    00000E7D 3D               [ 4] 2926 	dec	a
    00000E7E 3E 01            [ 7] 2927 	ld	a, #0x01
    00000E80 28 01            [12] 2928 	jr	Z, 00333$
    00000E82 AF               [ 4] 2929 	xor	a, a
    00000E83                       2930 00333$:
    00000E83 4F               [ 4] 2931 	ld	c, a
    00000E84 B7               [ 4] 2932 	or	a, a
    00000E85 20 07            [12] 2933 	jr	NZ, 00128$
    00000E87 DD 7E FB         [19] 2934 	ld	a, -5 (ix)
    00000E8A D6 02            [ 7] 2935 	sub	a, #0x02
    00000E8C 20 3E            [12] 2936 	jr	NZ, 00129$
    00000E8E                       2937 00128$:
                                   2938 ;E:\Dropbox\FAUSTO\SVILUPPI\MSX\CODE\C\MSXgl\projects\exsoccer/exsoccer_s1_b2.c:512: if (role == PLAYER_ROLE_LEFT_DEFENDER) {
    00000E8E 79               [ 4] 2939 	ld	a, c
    00000E8F B7               [ 4] 2940 	or	a, a
    00000E90 28 1D            [12] 2941 	jr	Z, 00119$
                                   2942 ;E:\Dropbox\FAUSTO\SVILUPPI\MSX\CODE\C\MSXgl\projects\exsoccer/exsoccer_s1_b2.c:514: g_Players[i].TargetX = FIELD_POS_X_CENTER - 30;
    00000E92 DD 6E F7         [19] 2943 	ld	l, -9 (ix)
    00000E95 DD 66 F8         [19] 2944 	ld	h, -8 (ix)
    00000E98 36 5A            [10] 2945 	ld	(hl), #0x5a
    00000E9A 23               [ 6] 2946 	inc	hl
    00000E9B 36 00            [10] 2947 	ld	(hl), #0x00
                                   2948 ;E:\Dropbox\FAUSTO\SVILUPPI\MSX\CODE\C\MSXgl\projects\exsoccer/exsoccer_s1_b2.c:515: g_Players[i].TargetY = yMidfieldAdv;
    00000E9D DD 6E F9         [19] 2949 	ld	l, -7 (ix)
    00000EA0 DD 66 FA         [19] 2950 	ld	h, -6 (ix)
    00000EA3 DD 7E F3         [19] 2951 	ld	a, -13 (ix)
    00000EA6 77               [ 7] 2952 	ld	(hl), a
    00000EA7 23               [ 6] 2953 	inc	hl
    00000EA8 DD 7E F4         [19] 2954 	ld	a, -12 (ix)
    00000EAB 77               [ 7] 2955 	ld	(hl), a
    00000EAC C3r08r10         [10] 2956 	jp	00149$
    00000EAF                       2957 00119$:
                                   2958 ;E:\Dropbox\FAUSTO\SVILUPPI\MSX\CODE\C\MSXgl\projects\exsoccer/exsoccer_s1_b2.c:518: g_Players[i].TargetX = FIELD_POS_X_CENTER;
    00000EAF DD 6E F7         [19] 2959 	ld	l, -9 (ix)
    00000EB2 DD 66 F8         [19] 2960 	ld	h, -8 (ix)
    00000EB5 36 78            [10] 2961 	ld	(hl), #0x78
    00000EB7 23               [ 6] 2962 	inc	hl
    00000EB8 36 00            [10] 2963 	ld	(hl), #0x00
                                   2964 ;E:\Dropbox\FAUSTO\SVILUPPI\MSX\CODE\C\MSXgl\projects\exsoccer/exsoccer_s1_b2.c:519: g_Players[i].TargetY = ySafety;
    00000EBA DD 6E F9         [19] 2965 	ld	l, -7 (ix)
    00000EBD DD 66 FA         [19] 2966 	ld	h, -6 (ix)
    00000EC0 DD 7E F5         [19] 2967 	ld	a, -11 (ix)
    00000EC3 77               [ 7] 2968 	ld	(hl), a
    00000EC4 23               [ 6] 2969 	inc	hl
    00000EC5 DD 7E F6         [19] 2970 	ld	a, -10 (ix)
    00000EC8 77               [ 7] 2971 	ld	(hl), a
    00000EC9 C3r08r10         [10] 2972 	jp	00149$
    00000ECC                       2973 00129$:
                                   2974 ;E:\Dropbox\FAUSTO\SVILUPPI\MSX\CODE\C\MSXgl\projects\exsoccer/exsoccer_s1_b2.c:522: else if (role == PLAYER_ROLE_LEFT_HALFFIELDER || role == PLAYER_ROLE_RIGHT_HALFFIELDER) {
    00000ECC DD 7E FB         [19] 2975 	ld	a, -5 (ix)
    00000ECF D6 03            [ 7] 2976 	sub	a, #0x03
    00000ED1 3E 01            [ 7] 2977 	ld	a, #0x01
    00000ED3 28 01            [12] 2978 	jr	Z, 00337$
    00000ED5 AF               [ 4] 2979 	xor	a, a
    00000ED6                       2980 00337$:
    00000ED6 4F               [ 4] 2981 	ld	c, a
    00000ED7 B7               [ 4] 2982 	or	a, a
    00000ED8 20 07            [12] 2983 	jr	NZ, 00124$
    00000EDA DD 7E FB         [19] 2984 	ld	a, -5 (ix)
    00000EDD D6 04            [ 7] 2985 	sub	a, #0x04
    00000EDF 20 3E            [12] 2986 	jr	NZ, 00125$
    00000EE1                       2987 00124$:
                                   2988 ;E:\Dropbox\FAUSTO\SVILUPPI\MSX\CODE\C\MSXgl\projects\exsoccer/exsoccer_s1_b2.c:523: if (role == PLAYER_ROLE_LEFT_HALFFIELDER) {
    00000EE1 79               [ 4] 2989 	ld	a, c
    00000EE2 B7               [ 4] 2990 	or	a, a
    00000EE3 28 1D            [12] 2991 	jr	Z, 00122$
                                   2992 ;E:\Dropbox\FAUSTO\SVILUPPI\MSX\CODE\C\MSXgl\projects\exsoccer/exsoccer_s1_b2.c:525: g_Players[i].TargetX = FIELD_POS_X_CENTER - 50; 
    00000EE5 DD 6E F7         [19] 2993 	ld	l, -9 (ix)
    00000EE8 DD 66 F8         [19] 2994 	ld	h, -8 (ix)
    00000EEB 36 46            [10] 2995 	ld	(hl), #0x46
    00000EED 23               [ 6] 2996 	inc	hl
    00000EEE 36 00            [10] 2997 	ld	(hl), #0x00
                                   2998 ;E:\Dropbox\FAUSTO\SVILUPPI\MSX\CODE\C\MSXgl\projects\exsoccer/exsoccer_s1_b2.c:526: g_Players[i].TargetY = yBoxOutside;
    00000EF0 DD 6E F9         [19] 2999 	ld	l, -7 (ix)
    00000EF3 DD 66 FA         [19] 3000 	ld	h, -6 (ix)
    00000EF6 DD 7E F1         [19] 3001 	ld	a, -15 (ix)
    00000EF9 77               [ 7] 3002 	ld	(hl), a
    00000EFA 23               [ 6] 3003 	inc	hl
    00000EFB DD 7E F2         [19] 3004 	ld	a, -14 (ix)
    00000EFE 77               [ 7] 3005 	ld	(hl), a
    00000EFF C3r08r10         [10] 3006 	jp	00149$
    00000F02                       3007 00122$:
                                   3008 ;E:\Dropbox\FAUSTO\SVILUPPI\MSX\CODE\C\MSXgl\projects\exsoccer/exsoccer_s1_b2.c:529: g_Players[i].TargetX = FIELD_POS_X_CENTER + 30;
    00000F02 DD 6E F7         [19] 3009 	ld	l, -9 (ix)
    00000F05 DD 66 F8         [19] 3010 	ld	h, -8 (ix)
    00000F08 36 96            [10] 3011 	ld	(hl), #0x96
    00000F0A 23               [ 6] 3012 	inc	hl
    00000F0B 36 00            [10] 3013 	ld	(hl), #0x00
                                   3014 ;E:\Dropbox\FAUSTO\SVILUPPI\MSX\CODE\C\MSXgl\projects\exsoccer/exsoccer_s1_b2.c:530: g_Players[i].TargetY = yMidfieldAdv;
    00000F0D DD 6E F9         [19] 3015 	ld	l, -7 (ix)
    00000F10 DD 66 FA         [19] 3016 	ld	h, -6 (ix)
    00000F13 DD 7E F3         [19] 3017 	ld	a, -13 (ix)
    00000F16 77               [ 7] 3018 	ld	(hl), a
    00000F17 23               [ 6] 3019 	inc	hl
    00000F18 DD 7E F4         [19] 3020 	ld	a, -12 (ix)
    00000F1B 77               [ 7] 3021 	ld	(hl), a
    00000F1C C3r08r10         [10] 3022 	jp	00149$
    00000F1F                       3023 00125$:
                                   3024 ;E:\Dropbox\FAUSTO\SVILUPPI\MSX\CODE\C\MSXgl\projects\exsoccer/exsoccer_s1_b2.c:536: g_Players[i].TargetX = FIELD_POS_X_CENTER + 50;
    00000F1F DD 6E F7         [19] 3025 	ld	l, -9 (ix)
    00000F22 DD 66 F8         [19] 3026 	ld	h, -8 (ix)
    00000F25 36 AA            [10] 3027 	ld	(hl), #0xaa
    00000F27 23               [ 6] 3028 	inc	hl
    00000F28 36 00            [10] 3029 	ld	(hl), #0x00
                                   3030 ;E:\Dropbox\FAUSTO\SVILUPPI\MSX\CODE\C\MSXgl\projects\exsoccer/exsoccer_s1_b2.c:537: g_Players[i].TargetY = yBoxOutside;
    00000F2A DD 6E F9         [19] 3031 	ld	l, -7 (ix)
    00000F2D DD 66 FA         [19] 3032 	ld	h, -6 (ix)
    00000F30 DD 7E F1         [19] 3033 	ld	a, -15 (ix)
    00000F33 77               [ 7] 3034 	ld	(hl), a
    00000F34 23               [ 6] 3035 	inc	hl
    00000F35 DD 7E F2         [19] 3036 	ld	a, -14 (ix)
    00000F38 77               [ 7] 3037 	ld	(hl), a
    00000F39 C3r08r10         [10] 3038 	jp	00149$
    00000F3C                       3039 00147$:
                                   3040 ;E:\Dropbox\FAUSTO\SVILUPPI\MSX\CODE\C\MSXgl\projects\exsoccer/exsoccer_s1_b2.c:542: if (role == PLAYER_ROLE_GOALKEEPER) {
    00000F3C DD 7E FB         [19] 3041 	ld	a, -5 (ix)
    00000F3F B7               [ 4] 3042 	or	a, a
    00000F40 20 26            [12] 3043 	jr	NZ, 00144$
                                   3044 ;E:\Dropbox\FAUSTO\SVILUPPI\MSX\CODE\C\MSXgl\projects\exsoccer/exsoccer_s1_b2.c:544: g_Players[i].TargetX = FIELD_POS_X_CENTER;
    00000F42 DD 6E F7         [19] 3045 	ld	l, -9 (ix)
    00000F45 DD 66 F8         [19] 3046 	ld	h, -8 (ix)
    00000F48 36 78            [10] 3047 	ld	(hl), #0x78
    00000F4A 23               [ 6] 3048 	inc	hl
    00000F4B 36 00            [10] 3049 	ld	(hl), #0x00
                                   3050 ;E:\Dropbox\FAUSTO\SVILUPPI\MSX\CODE\C\MSXgl\projects\exsoccer/exsoccer_s1_b2.c:545: g_Players[i].TargetY = (attackingUp) ? FIELD_POS_Y_TEAM2_GOALKEEPER : FIELD_POS_Y_TEAM1_GOALKEEPER;
    00000F4D DD 6E F9         [19] 3051 	ld	l, -7 (ix)
                                   3052 ;	spillPairReg hl
                                   3053 ;	spillPairReg hl
    00000F50 DD 66 FA         [19] 3054 	ld	h, -6 (ix)
                                   3055 ;	spillPairReg hl
                                   3056 ;	spillPairReg hl
    00000F53 DD 7E EE         [19] 3057 	ld	a, -18 (ix)
    00000F56 B7               [ 4] 3058 	or	a, a
    00000F57 28 06            [12] 3059 	jr	Z, 00171$
    00000F59 11 32 00         [10] 3060 	ld	de, #0x0032
    00000F5C C3r62r0F         [10] 3061 	jp	00172$
    00000F5F                       3062 00171$:
    00000F5F 11 A8 01         [10] 3063 	ld	de, #0x01a8
    00000F62                       3064 00172$:
    00000F62 73               [ 7] 3065 	ld	(hl), e
    00000F63 23               [ 6] 3066 	inc	hl
    00000F64 72               [ 7] 3067 	ld	(hl), d
    00000F65 C3r08r10         [10] 3068 	jp	00149$
    00000F68                       3069 00144$:
                                   3070 ;E:\Dropbox\FAUSTO\SVILUPPI\MSX\CODE\C\MSXgl\projects\exsoccer/exsoccer_s1_b2.c:547: else if (role == PLAYER_ROLE_LEFT_DEFENDER || role == PLAYER_ROLE_RIGHT_DEFENDER) {
    00000F68 DD 7E FB         [19] 3071 	ld	a, -5 (ix)
    00000F6B 3D               [ 4] 3072 	dec	a
    00000F6C 3E 01            [ 7] 3073 	ld	a, #0x01
    00000F6E 28 01            [12] 3074 	jr	Z, 00341$
    00000F70 AF               [ 4] 3075 	xor	a, a
    00000F71                       3076 00341$:
    00000F71 4F               [ 4] 3077 	ld	c, a
    00000F72 B7               [ 4] 3078 	or	a, a
    00000F73 20 07            [12] 3079 	jr	NZ, 00139$
    00000F75 DD 7E FB         [19] 3080 	ld	a, -5 (ix)
    00000F78 D6 02            [ 7] 3081 	sub	a, #0x02
    00000F7A 20 25            [12] 3082 	jr	NZ, 00140$
    00000F7C                       3083 00139$:
                                   3084 ;E:\Dropbox\FAUSTO\SVILUPPI\MSX\CODE\C\MSXgl\projects\exsoccer/exsoccer_s1_b2.c:549: g_Players[i].TargetX = (role == PLAYER_ROLE_LEFT_DEFENDER) ? FIELD_POS_X_CENTER - 20 : FIELD_POS_X_CENTER + 20;
    00000F7C 79               [ 4] 3085 	ld	a, c
    00000F7D B7               [ 4] 3086 	or	a, a
    00000F7E 0E 64            [ 7] 3087 	ld	c, #0x64
    00000F80 20 02            [12] 3088 	jr	NZ, 00174$
    00000F82 0E 8C            [ 7] 3089 	ld	c, #0x8c
    00000F84                       3090 00174$:
    00000F84 06 00            [ 7] 3091 	ld	b, #0x00
    00000F86 DD 6E F7         [19] 3092 	ld	l, -9 (ix)
    00000F89 DD 66 F8         [19] 3093 	ld	h, -8 (ix)
    00000F8C 71               [ 7] 3094 	ld	(hl), c
    00000F8D 23               [ 6] 3095 	inc	hl
    00000F8E 70               [ 7] 3096 	ld	(hl), b
                                   3097 ;E:\Dropbox\FAUSTO\SVILUPPI\MSX\CODE\C\MSXgl\projects\exsoccer/exsoccer_s1_b2.c:550: g_Players[i].TargetY = yBoxInside;
    00000F8F DD 6E F9         [19] 3098 	ld	l, -7 (ix)
    00000F92 DD 66 FA         [19] 3099 	ld	h, -6 (ix)
    00000F95 DD 7E EF         [19] 3100 	ld	a, -17 (ix)
    00000F98 77               [ 7] 3101 	ld	(hl), a
    00000F99 23               [ 6] 3102 	inc	hl
    00000F9A DD 7E F0         [19] 3103 	ld	a, -16 (ix)
    00000F9D 77               [ 7] 3104 	ld	(hl), a
    00000F9E C3r08r10         [10] 3105 	jp	00149$
    00000FA1                       3106 00140$:
                                   3107 ;E:\Dropbox\FAUSTO\SVILUPPI\MSX\CODE\C\MSXgl\projects\exsoccer/exsoccer_s1_b2.c:552: else if (role == PLAYER_ROLE_LEFT_HALFFIELDER || role == PLAYER_ROLE_RIGHT_HALFFIELDER) {
    00000FA1 DD 7E FB         [19] 3108 	ld	a, -5 (ix)
    00000FA4 D6 03            [ 7] 3109 	sub	a, #0x03
    00000FA6 3E 01            [ 7] 3110 	ld	a, #0x01
    00000FA8 28 01            [12] 3111 	jr	Z, 00345$
    00000FAA AF               [ 4] 3112 	xor	a, a
    00000FAB                       3113 00345$:
    00000FAB 4F               [ 4] 3114 	ld	c, a
    00000FAC B7               [ 4] 3115 	or	a, a
    00000FAD 20 07            [12] 3116 	jr	NZ, 00135$
    00000FAF DD 7E FB         [19] 3117 	ld	a, -5 (ix)
    00000FB2 D6 04            [ 7] 3118 	sub	a, #0x04
    00000FB4 20 25            [12] 3119 	jr	NZ, 00136$
    00000FB6                       3120 00135$:
                                   3121 ;E:\Dropbox\FAUSTO\SVILUPPI\MSX\CODE\C\MSXgl\projects\exsoccer/exsoccer_s1_b2.c:554: g_Players[i].TargetX = (role == PLAYER_ROLE_LEFT_HALFFIELDER) ? FIELD_POS_X_CENTER - 40 : FIELD_POS_X_CENTER + 40;
    00000FB6 79               [ 4] 3122 	ld	a, c
    00000FB7 B7               [ 4] 3123 	or	a, a
    00000FB8 0E 50            [ 7] 3124 	ld	c, #0x50
    00000FBA 20 02            [12] 3125 	jr	NZ, 00176$
    00000FBC 0E A0            [ 7] 3126 	ld	c, #0xa0
    00000FBE                       3127 00176$:
    00000FBE 06 00            [ 7] 3128 	ld	b, #0x00
    00000FC0 DD 6E F7         [19] 3129 	ld	l, -9 (ix)
    00000FC3 DD 66 F8         [19] 3130 	ld	h, -8 (ix)
    00000FC6 71               [ 7] 3131 	ld	(hl), c
    00000FC7 23               [ 6] 3132 	inc	hl
    00000FC8 70               [ 7] 3133 	ld	(hl), b
                                   3134 ;E:\Dropbox\FAUSTO\SVILUPPI\MSX\CODE\C\MSXgl\projects\exsoccer/exsoccer_s1_b2.c:555: g_Players[i].TargetY = yBoxOutside;
    00000FC9 DD 6E F9         [19] 3135 	ld	l, -7 (ix)
    00000FCC DD 66 FA         [19] 3136 	ld	h, -6 (ix)
    00000FCF DD 7E F1         [19] 3137 	ld	a, -15 (ix)
    00000FD2 77               [ 7] 3138 	ld	(hl), a
    00000FD3 23               [ 6] 3139 	inc	hl
    00000FD4 DD 7E F2         [19] 3140 	ld	a, -14 (ix)
    00000FD7 77               [ 7] 3141 	ld	(hl), a
    00000FD8 C3r08r10         [10] 3142 	jp	00149$
    00000FDB                       3143 00136$:
                                   3144 ;E:\Dropbox\FAUSTO\SVILUPPI\MSX\CODE\C\MSXgl\projects\exsoccer/exsoccer_s1_b2.c:559: g_Players[i].TargetX = (role == PLAYER_ROLE_LEFT_STRIKER) ? FIELD_POS_X_LEFT + 20 : FIELD_POS_X_RIGHT - 20;
    00000FDB DD 7E F7         [19] 3145 	ld	a, -9 (ix)
    00000FDE DD 77 FC         [19] 3146 	ld	-4 (ix), a
    00000FE1 DD 7E F8         [19] 3147 	ld	a, -8 (ix)
    00000FE4 DD 77 FD         [19] 3148 	ld	-3 (ix), a
    00000FE7 DD 7E FB         [19] 3149 	ld	a, -5 (ix)
    00000FEA D6 05            [ 7] 3150 	sub	a, #0x05
    00000FEC 0E 3C            [ 7] 3151 	ld	c, #0x3c
    00000FEE 28 02            [12] 3152 	jr	Z, 00178$
    00000FF0 0E B2            [ 7] 3153 	ld	c, #0xb2
    00000FF2                       3154 00178$:
    00000FF2 06 00            [ 7] 3155 	ld	b, #0x00
    00000FF4 DD 6E FC         [19] 3156 	ld	l, -4 (ix)
    00000FF7 DD 66 FD         [19] 3157 	ld	h, -3 (ix)
    00000FFA 71               [ 7] 3158 	ld	(hl), c
    00000FFB 23               [ 6] 3159 	inc	hl
    00000FFC 70               [ 7] 3160 	ld	(hl), b
                                   3161 ;E:\Dropbox\FAUSTO\SVILUPPI\MSX\CODE\C\MSXgl\projects\exsoccer/exsoccer_s1_b2.c:560: g_Players[i].TargetY = yMidfield;
    00000FFD DD 6E F9         [19] 3162 	ld	l, -7 (ix)
    00001000 DD 66 FA         [19] 3163 	ld	h, -6 (ix)
    00001003 36 F3            [10] 3164 	ld	(hl), #0xf3
    00001005 23               [ 6] 3165 	inc	hl
    00001006 36 00            [10] 3166 	ld	(hl), #0x00
    00001008                       3167 00149$:
                                   3168 ;E:\Dropbox\FAUSTO\SVILUPPI\MSX\CODE\C\MSXgl\projects\exsoccer/exsoccer_s1_b2.c:489: for(u8 i=0; i<14; i++) {
    00001008 DD 34 FF         [23] 3169 	inc	-1 (ix)
    0000100B C3r53r0D         [10] 3170 	jp	00152$
    0000100E                       3171 00153$:
                                   3172 ;E:\Dropbox\FAUSTO\SVILUPPI\MSX\CODE\C\MSXgl\projects\exsoccer/exsoccer_s1_b2.c:564: }
    0000100E DD F9            [10] 3173 	ld	sp, ix
    00001010 DD E1            [14] 3174 	pop	ix
    00001012 C9               [10] 3175 	ret
    00001013                       3176 ___str_3:
    00001013 43 4F 52 4E 45 52 20  3177 	.ascii "CORNER KICK"
             4B 49 43 4B
    0000101E 00                    3178 	.db 0x00
                                   3179 ;E:\Dropbox\FAUSTO\SVILUPPI\MSX\CODE\C\MSXgl\projects\exsoccer/exsoccer_s1_b2.c:565: void UpdatePassTarget() {
                                   3180 ;	---------------------------------
                                   3181 ; Function UpdatePassTarget
                                   3182 ; ---------------------------------
    0000101F                       3183 _UpdatePassTarget::
                                   3184 ;E:\Dropbox\FAUSTO\SVILUPPI\MSX\CODE\C\MSXgl\projects\exsoccer/exsoccer_s1_b2.c:567: if (g_MatchStatus != MATCH_IN_ACTION && g_MatchStatus != MATCH_BALL_ON_GOALKEEPER) {
    0000101F 3Ar00r00         [13] 3185 	ld	a,(_g_MatchStatus+0)
    00001022 FE 0C            [ 7] 3186 	cp	a,#0x0c
    00001024 28 03            [12] 3187 	jr	Z, 00102$
    00001026 D6 0D            [ 7] 3188 	sub	a, #0x0d
                                   3189 ;E:\Dropbox\FAUSTO\SVILUPPI\MSX\CODE\C\MSXgl\projects\exsoccer/exsoccer_s1_b2.c:568: return; 
    00001028 C0               [11] 3190 	ret	NZ
    00001029                       3191 00102$:
                                   3192 ;E:\Dropbox\FAUSTO\SVILUPPI\MSX\CODE\C\MSXgl\projects\exsoccer/exsoccer_s1_b2.c:572: u8 carrier = g_Ball.PossessionPlayerId;
    00001029 3Ar06r00         [13] 3193 	ld	a, (#_g_Ball + 6)
    0000102C 4F               [ 4] 3194 	ld	c, a
                                   3195 ;E:\Dropbox\FAUSTO\SVILUPPI\MSX\CODE\C\MSXgl\projects\exsoccer/exsoccer_s1_b2.c:574: if (g_Ball.PossessionPlayerId == NO_VALUE) {
    0000102D 3C               [ 4] 3196 	inc	a
    0000102E 20 06            [12] 3197 	jr	NZ, 00105$
                                   3198 ;E:\Dropbox\FAUSTO\SVILUPPI\MSX\CODE\C\MSXgl\projects\exsoccer/exsoccer_s1_b2.c:575: g_PassTargetPlayer = NO_VALUE;
    00001030 21r00r00         [10] 3199 	ld	hl, #_g_PassTargetPlayer
    00001033 36 FF            [10] 3200 	ld	(hl), #0xff
                                   3201 ;E:\Dropbox\FAUSTO\SVILUPPI\MSX\CODE\C\MSXgl\projects\exsoccer/exsoccer_s1_b2.c:576: return;
    00001035 C9               [10] 3202 	ret
    00001036                       3203 00105$:
                                   3204 ;E:\Dropbox\FAUSTO\SVILUPPI\MSX\CODE\C\MSXgl\projects\exsoccer/exsoccer_s1_b2.c:580: passUpdateTimer++;
    00001036 21r00r00         [10] 3205 	ld	hl, #_UpdatePassTarget_passUpdateTimer_65537_1241
    00001039 34               [11] 3206 	inc	(hl)
                                   3207 ;E:\Dropbox\FAUSTO\SVILUPPI\MSX\CODE\C\MSXgl\projects\exsoccer/exsoccer_s1_b2.c:581: if (passUpdateTimer < 8) return;
    0000103A 3Ar00r00         [13] 3208 	ld	a, (_UpdatePassTarget_passUpdateTimer_65537_1241+0)
    0000103D D6 08            [ 7] 3209 	sub	a, #0x08
    0000103F D8               [11] 3210 	ret	C
                                   3211 ;E:\Dropbox\FAUSTO\SVILUPPI\MSX\CODE\C\MSXgl\projects\exsoccer/exsoccer_s1_b2.c:582: passUpdateTimer = 0;
    00001040 21r00r00         [10] 3212 	ld	hl, #_UpdatePassTarget_passUpdateTimer_65537_1241
    00001043 36 00            [10] 3213 	ld	(hl), #0x00
                                   3214 ;E:\Dropbox\FAUSTO\SVILUPPI\MSX\CODE\C\MSXgl\projects\exsoccer/exsoccer_s1_b2.c:584: if (carrier != NO_VALUE) {
    00001045 79               [ 4] 3215 	ld	a, c
    00001046 3C               [ 4] 3216 	inc	a
    00001047 28 08            [12] 3217 	jr	Z, 00111$
                                   3218 ;E:\Dropbox\FAUSTO\SVILUPPI\MSX\CODE\C\MSXgl\projects\exsoccer/exsoccer_s1_b2.c:585: g_PassTargetPlayer = GetBestPassTarget(carrier);
    00001049 79               [ 4] 3219 	ld	a, c
    0000104A CDrCDr06         [17] 3220 	call	_GetBestPassTarget
    0000104D 32r00r00         [13] 3221 	ld	(_g_PassTargetPlayer+0), a
    00001050 C9               [10] 3222 	ret
    00001051                       3223 00111$:
                                   3224 ;E:\Dropbox\FAUSTO\SVILUPPI\MSX\CODE\C\MSXgl\projects\exsoccer/exsoccer_s1_b2.c:587: if (g_Ball.PassTargetPlayerId == NO_VALUE) g_PassTargetPlayer = NO_VALUE;
    00001051 3Ar10r00         [13] 3225 	ld	a, (#_g_Ball + 16)
    00001054 3C               [ 4] 3226 	inc	a
    00001055 C0               [11] 3227 	ret	NZ
    00001056 21r00r00         [10] 3228 	ld	hl, #_g_PassTargetPlayer
    00001059 36 FF            [10] 3229 	ld	(hl), #0xff
                                   3230 ;E:\Dropbox\FAUSTO\SVILUPPI\MSX\CODE\C\MSXgl\projects\exsoccer/exsoccer_s1_b2.c:589: }
    0000105B C9               [10] 3231 	ret
                                   3232 ;E:\Dropbox\FAUSTO\SVILUPPI\MSX\CODE\C\MSXgl\projects\exsoccer/exsoccer_s1_b2.c:590: void TickGoalKick() {
                                   3233 ;	---------------------------------
                                   3234 ; Function TickGoalKick
                                   3235 ; ---------------------------------
    0000105C                       3236 _TickGoalKick::
    0000105C DD E5            [15] 3237 	push	ix
    0000105E DD 21 00 00      [14] 3238 	ld	ix,#0
    00001062 DD 39            [15] 3239 	add	ix,sp
    00001064 21 F0 FF         [10] 3240 	ld	hl, #-16
    00001067 39               [11] 3241 	add	hl, sp
    00001068 F9               [ 6] 3242 	ld	sp, hl
                                   3243 ;E:\Dropbox\FAUSTO\SVILUPPI\MSX\CODE\C\MSXgl\projects\exsoccer/exsoccer_s1_b2.c:591: if (g_MatchStatus != MATCH_BEFORE_GOAL_KICK) return;
    00001069 3Ar00r00         [13] 3244 	ld	a, (_g_MatchStatus+0)
    0000106C D6 05            [ 7] 3245 	sub	a, #0x05
    0000106E C2r84r15         [10] 3246 	jp	NZ,00197$
                                   3247 ;E:\Dropbox\FAUSTO\SVILUPPI\MSX\CODE\C\MSXgl\projects\exsoccer/exsoccer_s1_b2.c:595: if (g_RestartKickTeamId == TEAM_1) gkId = GetPlayerIdByRole(TEAM_1, PLAYER_ROLE_GOALKEEPER);
    00001071 3Ar00r00         [13] 3248 	ld	a, (_g_RestartKickTeamId+0)
    00001074 3D               [ 4] 3249 	dec	a
    00001075 20 0C            [12] 3250 	jr	NZ, 00104$
    00001077 6F               [ 4] 3251 	ld	l,a
                                   3252 ;	spillPairReg hl
                                   3253 ;	spillPairReg hl
    00001078 3E 01            [ 7] 3254 	ld	a, #0x01
    0000107A CDr00r00         [17] 3255 	call	_GetPlayerIdByRole
    0000107D DD 77 F6         [19] 3256 	ld	-10 (ix), a
    00001080 C3r8Dr10         [10] 3257 	jp	00105$
    00001083                       3258 00104$:
                                   3259 ;E:\Dropbox\FAUSTO\SVILUPPI\MSX\CODE\C\MSXgl\projects\exsoccer/exsoccer_s1_b2.c:596: else gkId = GetPlayerIdByRole(TEAM_2, PLAYER_ROLE_GOALKEEPER);
    00001083 2E 00            [ 7] 3260 	ld	l, #0x00
                                   3261 ;	spillPairReg hl
                                   3262 ;	spillPairReg hl
    00001085 3E 02            [ 7] 3263 	ld	a, #0x02
    00001087 CDr00r00         [17] 3264 	call	_GetPlayerIdByRole
    0000108A DD 77 F6         [19] 3265 	ld	-10 (ix), a
    0000108D                       3266 00105$:
                                   3267 ;E:\Dropbox\FAUSTO\SVILUPPI\MSX\CODE\C\MSXgl\projects\exsoccer/exsoccer_s1_b2.c:598: if (gkId == NO_VALUE) return; 
    0000108D DD 7E F6         [19] 3268 	ld	a, -10 (ix)
    00001090 3C               [ 4] 3269 	inc	a
    00001091 CAr84r15         [10] 3270 	jp	Z,00197$
    00001094 C3r97r10         [10] 3271 	jp	00107$
    00001097                       3272 00107$:
                                   3273 ;E:\Dropbox\FAUSTO\SVILUPPI\MSX\CODE\C\MSXgl\projects\exsoccer/exsoccer_s1_b2.c:601: if (g_Timer < 60) {
    00001097 3Ar00r00         [13] 3274 	ld	a, (_g_Timer+0)
    0000109A D6 3C            [ 7] 3275 	sub	a, #0x3c
    0000109C 30 07            [12] 3276 	jr	NC, 00109$
                                   3277 ;E:\Dropbox\FAUSTO\SVILUPPI\MSX\CODE\C\MSXgl\projects\exsoccer/exsoccer_s1_b2.c:602: g_Timer++;
    0000109E 21r00r00         [10] 3278 	ld	hl, #_g_Timer
    000010A1 34               [11] 3279 	inc	(hl)
                                   3280 ;E:\Dropbox\FAUSTO\SVILUPPI\MSX\CODE\C\MSXgl\projects\exsoccer/exsoccer_s1_b2.c:603: return;
    000010A2 C3r84r15         [10] 3281 	jp	00197$
    000010A5                       3282 00109$:
                                   3283 ;E:\Dropbox\FAUSTO\SVILUPPI\MSX\CODE\C\MSXgl\projects\exsoccer/exsoccer_s1_b2.c:605: g_Ball.Size = 1;
    000010A5 21r04r00         [10] 3284 	ld	hl, #(_g_Ball + 4)
    000010A8 36 01            [10] 3285 	ld	(hl), #0x01
                                   3286 ;E:\Dropbox\FAUSTO\SVILUPPI\MSX\CODE\C\MSXgl\projects\exsoccer/exsoccer_s1_b2.c:607: if (g_Timer == 60) {
    000010AA 3Ar00r00         [13] 3287 	ld	a, (_g_Timer+0)
    000010AD D6 3C            [ 7] 3288 	sub	a, #0x3c
    000010AF C2r2Br13         [10] 3289 	jp	NZ,00175$
                                   3290 ;E:\Dropbox\FAUSTO\SVILUPPI\MSX\CODE\C\MSXgl\projects\exsoccer/exsoccer_s1_b2.c:610: if (g_GoalKickSide == CORNER_SIDE_LEFT) targetX = GK_BOX_X_MIN;
    000010B2 3Ar00r00         [13] 3291 	ld	a, (_g_GoalKickSide+0)
    000010B5 B7               [ 4] 3292 	or	a, a
    000010B6 20 06            [12] 3293 	jr	NZ, 00111$
    000010B8 01 50 00         [10] 3294 	ld	bc, #0x0050
    000010BB C3rC1r10         [10] 3295 	jp	00112$
    000010BE                       3296 00111$:
                                   3297 ;E:\Dropbox\FAUSTO\SVILUPPI\MSX\CODE\C\MSXgl\projects\exsoccer/exsoccer_s1_b2.c:611: else targetX = GK_BOX_X_MAX;
    000010BE 01 A0 00         [10] 3298 	ld	bc, #0x00a0
    000010C1                       3299 00112$:
                                   3300 ;E:\Dropbox\FAUSTO\SVILUPPI\MSX\CODE\C\MSXgl\projects\exsoccer/exsoccer_s1_b2.c:614: if (g_RestartKickTeamId == TEAM_1) { // Bottom Goal
    000010C1 3Ar00r00         [13] 3301 	ld	a, (_g_RestartKickTeamId+0)
    000010C4 3D               [ 4] 3302 	dec	a
    000010C5 20 06            [12] 3303 	jr	NZ, 00114$
                                   3304 ;E:\Dropbox\FAUSTO\SVILUPPI\MSX\CODE\C\MSXgl\projects\exsoccer/exsoccer_s1_b2.c:615: ballY = GK_BOX_Y_BOTTOM_MIN; 
    000010C7 11 95 01         [10] 3305 	ld	de, #0x0195
    000010CA C3rD0r10         [10] 3306 	jp	00115$
    000010CD                       3307 00114$:
                                   3308 ;E:\Dropbox\FAUSTO\SVILUPPI\MSX\CODE\C\MSXgl\projects\exsoccer/exsoccer_s1_b2.c:617: ballY = GK_BOX_Y_TOP_MAX; 
    000010CD 11 4B 00         [10] 3309 	ld	de, #0x004b
    000010D0                       3310 00115$:
                                   3311 ;E:\Dropbox\FAUSTO\SVILUPPI\MSX\CODE\C\MSXgl\projects\exsoccer/exsoccer_s1_b2.c:621: g_Ball.X = targetX;
    000010D0 ED 43r02r00      [20] 3312 	ld	((_g_Ball + 2)), bc
                                   3313 ;E:\Dropbox\FAUSTO\SVILUPPI\MSX\CODE\C\MSXgl\projects\exsoccer/exsoccer_s1_b2.c:622: g_Ball.Y = ballY;
    000010D4 ED 53r00r00      [20] 3314 	ld	(_g_Ball), de
                                   3315 ;E:\Dropbox\FAUSTO\SVILUPPI\MSX\CODE\C\MSXgl\projects\exsoccer/exsoccer_s1_b2.c:623: g_Ball.PossessionPlayerId = NO_VALUE;
    000010D8 21r06r00         [10] 3316 	ld	hl, #(_g_Ball + 6)
    000010DB 36 FF            [10] 3317 	ld	(hl), #0xff
                                   3318 ;E:\Dropbox\FAUSTO\SVILUPPI\MSX\CODE\C\MSXgl\projects\exsoccer/exsoccer_s1_b2.c:628: runStartY = ballY + 32; 
                                   3319 ;E:\Dropbox\FAUSTO\SVILUPPI\MSX\CODE\C\MSXgl\projects\exsoccer/exsoccer_s1_b2.c:627: if (g_RestartKickTeamId == TEAM_1) {
    000010DD 3Ar00r00         [13] 3320 	ld	a, (_g_RestartKickTeamId+0)
    000010E0 3D               [ 4] 3321 	dec	a
    000010E1 20 1E            [12] 3322 	jr	NZ, 00121$
                                   3323 ;E:\Dropbox\FAUSTO\SVILUPPI\MSX\CODE\C\MSXgl\projects\exsoccer/exsoccer_s1_b2.c:628: runStartY = ballY + 32; 
    000010E3 21 20 00         [10] 3324 	ld	hl, #0x0020
    000010E6 19               [11] 3325 	add	hl, de
                                   3326 ;E:\Dropbox\FAUSTO\SVILUPPI\MSX\CODE\C\MSXgl\projects\exsoccer/exsoccer_s1_b2.c:629: if(runStartY > FIELD_BOUND_Y_BOTTOM) runStartY = FIELD_BOUND_Y_BOTTOM;
    000010E7 DD 75 FE         [19] 3327 	ld	-2 (ix), l
    000010EA DD 74 FF         [19] 3328 	ld	-1 (ix), h
    000010ED EB               [ 4] 3329 	ex	de,hl
    000010EE 3E AE            [ 7] 3330 	ld	a, #0xae
    000010F0 BB               [ 4] 3331 	cp	a, e
    000010F1 3E 01            [ 7] 3332 	ld	a, #0x01
    000010F3 9A               [ 4] 3333 	sbc	a, d
    000010F4 30 29            [12] 3334 	jr	NC, 00122$
    000010F6 DD 36 FE AE      [19] 3335 	ld	-2 (ix), #0xae
    000010FA DD 36 FF 01      [19] 3336 	ld	-1 (ix), #0x01
    000010FE C3r1Fr11         [10] 3337 	jp	00122$
    00001101                       3338 00121$:
                                   3339 ;E:\Dropbox\FAUSTO\SVILUPPI\MSX\CODE\C\MSXgl\projects\exsoccer/exsoccer_s1_b2.c:631: runStartY = ballY - 32;
    00001101 7B               [ 4] 3340 	ld	a, e
    00001102 C6 E0            [ 7] 3341 	add	a, #0xe0
    00001104 5F               [ 4] 3342 	ld	e, a
    00001105 7A               [ 4] 3343 	ld	a, d
    00001106 CE FF            [ 7] 3344 	adc	a, #0xff
                                   3345 ;E:\Dropbox\FAUSTO\SVILUPPI\MSX\CODE\C\MSXgl\projects\exsoccer/exsoccer_s1_b2.c:632: if(runStartY < FIELD_BOUND_Y_TOP) runStartY = FIELD_BOUND_Y_TOP;
    00001108 DD 73 FE         [19] 3346 	ld	-2 (ix), e
    0000110B DD 77 FF         [19] 3347 	ld	-1 (ix), a
    0000110E 57               [ 4] 3348 	ld	d, a
    0000110F 7B               [ 4] 3349 	ld	a, e
    00001110 D6 32            [ 7] 3350 	sub	a, #0x32
    00001112 7A               [ 4] 3351 	ld	a, d
    00001113 DE 00            [ 7] 3352 	sbc	a, #0x00
    00001115 30 08            [12] 3353 	jr	NC, 00122$
    00001117 DD 36 FE 32      [19] 3354 	ld	-2 (ix), #0x32
    0000111B DD 36 FF 00      [19] 3355 	ld	-1 (ix), #0
    0000111F                       3356 00122$:
                                   3357 ;E:\Dropbox\FAUSTO\SVILUPPI\MSX\CODE\C\MSXgl\projects\exsoccer/exsoccer_s1_b2.c:635: g_Players[gkId].TargetX = targetX;
    0000111F DD 5E F6         [19] 3358 	ld	e, -10 (ix)
    00001122 16 00            [ 7] 3359 	ld	d, #0x00
    00001124 6B               [ 4] 3360 	ld	l, e
    00001125 62               [ 4] 3361 	ld	h, d
    00001126 29               [11] 3362 	add	hl, hl
    00001127 29               [11] 3363 	add	hl, hl
    00001128 19               [11] 3364 	add	hl, de
    00001129 29               [11] 3365 	add	hl, hl
    0000112A 29               [11] 3366 	add	hl, hl
    0000112B 19               [11] 3367 	add	hl, de
    0000112C EB               [ 4] 3368 	ex	de, hl
    0000112D 21r00r00         [10] 3369 	ld	hl, #_g_Players
    00001130 19               [11] 3370 	add	hl, de
    00001131 EB               [ 4] 3371 	ex	de, hl
    00001132 21 10 00         [10] 3372 	ld	hl, #0x0010
    00001135 19               [11] 3373 	add	hl, de
    00001136 71               [ 7] 3374 	ld	(hl), c
    00001137 23               [ 6] 3375 	inc	hl
    00001138 70               [ 7] 3376 	ld	(hl), b
                                   3377 ;E:\Dropbox\FAUSTO\SVILUPPI\MSX\CODE\C\MSXgl\projects\exsoccer/exsoccer_s1_b2.c:636: g_Players[gkId].TargetY = runStartY;
    00001139 21 0E 00         [10] 3378 	ld	hl, #0x000e
    0000113C 19               [11] 3379 	add	hl, de
    0000113D DD 7E FE         [19] 3380 	ld	a, -2 (ix)
    00001140 77               [ 7] 3381 	ld	(hl), a
    00001141 23               [ 6] 3382 	inc	hl
    00001142 DD 7E FF         [19] 3383 	ld	a, -1 (ix)
    00001145 77               [ 7] 3384 	ld	(hl), a
                                   3385 ;E:\Dropbox\FAUSTO\SVILUPPI\MSX\CODE\C\MSXgl\projects\exsoccer/exsoccer_s1_b2.c:637: g_Players[gkId].Status = PLAYER_STATUS_NONE; 
    00001146 21 12 00         [10] 3386 	ld	hl, #0x0012
    00001149 19               [11] 3387 	add	hl, de
    0000114A AF               [ 4] 3388 	xor	a, a
    0000114B 77               [ 7] 3389 	ld	(hl), a
    0000114C 23               [ 6] 3390 	inc	hl
    0000114D 77               [ 7] 3391 	ld	(hl), a
                                   3392 ;E:\Dropbox\FAUSTO\SVILUPPI\MSX\CODE\C\MSXgl\projects\exsoccer/exsoccer_s1_b2.c:639: if (g_RestartKickTeamId == TEAM_1) g_Players[gkId].Direction = DIRECTION_UP;
    0000114E 21 0A 00         [10] 3393 	ld	hl, #0x000a
    00001151 19               [11] 3394 	add	hl, de
    00001152 3Ar00r00         [13] 3395 	ld	a, (_g_RestartKickTeamId+0)
    00001155 3D               [ 4] 3396 	dec	a
    00001156 20 05            [12] 3397 	jr	NZ, 00124$
    00001158 36 01            [10] 3398 	ld	(hl), #0x01
    0000115A C3r5Fr11         [10] 3399 	jp	00125$
    0000115D                       3400 00124$:
                                   3401 ;E:\Dropbox\FAUSTO\SVILUPPI\MSX\CODE\C\MSXgl\projects\exsoccer/exsoccer_s1_b2.c:640: else g_Players[gkId].Direction = DIRECTION_DOWN;
    0000115D 36 05            [10] 3402 	ld	(hl), #0x05
    0000115F                       3403 00125$:
                                   3404 ;E:\Dropbox\FAUSTO\SVILUPPI\MSX\CODE\C\MSXgl\projects\exsoccer/exsoccer_s1_b2.c:642: if (g_RestartKickTeamId == TEAM_1) ShowFieldZone(FIELD_SOUTH_ZONE);
    0000115F 3Ar00r00         [13] 3405 	ld	a, (_g_RestartKickTeamId+0)
    00001162 3D               [ 4] 3406 	dec	a
    00001163 20 08            [12] 3407 	jr	NZ, 00127$
    00001165 3E 02            [ 7] 3408 	ld	a, #0x02
    00001167 CDr00r00         [17] 3409 	call	_ShowFieldZone
    0000116A C3r71r11         [10] 3410 	jp	00239$
    0000116D                       3411 00127$:
                                   3412 ;E:\Dropbox\FAUSTO\SVILUPPI\MSX\CODE\C\MSXgl\projects\exsoccer/exsoccer_s1_b2.c:643: else ShowFieldZone(FIELD_NORTH_ZONE);
    0000116D AF               [ 4] 3413 	xor	a, a
    0000116E CDr00r00         [17] 3414 	call	_ShowFieldZone
                                   3415 ;E:\Dropbox\FAUSTO\SVILUPPI\MSX\CODE\C\MSXgl\projects\exsoccer/exsoccer_s1_b2.c:646: for(u8 i=0; i<14; i++){
    00001171                       3416 00239$:
    00001171 DD 36 FF 00      [19] 3417 	ld	-1 (ix), #0x00
    00001175                       3418 00196$:
    00001175 DD 7E FF         [19] 3419 	ld	a, -1 (ix)
    00001178 D6 0E            [ 7] 3420 	sub	a, #0x0e
    0000117A D2r2Br13         [10] 3421 	jp	NC, 00175$
                                   3422 ;E:\Dropbox\FAUSTO\SVILUPPI\MSX\CODE\C\MSXgl\projects\exsoccer/exsoccer_s1_b2.c:647: if(i == gkId) continue;
    0000117D DD 7E F6         [19] 3423 	ld	a, -10 (ix)
    00001180 DD 96 FF         [19] 3424 	sub	a, -1 (ix)
    00001183 CAr25r13         [10] 3425 	jp	Z,00172$
                                   3426 ;E:\Dropbox\FAUSTO\SVILUPPI\MSX\CODE\C\MSXgl\projects\exsoccer/exsoccer_s1_b2.c:648: if(g_Players[i].TeamId == REFEREE) continue;
    00001186 DD 4E FF         [19] 3427 	ld	c, -1 (ix)
    00001189 06 00            [ 7] 3428 	ld	b, #0x00
    0000118B 69               [ 4] 3429 	ld	l, c
    0000118C 60               [ 4] 3430 	ld	h, b
    0000118D 29               [11] 3431 	add	hl, hl
    0000118E 29               [11] 3432 	add	hl, hl
    0000118F 09               [11] 3433 	add	hl, bc
    00001190 29               [11] 3434 	add	hl, hl
    00001191 29               [11] 3435 	add	hl, hl
    00001192 09               [11] 3436 	add	hl, bc
    00001193 11r00r00         [10] 3437 	ld	de, #_g_Players
    00001196 19               [11] 3438 	add	hl, de
    00001197 DD 75 F7         [19] 3439 	ld	-9 (ix), l
    0000119A DD 74 F8         [19] 3440 	ld	-8 (ix), h
    0000119D FD 21 09 00      [14] 3441 	ld	iy, #0x0009
    000011A1 DD 5E F7         [19] 3442 	ld	e, -9 (ix)
    000011A4 DD 56 F8         [19] 3443 	ld	d, -8 (ix)
    000011A7 FD 19            [15] 3444 	add	iy, de
    000011A9 FD 7E 00         [19] 3445 	ld	a, 0 (iy)
    000011AC D6 0E            [ 7] 3446 	sub	a, #0x0e
    000011AE CAr25r13         [10] 3447 	jp	Z,00172$
                                   3448 ;E:\Dropbox\FAUSTO\SVILUPPI\MSX\CODE\C\MSXgl\projects\exsoccer/exsoccer_s1_b2.c:649: if(g_Players[i].Role == PLAYER_ROLE_GOALKEEPER) continue;
    000011B1 DD 7E F7         [19] 3449 	ld	a, -9 (ix)
    000011B4 C6 0D            [ 7] 3450 	add	a, #0x0d
    000011B6 5F               [ 4] 3451 	ld	e, a
    000011B7 DD 7E F8         [19] 3452 	ld	a, -8 (ix)
    000011BA CE 00            [ 7] 3453 	adc	a, #0x00
    000011BC 57               [ 4] 3454 	ld	d, a
    000011BD 1A               [ 7] 3455 	ld	a, (de)
    000011BE B7               [ 4] 3456 	or	a, a
    000011BF CAr25r13         [10] 3457 	jp	Z, 00172$
                                   3458 ;E:\Dropbox\FAUSTO\SVILUPPI\MSX\CODE\C\MSXgl\projects\exsoccer/exsoccer_s1_b2.c:652: g_Players[i].Status = PLAYER_STATUS_NONE;
    000011C2 DD 6E F7         [19] 3459 	ld	l, -9 (ix)
    000011C5 DD 66 F8         [19] 3460 	ld	h, -8 (ix)
    000011C8 01 12 00         [10] 3461 	ld	bc, #0x0012
    000011CB 09               [11] 3462 	add	hl, bc
    000011CC AF               [ 4] 3463 	xor	a, a
    000011CD 77               [ 7] 3464 	ld	(hl), a
    000011CE 23               [ 6] 3465 	inc	hl
    000011CF 77               [ 7] 3466 	ld	(hl), a
                                   3467 ;E:\Dropbox\FAUSTO\SVILUPPI\MSX\CODE\C\MSXgl\projects\exsoccer/exsoccer_s1_b2.c:655: u16 targetX = g_Players[i].X;
    000011D0 DD 6E F7         [19] 3468 	ld	l, -9 (ix)
                                   3469 ;	spillPairReg hl
                                   3470 ;	spillPairReg hl
    000011D3 DD 66 F8         [19] 3471 	ld	h, -8 (ix)
                                   3472 ;	spillPairReg hl
                                   3473 ;	spillPairReg hl
    000011D6 23               [ 6] 3474 	inc	hl
    000011D7 23               [ 6] 3475 	inc	hl
    000011D8 7E               [ 7] 3476 	ld	a, (hl)
    000011D9 DD 77 F9         [19] 3477 	ld	-7 (ix), a
    000011DC 23               [ 6] 3478 	inc	hl
    000011DD 7E               [ 7] 3479 	ld	a, (hl)
    000011DE DD 77 FA         [19] 3480 	ld	-6 (ix), a
                                   3481 ;E:\Dropbox\FAUSTO\SVILUPPI\MSX\CODE\C\MSXgl\projects\exsoccer/exsoccer_s1_b2.c:648: if(g_Players[i].TeamId == REFEREE) continue;
    000011E1 FD 4E 00         [19] 3482 	ld	c, 0 (iy)
                                   3483 ;E:\Dropbox\FAUSTO\SVILUPPI\MSX\CODE\C\MSXgl\projects\exsoccer/exsoccer_s1_b2.c:649: if(g_Players[i].Role == PLAYER_ROLE_GOALKEEPER) continue;
    000011E4 1A               [ 7] 3484 	ld	a, (de)
                                   3485 ;E:\Dropbox\FAUSTO\SVILUPPI\MSX\CODE\C\MSXgl\projects\exsoccer/exsoccer_s1_b2.c:662: if (g_Players[i].Role == PLAYER_ROLE_LEFT_STRIKER || g_Players[i].Role == PLAYER_ROLE_RIGHT_STRIKER) targetY = 200;
    000011E5 DD 77 FB         [19] 3486 	ld	-5 (ix), a
    000011E8 D6 05            [ 7] 3487 	sub	a, #0x05
    000011EA 3E 01            [ 7] 3488 	ld	a, #0x01
    000011EC 28 01            [12] 3489 	jr	Z, 00432$
    000011EE AF               [ 4] 3490 	xor	a, a
    000011EF                       3491 00432$:
    000011EF 5F               [ 4] 3492 	ld	e, a
                                   3493 ;E:\Dropbox\FAUSTO\SVILUPPI\MSX\CODE\C\MSXgl\projects\exsoccer/exsoccer_s1_b2.c:663: if (g_Players[i].Role == PLAYER_ROLE_LEFT_DEFENDER || g_Players[i].Role == PLAYER_ROLE_RIGHT_DEFENDER) targetY = 350; // Defenders move out of box
    000011F0 DD 7E FB         [19] 3494 	ld	a, -5 (ix)
    000011F3 3D               [ 4] 3495 	dec	a
    000011F4 3E 01            [ 7] 3496 	ld	a, #0x01
    000011F6 28 01            [12] 3497 	jr	Z, 00434$
    000011F8 AF               [ 4] 3498 	xor	a, a
    000011F9                       3499 00434$:
    000011F9 DD 77 FC         [19] 3500 	ld	-4 (ix), a
                                   3501 ;E:\Dropbox\FAUSTO\SVILUPPI\MSX\CODE\C\MSXgl\projects\exsoccer/exsoccer_s1_b2.c:657: if (g_RestartKickTeamId == TEAM_1) {
    000011FC 3Ar00r00         [13] 3502 	ld	a, (_g_RestartKickTeamId+0)
    000011FF 3D               [ 4] 3503 	dec	a
    00001200 20 6A            [12] 3504 	jr	NZ, 00166$
                                   3505 ;E:\Dropbox\FAUSTO\SVILUPPI\MSX\CODE\C\MSXgl\projects\exsoccer/exsoccer_s1_b2.c:659: if(g_Players[i].TeamId == TEAM_1) {
    00001202 0D               [ 4] 3506 	dec	c
    00001203 20 34            [12] 3507 	jr	NZ, 00148$
                                   3508 ;E:\Dropbox\FAUSTO\SVILUPPI\MSX\CODE\C\MSXgl\projects\exsoccer/exsoccer_s1_b2.c:661: targetY = 300; // Midfielders
    00001205 DD 36 FD 2C      [19] 3509 	ld	-3 (ix), #0x2c
    00001209 DD 36 FE 01      [19] 3510 	ld	-2 (ix), #0x01
                                   3511 ;E:\Dropbox\FAUSTO\SVILUPPI\MSX\CODE\C\MSXgl\projects\exsoccer/exsoccer_s1_b2.c:662: if (g_Players[i].Role == PLAYER_ROLE_LEFT_STRIKER || g_Players[i].Role == PLAYER_ROLE_RIGHT_STRIKER) targetY = 200;
    0000120D 7B               [ 4] 3512 	ld	a, e
    0000120E B7               [ 4] 3513 	or	a, a
    0000120F 20 07            [12] 3514 	jr	NZ, 00135$
    00001211 DD 7E FB         [19] 3515 	ld	a, -5 (ix)
    00001214 D6 06            [ 7] 3516 	sub	a, #0x06
    00001216 20 08            [12] 3517 	jr	NZ, 00136$
    00001218                       3518 00135$:
    00001218 DD 36 FD C8      [19] 3519 	ld	-3 (ix), #0xc8
    0000121C DD 36 FE 00      [19] 3520 	ld	-2 (ix), #0
    00001220                       3521 00136$:
                                   3522 ;E:\Dropbox\FAUSTO\SVILUPPI\MSX\CODE\C\MSXgl\projects\exsoccer/exsoccer_s1_b2.c:663: if (g_Players[i].Role == PLAYER_ROLE_LEFT_DEFENDER || g_Players[i].Role == PLAYER_ROLE_RIGHT_DEFENDER) targetY = 350; // Defenders move out of box
    00001220 DD 7E FC         [19] 3523 	ld	a, -4 (ix)
    00001223 B7               [ 4] 3524 	or	a, a
    00001224 20 08            [12] 3525 	jr	NZ, 00138$
    00001226 DD 7E FB         [19] 3526 	ld	a, -5 (ix)
    00001229 D6 02            [ 7] 3527 	sub	a, #0x02
    0000122B C2rD4r12         [10] 3528 	jp	NZ,00167$
    0000122E                       3529 00138$:
    0000122E DD 36 FD 5E      [19] 3530 	ld	-3 (ix), #0x5e
    00001232 DD 36 FE 01      [19] 3531 	ld	-2 (ix), #0x01
    00001236 C3rD4r12         [10] 3532 	jp	00167$
    00001239                       3533 00148$:
                                   3534 ;E:\Dropbox\FAUSTO\SVILUPPI\MSX\CODE\C\MSXgl\projects\exsoccer/exsoccer_s1_b2.c:665: targetY = 250;
    00001239 DD 36 FD FA      [19] 3535 	ld	-3 (ix), #0xfa
    0000123D DD 36 FE 00      [19] 3536 	ld	-2 (ix), #0
                                   3537 ;E:\Dropbox\FAUSTO\SVILUPPI\MSX\CODE\C\MSXgl\projects\exsoccer/exsoccer_s1_b2.c:666: if (g_Players[i].Role == PLAYER_ROLE_LEFT_STRIKER || g_Players[i].Role == PLAYER_ROLE_RIGHT_STRIKER) targetY = 320; // Pressing High (but not too close)
    00001241 7B               [ 4] 3538 	ld	a, e
    00001242 B7               [ 4] 3539 	or	a, a
    00001243 20 07            [12] 3540 	jr	NZ, 00141$
    00001245 DD 7E FB         [19] 3541 	ld	a, -5 (ix)
    00001248 D6 06            [ 7] 3542 	sub	a, #0x06
    0000124A 20 08            [12] 3543 	jr	NZ, 00142$
    0000124C                       3544 00141$:
    0000124C DD 36 FD 40      [19] 3545 	ld	-3 (ix), #0x40
    00001250 DD 36 FE 01      [19] 3546 	ld	-2 (ix), #0x01
    00001254                       3547 00142$:
                                   3548 ;E:\Dropbox\FAUSTO\SVILUPPI\MSX\CODE\C\MSXgl\projects\exsoccer/exsoccer_s1_b2.c:667: if (g_Players[i].Role == PLAYER_ROLE_LEFT_DEFENDER || g_Players[i].Role == PLAYER_ROLE_RIGHT_DEFENDER) targetY = 150;
    00001254 DD 7E FC         [19] 3549 	ld	a, -4 (ix)
    00001257 B7               [ 4] 3550 	or	a, a
    00001258 20 07            [12] 3551 	jr	NZ, 00144$
    0000125A DD 7E FB         [19] 3552 	ld	a, -5 (ix)
    0000125D D6 02            [ 7] 3553 	sub	a, #0x02
    0000125F 20 73            [12] 3554 	jr	NZ, 00167$
    00001261                       3555 00144$:
    00001261 DD 36 FD 96      [19] 3556 	ld	-3 (ix), #0x96
    00001265 DD 36 FE 00      [19] 3557 	ld	-2 (ix), #0
    00001269 C3rD4r12         [10] 3558 	jp	00167$
    0000126C                       3559 00166$:
                                   3560 ;E:\Dropbox\FAUSTO\SVILUPPI\MSX\CODE\C\MSXgl\projects\exsoccer/exsoccer_s1_b2.c:671: if(g_Players[i].TeamId == TEAM_2) {
    0000126C 79               [ 4] 3561 	ld	a, c
    0000126D D6 02            [ 7] 3562 	sub	a, #0x02
    0000126F 20 33            [12] 3563 	jr	NZ, 00163$
                                   3564 ;E:\Dropbox\FAUSTO\SVILUPPI\MSX\CODE\C\MSXgl\projects\exsoccer/exsoccer_s1_b2.c:673: targetY = 150; 
    00001271 DD 36 FD 96      [19] 3565 	ld	-3 (ix), #0x96
    00001275 DD 36 FE 00      [19] 3566 	ld	-2 (ix), #0
                                   3567 ;E:\Dropbox\FAUSTO\SVILUPPI\MSX\CODE\C\MSXgl\projects\exsoccer/exsoccer_s1_b2.c:674: if (g_Players[i].Role == PLAYER_ROLE_LEFT_STRIKER || g_Players[i].Role == PLAYER_ROLE_RIGHT_STRIKER) targetY = 250;
    00001279 7B               [ 4] 3568 	ld	a, e
    0000127A B7               [ 4] 3569 	or	a, a
    0000127B 20 07            [12] 3570 	jr	NZ, 00150$
    0000127D DD 7E FB         [19] 3571 	ld	a, -5 (ix)
    00001280 D6 06            [ 7] 3572 	sub	a, #0x06
    00001282 20 08            [12] 3573 	jr	NZ, 00151$
    00001284                       3574 00150$:
    00001284 DD 36 FD FA      [19] 3575 	ld	-3 (ix), #0xfa
    00001288 DD 36 FE 00      [19] 3576 	ld	-2 (ix), #0
    0000128C                       3577 00151$:
                                   3578 ;E:\Dropbox\FAUSTO\SVILUPPI\MSX\CODE\C\MSXgl\projects\exsoccer/exsoccer_s1_b2.c:675: if (g_Players[i].Role == PLAYER_ROLE_LEFT_DEFENDER || g_Players[i].Role == PLAYER_ROLE_RIGHT_DEFENDER) targetY = 120; // Defenders move out of box
    0000128C DD 7E FC         [19] 3579 	ld	a, -4 (ix)
    0000128F B7               [ 4] 3580 	or	a, a
    00001290 20 07            [12] 3581 	jr	NZ, 00153$
    00001292 DD 7E FB         [19] 3582 	ld	a, -5 (ix)
    00001295 D6 02            [ 7] 3583 	sub	a, #0x02
    00001297 20 3B            [12] 3584 	jr	NZ, 00167$
    00001299                       3585 00153$:
    00001299 DD 36 FD 78      [19] 3586 	ld	-3 (ix), #0x78
    0000129D DD 36 FE 00      [19] 3587 	ld	-2 (ix), #0
    000012A1 C3rD4r12         [10] 3588 	jp	00167$
    000012A4                       3589 00163$:
                                   3590 ;E:\Dropbox\FAUSTO\SVILUPPI\MSX\CODE\C\MSXgl\projects\exsoccer/exsoccer_s1_b2.c:677: targetY = 200;
    000012A4 DD 36 FD C8      [19] 3591 	ld	-3 (ix), #0xc8
    000012A8 DD 36 FE 00      [19] 3592 	ld	-2 (ix), #0
                                   3593 ;E:\Dropbox\FAUSTO\SVILUPPI\MSX\CODE\C\MSXgl\projects\exsoccer/exsoccer_s1_b2.c:678: if (g_Players[i].Role == PLAYER_ROLE_LEFT_STRIKER || g_Players[i].Role == PLAYER_ROLE_RIGHT_STRIKER) targetY = 160; // Pressing High (but not too close)
    000012AC 7B               [ 4] 3594 	ld	a, e
    000012AD B7               [ 4] 3595 	or	a, a
    000012AE 20 07            [12] 3596 	jr	NZ, 00156$
    000012B0 DD 7E FB         [19] 3597 	ld	a, -5 (ix)
    000012B3 D6 06            [ 7] 3598 	sub	a, #0x06
    000012B5 20 08            [12] 3599 	jr	NZ, 00157$
    000012B7                       3600 00156$:
    000012B7 DD 36 FD A0      [19] 3601 	ld	-3 (ix), #0xa0
    000012BB DD 36 FE 00      [19] 3602 	ld	-2 (ix), #0
    000012BF                       3603 00157$:
                                   3604 ;E:\Dropbox\FAUSTO\SVILUPPI\MSX\CODE\C\MSXgl\projects\exsoccer/exsoccer_s1_b2.c:679: if (g_Players[i].Role == PLAYER_ROLE_LEFT_DEFENDER || g_Players[i].Role == PLAYER_ROLE_RIGHT_DEFENDER) targetY = 300;
    000012BF DD 7E FC         [19] 3605 	ld	a, -4 (ix)
    000012C2 B7               [ 4] 3606 	or	a, a
    000012C3 20 07            [12] 3607 	jr	NZ, 00159$
    000012C5 DD 7E FB         [19] 3608 	ld	a, -5 (ix)
    000012C8 D6 02            [ 7] 3609 	sub	a, #0x02
    000012CA 20 08            [12] 3610 	jr	NZ, 00167$
    000012CC                       3611 00159$:
    000012CC DD 36 FD 2C      [19] 3612 	ld	-3 (ix), #0x2c
    000012D0 DD 36 FE 01      [19] 3613 	ld	-2 (ix), #0x01
    000012D4                       3614 00167$:
                                   3615 ;E:\Dropbox\FAUSTO\SVILUPPI\MSX\CODE\C\MSXgl\projects\exsoccer/exsoccer_s1_b2.c:684: if (targetX < 30) targetX = 30;
    000012D4 DD 7E F9         [19] 3616 	ld	a, -7 (ix)
    000012D7 DD 46 FA         [19] 3617 	ld	b, -6 (ix)
    000012DA D6 1E            [ 7] 3618 	sub	a, #0x1e
    000012DC 78               [ 4] 3619 	ld	a, b
    000012DD DE 00            [ 7] 3620 	sbc	a, #0x00
    000012DF 30 08            [12] 3621 	jr	NC, 00169$
    000012E1 DD 36 F9 1E      [19] 3622 	ld	-7 (ix), #0x1e
    000012E5 DD 36 FA 00      [19] 3623 	ld	-6 (ix), #0
    000012E9                       3624 00169$:
                                   3625 ;E:\Dropbox\FAUSTO\SVILUPPI\MSX\CODE\C\MSXgl\projects\exsoccer/exsoccer_s1_b2.c:685: if (targetX > 220) targetX = 220;
    000012E9 DD 4E F9         [19] 3626 	ld	c, -7 (ix)
    000012EC DD 46 FA         [19] 3627 	ld	b, -6 (ix)
    000012EF 3E DC            [ 7] 3628 	ld	a, #0xdc
    000012F1 B9               [ 4] 3629 	cp	a, c
    000012F2 3E 00            [ 7] 3630 	ld	a, #0x00
    000012F4 98               [ 4] 3631 	sbc	a, b
    000012F5 30 08            [12] 3632 	jr	NC, 00171$
    000012F7 DD 36 F9 DC      [19] 3633 	ld	-7 (ix), #0xdc
    000012FB DD 36 FA 00      [19] 3634 	ld	-6 (ix), #0
    000012FF                       3635 00171$:
                                   3636 ;E:\Dropbox\FAUSTO\SVILUPPI\MSX\CODE\C\MSXgl\projects\exsoccer/exsoccer_s1_b2.c:687: g_Players[i].TargetX = targetX;
    000012FF DD 6E F7         [19] 3637 	ld	l, -9 (ix)
    00001302 DD 66 F8         [19] 3638 	ld	h, -8 (ix)
    00001305 11 10 00         [10] 3639 	ld	de, #0x0010
    00001308 19               [11] 3640 	add	hl, de
    00001309 DD 7E F9         [19] 3641 	ld	a, -7 (ix)
    0000130C 77               [ 7] 3642 	ld	(hl), a
    0000130D 23               [ 6] 3643 	inc	hl
    0000130E DD 7E FA         [19] 3644 	ld	a, -6 (ix)
    00001311 77               [ 7] 3645 	ld	(hl), a
                                   3646 ;E:\Dropbox\FAUSTO\SVILUPPI\MSX\CODE\C\MSXgl\projects\exsoccer/exsoccer_s1_b2.c:688: g_Players[i].TargetY = targetY;
    00001312 DD 6E F7         [19] 3647 	ld	l, -9 (ix)
    00001315 DD 66 F8         [19] 3648 	ld	h, -8 (ix)
    00001318 11 0E 00         [10] 3649 	ld	de, #0x000e
    0000131B 19               [11] 3650 	add	hl, de
    0000131C DD 7E FD         [19] 3651 	ld	a, -3 (ix)
    0000131F 77               [ 7] 3652 	ld	(hl), a
    00001320 23               [ 6] 3653 	inc	hl
    00001321 DD 7E FE         [19] 3654 	ld	a, -2 (ix)
    00001324 77               [ 7] 3655 	ld	(hl), a
    00001325                       3656 00172$:
                                   3657 ;E:\Dropbox\FAUSTO\SVILUPPI\MSX\CODE\C\MSXgl\projects\exsoccer/exsoccer_s1_b2.c:646: for(u8 i=0; i<14; i++){
    00001325 DD 34 FF         [23] 3658 	inc	-1 (ix)
    00001328 C3r75r11         [10] 3659 	jp	00196$
    0000132B                       3660 00175$:
                                   3661 ;E:\Dropbox\FAUSTO\SVILUPPI\MSX\CODE\C\MSXgl\projects\exsoccer/exsoccer_s1_b2.c:693: i16 dx = (i16)g_Players[gkId].X - (i16)g_Players[gkId].TargetX;
    0000132B 01r00r00         [10] 3662 	ld	bc, #_g_Players+0
    0000132E DD 5E F6         [19] 3663 	ld	e, -10 (ix)
    00001331 16 00            [ 7] 3664 	ld	d, #0x00
    00001333 6B               [ 4] 3665 	ld	l, e
    00001334 62               [ 4] 3666 	ld	h, d
    00001335 29               [11] 3667 	add	hl, hl
    00001336 29               [11] 3668 	add	hl, hl
    00001337 19               [11] 3669 	add	hl, de
    00001338 29               [11] 3670 	add	hl, hl
    00001339 29               [11] 3671 	add	hl, hl
    0000133A 19               [11] 3672 	add	hl, de
    0000133B 09               [11] 3673 	add	hl, bc
    0000133C E3               [19] 3674 	ex	(sp), hl
    0000133D DD 7E F0         [19] 3675 	ld	a, -16 (ix)
    00001340 C6 02            [ 7] 3676 	add	a, #0x02
    00001342 DD 77 F2         [19] 3677 	ld	-14 (ix), a
    00001345 DD 7E F1         [19] 3678 	ld	a, -15 (ix)
    00001348 CE 00            [ 7] 3679 	adc	a, #0x00
    0000134A DD 77 F3         [19] 3680 	ld	-13 (ix), a
    0000134D DD 6E F2         [19] 3681 	ld	l, -14 (ix)
    00001350 DD 66 F3         [19] 3682 	ld	h, -13 (ix)
    00001353 7E               [ 7] 3683 	ld	a, (hl)
    00001354 DD 77 FE         [19] 3684 	ld	-2 (ix), a
    00001357 23               [ 6] 3685 	inc	hl
    00001358 7E               [ 7] 3686 	ld	a, (hl)
    00001359 DD 77 FF         [19] 3687 	ld	-1 (ix), a
    0000135C DD 7E FE         [19] 3688 	ld	a, -2 (ix)
    0000135F DD 77 FA         [19] 3689 	ld	-6 (ix), a
    00001362 DD 7E FF         [19] 3690 	ld	a, -1 (ix)
    00001365 DD 77 FB         [19] 3691 	ld	-5 (ix), a
    00001368 DD 7E F0         [19] 3692 	ld	a, -16 (ix)
    0000136B DD 77 FE         [19] 3693 	ld	-2 (ix), a
    0000136E DD 7E F1         [19] 3694 	ld	a, -15 (ix)
    00001371 DD 77 FF         [19] 3695 	ld	-1 (ix), a
    00001374 DD 6E FE         [19] 3696 	ld	l, -2 (ix)
    00001377 DD 66 FF         [19] 3697 	ld	h, -1 (ix)
    0000137A 11 10 00         [10] 3698 	ld	de, #0x0010
    0000137D 19               [11] 3699 	add	hl, de
    0000137E 7E               [ 7] 3700 	ld	a, (hl)
    0000137F DD 77 F4         [19] 3701 	ld	-12 (ix), a
    00001382 23               [ 6] 3702 	inc	hl
    00001383 7E               [ 7] 3703 	ld	a, (hl)
    00001384 DD 77 F5         [19] 3704 	ld	-11 (ix), a
    00001387 DD 7E F4         [19] 3705 	ld	a, -12 (ix)
    0000138A DD 77 FC         [19] 3706 	ld	-4 (ix), a
    0000138D DD 7E F5         [19] 3707 	ld	a, -11 (ix)
    00001390 DD 77 FD         [19] 3708 	ld	-3 (ix), a
    00001393 DD 7E FA         [19] 3709 	ld	a, -6 (ix)
    00001396 DD 96 FC         [19] 3710 	sub	a, -4 (ix)
    00001399 DD 77 FE         [19] 3711 	ld	-2 (ix), a
    0000139C DD 7E FB         [19] 3712 	ld	a, -5 (ix)
    0000139F DD 9E FD         [19] 3713 	sbc	a, -3 (ix)
    000013A2 DD 77 FF         [19] 3714 	ld	-1 (ix), a
    000013A5 DD 7E FE         [19] 3715 	ld	a, -2 (ix)
    000013A8 DD 77 F6         [19] 3716 	ld	-10 (ix), a
    000013AB DD 7E FF         [19] 3717 	ld	a, -1 (ix)
    000013AE DD 77 F7         [19] 3718 	ld	-9 (ix), a
                                   3719 ;E:\Dropbox\FAUSTO\SVILUPPI\MSX\CODE\C\MSXgl\projects\exsoccer/exsoccer_s1_b2.c:694: i16 dy = (i16)g_Players[gkId].Y - (i16)g_Players[gkId].TargetY;
    000013B1 E1               [10] 3720 	pop	hl
    000013B2 E5               [11] 3721 	push	hl
    000013B3 7E               [ 7] 3722 	ld	a, (hl)
    000013B4 DD 77 FE         [19] 3723 	ld	-2 (ix), a
    000013B7 23               [ 6] 3724 	inc	hl
    000013B8 7E               [ 7] 3725 	ld	a, (hl)
    000013B9 DD 77 FF         [19] 3726 	ld	-1 (ix), a
    000013BC DD 7E FE         [19] 3727 	ld	a, -2 (ix)
    000013BF DD 77 F8         [19] 3728 	ld	-8 (ix), a
    000013C2 DD 7E FF         [19] 3729 	ld	a, -1 (ix)
    000013C5 DD 77 F9         [19] 3730 	ld	-7 (ix), a
    000013C8 DD 7E F0         [19] 3731 	ld	a, -16 (ix)
    000013CB C6 0E            [ 7] 3732 	add	a, #0x0e
    000013CD DD 77 FA         [19] 3733 	ld	-6 (ix), a
    000013D0 DD 7E F1         [19] 3734 	ld	a, -15 (ix)
    000013D3 CE 00            [ 7] 3735 	adc	a, #0x00
    000013D5 DD 77 FB         [19] 3736 	ld	-5 (ix), a
    000013D8 DD 6E FA         [19] 3737 	ld	l, -6 (ix)
    000013DB DD 66 FB         [19] 3738 	ld	h, -5 (ix)
    000013DE 7E               [ 7] 3739 	ld	a, (hl)
    000013DF DD 77 FE         [19] 3740 	ld	-2 (ix), a
    000013E2 23               [ 6] 3741 	inc	hl
    000013E3 7E               [ 7] 3742 	ld	a, (hl)
    000013E4 DD 77 FF         [19] 3743 	ld	-1 (ix), a
    000013E7 DD 7E FE         [19] 3744 	ld	a, -2 (ix)
    000013EA DD 77 FC         [19] 3745 	ld	-4 (ix), a
    000013ED DD 7E FF         [19] 3746 	ld	a, -1 (ix)
    000013F0 DD 77 FD         [19] 3747 	ld	-3 (ix), a
    000013F3 DD 7E F8         [19] 3748 	ld	a, -8 (ix)
    000013F6 DD 96 FC         [19] 3749 	sub	a, -4 (ix)
    000013F9 DD 77 FE         [19] 3750 	ld	-2 (ix), a
    000013FC DD 7E F9         [19] 3751 	ld	a, -7 (ix)
    000013FF DD 9E FD         [19] 3752 	sbc	a, -3 (ix)
    00001402 DD 77 FF         [19] 3753 	ld	-1 (ix), a
                                   3754 ;E:\Dropbox\FAUSTO\SVILUPPI\MSX\CODE\C\MSXgl\projects\exsoccer/exsoccer_s1_b2.c:696: bool arrived = (dx >= -4 && dx <= 4 && dy >= -4 && dy <= 4);
    00001405 DD 7E F6         [19] 3755 	ld	a, -10 (ix)
    00001408 D6 FC            [ 7] 3756 	sub	a, #0xfc
    0000140A DD 7E F7         [19] 3757 	ld	a, -9 (ix)
    0000140D 17               [ 4] 3758 	rla
    0000140E 3F               [ 4] 3759 	ccf
    0000140F 1F               [ 4] 3760 	rra
    00001410 DE 7F            [ 7] 3761 	sbc	a, #0x7f
    00001412 38 37            [12] 3762 	jr	C, 00199$
    00001414 DD 4E F6         [19] 3763 	ld	c, -10 (ix)
    00001417 DD 46 F7         [19] 3764 	ld	b, -9 (ix)
    0000141A 3E 04            [ 7] 3765 	ld	a, #0x04
    0000141C B9               [ 4] 3766 	cp	a, c
    0000141D 3E 00            [ 7] 3767 	ld	a, #0x00
    0000141F 98               [ 4] 3768 	sbc	a, b
    00001420 E2r25r14         [10] 3769 	jp	PO, 00457$
    00001423 EE 80            [ 7] 3770 	xor	a, #0x80
    00001425                       3771 00457$:
    00001425 FAr4Br14         [10] 3772 	jp	M, 00199$
    00001428 DD 7E FE         [19] 3773 	ld	a, -2 (ix)
    0000142B D6 FC            [ 7] 3774 	sub	a, #0xfc
    0000142D DD 7E FF         [19] 3775 	ld	a, -1 (ix)
    00001430 17               [ 4] 3776 	rla
    00001431 3F               [ 4] 3777 	ccf
    00001432 1F               [ 4] 3778 	rra
    00001433 DE 7F            [ 7] 3779 	sbc	a, #0x7f
    00001435 38 14            [12] 3780 	jr	C, 00199$
    00001437 DD 4E FE         [19] 3781 	ld	c, -2 (ix)
    0000143A DD 46 FF         [19] 3782 	ld	b, -1 (ix)
    0000143D 3E 04            [ 7] 3783 	ld	a, #0x04
    0000143F B9               [ 4] 3784 	cp	a, c
    00001440 3E 00            [ 7] 3785 	ld	a, #0x00
    00001442 98               [ 4] 3786 	sbc	a, b
    00001443 E2r48r14         [10] 3787 	jp	PO, 00458$
    00001446 EE 80            [ 7] 3788 	xor	a, #0x80
    00001448                       3789 00458$:
    00001448 F2r52r14         [10] 3790 	jp	P, 00200$
    0000144B                       3791 00199$:
    0000144B DD 36 FF 00      [19] 3792 	ld	-1 (ix), #0x00
    0000144F C3r56r14         [10] 3793 	jp	00201$
    00001452                       3794 00200$:
    00001452 DD 36 FF 01      [19] 3795 	ld	-1 (ix), #0x01
    00001456                       3796 00201$:
    00001456 DD 7E FF         [19] 3797 	ld	a, -1 (ix)
                                   3798 ;E:\Dropbox\FAUSTO\SVILUPPI\MSX\CODE\C\MSXgl\projects\exsoccer/exsoccer_s1_b2.c:698: if (arrived) {
    00001459 B7               [ 4] 3799 	or	a, a
    0000145A CAr70r15         [10] 3800 	jp	Z, 00193$
                                   3801 ;E:\Dropbox\FAUSTO\SVILUPPI\MSX\CODE\C\MSXgl\projects\exsoccer/exsoccer_s1_b2.c:699: g_Players[gkId].X = g_Players[gkId].TargetX;
    0000145D C1               [10] 3802 	pop	bc
    0000145E E1               [10] 3803 	pop	hl
    0000145F E5               [11] 3804 	push	hl
    00001460 C5               [11] 3805 	push	bc
    00001461 DD 7E F4         [19] 3806 	ld	a, -12 (ix)
    00001464 77               [ 7] 3807 	ld	(hl), a
    00001465 23               [ 6] 3808 	inc	hl
    00001466 DD 7E F5         [19] 3809 	ld	a, -11 (ix)
    00001469 77               [ 7] 3810 	ld	(hl), a
                                   3811 ;E:\Dropbox\FAUSTO\SVILUPPI\MSX\CODE\C\MSXgl\projects\exsoccer/exsoccer_s1_b2.c:700: g_Players[gkId].Y = g_Players[gkId].TargetY;
    0000146A DD 6E FA         [19] 3812 	ld	l, -6 (ix)
    0000146D DD 66 FB         [19] 3813 	ld	h, -5 (ix)
    00001470 4E               [ 7] 3814 	ld	c, (hl)
    00001471 23               [ 6] 3815 	inc	hl
    00001472 46               [ 7] 3816 	ld	b, (hl)
    00001473 E1               [10] 3817 	pop	hl
    00001474 E5               [11] 3818 	push	hl
    00001475 71               [ 7] 3819 	ld	(hl), c
    00001476 23               [ 6] 3820 	inc	hl
    00001477 70               [ 7] 3821 	ld	(hl), b
                                   3822 ;E:\Dropbox\FAUSTO\SVILUPPI\MSX\CODE\C\MSXgl\projects\exsoccer/exsoccer_s1_b2.c:702: if (g_RestartKickTeamId == TEAM_1) g_Players[gkId].Direction = DIRECTION_UP;
    00001478 DD 7E F0         [19] 3823 	ld	a, -16 (ix)
    0000147B C6 0A            [ 7] 3824 	add	a, #0x0a
    0000147D DD 77 F8         [19] 3825 	ld	-8 (ix), a
    00001480 DD 7E F1         [19] 3826 	ld	a, -15 (ix)
    00001483 CE 00            [ 7] 3827 	adc	a, #0x00
    00001485 DD 77 F9         [19] 3828 	ld	-7 (ix), a
    00001488 3Ar00r00         [13] 3829 	ld	a, (_g_RestartKickTeamId+0)
    0000148B 3D               [ 4] 3830 	dec	a
    0000148C 20 0B            [12] 3831 	jr	NZ, 00177$
    0000148E DD 6E F8         [19] 3832 	ld	l, -8 (ix)
    00001491 DD 66 F9         [19] 3833 	ld	h, -7 (ix)
    00001494 36 01            [10] 3834 	ld	(hl), #0x01
    00001496 C3rA1r14         [10] 3835 	jp	00178$
    00001499                       3836 00177$:
                                   3837 ;E:\Dropbox\FAUSTO\SVILUPPI\MSX\CODE\C\MSXgl\projects\exsoccer/exsoccer_s1_b2.c:703: else g_Players[gkId].Direction = DIRECTION_DOWN;
    00001499 DD 6E F8         [19] 3838 	ld	l, -8 (ix)
    0000149C DD 66 F9         [19] 3839 	ld	h, -7 (ix)
    0000149F 36 05            [10] 3840 	ld	(hl), #0x05
    000014A1                       3841 00178$:
                                   3842 ;E:\Dropbox\FAUSTO\SVILUPPI\MSX\CODE\C\MSXgl\projects\exsoccer/exsoccer_s1_b2.c:704: g_Players[gkId].PatternId = GetNoMovingPlayerPatternId(g_Players[gkId].Direction);
    000014A1 DD 7E F0         [19] 3843 	ld	a, -16 (ix)
    000014A4 C6 08            [ 7] 3844 	add	a, #0x08
    000014A6 DD 77 FD         [19] 3845 	ld	-3 (ix), a
    000014A9 DD 7E F1         [19] 3846 	ld	a, -15 (ix)
    000014AC CE 00            [ 7] 3847 	adc	a, #0x00
    000014AE DD 77 FE         [19] 3848 	ld	-2 (ix), a
    000014B1 DD 6E F8         [19] 3849 	ld	l, -8 (ix)
    000014B4 DD 66 F9         [19] 3850 	ld	h, -7 (ix)
    000014B7 7E               [ 7] 3851 	ld	a, (hl)
    000014B8 DD 77 FF         [19] 3852 	ld	-1 (ix), a
    000014BB CDr00r00         [17] 3853 	call	_GetNoMovingPlayerPatternId
    000014BE DD 6E FD         [19] 3854 	ld	l, -3 (ix)
    000014C1 DD 66 FE         [19] 3855 	ld	h, -2 (ix)
    000014C4 77               [ 7] 3856 	ld	(hl), a
                                   3857 ;E:\Dropbox\FAUSTO\SVILUPPI\MSX\CODE\C\MSXgl\projects\exsoccer/exsoccer_s1_b2.c:705: g_Players[gkId].Status = PLAYER_STATUS_POSITIONED;
    000014C5 DD 7E F0         [19] 3858 	ld	a, -16 (ix)
    000014C8 C6 12            [ 7] 3859 	add	a, #0x12
    000014CA DD 77 FE         [19] 3860 	ld	-2 (ix), a
    000014CD DD 7E F1         [19] 3861 	ld	a, -15 (ix)
    000014D0 CE 00            [ 7] 3862 	adc	a, #0x00
    000014D2 DD 77 FF         [19] 3863 	ld	-1 (ix), a
    000014D5 DD 6E FE         [19] 3864 	ld	l, -2 (ix)
    000014D8 DD 66 FF         [19] 3865 	ld	h, -1 (ix)
    000014DB 36 04            [10] 3866 	ld	(hl), #0x04
    000014DD 23               [ 6] 3867 	inc	hl
    000014DE 36 00            [10] 3868 	ld	(hl), #0x00
                                   3869 ;E:\Dropbox\FAUSTO\SVILUPPI\MSX\CODE\C\MSXgl\projects\exsoccer/exsoccer_s1_b2.c:694: i16 dy = (i16)g_Players[gkId].Y - (i16)g_Players[gkId].TargetY;
    000014E0 E1               [10] 3870 	pop	hl
    000014E1 E5               [11] 3871 	push	hl
    000014E2 4E               [ 7] 3872 	ld	c, (hl)
    000014E3 23               [ 6] 3873 	inc	hl
    000014E4 46               [ 7] 3874 	ld	b, (hl)
                                   3875 ;E:\Dropbox\FAUSTO\SVILUPPI\MSX\CODE\C\MSXgl\projects\exsoccer/exsoccer_s1_b2.c:708: u16 distY = (g_Players[gkId].Y > g_Ball.Y) ? (g_Players[gkId].Y - g_Ball.Y) : (g_Ball.Y - g_Players[gkId].Y);
    000014E5 2Ar00r00         [16] 3876 	ld	hl, (#_g_Ball + 0)
    000014E8 7D               [ 4] 3877 	ld	a, l
    000014E9 91               [ 4] 3878 	sub	a, c
    000014EA 7C               [ 4] 3879 	ld	a, h
    000014EB 98               [ 4] 3880 	sbc	a, b
    000014EC 30 08            [12] 3881 	jr	NC, 00208$
    000014EE 79               [ 4] 3882 	ld	a, c
    000014EF 95               [ 4] 3883 	sub	a, l
    000014F0 4F               [ 4] 3884 	ld	c, a
    000014F1 78               [ 4] 3885 	ld	a, b
    000014F2 9C               [ 4] 3886 	sbc	a, h
    000014F3 C3rFBr14         [10] 3887 	jp	00209$
    000014F6                       3888 00208$:
    000014F6 7D               [ 4] 3889 	ld	a, l
    000014F7 91               [ 4] 3890 	sub	a, c
    000014F8 4F               [ 4] 3891 	ld	c, a
    000014F9 7C               [ 4] 3892 	ld	a, h
    000014FA 98               [ 4] 3893 	sbc	a, b
    000014FB                       3894 00209$:
                                   3895 ;E:\Dropbox\FAUSTO\SVILUPPI\MSX\CODE\C\MSXgl\projects\exsoccer/exsoccer_s1_b2.c:710: if (distY > 16) {
    000014FB 47               [ 4] 3896 	ld	b, a
                                   3897 ;E:\Dropbox\FAUSTO\SVILUPPI\MSX\CODE\C\MSXgl\projects\exsoccer/exsoccer_s1_b2.c:602: g_Timer++;
    000014FC 3Ar00r00         [13] 3898 	ld	a, (_g_Timer+0)
    000014FF 3C               [ 4] 3899 	inc	a
    00001500 DD 77 FD         [19] 3900 	ld	-3 (ix), a
                                   3901 ;E:\Dropbox\FAUSTO\SVILUPPI\MSX\CODE\C\MSXgl\projects\exsoccer/exsoccer_s1_b2.c:710: if (distY > 16) {
    00001503 3E 10            [ 7] 3902 	ld	a, #0x10
    00001505 B9               [ 4] 3903 	cp	a, c
    00001506 3E 00            [ 7] 3904 	ld	a, #0x00
    00001508 98               [ 4] 3905 	sbc	a, b
    00001509 30 3C            [12] 3906 	jr	NC, 00187$
                                   3907 ;E:\Dropbox\FAUSTO\SVILUPPI\MSX\CODE\C\MSXgl\projects\exsoccer/exsoccer_s1_b2.c:712: g_Timer++;
    0000150B DD 7E FD         [19] 3908 	ld	a, -3 (ix)
    0000150E 32r00r00         [13] 3909 	ld	(_g_Timer+0), a
                                   3910 ;E:\Dropbox\FAUSTO\SVILUPPI\MSX\CODE\C\MSXgl\projects\exsoccer/exsoccer_s1_b2.c:713: if (g_Timer > 100) {
    00001511 3E 64            [ 7] 3911 	ld	a, #0x64
    00001513 21r00r00         [10] 3912 	ld	hl, #_g_Timer
    00001516 96               [ 7] 3913 	sub	a, (hl)
    00001517 30 6B            [12] 3914 	jr	NC, 00197$
                                   3915 ;E:\Dropbox\FAUSTO\SVILUPPI\MSX\CODE\C\MSXgl\projects\exsoccer/exsoccer_s1_b2.c:708: u16 distY = (g_Players[gkId].Y > g_Ball.Y) ? (g_Players[gkId].Y - g_Ball.Y) : (g_Ball.Y - g_Players[gkId].Y);
    00001519 2Ar00r00         [16] 3916 	ld	hl, (#_g_Ball + 0)
                                   3917 ;E:\Dropbox\FAUSTO\SVILUPPI\MSX\CODE\C\MSXgl\projects\exsoccer/exsoccer_s1_b2.c:716: if (g_RestartKickTeamId == TEAM_1) kickY = g_Ball.Y + 6; 
    0000151C 3Ar00r00         [13] 3918 	ld	a, (_g_RestartKickTeamId+0)
    0000151F 3D               [ 4] 3919 	dec	a
    00001520 20 09            [12] 3920 	jr	NZ, 00180$
    00001522 01 06 00         [10] 3921 	ld	bc, #0x0006
    00001525 09               [11] 3922 	add	hl, bc
    00001526 4D               [ 4] 3923 	ld	c, l
    00001527 44               [ 4] 3924 	ld	b, h
    00001528 C3r31r15         [10] 3925 	jp	00181$
    0000152B                       3926 00180$:
                                   3927 ;E:\Dropbox\FAUSTO\SVILUPPI\MSX\CODE\C\MSXgl\projects\exsoccer/exsoccer_s1_b2.c:717: else kickY = g_Ball.Y - 6;
    0000152B 01 FA FF         [10] 3928 	ld	bc, #0xfffa
    0000152E 09               [11] 3929 	add	hl,bc
    0000152F 4D               [ 4] 3930 	ld	c, l
    00001530 44               [ 4] 3931 	ld	b, h
    00001531                       3932 00181$:
                                   3933 ;E:\Dropbox\FAUSTO\SVILUPPI\MSX\CODE\C\MSXgl\projects\exsoccer/exsoccer_s1_b2.c:719: g_Players[gkId].TargetY = kickY;
    00001531 DD 6E FA         [19] 3934 	ld	l, -6 (ix)
    00001534 DD 66 FB         [19] 3935 	ld	h, -5 (ix)
    00001537 71               [ 7] 3936 	ld	(hl), c
    00001538 23               [ 6] 3937 	inc	hl
    00001539 70               [ 7] 3938 	ld	(hl), b
                                   3939 ;E:\Dropbox\FAUSTO\SVILUPPI\MSX\CODE\C\MSXgl\projects\exsoccer/exsoccer_s1_b2.c:720: g_Players[gkId].Status = PLAYER_STATUS_NONE;
    0000153A DD 6E FE         [19] 3940 	ld	l, -2 (ix)
    0000153D DD 66 FF         [19] 3941 	ld	h, -1 (ix)
    00001540 AF               [ 4] 3942 	xor	a, a
    00001541 77               [ 7] 3943 	ld	(hl), a
    00001542 23               [ 6] 3944 	inc	hl
    00001543 77               [ 7] 3945 	ld	(hl), a
    00001544 C3r84r15         [10] 3946 	jp	00197$
    00001547                       3947 00187$:
                                   3948 ;E:\Dropbox\FAUSTO\SVILUPPI\MSX\CODE\C\MSXgl\projects\exsoccer/exsoccer_s1_b2.c:724: g_Timer++;
    00001547 DD 7E FD         [19] 3949 	ld	a, -3 (ix)
    0000154A 32r00r00         [13] 3950 	ld	(_g_Timer+0), a
                                   3951 ;E:\Dropbox\FAUSTO\SVILUPPI\MSX\CODE\C\MSXgl\projects\exsoccer/exsoccer_s1_b2.c:725: if (g_Timer > 110) {
    0000154D 3E 6E            [ 7] 3952 	ld	a, #0x6e
    0000154F 21r00r00         [10] 3953 	ld	hl, #_g_Timer
    00001552 96               [ 7] 3954 	sub	a, (hl)
    00001553 30 2F            [12] 3955 	jr	NC, 00197$
                                   3956 ;E:\Dropbox\FAUSTO\SVILUPPI\MSX\CODE\C\MSXgl\projects\exsoccer/exsoccer_s1_b2.c:726: ClearTextFromLayerA(10, 18, 9); 
    00001555 3E 09            [ 7] 3957 	ld	a, #0x09
    00001557 F5               [11] 3958 	push	af
    00001558 33               [ 6] 3959 	inc	sp
    00001559 2E 12            [ 7] 3960 	ld	l, #0x12
                                   3961 ;	spillPairReg hl
                                   3962 ;	spillPairReg hl
    0000155B 3E 0A            [ 7] 3963 	ld	a, #0x0a
    0000155D CDr00r00         [17] 3964 	call	_ClearTextFromLayerA
                                   3965 ;E:\Dropbox\FAUSTO\SVILUPPI\MSX\CODE\C\MSXgl\projects\exsoccer/exsoccer_s1_b2.c:727: GoalkeeperWithBall(g_RestartKickTeamId, true); 
    00001560 2E 01            [ 7] 3966 	ld	l, #0x01
                                   3967 ;	spillPairReg hl
                                   3968 ;	spillPairReg hl
    00001562 3Ar00r00         [13] 3969 	ld	a, (_g_RestartKickTeamId+0)
    00001565 CDrC8r00         [17] 3970 	call	_GoalkeeperWithBall
                                   3971 ;E:\Dropbox\FAUSTO\SVILUPPI\MSX\CODE\C\MSXgl\projects\exsoccer/exsoccer_s1_b2.c:728: g_GkRecoilY = 0;
    00001568 21r00r00         [10] 3972 	ld	hl, #_g_GkRecoilY
    0000156B 36 00            [10] 3973 	ld	(hl), #0x00
    0000156D C3r84r15         [10] 3974 	jp	00197$
    00001570                       3975 00193$:
                                   3976 ;E:\Dropbox\FAUSTO\SVILUPPI\MSX\CODE\C\MSXgl\projects\exsoccer/exsoccer_s1_b2.c:733: if (g_Timer < 100) g_Timer = 61; // Hold at 61 while moving to start
    00001570 3Ar00r00         [13] 3977 	ld	a, (_g_Timer+0)
    00001573 D6 64            [ 7] 3978 	sub	a, #0x64
    00001575 30 08            [12] 3979 	jr	NC, 00190$
    00001577 21r00r00         [10] 3980 	ld	hl, #_g_Timer
    0000157A 36 3D            [10] 3981 	ld	(hl), #0x3d
    0000157C C3r84r15         [10] 3982 	jp	00197$
    0000157F                       3983 00190$:
                                   3984 ;E:\Dropbox\FAUSTO\SVILUPPI\MSX\CODE\C\MSXgl\projects\exsoccer/exsoccer_s1_b2.c:734: else g_Timer = 101; // Hold at 101 while moving to ball
    0000157F 21r00r00         [10] 3985 	ld	hl, #_g_Timer
    00001582 36 65            [10] 3986 	ld	(hl), #0x65
    00001584                       3987 00197$:
                                   3988 ;E:\Dropbox\FAUSTO\SVILUPPI\MSX\CODE\C\MSXgl\projects\exsoccer/exsoccer_s1_b2.c:736: }
    00001584 DD F9            [10] 3989 	ld	sp, ix
    00001586 DD E1            [14] 3990 	pop	ix
    00001588 C9               [10] 3991 	ret
                                   3992 ;E:\Dropbox\FAUSTO\SVILUPPI\MSX\CODE\C\MSXgl\projects\exsoccer/exsoccer_s1_b2.c:738: void SpriteBlinking(){
                                   3993 ;	---------------------------------
                                   3994 ; Function SpriteBlinking
                                   3995 ; ---------------------------------
    00001589                       3996 _SpriteBlinking::
    00001589 3B               [ 6] 3997 	dec	sp
                                   3998 ;E:\Dropbox\FAUSTO\SVILUPPI\MSX\CODE\C\MSXgl\projects\exsoccer/exsoccer_s1_b2.c:739: u8 ms=g_MatchStatus;
    0000158A 3Ar00r00         [13] 3999 	ld	a, (_g_MatchStatus+0)
    0000158D FD 21 00 00      [14] 4000 	ld	iy, #0
    00001591 FD 39            [15] 4001 	add	iy, sp
    00001593 FD 77 00         [19] 4002 	ld	0 (iy), a
                                   4003 ;E:/Dropbox/FAUSTO/SVILUPPI/MSX/CODE/C/MSXgl/engine/src/v9990.h:258: inline void V9_SetFlag(u8 reg, u8 mask, u8 flag) { V9_SetRegister(reg, V9_GetRegister(reg) & (~mask) | flag); }
    00001596 3E 08            [ 7] 4004 	ld	a, #0x08
    00001598 CDr00r00         [17] 4005 	call	_V9_GetRegister
    0000159B CB B7            [ 8] 4006 	res	6, a
    0000159D 6F               [ 4] 4007 	ld	l, a
                                   4008 ;	spillPairReg hl
                                   4009 ;	spillPairReg hl
    0000159E CB F5            [ 8] 4010 	set	6, l
    000015A0 3E 08            [ 7] 4011 	ld	a, #0x08
    000015A2 CDr00r00         [17] 4012 	call	_V9_SetRegister
                                   4013 ;E:/Dropbox/FAUSTO/SVILUPPI/MSX/CODE/C/MSXgl/engine/src/v9990.h:574: inline void V9_SetInterrupt(u8 flags) { V9_SetRegister(9, flags); }
    000015A5 2E 01            [ 7] 4014 	ld	l, #0x01
                                   4015 ;	spillPairReg hl
                                   4016 ;	spillPairReg hl
    000015A7 3E 09            [ 7] 4017 	ld	a, #0x09
    000015A9 CDr00r00         [17] 4018 	call	_V9_SetRegister
                                   4019 ;E:\Dropbox\FAUSTO\SVILUPPI\MSX\CODE\C\MSXgl\projects\exsoccer/exsoccer_s1_b2.c:743: g_MatchStatus=MATCH_PRESENTATION;
    000015AC 3E 0F            [ 7] 4020 	ld	a, #0x0f
    000015AE 32r00r00         [13] 4021 	ld	(#_g_MatchStatus), a
                                   4022 ;E:\Dropbox\FAUSTO\SVILUPPI\MSX\CODE\C\MSXgl\projects\exsoccer/exsoccer_s1_b2.c:745: g_Timer=0;  
    000015B1 AF               [ 4] 4023 	xor	a, a
    000015B2 32r00r00         [13] 4024 	ld	(#_g_Timer), a
                                   4025 ;E:\Dropbox\FAUSTO\SVILUPPI\MSX\CODE\C\MSXgl\projects\exsoccer/exsoccer_s1_b2.c:746: while (g_Timer<=20)
    000015B5                       4026 00101$:
    000015B5 3E 14            [ 7] 4027 	ld	a, #0x14
    000015B7 FD 21r00r00      [14] 4028 	ld	iy, #_g_Timer
    000015BB FD 96 00         [19] 4029 	sub	a, 0 (iy)
    000015BE 38 06            [12] 4030 	jr	C, 00134$
                                   4031 ;E:\Dropbox\FAUSTO\SVILUPPI\MSX\CODE\C\MSXgl\projects\exsoccer/exsoccer_s1_b2.c:748: ResetPlayersInfo();
    000015C0 CDr00r00         [17] 4032 	call	_ResetPlayersInfo
    000015C3 C3rB5r15         [10] 4033 	jp	00101$
                                   4034 ;E:/Dropbox/FAUSTO/SVILUPPI/MSX/CODE/C/MSXgl/engine/src/v9990.h:730: inline void V9_SetSpriteEnable(bool enable) { V9_SetFlag(8, V9_R08_SPD_OFF, enable ? 0 : V9_R08_SPD_OFF); }
    000015C6                       4035 00134$:
                                   4036 ;E:/Dropbox/FAUSTO/SVILUPPI/MSX/CODE/C/MSXgl/engine/src/v9990.h:258: inline void V9_SetFlag(u8 reg, u8 mask, u8 flag) { V9_SetRegister(reg, V9_GetRegister(reg) & (~mask) | flag); }
    000015C6 3E 08            [ 7] 4037 	ld	a, #0x08
    000015C8 CDr00r00         [17] 4038 	call	_V9_GetRegister
    000015CB 6F               [ 4] 4039 	ld	l, a
                                   4040 ;	spillPairReg hl
                                   4041 ;	spillPairReg hl
    000015CC CB B5            [ 8] 4042 	res	6, l
    000015CE 3E 08            [ 7] 4043 	ld	a, #0x08
    000015D0 CDr00r00         [17] 4044 	call	_V9_SetRegister
                                   4045 ;E:\Dropbox\FAUSTO\SVILUPPI\MSX\CODE\C\MSXgl\projects\exsoccer/exsoccer_s1_b2.c:754: g_Timer=0;  
    000015D3 AF               [ 4] 4046 	xor	a, a
    000015D4 32r00r00         [13] 4047 	ld	(#_g_Timer), a
                                   4048 ;E:\Dropbox\FAUSTO\SVILUPPI\MSX\CODE\C\MSXgl\projects\exsoccer/exsoccer_s1_b2.c:755: while (g_Timer<=20)
    000015D7                       4049 00104$:
    000015D7 3E 14            [ 7] 4050 	ld	a, #0x14
    000015D9 FD 21r00r00      [14] 4051 	ld	iy, #_g_Timer
    000015DD FD 96 00         [19] 4052 	sub	a, 0 (iy)
    000015E0 38 06            [12] 4053 	jr	C, 00135$
                                   4054 ;E:\Dropbox\FAUSTO\SVILUPPI\MSX\CODE\C\MSXgl\projects\exsoccer/exsoccer_s1_b2.c:757: ResetPlayersInfo();
    000015E2 CDr00r00         [17] 4055 	call	_ResetPlayersInfo
    000015E5 C3rD7r15         [10] 4056 	jp	00104$
                                   4057 ;E:/Dropbox/FAUSTO/SVILUPPI/MSX/CODE/C/MSXgl/engine/src/v9990.h:730: inline void V9_SetSpriteEnable(bool enable) { V9_SetFlag(8, V9_R08_SPD_OFF, enable ? 0 : V9_R08_SPD_OFF); }
    000015E8                       4058 00135$:
                                   4059 ;E:/Dropbox/FAUSTO/SVILUPPI/MSX/CODE/C/MSXgl/engine/src/v9990.h:258: inline void V9_SetFlag(u8 reg, u8 mask, u8 flag) { V9_SetRegister(reg, V9_GetRegister(reg) & (~mask) | flag); }
    000015E8 3E 08            [ 7] 4060 	ld	a, #0x08
    000015EA CDr00r00         [17] 4061 	call	_V9_GetRegister
    000015ED CB B7            [ 8] 4062 	res	6, a
    000015EF 6F               [ 4] 4063 	ld	l, a
                                   4064 ;	spillPairReg hl
                                   4065 ;	spillPairReg hl
    000015F0 CB F5            [ 8] 4066 	set	6, l
    000015F2 3E 08            [ 7] 4067 	ld	a, #0x08
    000015F4 CDr00r00         [17] 4068 	call	_V9_SetRegister
                                   4069 ;E:\Dropbox\FAUSTO\SVILUPPI\MSX\CODE\C\MSXgl\projects\exsoccer/exsoccer_s1_b2.c:762: g_Timer=0;  
    000015F7 AF               [ 4] 4070 	xor	a, a
    000015F8 32r00r00         [13] 4071 	ld	(#_g_Timer), a
                                   4072 ;E:\Dropbox\FAUSTO\SVILUPPI\MSX\CODE\C\MSXgl\projects\exsoccer/exsoccer_s1_b2.c:763: while (g_Timer<=20)
    000015FB                       4073 00107$:
    000015FB 3E 14            [ 7] 4074 	ld	a, #0x14
    000015FD FD 21r00r00      [14] 4075 	ld	iy, #_g_Timer
    00001601 FD 96 00         [19] 4076 	sub	a, 0 (iy)
    00001604 38 06            [12] 4077 	jr	C, 00138$
                                   4078 ;E:\Dropbox\FAUSTO\SVILUPPI\MSX\CODE\C\MSXgl\projects\exsoccer/exsoccer_s1_b2.c:765: ResetPlayersInfo();
    00001606 CDr00r00         [17] 4079 	call	_ResetPlayersInfo
    00001609 C3rFBr15         [10] 4080 	jp	00107$
                                   4081 ;E:/Dropbox/FAUSTO/SVILUPPI/MSX/CODE/C/MSXgl/engine/src/v9990.h:730: inline void V9_SetSpriteEnable(bool enable) { V9_SetFlag(8, V9_R08_SPD_OFF, enable ? 0 : V9_R08_SPD_OFF); }
    0000160C                       4082 00138$:
                                   4083 ;E:/Dropbox/FAUSTO/SVILUPPI/MSX/CODE/C/MSXgl/engine/src/v9990.h:258: inline void V9_SetFlag(u8 reg, u8 mask, u8 flag) { V9_SetRegister(reg, V9_GetRegister(reg) & (~mask) | flag); }
    0000160C 3E 08            [ 7] 4084 	ld	a, #0x08
    0000160E CDr00r00         [17] 4085 	call	_V9_GetRegister
    00001611 6F               [ 4] 4086 	ld	l, a
                                   4087 ;	spillPairReg hl
                                   4088 ;	spillPairReg hl
    00001612 CB B5            [ 8] 4089 	res	6, l
    00001614 3E 08            [ 7] 4090 	ld	a, #0x08
    00001616 CDr00r00         [17] 4091 	call	_V9_SetRegister
                                   4092 ;E:\Dropbox\FAUSTO\SVILUPPI\MSX\CODE\C\MSXgl\projects\exsoccer/exsoccer_s1_b2.c:769: g_Timer=0;  
    00001619 AF               [ 4] 4093 	xor	a, a
    0000161A 32r00r00         [13] 4094 	ld	(#_g_Timer), a
                                   4095 ;E:\Dropbox\FAUSTO\SVILUPPI\MSX\CODE\C\MSXgl\projects\exsoccer/exsoccer_s1_b2.c:770: while (g_Timer<=20)
    0000161D                       4096 00110$:
    0000161D 3E 14            [ 7] 4097 	ld	a, #0x14
    0000161F FD 21r00r00      [14] 4098 	ld	iy, #_g_Timer
    00001623 FD 96 00         [19] 4099 	sub	a, 0 (iy)
    00001626 38 06            [12] 4100 	jr	C, 00139$
                                   4101 ;E:\Dropbox\FAUSTO\SVILUPPI\MSX\CODE\C\MSXgl\projects\exsoccer/exsoccer_s1_b2.c:772: ResetPlayersInfo();
    00001628 CDr00r00         [17] 4102 	call	_ResetPlayersInfo
    0000162B C3r1Dr16         [10] 4103 	jp	00110$
                                   4104 ;E:/Dropbox/FAUSTO/SVILUPPI/MSX/CODE/C/MSXgl/engine/src/v9990.h:730: inline void V9_SetSpriteEnable(bool enable) { V9_SetFlag(8, V9_R08_SPD_OFF, enable ? 0 : V9_R08_SPD_OFF); }
    0000162E                       4105 00139$:
                                   4106 ;E:/Dropbox/FAUSTO/SVILUPPI/MSX/CODE/C/MSXgl/engine/src/v9990.h:258: inline void V9_SetFlag(u8 reg, u8 mask, u8 flag) { V9_SetRegister(reg, V9_GetRegister(reg) & (~mask) | flag); }
    0000162E 3E 08            [ 7] 4107 	ld	a, #0x08
    00001630 CDr00r00         [17] 4108 	call	_V9_GetRegister
    00001633 CB B7            [ 8] 4109 	res	6, a
    00001635 6F               [ 4] 4110 	ld	l, a
                                   4111 ;	spillPairReg hl
                                   4112 ;	spillPairReg hl
    00001636 CB F5            [ 8] 4113 	set	6, l
    00001638 3E 08            [ 7] 4114 	ld	a, #0x08
    0000163A CDr00r00         [17] 4115 	call	_V9_SetRegister
                                   4116 ;E:\Dropbox\FAUSTO\SVILUPPI\MSX\CODE\C\MSXgl\projects\exsoccer/exsoccer_s1_b2.c:777: g_Timer=0;  
    0000163D AF               [ 4] 4117 	xor	a, a
    0000163E 32r00r00         [13] 4118 	ld	(#_g_Timer), a
                                   4119 ;E:\Dropbox\FAUSTO\SVILUPPI\MSX\CODE\C\MSXgl\projects\exsoccer/exsoccer_s1_b2.c:778: while (g_Timer<=20)
    00001641                       4120 00113$:
    00001641 3E 14            [ 7] 4121 	ld	a, #0x14
    00001643 FD 21r00r00      [14] 4122 	ld	iy, #_g_Timer
    00001647 FD 96 00         [19] 4123 	sub	a, 0 (iy)
    0000164A 38 06            [12] 4124 	jr	C, 00142$
                                   4125 ;E:\Dropbox\FAUSTO\SVILUPPI\MSX\CODE\C\MSXgl\projects\exsoccer/exsoccer_s1_b2.c:780: ResetPlayersInfo();
    0000164C CDr00r00         [17] 4126 	call	_ResetPlayersInfo
    0000164F C3r41r16         [10] 4127 	jp	00113$
                                   4128 ;E:/Dropbox/FAUSTO/SVILUPPI/MSX/CODE/C/MSXgl/engine/src/v9990.h:730: inline void V9_SetSpriteEnable(bool enable) { V9_SetFlag(8, V9_R08_SPD_OFF, enable ? 0 : V9_R08_SPD_OFF); }
    00001652                       4129 00142$:
                                   4130 ;E:/Dropbox/FAUSTO/SVILUPPI/MSX/CODE/C/MSXgl/engine/src/v9990.h:258: inline void V9_SetFlag(u8 reg, u8 mask, u8 flag) { V9_SetRegister(reg, V9_GetRegister(reg) & (~mask) | flag); }
    00001652 3E 08            [ 7] 4131 	ld	a, #0x08
    00001654 CDr00r00         [17] 4132 	call	_V9_GetRegister
    00001657 6F               [ 4] 4133 	ld	l, a
                                   4134 ;	spillPairReg hl
                                   4135 ;	spillPairReg hl
    00001658 CB B5            [ 8] 4136 	res	6, l
    0000165A 3E 08            [ 7] 4137 	ld	a, #0x08
    0000165C CDr00r00         [17] 4138 	call	_V9_SetRegister
                                   4139 ;E:\Dropbox\FAUSTO\SVILUPPI\MSX\CODE\C\MSXgl\projects\exsoccer/exsoccer_s1_b2.c:783: g_MatchStatus=ms;
    0000165F FD 21 00 00      [14] 4140 	ld	iy, #0
    00001663 FD 39            [15] 4141 	add	iy, sp
    00001665 FD 7E 00         [19] 4142 	ld	a, 0 (iy)
    00001668 32r00r00         [13] 4143 	ld	(_g_MatchStatus+0), a
                                   4144 ;E:\Dropbox\FAUSTO\SVILUPPI\MSX\CODE\C\MSXgl\projects\exsoccer/exsoccer_s1_b2.c:785: }
    0000166B 33               [ 6] 4145 	inc	sp
    0000166C C9               [10] 4146 	ret
                                   4147 ;E:\Dropbox\FAUSTO\SVILUPPI\MSX\CODE\C\MSXgl\projects\exsoccer/exsoccer_s1_b2.c:786: void SetTeamsPresentationSpritesPosition(){
                                   4148 ;	---------------------------------
                                   4149 ; Function SetTeamsPresentationSpritesPosition
                                   4150 ; ---------------------------------
    0000166D                       4151 _SetTeamsPresentationSpritesPosition::
    0000166D DD E5            [15] 4152 	push	ix
    0000166F DD 21 00 00      [14] 4153 	ld	ix,#0
    00001673 DD 39            [15] 4154 	add	ix,sp
    00001675 F5               [11] 4155 	push	af
    00001676 F5               [11] 4156 	push	af
                                   4157 ;E:\Dropbox\FAUSTO\SVILUPPI\MSX\CODE\C\MSXgl\projects\exsoccer/exsoccer_s1_b2.c:787: g_MatchStatus=MATCH_NOT_STARTED;
    00001677 21r00r00         [10] 4158 	ld	hl, #_g_MatchStatus
                                   4159 ;E:\Dropbox\FAUSTO\SVILUPPI\MSX\CODE\C\MSXgl\projects\exsoccer/exsoccer_s1_b2.c:788: for(u8 i=0;i<7;i++){
    0000167A 36 00            [10] 4160 	ld	(hl), #0x00
    0000167C 4E               [ 7] 4161 	ld	c, (hl)
    0000167D                       4162 00105$:
    0000167D 79               [ 4] 4163 	ld	a, c
    0000167E D6 07            [ 7] 4164 	sub	a, #0x07
    00001680 30 53            [12] 4165 	jr	NC, 00101$
                                   4166 ;E:\Dropbox\FAUSTO\SVILUPPI\MSX\CODE\C\MSXgl\projects\exsoccer/exsoccer_s1_b2.c:789: g_Players[i].Y=230;
    00001682 06 00            [ 7] 4167 	ld	b, #0x00
    00001684 69               [ 4] 4168 	ld	l, c
    00001685 60               [ 4] 4169 	ld	h, b
    00001686 29               [11] 4170 	add	hl, hl
    00001687 29               [11] 4171 	add	hl, hl
    00001688 09               [11] 4172 	add	hl, bc
    00001689 29               [11] 4173 	add	hl, hl
    0000168A 29               [11] 4174 	add	hl, hl
    0000168B 09               [11] 4175 	add	hl, bc
    0000168C EB               [ 4] 4176 	ex	de, hl
    0000168D 21r00r00         [10] 4177 	ld	hl, #_g_Players
    00001690 19               [11] 4178 	add	hl, de
    00001691 E3               [19] 4179 	ex	(sp), hl
    00001692 E1               [10] 4180 	pop	hl
    00001693 E5               [11] 4181 	push	hl
    00001694 36 E6            [10] 4182 	ld	(hl), #0xe6
    00001696 23               [ 6] 4183 	inc	hl
    00001697 36 00            [10] 4184 	ld	(hl), #0x00
                                   4185 ;E:\Dropbox\FAUSTO\SVILUPPI\MSX\CODE\C\MSXgl\projects\exsoccer/exsoccer_s1_b2.c:790: g_Players[i].X=72+i*20;
    00001699 DD 7E FC         [19] 4186 	ld	a, -4 (ix)
    0000169C C6 02            [ 7] 4187 	add	a, #0x02
    0000169E DD 77 FE         [19] 4188 	ld	-2 (ix), a
    000016A1 DD 7E FD         [19] 4189 	ld	a, -3 (ix)
    000016A4 CE 00            [ 7] 4190 	adc	a, #0x00
    000016A6 DD 77 FF         [19] 4191 	ld	-1 (ix), a
    000016A9 59               [ 4] 4192 	ld	e, c
    000016AA 16 00            [ 7] 4193 	ld	d, #0x00
    000016AC 6B               [ 4] 4194 	ld	l, e
    000016AD 62               [ 4] 4195 	ld	h, d
    000016AE 29               [11] 4196 	add	hl, hl
    000016AF 29               [11] 4197 	add	hl, hl
    000016B0 19               [11] 4198 	add	hl, de
    000016B1 29               [11] 4199 	add	hl, hl
    000016B2 29               [11] 4200 	add	hl, hl
    000016B3 11 48 00         [10] 4201 	ld	de, #0x0048
    000016B6 19               [11] 4202 	add	hl, de
    000016B7 EB               [ 4] 4203 	ex	de, hl
    000016B8 DD 6E FE         [19] 4204 	ld	l, -2 (ix)
    000016BB DD 66 FF         [19] 4205 	ld	h, -1 (ix)
    000016BE 73               [ 7] 4206 	ld	(hl), e
    000016BF 23               [ 6] 4207 	inc	hl
    000016C0 72               [ 7] 4208 	ld	(hl), d
                                   4209 ;E:\Dropbox\FAUSTO\SVILUPPI\MSX\CODE\C\MSXgl\projects\exsoccer/exsoccer_s1_b2.c:791: g_Players[i].PatternId=PLAYER_POSE_FRONT;
    000016C1 E1               [10] 4210 	pop	hl
    000016C2 E5               [11] 4211 	push	hl
    000016C3 11 08 00         [10] 4212 	ld	de, #0x0008
    000016C6 19               [11] 4213 	add	hl, de
    000016C7 36 10            [10] 4214 	ld	(hl), #0x10
                                   4215 ;E:\Dropbox\FAUSTO\SVILUPPI\MSX\CODE\C\MSXgl\projects\exsoccer/exsoccer_s1_b2.c:792: g_Players[i].TeamId=TEAM_2;
    000016C9 E1               [10] 4216 	pop	hl
    000016CA E5               [11] 4217 	push	hl
    000016CB 11 09 00         [10] 4218 	ld	de, #0x0009
    000016CE 19               [11] 4219 	add	hl, de
    000016CF 36 02            [10] 4220 	ld	(hl), #0x02
                                   4221 ;E:\Dropbox\FAUSTO\SVILUPPI\MSX\CODE\C\MSXgl\projects\exsoccer/exsoccer_s1_b2.c:788: for(u8 i=0;i<7;i++){
    000016D1 0C               [ 4] 4222 	inc	c
    000016D2 C3r7Dr16         [10] 4223 	jp	00105$
    000016D5                       4224 00101$:
                                   4225 ;E:\Dropbox\FAUSTO\SVILUPPI\MSX\CODE\C\MSXgl\projects\exsoccer/exsoccer_s1_b2.c:795: for(u8 i=7;i<14;i++){
    000016D5 0E 07            [ 7] 4226 	ld	c, #0x07
    000016D7                       4227 00108$:
    000016D7 79               [ 4] 4228 	ld	a, c
    000016D8 D6 0E            [ 7] 4229 	sub	a, #0x0e
    000016DA 30 55            [12] 4230 	jr	NC, 00102$
                                   4231 ;E:\Dropbox\FAUSTO\SVILUPPI\MSX\CODE\C\MSXgl\projects\exsoccer/exsoccer_s1_b2.c:796: g_Players[i].Y=250;
    000016DC 06 00            [ 7] 4232 	ld	b, #0x00
    000016DE 69               [ 4] 4233 	ld	l, c
    000016DF 60               [ 4] 4234 	ld	h, b
    000016E0 29               [11] 4235 	add	hl, hl
    000016E1 29               [11] 4236 	add	hl, hl
    000016E2 09               [11] 4237 	add	hl, bc
    000016E3 29               [11] 4238 	add	hl, hl
    000016E4 29               [11] 4239 	add	hl, hl
    000016E5 09               [11] 4240 	add	hl, bc
    000016E6 11r00r00         [10] 4241 	ld	de, #_g_Players
    000016E9 19               [11] 4242 	add	hl, de
    000016EA 5D               [ 4] 4243 	ld	e, l
    000016EB 54               [ 4] 4244 	ld	d, h
    000016EC 36 FA            [10] 4245 	ld	(hl), #0xfa
    000016EE 23               [ 6] 4246 	inc	hl
    000016EF 36 00            [10] 4247 	ld	(hl), #0x00
                                   4248 ;E:\Dropbox\FAUSTO\SVILUPPI\MSX\CODE\C\MSXgl\projects\exsoccer/exsoccer_s1_b2.c:797: g_Players[i].X=72+(i-7)*20;
    000016F1 21 02 00         [10] 4249 	ld	hl, #0x0002
    000016F4 19               [11] 4250 	add	hl, de
    000016F5 E3               [19] 4251 	ex	(sp), hl
    000016F6 79               [ 4] 4252 	ld	a, c
    000016F7 06 00            [ 7] 4253 	ld	b, #0x00
    000016F9 C6 F9            [ 7] 4254 	add	a, #0xf9
    000016FB 6F               [ 4] 4255 	ld	l, a
                                   4256 ;	spillPairReg hl
                                   4257 ;	spillPairReg hl
    000016FC 78               [ 4] 4258 	ld	a, b
    000016FD CE FF            [ 7] 4259 	adc	a, #0xff
    000016FF 67               [ 4] 4260 	ld	h, a
                                   4261 ;	spillPairReg hl
                                   4262 ;	spillPairReg hl
    00001700 D5               [11] 4263 	push	de
    00001701 5D               [ 4] 4264 	ld	e, l
    00001702 54               [ 4] 4265 	ld	d, h
    00001703 29               [11] 4266 	add	hl, hl
    00001704 29               [11] 4267 	add	hl, hl
    00001705 19               [11] 4268 	add	hl, de
    00001706 29               [11] 4269 	add	hl, hl
    00001707 29               [11] 4270 	add	hl, hl
    00001708 D1               [10] 4271 	pop	de
    00001709 7D               [ 4] 4272 	ld	a, l
    0000170A C6 48            [ 7] 4273 	add	a, #0x48
    0000170C 47               [ 4] 4274 	ld	b, a
    0000170D 7C               [ 4] 4275 	ld	a, h
    0000170E CE 00            [ 7] 4276 	adc	a, #0x00
    00001710 DD 70 FE         [19] 4277 	ld	-2 (ix), b
    00001713 DD 77 FF         [19] 4278 	ld	-1 (ix), a
    00001716 E1               [10] 4279 	pop	hl
    00001717 E5               [11] 4280 	push	hl
    00001718 DD 7E FE         [19] 4281 	ld	a, -2 (ix)
    0000171B 77               [ 7] 4282 	ld	(hl), a
    0000171C 23               [ 6] 4283 	inc	hl
    0000171D DD 7E FF         [19] 4284 	ld	a, -1 (ix)
    00001720 77               [ 7] 4285 	ld	(hl), a
                                   4286 ;E:\Dropbox\FAUSTO\SVILUPPI\MSX\CODE\C\MSXgl\projects\exsoccer/exsoccer_s1_b2.c:798: g_Players[i].PatternId=PLAYER_POSE_BACK;
    00001721 21 08 00         [10] 4287 	ld	hl, #0x0008
    00001724 19               [11] 4288 	add	hl, de
    00001725 36 11            [10] 4289 	ld	(hl), #0x11
                                   4290 ;E:\Dropbox\FAUSTO\SVILUPPI\MSX\CODE\C\MSXgl\projects\exsoccer/exsoccer_s1_b2.c:799: g_Players[i].TeamId=TEAM_1;
    00001727 21 09 00         [10] 4291 	ld	hl, #0x0009
    0000172A 19               [11] 4292 	add	hl, de
    0000172B 36 01            [10] 4293 	ld	(hl), #0x01
                                   4294 ;E:\Dropbox\FAUSTO\SVILUPPI\MSX\CODE\C\MSXgl\projects\exsoccer/exsoccer_s1_b2.c:795: for(u8 i=7;i<14;i++){
    0000172D 0C               [ 4] 4295 	inc	c
    0000172E C3rD7r16         [10] 4296 	jp	00108$
    00001731                       4297 00102$:
                                   4298 ;E:\Dropbox\FAUSTO\SVILUPPI\MSX\CODE\C\MSXgl\projects\exsoccer/exsoccer_s1_b2.c:801: g_Players[REFEREE].Y=FIELD_POS_Y_CENTER;
    00001731 21 F3 00         [10] 4299 	ld	hl, #0x00f3
    00001734 22r26r01         [16] 4300 	ld	((_g_Players + 294)), hl
                                   4301 ;E:\Dropbox\FAUSTO\SVILUPPI\MSX\CODE\C\MSXgl\projects\exsoccer/exsoccer_s1_b2.c:802: g_Players[REFEREE].X=30;
    00001737 2E 1E            [ 7] 4302 	ld	l, #0x1e
    00001739 22r28r01         [16] 4303 	ld	((_g_Players + 296)), hl
                                   4304 ;E:\Dropbox\FAUSTO\SVILUPPI\MSX\CODE\C\MSXgl\projects\exsoccer/exsoccer_s1_b2.c:803: g_Players[REFEREE].PatternId=PLAYER_POSE_RIGHT;
    0000173C 21r2Er01         [10] 4305 	ld	hl, #(_g_Players + 302)
    0000173F 36 9D            [10] 4306 	ld	(hl), #0x9d
                                   4307 ;E:\Dropbox\FAUSTO\SVILUPPI\MSX\CODE\C\MSXgl\projects\exsoccer/exsoccer_s1_b2.c:804: g_Players[REFEREE].TeamId=REFEREE;
    00001741 21r2Fr01         [10] 4308 	ld	hl, #(_g_Players + 303)
    00001744 36 0E            [10] 4309 	ld	(hl), #0x0e
                                   4310 ;E:\Dropbox\FAUSTO\SVILUPPI\MSX\CODE\C\MSXgl\projects\exsoccer/exsoccer_s1_b2.c:805: g_Players[REFEREE].LastPose=0;
    00001746 21r32r01         [10] 4311 	ld	hl, #(_g_Players + 306)
    00001749 36 00            [10] 4312 	ld	(hl), #0x00
                                   4313 ;E:\Dropbox\FAUSTO\SVILUPPI\MSX\CODE\C\MSXgl\projects\exsoccer/exsoccer_s1_b2.c:806: g_Players[REFEREE].Direction=DIRECTION_RIGHT;
    0000174B 21r30r01         [10] 4314 	ld	hl, #(_g_Players + 304)
    0000174E 36 03            [10] 4315 	ld	(hl), #0x03
                                   4316 ;E:\Dropbox\FAUSTO\SVILUPPI\MSX\CODE\C\MSXgl\projects\exsoccer/exsoccer_s1_b2.c:807: g_Players[REFEREE].Role=NO_VALUE;
    00001750 21r33r01         [10] 4317 	ld	hl, #(_g_Players + 307)
    00001753 36 FF            [10] 4318 	ld	(hl), #0xff
                                   4319 ;E:\Dropbox\FAUSTO\SVILUPPI\MSX\CODE\C\MSXgl\projects\exsoccer/exsoccer_s1_b2.c:808: g_Players[REFEREE].Status=PLAYER_STATUS_NONE;
    00001755 21 00 00         [10] 4320 	ld	hl, #0x0000
    00001758 22r38r01         [16] 4321 	ld	((_g_Players + 312)), hl
                                   4322 ;E:\Dropbox\FAUSTO\SVILUPPI\MSX\CODE\C\MSXgl\projects\exsoccer/exsoccer_s1_b2.c:809: ResetPlayersInfo();
    0000175B CDr00r00         [17] 4323 	call	_ResetPlayersInfo
                                   4324 ;E:\Dropbox\FAUSTO\SVILUPPI\MSX\CODE\C\MSXgl\projects\exsoccer/exsoccer_s1_b2.c:810: SetPlayerTarget(REFEREE); 
    0000175E 3E 0E            [ 7] 4325 	ld	a, #0x0e
    00001760 CDr00r00         [17] 4326 	call	_SetPlayerTarget
                                   4327 ;E:\Dropbox\FAUSTO\SVILUPPI\MSX\CODE\C\MSXgl\projects\exsoccer/exsoccer_s1_b2.c:818: for(u8 i=0;i<14;i++){
    00001763 0E 00            [ 7] 4328 	ld	c, #0x00
    00001765                       4329 00111$:
    00001765 79               [ 4] 4330 	ld	a, c
    00001766 D6 0E            [ 7] 4331 	sub	a, #0x0e
    00001768 30 39            [12] 4332 	jr	NC, 00103$
                                   4333 ;E:\Dropbox\FAUSTO\SVILUPPI\MSX\CODE\C\MSXgl\projects\exsoccer/exsoccer_s1_b2.c:819: g_Players[i].AiTickCounter=0;
    0000176A 06 00            [ 7] 4334 	ld	b, #0x00
    0000176C 69               [ 4] 4335 	ld	l, c
    0000176D 60               [ 4] 4336 	ld	h, b
    0000176E 29               [11] 4337 	add	hl, hl
    0000176F 29               [11] 4338 	add	hl, hl
    00001770 09               [11] 4339 	add	hl, bc
    00001771 29               [11] 4340 	add	hl, hl
    00001772 29               [11] 4341 	add	hl, hl
    00001773 09               [11] 4342 	add	hl, bc
    00001774 EB               [ 4] 4343 	ex	de, hl
    00001775 21r00r00         [10] 4344 	ld	hl, #_g_Players
    00001778 19               [11] 4345 	add	hl, de
    00001779 EB               [ 4] 4346 	ex	de, hl
    0000177A 21 14 00         [10] 4347 	ld	hl, #0x0014
    0000177D 19               [11] 4348 	add	hl, de
    0000177E 36 00            [10] 4349 	ld	(hl), #0x00
                                   4350 ;E:\Dropbox\FAUSTO\SVILUPPI\MSX\CODE\C\MSXgl\projects\exsoccer/exsoccer_s1_b2.c:820: g_Players[i].Role = k_PlayerRoles[i % 7];
    00001780 21 0D 00         [10] 4351 	ld	hl, #0x000d
    00001783 19               [11] 4352 	add	hl, de
    00001784 DD 75 FE         [19] 4353 	ld	-2 (ix), l
    00001787 DD 74 FF         [19] 4354 	ld	-1 (ix), h
    0000178A 69               [ 4] 4355 	ld	l, c
                                   4356 ;	spillPairReg hl
                                   4357 ;	spillPairReg hl
    0000178B 26 00            [ 7] 4358 	ld	h, #0x00
                                   4359 ;	spillPairReg hl
                                   4360 ;	spillPairReg hl
    0000178D C5               [11] 4361 	push	bc
    0000178E 11 07 00         [10] 4362 	ld	de, #0x0007
    00001791 CDr00r00         [17] 4363 	call	__modsint
    00001794 C1               [10] 4364 	pop	bc
    00001795 21rC0r17         [10] 4365 	ld	hl, #_SetTeamsPresentationSpritesPosition_k_PlayerRoles_65537_1322
    00001798 19               [11] 4366 	add	hl, de
    00001799 7E               [ 7] 4367 	ld	a, (hl)
    0000179A D1               [10] 4368 	pop	de
    0000179B E1               [10] 4369 	pop	hl
    0000179C E5               [11] 4370 	push	hl
    0000179D D5               [11] 4371 	push	de
    0000179E 77               [ 7] 4372 	ld	(hl), a
                                   4373 ;E:\Dropbox\FAUSTO\SVILUPPI\MSX\CODE\C\MSXgl\projects\exsoccer/exsoccer_s1_b2.c:818: for(u8 i=0;i<14;i++){
    0000179F 0C               [ 4] 4374 	inc	c
    000017A0 C3r65r17         [10] 4375 	jp	00111$
    000017A3                       4376 00103$:
                                   4377 ;E:\Dropbox\FAUSTO\SVILUPPI\MSX\CODE\C\MSXgl\projects\exsoccer/exsoccer_s1_b2.c:822: g_Ball.X=FIELD_POS_X_CENTER;
    000017A3 21 78 00         [10] 4378 	ld	hl, #0x0078
    000017A6 22r02r00         [16] 4379 	ld	((_g_Ball + 2)), hl
                                   4380 ;E:\Dropbox\FAUSTO\SVILUPPI\MSX\CODE\C\MSXgl\projects\exsoccer/exsoccer_s1_b2.c:823: g_Ball.Y=FIELD_POS_Y_CENTER;
    000017A9 2E F3            [ 7] 4381 	ld	l, #0xf3
    000017AB 22r00r00         [16] 4382 	ld	(_g_Ball), hl
                                   4383 ;E:\Dropbox\FAUSTO\SVILUPPI\MSX\CODE\C\MSXgl\projects\exsoccer/exsoccer_s1_b2.c:824: g_Ball.PreviousY=g_Ball.Y;
    000017AE ED 4Br00r00      [20] 4384 	ld	bc, (#_g_Ball + 0)
    000017B2 ED 43r07r00      [20] 4385 	ld	((_g_Ball + 7)), bc
                                   4386 ;E:\Dropbox\FAUSTO\SVILUPPI\MSX\CODE\C\MSXgl\projects\exsoccer/exsoccer_s1_b2.c:825: ResetBallInfo(true);
    000017B6 3E 01            [ 7] 4387 	ld	a, #0x01
    000017B8 CDr72r38         [17] 4388 	call	_ResetBallInfo
                                   4389 ;E:\Dropbox\FAUSTO\SVILUPPI\MSX\CODE\C\MSXgl\projects\exsoccer/exsoccer_s1_b2.c:827: }
    000017BB DD F9            [10] 4390 	ld	sp, ix
    000017BD DD E1            [14] 4391 	pop	ix
    000017BF C9               [10] 4392 	ret
    000017C0                       4393 _SetTeamsPresentationSpritesPosition_k_PlayerRoles_65537_1322:
    000017C0 00                    4394 	.db #0x00	; 0
    000017C1 01                    4395 	.db #0x01	; 1
    000017C2 04                    4396 	.db #0x04	; 4
    000017C3 03                    4397 	.db #0x03	; 3
    000017C4 02                    4398 	.db #0x02	; 2
    000017C5 05                    4399 	.db #0x05	; 5
    000017C6 06                    4400 	.db #0x06	; 6
                                   4401 ;E:\Dropbox\FAUSTO\SVILUPPI\MSX\CODE\C\MSXgl\projects\exsoccer/exsoccer_s1_b2.c:829: void TickCornerKick() {
                                   4402 ;	---------------------------------
                                   4403 ; Function TickCornerKick
                                   4404 ; ---------------------------------
    000017C7                       4405 _TickCornerKick::
    000017C7 DD E5            [15] 4406 	push	ix
    000017C9 DD 21 00 00      [14] 4407 	ld	ix,#0
    000017CD DD 39            [15] 4408 	add	ix,sp
    000017CF 21 E9 FF         [10] 4409 	ld	hl, #-23
    000017D2 39               [11] 4410 	add	hl, sp
    000017D3 F9               [ 6] 4411 	ld	sp, hl
                                   4412 ;E:\Dropbox\FAUSTO\SVILUPPI\MSX\CODE\C\MSXgl\projects\exsoccer/exsoccer_s1_b2.c:830: if (g_MatchStatus != MATCH_BEFORE_CORNER_KICK) return;
    000017D4 3Ar00r00         [13] 4413 	ld	a, (_g_MatchStatus+0)
    000017D7 D6 02            [ 7] 4414 	sub	a, #0x02
    000017D9 C2r9Fr22         [10] 4415 	jp	NZ,00270$
                                   4416 ;E:\Dropbox\FAUSTO\SVILUPPI\MSX\CODE\C\MSXgl\projects\exsoccer/exsoccer_s1_b2.c:833: if (g_Timer == 0) s_ForceKickTimer = 0;
    000017DC 3Ar00r00         [13] 4417 	ld	a, (_g_Timer+0)
    000017DF B7               [ 4] 4418 	or	a, a
    000017E0 20 06            [12] 4419 	jr	NZ, 00104$
    000017E2 21 00 00         [10] 4420 	ld	hl, #0x0000
    000017E5 22r01r00         [16] 4421 	ld	(_TickCornerKick_s_ForceKickTimer_65537_1326), hl
    000017E8                       4422 00104$:
                                   4423 ;E:\Dropbox\FAUSTO\SVILUPPI\MSX\CODE\C\MSXgl\projects\exsoccer/exsoccer_s1_b2.c:839: if (g_Ball.PossessionPlayerId != NO_VALUE) {
    000017E8 3Ar06r00         [13] 4424 	ld	a, (#(_g_Ball + 6) + 0)
    000017EB FE FF            [ 7] 4425 	cp	a, #0xff
    000017ED 28 06            [12] 4426 	jr	Z, 00109$
                                   4427 ;E:\Dropbox\FAUSTO\SVILUPPI\MSX\CODE\C\MSXgl\projects\exsoccer/exsoccer_s1_b2.c:840: kickerId = g_Ball.PossessionPlayerId;
    000017EF DD 77 E9         [19] 4428 	ld	-23 (ix), a
    000017F2 C3r14r18         [10] 4429 	jp	00110$
    000017F5                       4430 00109$:
                                   4431 ;E:\Dropbox\FAUSTO\SVILUPPI\MSX\CODE\C\MSXgl\projects\exsoccer/exsoccer_s1_b2.c:842: if (g_CornerKickSide == CORNER_SIDE_LEFT) kickerId = GetPlayerIdByRole(g_RestartKickTeamId, PLAYER_ROLE_LEFT_STRIKER);
    000017F5 3Ar00r00         [13] 4432 	ld	a, (_g_CornerKickSide+0)
    000017F8 B7               [ 4] 4433 	or	a, a
    000017F9 20 0E            [12] 4434 	jr	NZ, 00106$
    000017FB 2E 05            [ 7] 4435 	ld	l, #0x05
                                   4436 ;	spillPairReg hl
                                   4437 ;	spillPairReg hl
    000017FD 3Ar00r00         [13] 4438 	ld	a, (_g_RestartKickTeamId+0)
    00001800 CDr00r00         [17] 4439 	call	_GetPlayerIdByRole
    00001803 DD 77 E9         [19] 4440 	ld	-23 (ix), a
    00001806 C3r14r18         [10] 4441 	jp	00110$
    00001809                       4442 00106$:
                                   4443 ;E:\Dropbox\FAUSTO\SVILUPPI\MSX\CODE\C\MSXgl\projects\exsoccer/exsoccer_s1_b2.c:843: else kickerId = GetPlayerIdByRole(g_RestartKickTeamId, PLAYER_ROLE_RIGHT_STRIKER);
    00001809 2E 06            [ 7] 4444 	ld	l, #0x06
                                   4445 ;	spillPairReg hl
                                   4446 ;	spillPairReg hl
    0000180B 3Ar00r00         [13] 4447 	ld	a, (_g_RestartKickTeamId+0)
    0000180E CDr00r00         [17] 4448 	call	_GetPlayerIdByRole
    00001811 DD 77 E9         [19] 4449 	ld	-23 (ix), a
    00001814                       4450 00110$:
                                   4451 ;E:\Dropbox\FAUSTO\SVILUPPI\MSX\CODE\C\MSXgl\projects\exsoccer/exsoccer_s1_b2.c:847: if (kickerId == NO_VALUE) {
    00001814 DD 7E E9         [19] 4452 	ld	a, -23 (ix)
    00001817 3C               [ 4] 4453 	inc	a
    00001818 20 0B            [12] 4454 	jr	NZ, 00112$
                                   4455 ;E:\Dropbox\FAUSTO\SVILUPPI\MSX\CODE\C\MSXgl\projects\exsoccer/exsoccer_s1_b2.c:848: kickerId = GetClosestPlayerToBall(g_RestartKickTeamId, NO_VALUE);
    0000181A 2E FF            [ 7] 4456 	ld	l, #0xff
                                   4457 ;	spillPairReg hl
                                   4458 ;	spillPairReg hl
    0000181C 3Ar00r00         [13] 4459 	ld	a, (_g_RestartKickTeamId+0)
    0000181F CDr00r00         [17] 4460 	call	_GetClosestPlayerToBall
    00001822 DD 77 E9         [19] 4461 	ld	-23 (ix), a
    00001825                       4462 00112$:
                                   4463 ;E:\Dropbox\FAUSTO\SVILUPPI\MSX\CODE\C\MSXgl\projects\exsoccer/exsoccer_s1_b2.c:856: bool kickerArrived = false;
    00001825 DD 36 EA 00      [19] 4464 	ld	-22 (ix), #0x00
                                   4465 ;E:\Dropbox\FAUSTO\SVILUPPI\MSX\CODE\C\MSXgl\projects\exsoccer/exsoccer_s1_b2.c:857: if (kickerId != NO_VALUE) {
    00001829 DD 7E E9         [19] 4466 	ld	a, -23 (ix)
    0000182C 3C               [ 4] 4467 	inc	a
    0000182D 3E 01            [ 7] 4468 	ld	a, #0x01
    0000182F 28 01            [12] 4469 	jr	Z, 00800$
    00001831 AF               [ 4] 4470 	xor	a, a
    00001832                       4471 00800$:
    00001832 DD 77 EB         [19] 4472 	ld	-21 (ix), a
    00001835 DD CB EB 46      [20] 4473 	bit	0, -21 (ix)
    00001839 C2rC2r19         [10] 4474 	jp	NZ, 00121$
                                   4475 ;E:\Dropbox\FAUSTO\SVILUPPI\MSX\CODE\C\MSXgl\projects\exsoccer/exsoccer_s1_b2.c:858: i16 dx = (i16)g_Players[kickerId].X - (i16)g_Players[kickerId].TargetX;
    0000183C DD 4E E9         [19] 4476 	ld	c, -23 (ix)
    0000183F 06 00            [ 7] 4477 	ld	b, #0x00
    00001841 69               [ 4] 4478 	ld	l, c
    00001842 60               [ 4] 4479 	ld	h, b
    00001843 29               [11] 4480 	add	hl, hl
    00001844 29               [11] 4481 	add	hl, hl
    00001845 09               [11] 4482 	add	hl, bc
    00001846 29               [11] 4483 	add	hl, hl
    00001847 29               [11] 4484 	add	hl, hl
    00001848 09               [11] 4485 	add	hl, bc
    00001849 DD 75 FE         [19] 4486 	ld	-2 (ix), l
    0000184C DD 74 FF         [19] 4487 	ld	-1 (ix), h
    0000184F 3Er00            [ 7] 4488 	ld	a, #<(_g_Players)
    00001851 DD 86 FE         [19] 4489 	add	a, -2 (ix)
    00001854 DD 77 F0         [19] 4490 	ld	-16 (ix), a
    00001857 3Es00            [ 7] 4491 	ld	a, #>(_g_Players)
    00001859 DD 8E FF         [19] 4492 	adc	a, -1 (ix)
    0000185C DD 77 F1         [19] 4493 	ld	-15 (ix), a
    0000185F DD 7E F0         [19] 4494 	ld	a, -16 (ix)
    00001862 C6 02            [ 7] 4495 	add	a, #0x02
    00001864 DD 77 F2         [19] 4496 	ld	-14 (ix), a
    00001867 DD 7E F1         [19] 4497 	ld	a, -15 (ix)
    0000186A CE 00            [ 7] 4498 	adc	a, #0x00
    0000186C DD 77 F3         [19] 4499 	ld	-13 (ix), a
    0000186F DD 6E F2         [19] 4500 	ld	l, -14 (ix)
    00001872 DD 66 F3         [19] 4501 	ld	h, -13 (ix)
    00001875 7E               [ 7] 4502 	ld	a, (hl)
    00001876 DD 77 FE         [19] 4503 	ld	-2 (ix), a
    00001879 23               [ 6] 4504 	inc	hl
    0000187A 7E               [ 7] 4505 	ld	a, (hl)
    0000187B DD 77 FF         [19] 4506 	ld	-1 (ix), a
    0000187E DD 7E FE         [19] 4507 	ld	a, -2 (ix)
    00001881 DD 77 FA         [19] 4508 	ld	-6 (ix), a
    00001884 DD 7E FF         [19] 4509 	ld	a, -1 (ix)
    00001887 DD 77 FB         [19] 4510 	ld	-5 (ix), a
    0000188A DD 7E F0         [19] 4511 	ld	a, -16 (ix)
    0000188D DD 77 FE         [19] 4512 	ld	-2 (ix), a
    00001890 DD 7E F1         [19] 4513 	ld	a, -15 (ix)
    00001893 DD 77 FF         [19] 4514 	ld	-1 (ix), a
    00001896 DD 6E FE         [19] 4515 	ld	l, -2 (ix)
    00001899 DD 66 FF         [19] 4516 	ld	h, -1 (ix)
    0000189C 11 10 00         [10] 4517 	ld	de, #0x0010
    0000189F 19               [11] 4518 	add	hl, de
    000018A0 7E               [ 7] 4519 	ld	a, (hl)
    000018A1 DD 77 F4         [19] 4520 	ld	-12 (ix), a
    000018A4 23               [ 6] 4521 	inc	hl
    000018A5 7E               [ 7] 4522 	ld	a, (hl)
    000018A6 DD 77 F5         [19] 4523 	ld	-11 (ix), a
    000018A9 DD 7E F4         [19] 4524 	ld	a, -12 (ix)
    000018AC DD 77 FC         [19] 4525 	ld	-4 (ix), a
    000018AF DD 7E F5         [19] 4526 	ld	a, -11 (ix)
    000018B2 DD 77 FD         [19] 4527 	ld	-3 (ix), a
    000018B5 DD 7E FA         [19] 4528 	ld	a, -6 (ix)
    000018B8 DD 96 FC         [19] 4529 	sub	a, -4 (ix)
    000018BB DD 77 FE         [19] 4530 	ld	-2 (ix), a
    000018BE DD 7E FB         [19] 4531 	ld	a, -5 (ix)
    000018C1 DD 9E FD         [19] 4532 	sbc	a, -3 (ix)
    000018C4 DD 77 FF         [19] 4533 	ld	-1 (ix), a
    000018C7 DD 7E FE         [19] 4534 	ld	a, -2 (ix)
    000018CA DD 77 F6         [19] 4535 	ld	-10 (ix), a
    000018CD DD 7E FF         [19] 4536 	ld	a, -1 (ix)
    000018D0 DD 77 F7         [19] 4537 	ld	-9 (ix), a
                                   4538 ;E:\Dropbox\FAUSTO\SVILUPPI\MSX\CODE\C\MSXgl\projects\exsoccer/exsoccer_s1_b2.c:859: i16 dy = (i16)g_Players[kickerId].Y - (i16)g_Players[kickerId].TargetY;
    000018D3 DD 6E F0         [19] 4539 	ld	l, -16 (ix)
    000018D6 DD 66 F1         [19] 4540 	ld	h, -15 (ix)
    000018D9 7E               [ 7] 4541 	ld	a, (hl)
    000018DA DD 77 FE         [19] 4542 	ld	-2 (ix), a
    000018DD 23               [ 6] 4543 	inc	hl
    000018DE 7E               [ 7] 4544 	ld	a, (hl)
    000018DF DD 77 FF         [19] 4545 	ld	-1 (ix), a
    000018E2 DD 7E FE         [19] 4546 	ld	a, -2 (ix)
    000018E5 DD 77 F8         [19] 4547 	ld	-8 (ix), a
    000018E8 DD 7E FF         [19] 4548 	ld	a, -1 (ix)
    000018EB DD 77 F9         [19] 4549 	ld	-7 (ix), a
    000018EE DD 7E F0         [19] 4550 	ld	a, -16 (ix)
    000018F1 C6 0E            [ 7] 4551 	add	a, #0x0e
    000018F3 DD 77 FA         [19] 4552 	ld	-6 (ix), a
    000018F6 DD 7E F1         [19] 4553 	ld	a, -15 (ix)
    000018F9 CE 00            [ 7] 4554 	adc	a, #0x00
    000018FB DD 77 FB         [19] 4555 	ld	-5 (ix), a
    000018FE DD 6E FA         [19] 4556 	ld	l, -6 (ix)
    00001901 DD 66 FB         [19] 4557 	ld	h, -5 (ix)
    00001904 7E               [ 7] 4558 	ld	a, (hl)
    00001905 DD 77 FE         [19] 4559 	ld	-2 (ix), a
    00001908 23               [ 6] 4560 	inc	hl
    00001909 7E               [ 7] 4561 	ld	a, (hl)
    0000190A DD 77 FF         [19] 4562 	ld	-1 (ix), a
    0000190D DD 7E FE         [19] 4563 	ld	a, -2 (ix)
    00001910 DD 77 FC         [19] 4564 	ld	-4 (ix), a
    00001913 DD 7E FF         [19] 4565 	ld	a, -1 (ix)
    00001916 DD 77 FD         [19] 4566 	ld	-3 (ix), a
    00001919 DD 7E F8         [19] 4567 	ld	a, -8 (ix)
    0000191C DD 96 FC         [19] 4568 	sub	a, -4 (ix)
    0000191F DD 77 FE         [19] 4569 	ld	-2 (ix), a
    00001922 DD 7E F9         [19] 4570 	ld	a, -7 (ix)
    00001925 DD 9E FD         [19] 4571 	sbc	a, -3 (ix)
    00001928 DD 77 FF         [19] 4572 	ld	-1 (ix), a
                                   4573 ;E:\Dropbox\FAUSTO\SVILUPPI\MSX\CODE\C\MSXgl\projects\exsoccer/exsoccer_s1_b2.c:861: if (dx >= -2 && dx <= 2 && dy >= -2 && dy <= 2) {
    0000192B DD 7E F6         [19] 4574 	ld	a, -10 (ix)
    0000192E D6 FE            [ 7] 4575 	sub	a, #0xfe
    00001930 DD 7E F7         [19] 4576 	ld	a, -9 (ix)
    00001933 17               [ 4] 4577 	rla
    00001934 3F               [ 4] 4578 	ccf
    00001935 1F               [ 4] 4579 	rra
    00001936 DE 7F            [ 7] 4580 	sbc	a, #0x7f
    00001938 DArC2r19         [10] 4581 	jp	C, 00121$
    0000193B DD 4E F6         [19] 4582 	ld	c, -10 (ix)
    0000193E DD 46 F7         [19] 4583 	ld	b, -9 (ix)
    00001941 3E 02            [ 7] 4584 	ld	a, #0x02
    00001943 B9               [ 4] 4585 	cp	a, c
    00001944 3E 00            [ 7] 4586 	ld	a, #0x00
    00001946 98               [ 4] 4587 	sbc	a, b
    00001947 E2r4Cr19         [10] 4588 	jp	PO, 00801$
    0000194A EE 80            [ 7] 4589 	xor	a, #0x80
    0000194C                       4590 00801$:
    0000194C FArC2r19         [10] 4591 	jp	M, 00121$
    0000194F DD 7E FE         [19] 4592 	ld	a, -2 (ix)
    00001952 D6 FE            [ 7] 4593 	sub	a, #0xfe
    00001954 DD 7E FF         [19] 4594 	ld	a, -1 (ix)
    00001957 17               [ 4] 4595 	rla
    00001958 3F               [ 4] 4596 	ccf
    00001959 1F               [ 4] 4597 	rra
    0000195A DE 7F            [ 7] 4598 	sbc	a, #0x7f
    0000195C 38 64            [12] 4599 	jr	C, 00121$
    0000195E DD 4E FE         [19] 4600 	ld	c, -2 (ix)
    00001961 DD 46 FF         [19] 4601 	ld	b, -1 (ix)
    00001964 3E 02            [ 7] 4602 	ld	a, #0x02
    00001966 B9               [ 4] 4603 	cp	a, c
    00001967 3E 00            [ 7] 4604 	ld	a, #0x00
    00001969 98               [ 4] 4605 	sbc	a, b
    0000196A E2r6Fr19         [10] 4606 	jp	PO, 00802$
    0000196D EE 80            [ 7] 4607 	xor	a, #0x80
    0000196F                       4608 00802$:
    0000196F FArC2r19         [10] 4609 	jp	M, 00121$
                                   4610 ;E:\Dropbox\FAUSTO\SVILUPPI\MSX\CODE\C\MSXgl\projects\exsoccer/exsoccer_s1_b2.c:862: kickerArrived = true;
    00001972 DD 36 EA 01      [19] 4611 	ld	-22 (ix), #0x01
                                   4612 ;E:\Dropbox\FAUSTO\SVILUPPI\MSX\CODE\C\MSXgl\projects\exsoccer/exsoccer_s1_b2.c:863: g_Players[kickerId].X = g_Players[kickerId].TargetX;
    00001976 DD 6E F2         [19] 4613 	ld	l, -14 (ix)
    00001979 DD 66 F3         [19] 4614 	ld	h, -13 (ix)
    0000197C DD 7E F4         [19] 4615 	ld	a, -12 (ix)
    0000197F 77               [ 7] 4616 	ld	(hl), a
    00001980 23               [ 6] 4617 	inc	hl
    00001981 DD 7E F5         [19] 4618 	ld	a, -11 (ix)
    00001984 77               [ 7] 4619 	ld	(hl), a
                                   4620 ;E:\Dropbox\FAUSTO\SVILUPPI\MSX\CODE\C\MSXgl\projects\exsoccer/exsoccer_s1_b2.c:864: g_Players[kickerId].Y = g_Players[kickerId].TargetY;
    00001985 DD 6E FA         [19] 4621 	ld	l, -6 (ix)
    00001988 DD 66 FB         [19] 4622 	ld	h, -5 (ix)
    0000198B 4E               [ 7] 4623 	ld	c, (hl)
    0000198C 23               [ 6] 4624 	inc	hl
    0000198D 46               [ 7] 4625 	ld	b, (hl)
    0000198E DD 6E F0         [19] 4626 	ld	l, -16 (ix)
    00001991 DD 66 F1         [19] 4627 	ld	h, -15 (ix)
    00001994 71               [ 7] 4628 	ld	(hl), c
    00001995 23               [ 6] 4629 	inc	hl
    00001996 70               [ 7] 4630 	ld	(hl), b
                                   4631 ;E:\Dropbox\FAUSTO\SVILUPPI\MSX\CODE\C\MSXgl\projects\exsoccer/exsoccer_s1_b2.c:865: g_Players[kickerId].Status = PLAYER_STATUS_POSITIONED;
    00001997 DD 6E F0         [19] 4632 	ld	l, -16 (ix)
    0000199A DD 66 F1         [19] 4633 	ld	h, -15 (ix)
    0000199D 11 12 00         [10] 4634 	ld	de, #0x0012
    000019A0 19               [11] 4635 	add	hl, de
    000019A1 36 04            [10] 4636 	ld	(hl), #0x04
    000019A3 23               [ 6] 4637 	inc	hl
    000019A4 36 00            [10] 4638 	ld	(hl), #0x00
                                   4639 ;E:\Dropbox\FAUSTO\SVILUPPI\MSX\CODE\C\MSXgl\projects\exsoccer/exsoccer_s1_b2.c:867: if (g_Ball.PossessionPlayerId != kickerId) {
    000019A6 21r06r00         [10] 4640 	ld	hl, #(_g_Ball + 6)
    000019A9 DD 7E E9         [19] 4641 	ld	a,-23 (ix)
    000019AC 96               [ 7] 4642 	sub	a,(hl)
    000019AD 28 13            [12] 4643 	jr	Z, 00121$
                                   4644 ;E:\Dropbox\FAUSTO\SVILUPPI\MSX\CODE\C\MSXgl\projects\exsoccer/exsoccer_s1_b2.c:868: SetPlayerBallPossession(kickerId);
    000019AF DD 7E E9         [19] 4645 	ld	a, -23 (ix)
    000019B2 CDr00r00         [17] 4646 	call	_SetPlayerBallPossession
                                   4647 ;E:\Dropbox\FAUSTO\SVILUPPI\MSX\CODE\C\MSXgl\projects\exsoccer/exsoccer_s1_b2.c:869: g_Ball.PossessionPlayerId = kickerId;
    000019B5 21r06r00         [10] 4648 	ld	hl, #(_g_Ball + 6)
    000019B8 DD 7E E9         [19] 4649 	ld	a, -23 (ix)
    000019BB 77               [ 7] 4650 	ld	(hl), a
                                   4651 ;E:\Dropbox\FAUSTO\SVILUPPI\MSX\CODE\C\MSXgl\projects\exsoccer/exsoccer_s1_b2.c:870: PutBallOnPlayerFeet(kickerId);
    000019BC DD 7E E9         [19] 4652 	ld	a, -23 (ix)
    000019BF CDr00r00         [17] 4653 	call	_PutBallOnPlayerFeet
    000019C2                       4654 00121$:
                                   4655 ;E:\Dropbox\FAUSTO\SVILUPPI\MSX\CODE\C\MSXgl\projects\exsoccer/exsoccer_s1_b2.c:876: bool teammatesArrived = true;
    000019C2 DD 36 EC 01      [19] 4656 	ld	-20 (ix), #0x01
                                   4657 ;E:\Dropbox\FAUSTO\SVILUPPI\MSX\CODE\C\MSXgl\projects\exsoccer/exsoccer_s1_b2.c:877: for(u8 i=0; i<14; i++) {
    000019C6 DD 36 FF 00      [19] 4658 	ld	-1 (ix), #0x00
    000019CA                       4659 00263$:
    000019CA DD 7E FF         [19] 4660 	ld	a, -1 (ix)
    000019CD D6 0E            [ 7] 4661 	sub	a, #0x0e
    000019CF D2rA1r1B         [10] 4662 	jp	NC, 00134$
                                   4663 ;E:\Dropbox\FAUSTO\SVILUPPI\MSX\CODE\C\MSXgl\projects\exsoccer/exsoccer_s1_b2.c:878: if (g_Players[i].TeamId == g_RestartKickTeamId && i != kickerId && g_Players[i].Role != PLAYER_ROLE_GOALKEEPER) {
    000019D2 DD 4E FF         [19] 4664 	ld	c, -1 (ix)
    000019D5 06 00            [ 7] 4665 	ld	b, #0x00
    000019D7 69               [ 4] 4666 	ld	l, c
    000019D8 60               [ 4] 4667 	ld	h, b
    000019D9 29               [11] 4668 	add	hl, hl
    000019DA 29               [11] 4669 	add	hl, hl
    000019DB 09               [11] 4670 	add	hl, bc
    000019DC 29               [11] 4671 	add	hl, hl
    000019DD 29               [11] 4672 	add	hl, hl
    000019DE 09               [11] 4673 	add	hl, bc
    000019DF DD 75 FD         [19] 4674 	ld	-3 (ix), l
    000019E2 DD 74 FE         [19] 4675 	ld	-2 (ix), h
    000019E5 DD 7E FD         [19] 4676 	ld	a, -3 (ix)
    000019E8 C6r00            [ 7] 4677 	add	a, #<(_g_Players)
    000019EA DD 77 ED         [19] 4678 	ld	-19 (ix), a
    000019ED DD 7E FE         [19] 4679 	ld	a, -2 (ix)
    000019F0 CEs00            [ 7] 4680 	adc	a, #>(_g_Players)
    000019F2 DD 77 EE         [19] 4681 	ld	-18 (ix), a
    000019F5 DD 7E ED         [19] 4682 	ld	a, -19 (ix)
    000019F8 DD 77 FD         [19] 4683 	ld	-3 (ix), a
    000019FB DD 7E EE         [19] 4684 	ld	a, -18 (ix)
    000019FE DD 77 FE         [19] 4685 	ld	-2 (ix), a
    00001A01 DD 6E FD         [19] 4686 	ld	l, -3 (ix)
    00001A04 DD 66 FE         [19] 4687 	ld	h, -2 (ix)
    00001A07 11 09 00         [10] 4688 	ld	de, #0x0009
    00001A0A 19               [11] 4689 	add	hl, de
    00001A0B 4E               [ 7] 4690 	ld	c, (hl)
    00001A0C 3Ar00r00         [13] 4691 	ld	a, (_g_RestartKickTeamId+0)
    00001A0F 91               [ 4] 4692 	sub	a, c
    00001A10 C2r9Br1B         [10] 4693 	jp	NZ,00264$
    00001A13 DD 7E FF         [19] 4694 	ld	a, -1 (ix)
    00001A16 DD 96 E9         [19] 4695 	sub	a, -23 (ix)
    00001A19 CAr9Br1B         [10] 4696 	jp	Z,00264$
    00001A1C DD 7E ED         [19] 4697 	ld	a, -19 (ix)
    00001A1F DD 77 FD         [19] 4698 	ld	-3 (ix), a
    00001A22 DD 7E EE         [19] 4699 	ld	a, -18 (ix)
    00001A25 DD 77 FE         [19] 4700 	ld	-2 (ix), a
    00001A28 DD 6E FD         [19] 4701 	ld	l, -3 (ix)
    00001A2B DD 66 FE         [19] 4702 	ld	h, -2 (ix)
    00001A2E 11 0D 00         [10] 4703 	ld	de, #0x000d
    00001A31 19               [11] 4704 	add	hl, de
    00001A32 7E               [ 7] 4705 	ld	a, (hl)
    00001A33 DD 77 FE         [19] 4706 	ld	-2 (ix), a
    00001A36 B7               [ 4] 4707 	or	a, a
    00001A37 CAr9Br1B         [10] 4708 	jp	Z, 00264$
                                   4709 ;E:\Dropbox\FAUSTO\SVILUPPI\MSX\CODE\C\MSXgl\projects\exsoccer/exsoccer_s1_b2.c:880: if (g_Players[i].Status != PLAYER_STATUS_POSITIONED) {
    00001A3A DD 7E ED         [19] 4710 	ld	a, -19 (ix)
    00001A3D C6 12            [ 7] 4711 	add	a, #0x12
    00001A3F DD 77 EF         [19] 4712 	ld	-17 (ix), a
    00001A42 DD 7E EE         [19] 4713 	ld	a, -18 (ix)
    00001A45 CE 00            [ 7] 4714 	adc	a, #0x00
    00001A47 DD 77 F0         [19] 4715 	ld	-16 (ix), a
    00001A4A DD 6E EF         [19] 4716 	ld	l, -17 (ix)
    00001A4D DD 66 F0         [19] 4717 	ld	h, -16 (ix)
    00001A50 7E               [ 7] 4718 	ld	a, (hl)
    00001A51 DD 77 FD         [19] 4719 	ld	-3 (ix), a
    00001A54 23               [ 6] 4720 	inc	hl
    00001A55 7E               [ 7] 4721 	ld	a, (hl)
    00001A56 DD 77 FE         [19] 4722 	ld	-2 (ix), a
    00001A59 DD 7E FD         [19] 4723 	ld	a, -3 (ix)
    00001A5C D6 04            [ 7] 4724 	sub	a, #0x04
    00001A5E DD B6 FE         [19] 4725 	or	a, -2 (ix)
    00001A61 CAr9Br1B         [10] 4726 	jp	Z,00264$
                                   4727 ;E:\Dropbox\FAUSTO\SVILUPPI\MSX\CODE\C\MSXgl\projects\exsoccer/exsoccer_s1_b2.c:881: i16 dx = (i16)g_Players[i].X - (i16)g_Players[i].TargetX;
    00001A64 DD 7E ED         [19] 4728 	ld	a, -19 (ix)
    00001A67 C6 02            [ 7] 4729 	add	a, #0x02
    00001A69 DD 77 F1         [19] 4730 	ld	-15 (ix), a
    00001A6C DD 7E EE         [19] 4731 	ld	a, -18 (ix)
    00001A6F CE 00            [ 7] 4732 	adc	a, #0x00
    00001A71 DD 77 F2         [19] 4733 	ld	-14 (ix), a
    00001A74 DD 6E F1         [19] 4734 	ld	l, -15 (ix)
    00001A77 DD 66 F2         [19] 4735 	ld	h, -14 (ix)
    00001A7A 7E               [ 7] 4736 	ld	a, (hl)
    00001A7B DD 77 FD         [19] 4737 	ld	-3 (ix), a
    00001A7E 23               [ 6] 4738 	inc	hl
    00001A7F 7E               [ 7] 4739 	ld	a, (hl)
    00001A80 DD 77 FE         [19] 4740 	ld	-2 (ix), a
    00001A83 DD 7E FD         [19] 4741 	ld	a, -3 (ix)
    00001A86 DD 77 FB         [19] 4742 	ld	-5 (ix), a
    00001A89 DD 7E FE         [19] 4743 	ld	a, -2 (ix)
    00001A8C DD 77 FC         [19] 4744 	ld	-4 (ix), a
    00001A8F DD 7E ED         [19] 4745 	ld	a, -19 (ix)
    00001A92 DD 77 FD         [19] 4746 	ld	-3 (ix), a
    00001A95 DD 7E EE         [19] 4747 	ld	a, -18 (ix)
    00001A98 DD 77 FE         [19] 4748 	ld	-2 (ix), a
    00001A9B DD 6E FD         [19] 4749 	ld	l, -3 (ix)
    00001A9E DD 66 FE         [19] 4750 	ld	h, -2 (ix)
    00001AA1 11 10 00         [10] 4751 	ld	de, #0x0010
    00001AA4 19               [11] 4752 	add	hl, de
    00001AA5 7E               [ 7] 4753 	ld	a, (hl)
    00001AA6 DD 77 F3         [19] 4754 	ld	-13 (ix), a
    00001AA9 23               [ 6] 4755 	inc	hl
    00001AAA 7E               [ 7] 4756 	ld	a, (hl)
    00001AAB DD 77 F4         [19] 4757 	ld	-12 (ix), a
    00001AAE DD 6E F3         [19] 4758 	ld	l, -13 (ix)
                                   4759 ;	spillPairReg hl
                                   4760 ;	spillPairReg hl
    00001AB1 DD 66 F4         [19] 4761 	ld	h, -12 (ix)
                                   4762 ;	spillPairReg hl
                                   4763 ;	spillPairReg hl
    00001AB4 DD 7E FB         [19] 4764 	ld	a, -5 (ix)
    00001AB7 95               [ 4] 4765 	sub	a, l
    00001AB8 DD 77 FD         [19] 4766 	ld	-3 (ix), a
    00001ABB DD 7E FC         [19] 4767 	ld	a, -4 (ix)
    00001ABE 9C               [ 4] 4768 	sbc	a, h
    00001ABF DD 77 FE         [19] 4769 	ld	-2 (ix), a
    00001AC2 DD 7E FD         [19] 4770 	ld	a, -3 (ix)
    00001AC5 DD 77 F5         [19] 4771 	ld	-11 (ix), a
    00001AC8 DD 7E FE         [19] 4772 	ld	a, -2 (ix)
    00001ACB DD 77 F6         [19] 4773 	ld	-10 (ix), a
                                   4774 ;E:\Dropbox\FAUSTO\SVILUPPI\MSX\CODE\C\MSXgl\projects\exsoccer/exsoccer_s1_b2.c:882: i16 dy = (i16)g_Players[i].Y - (i16)g_Players[i].TargetY;
    00001ACE DD 6E ED         [19] 4775 	ld	l, -19 (ix)
    00001AD1 DD 66 EE         [19] 4776 	ld	h, -18 (ix)
    00001AD4 7E               [ 7] 4777 	ld	a, (hl)
    00001AD5 DD 77 FD         [19] 4778 	ld	-3 (ix), a
    00001AD8 23               [ 6] 4779 	inc	hl
    00001AD9 7E               [ 7] 4780 	ld	a, (hl)
    00001ADA DD 77 FE         [19] 4781 	ld	-2 (ix), a
    00001ADD DD 7E FD         [19] 4782 	ld	a, -3 (ix)
    00001AE0 DD 77 F7         [19] 4783 	ld	-9 (ix), a
    00001AE3 DD 7E FE         [19] 4784 	ld	a, -2 (ix)
    00001AE6 DD 77 F8         [19] 4785 	ld	-8 (ix), a
    00001AE9 DD 7E ED         [19] 4786 	ld	a, -19 (ix)
    00001AEC C6 0E            [ 7] 4787 	add	a, #0x0e
    00001AEE DD 77 F9         [19] 4788 	ld	-7 (ix), a
    00001AF1 DD 7E EE         [19] 4789 	ld	a, -18 (ix)
    00001AF4 CE 00            [ 7] 4790 	adc	a, #0x00
    00001AF6 DD 77 FA         [19] 4791 	ld	-6 (ix), a
    00001AF9 DD 6E F9         [19] 4792 	ld	l, -7 (ix)
    00001AFC DD 66 FA         [19] 4793 	ld	h, -6 (ix)
    00001AFF 7E               [ 7] 4794 	ld	a, (hl)
    00001B00 DD 77 FD         [19] 4795 	ld	-3 (ix), a
    00001B03 23               [ 6] 4796 	inc	hl
    00001B04 7E               [ 7] 4797 	ld	a, (hl)
    00001B05 DD 77 FE         [19] 4798 	ld	-2 (ix), a
    00001B08 DD 7E FD         [19] 4799 	ld	a, -3 (ix)
    00001B0B DD 77 FB         [19] 4800 	ld	-5 (ix), a
    00001B0E DD 7E FE         [19] 4801 	ld	a, -2 (ix)
    00001B11 DD 77 FC         [19] 4802 	ld	-4 (ix), a
    00001B14 DD 7E F7         [19] 4803 	ld	a, -9 (ix)
    00001B17 DD 96 FB         [19] 4804 	sub	a, -5 (ix)
    00001B1A DD 77 FD         [19] 4805 	ld	-3 (ix), a
    00001B1D DD 7E F8         [19] 4806 	ld	a, -8 (ix)
    00001B20 DD 9E FC         [19] 4807 	sbc	a, -4 (ix)
    00001B23 DD 77 FE         [19] 4808 	ld	-2 (ix), a
    00001B26 DD 4E FD         [19] 4809 	ld	c, -3 (ix)
    00001B29 DD 46 FE         [19] 4810 	ld	b, -2 (ix)
                                   4811 ;E:\Dropbox\FAUSTO\SVILUPPI\MSX\CODE\C\MSXgl\projects\exsoccer/exsoccer_s1_b2.c:883: if (dx < -6 || dx > 6 || dy < -6 || dy > 6) {
    00001B2C DD 7E F5         [19] 4812 	ld	a, -11 (ix)
    00001B2F D6 FA            [ 7] 4813 	sub	a, #0xfa
    00001B31 DD 7E F6         [19] 4814 	ld	a, -10 (ix)
    00001B34 17               [ 4] 4815 	rla
    00001B35 3F               [ 4] 4816 	ccf
    00001B36 1F               [ 4] 4817 	rra
    00001B37 DE 7F            [ 7] 4818 	sbc	a, #0x7f
    00001B39 38 2D            [12] 4819 	jr	C, 00122$
    00001B3B DD 5E F5         [19] 4820 	ld	e, -11 (ix)
    00001B3E DD 56 F6         [19] 4821 	ld	d, -10 (ix)
    00001B41 3E 06            [ 7] 4822 	ld	a, #0x06
    00001B43 BB               [ 4] 4823 	cp	a, e
    00001B44 3E 00            [ 7] 4824 	ld	a, #0x00
    00001B46 9A               [ 4] 4825 	sbc	a, d
    00001B47 E2r4Cr1B         [10] 4826 	jp	PO, 00808$
    00001B4A EE 80            [ 7] 4827 	xor	a, #0x80
    00001B4C                       4828 00808$:
    00001B4C FAr68r1B         [10] 4829 	jp	M, 00122$
    00001B4F 79               [ 4] 4830 	ld	a, c
    00001B50 D6 FA            [ 7] 4831 	sub	a, #0xfa
    00001B52 78               [ 4] 4832 	ld	a, b
    00001B53 17               [ 4] 4833 	rla
    00001B54 3F               [ 4] 4834 	ccf
    00001B55 1F               [ 4] 4835 	rra
    00001B56 DE 7F            [ 7] 4836 	sbc	a, #0x7f
    00001B58 38 0E            [12] 4837 	jr	C, 00122$
    00001B5A 3E 06            [ 7] 4838 	ld	a, #0x06
    00001B5C B9               [ 4] 4839 	cp	a, c
    00001B5D 3E 00            [ 7] 4840 	ld	a, #0x00
    00001B5F 98               [ 4] 4841 	sbc	a, b
    00001B60 E2r65r1B         [10] 4842 	jp	PO, 00809$
    00001B63 EE 80            [ 7] 4843 	xor	a, #0x80
    00001B65                       4844 00809$:
    00001B65 F2r6Fr1B         [10] 4845 	jp	P, 00123$
    00001B68                       4846 00122$:
                                   4847 ;E:\Dropbox\FAUSTO\SVILUPPI\MSX\CODE\C\MSXgl\projects\exsoccer/exsoccer_s1_b2.c:884: teammatesArrived = false; // Someone is still far away
    00001B68 DD 36 EC 00      [19] 4848 	ld	-20 (ix), #0x00
    00001B6C C3r9Br1B         [10] 4849 	jp	00264$
    00001B6F                       4850 00123$:
                                   4851 ;E:\Dropbox\FAUSTO\SVILUPPI\MSX\CODE\C\MSXgl\projects\exsoccer/exsoccer_s1_b2.c:887: g_Players[i].X = g_Players[i].TargetX;
    00001B6F DD 6E F1         [19] 4852 	ld	l, -15 (ix)
    00001B72 DD 66 F2         [19] 4853 	ld	h, -14 (ix)
    00001B75 DD 7E F3         [19] 4854 	ld	a, -13 (ix)
    00001B78 77               [ 7] 4855 	ld	(hl), a
    00001B79 23               [ 6] 4856 	inc	hl
    00001B7A DD 7E F4         [19] 4857 	ld	a, -12 (ix)
    00001B7D 77               [ 7] 4858 	ld	(hl), a
                                   4859 ;E:\Dropbox\FAUSTO\SVILUPPI\MSX\CODE\C\MSXgl\projects\exsoccer/exsoccer_s1_b2.c:888: g_Players[i].Y = g_Players[i].TargetY;
    00001B7E DD 6E F9         [19] 4860 	ld	l, -7 (ix)
    00001B81 DD 66 FA         [19] 4861 	ld	h, -6 (ix)
    00001B84 4E               [ 7] 4862 	ld	c, (hl)
    00001B85 23               [ 6] 4863 	inc	hl
    00001B86 46               [ 7] 4864 	ld	b, (hl)
    00001B87 DD 6E ED         [19] 4865 	ld	l, -19 (ix)
    00001B8A DD 66 EE         [19] 4866 	ld	h, -18 (ix)
    00001B8D 71               [ 7] 4867 	ld	(hl), c
    00001B8E 23               [ 6] 4868 	inc	hl
    00001B8F 70               [ 7] 4869 	ld	(hl), b
                                   4870 ;E:\Dropbox\FAUSTO\SVILUPPI\MSX\CODE\C\MSXgl\projects\exsoccer/exsoccer_s1_b2.c:889: g_Players[i].Status = PLAYER_STATUS_POSITIONED;
    00001B90 DD 6E EF         [19] 4871 	ld	l, -17 (ix)
    00001B93 DD 66 F0         [19] 4872 	ld	h, -16 (ix)
    00001B96 36 04            [10] 4873 	ld	(hl), #0x04
    00001B98 23               [ 6] 4874 	inc	hl
    00001B99 36 00            [10] 4875 	ld	(hl), #0x00
    00001B9B                       4876 00264$:
                                   4877 ;E:\Dropbox\FAUSTO\SVILUPPI\MSX\CODE\C\MSXgl\projects\exsoccer/exsoccer_s1_b2.c:877: for(u8 i=0; i<14; i++) {
    00001B9B DD 34 FF         [23] 4878 	inc	-1 (ix)
    00001B9E C3rCAr19         [10] 4879 	jp	00263$
    00001BA1                       4880 00134$:
                                   4881 ;E:\Dropbox\FAUSTO\SVILUPPI\MSX\CODE\C\MSXgl\projects\exsoccer/exsoccer_s1_b2.c:896: if (g_Timer < 180 || (kickerId != NO_VALUE && !kickerArrived) || !teammatesArrived) {
    00001BA1 3Ar00r00         [13] 4882 	ld	a, (_g_Timer+0)
    00001BA4 D6 B4            [ 7] 4883 	sub	a, #0xb4
    00001BA6 3E 00            [ 7] 4884 	ld	a, #0x00
    00001BA8 17               [ 4] 4885 	rla
    00001BA9 4F               [ 4] 4886 	ld	c, a
    00001BAA B7               [ 4] 4887 	or	a, a
    00001BAB 20 13            [12] 4888 	jr	NZ, 00165$
    00001BAD DD CB EB 46      [20] 4889 	bit	0, -21 (ix)
    00001BB1 20 06            [12] 4890 	jr	NZ, 00169$
    00001BB3 DD 7E EA         [19] 4891 	ld	a, -22 (ix)
    00001BB6 B7               [ 4] 4892 	or	a, a
    00001BB7 28 07            [12] 4893 	jr	Z, 00165$
    00001BB9                       4894 00169$:
    00001BB9 DD 7E EC         [19] 4895 	ld	a, -20 (ix)
    00001BBC B7               [ 4] 4896 	or	a, a
    00001BBD C2rD4r1D         [10] 4897 	jp	NZ, 00166$
    00001BC0                       4898 00165$:
                                   4899 ;E:\Dropbox\FAUSTO\SVILUPPI\MSX\CODE\C\MSXgl\projects\exsoccer/exsoccer_s1_b2.c:897: if (g_Timer < 180) g_Timer++;
    00001BC0 79               [ 4] 4900 	ld	a, c
    00001BC1 B7               [ 4] 4901 	or	a, a
    00001BC2 28 04            [12] 4902 	jr	Z, 00346$
    00001BC4 21r00r00         [10] 4903 	ld	hl, #_g_Timer
    00001BC7 34               [11] 4904 	inc	(hl)
                                   4905 ;E:\Dropbox\FAUSTO\SVILUPPI\MSX\CODE\C\MSXgl\projects\exsoccer/exsoccer_s1_b2.c:900: for(u8 i=0; i<14; i++) {
    00001BC8                       4906 00346$:
    00001BC8 0E 00            [ 7] 4907 	ld	c, #0x00
    00001BCA                       4908 00266$:
    00001BCA 79               [ 4] 4909 	ld	a, c
    00001BCB D6 0E            [ 7] 4910 	sub	a, #0x0e
    00001BCD D2r9Fr22         [10] 4911 	jp	NC,00270$
                                   4912 ;E:\Dropbox\FAUSTO\SVILUPPI\MSX\CODE\C\MSXgl\projects\exsoccer/exsoccer_s1_b2.c:902: if (i != kickerId && g_Players[i].Status != PLAYER_STATUS_POSITIONED && 
    00001BD0 DD 7E E9         [19] 4913 	ld	a, -23 (ix)
    00001BD3 91               [ 4] 4914 	sub	a, c
    00001BD4 3E 01            [ 7] 4915 	ld	a, #0x01
    00001BD6 28 01            [12] 4916 	jr	Z, 00811$
    00001BD8 AF               [ 4] 4917 	xor	a, a
    00001BD9                       4918 00811$:
    00001BD9 DD 77 FD         [19] 4919 	ld	-3 (ix), a
    00001BDC DD CB FD 46      [20] 4920 	bit	0, -3 (ix)
    00001BE0 20 55            [12] 4921 	jr	NZ, 00138$
    00001BE2 06 00            [ 7] 4922 	ld	b, #0x00
    00001BE4 69               [ 4] 4923 	ld	l, c
    00001BE5 60               [ 4] 4924 	ld	h, b
    00001BE6 29               [11] 4925 	add	hl, hl
    00001BE7 29               [11] 4926 	add	hl, hl
    00001BE8 09               [11] 4927 	add	hl, bc
    00001BE9 29               [11] 4928 	add	hl, hl
    00001BEA 29               [11] 4929 	add	hl, hl
    00001BEB 09               [11] 4930 	add	hl, bc
    00001BEC EB               [ 4] 4931 	ex	de, hl
    00001BED FD 21r00r00      [14] 4932 	ld	iy, #_g_Players
    00001BF1 FD 19            [15] 4933 	add	iy, de
    00001BF3 FD E5            [15] 4934 	push	iy
    00001BF5 D1               [10] 4935 	pop	de
    00001BF6 21 12 00         [10] 4936 	ld	hl, #18
    00001BF9 19               [11] 4937 	add	hl, de
    00001BFA 5E               [ 7] 4938 	ld	e, (hl)
    00001BFB 23               [ 6] 4939 	inc	hl
    00001BFC 56               [ 7] 4940 	ld	d, (hl)
    00001BFD 7B               [ 4] 4941 	ld	a, e
    00001BFE D6 04            [ 7] 4942 	sub	a, #0x04
    00001C00 B2               [ 4] 4943 	or	a, d
    00001C01 28 34            [12] 4944 	jr	Z, 00138$
                                   4945 ;E:\Dropbox\FAUSTO\SVILUPPI\MSX\CODE\C\MSXgl\projects\exsoccer/exsoccer_s1_b2.c:903: !(g_Players[i].X == g_Players[i].TargetX && g_Players[i].Y == g_Players[i].TargetY)) continue;
    00001C03 FD E5            [15] 4946 	push	iy
    00001C05 E1               [10] 4947 	pop	hl
    00001C06 23               [ 6] 4948 	inc	hl
    00001C07 23               [ 6] 4949 	inc	hl
    00001C08 5E               [ 7] 4950 	ld	e, (hl)
    00001C09 23               [ 6] 4951 	inc	hl
    00001C0A 56               [ 7] 4952 	ld	d, (hl)
    00001C0B FD E5            [15] 4953 	push	iy
    00001C0D E1               [10] 4954 	pop	hl
    00001C0E C5               [11] 4955 	push	bc
    00001C0F 01 10 00         [10] 4956 	ld	bc, #0x0010
    00001C12 09               [11] 4957 	add	hl, bc
    00001C13 C1               [10] 4958 	pop	bc
    00001C14 46               [ 7] 4959 	ld	b, (hl)
    00001C15 23               [ 6] 4960 	inc	hl
    00001C16 66               [ 7] 4961 	ld	h, (hl)
                                   4962 ;	spillPairReg hl
    00001C17 68               [ 4] 4963 	ld	l, b
    00001C18 BF               [ 4] 4964 	cp	a, a
    00001C19 ED 52            [15] 4965 	sbc	hl, de
    00001C1B C2rD0r1D         [10] 4966 	jp	NZ,00163$
    00001C1E FD 5E 00         [19] 4967 	ld	e, 0 (iy)
    00001C21 FD 56 01         [19] 4968 	ld	d, 1 (iy)
    00001C24 FD E5            [15] 4969 	push	iy
    00001C26 E1               [10] 4970 	pop	hl
    00001C27 C5               [11] 4971 	push	bc
    00001C28 01 0E 00         [10] 4972 	ld	bc, #0x000e
    00001C2B 09               [11] 4973 	add	hl, bc
    00001C2C C1               [10] 4974 	pop	bc
    00001C2D 46               [ 7] 4975 	ld	b, (hl)
    00001C2E 23               [ 6] 4976 	inc	hl
    00001C2F 66               [ 7] 4977 	ld	h, (hl)
                                   4978 ;	spillPairReg hl
    00001C30 68               [ 4] 4979 	ld	l, b
    00001C31 BF               [ 4] 4980 	cp	a, a
    00001C32 ED 52            [15] 4981 	sbc	hl, de
    00001C34 C2rD0r1D         [10] 4982 	jp	NZ,00163$
    00001C37                       4983 00138$:
                                   4984 ;E:\Dropbox\FAUSTO\SVILUPPI\MSX\CODE\C\MSXgl\projects\exsoccer/exsoccer_s1_b2.c:907: if (i == kickerId) {
    00001C37 DD 7E FD         [19] 4985 	ld	a, -3 (ix)
    00001C3A B7               [ 4] 4986 	or	a, a
    00001C3B 28 30            [12] 4987 	jr	Z, 00159$
                                   4988 ;E:\Dropbox\FAUSTO\SVILUPPI\MSX\CODE\C\MSXgl\projects\exsoccer/exsoccer_s1_b2.c:909: if (g_RestartKickTeamId == TEAM_1) lookDir = (g_CornerKickSide == CORNER_SIDE_LEFT) ? DIRECTION_DOWN_RIGHT : DIRECTION_DOWN_LEFT;
    00001C3D 3Ar00r00         [13] 4989 	ld	a, (_g_RestartKickTeamId+0)
    00001C40 3D               [ 4] 4990 	dec	a
    00001C41 20 15            [12] 4991 	jr	NZ, 00143$
    00001C43 3Ar00r00         [13] 4992 	ld	a, (_g_CornerKickSide+0)
    00001C46 B7               [ 4] 4993 	or	a, a
    00001C47 20 06            [12] 4994 	jr	NZ, 00272$
    00001C49 11 04 00         [10] 4995 	ld	de, #0x0004
    00001C4C C3r52r1C         [10] 4996 	jp	00273$
    00001C4F                       4997 00272$:
    00001C4F 11 06 00         [10] 4998 	ld	de, #0x0006
    00001C52                       4999 00273$:
    00001C52 DD 73 FF         [19] 5000 	ld	-1 (ix), e
    00001C55 C3rA3r1D         [10] 5001 	jp	00160$
    00001C58                       5002 00143$:
                                   5003 ;E:\Dropbox\FAUSTO\SVILUPPI\MSX\CODE\C\MSXgl\projects\exsoccer/exsoccer_s1_b2.c:910: else lookDir = (g_CornerKickSide == CORNER_SIDE_LEFT) ? DIRECTION_UP_RIGHT : DIRECTION_UP_LEFT;
    00001C58 3Ar00r00         [13] 5004 	ld	a, (_g_CornerKickSide+0)
    00001C5B B7               [ 4] 5005 	or	a, a
    00001C5C 20 06            [12] 5006 	jr	NZ, 00274$
    00001C5E 11 02 00         [10] 5007 	ld	de, #0x0002
    00001C61 C3r67r1C         [10] 5008 	jp	00275$
    00001C64                       5009 00274$:
    00001C64 11 08 00         [10] 5010 	ld	de, #0x0008
    00001C67                       5011 00275$:
    00001C67 DD 73 FF         [19] 5012 	ld	-1 (ix), e
    00001C6A C3rA3r1D         [10] 5013 	jp	00160$
    00001C6D                       5014 00159$:
                                   5015 ;E:\Dropbox\FAUSTO\SVILUPPI\MSX\CODE\C\MSXgl\projects\exsoccer/exsoccer_s1_b2.c:912: else if (g_Players[i].TeamId == g_RestartKickTeamId) {
    00001C6D 06 00            [ 7] 5016 	ld	b, #0x00
    00001C6F 69               [ 4] 5017 	ld	l, c
    00001C70 60               [ 4] 5018 	ld	h, b
    00001C71 29               [11] 5019 	add	hl, hl
    00001C72 29               [11] 5020 	add	hl, hl
    00001C73 09               [11] 5021 	add	hl, bc
    00001C74 29               [11] 5022 	add	hl, hl
    00001C75 29               [11] 5023 	add	hl, hl
    00001C76 09               [11] 5024 	add	hl, bc
    00001C77 11r00r00         [10] 5025 	ld	de, #_g_Players
    00001C7A 19               [11] 5026 	add	hl, de
    00001C7B DD 75 FE         [19] 5027 	ld	-2 (ix), l
    00001C7E DD 74 FF         [19] 5028 	ld	-1 (ix), h
    00001C81 11 09 00         [10] 5029 	ld	de, #9
    00001C84 19               [11] 5030 	add	hl, de
    00001C85 46               [ 7] 5031 	ld	b, (hl)
                                   5032 ;E:\Dropbox\FAUSTO\SVILUPPI\MSX\CODE\C\MSXgl\projects\exsoccer/exsoccer_s1_b2.c:914: if (g_RestartKickTeamId == TEAM_1 && i != kickerId) { 
    00001C86 3Ar00r00         [13] 5033 	ld	a,(_g_RestartKickTeamId+0)
    00001C89 B8               [ 4] 5034 	cp	a,b
    00001C8A 20 3C            [12] 5035 	jr	NZ, 00156$
    00001C8C 3D               [ 4] 5036 	dec	a
    00001C8D 3E 01            [ 7] 5037 	ld	a, #0x01
    00001C8F 28 01            [12] 5038 	jr	Z, 00822$
    00001C91 AF               [ 4] 5039 	xor	a, a
    00001C92                       5040 00822$:
    00001C92 DD 77 FF         [19] 5041 	ld	-1 (ix), a
    00001C95 B7               [ 4] 5042 	or	a, a
    00001C96 28 1B            [12] 5043 	jr	Z, 00146$
    00001C98 DD CB FD 46      [20] 5044 	bit	0, -3 (ix)
    00001C9C 20 15            [12] 5045 	jr	NZ, 00146$
                                   5046 ;E:\Dropbox\FAUSTO\SVILUPPI\MSX\CODE\C\MSXgl\projects\exsoccer/exsoccer_s1_b2.c:916: lookDir = (g_CornerKickSide == CORNER_SIDE_LEFT) ? DIRECTION_UP_LEFT : DIRECTION_UP_RIGHT;
    00001C9E 3Ar00r00         [13] 5047 	ld	a, (_g_CornerKickSide+0)
    00001CA1 B7               [ 4] 5048 	or	a, a
    00001CA2 20 06            [12] 5049 	jr	NZ, 00276$
    00001CA4 11 08 00         [10] 5050 	ld	de, #0x0008
    00001CA7 C3rADr1C         [10] 5051 	jp	00277$
    00001CAA                       5052 00276$:
    00001CAA 11 02 00         [10] 5053 	ld	de, #0x0002
    00001CAD                       5054 00277$:
    00001CAD DD 73 FF         [19] 5055 	ld	-1 (ix), e
    00001CB0 C3rA3r1D         [10] 5056 	jp	00160$
    00001CB3                       5057 00146$:
                                   5058 ;E:\Dropbox\FAUSTO\SVILUPPI\MSX\CODE\C\MSXgl\projects\exsoccer/exsoccer_s1_b2.c:919: lookDir = (g_RestartKickTeamId == TEAM_1) ? DIRECTION_UP : DIRECTION_DOWN;
    00001CB3 DD 7E FF         [19] 5059 	ld	a, -1 (ix)
    00001CB6 B7               [ 4] 5060 	or	a, a
    00001CB7 28 06            [12] 5061 	jr	Z, 00278$
    00001CB9 11 01 00         [10] 5062 	ld	de, #0x0001
    00001CBC C3rC2r1C         [10] 5063 	jp	00279$
    00001CBF                       5064 00278$:
    00001CBF 11 05 00         [10] 5065 	ld	de, #0x0005
    00001CC2                       5066 00279$:
    00001CC2 DD 73 FF         [19] 5067 	ld	-1 (ix), e
    00001CC5 C3rA3r1D         [10] 5068 	jp	00160$
    00001CC8                       5069 00156$:
                                   5070 ;E:\Dropbox\FAUSTO\SVILUPPI\MSX\CODE\C\MSXgl\projects\exsoccer/exsoccer_s1_b2.c:923: i16 dx = (i16)g_Ball.X - (i16)g_Players[i].X;
    00001CC8 ED 5Br02r00      [20] 5071 	ld	de, (#_g_Ball + 2)
    00001CCC DD 6E FE         [19] 5072 	ld	l, -2 (ix)
                                   5073 ;	spillPairReg hl
                                   5074 ;	spillPairReg hl
    00001CCF DD 66 FF         [19] 5075 	ld	h, -1 (ix)
                                   5076 ;	spillPairReg hl
                                   5077 ;	spillPairReg hl
    00001CD2 23               [ 6] 5078 	inc	hl
    00001CD3 23               [ 6] 5079 	inc	hl
    00001CD4 7E               [ 7] 5080 	ld	a, (hl)
    00001CD5 23               [ 6] 5081 	inc	hl
    00001CD6 66               [ 7] 5082 	ld	h, (hl)
                                   5083 ;	spillPairReg hl
    00001CD7 6F               [ 4] 5084 	ld	l, a
                                   5085 ;	spillPairReg hl
                                   5086 ;	spillPairReg hl
    00001CD8 7B               [ 4] 5087 	ld	a, e
    00001CD9 95               [ 4] 5088 	sub	a, l
    00001CDA 47               [ 4] 5089 	ld	b, a
    00001CDB 7A               [ 4] 5090 	ld	a, d
    00001CDC 9C               [ 4] 5091 	sbc	a, h
    00001CDD DD 70 FC         [19] 5092 	ld	-4 (ix), b
    00001CE0 DD 77 FD         [19] 5093 	ld	-3 (ix), a
                                   5094 ;E:\Dropbox\FAUSTO\SVILUPPI\MSX\CODE\C\MSXgl\projects\exsoccer/exsoccer_s1_b2.c:924: i16 dy = (i16)g_Ball.Y - (i16)g_Players[i].Y;
    00001CE3 ED 5Br00r00      [20] 5095 	ld	de, (#_g_Ball + 0)
    00001CE7 DD 6E FE         [19] 5096 	ld	l, -2 (ix)
    00001CEA DD 66 FF         [19] 5097 	ld	h, -1 (ix)
    00001CED 7E               [ 7] 5098 	ld	a, (hl)
    00001CEE 23               [ 6] 5099 	inc	hl
    00001CEF 66               [ 7] 5100 	ld	h, (hl)
                                   5101 ;	spillPairReg hl
    00001CF0 6F               [ 4] 5102 	ld	l, a
                                   5103 ;	spillPairReg hl
                                   5104 ;	spillPairReg hl
    00001CF1 7B               [ 4] 5105 	ld	a, e
    00001CF2 95               [ 4] 5106 	sub	a, l
    00001CF3 5F               [ 4] 5107 	ld	e, a
    00001CF4 7A               [ 4] 5108 	ld	a, d
    00001CF5 9C               [ 4] 5109 	sbc	a, h
    00001CF6 57               [ 4] 5110 	ld	d, a
                                   5111 ;E:\Dropbox\FAUSTO\SVILUPPI\MSX\CODE\C\MSXgl\projects\exsoccer/exsoccer_s1_b2.c:926: if (dy < -20) lookDir = (dx > 20) ? DIRECTION_UP_RIGHT : ((dx < -20) ? DIRECTION_UP_LEFT : DIRECTION_UP);
    00001CF7 DD 7E FC         [19] 5112 	ld	a, -4 (ix)
    00001CFA DD 77 FE         [19] 5113 	ld	-2 (ix), a
    00001CFD DD 7E FD         [19] 5114 	ld	a, -3 (ix)
    00001D00 DD 77 FF         [19] 5115 	ld	-1 (ix), a
    00001D03 7B               [ 4] 5116 	ld	a, e
    00001D04 D6 EC            [ 7] 5117 	sub	a, #0xec
    00001D06 7A               [ 4] 5118 	ld	a, d
    00001D07 17               [ 4] 5119 	rla
    00001D08 3F               [ 4] 5120 	ccf
    00001D09 1F               [ 4] 5121 	rra
    00001D0A DE 7F            [ 7] 5122 	sbc	a, #0x7f
    00001D0C 30 36            [12] 5123 	jr	NC, 00153$
    00001D0E 3E 14            [ 7] 5124 	ld	a, #0x14
    00001D10 DD BE FE         [19] 5125 	cp	a, -2 (ix)
    00001D13 3E 00            [ 7] 5126 	ld	a, #0x00
    00001D15 DD 9E FF         [19] 5127 	sbc	a, -1 (ix)
    00001D18 E2r1Dr1D         [10] 5128 	jp	PO, 00823$
    00001D1B EE 80            [ 7] 5129 	xor	a, #0x80
    00001D1D                       5130 00823$:
    00001D1D F2r26r1D         [10] 5131 	jp	P, 00280$
    00001D20 11 02 00         [10] 5132 	ld	de, #0x0002
    00001D23 C3r3Er1D         [10] 5133 	jp	00281$
    00001D26                       5134 00280$:
    00001D26 DD 7E FC         [19] 5135 	ld	a, -4 (ix)
    00001D29 D6 EC            [ 7] 5136 	sub	a, #0xec
    00001D2B DD 7E FD         [19] 5137 	ld	a, -3 (ix)
    00001D2E 17               [ 4] 5138 	rla
    00001D2F 3F               [ 4] 5139 	ccf
    00001D30 1F               [ 4] 5140 	rra
    00001D31 DE 7F            [ 7] 5141 	sbc	a, #0x7f
    00001D33 30 06            [12] 5142 	jr	NC, 00282$
    00001D35 11 08 00         [10] 5143 	ld	de, #0x0008
    00001D38 C3r3Er1D         [10] 5144 	jp	00283$
    00001D3B                       5145 00282$:
    00001D3B 11 01 00         [10] 5146 	ld	de, #0x0001
    00001D3E                       5147 00283$:
    00001D3E                       5148 00281$:
    00001D3E DD 73 FF         [19] 5149 	ld	-1 (ix), e
    00001D41 C3rA3r1D         [10] 5150 	jp	00160$
    00001D44                       5151 00153$:
                                   5152 ;E:\Dropbox\FAUSTO\SVILUPPI\MSX\CODE\C\MSXgl\projects\exsoccer/exsoccer_s1_b2.c:927: else if (dy > 20) lookDir = (dx > 20) ? DIRECTION_DOWN_RIGHT : ((dx < -20) ? DIRECTION_DOWN_LEFT : DIRECTION_DOWN);
    00001D44 3E 14            [ 7] 5153 	ld	a, #0x14
    00001D46 BB               [ 4] 5154 	cp	a, e
    00001D47 3E 00            [ 7] 5155 	ld	a, #0x00
    00001D49 9A               [ 4] 5156 	sbc	a, d
    00001D4A E2r4Fr1D         [10] 5157 	jp	PO, 00824$
    00001D4D EE 80            [ 7] 5158 	xor	a, #0x80
    00001D4F                       5159 00824$:
    00001D4F F2r88r1D         [10] 5160 	jp	P, 00150$
    00001D52 3E 14            [ 7] 5161 	ld	a, #0x14
    00001D54 DD BE FE         [19] 5162 	cp	a, -2 (ix)
    00001D57 3E 00            [ 7] 5163 	ld	a, #0x00
    00001D59 DD 9E FF         [19] 5164 	sbc	a, -1 (ix)
    00001D5C E2r61r1D         [10] 5165 	jp	PO, 00825$
    00001D5F EE 80            [ 7] 5166 	xor	a, #0x80
    00001D61                       5167 00825$:
    00001D61 F2r6Ar1D         [10] 5168 	jp	P, 00284$
    00001D64 11 04 00         [10] 5169 	ld	de, #0x0004
    00001D67 C3r82r1D         [10] 5170 	jp	00285$
    00001D6A                       5171 00284$:
    00001D6A DD 7E FC         [19] 5172 	ld	a, -4 (ix)
    00001D6D D6 EC            [ 7] 5173 	sub	a, #0xec
    00001D6F DD 7E FD         [19] 5174 	ld	a, -3 (ix)
    00001D72 17               [ 4] 5175 	rla
    00001D73 3F               [ 4] 5176 	ccf
    00001D74 1F               [ 4] 5177 	rra
    00001D75 DE 7F            [ 7] 5178 	sbc	a, #0x7f
    00001D77 30 06            [12] 5179 	jr	NC, 00286$
    00001D79 11 06 00         [10] 5180 	ld	de, #0x0006
    00001D7C C3r82r1D         [10] 5181 	jp	00287$
    00001D7F                       5182 00286$:
    00001D7F 11 05 00         [10] 5183 	ld	de, #0x0005
    00001D82                       5184 00287$:
    00001D82                       5185 00285$:
    00001D82 DD 73 FF         [19] 5186 	ld	-1 (ix), e
    00001D85 C3rA3r1D         [10] 5187 	jp	00160$
    00001D88                       5188 00150$:
                                   5189 ;E:\Dropbox\FAUSTO\SVILUPPI\MSX\CODE\C\MSXgl\projects\exsoccer/exsoccer_s1_b2.c:928: else lookDir = (dx > 0) ? DIRECTION_RIGHT : DIRECTION_LEFT;
    00001D88 AF               [ 4] 5190 	xor	a, a
    00001D89 DD BE FE         [19] 5191 	cp	a, -2 (ix)
    00001D8C DD 9E FF         [19] 5192 	sbc	a, -1 (ix)
    00001D8F E2r94r1D         [10] 5193 	jp	PO, 00826$
    00001D92 EE 80            [ 7] 5194 	xor	a, #0x80
    00001D94                       5195 00826$:
    00001D94 F2r9Dr1D         [10] 5196 	jp	P, 00288$
    00001D97 11 03 00         [10] 5197 	ld	de, #0x0003
    00001D9A C3rA0r1D         [10] 5198 	jp	00289$
    00001D9D                       5199 00288$:
    00001D9D 11 07 00         [10] 5200 	ld	de, #0x0007
    00001DA0                       5201 00289$:
    00001DA0 DD 73 FF         [19] 5202 	ld	-1 (ix), e
    00001DA3                       5203 00160$:
                                   5204 ;E:\Dropbox\FAUSTO\SVILUPPI\MSX\CODE\C\MSXgl\projects\exsoccer/exsoccer_s1_b2.c:931: if (lookDir != DIRECTION_NONE) {
    00001DA3 DD 7E FF         [19] 5205 	ld	a, -1 (ix)
    00001DA6 B7               [ 4] 5206 	or	a, a
    00001DA7 28 27            [12] 5207 	jr	Z, 00163$
                                   5208 ;E:\Dropbox\FAUSTO\SVILUPPI\MSX\CODE\C\MSXgl\projects\exsoccer/exsoccer_s1_b2.c:932: g_Players[i].Direction = lookDir;
    00001DA9 06 00            [ 7] 5209 	ld	b, #0x00
    00001DAB 69               [ 4] 5210 	ld	l, c
    00001DAC 60               [ 4] 5211 	ld	h, b
    00001DAD 29               [11] 5212 	add	hl, hl
    00001DAE 29               [11] 5213 	add	hl, hl
    00001DAF 09               [11] 5214 	add	hl, bc
    00001DB0 29               [11] 5215 	add	hl, hl
    00001DB1 29               [11] 5216 	add	hl, hl
    00001DB2 09               [11] 5217 	add	hl, bc
    00001DB3 EB               [ 4] 5218 	ex	de, hl
    00001DB4 21r00r00         [10] 5219 	ld	hl, #_g_Players
    00001DB7 19               [11] 5220 	add	hl, de
    00001DB8 EB               [ 4] 5221 	ex	de, hl
    00001DB9 21 0A 00         [10] 5222 	ld	hl, #0x000a
    00001DBC 19               [11] 5223 	add	hl, de
    00001DBD DD 7E FF         [19] 5224 	ld	a, -1 (ix)
    00001DC0 77               [ 7] 5225 	ld	(hl), a
                                   5226 ;E:\Dropbox\FAUSTO\SVILUPPI\MSX\CODE\C\MSXgl\projects\exsoccer/exsoccer_s1_b2.c:933: g_Players[i].PatternId = GetNoMovingPlayerPatternId(lookDir);
    00001DC1 21 08 00         [10] 5227 	ld	hl, #0x0008
    00001DC4 19               [11] 5228 	add	hl, de
    00001DC5 E5               [11] 5229 	push	hl
    00001DC6 C5               [11] 5230 	push	bc
    00001DC7 DD 7E FF         [19] 5231 	ld	a, -1 (ix)
    00001DCA CDr00r00         [17] 5232 	call	_GetNoMovingPlayerPatternId
    00001DCD C1               [10] 5233 	pop	bc
    00001DCE E1               [10] 5234 	pop	hl
    00001DCF 77               [ 7] 5235 	ld	(hl), a
    00001DD0                       5236 00163$:
                                   5237 ;E:\Dropbox\FAUSTO\SVILUPPI\MSX\CODE\C\MSXgl\projects\exsoccer/exsoccer_s1_b2.c:900: for(u8 i=0; i<14; i++) {
    00001DD0 0C               [ 4] 5238 	inc	c
                                   5239 ;E:\Dropbox\FAUSTO\SVILUPPI\MSX\CODE\C\MSXgl\projects\exsoccer/exsoccer_s1_b2.c:936: return; // END SETUP PHASE
    00001DD1 C3rCAr1B         [10] 5240 	jp	00266$
    00001DD4                       5241 00166$:
                                   5242 ;E:\Dropbox\FAUSTO\SVILUPPI\MSX\CODE\C\MSXgl\projects\exsoccer/exsoccer_s1_b2.c:940: ClearTextFromLayerA(10, 12, 11);
    00001DD4 3E 0B            [ 7] 5243 	ld	a, #0x0b
    00001DD6 F5               [11] 5244 	push	af
    00001DD7 33               [ 6] 5245 	inc	sp
    00001DD8 2E 0C            [ 7] 5246 	ld	l, #0x0c
                                   5247 ;	spillPairReg hl
                                   5248 ;	spillPairReg hl
    00001DDA 3E 0A            [ 7] 5249 	ld	a, #0x0a
    00001DDC CDr00r00         [17] 5250 	call	_ClearTextFromLayerA
                                   5251 ;E:\Dropbox\FAUSTO\SVILUPPI\MSX\CODE\C\MSXgl\projects\exsoccer/exsoccer_s1_b2.c:947: if (kickerId != NO_VALUE) {
    00001DDF DD CB EB 46      [20] 5252 	bit	0, -21 (ix)
    00001DE3 C2r75r1E         [10] 5253 	jp	NZ, 00171$
                                   5254 ;E:\Dropbox\FAUSTO\SVILUPPI\MSX\CODE\C\MSXgl\projects\exsoccer/exsoccer_s1_b2.c:948: g_Players[kickerId].X = g_Players[kickerId].TargetX;
    00001DE6 DD 4E E9         [19] 5255 	ld	c, -23 (ix)
    00001DE9 06 00            [ 7] 5256 	ld	b, #0x00
    00001DEB 69               [ 4] 5257 	ld	l, c
    00001DEC 60               [ 4] 5258 	ld	h, b
    00001DED 29               [11] 5259 	add	hl, hl
    00001DEE 29               [11] 5260 	add	hl, hl
    00001DEF 09               [11] 5261 	add	hl, bc
    00001DF0 29               [11] 5262 	add	hl, hl
    00001DF1 29               [11] 5263 	add	hl, hl
    00001DF2 09               [11] 5264 	add	hl, bc
    00001DF3 DD 75 FE         [19] 5265 	ld	-2 (ix), l
    00001DF6 DD 74 FF         [19] 5266 	ld	-1 (ix), h
    00001DF9 DD 7E FE         [19] 5267 	ld	a, -2 (ix)
    00001DFC C6r00            [ 7] 5268 	add	a, #<(_g_Players)
    00001DFE DD 77 FA         [19] 5269 	ld	-6 (ix), a
    00001E01 DD 7E FF         [19] 5270 	ld	a, -1 (ix)
    00001E04 CEs00            [ 7] 5271 	adc	a, #>(_g_Players)
    00001E06 DD 77 FB         [19] 5272 	ld	-5 (ix), a
    00001E09 DD 7E FA         [19] 5273 	ld	a, -6 (ix)
    00001E0C C6 02            [ 7] 5274 	add	a, #0x02
    00001E0E DD 77 FC         [19] 5275 	ld	-4 (ix), a
    00001E11 DD 7E FB         [19] 5276 	ld	a, -5 (ix)
    00001E14 CE 00            [ 7] 5277 	adc	a, #0x00
    00001E16 DD 77 FD         [19] 5278 	ld	-3 (ix), a
    00001E19 DD 7E FA         [19] 5279 	ld	a, -6 (ix)
    00001E1C DD 77 FE         [19] 5280 	ld	-2 (ix), a
    00001E1F DD 7E FB         [19] 5281 	ld	a, -5 (ix)
    00001E22 DD 77 FF         [19] 5282 	ld	-1 (ix), a
    00001E25 DD 6E FE         [19] 5283 	ld	l, -2 (ix)
    00001E28 DD 66 FF         [19] 5284 	ld	h, -1 (ix)
    00001E2B 11 10 00         [10] 5285 	ld	de, #0x0010
    00001E2E 19               [11] 5286 	add	hl, de
    00001E2F 7E               [ 7] 5287 	ld	a, (hl)
    00001E30 DD 77 FE         [19] 5288 	ld	-2 (ix), a
    00001E33 23               [ 6] 5289 	inc	hl
    00001E34 7E               [ 7] 5290 	ld	a, (hl)
    00001E35 DD 77 FF         [19] 5291 	ld	-1 (ix), a
    00001E38 DD 6E FC         [19] 5292 	ld	l, -4 (ix)
    00001E3B DD 66 FD         [19] 5293 	ld	h, -3 (ix)
    00001E3E DD 7E FE         [19] 5294 	ld	a, -2 (ix)
    00001E41 77               [ 7] 5295 	ld	(hl), a
    00001E42 23               [ 6] 5296 	inc	hl
    00001E43 DD 7E FF         [19] 5297 	ld	a, -1 (ix)
    00001E46 77               [ 7] 5298 	ld	(hl), a
                                   5299 ;E:\Dropbox\FAUSTO\SVILUPPI\MSX\CODE\C\MSXgl\projects\exsoccer/exsoccer_s1_b2.c:949: g_Players[kickerId].Y = g_Players[kickerId].TargetY;
    00001E47 DD 7E FA         [19] 5300 	ld	a, -6 (ix)
    00001E4A DD 77 FE         [19] 5301 	ld	-2 (ix), a
    00001E4D DD 7E FB         [19] 5302 	ld	a, -5 (ix)
    00001E50 DD 77 FF         [19] 5303 	ld	-1 (ix), a
    00001E53 DD 6E FE         [19] 5304 	ld	l, -2 (ix)
    00001E56 DD 66 FF         [19] 5305 	ld	h, -1 (ix)
    00001E59 11 0E 00         [10] 5306 	ld	de, #0x000e
    00001E5C 19               [11] 5307 	add	hl, de
    00001E5D 7E               [ 7] 5308 	ld	a, (hl)
    00001E5E DD 77 FE         [19] 5309 	ld	-2 (ix), a
    00001E61 23               [ 6] 5310 	inc	hl
    00001E62 7E               [ 7] 5311 	ld	a, (hl)
    00001E63 DD 77 FF         [19] 5312 	ld	-1 (ix), a
    00001E66 DD 6E FA         [19] 5313 	ld	l, -6 (ix)
    00001E69 DD 66 FB         [19] 5314 	ld	h, -5 (ix)
    00001E6C DD 7E FE         [19] 5315 	ld	a, -2 (ix)
    00001E6F 77               [ 7] 5316 	ld	(hl), a
    00001E70 23               [ 6] 5317 	inc	hl
    00001E71 DD 7E FF         [19] 5318 	ld	a, -1 (ix)
    00001E74 77               [ 7] 5319 	ld	(hl), a
    00001E75                       5320 00171$:
                                   5321 ;E:\Dropbox\FAUSTO\SVILUPPI\MSX\CODE\C\MSXgl\projects\exsoccer/exsoccer_s1_b2.c:909: if (g_RestartKickTeamId == TEAM_1) lookDir = (g_CornerKickSide == CORNER_SIDE_LEFT) ? DIRECTION_DOWN_RIGHT : DIRECTION_DOWN_LEFT;
    00001E75 3Ar00r00         [13] 5322 	ld	a, (_g_RestartKickTeamId+0)
    00001E78 3D               [ 4] 5323 	dec	a
    00001E79 3E 01            [ 7] 5324 	ld	a, #0x01
    00001E7B 28 01            [12] 5325 	jr	Z, 00828$
    00001E7D AF               [ 4] 5326 	xor	a, a
    00001E7E                       5327 00828$:
    00001E7E 4F               [ 4] 5328 	ld	c, a
                                   5329 ;E:\Dropbox\FAUSTO\SVILUPPI\MSX\CODE\C\MSXgl\projects\exsoccer/exsoccer_s1_b2.c:952: bool isHuman = (g_RestartKickTeamId == TEAM_1 || (g_GameWith2Players && g_RestartKickTeamId == TEAM_2));
    00001E7F 41               [ 4] 5330 	ld	b, c
    00001E80 CB 40            [ 8] 5331 	bit	0, b
    00001E82 20 11            [12] 5332 	jr	NZ, 00291$
    00001E84 3Ar00r00         [13] 5333 	ld	a, (_g_GameWith2Players+0)
    00001E87 B7               [ 4] 5334 	or	a, a
    00001E88 28 07            [12] 5335 	jr	Z, 00290$
    00001E8A 3Ar00r00         [13] 5336 	ld	a, (_g_RestartKickTeamId+0)
    00001E8D D6 02            [ 7] 5337 	sub	a, #0x02
    00001E8F 28 04            [12] 5338 	jr	Z, 00291$
    00001E91                       5339 00290$:
    00001E91 AF               [ 4] 5340 	xor	a, a
    00001E92 C3r97r1E         [10] 5341 	jp	00292$
    00001E95                       5342 00291$:
    00001E95 3E 01            [ 7] 5343 	ld	a, #0x01
    00001E97                       5344 00292$:
    00001E97 47               [ 4] 5345 	ld	b, a
                                   5346 ;E:\Dropbox\FAUSTO\SVILUPPI\MSX\CODE\C\MSXgl\projects\exsoccer/exsoccer_s1_b2.c:955: if (isHuman) s_ForceKickTimer++;
    00001E98 B7               [ 4] 5347 	or	a, a
    00001E99 28 07            [12] 5348 	jr	Z, 00173$
    00001E9B 2Ar01r00         [16] 5349 	ld	hl, (_TickCornerKick_s_ForceKickTimer_65537_1326)
    00001E9E 23               [ 6] 5350 	inc	hl
    00001E9F 22r01r00         [16] 5351 	ld	(_TickCornerKick_s_ForceKickTimer_65537_1326), hl
    00001EA2                       5352 00173$:
                                   5353 ;E:\Dropbox\FAUSTO\SVILUPPI\MSX\CODE\C\MSXgl\projects\exsoccer/exsoccer_s1_b2.c:957: if (isHuman) {
    00001EA2 78               [ 4] 5354 	ld	a, b
    00001EA3 B7               [ 4] 5355 	or	a, a
    00001EA4 CAr36r22         [10] 5356 	jp	Z, 00260$
                                   5357 ;E:\Dropbox\FAUSTO\SVILUPPI\MSX\CODE\C\MSXgl\projects\exsoccer/exsoccer_s1_b2.c:958: if (g_RestartKickTeamId == TEAM_1) {
    00001EA7 79               [ 4] 5358 	ld	a, c
    00001EA8 B7               [ 4] 5359 	or	a, a
    00001EA9 CAr51r21         [10] 5360 	jp	Z, 00246$
                                   5361 ;E:\Dropbox\FAUSTO\SVILUPPI\MSX\CODE\C\MSXgl\projects\exsoccer/exsoccer_s1_b2.c:960: u8 candLeft = NO_VALUE;
    00001EAC DD 36 F9 FF      [19] 5362 	ld	-7 (ix), #0xff
                                   5363 ;E:\Dropbox\FAUSTO\SVILUPPI\MSX\CODE\C\MSXgl\projects\exsoccer/exsoccer_s1_b2.c:961: u8 candRight = NO_VALUE;
    00001EB0 DD 36 FA FF      [19] 5364 	ld	-6 (ix), #0xff
                                   5365 ;E:\Dropbox\FAUSTO\SVILUPPI\MSX\CODE\C\MSXgl\projects\exsoccer/exsoccer_s1_b2.c:963: for(u8 c=0; c<14; c++) {
    00001EB4 DD 36 FF 00      [19] 5366 	ld	-1 (ix), #0x00
    00001EB8                       5367 00268$:
    00001EB8 DD 7E FF         [19] 5368 	ld	a, -1 (ix)
    00001EBB D6 0E            [ 7] 5369 	sub	a, #0x0e
    00001EBD D2r67r1F         [10] 5370 	jp	NC, 00184$
                                   5371 ;E:\Dropbox\FAUSTO\SVILUPPI\MSX\CODE\C\MSXgl\projects\exsoccer/exsoccer_s1_b2.c:964: if (g_Players[c].TeamId == TEAM_1 && c != kickerId && g_Players[c].Role != PLAYER_ROLE_GOALKEEPER) {
    00001EC0 DD 4E FF         [19] 5372 	ld	c, -1 (ix)
    00001EC3 06 00            [ 7] 5373 	ld	b, #0x00
    00001EC5 69               [ 4] 5374 	ld	l, c
    00001EC6 60               [ 4] 5375 	ld	h, b
    00001EC7 29               [11] 5376 	add	hl, hl
    00001EC8 29               [11] 5377 	add	hl, hl
    00001EC9 09               [11] 5378 	add	hl, bc
    00001ECA 29               [11] 5379 	add	hl, hl
    00001ECB 29               [11] 5380 	add	hl, hl
    00001ECC 09               [11] 5381 	add	hl, bc
    00001ECD DD 75 FD         [19] 5382 	ld	-3 (ix), l
    00001ED0 DD 74 FE         [19] 5383 	ld	-2 (ix), h
    00001ED3 DD 7E FD         [19] 5384 	ld	a, -3 (ix)
    00001ED6 C6r00            [ 7] 5385 	add	a, #<(_g_Players)
    00001ED8 DD 77 FB         [19] 5386 	ld	-5 (ix), a
    00001EDB DD 7E FE         [19] 5387 	ld	a, -2 (ix)
    00001EDE CEs00            [ 7] 5388 	adc	a, #>(_g_Players)
    00001EE0 DD 77 FC         [19] 5389 	ld	-4 (ix), a
    00001EE3 DD 7E FB         [19] 5390 	ld	a, -5 (ix)
    00001EE6 DD 77 FD         [19] 5391 	ld	-3 (ix), a
    00001EE9 DD 7E FC         [19] 5392 	ld	a, -4 (ix)
    00001EEC DD 77 FE         [19] 5393 	ld	-2 (ix), a
    00001EEF DD 6E FD         [19] 5394 	ld	l, -3 (ix)
    00001EF2 DD 66 FE         [19] 5395 	ld	h, -2 (ix)
    00001EF5 11 09 00         [10] 5396 	ld	de, #0x0009
    00001EF8 19               [11] 5397 	add	hl, de
    00001EF9 7E               [ 7] 5398 	ld	a, (hl)
    00001EFA 3D               [ 4] 5399 	dec	a
    00001EFB 20 64            [12] 5400 	jr	NZ, 00269$
    00001EFD DD 7E E9         [19] 5401 	ld	a, -23 (ix)
    00001F00 DD 96 FF         [19] 5402 	sub	a, -1 (ix)
    00001F03 28 5C            [12] 5403 	jr	Z, 00269$
    00001F05 DD 7E FB         [19] 5404 	ld	a, -5 (ix)
    00001F08 DD 77 FD         [19] 5405 	ld	-3 (ix), a
    00001F0B DD 7E FC         [19] 5406 	ld	a, -4 (ix)
    00001F0E DD 77 FE         [19] 5407 	ld	-2 (ix), a
    00001F11 DD 6E FD         [19] 5408 	ld	l, -3 (ix)
    00001F14 DD 66 FE         [19] 5409 	ld	h, -2 (ix)
    00001F17 11 0D 00         [10] 5410 	ld	de, #0x000d
    00001F1A 19               [11] 5411 	add	hl, de
    00001F1B 7E               [ 7] 5412 	ld	a, (hl)
    00001F1C DD 77 FE         [19] 5413 	ld	-2 (ix), a
    00001F1F B7               [ 4] 5414 	or	a, a
    00001F20 28 3F            [12] 5415 	jr	Z, 00269$
                                   5416 ;E:\Dropbox\FAUSTO\SVILUPPI\MSX\CODE\C\MSXgl\projects\exsoccer/exsoccer_s1_b2.c:965: u8 tx = g_Players[c].TargetX;
    00001F22 DD 7E FB         [19] 5417 	ld	a, -5 (ix)
    00001F25 DD 77 FD         [19] 5418 	ld	-3 (ix), a
    00001F28 DD 7E FC         [19] 5419 	ld	a, -4 (ix)
    00001F2B DD 77 FE         [19] 5420 	ld	-2 (ix), a
    00001F2E DD 6E FD         [19] 5421 	ld	l, -3 (ix)
    00001F31 DD 66 FE         [19] 5422 	ld	h, -2 (ix)
    00001F34 11 10 00         [10] 5423 	ld	de, #0x0010
    00001F37 19               [11] 5424 	add	hl, de
    00001F38 7E               [ 7] 5425 	ld	a, (hl)
                                   5426 ;E:\Dropbox\FAUSTO\SVILUPPI\MSX\CODE\C\MSXgl\projects\exsoccer/exsoccer_s1_b2.c:967: if (tx >= 40 && tx <= 110) candLeft = c;
    00001F39 DD 77 FE         [19] 5427 	ld	-2 (ix), a
    00001F3C D6 28            [ 7] 5428 	sub	a, #0x28
    00001F3E 38 0D            [12] 5429 	jr	C, 00175$
    00001F40 3E 6E            [ 7] 5430 	ld	a, #0x6e
    00001F42 DD 96 FE         [19] 5431 	sub	a, -2 (ix)
    00001F45 38 06            [12] 5432 	jr	C, 00175$
    00001F47 DD 7E FF         [19] 5433 	ld	a, -1 (ix)
    00001F4A DD 77 F9         [19] 5434 	ld	-7 (ix), a
    00001F4D                       5435 00175$:
                                   5436 ;E:\Dropbox\FAUSTO\SVILUPPI\MSX\CODE\C\MSXgl\projects\exsoccer/exsoccer_s1_b2.c:968: if (tx >= 130 && tx <= 220) candRight = c;
    00001F4D DD 7E FE         [19] 5437 	ld	a, -2 (ix)
    00001F50 D6 82            [ 7] 5438 	sub	a, #0x82
    00001F52 38 0D            [12] 5439 	jr	C, 00269$
    00001F54 3E DC            [ 7] 5440 	ld	a, #0xdc
    00001F56 DD 96 FE         [19] 5441 	sub	a, -2 (ix)
    00001F59 38 06            [12] 5442 	jr	C, 00269$
    00001F5B DD 7E FF         [19] 5443 	ld	a, -1 (ix)
    00001F5E DD 77 FA         [19] 5444 	ld	-6 (ix), a
    00001F61                       5445 00269$:
                                   5446 ;E:\Dropbox\FAUSTO\SVILUPPI\MSX\CODE\C\MSXgl\projects\exsoccer/exsoccer_s1_b2.c:963: for(u8 c=0; c<14; c++) {
    00001F61 DD 34 FF         [23] 5447 	inc	-1 (ix)
    00001F64 C3rB8r1E         [10] 5448 	jp	00268$
    00001F67                       5449 00184$:
                                   5450 ;E:\Dropbox\FAUSTO\SVILUPPI\MSX\CODE\C\MSXgl\projects\exsoccer/exsoccer_s1_b2.c:971: if (candLeft == NO_VALUE) candLeft = GetPlayerIdByRole(TEAM_1, PLAYER_ROLE_LEFT_HALFFIELDER);
    00001F67 DD 7E F9         [19] 5451 	ld	a, -7 (ix)
    00001F6A 3C               [ 4] 5452 	inc	a
    00001F6B 20 0A            [12] 5453 	jr	NZ, 00186$
    00001F6D 2E 03            [ 7] 5454 	ld	l, #0x03
                                   5455 ;	spillPairReg hl
                                   5456 ;	spillPairReg hl
    00001F6F 3E 01            [ 7] 5457 	ld	a, #0x01
    00001F71 CDr00r00         [17] 5458 	call	_GetPlayerIdByRole
    00001F74 DD 77 F9         [19] 5459 	ld	-7 (ix), a
    00001F77                       5460 00186$:
                                   5461 ;E:\Dropbox\FAUSTO\SVILUPPI\MSX\CODE\C\MSXgl\projects\exsoccer/exsoccer_s1_b2.c:972: if (candRight == NO_VALUE) candRight = GetPlayerIdByRole(TEAM_1, PLAYER_ROLE_RIGHT_HALFFIELDER);
    00001F77 DD 7E FA         [19] 5462 	ld	a, -6 (ix)
    00001F7A 3C               [ 4] 5463 	inc	a
    00001F7B 20 0A            [12] 5464 	jr	NZ, 00188$
    00001F7D 2E 04            [ 7] 5465 	ld	l, #0x04
                                   5466 ;	spillPairReg hl
                                   5467 ;	spillPairReg hl
    00001F7F 3E 01            [ 7] 5468 	ld	a, #0x01
    00001F81 CDr00r00         [17] 5469 	call	_GetPlayerIdByRole
    00001F84 DD 77 FA         [19] 5470 	ld	-6 (ix), a
    00001F87                       5471 00188$:
                                   5472 ;E:\Dropbox\FAUSTO\SVILUPPI\MSX\CODE\C\MSXgl\projects\exsoccer/exsoccer_s1_b2.c:975: if (g_CornerKickTargetId == NO_VALUE) {
    00001F87 3Ar00r00         [13] 5473 	ld	a, (_g_CornerKickTargetId+0)
    00001F8A 3C               [ 4] 5474 	inc	a
    00001F8B 20 1B            [12] 5475 	jr	NZ, 00195$
                                   5476 ;E:\Dropbox\FAUSTO\SVILUPPI\MSX\CODE\C\MSXgl\projects\exsoccer/exsoccer_s1_b2.c:976: if (candLeft != NO_VALUE) g_CornerKickTargetId = candLeft;
    00001F8D DD 7E F9         [19] 5477 	ld	a, -7 (ix)
    00001F90 3C               [ 4] 5478 	inc	a
    00001F91 28 09            [12] 5479 	jr	Z, 00192$
    00001F93 DD 7E F9         [19] 5480 	ld	a, -7 (ix)
    00001F96 32r00r00         [13] 5481 	ld	(_g_CornerKickTargetId+0), a
    00001F99 C3rA8r1F         [10] 5482 	jp	00195$
    00001F9C                       5483 00192$:
                                   5484 ;E:\Dropbox\FAUSTO\SVILUPPI\MSX\CODE\C\MSXgl\projects\exsoccer/exsoccer_s1_b2.c:977: else if (candRight != NO_VALUE) g_CornerKickTargetId = candRight; 
    00001F9C DD 7E FA         [19] 5485 	ld	a, -6 (ix)
    00001F9F 3C               [ 4] 5486 	inc	a
    00001FA0 28 06            [12] 5487 	jr	Z, 00195$
    00001FA2 DD 7E FA         [19] 5488 	ld	a, -6 (ix)
    00001FA5 32r00r00         [13] 5489 	ld	(_g_CornerKickTargetId+0), a
    00001FA8                       5490 00195$:
                                   5491 ;E:\Dropbox\FAUSTO\SVILUPPI\MSX\CODE\C\MSXgl\projects\exsoccer/exsoccer_s1_b2.c:981: u8 joyDir = GetJoystick1Direction();
    00001FA8 CDr00r00         [17] 5492 	call	_GetJoystick1Direction
                                   5493 ;E:\Dropbox\FAUSTO\SVILUPPI\MSX\CODE\C\MSXgl\projects\exsoccer/exsoccer_s1_b2.c:984: if (joyDir == DIRECTION_LEFT && !joyMoved && candLeft != NO_VALUE) {
    00001FAB 4F               [ 4] 5494 	ld	c, a
    00001FAC D6 07            [ 7] 5495 	sub	a, #0x07
    00001FAE 20 1A            [12] 5496 	jr	NZ, 00204$
    00001FB0 3Ar03r00         [13] 5497 	ld	a, (_TickCornerKick_joyMoved_196614_1360+0)
    00001FB3 B7               [ 4] 5498 	or	a, a
    00001FB4 20 14            [12] 5499 	jr	NZ, 00204$
    00001FB6 DD 7E F9         [19] 5500 	ld	a, -7 (ix)
    00001FB9 3C               [ 4] 5501 	inc	a
    00001FBA 28 0E            [12] 5502 	jr	Z, 00204$
                                   5503 ;E:\Dropbox\FAUSTO\SVILUPPI\MSX\CODE\C\MSXgl\projects\exsoccer/exsoccer_s1_b2.c:985: g_CornerKickTargetId = candLeft; joyMoved = true;
    00001FBC DD 7E F9         [19] 5504 	ld	a, -7 (ix)
    00001FBF 32r00r00         [13] 5505 	ld	(_g_CornerKickTargetId+0), a
    00001FC2 21r03r00         [10] 5506 	ld	hl, #_TickCornerKick_joyMoved_196614_1360
    00001FC5 36 01            [10] 5507 	ld	(hl), #0x01
    00001FC7 C3rF2r1F         [10] 5508 	jp	00205$
    00001FCA                       5509 00204$:
                                   5510 ;E:\Dropbox\FAUSTO\SVILUPPI\MSX\CODE\C\MSXgl\projects\exsoccer/exsoccer_s1_b2.c:986: } else if (joyDir == DIRECTION_RIGHT && !joyMoved && candRight != NO_VALUE) {
    00001FCA 79               [ 4] 5511 	ld	a, c
    00001FCB D6 03            [ 7] 5512 	sub	a, #0x03
    00001FCD 20 1A            [12] 5513 	jr	NZ, 00199$
    00001FCF 3Ar03r00         [13] 5514 	ld	a, (_TickCornerKick_joyMoved_196614_1360+0)
    00001FD2 B7               [ 4] 5515 	or	a, a
    00001FD3 20 14            [12] 5516 	jr	NZ, 00199$
    00001FD5 DD 7E FA         [19] 5517 	ld	a, -6 (ix)
    00001FD8 3C               [ 4] 5518 	inc	a
    00001FD9 28 0E            [12] 5519 	jr	Z, 00199$
                                   5520 ;E:\Dropbox\FAUSTO\SVILUPPI\MSX\CODE\C\MSXgl\projects\exsoccer/exsoccer_s1_b2.c:987: g_CornerKickTargetId = candRight; joyMoved = true;
    00001FDB DD 7E FA         [19] 5521 	ld	a, -6 (ix)
    00001FDE 32r00r00         [13] 5522 	ld	(_g_CornerKickTargetId+0), a
    00001FE1 21r03r00         [10] 5523 	ld	hl, #_TickCornerKick_joyMoved_196614_1360
    00001FE4 36 01            [10] 5524 	ld	(hl), #0x01
    00001FE6 C3rF2r1F         [10] 5525 	jp	00205$
    00001FE9                       5526 00199$:
                                   5527 ;E:\Dropbox\FAUSTO\SVILUPPI\MSX\CODE\C\MSXgl\projects\exsoccer/exsoccer_s1_b2.c:988: } else if (joyDir == DIRECTION_NONE) {
    00001FE9 79               [ 4] 5528 	ld	a, c
    00001FEA B7               [ 4] 5529 	or	a, a
    00001FEB 20 05            [12] 5530 	jr	NZ, 00205$
                                   5531 ;E:\Dropbox\FAUSTO\SVILUPPI\MSX\CODE\C\MSXgl\projects\exsoccer/exsoccer_s1_b2.c:989: joyMoved = false;
    00001FED 21r03r00         [10] 5532 	ld	hl, #_TickCornerKick_joyMoved_196614_1360
    00001FF0 36 00            [10] 5533 	ld	(hl), #0x00
    00001FF2                       5534 00205$:
                                   5535 ;E:\Dropbox\FAUSTO\SVILUPPI\MSX\CODE\C\MSXgl\projects\exsoccer/exsoccer_s1_b2.c:996: if (kickerId != NO_VALUE) {
    00001FF2 DD CB EB 46      [20] 5536 	bit	0, -21 (ix)
    00001FF6 C2rF3r20         [10] 5537 	jp	NZ, 00209$
                                   5538 ;E:\Dropbox\FAUSTO\SVILUPPI\MSX\CODE\C\MSXgl\projects\exsoccer/exsoccer_s1_b2.c:997: u8 kDir = (g_CornerKickSide == CORNER_SIDE_LEFT) ? DIRECTION_DOWN_RIGHT : DIRECTION_DOWN_LEFT;
    00001FF9 3Ar00r00         [13] 5539 	ld	a, (_g_CornerKickSide+0)
    00001FFC B7               [ 4] 5540 	or	a, a
    00001FFD 20 0B            [12] 5541 	jr	NZ, 00296$
    00001FFF DD 36 FE 04      [19] 5542 	ld	-2 (ix), #0x04
    00002003 DD 36 FF 00      [19] 5543 	ld	-1 (ix), #0
    00002007 C3r12r20         [10] 5544 	jp	00297$
    0000200A                       5545 00296$:
    0000200A DD 36 FE 06      [19] 5546 	ld	-2 (ix), #0x06
    0000200E DD 36 FF 00      [19] 5547 	ld	-1 (ix), #0
    00002012                       5548 00297$:
    00002012 DD 7E FE         [19] 5549 	ld	a, -2 (ix)
    00002015 DD 77 FD         [19] 5550 	ld	-3 (ix), a
                                   5551 ;E:\Dropbox\FAUSTO\SVILUPPI\MSX\CODE\C\MSXgl\projects\exsoccer/exsoccer_s1_b2.c:998: g_Players[kickerId].Direction = kDir;
    00002018 DD 4E E9         [19] 5552 	ld	c, -23 (ix)
    0000201B 06 00            [ 7] 5553 	ld	b, #0x00
    0000201D 69               [ 4] 5554 	ld	l, c
    0000201E 60               [ 4] 5555 	ld	h, b
    0000201F 29               [11] 5556 	add	hl, hl
    00002020 29               [11] 5557 	add	hl, hl
    00002021 09               [11] 5558 	add	hl, bc
    00002022 29               [11] 5559 	add	hl, hl
    00002023 29               [11] 5560 	add	hl, hl
    00002024 09               [11] 5561 	add	hl, bc
    00002025 DD 75 FE         [19] 5562 	ld	-2 (ix), l
    00002028 DD 74 FF         [19] 5563 	ld	-1 (ix), h
    0000202B 3Er00            [ 7] 5564 	ld	a, #<(_g_Players)
    0000202D DD 86 FE         [19] 5565 	add	a, -2 (ix)
    00002030 DD 77 FA         [19] 5566 	ld	-6 (ix), a
    00002033 3Es00            [ 7] 5567 	ld	a, #>(_g_Players)
    00002035 DD 8E FF         [19] 5568 	adc	a, -1 (ix)
    00002038 DD 77 FB         [19] 5569 	ld	-5 (ix), a
    0000203B DD 7E FA         [19] 5570 	ld	a, -6 (ix)
    0000203E C6 0A            [ 7] 5571 	add	a, #0x0a
    00002040 DD 77 FE         [19] 5572 	ld	-2 (ix), a
    00002043 DD 7E FB         [19] 5573 	ld	a, -5 (ix)
    00002046 CE 00            [ 7] 5574 	adc	a, #0x00
    00002048 DD 77 FF         [19] 5575 	ld	-1 (ix), a
    0000204B DD 6E FE         [19] 5576 	ld	l, -2 (ix)
    0000204E DD 66 FF         [19] 5577 	ld	h, -1 (ix)
    00002051 DD 7E FD         [19] 5578 	ld	a, -3 (ix)
    00002054 77               [ 7] 5579 	ld	(hl), a
                                   5580 ;E:\Dropbox\FAUSTO\SVILUPPI\MSX\CODE\C\MSXgl\projects\exsoccer/exsoccer_s1_b2.c:999: g_Players[kickerId].PatternId = GetNoMovingPlayerPatternId(kDir);
    00002055 DD 7E FA         [19] 5581 	ld	a, -6 (ix)
    00002058 C6 08            [ 7] 5582 	add	a, #0x08
    0000205A DD 77 FE         [19] 5583 	ld	-2 (ix), a
    0000205D DD 7E FB         [19] 5584 	ld	a, -5 (ix)
    00002060 CE 00            [ 7] 5585 	adc	a, #0x00
    00002062 DD 77 FF         [19] 5586 	ld	-1 (ix), a
    00002065 DD 7E FD         [19] 5587 	ld	a, -3 (ix)
    00002068 CDr00r00         [17] 5588 	call	_GetNoMovingPlayerPatternId
    0000206B DD 77 FD         [19] 5589 	ld	-3 (ix), a
    0000206E DD 6E FE         [19] 5590 	ld	l, -2 (ix)
    00002071 DD 66 FF         [19] 5591 	ld	h, -1 (ix)
    00002074 DD 7E FD         [19] 5592 	ld	a, -3 (ix)
    00002077 77               [ 7] 5593 	ld	(hl), a
                                   5594 ;E:\Dropbox\FAUSTO\SVILUPPI\MSX\CODE\C\MSXgl\projects\exsoccer/exsoccer_s1_b2.c:1000: g_Players[kickerId].X = g_Players[kickerId].TargetX;
    00002078 DD 7E FA         [19] 5595 	ld	a, -6 (ix)
    0000207B C6 02            [ 7] 5596 	add	a, #0x02
    0000207D DD 77 FC         [19] 5597 	ld	-4 (ix), a
    00002080 DD 7E FB         [19] 5598 	ld	a, -5 (ix)
    00002083 CE 00            [ 7] 5599 	adc	a, #0x00
    00002085 DD 77 FD         [19] 5600 	ld	-3 (ix), a
    00002088 DD 7E FA         [19] 5601 	ld	a, -6 (ix)
    0000208B DD 77 FE         [19] 5602 	ld	-2 (ix), a
    0000208E DD 7E FB         [19] 5603 	ld	a, -5 (ix)
    00002091 DD 77 FF         [19] 5604 	ld	-1 (ix), a
    00002094 DD 6E FE         [19] 5605 	ld	l, -2 (ix)
    00002097 DD 66 FF         [19] 5606 	ld	h, -1 (ix)
    0000209A 11 10 00         [10] 5607 	ld	de, #0x0010
    0000209D 19               [11] 5608 	add	hl, de
    0000209E 7E               [ 7] 5609 	ld	a, (hl)
    0000209F DD 77 FE         [19] 5610 	ld	-2 (ix), a
    000020A2 23               [ 6] 5611 	inc	hl
    000020A3 7E               [ 7] 5612 	ld	a, (hl)
    000020A4 DD 77 FF         [19] 5613 	ld	-1 (ix), a
    000020A7 DD 6E FC         [19] 5614 	ld	l, -4 (ix)
    000020AA DD 66 FD         [19] 5615 	ld	h, -3 (ix)
    000020AD DD 7E FE         [19] 5616 	ld	a, -2 (ix)
    000020B0 77               [ 7] 5617 	ld	(hl), a
    000020B1 23               [ 6] 5618 	inc	hl
    000020B2 DD 7E FF         [19] 5619 	ld	a, -1 (ix)
    000020B5 77               [ 7] 5620 	ld	(hl), a
                                   5621 ;E:\Dropbox\FAUSTO\SVILUPPI\MSX\CODE\C\MSXgl\projects\exsoccer/exsoccer_s1_b2.c:1001: g_Players[kickerId].Y = g_Players[kickerId].TargetY;
    000020B6 DD 7E FA         [19] 5622 	ld	a, -6 (ix)
    000020B9 DD 77 FE         [19] 5623 	ld	-2 (ix), a
    000020BC DD 7E FB         [19] 5624 	ld	a, -5 (ix)
    000020BF DD 77 FF         [19] 5625 	ld	-1 (ix), a
    000020C2 DD 6E FE         [19] 5626 	ld	l, -2 (ix)
    000020C5 DD 66 FF         [19] 5627 	ld	h, -1 (ix)
    000020C8 11 0E 00         [10] 5628 	ld	de, #0x000e
    000020CB 19               [11] 5629 	add	hl, de
    000020CC 7E               [ 7] 5630 	ld	a, (hl)
    000020CD DD 77 FE         [19] 5631 	ld	-2 (ix), a
    000020D0 23               [ 6] 5632 	inc	hl
    000020D1 7E               [ 7] 5633 	ld	a, (hl)
    000020D2 DD 77 FF         [19] 5634 	ld	-1 (ix), a
    000020D5 DD 6E FA         [19] 5635 	ld	l, -6 (ix)
    000020D8 DD 66 FB         [19] 5636 	ld	h, -5 (ix)
    000020DB DD 7E FE         [19] 5637 	ld	a, -2 (ix)
    000020DE 77               [ 7] 5638 	ld	(hl), a
    000020DF 23               [ 6] 5639 	inc	hl
    000020E0 DD 7E FF         [19] 5640 	ld	a, -1 (ix)
    000020E3 77               [ 7] 5641 	ld	(hl), a
                                   5642 ;E:\Dropbox\FAUSTO\SVILUPPI\MSX\CODE\C\MSXgl\projects\exsoccer/exsoccer_s1_b2.c:1003: g_Players[kickerId].Status = PLAYER_STATUS_POSITIONED; 
    000020E4 DD 6E FA         [19] 5643 	ld	l, -6 (ix)
    000020E7 DD 66 FB         [19] 5644 	ld	h, -5 (ix)
    000020EA 11 12 00         [10] 5645 	ld	de, #0x0012
    000020ED 19               [11] 5646 	add	hl, de
    000020EE 36 04            [10] 5647 	ld	(hl), #0x04
    000020F0 23               [ 6] 5648 	inc	hl
    000020F1 36 00            [10] 5649 	ld	(hl), #0x00
    000020F3                       5650 00209$:
                                   5651 ;E:\Dropbox\FAUSTO\SVILUPPI\MSX\CODE\C\MSXgl\projects\exsoccer/exsoccer_s1_b2.c:1007: bool t1Trigger = IsTeamJoystickTriggerPressed(TEAM_1);
    000020F3 3E 01            [ 7] 5652 	ld	a, #0x01
    000020F5 CDr00r00         [17] 5653 	call	_IsTeamJoystickTriggerPressed
    000020F8 4F               [ 4] 5654 	ld	c, a
                                   5655 ;E:\Dropbox\FAUSTO\SVILUPPI\MSX\CODE\C\MSXgl\projects\exsoccer/exsoccer_s1_b2.c:1009: if (g_Timer == 180) t1Latched = true;
    000020F9 3Ar00r00         [13] 5656 	ld	a, (_g_Timer+0)
    000020FC D6 B4            [ 7] 5657 	sub	a, #0xb4
    000020FE 20 05            [12] 5658 	jr	NZ, 00211$
    00002100 21r04r00         [10] 5659 	ld	hl, #_TickCornerKick_t1Latched_196615_1365
    00002103 36 01            [10] 5660 	ld	(hl), #0x01
    00002105                       5661 00211$:
                                   5662 ;E:\Dropbox\FAUSTO\SVILUPPI\MSX\CODE\C\MSXgl\projects\exsoccer/exsoccer_s1_b2.c:1010: if (!t1Trigger) t1Latched = false;
    00002105 79               [ 4] 5663 	ld	a, c
    00002106 B7               [ 4] 5664 	or	a, a
    00002107 20 05            [12] 5665 	jr	NZ, 00213$
    00002109 21r04r00         [10] 5666 	ld	hl, #_TickCornerKick_t1Latched_196615_1365
    0000210C 36 00            [10] 5667 	ld	(hl), #0x00
    0000210E                       5668 00213$:
                                   5669 ;E:\Dropbox\FAUSTO\SVILUPPI\MSX\CODE\C\MSXgl\projects\exsoccer/exsoccer_s1_b2.c:1013: if (g_CornerKickTargetId != NO_VALUE) {
    0000210E 3Ar00r00         [13] 5670 	ld	a, (_g_CornerKickTargetId+0)
    00002111 3C               [ 4] 5671 	inc	a
    00002112 28 0D            [12] 5672 	jr	Z, 00215$
                                   5673 ;E:\Dropbox\FAUSTO\SVILUPPI\MSX\CODE\C\MSXgl\projects\exsoccer/exsoccer_s1_b2.c:1014: g_Ball.PassTargetPlayerId = g_CornerKickTargetId;
    00002114 21r10r00         [10] 5674 	ld	hl, #(_g_Ball + 16)
    00002117 3Ar00r00         [13] 5675 	ld	a, (_g_CornerKickTargetId+0)
    0000211A 77               [ 7] 5676 	ld	(hl), a
                                   5677 ;E:\Dropbox\FAUSTO\SVILUPPI\MSX\CODE\C\MSXgl\projects\exsoccer/exsoccer_s1_b2.c:1015: g_PassTargetPlayer = g_CornerKickTargetId;
    0000211B 3Ar00r00         [13] 5678 	ld	a, (_g_CornerKickTargetId+0)
    0000211E 32r00r00         [13] 5679 	ld	(_g_PassTargetPlayer+0), a
    00002121                       5680 00215$:
                                   5681 ;E:\Dropbox\FAUSTO\SVILUPPI\MSX\CODE\C\MSXgl\projects\exsoccer/exsoccer_s1_b2.c:1018: if ((t1Trigger && !t1Latched || s_ForceKickTimer > 240) && g_CornerKickTargetId != NO_VALUE) {
    00002121 79               [ 4] 5682 	ld	a, c
    00002122 B7               [ 4] 5683 	or	a, a
    00002123 28 06            [12] 5684 	jr	Z, 00219$
    00002125 3Ar04r00         [13] 5685 	ld	a, (_TickCornerKick_t1Latched_196615_1365+0)
    00002128 B7               [ 4] 5686 	or	a, a
    00002129 28 0C            [12] 5687 	jr	Z, 00220$
    0000212B                       5688 00219$:
    0000212B 2Ar01r00         [16] 5689 	ld	hl, (_TickCornerKick_s_ForceKickTimer_65537_1326)
    0000212E 3E F0            [ 7] 5690 	ld	a, #0xf0
    00002130 BD               [ 4] 5691 	cp	a, l
    00002131 3E 00            [ 7] 5692 	ld	a, #0x00
    00002133 9C               [ 4] 5693 	sbc	a, h
    00002134 D2r9Fr22         [10] 5694 	jp	NC, 00270$
    00002137                       5695 00220$:
    00002137 3Ar00r00         [13] 5696 	ld	a, (_g_CornerKickTargetId+0)
    0000213A 3C               [ 4] 5697 	inc	a
    0000213B CAr9Fr22         [10] 5698 	jp	Z,00270$
                                   5699 ;E:\Dropbox\FAUSTO\SVILUPPI\MSX\CODE\C\MSXgl\projects\exsoccer/exsoccer_s1_b2.c:1019: PerformPass(g_CornerKickTargetId);
    0000213E 3Ar00r00         [13] 5700 	ld	a, (_g_CornerKickTargetId+0)
    00002141 CDr00r00         [17] 5701 	call	_PerformPass
                                   5702 ;E:\Dropbox\FAUSTO\SVILUPPI\MSX\CODE\C\MSXgl\projects\exsoccer/exsoccer_s1_b2.c:1020: g_MatchStatus = MATCH_IN_ACTION;
    00002144 21r00r00         [10] 5703 	ld	hl, #_g_MatchStatus
    00002147 36 0C            [10] 5704 	ld	(hl), #0x0c
                                   5705 ;E:\Dropbox\FAUSTO\SVILUPPI\MSX\CODE\C\MSXgl\projects\exsoccer/exsoccer_s1_b2.c:1021: g_CornerKickTargetId = NO_VALUE;
    00002149 21r00r00         [10] 5706 	ld	hl, #_g_CornerKickTargetId
    0000214C 36 FF            [10] 5707 	ld	(hl), #0xff
    0000214E C3r9Fr22         [10] 5708 	jp	00270$
    00002151                       5709 00246$:
                                   5710 ;E:\Dropbox\FAUSTO\SVILUPPI\MSX\CODE\C\MSXgl\projects\exsoccer/exsoccer_s1_b2.c:1026: u8 joyDir = GetJoystick2Direction();
    00002151 CDr00r00         [17] 5711 	call	_GetJoystick2Direction
    00002154 47               [ 4] 5712 	ld	b, a
                                   5713 ;E:\Dropbox\FAUSTO\SVILUPPI\MSX\CODE\C\MSXgl\projects\exsoccer/exsoccer_s1_b2.c:1027: bool trigger = IsTeamJoystickTriggerPressed(TEAM_2);
    00002155 C5               [11] 5714 	push	bc
    00002156 3E 02            [ 7] 5715 	ld	a, #0x02
    00002158 CDr00r00         [17] 5716 	call	_IsTeamJoystickTriggerPressed
    0000215B C1               [10] 5717 	pop	bc
    0000215C DD 77 FC         [19] 5718 	ld	-4 (ix), a
                                   5719 ;E:\Dropbox\FAUSTO\SVILUPPI\MSX\CODE\C\MSXgl\projects\exsoccer/exsoccer_s1_b2.c:1030: if (g_CornerKickTargetId == NO_VALUE) g_CornerKickTargetId = GetPlayerIdByRole(TEAM_2, PLAYER_ROLE_LEFT_STRIKER);
    0000215F 3Ar00r00         [13] 5720 	ld	a, (_g_CornerKickTargetId+0)
    00002162 3C               [ 4] 5721 	inc	a
    00002163 20 0C            [12] 5722 	jr	NZ, 00222$
    00002165 C5               [11] 5723 	push	bc
    00002166 2E 05            [ 7] 5724 	ld	l, #0x05
                                   5725 ;	spillPairReg hl
                                   5726 ;	spillPairReg hl
    00002168 3E 02            [ 7] 5727 	ld	a, #0x02
    0000216A CDr00r00         [17] 5728 	call	_GetPlayerIdByRole
    0000216D C1               [10] 5729 	pop	bc
    0000216E 32r00r00         [13] 5730 	ld	(_g_CornerKickTargetId+0), a
    00002171                       5731 00222$:
                                   5732 ;E:\Dropbox\FAUSTO\SVILUPPI\MSX\CODE\C\MSXgl\projects\exsoccer/exsoccer_s1_b2.c:1032: if ((joyDir == DIRECTION_LEFT || joyDir == DIRECTION_RIGHT) && !joyMoved) {
    00002171 78               [ 4] 5733 	ld	a,b
    00002172 FE 07            [ 7] 5734 	cp	a,#0x07
    00002174 28 04            [12] 5735 	jr	Z, 00238$
    00002176 D6 03            [ 7] 5736 	sub	a, #0x03
    00002178 20 75            [12] 5737 	jr	NZ, 00235$
    0000217A                       5738 00238$:
    0000217A 3Ar05r00         [13] 5739 	ld	a, (_TickCornerKick_joyMoved_196613_1368+0)
    0000217D B7               [ 4] 5740 	or	a, a
    0000217E 20 6F            [12] 5741 	jr	NZ, 00235$
                                   5742 ;E:\Dropbox\FAUSTO\SVILUPPI\MSX\CODE\C\MSXgl\projects\exsoccer/exsoccer_s1_b2.c:1033: u8 curr = g_CornerKickTargetId;
    00002180 3Ar00r00         [13] 5743 	ld	a, (_g_CornerKickTargetId+0)
    00002183 4F               [ 4] 5744 	ld	c, a
                                   5745 ;E:\Dropbox\FAUSTO\SVILUPPI\MSX\CODE\C\MSXgl\projects\exsoccer/exsoccer_s1_b2.c:1035: do {
    00002184 78               [ 4] 5746 	ld	a, b
    00002185 D6 03            [ 7] 5747 	sub	a, #0x03
    00002187 3E 01            [ 7] 5748 	ld	a, #0x01
    00002189 28 01            [12] 5749 	jr	Z, 00857$
    0000218B AF               [ 4] 5750 	xor	a, a
    0000218C                       5751 00857$:
    0000218C DD 77 FD         [19] 5752 	ld	-3 (ix), a
    0000218F DD 36 FF 00      [19] 5753 	ld	-1 (ix), #0x00
    00002193                       5754 00229$:
                                   5755 ;E:\Dropbox\FAUSTO\SVILUPPI\MSX\CODE\C\MSXgl\projects\exsoccer/exsoccer_s1_b2.c:1036: curr = (joyDir==DIRECTION_RIGHT) ? curr+1 : curr-1;
    00002193 DD 71 FE         [19] 5756 	ld	-2 (ix), c
    00002196 DD 7E FD         [19] 5757 	ld	a, -3 (ix)
    00002199 B7               [ 4] 5758 	or	a, a
    0000219A 28 07            [12] 5759 	jr	Z, 00298$
    0000219C DD 4E FE         [19] 5760 	ld	c, -2 (ix)
    0000219F 0C               [ 4] 5761 	inc	c
    000021A0 C3rA7r21         [10] 5762 	jp	00299$
    000021A3                       5763 00298$:
    000021A3 DD 4E FE         [19] 5764 	ld	c, -2 (ix)
    000021A6 0D               [ 4] 5765 	dec	c
    000021A7                       5766 00299$:
                                   5767 ;E:\Dropbox\FAUSTO\SVILUPPI\MSX\CODE\C\MSXgl\projects\exsoccer/exsoccer_s1_b2.c:1037: if (curr > 13) curr = 0;
    000021A7 3E 0D            [ 7] 5768 	ld	a, #0x0d
    000021A9 91               [ 4] 5769 	sub	a, c
    000021AA 30 02            [12] 5770 	jr	NC, 00224$
    000021AC 0E 00            [ 7] 5771 	ld	c, #0x00
    000021AE                       5772 00224$:
                                   5773 ;E:\Dropbox\FAUSTO\SVILUPPI\MSX\CODE\C\MSXgl\projects\exsoccer/exsoccer_s1_b2.c:1038: if (g_Players[curr].TeamId == TEAM_2 && g_Players[curr].Role != PLAYER_ROLE_GOALKEEPER && curr != kickerId) {
    000021AE 06 00            [ 7] 5774 	ld	b, #0x00
    000021B0 69               [ 4] 5775 	ld	l, c
    000021B1 60               [ 4] 5776 	ld	h, b
    000021B2 29               [11] 5777 	add	hl, hl
    000021B3 29               [11] 5778 	add	hl, hl
    000021B4 09               [11] 5779 	add	hl, bc
    000021B5 29               [11] 5780 	add	hl, hl
    000021B6 29               [11] 5781 	add	hl, hl
    000021B7 09               [11] 5782 	add	hl, bc
    000021B8 EB               [ 4] 5783 	ex	de, hl
    000021B9 21r00r00         [10] 5784 	ld	hl, #_g_Players
    000021BC 19               [11] 5785 	add	hl, de
    000021BD EB               [ 4] 5786 	ex	de, hl
    000021BE D5               [11] 5787 	push	de
    000021BF FD E1            [14] 5788 	pop	iy
    000021C1 FD 7E 09         [19] 5789 	ld	a, 9 (iy)
    000021C4 D6 02            [ 7] 5790 	sub	a, #0x02
    000021C6 20 15            [12] 5791 	jr	NZ, 00226$
    000021C8 21 0D 00         [10] 5792 	ld	hl, #13
    000021CB 19               [11] 5793 	add	hl, de
    000021CC 7E               [ 7] 5794 	ld	a, (hl)
    000021CD B7               [ 4] 5795 	or	a, a
    000021CE 28 0D            [12] 5796 	jr	Z, 00226$
    000021D0 DD 7E E9         [19] 5797 	ld	a, -23 (ix)
    000021D3 91               [ 4] 5798 	sub	a, c
    000021D4 28 07            [12] 5799 	jr	Z, 00226$
                                   5800 ;E:\Dropbox\FAUSTO\SVILUPPI\MSX\CODE\C\MSXgl\projects\exsoccer/exsoccer_s1_b2.c:1039: g_CornerKickTargetId = curr; break;
    000021D6 21r00r00         [10] 5801 	ld	hl, #_g_CornerKickTargetId
    000021D9 71               [ 7] 5802 	ld	(hl), c
    000021DA C3rE7r21         [10] 5803 	jp	00231$
    000021DD                       5804 00226$:
                                   5805 ;E:\Dropbox\FAUSTO\SVILUPPI\MSX\CODE\C\MSXgl\projects\exsoccer/exsoccer_s1_b2.c:1041: loop++;
    000021DD DD 34 FF         [23] 5806 	inc	-1 (ix)
                                   5807 ;E:\Dropbox\FAUSTO\SVILUPPI\MSX\CODE\C\MSXgl\projects\exsoccer/exsoccer_s1_b2.c:1042: } while (loop < 15);
    000021E0 DD 7E FF         [19] 5808 	ld	a, -1 (ix)
    000021E3 D6 0F            [ 7] 5809 	sub	a, #0x0f
    000021E5 38 AC            [12] 5810 	jr	C, 00229$
    000021E7                       5811 00231$:
                                   5812 ;E:\Dropbox\FAUSTO\SVILUPPI\MSX\CODE\C\MSXgl\projects\exsoccer/exsoccer_s1_b2.c:1043: joyMoved = true;
    000021E7 21r05r00         [10] 5813 	ld	hl, #_TickCornerKick_joyMoved_196613_1368
    000021EA 36 01            [10] 5814 	ld	(hl), #0x01
    000021EC C3rF8r21         [10] 5815 	jp	00236$
    000021EF                       5816 00235$:
                                   5817 ;E:\Dropbox\FAUSTO\SVILUPPI\MSX\CODE\C\MSXgl\projects\exsoccer/exsoccer_s1_b2.c:1044: } else if (joyDir == DIRECTION_NONE) joyMoved = false;
    000021EF 78               [ 4] 5818 	ld	a, b
    000021F0 B7               [ 4] 5819 	or	a, a
    000021F1 20 05            [12] 5820 	jr	NZ, 00236$
    000021F3 21r05r00         [10] 5821 	ld	hl, #_TickCornerKick_joyMoved_196613_1368
    000021F6 36 00            [10] 5822 	ld	(hl), #0x00
    000021F8                       5823 00236$:
                                   5824 ;E:\Dropbox\FAUSTO\SVILUPPI\MSX\CODE\C\MSXgl\projects\exsoccer/exsoccer_s1_b2.c:1046: if (g_CornerKickTargetId != NO_VALUE) {
    000021F8 3Ar00r00         [13] 5825 	ld	a, (_g_CornerKickTargetId+0)
    000021FB 3C               [ 4] 5826 	inc	a
    000021FC 28 0D            [12] 5827 	jr	Z, 00240$
                                   5828 ;E:\Dropbox\FAUSTO\SVILUPPI\MSX\CODE\C\MSXgl\projects\exsoccer/exsoccer_s1_b2.c:1047: g_Ball.PassTargetPlayerId = g_CornerKickTargetId;
    000021FE 21r10r00         [10] 5829 	ld	hl, #(_g_Ball + 16)
    00002201 3Ar00r00         [13] 5830 	ld	a, (_g_CornerKickTargetId+0)
    00002204 77               [ 7] 5831 	ld	(hl), a
                                   5832 ;E:\Dropbox\FAUSTO\SVILUPPI\MSX\CODE\C\MSXgl\projects\exsoccer/exsoccer_s1_b2.c:1048: g_PassTargetPlayer = g_CornerKickTargetId;
    00002205 3Ar00r00         [13] 5833 	ld	a, (_g_CornerKickTargetId+0)
    00002208 32r00r00         [13] 5834 	ld	(_g_PassTargetPlayer+0), a
    0000220B                       5835 00240$:
                                   5836 ;E:\Dropbox\FAUSTO\SVILUPPI\MSX\CODE\C\MSXgl\projects\exsoccer/exsoccer_s1_b2.c:1051: if ((trigger || s_ForceKickTimer > 240) && g_CornerKickTargetId != NO_VALUE) {
    0000220B DD 7E FC         [19] 5837 	ld	a, -4 (ix)
    0000220E B7               [ 4] 5838 	or	a, a
    0000220F 20 0C            [12] 5839 	jr	NZ, 00244$
    00002211 2Ar01r00         [16] 5840 	ld	hl, (_TickCornerKick_s_ForceKickTimer_65537_1326)
    00002214 3E F0            [ 7] 5841 	ld	a, #0xf0
    00002216 BD               [ 4] 5842 	cp	a, l
    00002217 3E 00            [ 7] 5843 	ld	a, #0x00
    00002219 9C               [ 4] 5844 	sbc	a, h
    0000221A D2r9Fr22         [10] 5845 	jp	NC, 00270$
    0000221D                       5846 00244$:
    0000221D 3Ar00r00         [13] 5847 	ld	a, (_g_CornerKickTargetId+0)
    00002220 3C               [ 4] 5848 	inc	a
    00002221 28 7C            [12] 5849 	jr	Z, 00270$
                                   5850 ;E:\Dropbox\FAUSTO\SVILUPPI\MSX\CODE\C\MSXgl\projects\exsoccer/exsoccer_s1_b2.c:1052: PerformPass(g_CornerKickTargetId);
    00002223 3Ar00r00         [13] 5851 	ld	a, (_g_CornerKickTargetId+0)
    00002226 CDr00r00         [17] 5852 	call	_PerformPass
                                   5853 ;E:\Dropbox\FAUSTO\SVILUPPI\MSX\CODE\C\MSXgl\projects\exsoccer/exsoccer_s1_b2.c:1053: g_MatchStatus = MATCH_IN_ACTION;
    00002229 21r00r00         [10] 5854 	ld	hl, #_g_MatchStatus
    0000222C 36 0C            [10] 5855 	ld	(hl), #0x0c
                                   5856 ;E:\Dropbox\FAUSTO\SVILUPPI\MSX\CODE\C\MSXgl\projects\exsoccer/exsoccer_s1_b2.c:1054: g_CornerKickTargetId = NO_VALUE;
    0000222E 21r00r00         [10] 5857 	ld	hl, #_g_CornerKickTargetId
    00002231 36 FF            [10] 5858 	ld	(hl), #0xff
    00002233 C3r9Fr22         [10] 5859 	jp	00270$
    00002236                       5860 00260$:
                                   5861 ;E:\Dropbox\FAUSTO\SVILUPPI\MSX\CODE\C\MSXgl\projects\exsoccer/exsoccer_s1_b2.c:1060: if (g_CornerKickTargetId == NO_VALUE) {
    00002236 3Ar00r00         [13] 5862 	ld	a, (_g_CornerKickTargetId+0)
    00002239 3C               [ 4] 5863 	inc	a
    0000223A 20 32            [12] 5864 	jr	NZ, 00253$
                                   5865 ;E:\Dropbox\FAUSTO\SVILUPPI\MSX\CODE\C\MSXgl\projects\exsoccer/exsoccer_s1_b2.c:1061: u8 randomRole = ((g_Timer & 1) == 0) ? PLAYER_ROLE_LEFT_STRIKER : PLAYER_ROLE_RIGHT_STRIKER;
    0000223C 3Ar00r00         [13] 5866 	ld	a, (_g_Timer+0)
    0000223F 0F               [ 4] 5867 	rrca
    00002240 38 06            [12] 5868 	jr	C, 00300$
    00002242 21 05 00         [10] 5869 	ld	hl, #0x0005
    00002245 C3r4Br22         [10] 5870 	jp	00301$
    00002248                       5871 00300$:
    00002248 21 06 00         [10] 5872 	ld	hl, #0x0006
    0000224B                       5873 00301$:
                                   5874 ;E:\Dropbox\FAUSTO\SVILUPPI\MSX\CODE\C\MSXgl\projects\exsoccer/exsoccer_s1_b2.c:1062: u8 strikerId = GetPlayerIdByRole(g_RestartKickTeamId, randomRole);
    0000224B 3Ar00r00         [13] 5875 	ld	a, (_g_RestartKickTeamId+0)
    0000224E CDr00r00         [17] 5876 	call	_GetPlayerIdByRole
                                   5877 ;E:\Dropbox\FAUSTO\SVILUPPI\MSX\CODE\C\MSXgl\projects\exsoccer/exsoccer_s1_b2.c:1065: if (strikerId != NO_VALUE && strikerId != kickerId) {
    00002251 4F               [ 4] 5878 	ld	c, a
    00002252 3C               [ 4] 5879 	inc	a
    00002253 28 0D            [12] 5880 	jr	Z, 00249$
    00002255 DD 7E E9         [19] 5881 	ld	a, -23 (ix)
    00002258 91               [ 4] 5882 	sub	a, c
    00002259 28 07            [12] 5883 	jr	Z, 00249$
                                   5884 ;E:\Dropbox\FAUSTO\SVILUPPI\MSX\CODE\C\MSXgl\projects\exsoccer/exsoccer_s1_b2.c:1066: g_CornerKickTargetId = strikerId;
    0000225B 21r00r00         [10] 5885 	ld	hl, #_g_CornerKickTargetId
    0000225E 71               [ 7] 5886 	ld	(hl), c
    0000225F C3r6Er22         [10] 5887 	jp	00253$
    00002262                       5888 00249$:
                                   5889 ;E:\Dropbox\FAUSTO\SVILUPPI\MSX\CODE\C\MSXgl\projects\exsoccer/exsoccer_s1_b2.c:1068: g_CornerKickTargetId = GetClosestPlayerToBall(g_RestartKickTeamId, kickerId);
    00002262 DD 6E E9         [19] 5890 	ld	l, -23 (ix)
                                   5891 ;	spillPairReg hl
                                   5892 ;	spillPairReg hl
    00002265 3Ar00r00         [13] 5893 	ld	a, (_g_RestartKickTeamId+0)
    00002268 CDr00r00         [17] 5894 	call	_GetClosestPlayerToBall
    0000226B 32r00r00         [13] 5895 	ld	(_g_CornerKickTargetId+0), a
    0000226E                       5896 00253$:
                                   5897 ;E:\Dropbox\FAUSTO\SVILUPPI\MSX\CODE\C\MSXgl\projects\exsoccer/exsoccer_s1_b2.c:1072: if (g_Timer > 200) {
    0000226E 3E C8            [ 7] 5898 	ld	a, #0xc8
    00002270 21r00r00         [10] 5899 	ld	hl, #_g_Timer
    00002273 96               [ 7] 5900 	sub	a, (hl)
    00002274 30 25            [12] 5901 	jr	NC, 00257$
                                   5902 ;E:\Dropbox\FAUSTO\SVILUPPI\MSX\CODE\C\MSXgl\projects\exsoccer/exsoccer_s1_b2.c:1073: if (g_CornerKickTargetId == NO_VALUE) g_CornerKickTargetId = GetClosestPlayerToBall(g_RestartKickTeamId, kickerId);
    00002276 3Ar00r00         [13] 5903 	ld	a, (_g_CornerKickTargetId+0)
    00002279 3C               [ 4] 5904 	inc	a
    0000227A 20 0C            [12] 5905 	jr	NZ, 00255$
    0000227C DD 6E E9         [19] 5906 	ld	l, -23 (ix)
                                   5907 ;	spillPairReg hl
                                   5908 ;	spillPairReg hl
    0000227F 3Ar00r00         [13] 5909 	ld	a, (_g_RestartKickTeamId+0)
    00002282 CDr00r00         [17] 5910 	call	_GetClosestPlayerToBall
    00002285 32r00r00         [13] 5911 	ld	(_g_CornerKickTargetId+0), a
    00002288                       5912 00255$:
                                   5913 ;E:\Dropbox\FAUSTO\SVILUPPI\MSX\CODE\C\MSXgl\projects\exsoccer/exsoccer_s1_b2.c:1075: PerformPass(g_CornerKickTargetId);
    00002288 3Ar00r00         [13] 5914 	ld	a, (_g_CornerKickTargetId+0)
    0000228B CDr00r00         [17] 5915 	call	_PerformPass
                                   5916 ;E:\Dropbox\FAUSTO\SVILUPPI\MSX\CODE\C\MSXgl\projects\exsoccer/exsoccer_s1_b2.c:1076: g_MatchStatus = MATCH_IN_ACTION; 
    0000228E 21r00r00         [10] 5917 	ld	hl, #_g_MatchStatus
    00002291 36 0C            [10] 5918 	ld	(hl), #0x0c
                                   5919 ;E:\Dropbox\FAUSTO\SVILUPPI\MSX\CODE\C\MSXgl\projects\exsoccer/exsoccer_s1_b2.c:1077: g_CornerKickTargetId = NO_VALUE;
    00002293 21r00r00         [10] 5920 	ld	hl, #_g_CornerKickTargetId
    00002296 36 FF            [10] 5921 	ld	(hl), #0xff
    00002298 C3r9Fr22         [10] 5922 	jp	00270$
    0000229B                       5923 00257$:
                                   5924 ;E:\Dropbox\FAUSTO\SVILUPPI\MSX\CODE\C\MSXgl\projects\exsoccer/exsoccer_s1_b2.c:1079: g_Timer++;
    0000229B 21r00r00         [10] 5925 	ld	hl, #_g_Timer
    0000229E 34               [11] 5926 	inc	(hl)
    0000229F                       5927 00270$:
                                   5928 ;E:\Dropbox\FAUSTO\SVILUPPI\MSX\CODE\C\MSXgl\projects\exsoccer/exsoccer_s1_b2.c:1082: }
    0000229F DD F9            [10] 5929 	ld	sp, ix
    000022A1 DD E1            [14] 5930 	pop	ix
    000022A3 C9               [10] 5931 	ret
                                   5932 ;E:\Dropbox\FAUSTO\SVILUPPI\MSX\CODE\C\MSXgl\projects\exsoccer/exsoccer_s1_b2.c:1083: void TickTeamJoystick(u8 teamId, u8 direction){
                                   5933 ;	---------------------------------
                                   5934 ; Function TickTeamJoystick
                                   5935 ; ---------------------------------
    000022A4                       5936 _TickTeamJoystick::
    000022A4 DD E5            [15] 5937 	push	ix
    000022A6 DD 21 00 00      [14] 5938 	ld	ix,#0
    000022AA DD 39            [15] 5939 	add	ix,sp
    000022AC FD 21 C3 FF      [14] 5940 	ld	iy, #-61
    000022B0 FD 39            [15] 5941 	add	iy, sp
    000022B2 FD F9            [10] 5942 	ld	sp, iy
    000022B4 DD 77 FF         [19] 5943 	ld	-1 (ix), a
    000022B7 DD 75 FE         [19] 5944 	ld	-2 (ix), l
                                   5945 ;E:\Dropbox\FAUSTO\SVILUPPI\MSX\CODE\C\MSXgl\projects\exsoccer/exsoccer_s1_b2.c:1086: if (g_MatchStatus == MATCH_NOT_STARTED || 
    000022BA 3Ar00r00         [13] 5946 	ld	a, (_g_MatchStatus+0)
    000022BD B7               [ 4] 5947 	or	a, a
    000022BE CAr36r30         [10] 5948 	jp	Z,00263$
                                   5949 ;E:\Dropbox\FAUSTO\SVILUPPI\MSX\CODE\C\MSXgl\projects\exsoccer/exsoccer_s1_b2.c:1087: g_MatchStatus == MATCH_PLAYERS_PRESENTATION || 
                                   5950 ;E:\Dropbox\FAUSTO\SVILUPPI\MSX\CODE\C\MSXgl\projects\exsoccer/exsoccer_s1_b2.c:1088: g_MatchStatus == MATCH_AFTER_IN_GOAL || 
    000022C1 3Ar00r00         [13] 5951 	ld	a,(_g_MatchStatus+0)
    000022C4 FE 0B            [ 7] 5952 	cp	a,#0x0b
    000022C6 CAr36r30         [10] 5953 	jp	Z,00263$
                                   5954 ;E:\Dropbox\FAUSTO\SVILUPPI\MSX\CODE\C\MSXgl\projects\exsoccer/exsoccer_s1_b2.c:1089: g_MatchStatus == MATCH_BEFORE_CORNER_KICK || 
                                   5955 ;E:\Dropbox\FAUSTO\SVILUPPI\MSX\CODE\C\MSXgl\projects\exsoccer/exsoccer_s1_b2.c:1090: g_MatchStatus == MATCH_BEFORE_GOAL_KICK || 
    000022C9 FE 06            [ 7] 5956 	cp	a,#0x06
    000022CB CAr36r30         [10] 5957 	jp	Z,00263$
    000022CE FE 02            [ 7] 5958 	cp	a,#0x02
    000022D0 CAr36r30         [10] 5959 	jp	Z,00263$
                                   5960 ;E:\Dropbox\FAUSTO\SVILUPPI\MSX\CODE\C\MSXgl\projects\exsoccer/exsoccer_s1_b2.c:1091: g_MatchStatus == MATCH_BEFORE_THROW_IN ||
                                   5961 ;E:\Dropbox\FAUSTO\SVILUPPI\MSX\CODE\C\MSXgl\projects\exsoccer/exsoccer_s1_b2.c:1092: g_MatchStatus == MATCH_BEFORE_OFFSIDE) {
    000022D3 FE 05            [ 7] 5962 	cp	a,#0x05
    000022D5 CAr36r30         [10] 5963 	jp	Z,00263$
    000022D8 FE 03            [ 7] 5964 	cp	a,#0x03
    000022DA CAr36r30         [10] 5965 	jp	Z,00263$
    000022DD D6 0E            [ 7] 5966 	sub	a, #0x0e
                                   5967 ;E:\Dropbox\FAUSTO\SVILUPPI\MSX\CODE\C\MSXgl\projects\exsoccer/exsoccer_s1_b2.c:1093: return;
    000022DF CAr36r30         [10] 5968 	jp	Z,00263$
                                   5969 ;E:\Dropbox\FAUSTO\SVILUPPI\MSX\CODE\C\MSXgl\projects\exsoccer/exsoccer_s1_b2.c:1097: if(teamId==TEAM_1){
    000022E2 DD 7E FF         [19] 5970 	ld	a, -1 (ix)
    000022E5 3D               [ 4] 5971 	dec	a
    000022E6 3E 01            [ 7] 5972 	ld	a, #0x01
    000022E8 28 01            [12] 5973 	jr	Z, 00739$
    000022EA AF               [ 4] 5974 	xor	a, a
    000022EB                       5975 00739$:
    000022EB DD 77 C3         [19] 5976 	ld	-61 (ix), a
    000022EE B7               [ 4] 5977 	or	a, a
    000022EF 28 13            [12] 5978 	jr	Z, 00116$
                                   5979 ;E:\Dropbox\FAUSTO\SVILUPPI\MSX\CODE\C\MSXgl\projects\exsoccer/exsoccer_s1_b2.c:1098: if(g_Team1ActivePlayer==NO_VALUE){
    000022F1 3Ar00r00         [13] 5980 	ld	a, (_g_Team1ActivePlayer+0)
    000022F4 3C               [ 4] 5981 	inc	a
    000022F5 CAr36r30         [10] 5982 	jp	Z,00263$
                                   5983 ;E:\Dropbox\FAUSTO\SVILUPPI\MSX\CODE\C\MSXgl\projects\exsoccer/exsoccer_s1_b2.c:1099: return;
    000022F8 C3rFBr22         [10] 5984 	jp	00110$
    000022FB                       5985 00110$:
                                   5986 ;E:\Dropbox\FAUSTO\SVILUPPI\MSX\CODE\C\MSXgl\projects\exsoccer/exsoccer_s1_b2.c:1102: playerId=g_Team1ActivePlayer;
    000022FB 3Ar00r00         [13] 5987 	ld	a, (_g_Team1ActivePlayer+0)
    000022FE DD 77 FD         [19] 5988 	ld	-3 (ix), a
    00002301 C3r14r23         [10] 5989 	jp	00117$
    00002304                       5990 00116$:
                                   5991 ;E:\Dropbox\FAUSTO\SVILUPPI\MSX\CODE\C\MSXgl\projects\exsoccer/exsoccer_s1_b2.c:1106: if(g_Team2ActivePlayer==NO_VALUE){
    00002304 3Ar00r00         [13] 5992 	ld	a, (_g_Team2ActivePlayer+0)
    00002307 3C               [ 4] 5993 	inc	a
    00002308 CAr36r30         [10] 5994 	jp	Z,00263$
                                   5995 ;E:\Dropbox\FAUSTO\SVILUPPI\MSX\CODE\C\MSXgl\projects\exsoccer/exsoccer_s1_b2.c:1107: return;
    0000230B C3r0Er23         [10] 5996 	jp	00113$
    0000230E                       5997 00113$:
                                   5998 ;E:\Dropbox\FAUSTO\SVILUPPI\MSX\CODE\C\MSXgl\projects\exsoccer/exsoccer_s1_b2.c:1110: playerId=g_Team2ActivePlayer;
    0000230E 3Ar00r00         [13] 5999 	ld	a, (_g_Team2ActivePlayer+0)
    00002311 DD 77 FD         [19] 6000 	ld	-3 (ix), a
    00002314                       6001 00117$:
                                   6002 ;E:\Dropbox\FAUSTO\SVILUPPI\MSX\CODE\C\MSXgl\projects\exsoccer/exsoccer_s1_b2.c:1116: bool frameTriggerPressed = IsTeamJoystickTriggerPressed(teamId);
    00002314 DD 7E FF         [19] 6003 	ld	a, -1 (ix)
    00002317 CDr00r00         [17] 6004 	call	_IsTeamJoystickTriggerPressed
    0000231A DD 77 C4         [19] 6005 	ld	-60 (ix), a
                                   6006 ;E:\Dropbox\FAUSTO\SVILUPPI\MSX\CODE\C\MSXgl\projects\exsoccer/exsoccer_s1_b2.c:1119: bool canSwitch = false;
    0000231D DD 36 FC 00      [19] 6007 	ld	-4 (ix), #0x00
                                   6008 ;E:\Dropbox\FAUSTO\SVILUPPI\MSX\CODE\C\MSXgl\projects\exsoccer/exsoccer_s1_b2.c:1120: if (g_Ball.PossessionPlayerId == NO_VALUE) {
    00002321 3Ar06r00         [13] 6009 	ld	a, (#(_g_Ball + 6) + 0)
    00002324 FE FF            [ 7] 6010 	cp	a, #0xff
    00002326 20 07            [12] 6011 	jr	NZ, 00121$
                                   6012 ;E:\Dropbox\FAUSTO\SVILUPPI\MSX\CODE\C\MSXgl\projects\exsoccer/exsoccer_s1_b2.c:1121: canSwitch = true; // Always allow switch on loose ball
    00002328 DD 36 FC 01      [19] 6013 	ld	-4 (ix), #0x01
    0000232C C3r4Cr23         [10] 6014 	jp	00122$
    0000232F                       6015 00121$:
                                   6016 ;E:\Dropbox\FAUSTO\SVILUPPI\MSX\CODE\C\MSXgl\projects\exsoccer/exsoccer_s1_b2.c:1123: u8 ballOwner = g_Ball.PossessionPlayerId;
    0000232F 5F               [ 4] 6017 	ld	e, a
                                   6018 ;E:\Dropbox\FAUSTO\SVILUPPI\MSX\CODE\C\MSXgl\projects\exsoccer/exsoccer_s1_b2.c:1124: if (g_Players[ballOwner].TeamId != teamId) {
    00002330 01r00r00         [10] 6019 	ld	bc, #_g_Players+0
    00002333 16 00            [ 7] 6020 	ld	d, #0x00
    00002335 6B               [ 4] 6021 	ld	l, e
    00002336 62               [ 4] 6022 	ld	h, d
    00002337 29               [11] 6023 	add	hl, hl
    00002338 29               [11] 6024 	add	hl, hl
    00002339 19               [11] 6025 	add	hl, de
    0000233A 29               [11] 6026 	add	hl, hl
    0000233B 29               [11] 6027 	add	hl, hl
    0000233C 19               [11] 6028 	add	hl, de
    0000233D 09               [11] 6029 	add	hl, bc
    0000233E 11 09 00         [10] 6030 	ld	de, #0x0009
    00002341 19               [11] 6031 	add	hl, de
    00002342 DD 7E FF         [19] 6032 	ld	a,-1 (ix)
    00002345 96               [ 7] 6033 	sub	a,(hl)
    00002346 28 04            [12] 6034 	jr	Z, 00122$
                                   6035 ;E:\Dropbox\FAUSTO\SVILUPPI\MSX\CODE\C\MSXgl\projects\exsoccer/exsoccer_s1_b2.c:1125: canSwitch = true;
    00002348 DD 36 FC 01      [19] 6036 	ld	-4 (ix), #0x01
    0000234C                       6037 00122$:
                                   6038 ;E:\Dropbox\FAUSTO\SVILUPPI\MSX\CODE\C\MSXgl\projects\exsoccer/exsoccer_s1_b2.c:1129: if (canSwitch) {
    0000234C DD 7E FC         [19] 6039 	ld	a, -4 (ix)
    0000234F B7               [ 4] 6040 	or	a, a
    00002350 CAr59r25         [10] 6041 	jp	Z, 00144$
                                   6042 ;E:\Dropbox\FAUSTO\SVILUPPI\MSX\CODE\C\MSXgl\projects\exsoccer/exsoccer_s1_b2.c:1132: bool forceSwitch = frameTriggerPressed;
    00002353 DD 7E C4         [19] 6043 	ld	a, -60 (ix)
    00002356 DD 77 F8         [19] 6044 	ld	-8 (ix), a
                                   6045 ;E:\Dropbox\FAUSTO\SVILUPPI\MSX\CODE\C\MSXgl\projects\exsoccer/exsoccer_s1_b2.c:1136: bool inputActive = (direction != DIRECTION_NONE);
    00002359 DD 7E FE         [19] 6046 	ld	a, -2 (ix)
    0000235C D6 01            [ 7] 6047 	sub	a,#0x01
    0000235E 3E 00            [ 7] 6048 	ld	a, #0x00
    00002360 17               [ 4] 6049 	rla
    00002361 DD 77 FC         [19] 6050 	ld	-4 (ix), a
    00002364 EE 01            [ 7] 6051 	xor	a, #0x01
    00002366 DD 77 FC         [19] 6052 	ld	-4 (ix), a
                                   6053 ;E:\Dropbox\FAUSTO\SVILUPPI\MSX\CODE\C\MSXgl\projects\exsoccer/exsoccer_s1_b2.c:1138: if (!inputActive || forceSwitch) {
    00002369 B7               [ 4] 6054 	or	a, a
    0000236A 28 07            [12] 6055 	jr	Z, 00140$
    0000236C DD 7E C4         [19] 6056 	ld	a, -60 (ix)
    0000236F B7               [ 4] 6057 	or	a, a
    00002370 CAr59r25         [10] 6058 	jp	Z, 00144$
    00002373                       6059 00140$:
                                   6060 ;E:\Dropbox\FAUSTO\SVILUPPI\MSX\CODE\C\MSXgl\projects\exsoccer/exsoccer_s1_b2.c:1140: u8 closestId = GetClosestPlayerToBall(teamId, NO_VALUE);
    00002373 2E FF            [ 7] 6061 	ld	l, #0xff
                                   6062 ;	spillPairReg hl
                                   6063 ;	spillPairReg hl
    00002375 DD 7E FF         [19] 6064 	ld	a, -1 (ix)
    00002378 CDr00r00         [17] 6065 	call	_GetClosestPlayerToBall
                                   6066 ;E:\Dropbox\FAUSTO\SVILUPPI\MSX\CODE\C\MSXgl\projects\exsoccer/exsoccer_s1_b2.c:1143: if (closestId != NO_VALUE && g_Players[closestId].Role == PLAYER_ROLE_GOALKEEPER) {
    0000237B DD 77 F5         [19] 6067 	ld	-11 (ix), a
    0000237E 3C               [ 4] 6068 	inc	a
    0000237F 28 3D            [12] 6069 	jr	Z, 00124$
    00002381 DD 4E F5         [19] 6070 	ld	c, -11 (ix)
    00002384 06 00            [ 7] 6071 	ld	b, #0x00
    00002386 69               [ 4] 6072 	ld	l, c
    00002387 60               [ 4] 6073 	ld	h, b
    00002388 29               [11] 6074 	add	hl, hl
    00002389 29               [11] 6075 	add	hl, hl
    0000238A 09               [11] 6076 	add	hl, bc
    0000238B 29               [11] 6077 	add	hl, hl
    0000238C 29               [11] 6078 	add	hl, hl
    0000238D 09               [11] 6079 	add	hl, bc
    0000238E DD 75 F9         [19] 6080 	ld	-7 (ix), l
    00002391 DD 74 FA         [19] 6081 	ld	-6 (ix), h
    00002394 3Er00            [ 7] 6082 	ld	a, #<(_g_Players)
    00002396 DD 86 F9         [19] 6083 	add	a, -7 (ix)
    00002399 DD 77 FB         [19] 6084 	ld	-5 (ix), a
    0000239C 3Es00            [ 7] 6085 	ld	a, #>(_g_Players)
    0000239E DD 8E FA         [19] 6086 	adc	a, -6 (ix)
    000023A1 DD 77 FC         [19] 6087 	ld	-4 (ix), a
    000023A4 DD 6E FB         [19] 6088 	ld	l, -5 (ix)
    000023A7 DD 66 FC         [19] 6089 	ld	h, -4 (ix)
    000023AA 11 0D 00         [10] 6090 	ld	de, #0x000d
    000023AD 19               [11] 6091 	add	hl, de
    000023AE 7E               [ 7] 6092 	ld	a, (hl)
    000023AF B7               [ 4] 6093 	or	a, a
    000023B0 20 0C            [12] 6094 	jr	NZ, 00124$
                                   6095 ;E:\Dropbox\FAUSTO\SVILUPPI\MSX\CODE\C\MSXgl\projects\exsoccer/exsoccer_s1_b2.c:1145: closestId = GetClosestPlayerToBall(teamId, closestId);
    000023B2 DD 6E F5         [19] 6096 	ld	l, -11 (ix)
                                   6097 ;	spillPairReg hl
                                   6098 ;	spillPairReg hl
    000023B5 DD 7E FF         [19] 6099 	ld	a, -1 (ix)
    000023B8 CDr00r00         [17] 6100 	call	_GetClosestPlayerToBall
    000023BB DD 77 F5         [19] 6101 	ld	-11 (ix), a
    000023BE                       6102 00124$:
                                   6103 ;E:\Dropbox\FAUSTO\SVILUPPI\MSX\CODE\C\MSXgl\projects\exsoccer/exsoccer_s1_b2.c:1148: if (closestId != playerId && closestId != NO_VALUE) {
    000023BE DD 7E F5         [19] 6104 	ld	a, -11 (ix)
    000023C1 DD 96 FD         [19] 6105 	sub	a, -3 (ix)
    000023C4 CAr59r25         [10] 6106 	jp	Z,00144$
    000023C7 DD 7E F5         [19] 6107 	ld	a, -11 (ix)
    000023CA 3C               [ 4] 6108 	inc	a
    000023CB CAr59r25         [10] 6109 	jp	Z,00144$
                                   6110 ;E:\Dropbox\FAUSTO\SVILUPPI\MSX\CODE\C\MSXgl\projects\exsoccer/exsoccer_s1_b2.c:1150: if (forceSwitch) {
    000023CE DD 7E F8         [19] 6111 	ld	a, -8 (ix)
    000023D1 B7               [ 4] 6112 	or	a, a
    000023D2 28 22            [12] 6113 	jr	Z, 00135$
                                   6114 ;E:\Dropbox\FAUSTO\SVILUPPI\MSX\CODE\C\MSXgl\projects\exsoccer/exsoccer_s1_b2.c:1152: if (teamId == TEAM_1) g_Team1ActivePlayer = closestId;
    000023D4 DD 7E C3         [19] 6115 	ld	a, -61 (ix)
    000023D7 B7               [ 4] 6116 	or	a, a
    000023D8 28 09            [12] 6117 	jr	Z, 00127$
    000023DA DD 7E F5         [19] 6118 	ld	a, -11 (ix)
    000023DD 32r00r00         [13] 6119 	ld	(_g_Team1ActivePlayer+0), a
    000023E0 C3rE9r23         [10] 6120 	jp	00128$
    000023E3                       6121 00127$:
                                   6122 ;E:\Dropbox\FAUSTO\SVILUPPI\MSX\CODE\C\MSXgl\projects\exsoccer/exsoccer_s1_b2.c:1153: else g_Team2ActivePlayer = closestId;
    000023E3 DD 7E F5         [19] 6123 	ld	a, -11 (ix)
    000023E6 32r00r00         [13] 6124 	ld	(_g_Team2ActivePlayer+0), a
    000023E9                       6125 00128$:
                                   6126 ;E:\Dropbox\FAUSTO\SVILUPPI\MSX\CODE\C\MSXgl\projects\exsoccer/exsoccer_s1_b2.c:1154: playerId = closestId; 
    000023E9 DD 7E F5         [19] 6127 	ld	a, -11 (ix)
    000023EC DD 77 FD         [19] 6128 	ld	-3 (ix), a
                                   6129 ;E:\Dropbox\FAUSTO\SVILUPPI\MSX\CODE\C\MSXgl\projects\exsoccer/exsoccer_s1_b2.c:1157: frameTriggerPressed = false;
    000023EF DD 36 C4 00      [19] 6130 	ld	-60 (ix), #0x00
    000023F3 C3r59r25         [10] 6131 	jp	00144$
    000023F6                       6132 00135$:
                                   6133 ;E:\Dropbox\FAUSTO\SVILUPPI\MSX\CODE\C\MSXgl\projects\exsoccer/exsoccer_s1_b2.c:1162: u8 histThreshold = (g_Ball.PossessionPlayerId == NO_VALUE) ? 10 : 30;
    000023F6 3Ar06r00         [13] 6134 	ld	a, (#(_g_Ball + 6) + 0)
    000023F9 3C               [ 4] 6135 	inc	a
    000023FA 20 0B            [12] 6136 	jr	NZ, 00265$
    000023FC DD 36 FB 0A      [19] 6137 	ld	-5 (ix), #0x0a
    00002400 DD 36 FC 00      [19] 6138 	ld	-4 (ix), #0
    00002404 C3r0Fr24         [10] 6139 	jp	00266$
    00002407                       6140 00265$:
    00002407 DD 36 FB 1E      [19] 6141 	ld	-5 (ix), #0x1e
    0000240B DD 36 FC 00      [19] 6142 	ld	-4 (ix), #0
    0000240F                       6143 00266$:
    0000240F DD 7E FB         [19] 6144 	ld	a, -5 (ix)
    00002412 DD 77 F6         [19] 6145 	ld	-10 (ix), a
                                   6146 ;E:\Dropbox\FAUSTO\SVILUPPI\MSX\CODE\C\MSXgl\projects\exsoccer/exsoccer_s1_b2.c:1165: u16 distX_Curr = (g_Players[playerId].X > g_Ball.X) ? (g_Players[playerId].X - g_Ball.X) : (g_Ball.X - g_Players[playerId].X);
    00002415 DD 4E FD         [19] 6147 	ld	c, -3 (ix)
    00002418 06 00            [ 7] 6148 	ld	b, #0x00
    0000241A 69               [ 4] 6149 	ld	l, c
    0000241B 60               [ 4] 6150 	ld	h, b
    0000241C 29               [11] 6151 	add	hl, hl
    0000241D 29               [11] 6152 	add	hl, hl
    0000241E 09               [11] 6153 	add	hl, bc
    0000241F 29               [11] 6154 	add	hl, hl
    00002420 29               [11] 6155 	add	hl, hl
    00002421 09               [11] 6156 	add	hl, bc
    00002422 DD 75 FB         [19] 6157 	ld	-5 (ix), l
    00002425 DD 74 FC         [19] 6158 	ld	-4 (ix), h
    00002428 3Er00            [ 7] 6159 	ld	a, #<(_g_Players)
    0000242A DD 86 FB         [19] 6160 	add	a, -5 (ix)
    0000242D DD 77 F7         [19] 6161 	ld	-9 (ix), a
    00002430 3Es00            [ 7] 6162 	ld	a, #>(_g_Players)
    00002432 DD 8E FC         [19] 6163 	adc	a, -4 (ix)
    00002435 DD 77 F8         [19] 6164 	ld	-8 (ix), a
    00002438 DD 7E F7         [19] 6165 	ld	a, -9 (ix)
    0000243B DD 77 FB         [19] 6166 	ld	-5 (ix), a
    0000243E DD 7E F8         [19] 6167 	ld	a, -8 (ix)
    00002441 DD 77 FC         [19] 6168 	ld	-4 (ix), a
    00002444 DD 6E FB         [19] 6169 	ld	l, -5 (ix)
    00002447 DD 66 FC         [19] 6170 	ld	h, -4 (ix)
    0000244A 23               [ 6] 6171 	inc	hl
    0000244B 23               [ 6] 6172 	inc	hl
    0000244C 7E               [ 7] 6173 	ld	a, (hl)
    0000244D DD 77 F3         [19] 6174 	ld	-13 (ix), a
    00002450 23               [ 6] 6175 	inc	hl
    00002451 7E               [ 7] 6176 	ld	a, (hl)
    00002452 DD 77 F4         [19] 6177 	ld	-12 (ix), a
    00002455 21r02r00         [10] 6178 	ld	hl, #_g_Ball + 2
    00002458 7E               [ 7] 6179 	ld	a, (hl)
    00002459 DD 77 F9         [19] 6180 	ld	-7 (ix), a
    0000245C 23               [ 6] 6181 	inc	hl
    0000245D 7E               [ 7] 6182 	ld	a, (hl)
    0000245E DD 77 FA         [19] 6183 	ld	-6 (ix), a
    00002461 DD 7E F9         [19] 6184 	ld	a, -7 (ix)
    00002464 DD 96 F3         [19] 6185 	sub	a, -13 (ix)
    00002467 DD 7E FA         [19] 6186 	ld	a, -6 (ix)
    0000246A DD 9E F4         [19] 6187 	sbc	a, -12 (ix)
    0000246D 30 15            [12] 6188 	jr	NC, 00267$
    0000246F DD 7E F3         [19] 6189 	ld	a, -13 (ix)
    00002472 DD 96 F9         [19] 6190 	sub	a, -7 (ix)
    00002475 DD 77 FB         [19] 6191 	ld	-5 (ix), a
    00002478 DD 7E F4         [19] 6192 	ld	a, -12 (ix)
    0000247B DD 9E FA         [19] 6193 	sbc	a, -6 (ix)
    0000247E DD 77 FC         [19] 6194 	ld	-4 (ix), a
    00002481 C3r96r24         [10] 6195 	jp	00268$
    00002484                       6196 00267$:
    00002484 DD 7E F9         [19] 6197 	ld	a, -7 (ix)
    00002487 DD 96 F3         [19] 6198 	sub	a, -13 (ix)
    0000248A DD 77 FB         [19] 6199 	ld	-5 (ix), a
    0000248D DD 7E FA         [19] 6200 	ld	a, -6 (ix)
    00002490 DD 9E F4         [19] 6201 	sbc	a, -12 (ix)
    00002493 DD 77 FC         [19] 6202 	ld	-4 (ix), a
    00002496                       6203 00268$:
                                   6204 ;E:\Dropbox\FAUSTO\SVILUPPI\MSX\CODE\C\MSXgl\projects\exsoccer/exsoccer_s1_b2.c:1166: u16 distY_Curr = (g_Players[playerId].Y > g_Ball.Y) ? (g_Players[playerId].Y - g_Ball.Y) : (g_Ball.Y - g_Players[playerId].Y);
    00002496 DD 6E F7         [19] 6205 	ld	l, -9 (ix)
    00002499 DD 66 F8         [19] 6206 	ld	h, -8 (ix)
    0000249C 4E               [ 7] 6207 	ld	c, (hl)
    0000249D 23               [ 6] 6208 	inc	hl
    0000249E 46               [ 7] 6209 	ld	b, (hl)
    0000249F ED 5Br00r00      [20] 6210 	ld	de, (#_g_Ball + 0)
    000024A3 7B               [ 4] 6211 	ld	a, e
    000024A4 91               [ 4] 6212 	sub	a, c
    000024A5 7A               [ 4] 6213 	ld	a, d
    000024A6 98               [ 4] 6214 	sbc	a, b
    000024A7 30 08            [12] 6215 	jr	NC, 00269$
    000024A9 79               [ 4] 6216 	ld	a, c
    000024AA 93               [ 4] 6217 	sub	a, e
    000024AB 4F               [ 4] 6218 	ld	c, a
    000024AC 78               [ 4] 6219 	ld	a, b
    000024AD 9A               [ 4] 6220 	sbc	a, d
    000024AE C3rB6r24         [10] 6221 	jp	00270$
    000024B1                       6222 00269$:
    000024B1 7B               [ 4] 6223 	ld	a, e
    000024B2 91               [ 4] 6224 	sub	a, c
    000024B3 4F               [ 4] 6225 	ld	c, a
    000024B4 7A               [ 4] 6226 	ld	a, d
    000024B5 98               [ 4] 6227 	sbc	a, b
    000024B6                       6228 00270$:
    000024B6 47               [ 4] 6229 	ld	b, a
                                   6230 ;E:\Dropbox\FAUSTO\SVILUPPI\MSX\CODE\C\MSXgl\projects\exsoccer/exsoccer_s1_b2.c:1167: u16 distCurr = distX_Curr + distY_Curr;
    000024B7 DD 6E FB         [19] 6231 	ld	l, -5 (ix)
    000024BA DD 66 FC         [19] 6232 	ld	h, -4 (ix)
    000024BD 09               [11] 6233 	add	hl, bc
    000024BE DD 75 F7         [19] 6234 	ld	-9 (ix), l
    000024C1 DD 74 F8         [19] 6235 	ld	-8 (ix), h
                                   6236 ;E:\Dropbox\FAUSTO\SVILUPPI\MSX\CODE\C\MSXgl\projects\exsoccer/exsoccer_s1_b2.c:1169: u16 distX_New = (g_Players[closestId].X > g_Ball.X) ? (g_Players[closestId].X - g_Ball.X) : (g_Ball.X - g_Players[closestId].X);
    000024C4 DD 4E F5         [19] 6237 	ld	c, -11 (ix)
    000024C7 06 00            [ 7] 6238 	ld	b, #0x00
    000024C9 69               [ 4] 6239 	ld	l, c
    000024CA 60               [ 4] 6240 	ld	h, b
    000024CB 29               [11] 6241 	add	hl, hl
    000024CC 29               [11] 6242 	add	hl, hl
    000024CD 09               [11] 6243 	add	hl, bc
    000024CE 29               [11] 6244 	add	hl, hl
    000024CF 29               [11] 6245 	add	hl, hl
    000024D0 09               [11] 6246 	add	hl, bc
    000024D1 01r00r00         [10] 6247 	ld	bc,#_g_Players
    000024D4 09               [11] 6248 	add	hl,bc
                                   6249 ;	spillPairReg hl
                                   6250 ;	spillPairReg hl
    000024D5 DD 75 FB         [19] 6251 	ld	-5 (ix), l
    000024D8 DD 74 FC         [19] 6252 	ld	-4 (ix), h
                                   6253 ;	spillPairReg hl
                                   6254 ;	spillPairReg hl
    000024DB 23               [ 6] 6255 	inc	hl
    000024DC 23               [ 6] 6256 	inc	hl
    000024DD 4E               [ 7] 6257 	ld	c, (hl)
    000024DE 23               [ 6] 6258 	inc	hl
    000024DF 46               [ 7] 6259 	ld	b, (hl)
    000024E0 DD 7E F9         [19] 6260 	ld	a, -7 (ix)
    000024E3 91               [ 4] 6261 	sub	a, c
    000024E4 DD 7E FA         [19] 6262 	ld	a, -6 (ix)
    000024E7 98               [ 4] 6263 	sbc	a, b
    000024E8 30 0C            [12] 6264 	jr	NC, 00271$
    000024EA 79               [ 4] 6265 	ld	a, c
    000024EB DD 96 F9         [19] 6266 	sub	a, -7 (ix)
    000024EE 4F               [ 4] 6267 	ld	c, a
    000024EF 78               [ 4] 6268 	ld	a, b
    000024F0 DD 9E FA         [19] 6269 	sbc	a, -6 (ix)
    000024F3 C3rFFr24         [10] 6270 	jp	00272$
    000024F6                       6271 00271$:
    000024F6 DD 7E F9         [19] 6272 	ld	a, -7 (ix)
    000024F9 91               [ 4] 6273 	sub	a, c
    000024FA 4F               [ 4] 6274 	ld	c, a
    000024FB DD 7E FA         [19] 6275 	ld	a, -6 (ix)
    000024FE 98               [ 4] 6276 	sbc	a, b
    000024FF                       6277 00272$:
    000024FF DD 71 F9         [19] 6278 	ld	-7 (ix), c
    00002502 DD 77 FA         [19] 6279 	ld	-6 (ix), a
                                   6280 ;E:\Dropbox\FAUSTO\SVILUPPI\MSX\CODE\C\MSXgl\projects\exsoccer/exsoccer_s1_b2.c:1170: u16 distY_New = (g_Players[closestId].Y > g_Ball.Y) ? (g_Players[closestId].Y - g_Ball.Y) : (g_Ball.Y - g_Players[closestId].Y);
    00002505 DD 6E FB         [19] 6281 	ld	l, -5 (ix)
    00002508 DD 66 FC         [19] 6282 	ld	h, -4 (ix)
    0000250B 4E               [ 7] 6283 	ld	c, (hl)
    0000250C 23               [ 6] 6284 	inc	hl
    0000250D 46               [ 7] 6285 	ld	b, (hl)
    0000250E 7B               [ 4] 6286 	ld	a, e
    0000250F 91               [ 4] 6287 	sub	a, c
    00002510 7A               [ 4] 6288 	ld	a, d
    00002511 98               [ 4] 6289 	sbc	a, b
    00002512 30 08            [12] 6290 	jr	NC, 00273$
    00002514 79               [ 4] 6291 	ld	a, c
    00002515 93               [ 4] 6292 	sub	a, e
    00002516 4F               [ 4] 6293 	ld	c, a
    00002517 78               [ 4] 6294 	ld	a, b
    00002518 9A               [ 4] 6295 	sbc	a, d
    00002519 C3r21r25         [10] 6296 	jp	00274$
    0000251C                       6297 00273$:
    0000251C 7B               [ 4] 6298 	ld	a, e
    0000251D 91               [ 4] 6299 	sub	a, c
    0000251E 4F               [ 4] 6300 	ld	c, a
    0000251F 7A               [ 4] 6301 	ld	a, d
    00002520 98               [ 4] 6302 	sbc	a, b
    00002521                       6303 00274$:
    00002521 47               [ 4] 6304 	ld	b, a
                                   6305 ;E:\Dropbox\FAUSTO\SVILUPPI\MSX\CODE\C\MSXgl\projects\exsoccer/exsoccer_s1_b2.c:1171: u16 distNew = distX_New + distY_New;
    00002522 DD 6E F9         [19] 6306 	ld	l, -7 (ix)
    00002525 DD 66 FA         [19] 6307 	ld	h, -6 (ix)
    00002528 09               [11] 6308 	add	hl, bc
    00002529 EB               [ 4] 6309 	ex	de, hl
                                   6310 ;E:\Dropbox\FAUSTO\SVILUPPI\MSX\CODE\C\MSXgl\projects\exsoccer/exsoccer_s1_b2.c:1173: if (distNew < (distCurr - histThreshold)) {
    0000252A DD 4E F6         [19] 6311 	ld	c, -10 (ix)
    0000252D 06 00            [ 7] 6312 	ld	b, #0x00
    0000252F DD 6E F7         [19] 6313 	ld	l, -9 (ix)
                                   6314 ;	spillPairReg hl
                                   6315 ;	spillPairReg hl
    00002532 DD 66 F8         [19] 6316 	ld	h, -8 (ix)
                                   6317 ;	spillPairReg hl
                                   6318 ;	spillPairReg hl
    00002535 BF               [ 4] 6319 	cp	a, a
    00002536 ED 42            [15] 6320 	sbc	hl, bc
    00002538 7B               [ 4] 6321 	ld	a, e
    00002539 95               [ 4] 6322 	sub	a, l
    0000253A 7A               [ 4] 6323 	ld	a, d
    0000253B 9C               [ 4] 6324 	sbc	a, h
    0000253C 30 1B            [12] 6325 	jr	NC, 00144$
                                   6326 ;E:\Dropbox\FAUSTO\SVILUPPI\MSX\CODE\C\MSXgl\projects\exsoccer/exsoccer_s1_b2.c:1174: if (teamId == TEAM_1) g_Team1ActivePlayer = closestId;
    0000253E DD 7E C3         [19] 6327 	ld	a, -61 (ix)
    00002541 B7               [ 4] 6328 	or	a, a
    00002542 28 09            [12] 6329 	jr	Z, 00130$
    00002544 DD 7E F5         [19] 6330 	ld	a, -11 (ix)
    00002547 32r00r00         [13] 6331 	ld	(_g_Team1ActivePlayer+0), a
    0000254A C3r53r25         [10] 6332 	jp	00131$
    0000254D                       6333 00130$:
                                   6334 ;E:\Dropbox\FAUSTO\SVILUPPI\MSX\CODE\C\MSXgl\projects\exsoccer/exsoccer_s1_b2.c:1175: else g_Team2ActivePlayer = closestId;
    0000254D DD 7E F5         [19] 6335 	ld	a, -11 (ix)
    00002550 32r00r00         [13] 6336 	ld	(_g_Team2ActivePlayer+0), a
    00002553                       6337 00131$:
                                   6338 ;E:\Dropbox\FAUSTO\SVILUPPI\MSX\CODE\C\MSXgl\projects\exsoccer/exsoccer_s1_b2.c:1176: playerId = closestId;
    00002553 DD 7E F5         [19] 6339 	ld	a, -11 (ix)
    00002556 DD 77 FD         [19] 6340 	ld	-3 (ix), a
    00002559                       6341 00144$:
                                   6342 ;E:\Dropbox\FAUSTO\SVILUPPI\MSX\CODE\C\MSXgl\projects\exsoccer/exsoccer_s1_b2.c:1183: if (g_Players[playerId].Status == PLAYER_STATUS_POSITIONED) return;
    00002559 01r00r00         [10] 6343 	ld	bc, #_g_Players+0
    0000255C DD 5E FD         [19] 6344 	ld	e, -3 (ix)
    0000255F 16 00            [ 7] 6345 	ld	d, #0x00
    00002561 6B               [ 4] 6346 	ld	l, e
    00002562 62               [ 4] 6347 	ld	h, d
    00002563 29               [11] 6348 	add	hl, hl
    00002564 29               [11] 6349 	add	hl, hl
    00002565 19               [11] 6350 	add	hl, de
    00002566 29               [11] 6351 	add	hl, hl
    00002567 29               [11] 6352 	add	hl, hl
    00002568 19               [11] 6353 	add	hl, de
    00002569 09               [11] 6354 	add	hl, bc
    0000256A DD 75 F1         [19] 6355 	ld	-15 (ix), l
    0000256D DD 74 F2         [19] 6356 	ld	-14 (ix), h
    00002570 DD 7E F1         [19] 6357 	ld	a, -15 (ix)
    00002573 C6 12            [ 7] 6358 	add	a, #0x12
    00002575 DD 77 F3         [19] 6359 	ld	-13 (ix), a
    00002578 DD 7E F2         [19] 6360 	ld	a, -14 (ix)
    0000257B CE 00            [ 7] 6361 	adc	a, #0x00
    0000257D DD 77 F4         [19] 6362 	ld	-12 (ix), a
    00002580 DD 6E F3         [19] 6363 	ld	l, -13 (ix)
    00002583 DD 66 F4         [19] 6364 	ld	h, -12 (ix)
    00002586 4E               [ 7] 6365 	ld	c, (hl)
    00002587 23               [ 6] 6366 	inc	hl
    00002588 46               [ 7] 6367 	ld	b, (hl)
    00002589 79               [ 4] 6368 	ld	a, c
    0000258A D6 04            [ 7] 6369 	sub	a, #0x04
    0000258C B0               [ 4] 6370 	or	a, b
    0000258D CAr36r30         [10] 6371 	jp	Z,00263$
    00002590 C3r93r25         [10] 6372 	jp	00146$
    00002593                       6373 00146$:
                                   6374 ;E:\Dropbox\FAUSTO\SVILUPPI\MSX\CODE\C\MSXgl\projects\exsoccer/exsoccer_s1_b2.c:1190: if (g_ActionCooldown > 0) frameTriggerPressed = false;
    00002593 3Ar00r00         [13] 6375 	ld	a, (_g_ActionCooldown+0)
    00002596 B7               [ 4] 6376 	or	a, a
    00002597 28 04            [12] 6377 	jr	Z, 00148$
    00002599 DD 36 C4 00      [19] 6378 	ld	-60 (ix), #0x00
    0000259D                       6379 00148$:
                                   6380 ;E:\Dropbox\FAUSTO\SVILUPPI\MSX\CODE\C\MSXgl\projects\exsoccer/exsoccer_s1_b2.c:1193: if (frameTriggerPressed && g_Ball.PossessionPlayerId == NO_VALUE) {
    0000259D DD 7E C4         [19] 6381 	ld	a, -60 (ix)
    000025A0 B7               [ 4] 6382 	or	a, a
    000025A1 CAr67r26         [10] 6383 	jp	Z, 00155$
    000025A4 3Ar06r00         [13] 6384 	ld	a, (#(_g_Ball + 6) + 0)
    000025A7 3C               [ 4] 6385 	inc	a
    000025A8 C2r67r26         [10] 6386 	jp	NZ,00155$
                                   6387 ;E:\Dropbox\FAUSTO\SVILUPPI\MSX\CODE\C\MSXgl\projects\exsoccer/exsoccer_s1_b2.c:1194: i16 dx = (i16)g_Players[playerId].X - (i16)g_Ball.X;
    000025AB DD 7E F1         [19] 6388 	ld	a, -15 (ix)
    000025AE DD 77 FB         [19] 6389 	ld	-5 (ix), a
    000025B1 DD 7E F2         [19] 6390 	ld	a, -14 (ix)
    000025B4 DD 77 FC         [19] 6391 	ld	-4 (ix), a
    000025B7 DD 6E FB         [19] 6392 	ld	l, -5 (ix)
    000025BA DD 66 FC         [19] 6393 	ld	h, -4 (ix)
    000025BD 23               [ 6] 6394 	inc	hl
    000025BE 23               [ 6] 6395 	inc	hl
    000025BF 7E               [ 7] 6396 	ld	a, (hl)
    000025C0 DD 77 FB         [19] 6397 	ld	-5 (ix), a
    000025C3 23               [ 6] 6398 	inc	hl
    000025C4 7E               [ 7] 6399 	ld	a, (hl)
    000025C5 DD 77 FC         [19] 6400 	ld	-4 (ix), a
    000025C8 2Ar02r00         [16] 6401 	ld	hl, (#_g_Ball + 2)
    000025CB DD 7E FB         [19] 6402 	ld	a, -5 (ix)
    000025CE 95               [ 4] 6403 	sub	a, l
    000025CF 4F               [ 4] 6404 	ld	c, a
    000025D0 DD 7E FC         [19] 6405 	ld	a, -4 (ix)
    000025D3 9C               [ 4] 6406 	sbc	a, h
    000025D4 47               [ 4] 6407 	ld	b, a
    000025D5 DD 71 F5         [19] 6408 	ld	-11 (ix), c
    000025D8 DD 70 F6         [19] 6409 	ld	-10 (ix), b
                                   6410 ;E:\Dropbox\FAUSTO\SVILUPPI\MSX\CODE\C\MSXgl\projects\exsoccer/exsoccer_s1_b2.c:1195: i16 dy = (i16)g_Players[playerId].Y - (i16)g_Ball.Y;
    000025DB DD 6E F1         [19] 6411 	ld	l, -15 (ix)
    000025DE DD 66 F2         [19] 6412 	ld	h, -14 (ix)
    000025E1 7E               [ 7] 6413 	ld	a, (hl)
    000025E2 DD 77 FB         [19] 6414 	ld	-5 (ix), a
    000025E5 23               [ 6] 6415 	inc	hl
    000025E6 7E               [ 7] 6416 	ld	a, (hl)
    000025E7 DD 77 FC         [19] 6417 	ld	-4 (ix), a
    000025EA DD 7E FB         [19] 6418 	ld	a, -5 (ix)
    000025ED DD 77 F7         [19] 6419 	ld	-9 (ix), a
    000025F0 DD 7E FC         [19] 6420 	ld	a, -4 (ix)
    000025F3 DD 77 F8         [19] 6421 	ld	-8 (ix), a
    000025F6 21r00r00         [10] 6422 	ld	hl, #_g_Ball
    000025F9 7E               [ 7] 6423 	ld	a, (hl)
    000025FA DD 77 FB         [19] 6424 	ld	-5 (ix), a
    000025FD 23               [ 6] 6425 	inc	hl
    000025FE 7E               [ 7] 6426 	ld	a, (hl)
    000025FF DD 77 FC         [19] 6427 	ld	-4 (ix), a
    00002602 DD 7E FB         [19] 6428 	ld	a, -5 (ix)
    00002605 DD 77 F9         [19] 6429 	ld	-7 (ix), a
    00002608 DD 7E FC         [19] 6430 	ld	a, -4 (ix)
    0000260B DD 77 FA         [19] 6431 	ld	-6 (ix), a
    0000260E DD 7E F7         [19] 6432 	ld	a, -9 (ix)
    00002611 DD 96 F9         [19] 6433 	sub	a, -7 (ix)
    00002614 DD 77 FB         [19] 6434 	ld	-5 (ix), a
    00002617 DD 7E F8         [19] 6435 	ld	a, -8 (ix)
    0000261A DD 9E FA         [19] 6436 	sbc	a, -6 (ix)
    0000261D DD 77 FC         [19] 6437 	ld	-4 (ix), a
    00002620 DD 4E FB         [19] 6438 	ld	c, -5 (ix)
    00002623 DD 46 FC         [19] 6439 	ld	b, -4 (ix)
                                   6440 ;E:\Dropbox\FAUSTO\SVILUPPI\MSX\CODE\C\MSXgl\projects\exsoccer/exsoccer_s1_b2.c:1196: if (dx > -16 && dx < 16 && dy > -16 && dy < 16) {
    00002626 3E F0            [ 7] 6441 	ld	a, #0xf0
    00002628 DD BE F5         [19] 6442 	cp	a, -11 (ix)
    0000262B 3E FF            [ 7] 6443 	ld	a, #0xff
    0000262D DD 9E F6         [19] 6444 	sbc	a, -10 (ix)
    00002630 E2r35r26         [10] 6445 	jp	PO, 00756$
    00002633 EE 80            [ 7] 6446 	xor	a, #0x80
    00002635                       6447 00756$:
    00002635 F2r67r26         [10] 6448 	jp	P, 00155$
    00002638 DD 7E F5         [19] 6449 	ld	a, -11 (ix)
    0000263B DD 56 F6         [19] 6450 	ld	d, -10 (ix)
    0000263E D6 10            [ 7] 6451 	sub	a, #0x10
    00002640 7A               [ 4] 6452 	ld	a, d
    00002641 17               [ 4] 6453 	rla
    00002642 3F               [ 4] 6454 	ccf
    00002643 1F               [ 4] 6455 	rra
    00002644 DE 80            [ 7] 6456 	sbc	a, #0x80
    00002646 30 1F            [12] 6457 	jr	NC, 00155$
    00002648 3E F0            [ 7] 6458 	ld	a, #0xf0
    0000264A B9               [ 4] 6459 	cp	a, c
    0000264B 3E FF            [ 7] 6460 	ld	a, #0xff
    0000264D 98               [ 4] 6461 	sbc	a, b
    0000264E E2r53r26         [10] 6462 	jp	PO, 00757$
    00002651 EE 80            [ 7] 6463 	xor	a, #0x80
    00002653                       6464 00757$:
    00002653 F2r67r26         [10] 6465 	jp	P, 00155$
    00002656 79               [ 4] 6466 	ld	a, c
    00002657 D6 10            [ 7] 6467 	sub	a, #0x10
    00002659 78               [ 4] 6468 	ld	a, b
    0000265A 17               [ 4] 6469 	rla
    0000265B 3F               [ 4] 6470 	ccf
    0000265C 1F               [ 4] 6471 	rra
    0000265D DE 80            [ 7] 6472 	sbc	a, #0x80
    0000265F 30 06            [12] 6473 	jr	NC, 00155$
                                   6474 ;E:\Dropbox\FAUSTO\SVILUPPI\MSX\CODE\C\MSXgl\projects\exsoccer/exsoccer_s1_b2.c:1197: PutBallOnPlayerFeet(playerId);
    00002661 DD 7E FD         [19] 6475 	ld	a, -3 (ix)
    00002664 CDr00r00         [17] 6476 	call	_PutBallOnPlayerFeet
    00002667                       6477 00155$:
                                   6478 ;E:\Dropbox\FAUSTO\SVILUPPI\MSX\CODE\C\MSXgl\projects\exsoccer/exsoccer_s1_b2.c:1201: if(g_Ball.PossessionPlayerId==playerId){
    00002667 21r06r00         [10] 6479 	ld	hl, #(_g_Ball + 6)
    0000266A DD 7E FD         [19] 6480 	ld	a,-3 (ix)
    0000266D 96               [ 7] 6481 	sub	a,(hl)
    0000266E C2r42r2E         [10] 6482 	jp	NZ,00261$
                                   6483 ;E:\Dropbox\FAUSTO\SVILUPPI\MSX\CODE\C\MSXgl\projects\exsoccer/exsoccer_s1_b2.c:1206: if (frameTriggerPressed) {
    00002671 DD 7E C4         [19] 6484 	ld	a, -60 (ix)
    00002674 B7               [ 4] 6485 	or	a, a
    00002675 CArDEr27         [10] 6486 	jp	Z, 00202$
                                   6487 ;E:\Dropbox\FAUSTO\SVILUPPI\MSX\CODE\C\MSXgl\projects\exsoccer/exsoccer_s1_b2.c:1210: if (g_MatchStatus == MATCH_IN_ACTION) {
    00002678 3Ar00r00         [13] 6488 	ld	a, (_g_MatchStatus+0)
    0000267B D6 0C            [ 7] 6489 	sub	a, #0x0c
    0000267D C2rB5r27         [10] 6490 	jp	NZ,00196$
                                   6491 ;E:\Dropbox\FAUSTO\SVILUPPI\MSX\CODE\C\MSXgl\projects\exsoccer/exsoccer_s1_b2.c:1212: if (g_ActionCooldown > 0) {
    00002680 3Ar00r00         [13] 6492 	ld	a, (_g_ActionCooldown+0)
    00002683 B7               [ 4] 6493 	or	a, a
    00002684 C2rB5r27         [10] 6494 	jp	NZ, 00196$
                                   6495 ;E:\Dropbox\FAUSTO\SVILUPPI\MSX\CODE\C\MSXgl\projects\exsoccer/exsoccer_s1_b2.c:1215: bool isShooting = false;
    00002687 DD 36 F6 00      [19] 6496 	ld	-10 (ix), #0x00
                                   6497 ;E:\Dropbox\FAUSTO\SVILUPPI\MSX\CODE\C\MSXgl\projects\exsoccer/exsoccer_s1_b2.c:1222: u16 plY = g_Players[playerId].Y;
    0000268B DD 6E F1         [19] 6498 	ld	l, -15 (ix)
    0000268E DD 66 F2         [19] 6499 	ld	h, -14 (ix)
    00002691 7E               [ 7] 6500 	ld	a, (hl)
    00002692 DD 77 F7         [19] 6501 	ld	-9 (ix), a
    00002695 23               [ 6] 6502 	inc	hl
    00002696 7E               [ 7] 6503 	ld	a, (hl)
    00002697 DD 77 F8         [19] 6504 	ld	-8 (ix), a
                                   6505 ;E:\Dropbox\FAUSTO\SVILUPPI\MSX\CODE\C\MSXgl\projects\exsoccer/exsoccer_s1_b2.c:1223: u16 plX = g_Players[playerId].X;
    0000269A DD 7E F1         [19] 6506 	ld	a, -15 (ix)
    0000269D DD 77 FB         [19] 6507 	ld	-5 (ix), a
    000026A0 DD 7E F2         [19] 6508 	ld	a, -14 (ix)
    000026A3 DD 77 FC         [19] 6509 	ld	-4 (ix), a
    000026A6 DD 6E FB         [19] 6510 	ld	l, -5 (ix)
    000026A9 DD 66 FC         [19] 6511 	ld	h, -4 (ix)
    000026AC 23               [ 6] 6512 	inc	hl
    000026AD 23               [ 6] 6513 	inc	hl
    000026AE 7E               [ 7] 6514 	ld	a, (hl)
    000026AF DD 77 F9         [19] 6515 	ld	-7 (ix), a
    000026B2 23               [ 6] 6516 	inc	hl
    000026B3 7E               [ 7] 6517 	ld	a, (hl)
    000026B4 DD 77 FA         [19] 6518 	ld	-6 (ix), a
                                   6519 ;E:\Dropbox\FAUSTO\SVILUPPI\MSX\CODE\C\MSXgl\projects\exsoccer/exsoccer_s1_b2.c:1227: if (plY >= FIELD_BOUND_Y_TOP && plY <= (FIELD_BOUND_Y_TOP + 120)) { 
    000026B7 DD 7E F7         [19] 6520 	ld	a, -9 (ix)
    000026BA DD 77 FB         [19] 6521 	ld	-5 (ix), a
    000026BD DD 7E F8         [19] 6522 	ld	a, -8 (ix)
    000026C0 DD 77 FC         [19] 6523 	ld	-4 (ix), a
                                   6524 ;E:\Dropbox\FAUSTO\SVILUPPI\MSX\CODE\C\MSXgl\projects\exsoccer/exsoccer_s1_b2.c:1225: if (teamId == TEAM_1) { // Attacking UP (Towards Top)
    000026C3 DD 7E C3         [19] 6525 	ld	a, -61 (ix)
    000026C6 B7               [ 4] 6526 	or	a, a
    000026C7 28 71            [12] 6527 	jr	Z, 00186$
                                   6528 ;E:\Dropbox\FAUSTO\SVILUPPI\MSX\CODE\C\MSXgl\projects\exsoccer/exsoccer_s1_b2.c:1227: if (plY >= FIELD_BOUND_Y_TOP && plY <= (FIELD_BOUND_Y_TOP + 120)) { 
    000026C9 DD 7E FB         [19] 6529 	ld	a, -5 (ix)
    000026CC D6 32            [ 7] 6530 	sub	a, #0x32
    000026CE DD 7E FC         [19] 6531 	ld	a, -4 (ix)
    000026D1 DE 00            [ 7] 6532 	sbc	a, #0x00
    000026D3 DArA0r27         [10] 6533 	jp	C, 00187$
    000026D6 3E AA            [ 7] 6534 	ld	a, #0xaa
    000026D8 DD BE F7         [19] 6535 	cp	a, -9 (ix)
    000026DB 3E 00            [ 7] 6536 	ld	a, #0x00
    000026DD DD 9E F8         [19] 6537 	sbc	a, -8 (ix)
    000026E0 DArA0r27         [10] 6538 	jp	C, 00187$
                                   6539 ;E:\Dropbox\FAUSTO\SVILUPPI\MSX\CODE\C\MSXgl\projects\exsoccer/exsoccer_s1_b2.c:1228: if (checkDir == DIRECTION_UP || checkDir == DIRECTION_UP_LEFT || checkDir == DIRECTION_UP_RIGHT) {
    000026E3 DD 7E FE         [19] 6540 	ld	a, -2 (ix)
    000026E6 3D               [ 4] 6541 	dec	a
    000026E7 28 0F            [12] 6542 	jr	Z, 00164$
    000026E9 DD 7E FE         [19] 6543 	ld	a, -2 (ix)
    000026EC D6 08            [ 7] 6544 	sub	a, #0x08
    000026EE 28 08            [12] 6545 	jr	Z, 00164$
    000026F0 DD 7E FE         [19] 6546 	ld	a, -2 (ix)
    000026F3 D6 02            [ 7] 6547 	sub	a, #0x02
    000026F5 C2rA0r27         [10] 6548 	jp	NZ,00187$
    000026F8                       6549 00164$:
                                   6550 ;E:\Dropbox\FAUSTO\SVILUPPI\MSX\CODE\C\MSXgl\projects\exsoccer/exsoccer_s1_b2.c:1231: bool allowed = true;
    000026F8 DD 36 FC 01      [19] 6551 	ld	-4 (ix), #0x01
                                   6552 ;E:\Dropbox\FAUSTO\SVILUPPI\MSX\CODE\C\MSXgl\projects\exsoccer/exsoccer_s1_b2.c:1232: if (plY < (FIELD_BOUND_Y_TOP + 20)) {
    000026FC DD 7E F7         [19] 6553 	ld	a, -9 (ix)
    000026FF D6 46            [ 7] 6554 	sub	a, #0x46
    00002701 DD 7E F8         [19] 6555 	ld	a, -8 (ix)
    00002704 DE 00            [ 7] 6556 	sbc	a, #0x00
    00002706 30 1C            [12] 6557 	jr	NC, 00161$
                                   6558 ;E:\Dropbox\FAUSTO\SVILUPPI\MSX\CODE\C\MSXgl\projects\exsoccer/exsoccer_s1_b2.c:1233: if (plX < (GOAL_X_MIN - 5) || plX > (GOAL_X_MAX + 5)) allowed = false;
    00002708 DD 7E F9         [19] 6559 	ld	a, -7 (ix)
    0000270B D6 5B            [ 7] 6560 	sub	a, #0x5b
    0000270D DD 7E FA         [19] 6561 	ld	a, -6 (ix)
    00002710 DE 00            [ 7] 6562 	sbc	a, #0x00
    00002712 38 0C            [12] 6563 	jr	C, 00157$
    00002714 3E 95            [ 7] 6564 	ld	a, #0x95
    00002716 DD BE F9         [19] 6565 	cp	a, -7 (ix)
    00002719 3E 00            [ 7] 6566 	ld	a, #0x00
    0000271B DD 9E FA         [19] 6567 	sbc	a, -6 (ix)
    0000271E 30 04            [12] 6568 	jr	NC, 00161$
    00002720                       6569 00157$:
    00002720 DD 36 FC 00      [19] 6570 	ld	-4 (ix), #0x00
    00002724                       6571 00161$:
                                   6572 ;E:\Dropbox\FAUSTO\SVILUPPI\MSX\CODE\C\MSXgl\projects\exsoccer/exsoccer_s1_b2.c:1236: if (allowed) {
    00002724 DD 7E FC         [19] 6573 	ld	a, -4 (ix)
    00002727 B7               [ 4] 6574 	or	a, a
    00002728 28 76            [12] 6575 	jr	Z, 00187$
                                   6576 ;E:\Dropbox\FAUSTO\SVILUPPI\MSX\CODE\C\MSXgl\projects\exsoccer/exsoccer_s1_b2.c:1237: isShooting = true;
    0000272A DD 36 F6 01      [19] 6577 	ld	-10 (ix), #0x01
                                   6578 ;E:\Dropbox\FAUSTO\SVILUPPI\MSX\CODE\C\MSXgl\projects\exsoccer/exsoccer_s1_b2.c:1238: PerformShot(g_ShotCursorX, FIELD_BOUND_Y_TOP - 40);
    0000272E 11 0A 00         [10] 6579 	ld	de, #0x000a
    00002731 2Ar00r00         [16] 6580 	ld	hl, (_g_ShotCursorX)
    00002734 CDr00r00         [17] 6581 	call	_PerformShot
    00002737 C3rA0r27         [10] 6582 	jp	00187$
    0000273A                       6583 00186$:
                                   6584 ;E:\Dropbox\FAUSTO\SVILUPPI\MSX\CODE\C\MSXgl\projects\exsoccer/exsoccer_s1_b2.c:1244: if (plY <= FIELD_BOUND_Y_BOTTOM && plY >= (FIELD_BOUND_Y_BOTTOM - 120)) { 
    0000273A 3E AE            [ 7] 6585 	ld	a, #0xae
    0000273C DD BE FB         [19] 6586 	cp	a, -5 (ix)
    0000273F 3E 01            [ 7] 6587 	ld	a, #0x01
    00002741 DD 9E FC         [19] 6588 	sbc	a, -4 (ix)
    00002744 38 5A            [12] 6589 	jr	C, 00187$
    00002746 DD 7E FB         [19] 6590 	ld	a, -5 (ix)
    00002749 D6 36            [ 7] 6591 	sub	a, #0x36
    0000274B DD 7E FC         [19] 6592 	ld	a, -4 (ix)
    0000274E DE 01            [ 7] 6593 	sbc	a, #0x01
    00002750 38 4E            [12] 6594 	jr	C, 00187$
                                   6595 ;E:\Dropbox\FAUSTO\SVILUPPI\MSX\CODE\C\MSXgl\projects\exsoccer/exsoccer_s1_b2.c:1245: if (checkDir == DIRECTION_DOWN || checkDir == DIRECTION_DOWN_LEFT || checkDir == DIRECTION_DOWN_RIGHT) {
    00002752 DD 7E FE         [19] 6596 	ld	a, -2 (ix)
    00002755 D6 05            [ 7] 6597 	sub	a, #0x05
    00002757 28 0E            [12] 6598 	jr	Z, 00178$
    00002759 DD 7E FE         [19] 6599 	ld	a, -2 (ix)
    0000275C D6 06            [ 7] 6600 	sub	a, #0x06
    0000275E 28 07            [12] 6601 	jr	Z, 00178$
    00002760 DD 7E FE         [19] 6602 	ld	a, -2 (ix)
    00002763 D6 04            [ 7] 6603 	sub	a, #0x04
    00002765 20 39            [12] 6604 	jr	NZ, 00187$
    00002767                       6605 00178$:
                                   6606 ;E:\Dropbox\FAUSTO\SVILUPPI\MSX\CODE\C\MSXgl\projects\exsoccer/exsoccer_s1_b2.c:1248: bool allowed = true;
    00002767 1E 01            [ 7] 6607 	ld	e, #0x01
                                   6608 ;E:\Dropbox\FAUSTO\SVILUPPI\MSX\CODE\C\MSXgl\projects\exsoccer/exsoccer_s1_b2.c:1249: if (plY > (FIELD_BOUND_Y_BOTTOM - 20)) {
    00002769 3E 9A            [ 7] 6609 	ld	a, #0x9a
    0000276B DD BE FB         [19] 6610 	cp	a, -5 (ix)
    0000276E 3E 01            [ 7] 6611 	ld	a, #0x01
    00002770 DD 9E FC         [19] 6612 	sbc	a, -4 (ix)
    00002773 30 1A            [12] 6613 	jr	NC, 00175$
                                   6614 ;E:\Dropbox\FAUSTO\SVILUPPI\MSX\CODE\C\MSXgl\projects\exsoccer/exsoccer_s1_b2.c:1250: if (plX < (GOAL_X_MIN - 5) || plX > (GOAL_X_MAX + 5)) allowed = false;
    00002775 DD 7E F9         [19] 6615 	ld	a, -7 (ix)
    00002778 D6 5B            [ 7] 6616 	sub	a, #0x5b
    0000277A DD 7E FA         [19] 6617 	ld	a, -6 (ix)
    0000277D DE 00            [ 7] 6618 	sbc	a, #0x00
    0000277F 38 0C            [12] 6619 	jr	C, 00171$
    00002781 3E 95            [ 7] 6620 	ld	a, #0x95
    00002783 DD BE F9         [19] 6621 	cp	a, -7 (ix)
    00002786 3E 00            [ 7] 6622 	ld	a, #0x00
    00002788 DD 9E FA         [19] 6623 	sbc	a, -6 (ix)
    0000278B 30 02            [12] 6624 	jr	NC, 00175$
    0000278D                       6625 00171$:
    0000278D 1E 00            [ 7] 6626 	ld	e, #0x00
    0000278F                       6627 00175$:
                                   6628 ;E:\Dropbox\FAUSTO\SVILUPPI\MSX\CODE\C\MSXgl\projects\exsoccer/exsoccer_s1_b2.c:1253: if (allowed) {
    0000278F 7B               [ 4] 6629 	ld	a, e
    00002790 B7               [ 4] 6630 	or	a, a
    00002791 28 0D            [12] 6631 	jr	Z, 00187$
                                   6632 ;E:\Dropbox\FAUSTO\SVILUPPI\MSX\CODE\C\MSXgl\projects\exsoccer/exsoccer_s1_b2.c:1254: isShooting = true;
    00002793 DD 36 F6 01      [19] 6633 	ld	-10 (ix), #0x01
                                   6634 ;E:\Dropbox\FAUSTO\SVILUPPI\MSX\CODE\C\MSXgl\projects\exsoccer/exsoccer_s1_b2.c:1255: PerformShot(g_ShotCursorX, FIELD_BOUND_Y_BOTTOM + 40);
    00002797 11 D6 01         [10] 6635 	ld	de, #0x01d6
    0000279A 2Ar00r00         [16] 6636 	ld	hl, (_g_ShotCursorX)
    0000279D CDr00r00         [17] 6637 	call	_PerformShot
    000027A0                       6638 00187$:
                                   6639 ;E:\Dropbox\FAUSTO\SVILUPPI\MSX\CODE\C\MSXgl\projects\exsoccer/exsoccer_s1_b2.c:1261: if (isShooting) {
    000027A0 DD 7E F6         [19] 6640 	ld	a, -10 (ix)
    000027A3 B7               [ 4] 6641 	or	a, a
    000027A4 28 0F            [12] 6642 	jr	Z, 00196$
                                   6643 ;E:\Dropbox\FAUSTO\SVILUPPI\MSX\CODE\C\MSXgl\projects\exsoccer/exsoccer_s1_b2.c:1262: if (g_ShootCooldown > 0) return; // Prevent shooting if cooldown active
    000027A6 3Ar00r00         [13] 6644 	ld	a, (_g_ShootCooldown+0)
    000027A9 B7               [ 4] 6645 	or	a, a
    000027AA C2r36r30         [10] 6646 	jp	NZ,00263$
                                   6647 ;E:\Dropbox\FAUSTO\SVILUPPI\MSX\CODE\C\MSXgl\projects\exsoccer/exsoccer_s1_b2.c:1263: g_ActionCooldown = 20;
    000027AD 21r00r00         [10] 6648 	ld	hl, #_g_ActionCooldown
    000027B0 36 14            [10] 6649 	ld	(hl), #0x14
                                   6650 ;E:\Dropbox\FAUSTO\SVILUPPI\MSX\CODE\C\MSXgl\projects\exsoccer/exsoccer_s1_b2.c:1264: return;
    000027B2 C3r36r30         [10] 6651 	jp	00263$
    000027B5                       6652 00196$:
                                   6653 ;E:\Dropbox\FAUSTO\SVILUPPI\MSX\CODE\C\MSXgl\projects\exsoccer/exsoccer_s1_b2.c:1274: if(direction != DIRECTION_NONE){
    000027B5 DD 7E FE         [19] 6654 	ld	a, -2 (ix)
    000027B8 B7               [ 4] 6655 	or	a, a
    000027B9 28 0E            [12] 6656 	jr	Z, 00198$
                                   6657 ;E:\Dropbox\FAUSTO\SVILUPPI\MSX\CODE\C\MSXgl\projects\exsoccer/exsoccer_s1_b2.c:1275: g_Players[playerId].Direction = direction;
    000027BB DD 6E F1         [19] 6658 	ld	l, -15 (ix)
    000027BE DD 66 F2         [19] 6659 	ld	h, -14 (ix)
    000027C1 11 0A 00         [10] 6660 	ld	de, #0x000a
    000027C4 19               [11] 6661 	add	hl, de
    000027C5 DD 7E FE         [19] 6662 	ld	a, -2 (ix)
    000027C8 77               [ 7] 6663 	ld	(hl), a
    000027C9                       6664 00198$:
                                   6665 ;E:\Dropbox\FAUSTO\SVILUPPI\MSX\CODE\C\MSXgl\projects\exsoccer/exsoccer_s1_b2.c:1279: g_PassTargetPlayer = GetBestPassTarget(playerId);
    000027C9 DD 7E FD         [19] 6666 	ld	a, -3 (ix)
    000027CC CDrCDr06         [17] 6667 	call	_GetBestPassTarget
                                   6668 ;E:\Dropbox\FAUSTO\SVILUPPI\MSX\CODE\C\MSXgl\projects\exsoccer/exsoccer_s1_b2.c:1281: if (g_PassTargetPlayer != NO_VALUE) {
    000027CF 32r00r00         [13] 6669 	ld	(_g_PassTargetPlayer+0), a
    000027D2 3C               [ 4] 6670 	inc	a
    000027D3 28 09            [12] 6671 	jr	Z, 00202$
                                   6672 ;E:\Dropbox\FAUSTO\SVILUPPI\MSX\CODE\C\MSXgl\projects\exsoccer/exsoccer_s1_b2.c:1283: PerformPass(g_PassTargetPlayer);
    000027D5 3Ar00r00         [13] 6673 	ld	a, (_g_PassTargetPlayer+0)
    000027D8 CDr00r00         [17] 6674 	call	_PerformPass
                                   6675 ;E:\Dropbox\FAUSTO\SVILUPPI\MSX\CODE\C\MSXgl\projects\exsoccer/exsoccer_s1_b2.c:1286: return; 
    000027DB C3r36r30         [10] 6676 	jp	00263$
    000027DE                       6677 00202$:
                                   6678 ;E:\Dropbox\FAUSTO\SVILUPPI\MSX\CODE\C\MSXgl\projects\exsoccer/exsoccer_s1_b2.c:1290: if((g_FrameCounter % 3)!=0){ 
    000027DE 2Ar00r00         [16] 6679 	ld	hl, (_g_FrameCounter)
    000027E1 11 03 00         [10] 6680 	ld	de, #0x0003
    000027E4 CDr00r00         [17] 6681 	call	__moduint
    000027E7 7A               [ 4] 6682 	ld	a, d
    000027E8 B3               [ 4] 6683 	or	a, e
                                   6684 ;E:\Dropbox\FAUSTO\SVILUPPI\MSX\CODE\C\MSXgl\projects\exsoccer/exsoccer_s1_b2.c:1291: return;
    000027E9 C2r36r30         [10] 6685 	jp	NZ,00263$
                                   6686 ;E:\Dropbox\FAUSTO\SVILUPPI\MSX\CODE\C\MSXgl\projects\exsoccer/exsoccer_s1_b2.c:1294: if(g_Ball.KickMoveState==NO_VALUE){
    000027EC 01r0Dr00         [10] 6687 	ld	bc, #_g_Ball + 13
    000027EF 0A               [ 7] 6688 	ld	a, (bc)
                                   6689 ;E:\Dropbox\FAUSTO\SVILUPPI\MSX\CODE\C\MSXgl\projects\exsoccer/exsoccer_s1_b2.c:1295: g_Ball.KickMoveState=0;
    000027F0 3C               [ 4] 6690 	inc	a
    000027F1 20 01            [12] 6691 	jr	NZ, 00206$
    000027F3 02               [ 7] 6692 	ld	(bc), a
    000027F4                       6693 00206$:
                                   6694 ;E:\Dropbox\FAUSTO\SVILUPPI\MSX\CODE\C\MSXgl\projects\exsoccer/exsoccer_s1_b2.c:1298: u8 moveDir = direction;
    000027F4 DD 7E FE         [19] 6695 	ld	a, -2 (ix)
    000027F7 DD 77 F5         [19] 6696 	ld	-11 (ix), a
                                   6697 ;E:\Dropbox\FAUSTO\SVILUPPI\MSX\CODE\C\MSXgl\projects\exsoccer/exsoccer_s1_b2.c:1299: if(g_Ball.KickMoveState != 0){
    000027FA 0A               [ 7] 6698 	ld	a, (bc)
    000027FB B7               [ 4] 6699 	or	a, a
    000027FC 28 0E            [12] 6700 	jr	Z, 00208$
                                   6701 ;E:\Dropbox\FAUSTO\SVILUPPI\MSX\CODE\C\MSXgl\projects\exsoccer/exsoccer_s1_b2.c:1300: moveDir = g_Players[playerId].Direction;
    000027FE DD 5E F1         [19] 6702 	ld	e, -15 (ix)
    00002801 DD 56 F2         [19] 6703 	ld	d, -14 (ix)
    00002804 21 0A 00         [10] 6704 	ld	hl, #10
    00002807 19               [11] 6705 	add	hl, de
    00002808 7E               [ 7] 6706 	ld	a, (hl)
    00002809 DD 77 F5         [19] 6707 	ld	-11 (ix), a
    0000280C                       6708 00208$:
                                   6709 ;E:\Dropbox\FAUSTO\SVILUPPI\MSX\CODE\C\MSXgl\projects\exsoccer/exsoccer_s1_b2.c:1306: if(g_Players[playerId].PreviousDirection!=DIRECTION_NONE){
    0000280C DD 7E F1         [19] 6710 	ld	a, -15 (ix)
    0000280F C6 0B            [ 7] 6711 	add	a, #0x0b
    00002811 DD 77 F6         [19] 6712 	ld	-10 (ix), a
    00002814 DD 7E F2         [19] 6713 	ld	a, -14 (ix)
    00002817 CE 00            [ 7] 6714 	adc	a, #0x00
    00002819 DD 77 F7         [19] 6715 	ld	-9 (ix), a
                                   6716 ;E:\Dropbox\FAUSTO\SVILUPPI\MSX\CODE\C\MSXgl\projects\exsoccer/exsoccer_s1_b2.c:1303: if(moveDir==DIRECTION_NONE){
    0000281C DD 7E F5         [19] 6717 	ld	a, -11 (ix)
    0000281F B7               [ 4] 6718 	or	a, a
    00002820 20 38            [12] 6719 	jr	NZ, 00225$
                                   6720 ;E:\Dropbox\FAUSTO\SVILUPPI\MSX\CODE\C\MSXgl\projects\exsoccer/exsoccer_s1_b2.c:1304: g_Players[playerId].Status=PLAYER_STATUS_POSITIONED;
    00002822 DD 6E F3         [19] 6721 	ld	l, -13 (ix)
    00002825 DD 66 F4         [19] 6722 	ld	h, -12 (ix)
    00002828 36 04            [10] 6723 	ld	(hl), #0x04
    0000282A 23               [ 6] 6724 	inc	hl
    0000282B 36 00            [10] 6725 	ld	(hl), #0x00
                                   6726 ;E:\Dropbox\FAUSTO\SVILUPPI\MSX\CODE\C\MSXgl\projects\exsoccer/exsoccer_s1_b2.c:1305: PutBallOnPlayerFeet(playerId);
    0000282D C5               [11] 6727 	push	bc
    0000282E DD 7E FD         [19] 6728 	ld	a, -3 (ix)
    00002831 CDr00r00         [17] 6729 	call	_PutBallOnPlayerFeet
    00002834 C1               [10] 6730 	pop	bc
                                   6731 ;E:\Dropbox\FAUSTO\SVILUPPI\MSX\CODE\C\MSXgl\projects\exsoccer/exsoccer_s1_b2.c:1306: if(g_Players[playerId].PreviousDirection!=DIRECTION_NONE){
    00002835 DD 6E F6         [19] 6732 	ld	l, -10 (ix)
    00002838 DD 66 F7         [19] 6733 	ld	h, -9 (ix)
    0000283B 5E               [ 7] 6734 	ld	e, (hl)
    0000283C 7B               [ 4] 6735 	ld	a, e
    0000283D B7               [ 4] 6736 	or	a, a
    0000283E 28 15            [12] 6737 	jr	Z, 00210$
                                   6738 ;E:\Dropbox\FAUSTO\SVILUPPI\MSX\CODE\C\MSXgl\projects\exsoccer/exsoccer_s1_b2.c:1307: g_Players[playerId].PatternId=GetNoMovingPlayerPatternId(g_Players[playerId].PreviousDirection);
    00002840 DD 7E F1         [19] 6739 	ld	a, -15 (ix)
    00002843 C6 08            [ 7] 6740 	add	a, #0x08
    00002845 6F               [ 4] 6741 	ld	l, a
                                   6742 ;	spillPairReg hl
                                   6743 ;	spillPairReg hl
    00002846 DD 7E F2         [19] 6744 	ld	a, -14 (ix)
    00002849 CE 00            [ 7] 6745 	adc	a, #0x00
    0000284B 67               [ 4] 6746 	ld	h, a
                                   6747 ;	spillPairReg hl
                                   6748 ;	spillPairReg hl
    0000284C E5               [11] 6749 	push	hl
    0000284D C5               [11] 6750 	push	bc
    0000284E 7B               [ 4] 6751 	ld	a, e
    0000284F CDr00r00         [17] 6752 	call	_GetNoMovingPlayerPatternId
    00002852 C1               [10] 6753 	pop	bc
    00002853 E1               [10] 6754 	pop	hl
    00002854 77               [ 7] 6755 	ld	(hl), a
    00002855                       6756 00210$:
                                   6757 ;E:\Dropbox\FAUSTO\SVILUPPI\MSX\CODE\C\MSXgl\projects\exsoccer/exsoccer_s1_b2.c:1309: g_Ball.KickMoveState=0;
    00002855 AF               [ 4] 6758 	xor	a, a
    00002856 02               [ 7] 6759 	ld	(bc), a
    00002857 C3r36r30         [10] 6760 	jp	00263$
    0000285A                       6761 00225$:
                                   6762 ;E:\Dropbox\FAUSTO\SVILUPPI\MSX\CODE\C\MSXgl\projects\exsoccer/exsoccer_s1_b2.c:1315: const u8 BallBaseDistX[] = { 0, 0, 4, 6, 4, 0, 4, 6, 4 };
    0000285A DD 36 C5 00      [19] 6763 	ld	-59 (ix), #0x00
    0000285E DD 36 C6 00      [19] 6764 	ld	-58 (ix), #0x00
    00002862 DD 36 C7 04      [19] 6765 	ld	-57 (ix), #0x04
    00002866 DD 36 C8 06      [19] 6766 	ld	-56 (ix), #0x06
    0000286A DD 36 C9 04      [19] 6767 	ld	-55 (ix), #0x04
    0000286E DD 36 CA 00      [19] 6768 	ld	-54 (ix), #0x00
    00002872 DD 36 CB 04      [19] 6769 	ld	-53 (ix), #0x04
    00002876 DD 36 CC 06      [19] 6770 	ld	-52 (ix), #0x06
    0000287A DD 36 CD 04      [19] 6771 	ld	-51 (ix), #0x04
                                   6772 ;E:\Dropbox\FAUSTO\SVILUPPI\MSX\CODE\C\MSXgl\projects\exsoccer/exsoccer_s1_b2.c:1316: const u8 BallBaseDistY[] = { 0, 6, 4, 0, 4, 6, 4, 0, 4 };
    0000287E DD 36 CE 00      [19] 6773 	ld	-50 (ix), #0x00
    00002882 DD 36 CF 06      [19] 6774 	ld	-49 (ix), #0x06
    00002886 DD 36 D0 04      [19] 6775 	ld	-48 (ix), #0x04
    0000288A DD 36 D1 00      [19] 6776 	ld	-47 (ix), #0x00
    0000288E DD 36 D2 04      [19] 6777 	ld	-46 (ix), #0x04
    00002892 DD 36 D3 06      [19] 6778 	ld	-45 (ix), #0x06
    00002896 DD 36 D4 04      [19] 6779 	ld	-44 (ix), #0x04
    0000289A DD 36 D5 00      [19] 6780 	ld	-43 (ix), #0x00
    0000289E DD 36 D6 04      [19] 6781 	ld	-42 (ix), #0x04
                                   6782 ;E:\Dropbox\FAUSTO\SVILUPPI\MSX\CODE\C\MSXgl\projects\exsoccer/exsoccer_s1_b2.c:1335: const i8 BallAlignCorrectX[] = { 0, 0, 0, 0, 2, 0, -2, 0, 0 };
    000028A2 DD 36 D7 00      [19] 6783 	ld	-41 (ix), #0x00
    000028A6 DD 36 D8 00      [19] 6784 	ld	-40 (ix), #0x00
    000028AA DD 36 D9 00      [19] 6785 	ld	-39 (ix), #0x00
    000028AE DD 36 DA 00      [19] 6786 	ld	-38 (ix), #0x00
    000028B2 DD 36 DB 02      [19] 6787 	ld	-37 (ix), #0x02
    000028B6 DD 36 DC 00      [19] 6788 	ld	-36 (ix), #0x00
    000028BA DD 36 DD FE      [19] 6789 	ld	-35 (ix), #0xfe
    000028BE DD 36 DE 00      [19] 6790 	ld	-34 (ix), #0x00
    000028C2 DD 36 DF 00      [19] 6791 	ld	-33 (ix), #0x00
                                   6792 ;E:\Dropbox\FAUSTO\SVILUPPI\MSX\CODE\C\MSXgl\projects\exsoccer/exsoccer_s1_b2.c:1336: const i8 BallAlignCorrectY[] = { 0, 0, 0, 8, 2, -2, 2, 8, 0 };
    000028C6 DD 36 E0 00      [19] 6793 	ld	-32 (ix), #0x00
    000028CA DD 36 E1 00      [19] 6794 	ld	-31 (ix), #0x00
    000028CE DD 36 E2 00      [19] 6795 	ld	-30 (ix), #0x00
    000028D2 DD 36 E3 08      [19] 6796 	ld	-29 (ix), #0x08
    000028D6 DD 36 E4 02      [19] 6797 	ld	-28 (ix), #0x02
    000028DA DD 36 E5 FE      [19] 6798 	ld	-27 (ix), #0xfe
    000028DE DD 36 E6 02      [19] 6799 	ld	-26 (ix), #0x02
    000028E2 DD 36 E7 08      [19] 6800 	ld	-25 (ix), #0x08
    000028E6 DD 36 E8 00      [19] 6801 	ld	-24 (ix), #0x00
                                   6802 ;E:\Dropbox\FAUSTO\SVILUPPI\MSX\CODE\C\MSXgl\projects\exsoccer/exsoccer_s1_b2.c:1338: const u8 DribbleAnimOffsets[] = {5, 4, 2, 0};
    000028EA DD 36 E9 05      [19] 6803 	ld	-23 (ix), #0x05
    000028EE DD 36 EA 04      [19] 6804 	ld	-22 (ix), #0x04
    000028F2 DD 36 EB 02      [19] 6805 	ld	-21 (ix), #0x02
    000028F6 DD 36 EC 00      [19] 6806 	ld	-20 (ix), #0x00
                                   6807 ;E:\Dropbox\FAUSTO\SVILUPPI\MSX\CODE\C\MSXgl\projects\exsoccer/exsoccer_s1_b2.c:1339: const u8 DribbleAnimOffsetsDiag[] = {3, 3, 1, 0};
    000028FA DD 36 ED 03      [19] 6808 	ld	-19 (ix), #0x03
    000028FE DD 36 EE 03      [19] 6809 	ld	-18 (ix), #0x03
    00002902 DD 36 EF 01      [19] 6810 	ld	-17 (ix), #0x01
    00002906 DD 36 F0 00      [19] 6811 	ld	-16 (ix), #0x00
                                   6812 ;E:\Dropbox\FAUSTO\SVILUPPI\MSX\CODE\C\MSXgl\projects\exsoccer/exsoccer_s1_b2.c:1341: u8 animStep = g_Ball.KickMoveState;
    0000290A 0A               [ 7] 6813 	ld	a, (bc)
    0000290B 5F               [ 4] 6814 	ld	e, a
                                   6815 ;E:\Dropbox\FAUSTO\SVILUPPI\MSX\CODE\C\MSXgl\projects\exsoccer/exsoccer_s1_b2.c:1342: u8 diagStep = (animStep % 2) ? 1 : 2;
    0000290C CB 43            [ 8] 6816 	bit	0, e
    0000290E 28 06            [12] 6817 	jr	Z, 00275$
    00002910 21 01 00         [10] 6818 	ld	hl, #0x0001
    00002913 C3r19r29         [10] 6819 	jp	00276$
    00002916                       6820 00275$:
    00002916 21 02 00         [10] 6821 	ld	hl, #0x0002
    00002919                       6822 00276$:
    00002919 DD 75 F8         [19] 6823 	ld	-8 (ix), l
                                   6824 ;E:\Dropbox\FAUSTO\SVILUPPI\MSX\CODE\C\MSXgl\projects\exsoccer/exsoccer_s1_b2.c:1344: u8 currentOffset = DribbleAnimOffsets[animStep];
    0000291C D5               [11] 6825 	push	de
    0000291D 16 00            [ 7] 6826 	ld	d, #0x00
    0000291F 21 28 00         [10] 6827 	ld	hl, #40
    00002922 39               [11] 6828 	add	hl, sp
    00002923 19               [11] 6829 	add	hl, de
    00002924 D1               [10] 6830 	pop	de
    00002925 7E               [ 7] 6831 	ld	a, (hl)
    00002926 DD 77 F9         [19] 6832 	ld	-7 (ix), a
                                   6833 ;E:\Dropbox\FAUSTO\SVILUPPI\MSX\CODE\C\MSXgl\projects\exsoccer/exsoccer_s1_b2.c:1345: u8 currentOffsetDiag = DribbleAnimOffsetsDiag[animStep];
    00002929 16 00            [ 7] 6834 	ld	d, #0x00
    0000292B 21 2A 00         [10] 6835 	ld	hl, #42
    0000292E 39               [11] 6836 	add	hl, sp
    0000292F 19               [11] 6837 	add	hl, de
    00002930 7E               [ 7] 6838 	ld	a, (hl)
    00002931 DD 77 FA         [19] 6839 	ld	-6 (ix), a
                                   6840 ;E:\Dropbox\FAUSTO\SVILUPPI\MSX\CODE\C\MSXgl\projects\exsoccer/exsoccer_s1_b2.c:1347: u8 distX = BallBaseDistX[moveDir] + ((moveDir==DIRECTION_UP || moveDir==DIRECTION_DOWN) ? 0 : (moveDir == DIRECTION_LEFT || moveDir == DIRECTION_RIGHT ? currentOffset : currentOffsetDiag));
    00002934 DD 5E F5         [19] 6841 	ld	e, -11 (ix)
    00002937 16 00            [ 7] 6842 	ld	d, #0x00
    00002939 21 02 00         [10] 6843 	ld	hl, #2
    0000293C 39               [11] 6844 	add	hl, sp
    0000293D 19               [11] 6845 	add	hl, de
    0000293E 5E               [ 7] 6846 	ld	e, (hl)
    0000293F DD 7E F5         [19] 6847 	ld	a, -11 (ix)
    00002942 3D               [ 4] 6848 	dec	a
    00002943 3E 01            [ 7] 6849 	ld	a, #0x01
    00002945 28 01            [12] 6850 	jr	Z, 00775$
    00002947 AF               [ 4] 6851 	xor	a, a
    00002948                       6852 00775$:
    00002948 DD 77 FB         [19] 6853 	ld	-5 (ix), a
    0000294B DD 7E F5         [19] 6854 	ld	a, -11 (ix)
    0000294E D6 07            [ 7] 6855 	sub	a, #0x07
    00002950 3E 01            [ 7] 6856 	ld	a, #0x01
    00002952 28 01            [12] 6857 	jr	Z, 00777$
    00002954 AF               [ 4] 6858 	xor	a, a
    00002955                       6859 00777$:
    00002955 DD 77 FC         [19] 6860 	ld	-4 (ix), a
    00002958 DD CB FB 46      [20] 6861 	bit	0, -5 (ix)
    0000295C 20 07            [12] 6862 	jr	NZ, 00280$
    0000295E DD 7E F5         [19] 6863 	ld	a, -11 (ix)
    00002961 D6 05            [ 7] 6864 	sub	a, #0x05
    00002963 20 04            [12] 6865 	jr	NZ, 00277$
    00002965                       6866 00280$:
    00002965 AF               [ 4] 6867 	xor	a, a
    00002966 C3r7Fr29         [10] 6868 	jp	00278$
    00002969                       6869 00277$:
    00002969 DD CB FC 46      [20] 6870 	bit	0, -4 (ix)
    0000296D 20 07            [12] 6871 	jr	NZ, 00285$
    0000296F DD 7E F5         [19] 6872 	ld	a, -11 (ix)
    00002972 D6 03            [ 7] 6873 	sub	a, #0x03
    00002974 20 06            [12] 6874 	jr	NZ, 00282$
    00002976                       6875 00285$:
    00002976 DD 7E F9         [19] 6876 	ld	a, -7 (ix)
    00002979 C3r7Fr29         [10] 6877 	jp	00283$
    0000297C                       6878 00282$:
    0000297C DD 7E FA         [19] 6879 	ld	a, -6 (ix)
    0000297F                       6880 00283$:
    0000297F                       6881 00278$:
    0000297F 83               [ 4] 6882 	add	a, e
    00002980 DD 77 FD         [19] 6883 	ld	-3 (ix), a
                                   6884 ;E:\Dropbox\FAUSTO\SVILUPPI\MSX\CODE\C\MSXgl\projects\exsoccer/exsoccer_s1_b2.c:1348: u8 distY = BallBaseDistY[moveDir] + ((moveDir==DIRECTION_LEFT || moveDir==DIRECTION_RIGHT) ? 0 : (moveDir == DIRECTION_UP || moveDir == DIRECTION_DOWN ? currentOffset : currentOffsetDiag));
    00002983 DD 5E F5         [19] 6885 	ld	e, -11 (ix)
    00002986 16 00            [ 7] 6886 	ld	d, #0x00
    00002988 21 0B 00         [10] 6887 	ld	hl, #11
    0000298B 39               [11] 6888 	add	hl, sp
    0000298C 19               [11] 6889 	add	hl, de
    0000298D 6E               [ 7] 6890 	ld	l, (hl)
                                   6891 ;	spillPairReg hl
    0000298E DD CB FC 46      [20] 6892 	bit	0, -4 (ix)
    00002992 20 07            [12] 6893 	jr	NZ, 00290$
    00002994 DD 7E F5         [19] 6894 	ld	a, -11 (ix)
    00002997 D6 03            [ 7] 6895 	sub	a, #0x03
    00002999 20 0A            [12] 6896 	jr	NZ, 00287$
    0000299B                       6897 00290$:
    0000299B AF               [ 4] 6898 	xor	a, a
    0000299C DD 77 FB         [19] 6899 	ld	-5 (ix), a
    0000299F DD 77 FC         [19] 6900 	ld	-4 (ix), a
    000029A2 C3rC2r29         [10] 6901 	jp	00288$
    000029A5                       6902 00287$:
    000029A5 DD CB FB 46      [20] 6903 	bit	0, -5 (ix)
    000029A9 20 07            [12] 6904 	jr	NZ, 00295$
    000029AB DD 7E F5         [19] 6905 	ld	a, -11 (ix)
    000029AE D6 05            [ 7] 6906 	sub	a, #0x05
    000029B0 20 06            [12] 6907 	jr	NZ, 00292$
    000029B2                       6908 00295$:
    000029B2 DD 7E F9         [19] 6909 	ld	a, -7 (ix)
    000029B5 C3rBBr29         [10] 6910 	jp	00293$
    000029B8                       6911 00292$:
    000029B8 DD 7E FA         [19] 6912 	ld	a, -6 (ix)
    000029BB                       6913 00293$:
    000029BB DD 77 FB         [19] 6914 	ld	-5 (ix), a
    000029BE DD 36 FC 00      [19] 6915 	ld	-4 (ix), #0x00
    000029C2                       6916 00288$:
    000029C2 DD 7E FB         [19] 6917 	ld	a, -5 (ix)
    000029C5 85               [ 4] 6918 	add	a, l
    000029C6 DD 77 FA         [19] 6919 	ld	-6 (ix), a
                                   6920 ;E:\Dropbox\FAUSTO\SVILUPPI\MSX\CODE\C\MSXgl\projects\exsoccer/exsoccer_s1_b2.c:1194: i16 dx = (i16)g_Players[playerId].X - (i16)g_Ball.X;
    000029C9 DD 7E F1         [19] 6921 	ld	a, -15 (ix)
    000029CC C6 02            [ 7] 6922 	add	a, #0x02
    000029CE DD 77 FB         [19] 6923 	ld	-5 (ix), a
    000029D1 DD 7E F2         [19] 6924 	ld	a, -14 (ix)
    000029D4 CE 00            [ 7] 6925 	adc	a, #0x00
    000029D6 DD 77 FC         [19] 6926 	ld	-4 (ix), a
                                   6927 ;E:\Dropbox\FAUSTO\SVILUPPI\MSX\CODE\C\MSXgl\projects\exsoccer/exsoccer_s1_b2.c:1350: switch(moveDir){
    000029D9 3E 08            [ 7] 6928 	ld	a, #0x08
    000029DB DD 96 F5         [19] 6929 	sub	a, -11 (ix)
    000029DE DAr96r2D         [10] 6930 	jp	C, 00219$
    000029E1 DD 5E F5         [19] 6931 	ld	e, -11 (ix)
    000029E4 16 00            [ 7] 6932 	ld	d, #0x00
    000029E6 21rEDr29         [10] 6933 	ld	hl, #00786$
    000029E9 19               [11] 6934 	add	hl, de
    000029EA 19               [11] 6935 	add	hl, de
    000029EB 19               [11] 6936 	add	hl, de
    000029EC E9               [ 4] 6937 	jp	(hl)
    000029ED                       6938 00786$:
    000029ED C3r96r2D         [10] 6939 	jp	00219$
    000029F0 C3r08r2A         [10] 6940 	jp	00211$
    000029F3 C3r74r2B         [10] 6941 	jp	00215$
    000029F6 C3r19r2B         [10] 6942 	jp	00214$
    000029F9 C3r8Ar2C         [10] 6943 	jp	00217$
    000029FC C3r61r2A         [10] 6944 	jp	00212$
    000029FF C3r0Fr2D         [10] 6945 	jp	00218$
    00002A02 C3rB9r2A         [10] 6946 	jp	00213$
    00002A05 C3rFDr2B         [10] 6947 	jp	00216$
                                   6948 ;E:\Dropbox\FAUSTO\SVILUPPI\MSX\CODE\C\MSXgl\projects\exsoccer/exsoccer_s1_b2.c:1351: case DIRECTION_UP:
    00002A08                       6949 00211$:
                                   6950 ;E:\Dropbox\FAUSTO\SVILUPPI\MSX\CODE\C\MSXgl\projects\exsoccer/exsoccer_s1_b2.c:1352: g_Players[playerId].Y -= 2;
    00002A08 DD 6E F1         [19] 6951 	ld	l, -15 (ix)
    00002A0B DD 66 F2         [19] 6952 	ld	h, -14 (ix)
    00002A0E 5E               [ 7] 6953 	ld	e, (hl)
    00002A0F 23               [ 6] 6954 	inc	hl
    00002A10 56               [ 7] 6955 	ld	d, (hl)
    00002A11 1B               [ 6] 6956 	dec	de
    00002A12 1B               [ 6] 6957 	dec	de
    00002A13 DD 6E F1         [19] 6958 	ld	l, -15 (ix)
    00002A16 DD 66 F2         [19] 6959 	ld	h, -14 (ix)
    00002A19 73               [ 7] 6960 	ld	(hl), e
    00002A1A 23               [ 6] 6961 	inc	hl
    00002A1B 72               [ 7] 6962 	ld	(hl), d
                                   6963 ;E:\Dropbox\FAUSTO\SVILUPPI\MSX\CODE\C\MSXgl\projects\exsoccer/exsoccer_s1_b2.c:1353: g_Ball.Y = g_Players[playerId].Y - distY + BallAlignCorrectY[moveDir];
    00002A1C DD 6E FA         [19] 6964 	ld	l, -6 (ix)
                                   6965 ;	spillPairReg hl
                                   6966 ;	spillPairReg hl
    00002A1F 26 00            [ 7] 6967 	ld	h, #0x00
                                   6968 ;	spillPairReg hl
                                   6969 ;	spillPairReg hl
    00002A21 7B               [ 4] 6970 	ld	a, e
    00002A22 95               [ 4] 6971 	sub	a, l
    00002A23 5F               [ 4] 6972 	ld	e, a
    00002A24 7A               [ 4] 6973 	ld	a, d
    00002A25 9C               [ 4] 6974 	sbc	a, h
    00002A26 57               [ 4] 6975 	ld	d, a
    00002A27 D5               [11] 6976 	push	de
    00002A28 DD 5E F5         [19] 6977 	ld	e, -11 (ix)
    00002A2B 16 00            [ 7] 6978 	ld	d, #0x00
    00002A2D 21 1F 00         [10] 6979 	ld	hl, #31
    00002A30 39               [11] 6980 	add	hl, sp
    00002A31 19               [11] 6981 	add	hl, de
    00002A32 D1               [10] 6982 	pop	de
    00002A33 7E               [ 7] 6983 	ld	a, (hl)
    00002A34 6F               [ 4] 6984 	ld	l, a
                                   6985 ;	spillPairReg hl
                                   6986 ;	spillPairReg hl
    00002A35 07               [ 4] 6987 	rlca
    00002A36 9F               [ 4] 6988 	sbc	a, a
    00002A37 67               [ 4] 6989 	ld	h, a
                                   6990 ;	spillPairReg hl
                                   6991 ;	spillPairReg hl
    00002A38 19               [11] 6992 	add	hl, de
    00002A39 EB               [ 4] 6993 	ex	de, hl
    00002A3A ED 53r00r00      [20] 6994 	ld	(_g_Ball), de
                                   6995 ;E:\Dropbox\FAUSTO\SVILUPPI\MSX\CODE\C\MSXgl\projects\exsoccer/exsoccer_s1_b2.c:1354: g_Ball.X = g_Players[playerId].X + BallAlignCorrectX[moveDir];
    00002A3E DD 6E FB         [19] 6996 	ld	l, -5 (ix)
    00002A41 DD 66 FC         [19] 6997 	ld	h, -4 (ix)
    00002A44 5E               [ 7] 6998 	ld	e, (hl)
    00002A45 23               [ 6] 6999 	inc	hl
    00002A46 56               [ 7] 7000 	ld	d, (hl)
    00002A47 D5               [11] 7001 	push	de
    00002A48 DD 5E F5         [19] 7002 	ld	e, -11 (ix)
    00002A4B 16 00            [ 7] 7003 	ld	d, #0x00
    00002A4D 21 16 00         [10] 7004 	ld	hl, #22
    00002A50 39               [11] 7005 	add	hl, sp
    00002A51 19               [11] 7006 	add	hl, de
    00002A52 D1               [10] 7007 	pop	de
    00002A53 7E               [ 7] 7008 	ld	a, (hl)
    00002A54 6F               [ 4] 7009 	ld	l, a
                                   7010 ;	spillPairReg hl
                                   7011 ;	spillPairReg hl
    00002A55 07               [ 4] 7012 	rlca
    00002A56 9F               [ 4] 7013 	sbc	a, a
    00002A57 67               [ 4] 7014 	ld	h, a
                                   7015 ;	spillPairReg hl
                                   7016 ;	spillPairReg hl
    00002A58 19               [11] 7017 	add	hl, de
    00002A59 EB               [ 4] 7018 	ex	de, hl
    00002A5A ED 53r02r00      [20] 7019 	ld	((_g_Ball + 2)), de
                                   7020 ;E:\Dropbox\FAUSTO\SVILUPPI\MSX\CODE\C\MSXgl\projects\exsoccer/exsoccer_s1_b2.c:1355: break;
    00002A5E C3r96r2D         [10] 7021 	jp	00219$
                                   7022 ;E:\Dropbox\FAUSTO\SVILUPPI\MSX\CODE\C\MSXgl\projects\exsoccer/exsoccer_s1_b2.c:1356: case DIRECTION_DOWN:
    00002A61                       7023 00212$:
                                   7024 ;E:\Dropbox\FAUSTO\SVILUPPI\MSX\CODE\C\MSXgl\projects\exsoccer/exsoccer_s1_b2.c:1357: g_Players[playerId].Y += 2;
    00002A61 DD 6E F1         [19] 7025 	ld	l, -15 (ix)
    00002A64 DD 66 F2         [19] 7026 	ld	h, -14 (ix)
    00002A67 5E               [ 7] 7027 	ld	e, (hl)
    00002A68 23               [ 6] 7028 	inc	hl
    00002A69 56               [ 7] 7029 	ld	d, (hl)
    00002A6A 13               [ 6] 7030 	inc	de
    00002A6B 13               [ 6] 7031 	inc	de
    00002A6C DD 6E F1         [19] 7032 	ld	l, -15 (ix)
    00002A6F DD 66 F2         [19] 7033 	ld	h, -14 (ix)
    00002A72 73               [ 7] 7034 	ld	(hl), e
    00002A73 23               [ 6] 7035 	inc	hl
    00002A74 72               [ 7] 7036 	ld	(hl), d
                                   7037 ;E:\Dropbox\FAUSTO\SVILUPPI\MSX\CODE\C\MSXgl\projects\exsoccer/exsoccer_s1_b2.c:1358: g_Ball.Y = g_Players[playerId].Y + distY + BallAlignCorrectY[moveDir]+5;
    00002A75 DD 6E FA         [19] 7038 	ld	l, -6 (ix)
                                   7039 ;	spillPairReg hl
                                   7040 ;	spillPairReg hl
    00002A78 26 00            [ 7] 7041 	ld	h, #0x00
                                   7042 ;	spillPairReg hl
                                   7043 ;	spillPairReg hl
    00002A7A 19               [11] 7044 	add	hl, de
    00002A7B E5               [11] 7045 	push	hl
    00002A7C DD 5E F5         [19] 7046 	ld	e, -11 (ix)
    00002A7F 16 00            [ 7] 7047 	ld	d, #0x00
    00002A81 21 1F 00         [10] 7048 	ld	hl, #31
    00002A84 39               [11] 7049 	add	hl, sp
    00002A85 19               [11] 7050 	add	hl, de
    00002A86 D1               [10] 7051 	pop	de
    00002A87 7E               [ 7] 7052 	ld	a, (hl)
    00002A88 6F               [ 4] 7053 	ld	l, a
                                   7054 ;	spillPairReg hl
                                   7055 ;	spillPairReg hl
    00002A89 07               [ 4] 7056 	rlca
    00002A8A 9F               [ 4] 7057 	sbc	a, a
    00002A8B 67               [ 4] 7058 	ld	h, a
                                   7059 ;	spillPairReg hl
                                   7060 ;	spillPairReg hl
    00002A8C 19               [11] 7061 	add	hl, de
    00002A8D 11 05 00         [10] 7062 	ld	de, #0x0005
    00002A90 19               [11] 7063 	add	hl, de
    00002A91 EB               [ 4] 7064 	ex	de, hl
    00002A92 ED 53r00r00      [20] 7065 	ld	(_g_Ball), de
                                   7066 ;E:\Dropbox\FAUSTO\SVILUPPI\MSX\CODE\C\MSXgl\projects\exsoccer/exsoccer_s1_b2.c:1359: g_Ball.X = g_Players[playerId].X + BallAlignCorrectX[moveDir];
    00002A96 DD 6E FB         [19] 7067 	ld	l, -5 (ix)
    00002A99 DD 66 FC         [19] 7068 	ld	h, -4 (ix)
    00002A9C 5E               [ 7] 7069 	ld	e, (hl)
    00002A9D 23               [ 6] 7070 	inc	hl
    00002A9E 56               [ 7] 7071 	ld	d, (hl)
    00002A9F D5               [11] 7072 	push	de
    00002AA0 DD 5E F5         [19] 7073 	ld	e, -11 (ix)
    00002AA3 16 00            [ 7] 7074 	ld	d, #0x00
    00002AA5 21 16 00         [10] 7075 	ld	hl, #22
    00002AA8 39               [11] 7076 	add	hl, sp
    00002AA9 19               [11] 7077 	add	hl, de
    00002AAA D1               [10] 7078 	pop	de
    00002AAB 7E               [ 7] 7079 	ld	a, (hl)
    00002AAC 6F               [ 4] 7080 	ld	l, a
                                   7081 ;	spillPairReg hl
                                   7082 ;	spillPairReg hl
    00002AAD 07               [ 4] 7083 	rlca
    00002AAE 9F               [ 4] 7084 	sbc	a, a
    00002AAF 67               [ 4] 7085 	ld	h, a
                                   7086 ;	spillPairReg hl
                                   7087 ;	spillPairReg hl
    00002AB0 19               [11] 7088 	add	hl, de
    00002AB1 EB               [ 4] 7089 	ex	de, hl
    00002AB2 ED 53r02r00      [20] 7090 	ld	((_g_Ball + 2)), de
                                   7091 ;E:\Dropbox\FAUSTO\SVILUPPI\MSX\CODE\C\MSXgl\projects\exsoccer/exsoccer_s1_b2.c:1360: break;
    00002AB6 C3r96r2D         [10] 7092 	jp	00219$
                                   7093 ;E:\Dropbox\FAUSTO\SVILUPPI\MSX\CODE\C\MSXgl\projects\exsoccer/exsoccer_s1_b2.c:1361: case DIRECTION_LEFT:
    00002AB9                       7094 00213$:
                                   7095 ;E:\Dropbox\FAUSTO\SVILUPPI\MSX\CODE\C\MSXgl\projects\exsoccer/exsoccer_s1_b2.c:1362: g_Players[playerId].X -= 2;
    00002AB9 DD 6E FB         [19] 7096 	ld	l, -5 (ix)
    00002ABC DD 66 FC         [19] 7097 	ld	h, -4 (ix)
    00002ABF 5E               [ 7] 7098 	ld	e, (hl)
    00002AC0 23               [ 6] 7099 	inc	hl
    00002AC1 56               [ 7] 7100 	ld	d, (hl)
    00002AC2 1B               [ 6] 7101 	dec	de
    00002AC3 1B               [ 6] 7102 	dec	de
    00002AC4 DD 6E FB         [19] 7103 	ld	l, -5 (ix)
    00002AC7 DD 66 FC         [19] 7104 	ld	h, -4 (ix)
    00002ACA 73               [ 7] 7105 	ld	(hl), e
    00002ACB 23               [ 6] 7106 	inc	hl
    00002ACC 72               [ 7] 7107 	ld	(hl), d
                                   7108 ;E:\Dropbox\FAUSTO\SVILUPPI\MSX\CODE\C\MSXgl\projects\exsoccer/exsoccer_s1_b2.c:1363: g_Ball.X = g_Players[playerId].X - distX + BallAlignCorrectX[moveDir];
    00002ACD DD 6E FD         [19] 7109 	ld	l, -3 (ix)
                                   7110 ;	spillPairReg hl
                                   7111 ;	spillPairReg hl
    00002AD0 26 00            [ 7] 7112 	ld	h, #0x00
                                   7113 ;	spillPairReg hl
                                   7114 ;	spillPairReg hl
    00002AD2 7B               [ 4] 7115 	ld	a, e
    00002AD3 95               [ 4] 7116 	sub	a, l
    00002AD4 5F               [ 4] 7117 	ld	e, a
    00002AD5 7A               [ 4] 7118 	ld	a, d
    00002AD6 9C               [ 4] 7119 	sbc	a, h
    00002AD7 57               [ 4] 7120 	ld	d, a
    00002AD8 D5               [11] 7121 	push	de
    00002AD9 DD 5E F5         [19] 7122 	ld	e, -11 (ix)
    00002ADC 16 00            [ 7] 7123 	ld	d, #0x00
    00002ADE 21 16 00         [10] 7124 	ld	hl, #22
    00002AE1 39               [11] 7125 	add	hl, sp
    00002AE2 19               [11] 7126 	add	hl, de
    00002AE3 D1               [10] 7127 	pop	de
    00002AE4 7E               [ 7] 7128 	ld	a, (hl)
    00002AE5 6F               [ 4] 7129 	ld	l, a
                                   7130 ;	spillPairReg hl
                                   7131 ;	spillPairReg hl
    00002AE6 07               [ 4] 7132 	rlca
    00002AE7 9F               [ 4] 7133 	sbc	a, a
    00002AE8 67               [ 4] 7134 	ld	h, a
                                   7135 ;	spillPairReg hl
                                   7136 ;	spillPairReg hl
    00002AE9 19               [11] 7137 	add	hl, de
    00002AEA EB               [ 4] 7138 	ex	de, hl
    00002AEB ED 53r02r00      [20] 7139 	ld	((_g_Ball + 2)), de
                                   7140 ;E:\Dropbox\FAUSTO\SVILUPPI\MSX\CODE\C\MSXgl\projects\exsoccer/exsoccer_s1_b2.c:1364: g_Ball.Y = g_Players[playerId].Y + BallAlignCorrectY[moveDir]-4;
    00002AEF DD 6E F1         [19] 7141 	ld	l, -15 (ix)
    00002AF2 DD 66 F2         [19] 7142 	ld	h, -14 (ix)
    00002AF5 5E               [ 7] 7143 	ld	e, (hl)
    00002AF6 23               [ 6] 7144 	inc	hl
    00002AF7 56               [ 7] 7145 	ld	d, (hl)
    00002AF8 D5               [11] 7146 	push	de
    00002AF9 DD 5E F5         [19] 7147 	ld	e, -11 (ix)
    00002AFC 16 00            [ 7] 7148 	ld	d, #0x00
    00002AFE 21 1F 00         [10] 7149 	ld	hl, #31
    00002B01 39               [11] 7150 	add	hl, sp
    00002B02 19               [11] 7151 	add	hl, de
    00002B03 D1               [10] 7152 	pop	de
    00002B04 7E               [ 7] 7153 	ld	a, (hl)
    00002B05 6F               [ 4] 7154 	ld	l, a
                                   7155 ;	spillPairReg hl
                                   7156 ;	spillPairReg hl
    00002B06 07               [ 4] 7157 	rlca
    00002B07 9F               [ 4] 7158 	sbc	a, a
    00002B08 67               [ 4] 7159 	ld	h, a
                                   7160 ;	spillPairReg hl
                                   7161 ;	spillPairReg hl
    00002B09 19               [11] 7162 	add	hl, de
    00002B0A 7D               [ 4] 7163 	ld	a, l
    00002B0B C6 FC            [ 7] 7164 	add	a, #0xfc
    00002B0D 5F               [ 4] 7165 	ld	e, a
    00002B0E 7C               [ 4] 7166 	ld	a, h
    00002B0F CE FF            [ 7] 7167 	adc	a, #0xff
    00002B11 57               [ 4] 7168 	ld	d, a
    00002B12 ED 53r00r00      [20] 7169 	ld	(_g_Ball), de
                                   7170 ;E:\Dropbox\FAUSTO\SVILUPPI\MSX\CODE\C\MSXgl\projects\exsoccer/exsoccer_s1_b2.c:1365: break;
    00002B16 C3r96r2D         [10] 7171 	jp	00219$
                                   7172 ;E:\Dropbox\FAUSTO\SVILUPPI\MSX\CODE\C\MSXgl\projects\exsoccer/exsoccer_s1_b2.c:1366: case DIRECTION_RIGHT:
    00002B19                       7173 00214$:
                                   7174 ;E:\Dropbox\FAUSTO\SVILUPPI\MSX\CODE\C\MSXgl\projects\exsoccer/exsoccer_s1_b2.c:1367: g_Players[playerId].X += 2;
    00002B19 DD 6E FB         [19] 7175 	ld	l, -5 (ix)
    00002B1C DD 66 FC         [19] 7176 	ld	h, -4 (ix)
    00002B1F 5E               [ 7] 7177 	ld	e, (hl)
    00002B20 23               [ 6] 7178 	inc	hl
    00002B21 56               [ 7] 7179 	ld	d, (hl)
    00002B22 13               [ 6] 7180 	inc	de
    00002B23 13               [ 6] 7181 	inc	de
    00002B24 DD 6E FB         [19] 7182 	ld	l, -5 (ix)
    00002B27 DD 66 FC         [19] 7183 	ld	h, -4 (ix)
    00002B2A 73               [ 7] 7184 	ld	(hl), e
    00002B2B 23               [ 6] 7185 	inc	hl
    00002B2C 72               [ 7] 7186 	ld	(hl), d
                                   7187 ;E:\Dropbox\FAUSTO\SVILUPPI\MSX\CODE\C\MSXgl\projects\exsoccer/exsoccer_s1_b2.c:1368: g_Ball.X = g_Players[playerId].X + distX + BallAlignCorrectX[moveDir];
    00002B2D DD 6E FD         [19] 7188 	ld	l, -3 (ix)
                                   7189 ;	spillPairReg hl
                                   7190 ;	spillPairReg hl
    00002B30 26 00            [ 7] 7191 	ld	h, #0x00
                                   7192 ;	spillPairReg hl
                                   7193 ;	spillPairReg hl
    00002B32 19               [11] 7194 	add	hl, de
    00002B33 E5               [11] 7195 	push	hl
    00002B34 DD 5E F5         [19] 7196 	ld	e, -11 (ix)
    00002B37 16 00            [ 7] 7197 	ld	d, #0x00
    00002B39 21 16 00         [10] 7198 	ld	hl, #22
    00002B3C 39               [11] 7199 	add	hl, sp
    00002B3D 19               [11] 7200 	add	hl, de
    00002B3E D1               [10] 7201 	pop	de
    00002B3F 7E               [ 7] 7202 	ld	a, (hl)
    00002B40 6F               [ 4] 7203 	ld	l, a
                                   7204 ;	spillPairReg hl
                                   7205 ;	spillPairReg hl
    00002B41 07               [ 4] 7206 	rlca
    00002B42 9F               [ 4] 7207 	sbc	a, a
    00002B43 67               [ 4] 7208 	ld	h, a
                                   7209 ;	spillPairReg hl
                                   7210 ;	spillPairReg hl
    00002B44 19               [11] 7211 	add	hl, de
    00002B45 EB               [ 4] 7212 	ex	de, hl
    00002B46 ED 53r02r00      [20] 7213 	ld	((_g_Ball + 2)), de
                                   7214 ;E:\Dropbox\FAUSTO\SVILUPPI\MSX\CODE\C\MSXgl\projects\exsoccer/exsoccer_s1_b2.c:1369: g_Ball.Y = g_Players[playerId].Y + BallAlignCorrectY[moveDir]-4;
    00002B4A DD 6E F1         [19] 7215 	ld	l, -15 (ix)
    00002B4D DD 66 F2         [19] 7216 	ld	h, -14 (ix)
    00002B50 5E               [ 7] 7217 	ld	e, (hl)
    00002B51 23               [ 6] 7218 	inc	hl
    00002B52 56               [ 7] 7219 	ld	d, (hl)
    00002B53 D5               [11] 7220 	push	de
    00002B54 DD 5E F5         [19] 7221 	ld	e, -11 (ix)
    00002B57 16 00            [ 7] 7222 	ld	d, #0x00
    00002B59 21 1F 00         [10] 7223 	ld	hl, #31
    00002B5C 39               [11] 7224 	add	hl, sp
    00002B5D 19               [11] 7225 	add	hl, de
    00002B5E D1               [10] 7226 	pop	de
    00002B5F 7E               [ 7] 7227 	ld	a, (hl)
    00002B60 6F               [ 4] 7228 	ld	l, a
                                   7229 ;	spillPairReg hl
                                   7230 ;	spillPairReg hl
    00002B61 07               [ 4] 7231 	rlca
    00002B62 9F               [ 4] 7232 	sbc	a, a
    00002B63 67               [ 4] 7233 	ld	h, a
                                   7234 ;	spillPairReg hl
                                   7235 ;	spillPairReg hl
    00002B64 19               [11] 7236 	add	hl, de
    00002B65 7D               [ 4] 7237 	ld	a, l
    00002B66 C6 FC            [ 7] 7238 	add	a, #0xfc
    00002B68 5F               [ 4] 7239 	ld	e, a
    00002B69 7C               [ 4] 7240 	ld	a, h
    00002B6A CE FF            [ 7] 7241 	adc	a, #0xff
    00002B6C 57               [ 4] 7242 	ld	d, a
    00002B6D ED 53r00r00      [20] 7243 	ld	(_g_Ball), de
                                   7244 ;E:\Dropbox\FAUSTO\SVILUPPI\MSX\CODE\C\MSXgl\projects\exsoccer/exsoccer_s1_b2.c:1370: break;
    00002B71 C3r96r2D         [10] 7245 	jp	00219$
                                   7246 ;E:\Dropbox\FAUSTO\SVILUPPI\MSX\CODE\C\MSXgl\projects\exsoccer/exsoccer_s1_b2.c:1371: case DIRECTION_UP_RIGHT:
    00002B74                       7247 00215$:
                                   7248 ;E:\Dropbox\FAUSTO\SVILUPPI\MSX\CODE\C\MSXgl\projects\exsoccer/exsoccer_s1_b2.c:1372: g_Players[playerId].Y -= diagStep;
    00002B74 DD 6E F1         [19] 7249 	ld	l, -15 (ix)
    00002B77 DD 66 F2         [19] 7250 	ld	h, -14 (ix)
    00002B7A 7E               [ 7] 7251 	ld	a, (hl)
    00002B7B 23               [ 6] 7252 	inc	hl
    00002B7C 66               [ 7] 7253 	ld	h, (hl)
                                   7254 ;	spillPairReg hl
    00002B7D 6F               [ 4] 7255 	ld	l, a
                                   7256 ;	spillPairReg hl
                                   7257 ;	spillPairReg hl
    00002B7E DD 5E F8         [19] 7258 	ld	e, -8 (ix)
    00002B81 16 00            [ 7] 7259 	ld	d, #0x00
    00002B83 BF               [ 4] 7260 	cp	a, a
    00002B84 ED 52            [15] 7261 	sbc	hl, de
    00002B86 E3               [19] 7262 	ex	(sp), hl
    00002B87 DD 6E F1         [19] 7263 	ld	l, -15 (ix)
    00002B8A DD 66 F2         [19] 7264 	ld	h, -14 (ix)
    00002B8D DD 7E C3         [19] 7265 	ld	a, -61 (ix)
    00002B90 77               [ 7] 7266 	ld	(hl), a
    00002B91 23               [ 6] 7267 	inc	hl
    00002B92 DD 7E C4         [19] 7268 	ld	a, -60 (ix)
    00002B95 77               [ 7] 7269 	ld	(hl), a
                                   7270 ;E:\Dropbox\FAUSTO\SVILUPPI\MSX\CODE\C\MSXgl\projects\exsoccer/exsoccer_s1_b2.c:1373: g_Players[playerId].X += diagStep;
    00002B96 DD 6E FB         [19] 7271 	ld	l, -5 (ix)
    00002B99 DD 66 FC         [19] 7272 	ld	h, -4 (ix)
    00002B9C 7E               [ 7] 7273 	ld	a, (hl)
    00002B9D 23               [ 6] 7274 	inc	hl
    00002B9E 66               [ 7] 7275 	ld	h, (hl)
                                   7276 ;	spillPairReg hl
    00002B9F 6F               [ 4] 7277 	ld	l, a
                                   7278 ;	spillPairReg hl
                                   7279 ;	spillPairReg hl
    00002BA0 19               [11] 7280 	add	hl, de
    00002BA1 DD 75 F8         [19] 7281 	ld	-8 (ix), l
    00002BA4 DD 74 F9         [19] 7282 	ld	-7 (ix), h
    00002BA7 DD 6E FB         [19] 7283 	ld	l, -5 (ix)
    00002BAA DD 66 FC         [19] 7284 	ld	h, -4 (ix)
    00002BAD DD 7E F8         [19] 7285 	ld	a, -8 (ix)
    00002BB0 77               [ 7] 7286 	ld	(hl), a
    00002BB1 23               [ 6] 7287 	inc	hl
    00002BB2 DD 7E F9         [19] 7288 	ld	a, -7 (ix)
    00002BB5 77               [ 7] 7289 	ld	(hl), a
                                   7290 ;E:\Dropbox\FAUSTO\SVILUPPI\MSX\CODE\C\MSXgl\projects\exsoccer/exsoccer_s1_b2.c:1374: g_Ball.Y = g_Players[playerId].Y - distY + BallAlignCorrectY[moveDir];
    00002BB6 DD 5E FA         [19] 7291 	ld	e, -6 (ix)
    00002BB9 16 00            [ 7] 7292 	ld	d, #0x00
    00002BBB E1               [10] 7293 	pop	hl
    00002BBC E5               [11] 7294 	push	hl
    00002BBD BF               [ 4] 7295 	cp	a, a
    00002BBE ED 52            [15] 7296 	sbc	hl, de
    00002BC0 E5               [11] 7297 	push	hl
    00002BC1 DD 5E F5         [19] 7298 	ld	e, -11 (ix)
    00002BC4 16 00            [ 7] 7299 	ld	d, #0x00
    00002BC6 21 1F 00         [10] 7300 	ld	hl, #31
    00002BC9 39               [11] 7301 	add	hl, sp
    00002BCA 19               [11] 7302 	add	hl, de
    00002BCB D1               [10] 7303 	pop	de
    00002BCC 7E               [ 7] 7304 	ld	a, (hl)
    00002BCD 6F               [ 4] 7305 	ld	l, a
                                   7306 ;	spillPairReg hl
                                   7307 ;	spillPairReg hl
    00002BCE 07               [ 4] 7308 	rlca
    00002BCF 9F               [ 4] 7309 	sbc	a, a
    00002BD0 67               [ 4] 7310 	ld	h, a
                                   7311 ;	spillPairReg hl
                                   7312 ;	spillPairReg hl
    00002BD1 19               [11] 7313 	add	hl, de
    00002BD2 EB               [ 4] 7314 	ex	de, hl
    00002BD3 ED 53r00r00      [20] 7315 	ld	(_g_Ball), de
                                   7316 ;E:\Dropbox\FAUSTO\SVILUPPI\MSX\CODE\C\MSXgl\projects\exsoccer/exsoccer_s1_b2.c:1375: g_Ball.X = g_Players[playerId].X + distX + BallAlignCorrectX[moveDir];
    00002BD7 DD 6E FD         [19] 7317 	ld	l, -3 (ix)
                                   7318 ;	spillPairReg hl
                                   7319 ;	spillPairReg hl
    00002BDA 26 00            [ 7] 7320 	ld	h, #0x00
                                   7321 ;	spillPairReg hl
                                   7322 ;	spillPairReg hl
    00002BDC DD 5E F8         [19] 7323 	ld	e, -8 (ix)
    00002BDF DD 56 F9         [19] 7324 	ld	d, -7 (ix)
    00002BE2 19               [11] 7325 	add	hl, de
    00002BE3 E5               [11] 7326 	push	hl
    00002BE4 DD 5E F5         [19] 7327 	ld	e, -11 (ix)
    00002BE7 16 00            [ 7] 7328 	ld	d, #0x00
    00002BE9 21 16 00         [10] 7329 	ld	hl, #22
    00002BEC 39               [11] 7330 	add	hl, sp
    00002BED 19               [11] 7331 	add	hl, de
    00002BEE D1               [10] 7332 	pop	de
    00002BEF 7E               [ 7] 7333 	ld	a, (hl)
    00002BF0 6F               [ 4] 7334 	ld	l, a
                                   7335 ;	spillPairReg hl
                                   7336 ;	spillPairReg hl
    00002BF1 07               [ 4] 7337 	rlca
    00002BF2 9F               [ 4] 7338 	sbc	a, a
    00002BF3 67               [ 4] 7339 	ld	h, a
                                   7340 ;	spillPairReg hl
                                   7341 ;	spillPairReg hl
    00002BF4 19               [11] 7342 	add	hl, de
    00002BF5 EB               [ 4] 7343 	ex	de, hl
    00002BF6 ED 53r02r00      [20] 7344 	ld	((_g_Ball + 2)), de
                                   7345 ;E:\Dropbox\FAUSTO\SVILUPPI\MSX\CODE\C\MSXgl\projects\exsoccer/exsoccer_s1_b2.c:1376: break;
    00002BFA C3r96r2D         [10] 7346 	jp	00219$
                                   7347 ;E:\Dropbox\FAUSTO\SVILUPPI\MSX\CODE\C\MSXgl\projects\exsoccer/exsoccer_s1_b2.c:1377: case DIRECTION_UP_LEFT:
    00002BFD                       7348 00216$:
                                   7349 ;E:\Dropbox\FAUSTO\SVILUPPI\MSX\CODE\C\MSXgl\projects\exsoccer/exsoccer_s1_b2.c:1378: g_Players[playerId].Y -= diagStep;
    00002BFD DD 6E F1         [19] 7350 	ld	l, -15 (ix)
    00002C00 DD 66 F2         [19] 7351 	ld	h, -14 (ix)
    00002C03 7E               [ 7] 7352 	ld	a, (hl)
    00002C04 23               [ 6] 7353 	inc	hl
    00002C05 66               [ 7] 7354 	ld	h, (hl)
                                   7355 ;	spillPairReg hl
    00002C06 6F               [ 4] 7356 	ld	l, a
                                   7357 ;	spillPairReg hl
                                   7358 ;	spillPairReg hl
    00002C07 DD 5E F8         [19] 7359 	ld	e, -8 (ix)
    00002C0A 16 00            [ 7] 7360 	ld	d, #0x00
    00002C0C BF               [ 4] 7361 	cp	a, a
    00002C0D ED 52            [15] 7362 	sbc	hl, de
    00002C0F E3               [19] 7363 	ex	(sp), hl
    00002C10 DD 6E F1         [19] 7364 	ld	l, -15 (ix)
    00002C13 DD 66 F2         [19] 7365 	ld	h, -14 (ix)
    00002C16 DD 7E C3         [19] 7366 	ld	a, -61 (ix)
    00002C19 77               [ 7] 7367 	ld	(hl), a
    00002C1A 23               [ 6] 7368 	inc	hl
    00002C1B DD 7E C4         [19] 7369 	ld	a, -60 (ix)
    00002C1E 77               [ 7] 7370 	ld	(hl), a
                                   7371 ;E:\Dropbox\FAUSTO\SVILUPPI\MSX\CODE\C\MSXgl\projects\exsoccer/exsoccer_s1_b2.c:1379: g_Players[playerId].X -= diagStep;
    00002C1F DD 6E FB         [19] 7372 	ld	l, -5 (ix)
    00002C22 DD 66 FC         [19] 7373 	ld	h, -4 (ix)
    00002C25 7E               [ 7] 7374 	ld	a, (hl)
    00002C26 23               [ 6] 7375 	inc	hl
    00002C27 66               [ 7] 7376 	ld	h, (hl)
                                   7377 ;	spillPairReg hl
    00002C28 6F               [ 4] 7378 	ld	l, a
                                   7379 ;	spillPairReg hl
                                   7380 ;	spillPairReg hl
    00002C29 BF               [ 4] 7381 	cp	a, a
    00002C2A ED 52            [15] 7382 	sbc	hl, de
    00002C2C DD 75 F8         [19] 7383 	ld	-8 (ix), l
    00002C2F DD 74 F9         [19] 7384 	ld	-7 (ix), h
    00002C32 DD 6E FB         [19] 7385 	ld	l, -5 (ix)
    00002C35 DD 66 FC         [19] 7386 	ld	h, -4 (ix)
    00002C38 DD 7E F8         [19] 7387 	ld	a, -8 (ix)
    00002C3B 77               [ 7] 7388 	ld	(hl), a
    00002C3C 23               [ 6] 7389 	inc	hl
    00002C3D DD 7E F9         [19] 7390 	ld	a, -7 (ix)
    00002C40 77               [ 7] 7391 	ld	(hl), a
                                   7392 ;E:\Dropbox\FAUSTO\SVILUPPI\MSX\CODE\C\MSXgl\projects\exsoccer/exsoccer_s1_b2.c:1380: g_Ball.Y = g_Players[playerId].Y - distY + BallAlignCorrectY[moveDir];
    00002C41 DD 5E FA         [19] 7393 	ld	e, -6 (ix)
    00002C44 16 00            [ 7] 7394 	ld	d, #0x00
    00002C46 E1               [10] 7395 	pop	hl
    00002C47 E5               [11] 7396 	push	hl
    00002C48 BF               [ 4] 7397 	cp	a, a
    00002C49 ED 52            [15] 7398 	sbc	hl, de
    00002C4B E5               [11] 7399 	push	hl
    00002C4C DD 5E F5         [19] 7400 	ld	e, -11 (ix)
    00002C4F 16 00            [ 7] 7401 	ld	d, #0x00
    00002C51 21 1F 00         [10] 7402 	ld	hl, #31
    00002C54 39               [11] 7403 	add	hl, sp
    00002C55 19               [11] 7404 	add	hl, de
    00002C56 D1               [10] 7405 	pop	de
    00002C57 7E               [ 7] 7406 	ld	a, (hl)
    00002C58 6F               [ 4] 7407 	ld	l, a
                                   7408 ;	spillPairReg hl
                                   7409 ;	spillPairReg hl
    00002C59 07               [ 4] 7410 	rlca
    00002C5A 9F               [ 4] 7411 	sbc	a, a
    00002C5B 67               [ 4] 7412 	ld	h, a
                                   7413 ;	spillPairReg hl
                                   7414 ;	spillPairReg hl
    00002C5C 19               [11] 7415 	add	hl, de
    00002C5D EB               [ 4] 7416 	ex	de, hl
    00002C5E ED 53r00r00      [20] 7417 	ld	(_g_Ball), de
                                   7418 ;E:\Dropbox\FAUSTO\SVILUPPI\MSX\CODE\C\MSXgl\projects\exsoccer/exsoccer_s1_b2.c:1381: g_Ball.X = g_Players[playerId].X - distX + BallAlignCorrectX[moveDir];
    00002C62 DD 5E FD         [19] 7419 	ld	e, -3 (ix)
    00002C65 16 00            [ 7] 7420 	ld	d, #0x00
    00002C67 DD 6E F8         [19] 7421 	ld	l, -8 (ix)
                                   7422 ;	spillPairReg hl
                                   7423 ;	spillPairReg hl
    00002C6A DD 66 F9         [19] 7424 	ld	h, -7 (ix)
                                   7425 ;	spillPairReg hl
                                   7426 ;	spillPairReg hl
    00002C6D BF               [ 4] 7427 	cp	a, a
    00002C6E ED 52            [15] 7428 	sbc	hl, de
    00002C70 E5               [11] 7429 	push	hl
    00002C71 DD 5E F5         [19] 7430 	ld	e, -11 (ix)
    00002C74 16 00            [ 7] 7431 	ld	d, #0x00
    00002C76 21 16 00         [10] 7432 	ld	hl, #22
    00002C79 39               [11] 7433 	add	hl, sp
    00002C7A 19               [11] 7434 	add	hl, de
    00002C7B D1               [10] 7435 	pop	de
    00002C7C 7E               [ 7] 7436 	ld	a, (hl)
    00002C7D 6F               [ 4] 7437 	ld	l, a
                                   7438 ;	spillPairReg hl
                                   7439 ;	spillPairReg hl
    00002C7E 07               [ 4] 7440 	rlca
    00002C7F 9F               [ 4] 7441 	sbc	a, a
    00002C80 67               [ 4] 7442 	ld	h, a
                                   7443 ;	spillPairReg hl
                                   7444 ;	spillPairReg hl
    00002C81 19               [11] 7445 	add	hl, de
    00002C82 EB               [ 4] 7446 	ex	de, hl
    00002C83 ED 53r02r00      [20] 7447 	ld	((_g_Ball + 2)), de
                                   7448 ;E:\Dropbox\FAUSTO\SVILUPPI\MSX\CODE\C\MSXgl\projects\exsoccer/exsoccer_s1_b2.c:1382: break;
    00002C87 C3r96r2D         [10] 7449 	jp	00219$
                                   7450 ;E:\Dropbox\FAUSTO\SVILUPPI\MSX\CODE\C\MSXgl\projects\exsoccer/exsoccer_s1_b2.c:1383: case DIRECTION_DOWN_RIGHT:
    00002C8A                       7451 00217$:
                                   7452 ;E:\Dropbox\FAUSTO\SVILUPPI\MSX\CODE\C\MSXgl\projects\exsoccer/exsoccer_s1_b2.c:1384: g_Players[playerId].Y += diagStep;
    00002C8A DD 6E F1         [19] 7453 	ld	l, -15 (ix)
    00002C8D DD 66 F2         [19] 7454 	ld	h, -14 (ix)
    00002C90 7E               [ 7] 7455 	ld	a, (hl)
    00002C91 23               [ 6] 7456 	inc	hl
    00002C92 66               [ 7] 7457 	ld	h, (hl)
                                   7458 ;	spillPairReg hl
    00002C93 6F               [ 4] 7459 	ld	l, a
                                   7460 ;	spillPairReg hl
                                   7461 ;	spillPairReg hl
    00002C94 DD 5E F8         [19] 7462 	ld	e, -8 (ix)
    00002C97 16 00            [ 7] 7463 	ld	d, #0x00
    00002C99 19               [11] 7464 	add	hl, de
    00002C9A E3               [19] 7465 	ex	(sp), hl
    00002C9B DD 6E F1         [19] 7466 	ld	l, -15 (ix)
    00002C9E DD 66 F2         [19] 7467 	ld	h, -14 (ix)
    00002CA1 DD 7E C3         [19] 7468 	ld	a, -61 (ix)
    00002CA4 77               [ 7] 7469 	ld	(hl), a
    00002CA5 23               [ 6] 7470 	inc	hl
    00002CA6 DD 7E C4         [19] 7471 	ld	a, -60 (ix)
    00002CA9 77               [ 7] 7472 	ld	(hl), a
                                   7473 ;E:\Dropbox\FAUSTO\SVILUPPI\MSX\CODE\C\MSXgl\projects\exsoccer/exsoccer_s1_b2.c:1385: g_Players[playerId].X += diagStep;
    00002CAA DD 6E FB         [19] 7474 	ld	l, -5 (ix)
    00002CAD DD 66 FC         [19] 7475 	ld	h, -4 (ix)
    00002CB0 7E               [ 7] 7476 	ld	a, (hl)
    00002CB1 23               [ 6] 7477 	inc	hl
    00002CB2 66               [ 7] 7478 	ld	h, (hl)
                                   7479 ;	spillPairReg hl
    00002CB3 6F               [ 4] 7480 	ld	l, a
                                   7481 ;	spillPairReg hl
                                   7482 ;	spillPairReg hl
    00002CB4 19               [11] 7483 	add	hl, de
    00002CB5 DD 75 F8         [19] 7484 	ld	-8 (ix), l
    00002CB8 DD 74 F9         [19] 7485 	ld	-7 (ix), h
    00002CBB DD 6E FB         [19] 7486 	ld	l, -5 (ix)
    00002CBE DD 66 FC         [19] 7487 	ld	h, -4 (ix)
    00002CC1 DD 7E F8         [19] 7488 	ld	a, -8 (ix)
    00002CC4 77               [ 7] 7489 	ld	(hl), a
    00002CC5 23               [ 6] 7490 	inc	hl
    00002CC6 DD 7E F9         [19] 7491 	ld	a, -7 (ix)
    00002CC9 77               [ 7] 7492 	ld	(hl), a
                                   7493 ;E:\Dropbox\FAUSTO\SVILUPPI\MSX\CODE\C\MSXgl\projects\exsoccer/exsoccer_s1_b2.c:1386: g_Ball.Y = g_Players[playerId].Y + distY + BallAlignCorrectY[moveDir];
    00002CCA DD 6E FA         [19] 7494 	ld	l, -6 (ix)
                                   7495 ;	spillPairReg hl
                                   7496 ;	spillPairReg hl
    00002CCD 26 00            [ 7] 7497 	ld	h, #0x00
                                   7498 ;	spillPairReg hl
                                   7499 ;	spillPairReg hl
    00002CCF D1               [10] 7500 	pop	de
    00002CD0 D5               [11] 7501 	push	de
    00002CD1 19               [11] 7502 	add	hl, de
    00002CD2 E5               [11] 7503 	push	hl
    00002CD3 DD 5E F5         [19] 7504 	ld	e, -11 (ix)
    00002CD6 16 00            [ 7] 7505 	ld	d, #0x00
    00002CD8 21 1F 00         [10] 7506 	ld	hl, #31
    00002CDB 39               [11] 7507 	add	hl, sp
    00002CDC 19               [11] 7508 	add	hl, de
    00002CDD D1               [10] 7509 	pop	de
    00002CDE 7E               [ 7] 7510 	ld	a, (hl)
    00002CDF 6F               [ 4] 7511 	ld	l, a
                                   7512 ;	spillPairReg hl
                                   7513 ;	spillPairReg hl
    00002CE0 07               [ 4] 7514 	rlca
    00002CE1 9F               [ 4] 7515 	sbc	a, a
    00002CE2 67               [ 4] 7516 	ld	h, a
                                   7517 ;	spillPairReg hl
                                   7518 ;	spillPairReg hl
    00002CE3 19               [11] 7519 	add	hl, de
    00002CE4 EB               [ 4] 7520 	ex	de, hl
    00002CE5 ED 53r00r00      [20] 7521 	ld	(_g_Ball), de
                                   7522 ;E:\Dropbox\FAUSTO\SVILUPPI\MSX\CODE\C\MSXgl\projects\exsoccer/exsoccer_s1_b2.c:1387: g_Ball.X = g_Players[playerId].X + distX + BallAlignCorrectX[moveDir];
    00002CE9 DD 6E FD         [19] 7523 	ld	l, -3 (ix)
                                   7524 ;	spillPairReg hl
                                   7525 ;	spillPairReg hl
    00002CEC 26 00            [ 7] 7526 	ld	h, #0x00
                                   7527 ;	spillPairReg hl
                                   7528 ;	spillPairReg hl
    00002CEE DD 5E F8         [19] 7529 	ld	e, -8 (ix)
    00002CF1 DD 56 F9         [19] 7530 	ld	d, -7 (ix)
    00002CF4 19               [11] 7531 	add	hl, de
    00002CF5 E5               [11] 7532 	push	hl
    00002CF6 DD 5E F5         [19] 7533 	ld	e, -11 (ix)
    00002CF9 16 00            [ 7] 7534 	ld	d, #0x00
    00002CFB 21 16 00         [10] 7535 	ld	hl, #22
    00002CFE 39               [11] 7536 	add	hl, sp
    00002CFF 19               [11] 7537 	add	hl, de
    00002D00 D1               [10] 7538 	pop	de
    00002D01 7E               [ 7] 7539 	ld	a, (hl)
    00002D02 6F               [ 4] 7540 	ld	l, a
                                   7541 ;	spillPairReg hl
                                   7542 ;	spillPairReg hl
    00002D03 07               [ 4] 7543 	rlca
    00002D04 9F               [ 4] 7544 	sbc	a, a
    00002D05 67               [ 4] 7545 	ld	h, a
                                   7546 ;	spillPairReg hl
                                   7547 ;	spillPairReg hl
    00002D06 19               [11] 7548 	add	hl, de
    00002D07 EB               [ 4] 7549 	ex	de, hl
    00002D08 ED 53r02r00      [20] 7550 	ld	((_g_Ball + 2)), de
                                   7551 ;E:\Dropbox\FAUSTO\SVILUPPI\MSX\CODE\C\MSXgl\projects\exsoccer/exsoccer_s1_b2.c:1388: break;
    00002D0C C3r96r2D         [10] 7552 	jp	00219$
                                   7553 ;E:\Dropbox\FAUSTO\SVILUPPI\MSX\CODE\C\MSXgl\projects\exsoccer/exsoccer_s1_b2.c:1389: case DIRECTION_DOWN_LEFT:
    00002D0F                       7554 00218$:
                                   7555 ;E:\Dropbox\FAUSTO\SVILUPPI\MSX\CODE\C\MSXgl\projects\exsoccer/exsoccer_s1_b2.c:1390: g_Players[playerId].Y += diagStep;
    00002D0F DD 6E F1         [19] 7556 	ld	l, -15 (ix)
    00002D12 DD 66 F2         [19] 7557 	ld	h, -14 (ix)
    00002D15 5E               [ 7] 7558 	ld	e, (hl)
    00002D16 23               [ 6] 7559 	inc	hl
    00002D17 56               [ 7] 7560 	ld	d, (hl)
    00002D18 DD 6E F8         [19] 7561 	ld	l, -8 (ix)
                                   7562 ;	spillPairReg hl
                                   7563 ;	spillPairReg hl
    00002D1B 26 00            [ 7] 7564 	ld	h, #0x00
                                   7565 ;	spillPairReg hl
                                   7566 ;	spillPairReg hl
    00002D1D DD 75 F8         [19] 7567 	ld	-8 (ix), l
    00002D20 DD 74 F9         [19] 7568 	ld	-7 (ix), h
    00002D23 19               [11] 7569 	add	hl, de
    00002D24 EB               [ 4] 7570 	ex	de, hl
    00002D25 DD 6E F1         [19] 7571 	ld	l, -15 (ix)
    00002D28 DD 66 F2         [19] 7572 	ld	h, -14 (ix)
    00002D2B 73               [ 7] 7573 	ld	(hl), e
    00002D2C 23               [ 6] 7574 	inc	hl
    00002D2D 72               [ 7] 7575 	ld	(hl), d
                                   7576 ;E:\Dropbox\FAUSTO\SVILUPPI\MSX\CODE\C\MSXgl\projects\exsoccer/exsoccer_s1_b2.c:1391: g_Players[playerId].X -= diagStep;
    00002D2E DD 6E FB         [19] 7577 	ld	l, -5 (ix)
    00002D31 DD 66 FC         [19] 7578 	ld	h, -4 (ix)
    00002D34 7E               [ 7] 7579 	ld	a, (hl)
    00002D35 23               [ 6] 7580 	inc	hl
    00002D36 66               [ 7] 7581 	ld	h, (hl)
                                   7582 ;	spillPairReg hl
                                   7583 ;	spillPairReg hl
                                   7584 ;	spillPairReg hl
    00002D37 DD 96 F8         [19] 7585 	sub	a, -8 (ix)
    00002D3A 6F               [ 4] 7586 	ld	l, a
                                   7587 ;	spillPairReg hl
                                   7588 ;	spillPairReg hl
    00002D3B 7C               [ 4] 7589 	ld	a, h
    00002D3C DD 9E F9         [19] 7590 	sbc	a, -7 (ix)
    00002D3F DD 75 F8         [19] 7591 	ld	-8 (ix), l
    00002D42 DD 77 F9         [19] 7592 	ld	-7 (ix), a
    00002D45 DD 6E FB         [19] 7593 	ld	l, -5 (ix)
    00002D48 DD 66 FC         [19] 7594 	ld	h, -4 (ix)
    00002D4B DD 7E F8         [19] 7595 	ld	a, -8 (ix)
    00002D4E 77               [ 7] 7596 	ld	(hl), a
    00002D4F 23               [ 6] 7597 	inc	hl
    00002D50 DD 7E F9         [19] 7598 	ld	a, -7 (ix)
    00002D53 77               [ 7] 7599 	ld	(hl), a
                                   7600 ;E:\Dropbox\FAUSTO\SVILUPPI\MSX\CODE\C\MSXgl\projects\exsoccer/exsoccer_s1_b2.c:1392: g_Ball.Y = g_Players[playerId].Y + distY + BallAlignCorrectY[moveDir];
    00002D54 DD 6E FA         [19] 7601 	ld	l, -6 (ix)
                                   7602 ;	spillPairReg hl
                                   7603 ;	spillPairReg hl
    00002D57 26 00            [ 7] 7604 	ld	h, #0x00
                                   7605 ;	spillPairReg hl
                                   7606 ;	spillPairReg hl
    00002D59 19               [11] 7607 	add	hl, de
    00002D5A E5               [11] 7608 	push	hl
    00002D5B DD 5E F5         [19] 7609 	ld	e, -11 (ix)
    00002D5E 16 00            [ 7] 7610 	ld	d, #0x00
    00002D60 21 1F 00         [10] 7611 	ld	hl, #31
    00002D63 39               [11] 7612 	add	hl, sp
    00002D64 19               [11] 7613 	add	hl, de
    00002D65 D1               [10] 7614 	pop	de
    00002D66 7E               [ 7] 7615 	ld	a, (hl)
    00002D67 6F               [ 4] 7616 	ld	l, a
                                   7617 ;	spillPairReg hl
                                   7618 ;	spillPairReg hl
    00002D68 07               [ 4] 7619 	rlca
    00002D69 9F               [ 4] 7620 	sbc	a, a
    00002D6A 67               [ 4] 7621 	ld	h, a
                                   7622 ;	spillPairReg hl
                                   7623 ;	spillPairReg hl
    00002D6B 19               [11] 7624 	add	hl, de
    00002D6C EB               [ 4] 7625 	ex	de, hl
    00002D6D ED 53r00r00      [20] 7626 	ld	(_g_Ball), de
                                   7627 ;E:\Dropbox\FAUSTO\SVILUPPI\MSX\CODE\C\MSXgl\projects\exsoccer/exsoccer_s1_b2.c:1393: g_Ball.X = g_Players[playerId].X - distX + BallAlignCorrectX[moveDir];
    00002D71 DD 5E FD         [19] 7628 	ld	e, -3 (ix)
    00002D74 16 00            [ 7] 7629 	ld	d, #0x00
    00002D76 DD 6E F8         [19] 7630 	ld	l, -8 (ix)
                                   7631 ;	spillPairReg hl
                                   7632 ;	spillPairReg hl
    00002D79 DD 66 F9         [19] 7633 	ld	h, -7 (ix)
                                   7634 ;	spillPairReg hl
                                   7635 ;	spillPairReg hl
    00002D7C BF               [ 4] 7636 	cp	a, a
    00002D7D ED 52            [15] 7637 	sbc	hl, de
    00002D7F E5               [11] 7638 	push	hl
    00002D80 DD 5E F5         [19] 7639 	ld	e, -11 (ix)
    00002D83 16 00            [ 7] 7640 	ld	d, #0x00
    00002D85 21 16 00         [10] 7641 	ld	hl, #22
    00002D88 39               [11] 7642 	add	hl, sp
    00002D89 19               [11] 7643 	add	hl, de
    00002D8A D1               [10] 7644 	pop	de
    00002D8B 7E               [ 7] 7645 	ld	a, (hl)
    00002D8C 6F               [ 4] 7646 	ld	l, a
                                   7647 ;	spillPairReg hl
                                   7648 ;	spillPairReg hl
    00002D8D 07               [ 4] 7649 	rlca
    00002D8E 9F               [ 4] 7650 	sbc	a, a
    00002D8F 67               [ 4] 7651 	ld	h, a
                                   7652 ;	spillPairReg hl
                                   7653 ;	spillPairReg hl
    00002D90 19               [11] 7654 	add	hl, de
    00002D91 EB               [ 4] 7655 	ex	de, hl
    00002D92 ED 53r02r00      [20] 7656 	ld	((_g_Ball + 2)), de
                                   7657 ;E:\Dropbox\FAUSTO\SVILUPPI\MSX\CODE\C\MSXgl\projects\exsoccer/exsoccer_s1_b2.c:1395: }
    00002D96                       7658 00219$:
                                   7659 ;E:\Dropbox\FAUSTO\SVILUPPI\MSX\CODE\C\MSXgl\projects\exsoccer/exsoccer_s1_b2.c:1396: g_Players[playerId].TargetY=g_Players[playerId].Y;
    00002D96 DD 7E F1         [19] 7660 	ld	a, -15 (ix)
    00002D99 C6 0E            [ 7] 7661 	add	a, #0x0e
    00002D9B DD 77 F9         [19] 7662 	ld	-7 (ix), a
    00002D9E DD 7E F2         [19] 7663 	ld	a, -14 (ix)
    00002DA1 CE 00            [ 7] 7664 	adc	a, #0x00
    00002DA3 DD 77 FA         [19] 7665 	ld	-6 (ix), a
    00002DA6 DD 6E F1         [19] 7666 	ld	l, -15 (ix)
    00002DA9 DD 66 F2         [19] 7667 	ld	h, -14 (ix)
    00002DAC 5E               [ 7] 7668 	ld	e, (hl)
    00002DAD 23               [ 6] 7669 	inc	hl
    00002DAE 56               [ 7] 7670 	ld	d, (hl)
    00002DAF DD 6E F9         [19] 7671 	ld	l, -7 (ix)
    00002DB2 DD 66 FA         [19] 7672 	ld	h, -6 (ix)
    00002DB5 73               [ 7] 7673 	ld	(hl), e
    00002DB6 23               [ 6] 7674 	inc	hl
    00002DB7 72               [ 7] 7675 	ld	(hl), d
                                   7676 ;E:\Dropbox\FAUSTO\SVILUPPI\MSX\CODE\C\MSXgl\projects\exsoccer/exsoccer_s1_b2.c:1397: g_Players[playerId].TargetX=g_Players[playerId].X;
    00002DB8 DD 7E F1         [19] 7677 	ld	a, -15 (ix)
    00002DBB C6 10            [ 7] 7678 	add	a, #0x10
    00002DBD DD 77 F9         [19] 7679 	ld	-7 (ix), a
    00002DC0 DD 7E F2         [19] 7680 	ld	a, -14 (ix)
    00002DC3 CE 00            [ 7] 7681 	adc	a, #0x00
    00002DC5 DD 77 FA         [19] 7682 	ld	-6 (ix), a
    00002DC8 DD 6E FB         [19] 7683 	ld	l, -5 (ix)
    00002DCB DD 66 FC         [19] 7684 	ld	h, -4 (ix)
    00002DCE 5E               [ 7] 7685 	ld	e, (hl)
    00002DCF 23               [ 6] 7686 	inc	hl
    00002DD0 56               [ 7] 7687 	ld	d, (hl)
    00002DD1 DD 6E F9         [19] 7688 	ld	l, -7 (ix)
    00002DD4 DD 66 FA         [19] 7689 	ld	h, -6 (ix)
    00002DD7 73               [ 7] 7690 	ld	(hl), e
    00002DD8 23               [ 6] 7691 	inc	hl
    00002DD9 72               [ 7] 7692 	ld	(hl), d
                                   7693 ;E:\Dropbox\FAUSTO\SVILUPPI\MSX\CODE\C\MSXgl\projects\exsoccer/exsoccer_s1_b2.c:1398: g_Players[playerId].Status=PLAYER_STATUS_HAS_BALL; 
    00002DDA DD 6E F3         [19] 7694 	ld	l, -13 (ix)
    00002DDD DD 66 F4         [19] 7695 	ld	h, -12 (ix)
    00002DE0 36 01            [10] 7696 	ld	(hl), #0x01
    00002DE2 23               [ 6] 7697 	inc	hl
    00002DE3 36 00            [10] 7698 	ld	(hl), #0x00
                                   7699 ;E:\Dropbox\FAUSTO\SVILUPPI\MSX\CODE\C\MSXgl\projects\exsoccer/exsoccer_s1_b2.c:1399: g_Players[playerId].Direction=moveDir;
    00002DE5 DD 7E F1         [19] 7700 	ld	a, -15 (ix)
    00002DE8 C6 0A            [ 7] 7701 	add	a, #0x0a
    00002DEA 5F               [ 4] 7702 	ld	e, a
    00002DEB DD 7E F2         [19] 7703 	ld	a, -14 (ix)
    00002DEE CE 00            [ 7] 7704 	adc	a, #0x00
    00002DF0 57               [ 4] 7705 	ld	d, a
    00002DF1 DD 7E F5         [19] 7706 	ld	a, -11 (ix)
    00002DF4 12               [ 7] 7707 	ld	(de), a
                                   7708 ;E:\Dropbox\FAUSTO\SVILUPPI\MSX\CODE\C\MSXgl\projects\exsoccer/exsoccer_s1_b2.c:1401: g_Players[playerId].PatternId=GetNoMovingPlayerPatternId(g_Players[playerId].PreviousDirection);
    00002DF5 DD 7E F1         [19] 7709 	ld	a, -15 (ix)
    00002DF8 C6 08            [ 7] 7710 	add	a, #0x08
    00002DFA DD 77 FC         [19] 7711 	ld	-4 (ix), a
    00002DFD DD 7E F2         [19] 7712 	ld	a, -14 (ix)
    00002E00 CE 00            [ 7] 7713 	adc	a, #0x00
    00002E02 DD 77 FD         [19] 7714 	ld	-3 (ix), a
    00002E05 DD 6E F6         [19] 7715 	ld	l, -10 (ix)
    00002E08 DD 66 F7         [19] 7716 	ld	h, -9 (ix)
    00002E0B 6E               [ 7] 7717 	ld	l, (hl)
                                   7718 ;	spillPairReg hl
    00002E0C C5               [11] 7719 	push	bc
    00002E0D D5               [11] 7720 	push	de
    00002E0E 7D               [ 4] 7721 	ld	a, l
    00002E0F CDr00r00         [17] 7722 	call	_GetNoMovingPlayerPatternId
    00002E12 D1               [10] 7723 	pop	de
    00002E13 C1               [10] 7724 	pop	bc
    00002E14 DD 6E FC         [19] 7725 	ld	l, -4 (ix)
    00002E17 DD 66 FD         [19] 7726 	ld	h, -3 (ix)
    00002E1A 77               [ 7] 7727 	ld	(hl), a
                                   7728 ;E:\Dropbox\FAUSTO\SVILUPPI\MSX\CODE\C\MSXgl\projects\exsoccer/exsoccer_s1_b2.c:1402: g_Players[playerId].PreviousDirection=g_Players[playerId].Direction;
    00002E1B 1A               [ 7] 7729 	ld	a, (de)
    00002E1C DD 6E F6         [19] 7730 	ld	l, -10 (ix)
    00002E1F DD 66 F7         [19] 7731 	ld	h, -9 (ix)
    00002E22 77               [ 7] 7732 	ld	(hl), a
                                   7733 ;E:\Dropbox\FAUSTO\SVILUPPI\MSX\CODE\C\MSXgl\projects\exsoccer/exsoccer_s1_b2.c:1404: g_Ball.Direction = moveDir;
    00002E23 21r05r00         [10] 7734 	ld	hl, #(_g_Ball + 5)
    00002E26 DD 7E F5         [19] 7735 	ld	a, -11 (ix)
    00002E29 77               [ 7] 7736 	ld	(hl), a
                                   7737 ;E:\Dropbox\FAUSTO\SVILUPPI\MSX\CODE\C\MSXgl\projects\exsoccer/exsoccer_s1_b2.c:1406: g_Ball.KickMoveState++;
    00002E2A 0A               [ 7] 7738 	ld	a, (bc)
    00002E2B 3C               [ 4] 7739 	inc	a
    00002E2C 5F               [ 4] 7740 	ld	e, a
    00002E2D 02               [ 7] 7741 	ld	(bc), a
                                   7742 ;E:\Dropbox\FAUSTO\SVILUPPI\MSX\CODE\C\MSXgl\projects\exsoccer/exsoccer_s1_b2.c:1407: if(g_Ball.KickMoveState>3){
    00002E2E 3E 03            [ 7] 7743 	ld	a, #0x03
    00002E30 93               [ 4] 7744 	sub	a, e
    00002E31 30 02            [12] 7745 	jr	NC, 00221$
                                   7746 ;E:\Dropbox\FAUSTO\SVILUPPI\MSX\CODE\C\MSXgl\projects\exsoccer/exsoccer_s1_b2.c:1408: g_Ball.KickMoveState=0;
    00002E33 AF               [ 4] 7747 	xor	a, a
    00002E34 02               [ 7] 7748 	ld	(bc), a
    00002E35                       7749 00221$:
                                   7750 ;E:\Dropbox\FAUSTO\SVILUPPI\MSX\CODE\C\MSXgl\projects\exsoccer/exsoccer_s1_b2.c:1410: if(g_Ball.KickMoveState==1) EffectPlay(SOUND_BALL);
    00002E35 0A               [ 7] 7751 	ld	a, (bc)
    00002E36 3D               [ 4] 7752 	dec	a
    00002E37 C2r36r30         [10] 7753 	jp	NZ,00263$
    00002E3A 3E 0E            [ 7] 7754 	ld	a, #0x0e
    00002E3C CDr00r00         [17] 7755 	call	_EffectPlay
    00002E3F C3r36r30         [10] 7756 	jp	00263$
    00002E42                       7757 00261$:
                                   7758 ;E:\Dropbox\FAUSTO\SVILUPPI\MSX\CODE\C\MSXgl\projects\exsoccer/exsoccer_s1_b2.c:1416: if (frameTriggerPressed) {
    00002E42 DD 7E C4         [19] 7759 	ld	a, -60 (ix)
    00002E45 B7               [ 4] 7760 	or	a, a
    00002E46 CArF1r2E         [10] 7761 	jp	Z, 00246$
                                   7762 ;E:\Dropbox\FAUSTO\SVILUPPI\MSX\CODE\C\MSXgl\projects\exsoccer/exsoccer_s1_b2.c:1417: i16 dx = (i16)g_Players[playerId].X - (i16)g_Ball.X;
    00002E49 DD 6E F1         [19] 7763 	ld	l, -15 (ix)
                                   7764 ;	spillPairReg hl
                                   7765 ;	spillPairReg hl
    00002E4C DD 66 F2         [19] 7766 	ld	h, -14 (ix)
                                   7767 ;	spillPairReg hl
                                   7768 ;	spillPairReg hl
    00002E4F 23               [ 6] 7769 	inc	hl
    00002E50 23               [ 6] 7770 	inc	hl
    00002E51 4E               [ 7] 7771 	ld	c, (hl)
    00002E52 23               [ 6] 7772 	inc	hl
    00002E53 46               [ 7] 7773 	ld	b, (hl)
    00002E54 2Ar02r00         [16] 7774 	ld	hl, (#_g_Ball + 2)
    00002E57 79               [ 4] 7775 	ld	a, c
    00002E58 95               [ 4] 7776 	sub	a, l
    00002E59 4F               [ 4] 7777 	ld	c, a
    00002E5A 78               [ 4] 7778 	ld	a, b
    00002E5B 9C               [ 4] 7779 	sbc	a, h
    00002E5C 47               [ 4] 7780 	ld	b, a
                                   7781 ;E:\Dropbox\FAUSTO\SVILUPPI\MSX\CODE\C\MSXgl\projects\exsoccer/exsoccer_s1_b2.c:1418: i16 dy = (i16)g_Players[playerId].Y - (i16)g_Ball.Y;
    00002E5D DD 6E F1         [19] 7782 	ld	l, -15 (ix)
    00002E60 DD 66 F2         [19] 7783 	ld	h, -14 (ix)
    00002E63 5E               [ 7] 7784 	ld	e, (hl)
    00002E64 23               [ 6] 7785 	inc	hl
    00002E65 56               [ 7] 7786 	ld	d, (hl)
    00002E66 2Ar00r00         [16] 7787 	ld	hl, (#_g_Ball + 0)
    00002E69 7B               [ 4] 7788 	ld	a, e
    00002E6A 95               [ 4] 7789 	sub	a, l
    00002E6B 5F               [ 4] 7790 	ld	e, a
    00002E6C 7A               [ 4] 7791 	ld	a, d
    00002E6D 9C               [ 4] 7792 	sbc	a, h
    00002E6E 57               [ 4] 7793 	ld	d, a
                                   7794 ;E:\Dropbox\FAUSTO\SVILUPPI\MSX\CODE\C\MSXgl\projects\exsoccer/exsoccer_s1_b2.c:1421: if (dx > -16 && dx < 16 && dy > -16 && dy < 16) {
    00002E6F 3E F0            [ 7] 7795 	ld	a, #0xf0
    00002E71 B9               [ 4] 7796 	cp	a, c
    00002E72 3E FF            [ 7] 7797 	ld	a, #0xff
    00002E74 98               [ 4] 7798 	sbc	a, b
    00002E75 E2r7Ar2E         [10] 7799 	jp	PO, 00789$
    00002E78 EE 80            [ 7] 7800 	xor	a, #0x80
    00002E7A                       7801 00789$:
    00002E7A F2rF1r2E         [10] 7802 	jp	P, 00246$
    00002E7D 79               [ 4] 7803 	ld	a, c
    00002E7E D6 10            [ 7] 7804 	sub	a, #0x10
    00002E80 78               [ 4] 7805 	ld	a, b
    00002E81 17               [ 4] 7806 	rla
    00002E82 3F               [ 4] 7807 	ccf
    00002E83 1F               [ 4] 7808 	rra
    00002E84 DE 80            [ 7] 7809 	sbc	a, #0x80
    00002E86 30 69            [12] 7810 	jr	NC, 00246$
    00002E88 3E F0            [ 7] 7811 	ld	a, #0xf0
    00002E8A BB               [ 4] 7812 	cp	a, e
    00002E8B 3E FF            [ 7] 7813 	ld	a, #0xff
    00002E8D 9A               [ 4] 7814 	sbc	a, d
    00002E8E E2r93r2E         [10] 7815 	jp	PO, 00790$
    00002E91 EE 80            [ 7] 7816 	xor	a, #0x80
    00002E93                       7817 00790$:
    00002E93 F2rF1r2E         [10] 7818 	jp	P, 00246$
    00002E96 7B               [ 4] 7819 	ld	a, e
    00002E97 D6 10            [ 7] 7820 	sub	a, #0x10
    00002E99 7A               [ 4] 7821 	ld	a, d
    00002E9A 17               [ 4] 7822 	rla
    00002E9B 3F               [ 4] 7823 	ccf
    00002E9C 1F               [ 4] 7824 	rra
    00002E9D DE 80            [ 7] 7825 	sbc	a, #0x80
    00002E9F 30 50            [12] 7826 	jr	NC, 00246$
                                   7827 ;E:\Dropbox\FAUSTO\SVILUPPI\MSX\CODE\C\MSXgl\projects\exsoccer/exsoccer_s1_b2.c:1432: if (dx < 0) slidePose = PLAYER_POSE_TACKLE_FROM_UP_LEFT;    // UP-LEFT -> Slides towards Bottom-Right?
    00002EA1 78               [ 4] 7828 	ld	a, b
    00002EA2 07               [ 4] 7829 	rlca
    00002EA3 E6 01            [ 7] 7830 	and	a,#0x01
    00002EA5 4F               [ 4] 7831 	ld	c, a
                                   7832 ;E:\Dropbox\FAUSTO\SVILUPPI\MSX\CODE\C\MSXgl\projects\exsoccer/exsoccer_s1_b2.c:1430: if (dy < 0) {
    00002EA6 CB 7A            [ 8] 7833 	bit	7, d
    00002EA8 28 0E            [12] 7834 	jr	Z, 00234$
                                   7835 ;E:\Dropbox\FAUSTO\SVILUPPI\MSX\CODE\C\MSXgl\projects\exsoccer/exsoccer_s1_b2.c:1432: if (dx < 0) slidePose = PLAYER_POSE_TACKLE_FROM_UP_LEFT;    // UP-LEFT -> Slides towards Bottom-Right?
    00002EAA 79               [ 4] 7836 	ld	a, c
    00002EAB B7               [ 4] 7837 	or	a, a
    00002EAC 28 05            [12] 7838 	jr	Z, 00228$
    00002EAE 06 24            [ 7] 7839 	ld	b, #0x24
    00002EB0 C3rC3r2E         [10] 7840 	jp	00235$
    00002EB3                       7841 00228$:
                                   7842 ;E:\Dropbox\FAUSTO\SVILUPPI\MSX\CODE\C\MSXgl\projects\exsoccer/exsoccer_s1_b2.c:1433: else        slidePose = PLAYER_POSE_TACKLE_FROM_UP_RIGHT;   // UP-RIGHT -> Slides towards Bottom-Left?
    00002EB3 06 AC            [ 7] 7843 	ld	b, #0xac
    00002EB5 C3rC3r2E         [10] 7844 	jp	00235$
    00002EB8                       7845 00234$:
                                   7846 ;E:\Dropbox\FAUSTO\SVILUPPI\MSX\CODE\C\MSXgl\projects\exsoccer/exsoccer_s1_b2.c:1436: if (dx < 0) slidePose = PLAYER_POSE_TACKLE_FROM_DOWN_LEFT;  // DOWN-LEFT -> Slides towards Top-Right?
    00002EB8 79               [ 4] 7847 	ld	a, c
    00002EB9 B7               [ 4] 7848 	or	a, a
    00002EBA 28 05            [12] 7849 	jr	Z, 00231$
    00002EBC 06 22            [ 7] 7850 	ld	b, #0x22
    00002EBE C3rC3r2E         [10] 7851 	jp	00235$
    00002EC1                       7852 00231$:
                                   7853 ;E:\Dropbox\FAUSTO\SVILUPPI\MSX\CODE\C\MSXgl\projects\exsoccer/exsoccer_s1_b2.c:1437: else        slidePose = PLAYER_POSE_TACKLE_FROM_DOWN_RIGHT; // DOWN-RIGHT -> Slides towards Top-Left?
    00002EC1 06 AE            [ 7] 7854 	ld	b, #0xae
    00002EC3                       7855 00235$:
                                   7856 ;E:\Dropbox\FAUSTO\SVILUPPI\MSX\CODE\C\MSXgl\projects\exsoccer/exsoccer_s1_b2.c:1440: if (slidePose != 0) {
    00002EC3 78               [ 4] 7857 	ld	a, b
    00002EC4 B7               [ 4] 7858 	or	a, a
    00002EC5 28 0B            [12] 7859 	jr	Z, 00237$
                                   7860 ;E:\Dropbox\FAUSTO\SVILUPPI\MSX\CODE\C\MSXgl\projects\exsoccer/exsoccer_s1_b2.c:1441: g_Players[playerId].PatternId = slidePose;
    00002EC7 DD 6E F1         [19] 7861 	ld	l, -15 (ix)
    00002ECA DD 66 F2         [19] 7862 	ld	h, -14 (ix)
    00002ECD 11 08 00         [10] 7863 	ld	de, #0x0008
    00002ED0 19               [11] 7864 	add	hl, de
    00002ED1 70               [ 7] 7865 	ld	(hl), b
    00002ED2                       7866 00237$:
                                   7867 ;E:\Dropbox\FAUSTO\SVILUPPI\MSX\CODE\C\MSXgl\projects\exsoccer/exsoccer_s1_b2.c:1445: PutBallOnPlayerFeet(playerId);
    00002ED2 C5               [11] 7868 	push	bc
    00002ED3 DD 7E FD         [19] 7869 	ld	a, -3 (ix)
    00002ED6 CDr00r00         [17] 7870 	call	_PutBallOnPlayerFeet
    00002ED9 C1               [10] 7871 	pop	bc
                                   7872 ;E:\Dropbox\FAUSTO\SVILUPPI\MSX\CODE\C\MSXgl\projects\exsoccer/exsoccer_s1_b2.c:1447: if (slidePose != 0) {
    00002EDA 78               [ 4] 7873 	ld	a, b
    00002EDB B7               [ 4] 7874 	or	a, a
    00002EDC 28 0B            [12] 7875 	jr	Z, 00239$
                                   7876 ;E:\Dropbox\FAUSTO\SVILUPPI\MSX\CODE\C\MSXgl\projects\exsoccer/exsoccer_s1_b2.c:1448: g_Players[playerId].Status = PLAYER_STATUS_POSITIONED; // Lock visual (Override HAS_BALL)
    00002EDE DD 6E F3         [19] 7877 	ld	l, -13 (ix)
    00002EE1 DD 66 F4         [19] 7878 	ld	h, -12 (ix)
    00002EE4 36 04            [10] 7879 	ld	(hl), #0x04
    00002EE6 23               [ 6] 7880 	inc	hl
    00002EE7 36 00            [10] 7881 	ld	(hl), #0x00
    00002EE9                       7882 00239$:
                                   7883 ;E:\Dropbox\FAUSTO\SVILUPPI\MSX\CODE\C\MSXgl\projects\exsoccer/exsoccer_s1_b2.c:1451: g_ActionCooldown = 15; // Set 15 frames cooldown to avoid immediate pass
    00002EE9 21r00r00         [10] 7884 	ld	hl, #_g_ActionCooldown
    00002EEC 36 0F            [10] 7885 	ld	(hl), #0x0f
                                   7886 ;E:\Dropbox\FAUSTO\SVILUPPI\MSX\CODE\C\MSXgl\projects\exsoccer/exsoccer_s1_b2.c:1452: return;
    00002EEE C3r36r30         [10] 7887 	jp	00263$
    00002EF1                       7888 00246$:
                                   7889 ;E:\Dropbox\FAUSTO\SVILUPPI\MSX\CODE\C\MSXgl\projects\exsoccer/exsoccer_s1_b2.c:1456: if((g_FrameCounter % 3)!=0){ 
    00002EF1 2Ar00r00         [16] 7890 	ld	hl, (_g_FrameCounter)
    00002EF4 11 03 00         [10] 7891 	ld	de, #0x0003
    00002EF7 CDr00r00         [17] 7892 	call	__moduint
    00002EFA 7A               [ 4] 7893 	ld	a, d
    00002EFB B3               [ 4] 7894 	or	a, e
                                   7895 ;E:\Dropbox\FAUSTO\SVILUPPI\MSX\CODE\C\MSXgl\projects\exsoccer/exsoccer_s1_b2.c:1457: return;
    00002EFC C2r36r30         [10] 7896 	jp	NZ,00263$
                                   7897 ;E:\Dropbox\FAUSTO\SVILUPPI\MSX\CODE\C\MSXgl\projects\exsoccer/exsoccer_s1_b2.c:1194: i16 dx = (i16)g_Players[playerId].X - (i16)g_Ball.X;
    00002EFF DD 7E F1         [19] 7898 	ld	a, -15 (ix)
    00002F02 C6 02            [ 7] 7899 	add	a, #0x02
    00002F04 DD 77 FC         [19] 7900 	ld	-4 (ix), a
    00002F07 DD 7E F2         [19] 7901 	ld	a, -14 (ix)
    00002F0A CE 00            [ 7] 7902 	adc	a, #0x00
    00002F0C DD 77 FD         [19] 7903 	ld	-3 (ix), a
                                   7904 ;E:\Dropbox\FAUSTO\SVILUPPI\MSX\CODE\C\MSXgl\projects\exsoccer/exsoccer_s1_b2.c:1463: if (direction <= 8) {
    00002F0F 3E 08            [ 7] 7905 	ld	a, #0x08
    00002F11 DD 96 FE         [19] 7906 	sub	a, -2 (ix)
    00002F14 38 44            [12] 7907 	jr	C, 00250$
                                   7908 ;E:\Dropbox\FAUSTO\SVILUPPI\MSX\CODE\C\MSXgl\projects\exsoccer/exsoccer_s1_b2.c:1464: g_Players[playerId].X += k_MoveDX[direction];
    00002F16 DD 6E FC         [19] 7909 	ld	l, -4 (ix)
    00002F19 DD 66 FD         [19] 7910 	ld	h, -3 (ix)
    00002F1C 4E               [ 7] 7911 	ld	c, (hl)
    00002F1D 23               [ 6] 7912 	inc	hl
    00002F1E 46               [ 7] 7913 	ld	b, (hl)
    00002F1F 11r3Br30         [10] 7914 	ld	de, #_TickTeamJoystick_k_MoveDX_131075_1438+0
    00002F22 DD 6E FE         [19] 7915 	ld	l, -2 (ix)
    00002F25 26 00            [ 7] 7916 	ld	h, #0x00
    00002F27 19               [11] 7917 	add	hl, de
    00002F28 7E               [ 7] 7918 	ld	a, (hl)
    00002F29 6F               [ 4] 7919 	ld	l, a
                                   7920 ;	spillPairReg hl
                                   7921 ;	spillPairReg hl
    00002F2A 07               [ 4] 7922 	rlca
    00002F2B 9F               [ 4] 7923 	sbc	a, a
    00002F2C 67               [ 4] 7924 	ld	h, a
                                   7925 ;	spillPairReg hl
                                   7926 ;	spillPairReg hl
    00002F2D 09               [11] 7927 	add	hl, bc
    00002F2E EB               [ 4] 7928 	ex	de, hl
    00002F2F DD 6E FC         [19] 7929 	ld	l, -4 (ix)
    00002F32 DD 66 FD         [19] 7930 	ld	h, -3 (ix)
    00002F35 73               [ 7] 7931 	ld	(hl), e
    00002F36 23               [ 6] 7932 	inc	hl
    00002F37 72               [ 7] 7933 	ld	(hl), d
                                   7934 ;E:\Dropbox\FAUSTO\SVILUPPI\MSX\CODE\C\MSXgl\projects\exsoccer/exsoccer_s1_b2.c:1465: g_Players[playerId].Y += k_MoveDY[direction];
    00002F38 DD 6E F1         [19] 7935 	ld	l, -15 (ix)
    00002F3B DD 66 F2         [19] 7936 	ld	h, -14 (ix)
    00002F3E 4E               [ 7] 7937 	ld	c, (hl)
    00002F3F 23               [ 6] 7938 	inc	hl
    00002F40 46               [ 7] 7939 	ld	b, (hl)
    00002F41 11r44r30         [10] 7940 	ld	de, #_TickTeamJoystick_k_MoveDY_131075_1438+0
    00002F44 DD 6E FE         [19] 7941 	ld	l, -2 (ix)
    00002F47 26 00            [ 7] 7942 	ld	h, #0x00
    00002F49 19               [11] 7943 	add	hl, de
    00002F4A 7E               [ 7] 7944 	ld	a, (hl)
    00002F4B 6F               [ 4] 7945 	ld	l, a
                                   7946 ;	spillPairReg hl
                                   7947 ;	spillPairReg hl
    00002F4C 07               [ 4] 7948 	rlca
    00002F4D 9F               [ 4] 7949 	sbc	a, a
    00002F4E 67               [ 4] 7950 	ld	h, a
                                   7951 ;	spillPairReg hl
                                   7952 ;	spillPairReg hl
    00002F4F 09               [11] 7953 	add	hl, bc
    00002F50 EB               [ 4] 7954 	ex	de, hl
    00002F51 DD 6E F1         [19] 7955 	ld	l, -15 (ix)
    00002F54 DD 66 F2         [19] 7956 	ld	h, -14 (ix)
    00002F57 73               [ 7] 7957 	ld	(hl), e
    00002F58 23               [ 6] 7958 	inc	hl
    00002F59 72               [ 7] 7959 	ld	(hl), d
    00002F5A                       7960 00250$:
                                   7961 ;E:\Dropbox\FAUSTO\SVILUPPI\MSX\CODE\C\MSXgl\projects\exsoccer/exsoccer_s1_b2.c:1469: if(g_Players[playerId].Y < FIELD_BOUND_Y_TOP) g_Players[playerId].Y = FIELD_BOUND_Y_TOP;
    00002F5A DD 6E F1         [19] 7962 	ld	l, -15 (ix)
    00002F5D DD 66 F2         [19] 7963 	ld	h, -14 (ix)
    00002F60 4E               [ 7] 7964 	ld	c, (hl)
    00002F61 23               [ 6] 7965 	inc	hl
    00002F62 46               [ 7] 7966 	ld	b, (hl)
    00002F63 79               [ 4] 7967 	ld	a, c
    00002F64 D6 32            [ 7] 7968 	sub	a, #0x32
    00002F66 78               [ 4] 7969 	ld	a, b
    00002F67 DE 00            [ 7] 7970 	sbc	a, #0x00
    00002F69 30 0B            [12] 7971 	jr	NC, 00252$
    00002F6B DD 6E F1         [19] 7972 	ld	l, -15 (ix)
    00002F6E DD 66 F2         [19] 7973 	ld	h, -14 (ix)
    00002F71 36 32            [10] 7974 	ld	(hl), #0x32
    00002F73 23               [ 6] 7975 	inc	hl
    00002F74 36 00            [10] 7976 	ld	(hl), #0x00
    00002F76                       7977 00252$:
                                   7978 ;E:\Dropbox\FAUSTO\SVILUPPI\MSX\CODE\C\MSXgl\projects\exsoccer/exsoccer_s1_b2.c:1470: if(g_Players[playerId].Y > FIELD_BOUND_Y_BOTTOM) g_Players[playerId].Y = FIELD_BOUND_Y_BOTTOM;
    00002F76 DD 6E F1         [19] 7979 	ld	l, -15 (ix)
    00002F79 DD 66 F2         [19] 7980 	ld	h, -14 (ix)
    00002F7C 4E               [ 7] 7981 	ld	c, (hl)
    00002F7D 23               [ 6] 7982 	inc	hl
    00002F7E 46               [ 7] 7983 	ld	b, (hl)
    00002F7F 3E AE            [ 7] 7984 	ld	a, #0xae
    00002F81 B9               [ 4] 7985 	cp	a, c
    00002F82 3E 01            [ 7] 7986 	ld	a, #0x01
    00002F84 98               [ 4] 7987 	sbc	a, b
    00002F85 30 0B            [12] 7988 	jr	NC, 00254$
    00002F87 DD 6E F1         [19] 7989 	ld	l, -15 (ix)
    00002F8A DD 66 F2         [19] 7990 	ld	h, -14 (ix)
    00002F8D 36 AE            [10] 7991 	ld	(hl), #0xae
    00002F8F 23               [ 6] 7992 	inc	hl
    00002F90 36 01            [10] 7993 	ld	(hl), #0x01
    00002F92                       7994 00254$:
                                   7995 ;E:\Dropbox\FAUSTO\SVILUPPI\MSX\CODE\C\MSXgl\projects\exsoccer/exsoccer_s1_b2.c:1472: g_Players[playerId].TargetY=g_Players[playerId].Y;
    00002F92 DD 7E F1         [19] 7996 	ld	a, -15 (ix)
    00002F95 C6 0E            [ 7] 7997 	add	a, #0x0e
    00002F97 4F               [ 4] 7998 	ld	c, a
    00002F98 DD 7E F2         [19] 7999 	ld	a, -14 (ix)
    00002F9B CE 00            [ 7] 8000 	adc	a, #0x00
    00002F9D 47               [ 4] 8001 	ld	b, a
    00002F9E DD 6E F1         [19] 8002 	ld	l, -15 (ix)
    00002FA1 DD 66 F2         [19] 8003 	ld	h, -14 (ix)
    00002FA4 5E               [ 7] 8004 	ld	e, (hl)
    00002FA5 23               [ 6] 8005 	inc	hl
    00002FA6 56               [ 7] 8006 	ld	d, (hl)
    00002FA7 7B               [ 4] 8007 	ld	a, e
    00002FA8 02               [ 7] 8008 	ld	(bc), a
    00002FA9 03               [ 6] 8009 	inc	bc
    00002FAA 7A               [ 4] 8010 	ld	a, d
    00002FAB 02               [ 7] 8011 	ld	(bc), a
                                   8012 ;E:\Dropbox\FAUSTO\SVILUPPI\MSX\CODE\C\MSXgl\projects\exsoccer/exsoccer_s1_b2.c:1473: g_Players[playerId].TargetX=g_Players[playerId].X;
    00002FAC DD 7E F1         [19] 8013 	ld	a, -15 (ix)
    00002FAF C6 10            [ 7] 8014 	add	a, #0x10
    00002FB1 4F               [ 4] 8015 	ld	c, a
    00002FB2 DD 7E F2         [19] 8016 	ld	a, -14 (ix)
    00002FB5 CE 00            [ 7] 8017 	adc	a, #0x00
    00002FB7 47               [ 4] 8018 	ld	b, a
    00002FB8 DD 6E FC         [19] 8019 	ld	l, -4 (ix)
    00002FBB DD 66 FD         [19] 8020 	ld	h, -3 (ix)
    00002FBE 5E               [ 7] 8021 	ld	e, (hl)
    00002FBF 23               [ 6] 8022 	inc	hl
    00002FC0 56               [ 7] 8023 	ld	d, (hl)
    00002FC1 7B               [ 4] 8024 	ld	a, e
    00002FC2 02               [ 7] 8025 	ld	(bc), a
    00002FC3 03               [ 6] 8026 	inc	bc
    00002FC4 7A               [ 4] 8027 	ld	a, d
    00002FC5 02               [ 7] 8028 	ld	(bc), a
                                   8029 ;E:\Dropbox\FAUSTO\SVILUPPI\MSX\CODE\C\MSXgl\projects\exsoccer/exsoccer_s1_b2.c:1306: if(g_Players[playerId].PreviousDirection!=DIRECTION_NONE){
    00002FC6 DD 7E F1         [19] 8030 	ld	a, -15 (ix)
    00002FC9 C6 0B            [ 7] 8031 	add	a, #0x0b
    00002FCB DD 77 FC         [19] 8032 	ld	-4 (ix), a
    00002FCE DD 7E F2         [19] 8033 	ld	a, -14 (ix)
    00002FD1 CE 00            [ 7] 8034 	adc	a, #0x00
    00002FD3 DD 77 FD         [19] 8035 	ld	-3 (ix), a
                                   8036 ;E:\Dropbox\FAUSTO\SVILUPPI\MSX\CODE\C\MSXgl\projects\exsoccer/exsoccer_s1_b2.c:1474: if(direction==DIRECTION_NONE){
    00002FD6 DD 7E FE         [19] 8037 	ld	a, -2 (ix)
    00002FD9 B7               [ 4] 8038 	or	a, a
    00002FDA 20 38            [12] 8039 	jr	NZ, 00258$
                                   8040 ;E:\Dropbox\FAUSTO\SVILUPPI\MSX\CODE\C\MSXgl\projects\exsoccer/exsoccer_s1_b2.c:1475: g_Players[playerId].Status=PLAYER_STATUS_POSITIONED;
    00002FDC DD 6E F3         [19] 8041 	ld	l, -13 (ix)
    00002FDF DD 66 F4         [19] 8042 	ld	h, -12 (ix)
    00002FE2 36 04            [10] 8043 	ld	(hl), #0x04
    00002FE4 23               [ 6] 8044 	inc	hl
    00002FE5 36 00            [10] 8045 	ld	(hl), #0x00
                                   8046 ;E:\Dropbox\FAUSTO\SVILUPPI\MSX\CODE\C\MSXgl\projects\exsoccer/exsoccer_s1_b2.c:1476: if(g_Players[playerId].PreviousDirection!=DIRECTION_NONE){
    00002FE7 DD 6E FC         [19] 8047 	ld	l, -4 (ix)
    00002FEA DD 66 FD         [19] 8048 	ld	h, -3 (ix)
    00002FED 7E               [ 7] 8049 	ld	a, (hl)
    00002FEE DD 77 F9         [19] 8050 	ld	-7 (ix), a
    00002FF1 B7               [ 4] 8051 	or	a, a
    00002FF2 28 2A            [12] 8052 	jr	Z, 00259$
                                   8053 ;E:\Dropbox\FAUSTO\SVILUPPI\MSX\CODE\C\MSXgl\projects\exsoccer/exsoccer_s1_b2.c:1477: g_Players[playerId].PatternId=GetNoMovingPlayerPatternId(g_Players[playerId].PreviousDirection);
    00002FF4 DD 7E F1         [19] 8054 	ld	a, -15 (ix)
    00002FF7 C6 08            [ 7] 8055 	add	a, #0x08
    00002FF9 DD 77 FA         [19] 8056 	ld	-6 (ix), a
    00002FFC DD 7E F2         [19] 8057 	ld	a, -14 (ix)
    00002FFF CE 00            [ 7] 8058 	adc	a, #0x00
    00003001 DD 77 FB         [19] 8059 	ld	-5 (ix), a
    00003004 DD 7E F9         [19] 8060 	ld	a, -7 (ix)
    00003007 CDr00r00         [17] 8061 	call	_GetNoMovingPlayerPatternId
    0000300A DD 6E FA         [19] 8062 	ld	l, -6 (ix)
    0000300D DD 66 FB         [19] 8063 	ld	h, -5 (ix)
    00003010 77               [ 7] 8064 	ld	(hl), a
    00003011 C3r1Er30         [10] 8065 	jp	00259$
    00003014                       8066 00258$:
                                   8067 ;E:\Dropbox\FAUSTO\SVILUPPI\MSX\CODE\C\MSXgl\projects\exsoccer/exsoccer_s1_b2.c:1482: g_Players[playerId].Status=PLAYER_STATUS_NONE;
    00003014 DD 6E F3         [19] 8068 	ld	l, -13 (ix)
    00003017 DD 66 F4         [19] 8069 	ld	h, -12 (ix)
    0000301A AF               [ 4] 8070 	xor	a, a
    0000301B 77               [ 7] 8071 	ld	(hl), a
    0000301C 23               [ 6] 8072 	inc	hl
    0000301D 77               [ 7] 8073 	ld	(hl), a
    0000301E                       8074 00259$:
                                   8075 ;E:\Dropbox\FAUSTO\SVILUPPI\MSX\CODE\C\MSXgl\projects\exsoccer/exsoccer_s1_b2.c:1485: g_Players[playerId].Direction=direction;
    0000301E DD 6E F1         [19] 8076 	ld	l, -15 (ix)
    00003021 DD 66 F2         [19] 8077 	ld	h, -14 (ix)
    00003024 11 0A 00         [10] 8078 	ld	de, #0x000a
    00003027 19               [11] 8079 	add	hl, de
    00003028 DD 7E FE         [19] 8080 	ld	a, -2 (ix)
    0000302B 77               [ 7] 8081 	ld	(hl), a
                                   8082 ;E:\Dropbox\FAUSTO\SVILUPPI\MSX\CODE\C\MSXgl\projects\exsoccer/exsoccer_s1_b2.c:1486: g_Players[playerId].PreviousDirection=g_Players[playerId].Direction;
    0000302C DD 6E FC         [19] 8083 	ld	l, -4 (ix)
    0000302F DD 66 FD         [19] 8084 	ld	h, -3 (ix)
    00003032 DD 7E FE         [19] 8085 	ld	a, -2 (ix)
    00003035 77               [ 7] 8086 	ld	(hl), a
    00003036                       8087 00263$:
                                   8088 ;E:\Dropbox\FAUSTO\SVILUPPI\MSX\CODE\C\MSXgl\projects\exsoccer/exsoccer_s1_b2.c:1491: }
    00003036 DD F9            [10] 8089 	ld	sp, ix
    00003038 DD E1            [14] 8090 	pop	ix
    0000303A C9               [10] 8091 	ret
    0000303B                       8092 _TickTeamJoystick_k_MoveDX_131075_1438:
    0000303B 00                    8093 	.db #0x00	;  0
    0000303C 00                    8094 	.db #0x00	;  0
    0000303D 02                    8095 	.db #0x02	;  2
    0000303E 02                    8096 	.db #0x02	;  2
    0000303F 02                    8097 	.db #0x02	;  2
    00003040 00                    8098 	.db #0x00	;  0
    00003041 FE                    8099 	.db #0xfe	; -2
    00003042 FE                    8100 	.db #0xfe	; -2
    00003043 FE                    8101 	.db #0xfe	; -2
    00003044                       8102 _TickTeamJoystick_k_MoveDY_131075_1438:
    00003044 00                    8103 	.db #0x00	;  0
    00003045 FE                    8104 	.db #0xfe	; -2
    00003046 FE                    8105 	.db #0xfe	; -2
    00003047 00                    8106 	.db #0x00	;  0
    00003048 02                    8107 	.db #0x02	;  2
    00003049 02                    8108 	.db #0x02	;  2
    0000304A 02                    8109 	.db #0x02	;  2
    0000304B 00                    8110 	.db #0x00	;  0
    0000304C FE                    8111 	.db #0xfe	; -2
                                   8112 ;E:\Dropbox\FAUSTO\SVILUPPI\MSX\CODE\C\MSXgl\projects\exsoccer/exsoccer_s1_b2.c:1494: void TickBallCollision(){
                                   8113 ;	---------------------------------
                                   8114 ; Function TickBallCollision
                                   8115 ; ---------------------------------
    0000304D                       8116 _TickBallCollision::
    0000304D DD E5            [15] 8117 	push	ix
    0000304F DD 21 00 00      [14] 8118 	ld	ix,#0
    00003053 DD 39            [15] 8119 	add	ix,sp
    00003055 21 EB FF         [10] 8120 	ld	hl, #-21
    00003058 39               [11] 8121 	add	hl, sp
    00003059 F9               [ 6] 8122 	ld	sp, hl
                                   8123 ;E:\Dropbox\FAUSTO\SVILUPPI\MSX\CODE\C\MSXgl\projects\exsoccer/exsoccer_s1_b2.c:1495: if(g_MatchStatus!=MATCH_IN_ACTION){
    0000305A 3Ar00r00         [13] 8124 	ld	a, (_g_MatchStatus+0)
    0000305D D6 0C            [ 7] 8125 	sub	a, #0x0c
                                   8126 ;E:\Dropbox\FAUSTO\SVILUPPI\MSX\CODE\C\MSXgl\projects\exsoccer/exsoccer_s1_b2.c:1496: return;
    0000305F C2r17r34         [10] 8127 	jp	NZ,00168$
                                   8128 ;E:\Dropbox\FAUSTO\SVILUPPI\MSX\CODE\C\MSXgl\projects\exsoccer/exsoccer_s1_b2.c:1500: if (g_Ball.PossessionPlayerId != NO_VALUE) {
    00003062 3Ar06r00         [13] 8129 	ld	a, (#(_g_Ball + 6) + 0)
    00003065 3C               [ 4] 8130 	inc	a
    00003066 28 0A            [12] 8131 	jr	Z, 00106$
                                   8132 ;E:\Dropbox\FAUSTO\SVILUPPI\MSX\CODE\C\MSXgl\projects\exsoccer/exsoccer_s1_b2.c:1501: if (g_Ball.PossessionTimer < 255) g_Ball.PossessionTimer++;
    00003068 01r1Cr00         [10] 8133 	ld	bc, #_g_Ball + 28
    0000306B 0A               [ 7] 8134 	ld	a, (bc)
    0000306C FE FF            [ 7] 8135 	cp	a, #0xff
    0000306E 30 02            [12] 8136 	jr	NC, 00106$
    00003070 3C               [ 4] 8137 	inc	a
    00003071 02               [ 7] 8138 	ld	(bc), a
    00003072                       8139 00106$:
                                   8140 ;E:\Dropbox\FAUSTO\SVILUPPI\MSX\CODE\C\MSXgl\projects\exsoccer/exsoccer_s1_b2.c:1506: if (g_Ball.PossessionPlayerId == NO_VALUE) { // Ball in air
    00003072 21r06r00         [10] 8141 	ld	hl, #(_g_Ball + 6)
    00003075 4E               [ 7] 8142 	ld	c, (hl)
                                   8143 ;E:\Dropbox\FAUSTO\SVILUPPI\MSX\CODE\C\MSXgl\projects\exsoccer/exsoccer_s1_b2.c:1509: if (g_Ball.ShotActive == 1) {
                                   8144 ;E:\Dropbox\FAUSTO\SVILUPPI\MSX\CODE\C\MSXgl\projects\exsoccer/exsoccer_s1_b2.c:1510: i16 diffStart = (i16)g_Ball.X - (i16)g_Ball.PassStartX; 
                                   8145 ;E:\Dropbox\FAUSTO\SVILUPPI\MSX\CODE\C\MSXgl\projects\exsoccer/exsoccer_s1_b2.c:1506: if (g_Ball.PossessionPlayerId == NO_VALUE) { // Ball in air
    00003076 0C               [ 4] 8146 	inc	c
    00003077 28 00            [12] 8147 	jr	Z, 00318$
    00003079                       8148 00318$:
                                   8149 ;E:\Dropbox\FAUSTO\SVILUPPI\MSX\CODE\C\MSXgl\projects\exsoccer/exsoccer_s1_b2.c:1516: for(u8 i=0; i<14; i++){
    00003079 DD 36 EF 00      [19] 8150 	ld	-17 (ix), #0x00
    0000307D DD 36 FB 00      [19] 8151 	ld	-5 (ix), #0x00
    00003081                       8152 00167$:
    00003081 DD 7E FB         [19] 8153 	ld	a, -5 (ix)
    00003084 D6 0E            [ 7] 8154 	sub	a, #0x0e
    00003086 D2r17r34         [10] 8155 	jp	NC, 00168$
                                   8156 ;E:\Dropbox\FAUSTO\SVILUPPI\MSX\CODE\C\MSXgl\projects\exsoccer/exsoccer_s1_b2.c:1517: if(g_Players[i].Status == PLAYER_STATUS_NONE) continue;
    00003089 DD 4E FB         [19] 8157 	ld	c, -5 (ix)
    0000308C 06 00            [ 7] 8158 	ld	b, #0x00
    0000308E 69               [ 4] 8159 	ld	l, c
    0000308F 60               [ 4] 8160 	ld	h, b
    00003090 29               [11] 8161 	add	hl, hl
    00003091 29               [11] 8162 	add	hl, hl
    00003092 09               [11] 8163 	add	hl, bc
    00003093 29               [11] 8164 	add	hl, hl
    00003094 29               [11] 8165 	add	hl, hl
    00003095 09               [11] 8166 	add	hl, bc
    00003096 EB               [ 4] 8167 	ex	de, hl
    00003097 21r00r00         [10] 8168 	ld	hl, #_g_Players
    0000309A 19               [11] 8169 	add	hl, de
    0000309B DD 75 F0         [19] 8170 	ld	-16 (ix), l
    0000309E DD 74 F1         [19] 8171 	ld	-15 (ix), h
                                   8172 ;E:\Dropbox\FAUSTO\SVILUPPI\MSX\CODE\C\MSXgl\projects\exsoccer/exsoccer_s1_b2.c:1591: g_Players[i].Status = PLAYER_STATUS_POSITIONED; // Lock it
    000030A1 DD 7E F0         [19] 8173 	ld	a, -16 (ix)
    000030A4 C6 12            [ 7] 8174 	add	a, #0x12
    000030A6 DD 77 F2         [19] 8175 	ld	-14 (ix), a
    000030A9 DD 7E F1         [19] 8176 	ld	a, -15 (ix)
    000030AC CE 00            [ 7] 8177 	adc	a, #0x00
    000030AE DD 77 F3         [19] 8178 	ld	-13 (ix), a
                                   8179 ;E:\Dropbox\FAUSTO\SVILUPPI\MSX\CODE\C\MSXgl\projects\exsoccer/exsoccer_s1_b2.c:1517: if(g_Players[i].Status == PLAYER_STATUS_NONE) continue;
    000030B1 DD 6E F2         [19] 8180 	ld	l, -14 (ix)
    000030B4 DD 66 F3         [19] 8181 	ld	h, -13 (ix)
    000030B7 7E               [ 7] 8182 	ld	a, (hl)
    000030B8 23               [ 6] 8183 	inc	hl
    000030B9 B6               [ 7] 8184 	or	a, (hl)
    000030BA CAr0Br34         [10] 8185 	jp	Z, 00164$
                                   8186 ;E:\Dropbox\FAUSTO\SVILUPPI\MSX\CODE\C\MSXgl\projects\exsoccer/exsoccer_s1_b2.c:1518: if(g_Ball.PossessionPlayerId == i) continue; // Skip self
    000030BD 21r06r00         [10] 8187 	ld	hl, #(_g_Ball + 6)
    000030C0 DD 7E FB         [19] 8188 	ld	a,-5 (ix)
    000030C3 96               [ 7] 8189 	sub	a,(hl)
    000030C4 CAr0Br34         [10] 8190 	jp	Z,00164$
                                   8191 ;E:\Dropbox\FAUSTO\SVILUPPI\MSX\CODE\C\MSXgl\projects\exsoccer/exsoccer_s1_b2.c:1523: u8 hitDist = 14;
    000030C7 DD 36 FD 0E      [19] 8192 	ld	-3 (ix), #0x0e
                                   8193 ;E:\Dropbox\FAUSTO\SVILUPPI\MSX\CODE\C\MSXgl\projects\exsoccer/exsoccer_s1_b2.c:1563: if (g_Players[i].Role == PLAYER_ROLE_GOALKEEPER) {
    000030CB DD 7E F0         [19] 8194 	ld	a, -16 (ix)
    000030CE C6 0D            [ 7] 8195 	add	a, #0x0d
    000030D0 DD 77 F4         [19] 8196 	ld	-12 (ix), a
    000030D3 DD 7E F1         [19] 8197 	ld	a, -15 (ix)
    000030D6 CE 00            [ 7] 8198 	adc	a, #0x00
    000030D8 DD 77 F5         [19] 8199 	ld	-11 (ix), a
                                   8200 ;E:\Dropbox\FAUSTO\SVILUPPI\MSX\CODE\C\MSXgl\projects\exsoccer/exsoccer_s1_b2.c:1524: if (g_Players[i].Role == PLAYER_ROLE_GOALKEEPER) {
    000030DB DD 6E F4         [19] 8201 	ld	l, -12 (ix)
    000030DE DD 66 F5         [19] 8202 	ld	h, -11 (ix)
    000030E1 7E               [ 7] 8203 	ld	a, (hl)
    000030E2 DD 77 FF         [19] 8204 	ld	-1 (ix), a
    000030E5 B7               [ 4] 8205 	or	a, a
    000030E6 20 3E            [12] 8206 	jr	NZ, 00125$
                                   8207 ;E:\Dropbox\FAUSTO\SVILUPPI\MSX\CODE\C\MSXgl\projects\exsoccer/exsoccer_s1_b2.c:1525: const TeamStats* stats = GetTeamStats(g_Players[i].TeamId);
    000030E8 DD 7E F0         [19] 8208 	ld	a, -16 (ix)
    000030EB DD 77 FE         [19] 8209 	ld	-2 (ix), a
    000030EE DD 7E F1         [19] 8210 	ld	a, -15 (ix)
    000030F1 DD 77 FF         [19] 8211 	ld	-1 (ix), a
    000030F4 DD 6E FE         [19] 8212 	ld	l, -2 (ix)
    000030F7 DD 66 FF         [19] 8213 	ld	h, -1 (ix)
    000030FA 11 09 00         [10] 8214 	ld	de, #0x0009
    000030FD 19               [11] 8215 	add	hl, de
    000030FE 7E               [ 7] 8216 	ld	a, (hl)
    000030FF DD 77 FF         [19] 8217 	ld	-1 (ix), a
    00003102 CDr00r00         [17] 8218 	call	_GetTeamStats
    00003105 DD 73 FE         [19] 8219 	ld	-2 (ix), e
    00003108 DD 72 FF         [19] 8220 	ld	-1 (ix), d
                                   8221 ;E:\Dropbox\FAUSTO\SVILUPPI\MSX\CODE\C\MSXgl\projects\exsoccer/exsoccer_s1_b2.c:1526: if (g_Ball.ShotActive) hitDist = stats->GkSkill; 
    0000310B 3Ar1Br00         [13] 8222 	ld	a, (#(_g_Ball + 27) + 0)
    0000310E B7               [ 4] 8223 	or	a, a
    0000310F 28 11            [12] 8224 	jr	Z, 00122$
    00003111 DD 4E FE         [19] 8225 	ld	c, -2 (ix)
    00003114 DD 46 FF         [19] 8226 	ld	b, -1 (ix)
    00003117 21 04 00         [10] 8227 	ld	hl, #4
    0000311A 09               [11] 8228 	add	hl, bc
    0000311B 7E               [ 7] 8229 	ld	a, (hl)
    0000311C DD 77 FD         [19] 8230 	ld	-3 (ix), a
    0000311F C3r26r31         [10] 8231 	jp	00125$
    00003122                       8232 00122$:
                                   8233 ;E:\Dropbox\FAUSTO\SVILUPPI\MSX\CODE\C\MSXgl\projects\exsoccer/exsoccer_s1_b2.c:1527: else hitDist = 14; 
    00003122 DD 36 FD 0E      [19] 8234 	ld	-3 (ix), #0x0e
    00003126                       8235 00125$:
                                   8236 ;E:\Dropbox\FAUSTO\SVILUPPI\MSX\CODE\C\MSXgl\projects\exsoccer/exsoccer_s1_b2.c:1531: u16 diffX = (g_Ball.X > g_Players[i].X) ? (g_Ball.X - g_Players[i].X) : (g_Players[i].X - g_Ball.X);
    00003126 21r02r00         [10] 8237 	ld	hl, #_g_Ball + 2
    00003129 7E               [ 7] 8238 	ld	a, (hl)
    0000312A DD 77 F6         [19] 8239 	ld	-10 (ix), a
    0000312D 23               [ 6] 8240 	inc	hl
    0000312E 7E               [ 7] 8241 	ld	a, (hl)
    0000312F DD 77 F7         [19] 8242 	ld	-9 (ix), a
    00003132 DD 6E F0         [19] 8243 	ld	l, -16 (ix)
                                   8244 ;	spillPairReg hl
                                   8245 ;	spillPairReg hl
    00003135 DD 66 F1         [19] 8246 	ld	h, -15 (ix)
                                   8247 ;	spillPairReg hl
                                   8248 ;	spillPairReg hl
    00003138 23               [ 6] 8249 	inc	hl
    00003139 23               [ 6] 8250 	inc	hl
    0000313A 7E               [ 7] 8251 	ld	a, (hl)
    0000313B DD 77 F8         [19] 8252 	ld	-8 (ix), a
    0000313E 23               [ 6] 8253 	inc	hl
    0000313F 7E               [ 7] 8254 	ld	a, (hl)
    00003140 DD 77 F9         [19] 8255 	ld	-7 (ix), a
    00003143 DD 7E F8         [19] 8256 	ld	a, -8 (ix)
    00003146 DD 96 F6         [19] 8257 	sub	a, -10 (ix)
    00003149 DD 7E F9         [19] 8258 	ld	a, -7 (ix)
    0000314C DD 9E F7         [19] 8259 	sbc	a, -9 (ix)
    0000314F 30 15            [12] 8260 	jr	NC, 00170$
    00003151 DD 7E F6         [19] 8261 	ld	a, -10 (ix)
    00003154 DD 96 F8         [19] 8262 	sub	a, -8 (ix)
    00003157 DD 77 FE         [19] 8263 	ld	-2 (ix), a
    0000315A DD 7E F7         [19] 8264 	ld	a, -9 (ix)
    0000315D DD 9E F9         [19] 8265 	sbc	a, -7 (ix)
    00003160 DD 77 FF         [19] 8266 	ld	-1 (ix), a
    00003163 C3r78r31         [10] 8267 	jp	00171$
    00003166                       8268 00170$:
    00003166 DD 7E F8         [19] 8269 	ld	a, -8 (ix)
    00003169 DD 96 F6         [19] 8270 	sub	a, -10 (ix)
    0000316C DD 77 FE         [19] 8271 	ld	-2 (ix), a
    0000316F DD 7E F9         [19] 8272 	ld	a, -7 (ix)
    00003172 DD 9E F7         [19] 8273 	sbc	a, -9 (ix)
    00003175 DD 77 FF         [19] 8274 	ld	-1 (ix), a
    00003178                       8275 00171$:
                                   8276 ;E:\Dropbox\FAUSTO\SVILUPPI\MSX\CODE\C\MSXgl\projects\exsoccer/exsoccer_s1_b2.c:1532: u16 diffY = (g_Ball.Y > g_Players[i].Y) ? (g_Ball.Y - g_Players[i].Y) : (g_Players[i].Y - g_Ball.Y);
    00003178 ED 4Br00r00      [20] 8277 	ld	bc, (#_g_Ball + 0)
    0000317C DD 6E F0         [19] 8278 	ld	l, -16 (ix)
    0000317F DD 66 F1         [19] 8279 	ld	h, -15 (ix)
    00003182 5E               [ 7] 8280 	ld	e, (hl)
    00003183 23               [ 6] 8281 	inc	hl
    00003184 56               [ 7] 8282 	ld	d, (hl)
    00003185 7B               [ 4] 8283 	ld	a, e
    00003186 91               [ 4] 8284 	sub	a, c
    00003187 7A               [ 4] 8285 	ld	a, d
    00003188 98               [ 4] 8286 	sbc	a, b
    00003189 30 08            [12] 8287 	jr	NC, 00172$
    0000318B 79               [ 4] 8288 	ld	a, c
    0000318C 93               [ 4] 8289 	sub	a, e
    0000318D 5F               [ 4] 8290 	ld	e, a
    0000318E 78               [ 4] 8291 	ld	a, b
    0000318F 9A               [ 4] 8292 	sbc	a, d
    00003190 C3r98r31         [10] 8293 	jp	00173$
    00003193                       8294 00172$:
    00003193 7B               [ 4] 8295 	ld	a, e
    00003194 91               [ 4] 8296 	sub	a, c
    00003195 5F               [ 4] 8297 	ld	e, a
    00003196 7A               [ 4] 8298 	ld	a, d
    00003197 98               [ 4] 8299 	sbc	a, b
    00003198                       8300 00173$:
    00003198 57               [ 4] 8301 	ld	d, a
                                   8302 ;E:\Dropbox\FAUSTO\SVILUPPI\MSX\CODE\C\MSXgl\projects\exsoccer/exsoccer_s1_b2.c:1534: if(diffX < hitDist && diffY < hitDist){ 
    00003199 DD 6E FD         [19] 8303 	ld	l, -3 (ix)
                                   8304 ;	spillPairReg hl
                                   8305 ;	spillPairReg hl
    0000319C 26 00            [ 7] 8306 	ld	h, #0x00
                                   8307 ;	spillPairReg hl
                                   8308 ;	spillPairReg hl
    0000319E DD 7E FE         [19] 8309 	ld	a, -2 (ix)
    000031A1 95               [ 4] 8310 	sub	a, l
    000031A2 DD 7E FF         [19] 8311 	ld	a, -1 (ix)
    000031A5 9C               [ 4] 8312 	sbc	a, h
    000031A6 D2r0Br34         [10] 8313 	jp	NC, 00164$
    000031A9 7B               [ 4] 8314 	ld	a, e
    000031AA 95               [ 4] 8315 	sub	a, l
    000031AB 7A               [ 4] 8316 	ld	a, d
    000031AC 9C               [ 4] 8317 	sbc	a, h
    000031AD D2r0Br34         [10] 8318 	jp	NC, 00164$
                                   8319 ;E:\Dropbox\FAUSTO\SVILUPPI\MSX\CODE\C\MSXgl\projects\exsoccer/exsoccer_s1_b2.c:1535: if (g_Ball.PossessionPlayerId == NO_VALUE) {
    000031B0 3Ar06r00         [13] 8320 	ld	a, (#(_g_Ball + 6) + 0)
    000031B3 DD 77 FF         [19] 8321 	ld	-1 (ix), a
    000031B6 3C               [ 4] 8322 	inc	a
    000031B7 C2rA3r33         [10] 8323 	jp	NZ,00159$
                                   8324 ;E:\Dropbox\FAUSTO\SVILUPPI\MSX\CODE\C\MSXgl\projects\exsoccer/exsoccer_s1_b2.c:1554: if (g_Ball.ShotActive == 1 || g_Ball.PassTargetPlayerId != NO_VALUE) {
    000031BA 3Ar1Br00         [13] 8325 	ld	a, (#(_g_Ball + 27) + 0)
    000031BD DD 77 FA         [19] 8326 	ld	-6 (ix), a
    000031C0 3D               [ 4] 8327 	dec	a
    000031C1 28 07            [12] 8328 	jr	Z, 00132$
    000031C3 3Ar10r00         [13] 8329 	ld	a, (#(_g_Ball + 16) + 0)
    000031C6 3C               [ 4] 8330 	inc	a
    000031C7 CAr6Er32         [10] 8331 	jp	Z,00133$
    000031CA                       8332 00132$:
                                   8333 ;E:\Dropbox\FAUSTO\SVILUPPI\MSX\CODE\C\MSXgl\projects\exsoccer/exsoccer_s1_b2.c:1555: i16 dxStart = (i16)g_Ball.X - (i16)g_Ball.PassStartX;
    000031CA DD 5E F6         [19] 8334 	ld	e, -10 (ix)
    000031CD DD 56 F7         [19] 8335 	ld	d, -9 (ix)
    000031D0 2Ar11r00         [16] 8336 	ld	hl, (#(_g_Ball + 17) + 0)
    000031D3 7B               [ 4] 8337 	ld	a, e
    000031D4 95               [ 4] 8338 	sub	a, l
    000031D5 5F               [ 4] 8339 	ld	e, a
    000031D6 7A               [ 4] 8340 	ld	a, d
    000031D7 9C               [ 4] 8341 	sbc	a, h
    000031D8 DD 73 FC         [19] 8342 	ld	-4 (ix), e
    000031DB DD 77 FD         [19] 8343 	ld	-3 (ix), a
                                   8344 ;E:\Dropbox\FAUSTO\SVILUPPI\MSX\CODE\C\MSXgl\projects\exsoccer/exsoccer_s1_b2.c:1556: i16 dyStart = (i16)g_Ball.Y - (i16)g_Ball.PassStartY;
    000031DE 33               [ 6] 8345 	inc	sp
    000031DF 33               [ 6] 8346 	inc	sp
    000031E0 C5               [11] 8347 	push	bc
    000031E1 21r13r00         [10] 8348 	ld	hl, #_g_Ball + 19
    000031E4 7E               [ 7] 8349 	ld	a, (hl)
    000031E5 DD 77 FE         [19] 8350 	ld	-2 (ix), a
    000031E8 23               [ 6] 8351 	inc	hl
    000031E9 7E               [ 7] 8352 	ld	a, (hl)
    000031EA DD 77 FF         [19] 8353 	ld	-1 (ix), a
    000031ED DD 7E FE         [19] 8354 	ld	a, -2 (ix)
    000031F0 DD 77 ED         [19] 8355 	ld	-19 (ix), a
    000031F3 DD 7E FF         [19] 8356 	ld	a, -1 (ix)
    000031F6 DD 77 EE         [19] 8357 	ld	-18 (ix), a
    000031F9 DD 7E EB         [19] 8358 	ld	a, -21 (ix)
    000031FC DD 96 ED         [19] 8359 	sub	a, -19 (ix)
    000031FF DD 77 FE         [19] 8360 	ld	-2 (ix), a
    00003202 DD 7E EC         [19] 8361 	ld	a, -20 (ix)
    00003205 DD 9E EE         [19] 8362 	sbc	a, -18 (ix)
    00003208 DD 77 FF         [19] 8363 	ld	-1 (ix), a
                                   8364 ;E:\Dropbox\FAUSTO\SVILUPPI\MSX\CODE\C\MSXgl\projects\exsoccer/exsoccer_s1_b2.c:1557: if (dxStart < 0) dxStart = -dxStart;
    0000320B DD 7E FC         [19] 8365 	ld	a, -4 (ix)
    0000320E DD 77 ED         [19] 8366 	ld	-19 (ix), a
    00003211 DD 7E FD         [19] 8367 	ld	a, -3 (ix)
    00003214 DD 77 EE         [19] 8368 	ld	-18 (ix), a
    00003217 DD CB EE 7E      [20] 8369 	bit	7, -18 (ix)
    0000321B 28 0E            [12] 8370 	jr	Z, 00127$
    0000321D AF               [ 4] 8371 	xor	a, a
    0000321E DD 96 FC         [19] 8372 	sub	a, -4 (ix)
    00003221 DD 77 FC         [19] 8373 	ld	-4 (ix), a
    00003224 9F               [ 4] 8374 	sbc	a, a
    00003225 DD 96 FD         [19] 8375 	sub	a, -3 (ix)
    00003228 DD 77 FD         [19] 8376 	ld	-3 (ix), a
    0000322B                       8377 00127$:
                                   8378 ;E:\Dropbox\FAUSTO\SVILUPPI\MSX\CODE\C\MSXgl\projects\exsoccer/exsoccer_s1_b2.c:1558: if (dyStart < 0) dyStart = -dyStart;
    0000322B DD 46 FF         [19] 8379 	ld	b, -1 (ix)
    0000322E CB 78            [ 8] 8380 	bit	7, b
    00003230 28 0E            [12] 8381 	jr	Z, 00129$
    00003232 AF               [ 4] 8382 	xor	a, a
    00003233 DD 96 FE         [19] 8383 	sub	a, -2 (ix)
    00003236 DD 77 FE         [19] 8384 	ld	-2 (ix), a
    00003239 9F               [ 4] 8385 	sbc	a, a
    0000323A DD 96 FF         [19] 8386 	sub	a, -1 (ix)
    0000323D DD 77 FF         [19] 8387 	ld	-1 (ix), a
    00003240                       8388 00129$:
                                   8389 ;E:\Dropbox\FAUSTO\SVILUPPI\MSX\CODE\C\MSXgl\projects\exsoccer/exsoccer_s1_b2.c:1559: if ((dxStart + dyStart) < 24) continue; 
    00003240 DD 7E FE         [19] 8390 	ld	a, -2 (ix)
    00003243 DD 86 FC         [19] 8391 	add	a, -4 (ix)
    00003246 DD 77 ED         [19] 8392 	ld	-19 (ix), a
    00003249 DD 7E FF         [19] 8393 	ld	a, -1 (ix)
    0000324C DD 8E FD         [19] 8394 	adc	a, -3 (ix)
    0000324F DD 77 EE         [19] 8395 	ld	-18 (ix), a
    00003252 DD 7E ED         [19] 8396 	ld	a, -19 (ix)
    00003255 DD 77 FE         [19] 8397 	ld	-2 (ix), a
    00003258 DD 7E EE         [19] 8398 	ld	a, -18 (ix)
    0000325B DD 77 FF         [19] 8399 	ld	-1 (ix), a
    0000325E DD 7E FE         [19] 8400 	ld	a, -2 (ix)
    00003261 D6 18            [ 7] 8401 	sub	a, #0x18
    00003263 DD 7E FF         [19] 8402 	ld	a, -1 (ix)
    00003266 17               [ 4] 8403 	rla
    00003267 3F               [ 4] 8404 	ccf
    00003268 1F               [ 4] 8405 	rra
    00003269 DE 80            [ 7] 8406 	sbc	a, #0x80
    0000326B DAr0Br34         [10] 8407 	jp	C, 00164$
    0000326E                       8408 00133$:
                                   8409 ;E:\Dropbox\FAUSTO\SVILUPPI\MSX\CODE\C\MSXgl\projects\exsoccer/exsoccer_s1_b2.c:1563: if (g_Players[i].Role == PLAYER_ROLE_GOALKEEPER) {
    0000326E DD 6E F4         [19] 8410 	ld	l, -12 (ix)
    00003271 DD 66 F5         [19] 8411 	ld	h, -11 (ix)
                                   8412 ;E:\Dropbox\FAUSTO\SVILUPPI\MSX\CODE\C\MSXgl\projects\exsoccer/exsoccer_s1_b2.c:1602: g_Ball.Size = 2;
                                   8413 ;E:\Dropbox\FAUSTO\SVILUPPI\MSX\CODE\C\MSXgl\projects\exsoccer/exsoccer_s1_b2.c:1563: if (g_Players[i].Role == PLAYER_ROLE_GOALKEEPER) {
    00003274 7E               [ 7] 8414 	ld	a, (hl)
    00003275 B7               [ 4] 8415 	or	a, a
    00003276 C2r7Br33         [10] 8416 	jp	NZ, 00153$
                                   8417 ;E:\Dropbox\FAUSTO\SVILUPPI\MSX\CODE\C\MSXgl\projects\exsoccer/exsoccer_s1_b2.c:1565: bool wasShot = (g_Ball.ShotActive != 0);
    00003279 DD 7E FA         [19] 8418 	ld	a, -6 (ix)
    0000327C D6 01            [ 7] 8419 	sub	a,#0x01
    0000327E 3E 00            [ 7] 8420 	ld	a, #0x00
    00003280 17               [ 4] 8421 	rla
    00003281 EE 01            [ 7] 8422 	xor	a, #0x01
    00003283 DD 77 FD         [19] 8423 	ld	-3 (ix), a
                                   8424 ;E:\Dropbox\FAUSTO\SVILUPPI\MSX\CODE\C\MSXgl\projects\exsoccer/exsoccer_s1_b2.c:1579: u8 team = g_Players[i].TeamId;
    00003286 DD 7E F0         [19] 8425 	ld	a, -16 (ix)
    00003289 C6 09            [ 7] 8426 	add	a, #0x09
    0000328B DD 77 FE         [19] 8427 	ld	-2 (ix), a
    0000328E DD 7E F1         [19] 8428 	ld	a, -15 (ix)
    00003291 CE 00            [ 7] 8429 	adc	a, #0x00
    00003293 DD 77 FF         [19] 8430 	ld	-1 (ix), a
                                   8431 ;E:\Dropbox\FAUSTO\SVILUPPI\MSX\CODE\C\MSXgl\projects\exsoccer/exsoccer_s1_b2.c:1568: if (g_Ball.ShotActive) {
    00003296 DD 7E FA         [19] 8432 	ld	a, -6 (ix)
    00003299 B7               [ 4] 8433 	or	a, a
    0000329A CAr43r33         [10] 8434 	jp	Z, 00149$
                                   8435 ;E:\Dropbox\FAUSTO\SVILUPPI\MSX\CODE\C\MSXgl\projects\exsoccer/exsoccer_s1_b2.c:1569: i16 signedDiffX = (i16)g_Ball.X - (i16)g_Players[i].X;
    0000329D DD 7E F6         [19] 8436 	ld	a, -10 (ix)
    000032A0 DD 77 FB         [19] 8437 	ld	-5 (ix), a
    000032A3 DD 7E F7         [19] 8438 	ld	a, -9 (ix)
    000032A6 DD 77 FC         [19] 8439 	ld	-4 (ix), a
    000032A9 DD 7E F8         [19] 8440 	ld	a, -8 (ix)
    000032AC DD 77 F5         [19] 8441 	ld	-11 (ix), a
    000032AF DD 7E F9         [19] 8442 	ld	a, -7 (ix)
    000032B2 DD 77 F6         [19] 8443 	ld	-10 (ix), a
    000032B5 DD 7E FB         [19] 8444 	ld	a, -5 (ix)
    000032B8 DD 96 F5         [19] 8445 	sub	a, -11 (ix)
    000032BB DD 77 F9         [19] 8446 	ld	-7 (ix), a
    000032BE DD 7E FC         [19] 8447 	ld	a, -4 (ix)
    000032C1 DD 9E F6         [19] 8448 	sbc	a, -10 (ix)
    000032C4 DD 77 FA         [19] 8449 	ld	-6 (ix), a
    000032C7 DD 7E F9         [19] 8450 	ld	a, -7 (ix)
    000032CA DD 77 FB         [19] 8451 	ld	-5 (ix), a
    000032CD DD 7E FA         [19] 8452 	ld	a, -6 (ix)
    000032D0 DD 77 FC         [19] 8453 	ld	-4 (ix), a
                                   8454 ;E:\Dropbox\FAUSTO\SVILUPPI\MSX\CODE\C\MSXgl\projects\exsoccer/exsoccer_s1_b2.c:1572: if (signedDiffX >= -5 && signedDiffX <= 5) {
    000032D3 DD 7E FB         [19] 8455 	ld	a, -5 (ix)
    000032D6 DD 77 F9         [19] 8456 	ld	-7 (ix), a
    000032D9 DD 7E FC         [19] 8457 	ld	a, -4 (ix)
    000032DC DD 77 FA         [19] 8458 	ld	-6 (ix), a
    000032DF 3E 05            [ 7] 8459 	ld	a, #0x05
    000032E1 DD BE F9         [19] 8460 	cp	a, -7 (ix)
    000032E4 3E 00            [ 7] 8461 	ld	a, #0x00
    000032E6 DD 9E FA         [19] 8462 	sbc	a, -6 (ix)
    000032E9 E2rEEr32         [10] 8463 	jp	PO, 00324$
    000032EC EE 80            [ 7] 8464 	xor	a, #0x80
    000032EE                       8465 00324$:
    000032EE 07               [ 4] 8466 	rlca
    000032EF E6 01            [ 7] 8467 	and	a,#0x01
    000032F1 47               [ 4] 8468 	ld	b, a
    000032F2 DD 7E FB         [19] 8469 	ld	a, -5 (ix)
    000032F5 D6 FB            [ 7] 8470 	sub	a, #0xfb
    000032F7 DD 7E FC         [19] 8471 	ld	a, -4 (ix)
    000032FA 17               [ 4] 8472 	rla
    000032FB 3F               [ 4] 8473 	ccf
    000032FC 1F               [ 4] 8474 	rra
    000032FD DE 7F            [ 7] 8475 	sbc	a, #0x7f
    000032FF 38 04            [12] 8476 	jr	C, 00145$
    00003301 CB 40            [ 8] 8477 	bit	0, b
    00003303 28 3E            [12] 8478 	jr	Z, 00149$
    00003305                       8479 00145$:
                                   8480 ;E:\Dropbox\FAUSTO\SVILUPPI\MSX\CODE\C\MSXgl\projects\exsoccer/exsoccer_s1_b2.c:1579: u8 team = g_Players[i].TeamId;
    00003305 DD 6E FE         [19] 8481 	ld	l, -2 (ix)
    00003308 DD 66 FF         [19] 8482 	ld	h, -1 (ix)
    0000330B 7E               [ 7] 8483 	ld	a, (hl)
                                   8484 ;E:\Dropbox\FAUSTO\SVILUPPI\MSX\CODE\C\MSXgl\projects\exsoccer/exsoccer_s1_b2.c:1583: if (team == TEAM_1) divePose = PLAYER_POSE_TEAM1_GK_DOWN_RIGHT;
    0000330C 3D               [ 4] 8485 	dec	a
    0000330D 3E 01            [ 7] 8486 	ld	a, #0x01
    0000330F 28 01            [12] 8487 	jr	Z, 00326$
    00003311 AF               [ 4] 8488 	xor	a, a
    00003312                       8489 00326$:
    00003312 4F               [ 4] 8490 	ld	c, a
                                   8491 ;E:\Dropbox\FAUSTO\SVILUPPI\MSX\CODE\C\MSXgl\projects\exsoccer/exsoccer_s1_b2.c:1582: if (signedDiffX > 5) { // Ball to Right
    00003313 78               [ 4] 8492 	ld	a, b
    00003314 B7               [ 4] 8493 	or	a, a
    00003315 28 0E            [12] 8494 	jr	Z, 00142$
                                   8495 ;E:\Dropbox\FAUSTO\SVILUPPI\MSX\CODE\C\MSXgl\projects\exsoccer/exsoccer_s1_b2.c:1583: if (team == TEAM_1) divePose = PLAYER_POSE_TEAM1_GK_DOWN_RIGHT;
    00003317 79               [ 4] 8496 	ld	a, c
    00003318 B7               [ 4] 8497 	or	a, a
    00003319 28 05            [12] 8498 	jr	Z, 00136$
    0000331B 0E 3F            [ 7] 8499 	ld	c, #0x3f
    0000331D C3r2Dr33         [10] 8500 	jp	00143$
    00003320                       8501 00136$:
                                   8502 ;E:\Dropbox\FAUSTO\SVILUPPI\MSX\CODE\C\MSXgl\projects\exsoccer/exsoccer_s1_b2.c:1584: else divePose = PLAYER_POSE_TEAM2_GK_DOWN_RIGHT;
    00003320 0E 2F            [ 7] 8503 	ld	c, #0x2f
    00003322 C3r2Dr33         [10] 8504 	jp	00143$
    00003325                       8505 00142$:
                                   8506 ;E:\Dropbox\FAUSTO\SVILUPPI\MSX\CODE\C\MSXgl\projects\exsoccer/exsoccer_s1_b2.c:1586: if (team == TEAM_1) divePose = PLAYER_POSE_TEAM1_GK_DOWN_LEFT;
    00003325 79               [ 4] 8507 	ld	a, c
    00003326 B7               [ 4] 8508 	or	a, a
                                   8509 ;E:\Dropbox\FAUSTO\SVILUPPI\MSX\CODE\C\MSXgl\projects\exsoccer/exsoccer_s1_b2.c:1587: else divePose = PLAYER_POSE_TEAM2_GK_DOWN_LEFT;
    00003327 0E A0            [ 7] 8510 	ld	c, #0xa0
    00003329 20 02            [12] 8511 	jr	NZ, 00143$
    0000332B 0E A0            [ 7] 8512 	ld	c, #0xa0
    0000332D                       8513 00143$:
                                   8514 ;E:\Dropbox\FAUSTO\SVILUPPI\MSX\CODE\C\MSXgl\projects\exsoccer/exsoccer_s1_b2.c:1590: g_Players[i].PatternId = divePose;
    0000332D DD 6E F0         [19] 8515 	ld	l, -16 (ix)
    00003330 DD 66 F1         [19] 8516 	ld	h, -15 (ix)
    00003333 11 08 00         [10] 8517 	ld	de, #0x0008
    00003336 19               [11] 8518 	add	hl, de
    00003337 71               [ 7] 8519 	ld	(hl), c
                                   8520 ;E:\Dropbox\FAUSTO\SVILUPPI\MSX\CODE\C\MSXgl\projects\exsoccer/exsoccer_s1_b2.c:1591: g_Players[i].Status = PLAYER_STATUS_POSITIONED; // Lock it
    00003338 DD 6E F2         [19] 8521 	ld	l, -14 (ix)
    0000333B DD 66 F3         [19] 8522 	ld	h, -13 (ix)
    0000333E 36 04            [10] 8523 	ld	(hl), #0x04
    00003340 23               [ 6] 8524 	inc	hl
    00003341 36 00            [10] 8525 	ld	(hl), #0x00
    00003343                       8526 00149$:
                                   8527 ;E:\Dropbox\FAUSTO\SVILUPPI\MSX\CODE\C\MSXgl\projects\exsoccer/exsoccer_s1_b2.c:1595: PutBallOnPlayerFeet(i);
    00003343 DD 7E EF         [19] 8528 	ld	a, -17 (ix)
    00003346 CDr00r00         [17] 8529 	call	_PutBallOnPlayerFeet
                                   8530 ;E:\Dropbox\FAUSTO\SVILUPPI\MSX\CODE\C\MSXgl\projects\exsoccer/exsoccer_s1_b2.c:1596: GoalkeeperWithBall(g_Players[i].TeamId, !wasShot); 
    00003349 DD 7E FD         [19] 8531 	ld	a, -3 (ix)
    0000334C D6 01            [ 7] 8532 	sub	a,#0x01
    0000334E 3E 00            [ 7] 8533 	ld	a, #0x00
    00003350 17               [ 4] 8534 	rla
    00003351 4F               [ 4] 8535 	ld	c, a
    00003352 DD 6E FE         [19] 8536 	ld	l, -2 (ix)
    00003355 DD 66 FF         [19] 8537 	ld	h, -1 (ix)
    00003358 46               [ 7] 8538 	ld	b, (hl)
    00003359 69               [ 4] 8539 	ld	l, c
                                   8540 ;	spillPairReg hl
                                   8541 ;	spillPairReg hl
    0000335A 78               [ 4] 8542 	ld	a, b
    0000335B CDrC8r00         [17] 8543 	call	_GoalkeeperWithBall
                                   8544 ;E:\Dropbox\FAUSTO\SVILUPPI\MSX\CODE\C\MSXgl\projects\exsoccer/exsoccer_s1_b2.c:1597: if (!wasShot) g_GkIsGroundKick = false; // Force Slow/Hand mode for Steals
    0000335E DD 7E FD         [19] 8545 	ld	a, -3 (ix)
    00003361 B7               [ 4] 8546 	or	a, a
    00003362 20 05            [12] 8547 	jr	NZ, 00151$
    00003364 21r00r00         [10] 8548 	ld	hl, #_g_GkIsGroundKick
    00003367 36 00            [10] 8549 	ld	(hl), #0x00
    00003369                       8550 00151$:
                                   8551 ;E:\Dropbox\FAUSTO\SVILUPPI\MSX\CODE\C\MSXgl\projects\exsoccer/exsoccer_s1_b2.c:1600: g_Ball.PassTargetPlayerId = NO_VALUE;
    00003369 21r10r00         [10] 8552 	ld	hl, #(_g_Ball + 16)
    0000336C 36 FF            [10] 8553 	ld	(hl), #0xff
                                   8554 ;E:\Dropbox\FAUSTO\SVILUPPI\MSX\CODE\C\MSXgl\projects\exsoccer/exsoccer_s1_b2.c:1601: g_Ball.ShotActive = 0;
    0000336E 21r1Br00         [10] 8555 	ld	hl, #(_g_Ball + 27)
    00003371 36 00            [10] 8556 	ld	(hl), #0x00
                                   8557 ;E:\Dropbox\FAUSTO\SVILUPPI\MSX\CODE\C\MSXgl\projects\exsoccer/exsoccer_s1_b2.c:1602: g_Ball.Size = 2;
    00003373 21r04r00         [10] 8558 	ld	hl, #(_g_Ball + 4)
    00003376 36 02            [10] 8559 	ld	(hl), #0x02
                                   8560 ;E:\Dropbox\FAUSTO\SVILUPPI\MSX\CODE\C\MSXgl\projects\exsoccer/exsoccer_s1_b2.c:1604: return; // Stop checking
    00003378 C3r17r34         [10] 8561 	jp	00168$
    0000337B                       8562 00153$:
                                   8563 ;E:\Dropbox\FAUSTO\SVILUPPI\MSX\CODE\C\MSXgl\projects\exsoccer/exsoccer_s1_b2.c:1608: g_Ball.PassTargetPlayerId = NO_VALUE; 
    0000337B 21r10r00         [10] 8564 	ld	hl, #(_g_Ball + 16)
    0000337E 36 FF            [10] 8565 	ld	(hl), #0xff
                                   8566 ;E:\Dropbox\FAUSTO\SVILUPPI\MSX\CODE\C\MSXgl\projects\exsoccer/exsoccer_s1_b2.c:1609: g_Ball.ShotActive = 0; 
    00003380 21r1Br00         [10] 8567 	ld	hl, #(_g_Ball + 27)
    00003383 36 00            [10] 8568 	ld	(hl), #0x00
                                   8569 ;E:\Dropbox\FAUSTO\SVILUPPI\MSX\CODE\C\MSXgl\projects\exsoccer/exsoccer_s1_b2.c:1610: g_Ball.KickMoveState = 3; // Force ball to snap to feet immediately (No visual lag)
    00003385 21r0Dr00         [10] 8570 	ld	hl, #(_g_Ball + 13)
    00003388 36 03            [10] 8571 	ld	(hl), #0x03
                                   8572 ;E:\Dropbox\FAUSTO\SVILUPPI\MSX\CODE\C\MSXgl\projects\exsoccer/exsoccer_s1_b2.c:1611: g_Ball.Size = 1; // On feet = small
    0000338A 21r04r00         [10] 8573 	ld	hl, #(_g_Ball + 4)
    0000338D 36 01            [10] 8574 	ld	(hl), #0x01
                                   8575 ;E:\Dropbox\FAUSTO\SVILUPPI\MSX\CODE\C\MSXgl\projects\exsoccer/exsoccer_s1_b2.c:1612: PutBallOnPlayerFeet(i);
    0000338F DD 7E EF         [19] 8576 	ld	a, -17 (ix)
    00003392 CDr00r00         [17] 8577 	call	_PutBallOnPlayerFeet
                                   8578 ;E:\Dropbox\FAUSTO\SVILUPPI\MSX\CODE\C\MSXgl\projects\exsoccer/exsoccer_s1_b2.c:1613: g_Players[i].Status = PLAYER_STATUS_HAS_BALL;
    00003395 DD 6E F2         [19] 8579 	ld	l, -14 (ix)
    00003398 DD 66 F3         [19] 8580 	ld	h, -13 (ix)
    0000339B 36 01            [10] 8581 	ld	(hl), #0x01
    0000339D 23               [ 6] 8582 	inc	hl
    0000339E 36 00            [10] 8583 	ld	(hl), #0x00
                                   8584 ;E:\Dropbox\FAUSTO\SVILUPPI\MSX\CODE\C\MSXgl\projects\exsoccer/exsoccer_s1_b2.c:1614: return; // Stop checking
    000033A0 C3r17r34         [10] 8585 	jp	00168$
    000033A3                       8586 00159$:
                                   8587 ;E:\Dropbox\FAUSTO\SVILUPPI\MSX\CODE\C\MSXgl\projects\exsoccer/exsoccer_s1_b2.c:1618: u8 currentOwner = g_Ball.PossessionPlayerId;
    000033A3 DD 4E FF         [19] 8588 	ld	c, -1 (ix)
                                   8589 ;E:\Dropbox\FAUSTO\SVILUPPI\MSX\CODE\C\MSXgl\projects\exsoccer/exsoccer_s1_b2.c:1621: if (g_Players[i].Role == PLAYER_ROLE_GOALKEEPER) {
    000033A6 DD 6E F4         [19] 8590 	ld	l, -12 (ix)
    000033A9 DD 66 F5         [19] 8591 	ld	h, -11 (ix)
    000033AC 46               [ 7] 8592 	ld	b, (hl)
                                   8593 ;E:\Dropbox\FAUSTO\SVILUPPI\MSX\CODE\C\MSXgl\projects\exsoccer/exsoccer_s1_b2.c:1579: u8 team = g_Players[i].TeamId;
    000033AD DD 6E F0         [19] 8594 	ld	l, -16 (ix)
    000033B0 DD 66 F1         [19] 8595 	ld	h, -15 (ix)
    000033B3 11 09 00         [10] 8596 	ld	de, #0x0009
    000033B6 19               [11] 8597 	add	hl, de
                                   8598 ;E:\Dropbox\FAUSTO\SVILUPPI\MSX\CODE\C\MSXgl\projects\exsoccer/exsoccer_s1_b2.c:1621: if (g_Players[i].Role == PLAYER_ROLE_GOALKEEPER) {
    000033B7 78               [ 4] 8599 	ld	a, b
    000033B8 B7               [ 4] 8600 	or	a, a
    000033B9 20 25            [12] 8601 	jr	NZ, 00155$
                                   8602 ;E:\Dropbox\FAUSTO\SVILUPPI\MSX\CODE\C\MSXgl\projects\exsoccer/exsoccer_s1_b2.c:1622: PutBallOnPlayerFeet(i);
    000033BB E5               [11] 8603 	push	hl
    000033BC DD 7E EF         [19] 8604 	ld	a, -17 (ix)
    000033BF CDr00r00         [17] 8605 	call	_PutBallOnPlayerFeet
    000033C2 E1               [10] 8606 	pop	hl
                                   8607 ;E:\Dropbox\FAUSTO\SVILUPPI\MSX\CODE\C\MSXgl\projects\exsoccer/exsoccer_s1_b2.c:1623: GoalkeeperWithBall(g_Players[i].TeamId, 1); // Treat as steal (no recoil)
                                   8608 ;	spillPairReg hl
                                   8609 ;	spillPairReg hl
    000033C3 7E               [ 7] 8610 	ld	a, (hl)
    000033C4 2E 01            [ 7] 8611 	ld	l, #0x01
    000033C6 CDrC8r00         [17] 8612 	call	_GoalkeeperWithBall
                                   8613 ;E:\Dropbox\FAUSTO\SVILUPPI\MSX\CODE\C\MSXgl\projects\exsoccer/exsoccer_s1_b2.c:1624: g_GkIsGroundKick = false; // Force Slow/Hand mode for Steals
    000033C9 21r00r00         [10] 8614 	ld	hl, #_g_GkIsGroundKick
    000033CC 36 00            [10] 8615 	ld	(hl), #0x00
                                   8616 ;E:\Dropbox\FAUSTO\SVILUPPI\MSX\CODE\C\MSXgl\projects\exsoccer/exsoccer_s1_b2.c:1627: g_Ball.PassTargetPlayerId = NO_VALUE;
    000033CE 21r10r00         [10] 8617 	ld	hl, #(_g_Ball + 16)
    000033D1 36 FF            [10] 8618 	ld	(hl), #0xff
                                   8619 ;E:\Dropbox\FAUSTO\SVILUPPI\MSX\CODE\C\MSXgl\projects\exsoccer/exsoccer_s1_b2.c:1628: g_Ball.ShotActive = 0;
    000033D3 21r1Br00         [10] 8620 	ld	hl, #(_g_Ball + 27)
    000033D6 36 00            [10] 8621 	ld	(hl), #0x00
                                   8622 ;E:\Dropbox\FAUSTO\SVILUPPI\MSX\CODE\C\MSXgl\projects\exsoccer/exsoccer_s1_b2.c:1629: g_Ball.Size = 2;
    000033D8 21r04r00         [10] 8623 	ld	hl, #(_g_Ball + 4)
    000033DB 36 02            [10] 8624 	ld	(hl), #0x02
                                   8625 ;E:\Dropbox\FAUSTO\SVILUPPI\MSX\CODE\C\MSXgl\projects\exsoccer/exsoccer_s1_b2.c:1630: return;
    000033DD C3r17r34         [10] 8626 	jp	00168$
    000033E0                       8627 00155$:
                                   8628 ;E:\Dropbox\FAUSTO\SVILUPPI\MSX\CODE\C\MSXgl\projects\exsoccer/exsoccer_s1_b2.c:1633: if (g_Players[i].TeamId != g_Players[currentOwner].TeamId) {
    000033E0 5E               [ 7] 8629 	ld	e, (hl)
    000033E1 06 00            [ 7] 8630 	ld	b, #0x00
    000033E3 69               [ 4] 8631 	ld	l, c
    000033E4 60               [ 4] 8632 	ld	h, b
    000033E5 29               [11] 8633 	add	hl, hl
    000033E6 29               [11] 8634 	add	hl, hl
    000033E7 09               [11] 8635 	add	hl, bc
    000033E8 29               [11] 8636 	add	hl, hl
    000033E9 29               [11] 8637 	add	hl, hl
    000033EA 09               [11] 8638 	add	hl, bc
    000033EB 01r00r00         [10] 8639 	ld	bc, #_g_Players
    000033EE 09               [11] 8640 	add	hl, bc
    000033EF 01 09 00         [10] 8641 	ld	bc, #0x0009
    000033F2 09               [11] 8642 	add	hl, bc
    000033F3 4E               [ 7] 8643 	ld	c, (hl)
    000033F4 7B               [ 4] 8644 	ld	a, e
    000033F5 91               [ 4] 8645 	sub	a, c
    000033F6 28 13            [12] 8646 	jr	Z, 00164$
                                   8647 ;E:\Dropbox\FAUSTO\SVILUPPI\MSX\CODE\C\MSXgl\projects\exsoccer/exsoccer_s1_b2.c:1635: PutBallOnPlayerFeet(i);
    000033F8 DD 7E EF         [19] 8648 	ld	a, -17 (ix)
    000033FB CDr00r00         [17] 8649 	call	_PutBallOnPlayerFeet
                                   8650 ;E:\Dropbox\FAUSTO\SVILUPPI\MSX\CODE\C\MSXgl\projects\exsoccer/exsoccer_s1_b2.c:1637: g_Ball.PassTargetPlayerId = NO_VALUE;
    000033FE 21r10r00         [10] 8651 	ld	hl, #(_g_Ball + 16)
    00003401 36 FF            [10] 8652 	ld	(hl), #0xff
                                   8653 ;E:\Dropbox\FAUSTO\SVILUPPI\MSX\CODE\C\MSXgl\projects\exsoccer/exsoccer_s1_b2.c:1638: g_Ball.ShotActive = 0;
    00003403 21r1Br00         [10] 8654 	ld	hl, #(_g_Ball + 27)
    00003406 36 00            [10] 8655 	ld	(hl), #0x00
                                   8656 ;E:\Dropbox\FAUSTO\SVILUPPI\MSX\CODE\C\MSXgl\projects\exsoccer/exsoccer_s1_b2.c:1639: return;
    00003408 C3r17r34         [10] 8657 	jp	00168$
    0000340B                       8658 00164$:
                                   8659 ;E:\Dropbox\FAUSTO\SVILUPPI\MSX\CODE\C\MSXgl\projects\exsoccer/exsoccer_s1_b2.c:1516: for(u8 i=0; i<14; i++){
    0000340B DD 34 FB         [23] 8660 	inc	-5 (ix)
    0000340E DD 7E FB         [19] 8661 	ld	a, -5 (ix)
    00003411 DD 77 EF         [19] 8662 	ld	-17 (ix), a
    00003414 C3r81r30         [10] 8663 	jp	00167$
    00003417                       8664 00168$:
                                   8665 ;E:\Dropbox\FAUSTO\SVILUPPI\MSX\CODE\C\MSXgl\projects\exsoccer/exsoccer_s1_b2.c:1644: }
    00003417 DD F9            [10] 8666 	ld	sp, ix
    00003419 DD E1            [14] 8667 	pop	ix
    0000341B C9               [10] 8668 	ret
                                   8669 ;E:\Dropbox\FAUSTO\SVILUPPI\MSX\CODE\C\MSXgl\projects\exsoccer/exsoccer_s1_b2.c:1646: void HandleOffside(u8 offsidePlayerId) {
                                   8670 ;	---------------------------------
                                   8671 ; Function HandleOffside
                                   8672 ; ---------------------------------
    0000341C                       8673 _HandleOffside::
    0000341C 5F               [ 4] 8674 	ld	e, a
                                   8675 ;E:\Dropbox\FAUSTO\SVILUPPI\MSX\CODE\C\MSXgl\projects\exsoccer/exsoccer_s1_b2.c:1647: V9_PrintLayerAStringAtPos(10,18,"OFFSIDE");
    0000341D D5               [11] 8676 	push	de
    0000341E 21r59r34         [10] 8677 	ld	hl, #___str_4
    00003421 E5               [11] 8678 	push	hl
    00003422 2E 12            [ 7] 8679 	ld	l, #0x12
                                   8680 ;	spillPairReg hl
                                   8681 ;	spillPairReg hl
    00003424 3E 0A            [ 7] 8682 	ld	a, #0x0a
    00003426 CDr00r00         [17] 8683 	call	_V9_PrintLayerAStringAtPos
    00003429 D1               [10] 8684 	pop	de
                                   8685 ;E:\Dropbox\FAUSTO\SVILUPPI\MSX\CODE\C\MSXgl\projects\exsoccer/exsoccer_s1_b2.c:1648: g_MatchStatus=MATCH_BEFORE_OFFSIDE;
    0000342A 21r00r00         [10] 8686 	ld	hl, #_g_MatchStatus
    0000342D 36 0E            [10] 8687 	ld	(hl), #0x0e
                                   8688 ;E:\Dropbox\FAUSTO\SVILUPPI\MSX\CODE\C\MSXgl\projects\exsoccer/exsoccer_s1_b2.c:1649: u8 teamId = g_Players[offsidePlayerId].TeamId;
    0000342F 01r00r00         [10] 8689 	ld	bc, #_g_Players+0
    00003432 16 00            [ 7] 8690 	ld	d, #0x00
    00003434 6B               [ 4] 8691 	ld	l, e
    00003435 62               [ 4] 8692 	ld	h, d
    00003436 29               [11] 8693 	add	hl, hl
    00003437 29               [11] 8694 	add	hl, hl
    00003438 19               [11] 8695 	add	hl, de
    00003439 29               [11] 8696 	add	hl, hl
    0000343A 29               [11] 8697 	add	hl, hl
    0000343B 19               [11] 8698 	add	hl, de
    0000343C 09               [11] 8699 	add	hl, bc
    0000343D 11 09 00         [10] 8700 	ld	de, #0x0009
    00003440 19               [11] 8701 	add	hl, de
    00003441 7E               [ 7] 8702 	ld	a, (hl)
                                   8703 ;E:\Dropbox\FAUSTO\SVILUPPI\MSX\CODE\C\MSXgl\projects\exsoccer/exsoccer_s1_b2.c:1650: g_RestartKickTeamId = (teamId == TEAM_1) ? TEAM_2 : TEAM_1;
    00003442 3D               [ 4] 8704 	dec	a
    00003443 20 07            [12] 8705 	jr	NZ, 00103$
    00003445 3E 02            [ 7] 8706 	ld	a, #0x02
    00003447 0E 00            [ 7] 8707 	ld	c, #0x00
    00003449 C3r50r34         [10] 8708 	jp	00104$
    0000344C                       8709 00103$:
    0000344C 3E 01            [ 7] 8710 	ld	a, #0x01
    0000344E 0E 00            [ 7] 8711 	ld	c, #0x00
    00003450                       8712 00104$:
    00003450 32r00r00         [13] 8713 	ld	(_g_RestartKickTeamId+0), a
                                   8714 ;E:\Dropbox\FAUSTO\SVILUPPI\MSX\CODE\C\MSXgl\projects\exsoccer/exsoccer_s1_b2.c:1651: g_Timer = 0;
    00003453 21r00r00         [10] 8715 	ld	hl, #_g_Timer
    00003456 36 00            [10] 8716 	ld	(hl), #0x00
                                   8717 ;E:\Dropbox\FAUSTO\SVILUPPI\MSX\CODE\C\MSXgl\projects\exsoccer/exsoccer_s1_b2.c:1652: }
    00003458 C9               [10] 8718 	ret
    00003459                       8719 ___str_4:
    00003459 4F 46 46 53 49 44 45  8720 	.ascii "OFFSIDE"
    00003460 00                    8721 	.db 0x00
                                   8722 ;E:\Dropbox\FAUSTO\SVILUPPI\MSX\CODE\C\MSXgl\projects\exsoccer/exsoccer_s1_b2.c:1658: void EnforcePenaltyBoxRestriction() {
                                   8723 ;	---------------------------------
                                   8724 ; Function EnforcePenaltyBoxRestriction
                                   8725 ; ---------------------------------
    00003461                       8726 _EnforcePenaltyBoxRestriction::
    00003461 DD E5            [15] 8727 	push	ix
    00003463 DD 21 00 00      [14] 8728 	ld	ix,#0
    00003467 DD 39            [15] 8729 	add	ix,sp
    00003469 F5               [11] 8730 	push	af
    0000346A 3B               [ 6] 8731 	dec	sp
                                   8732 ;E:\Dropbox\FAUSTO\SVILUPPI\MSX\CODE\C\MSXgl\projects\exsoccer/exsoccer_s1_b2.c:1659: if (g_MatchStatus != MATCH_BALL_ON_GOALKEEPER) {
    0000346B 3Ar00r00         [13] 8733 	ld	a, (_g_MatchStatus+0)
    0000346E D6 0D            [ 7] 8734 	sub	a, #0x0d
                                   8735 ;E:\Dropbox\FAUSTO\SVILUPPI\MSX\CODE\C\MSXgl\projects\exsoccer/exsoccer_s1_b2.c:1660: return;
    00003470 C2r0Er35         [10] 8736 	jp	NZ,00119$
                                   8737 ;E:\Dropbox\FAUSTO\SVILUPPI\MSX\CODE\C\MSXgl\projects\exsoccer/exsoccer_s1_b2.c:1663: u8 gkOwnerId = g_Ball.PossessionPlayerId;
    00003473 21r06r00         [10] 8738 	ld	hl, #_g_Ball+6
    00003476 4E               [ 7] 8739 	ld	c, (hl)
                                   8740 ;E:\Dropbox\FAUSTO\SVILUPPI\MSX\CODE\C\MSXgl\projects\exsoccer/exsoccer_s1_b2.c:1665: if (gkOwnerId == NO_VALUE || g_Players[gkOwnerId].Role != PLAYER_ROLE_GOALKEEPER) {
    00003477 79               [ 4] 8741 	ld	a, c
    00003478 3C               [ 4] 8742 	inc	a
    00003479 CAr0Er35         [10] 8743 	jp	Z,00119$
    0000347C 06 00            [ 7] 8744 	ld	b, #0x00
    0000347E 69               [ 4] 8745 	ld	l, c
    0000347F 60               [ 4] 8746 	ld	h, b
    00003480 29               [11] 8747 	add	hl, hl
    00003481 29               [11] 8748 	add	hl, hl
    00003482 09               [11] 8749 	add	hl, bc
    00003483 29               [11] 8750 	add	hl, hl
    00003484 29               [11] 8751 	add	hl, hl
    00003485 09               [11] 8752 	add	hl, bc
    00003486 EB               [ 4] 8753 	ex	de, hl
    00003487 21r00r00         [10] 8754 	ld	hl, #_g_Players
    0000348A 19               [11] 8755 	add	hl, de
    0000348B EB               [ 4] 8756 	ex	de, hl
    0000348C D5               [11] 8757 	push	de
    0000348D FD E1            [14] 8758 	pop	iy
    0000348F FD 7E 0D         [19] 8759 	ld	a, 13 (iy)
    00003492 B7               [ 4] 8760 	or	a, a
                                   8761 ;E:\Dropbox\FAUSTO\SVILUPPI\MSX\CODE\C\MSXgl\projects\exsoccer/exsoccer_s1_b2.c:1666: return;
    00003493 20 79            [12] 8762 	jr	NZ, 00119$
                                   8763 ;E:\Dropbox\FAUSTO\SVILUPPI\MSX\CODE\C\MSXgl\projects\exsoccer/exsoccer_s1_b2.c:1669: u8 gkTeamId = g_Players[gkOwnerId].TeamId;
    00003495 21 09 00         [10] 8764 	ld	hl, #9
    00003498 19               [11] 8765 	add	hl, de
    00003499 7E               [ 7] 8766 	ld	a, (hl)
                                   8767 ;E:\Dropbox\FAUSTO\SVILUPPI\MSX\CODE\C\MSXgl\projects\exsoccer/exsoccer_s1_b2.c:1672: for (u8 i = 0; i < 14; i++) { 
    0000349A 3D               [ 4] 8768 	dec	a
    0000349B 3E 01            [ 7] 8769 	ld	a, #0x01
    0000349D 28 01            [12] 8770 	jr	Z, 00165$
    0000349F AF               [ 4] 8771 	xor	a, a
    000034A0                       8772 00165$:
    000034A0 DD 77 FD         [19] 8773 	ld	-3 (ix), a
    000034A3 06 00            [ 7] 8774 	ld	b, #0x00
    000034A5                       8775 00118$:
    000034A5 78               [ 4] 8776 	ld	a, b
    000034A6 D6 0E            [ 7] 8777 	sub	a, #0x0e
    000034A8 30 64            [12] 8778 	jr	NC, 00119$
                                   8779 ;E:\Dropbox\FAUSTO\SVILUPPI\MSX\CODE\C\MSXgl\projects\exsoccer/exsoccer_s1_b2.c:1673: if (i == gkOwnerId) continue; // Skip the GK himself
    000034AA 79               [ 4] 8780 	ld	a, c
    000034AB 90               [ 4] 8781 	sub	a, b
    000034AC 28 5C            [12] 8782 	jr	Z, 00115$
                                   8783 ;E:\Dropbox\FAUSTO\SVILUPPI\MSX\CODE\C\MSXgl\projects\exsoccer/exsoccer_s1_b2.c:1676: if (g_Players[i].TargetY > PENALTY_BOX_Y_BOTTOM) {
    000034AE 58               [ 4] 8784 	ld	e, b
    000034AF 16 00            [ 7] 8785 	ld	d, #0x00
    000034B1 6B               [ 4] 8786 	ld	l, e
    000034B2 62               [ 4] 8787 	ld	h, d
    000034B3 29               [11] 8788 	add	hl, hl
    000034B4 29               [11] 8789 	add	hl, hl
    000034B5 19               [11] 8790 	add	hl, de
    000034B6 29               [11] 8791 	add	hl, hl
    000034B7 29               [11] 8792 	add	hl, hl
    000034B8 19               [11] 8793 	add	hl, de
    000034B9 11r00r00         [10] 8794 	ld	de, #_g_Players
    000034BC 19               [11] 8795 	add	hl, de
    000034BD DD 75 FE         [19] 8796 	ld	-2 (ix), l
    000034C0 DD 74 FF         [19] 8797 	ld	-1 (ix), h
    000034C3 11 0E 00         [10] 8798 	ld	de, #0x000e
    000034C6 19               [11] 8799 	add	hl, de
    000034C7 5E               [ 7] 8800 	ld	e, (hl)
    000034C8 23               [ 6] 8801 	inc	hl
    000034C9 56               [ 7] 8802 	ld	d, (hl)
    000034CA 2B               [ 6] 8803 	dec	hl
                                   8804 ;E:\Dropbox\FAUSTO\SVILUPPI\MSX\CODE\C\MSXgl\projects\exsoccer/exsoccer_s1_b2.c:1675: if (gkTeamId == TEAM_1) { // Bottom GK has ball, players can't be in y > PENALTY_BOX_Y_BOTTOM
    000034CB DD 7E FD         [19] 8805 	ld	a, -3 (ix)
    000034CE B7               [ 4] 8806 	or	a, a
    000034CF 28 1E            [12] 8807 	jr	Z, 00113$
                                   8808 ;E:\Dropbox\FAUSTO\SVILUPPI\MSX\CODE\C\MSXgl\projects\exsoccer/exsoccer_s1_b2.c:1676: if (g_Players[i].TargetY > PENALTY_BOX_Y_BOTTOM) {
    000034D1 3E 5E            [ 7] 8809 	ld	a, #0x5e
    000034D3 BB               [ 4] 8810 	cp	a, e
    000034D4 3E 01            [ 7] 8811 	ld	a, #0x01
    000034D6 9A               [ 4] 8812 	sbc	a, d
    000034D7 30 31            [12] 8813 	jr	NC, 00115$
                                   8814 ;E:\Dropbox\FAUSTO\SVILUPPI\MSX\CODE\C\MSXgl\projects\exsoccer/exsoccer_s1_b2.c:1677: g_Players[i].TargetY = PENALTY_BOX_Y_BOTTOM;
    000034D9 36 5E            [10] 8815 	ld	(hl), #0x5e
    000034DB 23               [ 6] 8816 	inc	hl
    000034DC 36 01            [10] 8817 	ld	(hl), #0x01
                                   8818 ;E:\Dropbox\FAUSTO\SVILUPPI\MSX\CODE\C\MSXgl\projects\exsoccer/exsoccer_s1_b2.c:1678: g_Players[i].Status = PLAYER_STATUS_NONE;
    000034DE DD 6E FE         [19] 8819 	ld	l, -2 (ix)
    000034E1 DD 66 FF         [19] 8820 	ld	h, -1 (ix)
    000034E4 11 12 00         [10] 8821 	ld	de, #0x0012
    000034E7 19               [11] 8822 	add	hl, de
    000034E8 AF               [ 4] 8823 	xor	a, a
    000034E9 77               [ 7] 8824 	ld	(hl), a
    000034EA 23               [ 6] 8825 	inc	hl
    000034EB 77               [ 7] 8826 	ld	(hl), a
    000034EC C3r0Ar35         [10] 8827 	jp	00115$
    000034EF                       8828 00113$:
                                   8829 ;E:\Dropbox\FAUSTO\SVILUPPI\MSX\CODE\C\MSXgl\projects\exsoccer/exsoccer_s1_b2.c:1681: if (g_Players[i].TargetY < PENALTY_BOX_Y_TOP) {
    000034EF 7B               [ 4] 8830 	ld	a, e
    000034F0 D6 82            [ 7] 8831 	sub	a, #0x82
    000034F2 7A               [ 4] 8832 	ld	a, d
    000034F3 DE 00            [ 7] 8833 	sbc	a, #0x00
    000034F5 30 13            [12] 8834 	jr	NC, 00115$
                                   8835 ;E:\Dropbox\FAUSTO\SVILUPPI\MSX\CODE\C\MSXgl\projects\exsoccer/exsoccer_s1_b2.c:1682: g_Players[i].TargetY = PENALTY_BOX_Y_TOP;
    000034F7 36 82            [10] 8836 	ld	(hl), #0x82
    000034F9 23               [ 6] 8837 	inc	hl
    000034FA 36 00            [10] 8838 	ld	(hl), #0x00
                                   8839 ;E:\Dropbox\FAUSTO\SVILUPPI\MSX\CODE\C\MSXgl\projects\exsoccer/exsoccer_s1_b2.c:1683: g_Players[i].Status = PLAYER_STATUS_NONE;
    000034FC DD 6E FE         [19] 8840 	ld	l, -2 (ix)
    000034FF DD 66 FF         [19] 8841 	ld	h, -1 (ix)
    00003502 11 12 00         [10] 8842 	ld	de, #0x0012
    00003505 19               [11] 8843 	add	hl, de
    00003506 AF               [ 4] 8844 	xor	a, a
    00003507 77               [ 7] 8845 	ld	(hl), a
    00003508 23               [ 6] 8846 	inc	hl
    00003509 77               [ 7] 8847 	ld	(hl), a
    0000350A                       8848 00115$:
                                   8849 ;E:\Dropbox\FAUSTO\SVILUPPI\MSX\CODE\C\MSXgl\projects\exsoccer/exsoccer_s1_b2.c:1672: for (u8 i = 0; i < 14; i++) { 
    0000350A 04               [ 4] 8850 	inc	b
    0000350B C3rA5r34         [10] 8851 	jp	00118$
    0000350E                       8852 00119$:
                                   8853 ;E:\Dropbox\FAUSTO\SVILUPPI\MSX\CODE\C\MSXgl\projects\exsoccer/exsoccer_s1_b2.c:1687: }
    0000350E DD F9            [10] 8854 	ld	sp, ix
    00003510 DD E1            [14] 8855 	pop	ix
    00003512 C9               [10] 8856 	ret
                                   8857 ;E:\Dropbox\FAUSTO\SVILUPPI\MSX\CODE\C\MSXgl\projects\exsoccer/exsoccer_s1_b2.c:1864: void InitPalette()
                                   8858 ;	---------------------------------
                                   8859 ; Function InitPalette
                                   8860 ; ---------------------------------
    00003513                       8861 _InitPalette::
                                   8862 ;E:\Dropbox\FAUSTO\SVILUPPI\MSX\CODE\C\MSXgl\projects\exsoccer/exsoccer_s1_b2.c:1866: V9_SetPalette(0, 16, g_GameFieldLayerATilesPalette);
    00003513 21r78r35         [10] 8863 	ld	hl, #_g_GameFieldLayerATilesPalette+0
                                   8864 ;E:\Dropbox\FAUSTO\SVILUPPI\MSX\CODE\C\MSXgl\projects\exsoccer/exsoccer_s1_b2.c:1028: static bool joyMoved = false;
    00003516 01 00 00         [10] 8865 	ld	bc, #0x0
    00003519                       8866 00107$:
    00003519 78               [ 4] 8867 	ld	a, b
    0000351A D6 10            [ 7] 8868 	sub	a, #0x10
    0000351C 30 1F            [12] 8869 	jr	NC, 00102$
    0000351E FD E5            [15] 8870 	push	iy
    00003520 E3               [19] 8871 	ex	(sp), hl
    00003521 69               [ 4] 8872 	ld	l, c
                                   8873 ;	spillPairReg hl
                                   8874 ;	spillPairReg hl
    00003522 E3               [19] 8875 	ex	(sp), hl
    00003523 FD E1            [14] 8876 	pop	iy
    00003525 0C               [ 4] 8877 	inc	c
    00003526 E5               [11] 8878 	push	hl
    00003527 C5               [11] 8879 	push	bc
    00003528 5D               [ 4] 8880 	ld	e, l
    00003529 54               [ 4] 8881 	ld	d, h
    0000352A FD E5            [15] 8882 	push	iy
    0000352C E3               [19] 8883 	ex	(sp), hl
    0000352D 7D               [ 4] 8884 	ld	a, l
    0000352E E3               [19] 8885 	ex	(sp), hl
    0000352F FD E1            [14] 8886 	pop	iy
    00003531 CDr00r00         [17] 8887 	call	_V9_SetPaletteEntry
    00003534 C1               [10] 8888 	pop	bc
    00003535 E1               [10] 8889 	pop	hl
    00003536 23               [ 6] 8890 	inc	hl
    00003537 23               [ 6] 8891 	inc	hl
    00003538 23               [ 6] 8892 	inc	hl
    00003539 04               [ 4] 8893 	inc	b
    0000353A C3r19r35         [10] 8894 	jp	00107$
                                   8895 ;E:\Dropbox\FAUSTO\SVILUPPI\MSX\CODE\C\MSXgl\projects\exsoccer/exsoccer_s1_b2.c:1866: V9_SetPalette(0, 16, g_GameFieldLayerATilesPalette);
    0000353D                       8896 00102$:
                                   8897 ;E:\Dropbox\FAUSTO\SVILUPPI\MSX\CODE\C\MSXgl\projects\exsoccer/exsoccer_s1_b2.c:1867: V9_SetPalette(16, 16, g_GameFieldLayerBTilesPalette);
    0000353D 21rA8r35         [10] 8898 	ld	hl, #_g_GameFieldLayerBTilesPalette+0
                                   8899 ;E:\Dropbox\FAUSTO\SVILUPPI\MSX\CODE\C\MSXgl\projects\exsoccer/exsoccer_s1_b2.c:1028: static bool joyMoved = false;
    00003540 01 10 00         [10] 8900 	ld	bc, #0x10
    00003543                       8901 00110$:
    00003543 78               [ 4] 8902 	ld	a, b
    00003544 D6 10            [ 7] 8903 	sub	a, #0x10
    00003546 30 1F            [12] 8904 	jr	NC, 00104$
    00003548 FD E5            [15] 8905 	push	iy
    0000354A E3               [19] 8906 	ex	(sp), hl
    0000354B 69               [ 4] 8907 	ld	l, c
                                   8908 ;	spillPairReg hl
                                   8909 ;	spillPairReg hl
    0000354C E3               [19] 8910 	ex	(sp), hl
    0000354D FD E1            [14] 8911 	pop	iy
    0000354F 0C               [ 4] 8912 	inc	c
    00003550 E5               [11] 8913 	push	hl
    00003551 C5               [11] 8914 	push	bc
    00003552 5D               [ 4] 8915 	ld	e, l
    00003553 54               [ 4] 8916 	ld	d, h
    00003554 FD E5            [15] 8917 	push	iy
    00003556 E3               [19] 8918 	ex	(sp), hl
    00003557 7D               [ 4] 8919 	ld	a, l
    00003558 E3               [19] 8920 	ex	(sp), hl
    00003559 FD E1            [14] 8921 	pop	iy
    0000355B CDr00r00         [17] 8922 	call	_V9_SetPaletteEntry
    0000355E C1               [10] 8923 	pop	bc
    0000355F E1               [10] 8924 	pop	hl
    00003560 23               [ 6] 8925 	inc	hl
    00003561 23               [ 6] 8926 	inc	hl
    00003562 23               [ 6] 8927 	inc	hl
    00003563 04               [ 4] 8928 	inc	b
    00003564 C3r43r35         [10] 8929 	jp	00110$
                                   8930 ;E:\Dropbox\FAUSTO\SVILUPPI\MSX\CODE\C\MSXgl\projects\exsoccer/exsoccer_s1_b2.c:1867: V9_SetPalette(16, 16, g_GameFieldLayerBTilesPalette);
    00003567                       8931 00104$:
                                   8932 ;E:/Dropbox/FAUSTO/SVILUPPI/MSX/CODE/C/MSXgl/engine/src/v9990.h:1047: inline void V9_SelectPaletteP1(u8 a, u8 b) { V9_SetRegister(13, ((b & 0x3) << 2) + (a & 0x3)); }
    00003567 3E 01            [ 7] 8933 	ld	a, #0x01
    00003569 E6 03            [ 7] 8934 	and	a, #0x03
    0000356B 87               [ 4] 8935 	add	a, a
    0000356C 87               [ 4] 8936 	add	a, a
    0000356D 4F               [ 4] 8937 	ld	c, a
    0000356E AF               [ 4] 8938 	xor	a, a
    0000356F E6 03            [ 7] 8939 	and	a, #0x03
    00003571 81               [ 4] 8940 	add	a, c
    00003572 6F               [ 4] 8941 	ld	l, a
                                   8942 ;	spillPairReg hl
                                   8943 ;	spillPairReg hl
    00003573 3E 0D            [ 7] 8944 	ld	a, #0x0d
                                   8945 ;E:\Dropbox\FAUSTO\SVILUPPI\MSX\CODE\C\MSXgl\projects\exsoccer/exsoccer_s1_b2.c:1868: V9_SelectPaletteP1(0,1);
                                   8946 ;E:\Dropbox\FAUSTO\SVILUPPI\MSX\CODE\C\MSXgl\projects\exsoccer/exsoccer_s1_b2.c:1869: }
    00003575 C3r00r00         [10] 8947 	jp	_V9_SetRegister
    00003578                       8948 _g_GameFieldLayerATilesPalette:
    00003578 00                    8949 	.db #0x00	; 0
    00003579 00                    8950 	.db #0x00	; 0
    0000357A 00                    8951 	.db #0x00	; 0
    0000357B 01                    8952 	.db #0x01	; 1
    0000357C 01                    8953 	.db #0x01	; 1
    0000357D 01                    8954 	.db #0x01	; 1
    0000357E 01                    8955 	.db #0x01	; 1
    0000357F 01                    8956 	.db #0x01	; 1
    00003580 01                    8957 	.db #0x01	; 1
    00003581 01                    8958 	.db #0x01	; 1
    00003582 01                    8959 	.db #0x01	; 1
    00003583 01                    8960 	.db #0x01	; 1
    00003584 FF                    8961 	.db #0xff	; 255
    00003585 FF                    8962 	.db #0xff	; 255
    00003586 FF                    8963 	.db #0xff	; 255
    00003587 1E                    8964 	.db #0x1e	; 30
    00003588 1A                    8965 	.db #0x1a	; 26
    00003589 08                    8966 	.db #0x08	; 8
    0000358A 01                    8967 	.db #0x01	; 1
    0000358B 01                    8968 	.db #0x01	; 1
    0000358C 01                    8969 	.db #0x01	; 1
    0000358D 14                    8970 	.db #0x14	; 20
    0000358E 09                    8971 	.db #0x09	; 9
    0000358F 14                    8972 	.db #0x14	; 20
    00003590 1B                    8973 	.db #0x1b	; 27
    00003591 13                    8974 	.db #0x13	; 19
    00003592 09                    8975 	.db #0x09	; 9
    00003593 01                    8976 	.db #0x01	; 1
    00003594 01                    8977 	.db #0x01	; 1
    00003595 01                    8978 	.db #0x01	; 1
    00003596 01                    8979 	.db #0x01	; 1
    00003597 01                    8980 	.db #0x01	; 1
    00003598 01                    8981 	.db #0x01	; 1
    00003599 01                    8982 	.db #0x01	; 1
    0000359A 01                    8983 	.db #0x01	; 1
    0000359B 01                    8984 	.db #0x01	; 1
    0000359C 01                    8985 	.db #0x01	; 1
    0000359D 01                    8986 	.db #0x01	; 1
    0000359E 01                    8987 	.db #0x01	; 1
    0000359F 01                    8988 	.db #0x01	; 1
    000035A0 01                    8989 	.db #0x01	; 1
    000035A1 01                    8990 	.db #0x01	; 1
    000035A2 01                    8991 	.db #0x01	; 1
    000035A3 01                    8992 	.db #0x01	; 1
    000035A4 01                    8993 	.db #0x01	; 1
    000035A5 FF                    8994 	.db #0xff	; 255
    000035A6 FF                    8995 	.db #0xff	; 255
    000035A7 FF                    8996 	.db #0xff	; 255
    000035A8                       8997 _g_GameFieldLayerBTilesPalette:
    000035A8 00                    8998 	.db #0x00	; 0
    000035A9 00                    8999 	.db #0x00	; 0
    000035AA 00                    9000 	.db #0x00	; 0
    000035AB 08                    9001 	.db #0x08	; 8
    000035AC 17                    9002 	.db #0x17	; 23
    000035AD 1B                    9003 	.db #0x1b	; 27
    000035AE 01                    9004 	.db #0x01	; 1
    000035AF 01                    9005 	.db #0x01	; 1
    000035B0 01                    9006 	.db #0x01	; 1
    000035B1 01                    9007 	.db #0x01	; 1
    000035B2 01                    9008 	.db #0x01	; 1
    000035B3 01                    9009 	.db #0x01	; 1
    000035B4 01                    9010 	.db #0x01	; 1
    000035B5 01                    9011 	.db #0x01	; 1
    000035B6 01                    9012 	.db #0x01	; 1
    000035B7 1E                    9013 	.db #0x1e	; 30
    000035B8 1A                    9014 	.db #0x1a	; 26
    000035B9 08                    9015 	.db #0x08	; 8
    000035BA 01                    9016 	.db #0x01	; 1
    000035BB 01                    9017 	.db #0x01	; 1
    000035BC 01                    9018 	.db #0x01	; 1
    000035BD 01                    9019 	.db #0x01	; 1
    000035BE 01                    9020 	.db #0x01	; 1
    000035BF 01                    9021 	.db #0x01	; 1
    000035C0 01                    9022 	.db #0x01	; 1
    000035C1 01                    9023 	.db #0x01	; 1
    000035C2 01                    9024 	.db #0x01	; 1
    000035C3 1F                    9025 	.db #0x1f	; 31
    000035C4 00                    9026 	.db #0x00	; 0
    000035C5 00                    9027 	.db #0x00	; 0
    000035C6 1B                    9028 	.db #0x1b	; 27
    000035C7 1B                    9029 	.db #0x1b	; 27
    000035C8 1B                    9030 	.db #0x1b	; 27
    000035C9 04                    9031 	.db #0x04	; 4
    000035CA 04                    9032 	.db #0x04	; 4
    000035CB 1B                    9033 	.db #0x1b	; 27
    000035CC 00                    9034 	.db #0x00	; 0
    000035CD 00                    9035 	.db #0x00	; 0
    000035CE 00                    9036 	.db #0x00	; 0
    000035CF 1B                    9037 	.db #0x1b	; 27
    000035D0 1B                    9038 	.db #0x1b	; 27
    000035D1 1B                    9039 	.db #0x1b	; 27
    000035D2 00                    9040 	.db #0x00	; 0
    000035D3 17                    9041 	.db #0x17	; 23
    000035D4 00                    9042 	.db #0x00	; 0
    000035D5 1B                    9043 	.db #0x1b	; 27
    000035D6 13                    9044 	.db #0x13	; 19
    000035D7 09                    9045 	.db #0x09	; 9
    000035D8                       9046 _g_Sprites1_palette_ita:
    000035D8 00                    9047 	.db #0x00	; 0
    000035D9 00                    9048 	.db #0x00	; 0
    000035DA 00                    9049 	.db #0x00	; 0
    000035DB 14                    9050 	.db #0x14	; 20
    000035DC 09                    9051 	.db #0x09	; 9
    000035DD 14                    9052 	.db #0x14	; 20
    000035DE 01                    9053 	.db #0x01	; 1
    000035DF 01                    9054 	.db #0x01	; 1
    000035E0 01                    9055 	.db #0x01	; 1
    000035E1 05                    9056 	.db #0x05	; 5
    000035E2 03                    9057 	.db #0x03	; 3
    000035E3 01                    9058 	.db #0x01	; 1
    000035E4 1B                    9059 	.db #0x1b	; 27
    000035E5 1A                    9060 	.db #0x1a	; 26
    000035E6 1B                    9061 	.db #0x1b	; 27
    000035E7 1E                    9062 	.db #0x1e	; 30
    000035E8 1A                    9063 	.db #0x1a	; 26
    000035E9 08                    9064 	.db #0x08	; 8
    000035EA 1B                    9065 	.db #0x1b	; 27
    000035EB 1A                    9066 	.db #0x1a	; 26
    000035EC 1B                    9067 	.db #0x1b	; 27
    000035ED 09                    9068 	.db #0x09	; 9
    000035EE 16                    9069 	.db #0x16	; 22
    000035EF 1B                    9070 	.db #0x1b	; 27
    000035F0 1B                    9071 	.db #0x1b	; 27
    000035F1 1A                    9072 	.db #0x1a	; 26
    000035F2 1B                    9073 	.db #0x1b	; 27
    000035F3 1B                    9074 	.db #0x1b	; 27
    000035F4 13                    9075 	.db #0x13	; 19
    000035F5 09                    9076 	.db #0x09	; 9
    000035F6 1F                    9077 	.db #0x1f	; 31
    000035F7 1E                    9078 	.db #0x1e	; 30
    000035F8 01                    9079 	.db #0x01	; 1
    000035F9 1D                    9080 	.db #0x1d	; 29
    000035FA 03                    9081 	.db #0x03	; 3
    000035FB 02                    9082 	.db #0x02	; 2
    000035FC 05                    9083 	.db #0x05	; 5
    000035FD 03                    9084 	.db #0x03	; 3
    000035FE 01                    9085 	.db #0x01	; 1
    000035FF 01                    9086 	.db #0x01	; 1
    00003600 01                    9087 	.db #0x01	; 1
    00003601 01                    9088 	.db #0x01	; 1
    00003602 01                    9089 	.db #0x01	; 1
    00003603 01                    9090 	.db #0x01	; 1
    00003604 01                    9091 	.db #0x01	; 1
    00003605 01                    9092 	.db #0x01	; 1
    00003606 01                    9093 	.db #0x01	; 1
    00003607 01                    9094 	.db #0x01	; 1
    00003608                       9095 _g_Sprites1_palette_aus:
    00003608 00                    9096 	.db #0x00	; 0
    00003609 00                    9097 	.db #0x00	; 0
    0000360A 00                    9098 	.db #0x00	; 0
    0000360B 14                    9099 	.db #0x14	; 20
    0000360C 09                    9100 	.db #0x09	; 9
    0000360D 14                    9101 	.db #0x14	; 20
    0000360E 01                    9102 	.db #0x01	; 1
    0000360F 01                    9103 	.db #0x01	; 1
    00003610 01                    9104 	.db #0x01	; 1
    00003611 05                    9105 	.db #0x05	; 5
    00003612 03                    9106 	.db #0x03	; 3
    00003613 01                    9107 	.db #0x01	; 1
    00003614 1B                    9108 	.db #0x1b	; 27
    00003615 1A                    9109 	.db #0x1a	; 26
    00003616 1B                    9110 	.db #0x1b	; 27
    00003617 1E                    9111 	.db #0x1e	; 30
    00003618 1A                    9112 	.db #0x1a	; 26
    00003619 08                    9113 	.db #0x08	; 8
    0000361A 1B                    9114 	.db #0x1b	; 27
    0000361B 1A                    9115 	.db #0x1a	; 26
    0000361C 1B                    9116 	.db #0x1b	; 27
    0000361D 05                    9117 	.db #0x05	; 5
    0000361E 03                    9118 	.db #0x03	; 3
    0000361F 01                    9119 	.db #0x01	; 1
    00003620 1B                    9120 	.db #0x1b	; 27
    00003621 1A                    9121 	.db #0x1a	; 26
    00003622 1B                    9122 	.db #0x1b	; 27
    00003623 1B                    9123 	.db #0x1b	; 27
    00003624 13                    9124 	.db #0x13	; 19
    00003625 09                    9125 	.db #0x09	; 9
    00003626 1F                    9126 	.db #0x1f	; 31
    00003627 1E                    9127 	.db #0x1e	; 30
    00003628 01                    9128 	.db #0x01	; 1
    00003629 1D                    9129 	.db #0x1d	; 29
    0000362A 03                    9130 	.db #0x03	; 3
    0000362B 02                    9131 	.db #0x02	; 2
    0000362C 05                    9132 	.db #0x05	; 5
    0000362D 03                    9133 	.db #0x03	; 3
    0000362E 01                    9134 	.db #0x01	; 1
    0000362F 01                    9135 	.db #0x01	; 1
    00003630 01                    9136 	.db #0x01	; 1
    00003631 01                    9137 	.db #0x01	; 1
    00003632 01                    9138 	.db #0x01	; 1
    00003633 01                    9139 	.db #0x01	; 1
    00003634 01                    9140 	.db #0x01	; 1
    00003635 01                    9141 	.db #0x01	; 1
    00003636 01                    9142 	.db #0x01	; 1
    00003637 01                    9143 	.db #0x01	; 1
    00003638                       9144 _g_Sprites1_palette_fra:
    00003638 00                    9145 	.db #0x00	; 0
    00003639 00                    9146 	.db #0x00	; 0
    0000363A 00                    9147 	.db #0x00	; 0
    0000363B 14                    9148 	.db #0x14	; 20
    0000363C 09                    9149 	.db #0x09	; 9
    0000363D 14                    9150 	.db #0x14	; 20
    0000363E 01                    9151 	.db #0x01	; 1
    0000363F 01                    9152 	.db #0x01	; 1
    00003640 01                    9153 	.db #0x01	; 1
    00003641 05                    9154 	.db #0x05	; 5
    00003642 03                    9155 	.db #0x03	; 3
    00003643 01                    9156 	.db #0x01	; 1
    00003644 1B                    9157 	.db #0x1b	; 27
    00003645 1A                    9158 	.db #0x1a	; 26
    00003646 1B                    9159 	.db #0x1b	; 27
    00003647 1E                    9160 	.db #0x1e	; 30
    00003648 1A                    9161 	.db #0x1a	; 26
    00003649 08                    9162 	.db #0x08	; 8
    0000364A 1B                    9163 	.db #0x1b	; 27
    0000364B 1A                    9164 	.db #0x1a	; 26
    0000364C 1B                    9165 	.db #0x1b	; 27
    0000364D 04                    9166 	.db #0x04	; 4
    0000364E 04                    9167 	.db #0x04	; 4
    0000364F 1B                    9168 	.db #0x1b	; 27
    00003650 1B                    9169 	.db #0x1b	; 27
    00003651 1A                    9170 	.db #0x1a	; 26
    00003652 1B                    9171 	.db #0x1b	; 27
    00003653 1B                    9172 	.db #0x1b	; 27
    00003654 13                    9173 	.db #0x13	; 19
    00003655 09                    9174 	.db #0x09	; 9
    00003656 1F                    9175 	.db #0x1f	; 31
    00003657 1E                    9176 	.db #0x1e	; 30
    00003658 01                    9177 	.db #0x01	; 1
    00003659 1D                    9178 	.db #0x1d	; 29
    0000365A 03                    9179 	.db #0x03	; 3
    0000365B 02                    9180 	.db #0x02	; 2
    0000365C 05                    9181 	.db #0x05	; 5
    0000365D 03                    9182 	.db #0x03	; 3
    0000365E 01                    9183 	.db #0x01	; 1
    0000365F 01                    9184 	.db #0x01	; 1
    00003660 01                    9185 	.db #0x01	; 1
    00003661 01                    9186 	.db #0x01	; 1
    00003662 01                    9187 	.db #0x01	; 1
    00003663 01                    9188 	.db #0x01	; 1
    00003664 01                    9189 	.db #0x01	; 1
    00003665 01                    9190 	.db #0x01	; 1
    00003666 01                    9191 	.db #0x01	; 1
    00003667 01                    9192 	.db #0x01	; 1
    00003668                       9193 _g_Sprites1_palette_ger:
    00003668 00                    9194 	.db #0x00	; 0
    00003669 00                    9195 	.db #0x00	; 0
    0000366A 00                    9196 	.db #0x00	; 0
    0000366B 14                    9197 	.db #0x14	; 20
    0000366C 09                    9198 	.db #0x09	; 9
    0000366D 14                    9199 	.db #0x14	; 20
    0000366E 01                    9200 	.db #0x01	; 1
    0000366F 01                    9201 	.db #0x01	; 1
    00003670 01                    9202 	.db #0x01	; 1
    00003671 05                    9203 	.db #0x05	; 5
    00003672 03                    9204 	.db #0x03	; 3
    00003673 01                    9205 	.db #0x01	; 1
    00003674 1B                    9206 	.db #0x1b	; 27
    00003675 1A                    9207 	.db #0x1a	; 26
    00003676 1B                    9208 	.db #0x1b	; 27
    00003677 1E                    9209 	.db #0x1e	; 30
    00003678 1A                    9210 	.db #0x1a	; 26
    00003679 08                    9211 	.db #0x08	; 8
    0000367A 05                    9212 	.db #0x05	; 5
    0000367B 03                    9213 	.db #0x03	; 3
    0000367C 01                    9214 	.db #0x01	; 1
    0000367D 1B                    9215 	.db #0x1b	; 27
    0000367E 1A                    9216 	.db #0x1a	; 26
    0000367F 1B                    9217 	.db #0x1b	; 27
    00003680 1F                    9218 	.db #0x1f	; 31
    00003681 00                    9219 	.db #0x00	; 0
    00003682 00                    9220 	.db #0x00	; 0
    00003683 1B                    9221 	.db #0x1b	; 27
    00003684 13                    9222 	.db #0x13	; 19
    00003685 09                    9223 	.db #0x09	; 9
    00003686 1F                    9224 	.db #0x1f	; 31
    00003687 1E                    9225 	.db #0x1e	; 30
    00003688 01                    9226 	.db #0x01	; 1
    00003689 1D                    9227 	.db #0x1d	; 29
    0000368A 03                    9228 	.db #0x03	; 3
    0000368B 02                    9229 	.db #0x02	; 2
    0000368C 05                    9230 	.db #0x05	; 5
    0000368D 03                    9231 	.db #0x03	; 3
    0000368E 01                    9232 	.db #0x01	; 1
    0000368F 01                    9233 	.db #0x01	; 1
    00003690 01                    9234 	.db #0x01	; 1
    00003691 01                    9235 	.db #0x01	; 1
    00003692 01                    9236 	.db #0x01	; 1
    00003693 01                    9237 	.db #0x01	; 1
    00003694 01                    9238 	.db #0x01	; 1
    00003695 01                    9239 	.db #0x01	; 1
    00003696 01                    9240 	.db #0x01	; 1
    00003697 01                    9241 	.db #0x01	; 1
    00003698                       9242 _g_Sprites1_palette_gbr:
    00003698 00                    9243 	.db #0x00	; 0
    00003699 00                    9244 	.db #0x00	; 0
    0000369A 00                    9245 	.db #0x00	; 0
    0000369B 14                    9246 	.db #0x14	; 20
    0000369C 09                    9247 	.db #0x09	; 9
    0000369D 14                    9248 	.db #0x14	; 20
    0000369E 01                    9249 	.db #0x01	; 1
    0000369F 01                    9250 	.db #0x01	; 1
    000036A0 01                    9251 	.db #0x01	; 1
    000036A1 05                    9252 	.db #0x05	; 5
    000036A2 03                    9253 	.db #0x03	; 3
    000036A3 01                    9254 	.db #0x01	; 1
    000036A4 1B                    9255 	.db #0x1b	; 27
    000036A5 1A                    9256 	.db #0x1a	; 26
    000036A6 1B                    9257 	.db #0x1b	; 27
    000036A7 1E                    9258 	.db #0x1e	; 30
    000036A8 1A                    9259 	.db #0x1a	; 26
    000036A9 08                    9260 	.db #0x08	; 8
    000036AA 01                    9261 	.db #0x01	; 1
    000036AB 01                    9262 	.db #0x01	; 1
    000036AC 01                    9263 	.db #0x01	; 1
    000036AD 1B                    9264 	.db #0x1b	; 27
    000036AE 1A                    9265 	.db #0x1a	; 26
    000036AF 1B                    9266 	.db #0x1b	; 27
    000036B0 01                    9267 	.db #0x01	; 1
    000036B1 01                    9268 	.db #0x01	; 1
    000036B2 01                    9269 	.db #0x01	; 1
    000036B3 1B                    9270 	.db #0x1b	; 27
    000036B4 13                    9271 	.db #0x13	; 19
    000036B5 09                    9272 	.db #0x09	; 9
    000036B6 1F                    9273 	.db #0x1f	; 31
    000036B7 1E                    9274 	.db #0x1e	; 30
    000036B8 01                    9275 	.db #0x01	; 1
    000036B9 1D                    9276 	.db #0x1d	; 29
    000036BA 03                    9277 	.db #0x03	; 3
    000036BB 02                    9278 	.db #0x02	; 2
    000036BC 05                    9279 	.db #0x05	; 5
    000036BD 03                    9280 	.db #0x03	; 3
    000036BE 01                    9281 	.db #0x01	; 1
    000036BF 01                    9282 	.db #0x01	; 1
    000036C0 01                    9283 	.db #0x01	; 1
    000036C1 01                    9284 	.db #0x01	; 1
    000036C2 01                    9285 	.db #0x01	; 1
    000036C3 01                    9286 	.db #0x01	; 1
    000036C4 01                    9287 	.db #0x01	; 1
    000036C5 01                    9288 	.db #0x01	; 1
    000036C6 01                    9289 	.db #0x01	; 1
    000036C7 01                    9290 	.db #0x01	; 1
    000036C8                       9291 _g_Sprites1_palette_bra:
    000036C8 00                    9292 	.db #0x00	; 0
    000036C9 00                    9293 	.db #0x00	; 0
    000036CA 00                    9294 	.db #0x00	; 0
    000036CB 14                    9295 	.db #0x14	; 20
    000036CC 09                    9296 	.db #0x09	; 9
    000036CD 14                    9297 	.db #0x14	; 20
    000036CE 01                    9298 	.db #0x01	; 1
    000036CF 01                    9299 	.db #0x01	; 1
    000036D0 01                    9300 	.db #0x01	; 1
    000036D1 05                    9301 	.db #0x05	; 5
    000036D2 03                    9302 	.db #0x03	; 3
    000036D3 01                    9303 	.db #0x01	; 1
    000036D4 1B                    9304 	.db #0x1b	; 27
    000036D5 1A                    9305 	.db #0x1a	; 26
    000036D6 1B                    9306 	.db #0x1b	; 27
    000036D7 1E                    9307 	.db #0x1e	; 30
    000036D8 1A                    9308 	.db #0x1a	; 26
    000036D9 08                    9309 	.db #0x08	; 8
    000036DA 1B                    9310 	.db #0x1b	; 27
    000036DB 13                    9311 	.db #0x13	; 19
    000036DC 09                    9312 	.db #0x09	; 9
    000036DD 00                    9313 	.db #0x00	; 0
    000036DE 0A                    9314 	.db #0x0a	; 10
    000036DF 03                    9315 	.db #0x03	; 3
    000036E0 1B                    9316 	.db #0x1b	; 27
    000036E1 13                    9317 	.db #0x13	; 19
    000036E2 09                    9318 	.db #0x09	; 9
    000036E3 1B                    9319 	.db #0x1b	; 27
    000036E4 13                    9320 	.db #0x13	; 19
    000036E5 09                    9321 	.db #0x09	; 9
    000036E6 1F                    9322 	.db #0x1f	; 31
    000036E7 1E                    9323 	.db #0x1e	; 30
    000036E8 01                    9324 	.db #0x01	; 1
    000036E9 1D                    9325 	.db #0x1d	; 29
    000036EA 03                    9326 	.db #0x03	; 3
    000036EB 02                    9327 	.db #0x02	; 2
    000036EC 05                    9328 	.db #0x05	; 5
    000036ED 03                    9329 	.db #0x03	; 3
    000036EE 01                    9330 	.db #0x01	; 1
    000036EF 01                    9331 	.db #0x01	; 1
    000036F0 01                    9332 	.db #0x01	; 1
    000036F1 01                    9333 	.db #0x01	; 1
    000036F2 01                    9334 	.db #0x01	; 1
    000036F3 01                    9335 	.db #0x01	; 1
    000036F4 01                    9336 	.db #0x01	; 1
    000036F5 01                    9337 	.db #0x01	; 1
    000036F6 01                    9338 	.db #0x01	; 1
    000036F7 01                    9339 	.db #0x01	; 1
    000036F8                       9340 _g_Sprites1_palette_fio:
    000036F8 00                    9341 	.db #0x00	; 0
    000036F9 00                    9342 	.db #0x00	; 0
    000036FA 00                    9343 	.db #0x00	; 0
    000036FB 14                    9344 	.db #0x14	; 20
    000036FC 09                    9345 	.db #0x09	; 9
    000036FD 14                    9346 	.db #0x14	; 20
    000036FE 01                    9347 	.db #0x01	; 1
    000036FF 01                    9348 	.db #0x01	; 1
    00003700 01                    9349 	.db #0x01	; 1
    00003701 05                    9350 	.db #0x05	; 5
    00003702 03                    9351 	.db #0x03	; 3
    00003703 01                    9352 	.db #0x01	; 1
    00003704 1B                    9353 	.db #0x1b	; 27
    00003705 1A                    9354 	.db #0x1a	; 26
    00003706 1B                    9355 	.db #0x1b	; 27
    00003707 1E                    9356 	.db #0x1e	; 30
    00003708 1A                    9357 	.db #0x1a	; 26
    00003709 08                    9358 	.db #0x08	; 8
    0000370A 1B                    9359 	.db #0x1b	; 27
    0000370B 13                    9360 	.db #0x13	; 19
    0000370C 09                    9361 	.db #0x09	; 9
    0000370D 1B                    9362 	.db #0x1b	; 27
    0000370E 02                    9363 	.db #0x02	; 2
    0000370F 14                    9364 	.db #0x14	; 20
    00003710 1B                    9365 	.db #0x1b	; 27
    00003711 13                    9366 	.db #0x13	; 19
    00003712 09                    9367 	.db #0x09	; 9
    00003713 1B                    9368 	.db #0x1b	; 27
    00003714 13                    9369 	.db #0x13	; 19
    00003715 09                    9370 	.db #0x09	; 9
    00003716 1F                    9371 	.db #0x1f	; 31
    00003717 1E                    9372 	.db #0x1e	; 30
    00003718 01                    9373 	.db #0x01	; 1
    00003719 1D                    9374 	.db #0x1d	; 29
    0000371A 03                    9375 	.db #0x03	; 3
    0000371B 02                    9376 	.db #0x02	; 2
    0000371C 05                    9377 	.db #0x05	; 5
    0000371D 03                    9378 	.db #0x03	; 3
    0000371E 01                    9379 	.db #0x01	; 1
    0000371F 01                    9380 	.db #0x01	; 1
    00003720 01                    9381 	.db #0x01	; 1
    00003721 01                    9382 	.db #0x01	; 1
    00003722 01                    9383 	.db #0x01	; 1
    00003723 01                    9384 	.db #0x01	; 1
    00003724 01                    9385 	.db #0x01	; 1
    00003725 01                    9386 	.db #0x01	; 1
    00003726 01                    9387 	.db #0x01	; 1
    00003727 01                    9388 	.db #0x01	; 1
                                   9389 ;E:\Dropbox\FAUSTO\SVILUPPI\MSX\CODE\C\MSXgl\projects\exsoccer/exsoccer_s1_b2.c:1872: void TickTeamSelection(){
                                   9390 ;	---------------------------------
                                   9391 ; Function TickTeamSelection
                                   9392 ; ---------------------------------
    00003728                       9393 _TickTeamSelection::
                                   9394 ;E:\Dropbox\FAUSTO\SVILUPPI\MSX\CODE\C\MSXgl\projects\exsoccer/exsoccer_s1_b2.c:1873: u8 direction= GetJoystick1Direction(); 
                                   9395 ;E:\Dropbox\FAUSTO\SVILUPPI\MSX\CODE\C\MSXgl\projects\exsoccer/exsoccer_s1_b2.c:1874: if(direction!=DIRECTION_NONE){
                                   9396 ;E:\Dropbox\FAUSTO\SVILUPPI\MSX\CODE\C\MSXgl\projects\exsoccer/exsoccer_s1_b2.c:1877: }
    00003728 C3r00r00         [10] 9397 	jp	_GetJoystick1Direction
                                   9398 ;E:\Dropbox\FAUSTO\SVILUPPI\MSX\CODE\C\MSXgl\projects\exsoccer/exsoccer_s1_b2.c:1879: void SetTeam1Palette(){
                                   9399 ;	---------------------------------
                                   9400 ; Function SetTeam1Palette
                                   9401 ; ---------------------------------
    0000372B                       9402 _SetTeam1Palette::
                                   9403 ;E:\Dropbox\FAUSTO\SVILUPPI\MSX\CODE\C\MSXgl\projects\exsoccer/exsoccer_s1_b2.c:1880: V9_SetPalette(32, 16, GetTeamPaletteById(g_Team1PaletteId));
    0000372B 3Ar00r00         [13] 9404 	ld	a, (_g_Team1PaletteId+0)
    0000372E CDr85r37         [17] 9405 	call	_GetTeamPaletteById
    00003731 EB               [ 4] 9406 	ex	de, hl
                                   9407 ;E:\Dropbox\FAUSTO\SVILUPPI\MSX\CODE\C\MSXgl\projects\exsoccer/exsoccer_s1_b2.c:1028: static bool joyMoved = false;
    00003732 01 20 00         [10] 9408 	ld	bc, #0x20
    00003735                       9409 00104$:
    00003735 78               [ 4] 9410 	ld	a, b
    00003736 D6 10            [ 7] 9411 	sub	a, #0x10
    00003738 D0               [11] 9412 	ret	NC
    00003739 FD E5            [15] 9413 	push	iy
    0000373B E3               [19] 9414 	ex	(sp), hl
    0000373C 69               [ 4] 9415 	ld	l, c
                                   9416 ;	spillPairReg hl
                                   9417 ;	spillPairReg hl
    0000373D E3               [19] 9418 	ex	(sp), hl
    0000373E FD E1            [14] 9419 	pop	iy
    00003740 0C               [ 4] 9420 	inc	c
    00003741 E5               [11] 9421 	push	hl
    00003742 C5               [11] 9422 	push	bc
    00003743 5D               [ 4] 9423 	ld	e, l
    00003744 54               [ 4] 9424 	ld	d, h
    00003745 FD E5            [15] 9425 	push	iy
    00003747 E3               [19] 9426 	ex	(sp), hl
    00003748 7D               [ 4] 9427 	ld	a, l
    00003749 E3               [19] 9428 	ex	(sp), hl
    0000374A FD E1            [14] 9429 	pop	iy
    0000374C CDr00r00         [17] 9430 	call	_V9_SetPaletteEntry
    0000374F C1               [10] 9431 	pop	bc
    00003750 E1               [10] 9432 	pop	hl
    00003751 23               [ 6] 9433 	inc	hl
    00003752 23               [ 6] 9434 	inc	hl
    00003753 23               [ 6] 9435 	inc	hl
    00003754 04               [ 4] 9436 	inc	b
                                   9437 ;E:\Dropbox\FAUSTO\SVILUPPI\MSX\CODE\C\MSXgl\projects\exsoccer/exsoccer_s1_b2.c:1880: V9_SetPalette(32, 16, GetTeamPaletteById(g_Team1PaletteId));
                                   9438 ;E:\Dropbox\FAUSTO\SVILUPPI\MSX\CODE\C\MSXgl\projects\exsoccer/exsoccer_s1_b2.c:1881: }
    00003755 C3r35r37         [10] 9439 	jp	00104$
                                   9440 ;E:\Dropbox\FAUSTO\SVILUPPI\MSX\CODE\C\MSXgl\projects\exsoccer/exsoccer_s1_b2.c:1882: void SetTeam2Palette(){
                                   9441 ;	---------------------------------
                                   9442 ; Function SetTeam2Palette
                                   9443 ; ---------------------------------
    00003758                       9444 _SetTeam2Palette::
                                   9445 ;E:\Dropbox\FAUSTO\SVILUPPI\MSX\CODE\C\MSXgl\projects\exsoccer/exsoccer_s1_b2.c:1883: V9_SetPalette(48, 16, GetTeamPaletteById(g_Team2PaletteId));
    00003758 3Ar00r00         [13] 9446 	ld	a, (_g_Team2PaletteId+0)
    0000375B CDr85r37         [17] 9447 	call	_GetTeamPaletteById
    0000375E EB               [ 4] 9448 	ex	de, hl
                                   9449 ;E:\Dropbox\FAUSTO\SVILUPPI\MSX\CODE\C\MSXgl\projects\exsoccer/exsoccer_s1_b2.c:1028: static bool joyMoved = false;
    0000375F 01 30 00         [10] 9450 	ld	bc, #0x30
    00003762                       9451 00104$:
    00003762 78               [ 4] 9452 	ld	a, b
    00003763 D6 10            [ 7] 9453 	sub	a, #0x10
    00003765 D0               [11] 9454 	ret	NC
    00003766 FD E5            [15] 9455 	push	iy
    00003768 E3               [19] 9456 	ex	(sp), hl
    00003769 69               [ 4] 9457 	ld	l, c
                                   9458 ;	spillPairReg hl
                                   9459 ;	spillPairReg hl
    0000376A E3               [19] 9460 	ex	(sp), hl
    0000376B FD E1            [14] 9461 	pop	iy
    0000376D 0C               [ 4] 9462 	inc	c
    0000376E E5               [11] 9463 	push	hl
    0000376F C5               [11] 9464 	push	bc
    00003770 5D               [ 4] 9465 	ld	e, l
    00003771 54               [ 4] 9466 	ld	d, h
    00003772 FD E5            [15] 9467 	push	iy
    00003774 E3               [19] 9468 	ex	(sp), hl
    00003775 7D               [ 4] 9469 	ld	a, l
    00003776 E3               [19] 9470 	ex	(sp), hl
    00003777 FD E1            [14] 9471 	pop	iy
    00003779 CDr00r00         [17] 9472 	call	_V9_SetPaletteEntry
    0000377C C1               [10] 9473 	pop	bc
    0000377D E1               [10] 9474 	pop	hl
    0000377E 23               [ 6] 9475 	inc	hl
    0000377F 23               [ 6] 9476 	inc	hl
    00003780 23               [ 6] 9477 	inc	hl
    00003781 04               [ 4] 9478 	inc	b
                                   9479 ;E:\Dropbox\FAUSTO\SVILUPPI\MSX\CODE\C\MSXgl\projects\exsoccer/exsoccer_s1_b2.c:1883: V9_SetPalette(48, 16, GetTeamPaletteById(g_Team2PaletteId));
                                   9480 ;E:\Dropbox\FAUSTO\SVILUPPI\MSX\CODE\C\MSXgl\projects\exsoccer/exsoccer_s1_b2.c:1884: }
    00003782 C3r62r37         [10] 9481 	jp	00104$
                                   9482 ;E:\Dropbox\FAUSTO\SVILUPPI\MSX\CODE\C\MSXgl\projects\exsoccer/exsoccer_s1_b2.c:1885: const u16* GetTeamPaletteById(u8 id){
                                   9483 ;	---------------------------------
                                   9484 ; Function GetTeamPaletteById
                                   9485 ; ---------------------------------
    00003785                       9486 _GetTeamPaletteById::
    00003785 4F               [ 4] 9487 	ld	c, a
                                   9488 ;E:\Dropbox\FAUSTO\SVILUPPI\MSX\CODE\C\MSXgl\projects\exsoccer/exsoccer_s1_b2.c:1886: const u16* palette=g_Sprites1_palette_ita;
    00003786 11rD8r35         [10] 9489 	ld	de, #_g_Sprites1_palette_ita
                                   9490 ;E:\Dropbox\FAUSTO\SVILUPPI\MSX\CODE\C\MSXgl\projects\exsoccer/exsoccer_s1_b2.c:1887: switch (id){
    00003789 3E 05            [ 7] 9491 	ld	a, #0x05
    0000378B 91               [ 4] 9492 	sub	a, c
    0000378C D8               [11] 9493 	ret	C
    0000378D 06 00            [ 7] 9494 	ld	b, #0x00
    0000378F 21r96r37         [10] 9495 	ld	hl, #00123$
    00003792 09               [11] 9496 	add	hl, bc
    00003793 09               [11] 9497 	add	hl, bc
    00003794 09               [11] 9498 	add	hl, bc
    00003795 E9               [ 4] 9499 	jp	(hl)
    00003796                       9500 00123$:
    00003796 C3rA8r37         [10] 9501 	jp	00101$
    00003799 C3rC2r37         [10] 9502 	jp	00108$
    0000379C C3rBAr37         [10] 9503 	jp	00106$
    0000379F C3rB6r37         [10] 9504 	jp	00105$
    000037A2 C3rC6r37         [10] 9505 	jp	00109$
    000037A5 C3rBEr37         [10] 9506 	jp	00107$
                                   9507 ;E:\Dropbox\FAUSTO\SVILUPPI\MSX\CODE\C\MSXgl\projects\exsoccer/exsoccer_s1_b2.c:1888: case TEAM_AUS:
    000037A8                       9508 00101$:
                                   9509 ;E:\Dropbox\FAUSTO\SVILUPPI\MSX\CODE\C\MSXgl\projects\exsoccer/exsoccer_s1_b2.c:1889: if(g_FioBre){
    000037A8 3Ar00r00         [13] 9510 	ld	a, (_g_FioBre+0)
    000037AB B7               [ 4] 9511 	or	a, a
    000037AC 28 04            [12] 9512 	jr	Z, 00103$
                                   9513 ;E:\Dropbox\FAUSTO\SVILUPPI\MSX\CODE\C\MSXgl\projects\exsoccer/exsoccer_s1_b2.c:1890: palette=g_Sprites1_palette_fio;
    000037AE 11rF8r36         [10] 9514 	ld	de, #_g_Sprites1_palette_fio
    000037B1 C9               [10] 9515 	ret
    000037B2                       9516 00103$:
                                   9517 ;E:\Dropbox\FAUSTO\SVILUPPI\MSX\CODE\C\MSXgl\projects\exsoccer/exsoccer_s1_b2.c:1893: palette=g_Sprites1_palette_aus;
    000037B2 11r08r36         [10] 9518 	ld	de, #_g_Sprites1_palette_aus
                                   9519 ;E:\Dropbox\FAUSTO\SVILUPPI\MSX\CODE\C\MSXgl\projects\exsoccer/exsoccer_s1_b2.c:1895: break; 
    000037B5 C9               [10] 9520 	ret
                                   9521 ;E:\Dropbox\FAUSTO\SVILUPPI\MSX\CODE\C\MSXgl\projects\exsoccer/exsoccer_s1_b2.c:1896: case TEAM_BRA:
    000037B6                       9522 00105$:
                                   9523 ;E:\Dropbox\FAUSTO\SVILUPPI\MSX\CODE\C\MSXgl\projects\exsoccer/exsoccer_s1_b2.c:1897: palette=g_Sprites1_palette_bra;
    000037B6 11rC8r36         [10] 9524 	ld	de, #_g_Sprites1_palette_bra
                                   9525 ;E:\Dropbox\FAUSTO\SVILUPPI\MSX\CODE\C\MSXgl\projects\exsoccer/exsoccer_s1_b2.c:1898: break;
    000037B9 C9               [10] 9526 	ret
                                   9527 ;E:\Dropbox\FAUSTO\SVILUPPI\MSX\CODE\C\MSXgl\projects\exsoccer/exsoccer_s1_b2.c:1899: case TEAM_ITA:
    000037BA                       9528 00106$:
                                   9529 ;E:\Dropbox\FAUSTO\SVILUPPI\MSX\CODE\C\MSXgl\projects\exsoccer/exsoccer_s1_b2.c:1900: palette=g_Sprites1_palette_ita;
    000037BA 11rD8r35         [10] 9530 	ld	de, #_g_Sprites1_palette_ita
                                   9531 ;E:\Dropbox\FAUSTO\SVILUPPI\MSX\CODE\C\MSXgl\projects\exsoccer/exsoccer_s1_b2.c:1901: break;
    000037BD C9               [10] 9532 	ret
                                   9533 ;E:\Dropbox\FAUSTO\SVILUPPI\MSX\CODE\C\MSXgl\projects\exsoccer/exsoccer_s1_b2.c:1902: case TEAM_GBR:
    000037BE                       9534 00107$:
                                   9535 ;E:\Dropbox\FAUSTO\SVILUPPI\MSX\CODE\C\MSXgl\projects\exsoccer/exsoccer_s1_b2.c:1903: palette=g_Sprites1_palette_gbr;
    000037BE 11r98r36         [10] 9536 	ld	de, #_g_Sprites1_palette_gbr
                                   9537 ;E:\Dropbox\FAUSTO\SVILUPPI\MSX\CODE\C\MSXgl\projects\exsoccer/exsoccer_s1_b2.c:1904: break;
    000037C1 C9               [10] 9538 	ret
                                   9539 ;E:\Dropbox\FAUSTO\SVILUPPI\MSX\CODE\C\MSXgl\projects\exsoccer/exsoccer_s1_b2.c:1905: case TEAM_GER:
    000037C2                       9540 00108$:
                                   9541 ;E:\Dropbox\FAUSTO\SVILUPPI\MSX\CODE\C\MSXgl\projects\exsoccer/exsoccer_s1_b2.c:1906: palette=g_Sprites1_palette_ger;
    000037C2 11r68r36         [10] 9542 	ld	de, #_g_Sprites1_palette_ger
                                   9543 ;E:\Dropbox\FAUSTO\SVILUPPI\MSX\CODE\C\MSXgl\projects\exsoccer/exsoccer_s1_b2.c:1907: break;
    000037C5 C9               [10] 9544 	ret
                                   9545 ;E:\Dropbox\FAUSTO\SVILUPPI\MSX\CODE\C\MSXgl\projects\exsoccer/exsoccer_s1_b2.c:1908: case TEAM_FRA:
    000037C6                       9546 00109$:
                                   9547 ;E:\Dropbox\FAUSTO\SVILUPPI\MSX\CODE\C\MSXgl\projects\exsoccer/exsoccer_s1_b2.c:1909: palette=g_Sprites1_palette_fra;
    000037C6 11r38r36         [10] 9548 	ld	de, #_g_Sprites1_palette_fra
                                   9549 ;E:\Dropbox\FAUSTO\SVILUPPI\MSX\CODE\C\MSXgl\projects\exsoccer/exsoccer_s1_b2.c:1911: }
                                   9550 ;E:\Dropbox\FAUSTO\SVILUPPI\MSX\CODE\C\MSXgl\projects\exsoccer/exsoccer_s1_b2.c:1912: return palette;
                                   9551 ;E:\Dropbox\FAUSTO\SVILUPPI\MSX\CODE\C\MSXgl\projects\exsoccer/exsoccer_s1_b2.c:1913: }
    000037C9 C9               [10] 9552 	ret
                                   9553 ;E:\Dropbox\FAUSTO\SVILUPPI\MSX\CODE\C\MSXgl\projects\exsoccer/exsoccer_s1_b2.c:1918: void TickShowKickOff(){
                                   9554 ;	---------------------------------
                                   9555 ; Function TickShowKickOff
                                   9556 ; ---------------------------------
    000037CA                       9557 _TickShowKickOff::
                                   9558 ;E:\Dropbox\FAUSTO\SVILUPPI\MSX\CODE\C\MSXgl\projects\exsoccer/exsoccer_s1_b2.c:1919: if(g_MatchStatus==MATCH_KICK_OFF){
    000037CA 3Ar00r00         [13] 9559 	ld	a, (_g_MatchStatus+0)
    000037CD D6 07            [ 7] 9560 	sub	a, #0x07
    000037CF 20 61            [12] 9561 	jr	NZ, 00109$
                                   9562 ;E:\Dropbox\FAUSTO\SVILUPPI\MSX\CODE\C\MSXgl\projects\exsoccer/exsoccer_s1_b2.c:1920: if(g_Timer==1){
    000037D1 3Ar00r00         [13] 9563 	ld	a, (_g_Timer+0)
    000037D4 3D               [ 4] 9564 	dec	a
    000037D5 20 1D            [12] 9565 	jr	NZ, 00102$
                                   9566 ;E:\Dropbox\FAUSTO\SVILUPPI\MSX\CODE\C\MSXgl\projects\exsoccer/exsoccer_s1_b2.c:1921: StopStadiumSound();
    000037D7 CDr00r00         [17] 9567 	call	_StopStadiumSound
                                   9568 ;E:\Dropbox\FAUSTO\SVILUPPI\MSX\CODE\C\MSXgl\projects\exsoccer/exsoccer_s1_b2.c:1922: V9_PrintLayerAStringAtPos(12,18,"KICK OFF");
    000037DA 21r69r38         [10] 9569 	ld	hl, #___str_5
    000037DD E5               [11] 9570 	push	hl
    000037DE 2E 12            [ 7] 9571 	ld	l, #0x12
                                   9572 ;	spillPairReg hl
                                   9573 ;	spillPairReg hl
    000037E0 3E 0C            [ 7] 9574 	ld	a, #0x0c
    000037E2 CDr00r00         [17] 9575 	call	_V9_PrintLayerAStringAtPos
                                   9576 ;E:\Dropbox\FAUSTO\SVILUPPI\MSX\CODE\C\MSXgl\projects\exsoccer/exsoccer_s1_b2.c:1923: g_PmcSoundPlaying=SOUND_KICKOFF;
    000037E5 21r00r00         [10] 9577 	ld	hl, #_g_PmcSoundPlaying
    000037E8 36 01            [10] 9578 	ld	(hl), #0x01
                                   9579 ;E:\Dropbox\FAUSTO\SVILUPPI\MSX\CODE\C\MSXgl\projects\exsoccer/exsoccer_s1_b2.c:1924: g_PcmStartPlaying=true;
    000037EA 21r00r00         [10] 9580 	ld	hl, #_g_PcmStartPlaying
    000037ED 36 01            [10] 9581 	ld	(hl), #0x01
                                   9582 ;E:\Dropbox\FAUSTO\SVILUPPI\MSX\CODE\C\MSXgl\projects\exsoccer/exsoccer_s1_b2.c:1925: g_Timer=2;
    000037EF 21r00r00         [10] 9583 	ld	hl, #_g_Timer
    000037F2 36 02            [10] 9584 	ld	(hl), #0x02
    000037F4                       9585 00102$:
                                   9586 ;E:\Dropbox\FAUSTO\SVILUPPI\MSX\CODE\C\MSXgl\projects\exsoccer/exsoccer_s1_b2.c:1927: if(g_Timer==3){
    000037F4 3Ar00r00         [13] 9587 	ld	a, (_g_Timer+0)
    000037F7 D6 03            [ 7] 9588 	sub	a, #0x03
    000037F9 20 37            [12] 9589 	jr	NZ, 00109$
                                   9590 ;E:\Dropbox\FAUSTO\SVILUPPI\MSX\CODE\C\MSXgl\projects\exsoccer/exsoccer_s1_b2.c:1928: g_PmcSoundPlaying=NO_VALUE;
    000037FB 21r00r00         [10] 9591 	ld	hl, #_g_PmcSoundPlaying
    000037FE 36 FF            [10] 9592 	ld	(hl), #0xff
                                   9593 ;E:\Dropbox\FAUSTO\SVILUPPI\MSX\CODE\C\MSXgl\projects\exsoccer/exsoccer_s1_b2.c:1929: ClearTextFromLayerA(12,18,9);
    00003800 3E 09            [ 7] 9594 	ld	a, #0x09
    00003802 F5               [11] 9595 	push	af
    00003803 33               [ 6] 9596 	inc	sp
    00003804 2E 12            [ 7] 9597 	ld	l, #0x12
                                   9598 ;	spillPairReg hl
                                   9599 ;	spillPairReg hl
    00003806 3E 0C            [ 7] 9600 	ld	a, #0x0c
    00003808 CDr00r00         [17] 9601 	call	_ClearTextFromLayerA
                                   9602 ;E:\Dropbox\FAUSTO\SVILUPPI\MSX\CODE\C\MSXgl\projects\exsoccer/exsoccer_s1_b2.c:1930: g_Timer=NO_VALUE;
    0000380B 21r00r00         [10] 9603 	ld	hl, #_g_Timer
    0000380E 36 FF            [10] 9604 	ld	(hl), #0xff
                                   9605 ;E:\Dropbox\FAUSTO\SVILUPPI\MSX\CODE\C\MSXgl\projects\exsoccer/exsoccer_s1_b2.c:1932: if(g_RestartKickTeamId==TEAM_1){
    00003810 3Ar00r00         [13] 9606 	ld	a, (_g_RestartKickTeamId+0)
    00003813 3D               [ 4] 9607 	dec	a
    00003814 20 0B            [12] 9608 	jr	NZ, 00104$
                                   9609 ;E:\Dropbox\FAUSTO\SVILUPPI\MSX\CODE\C\MSXgl\projects\exsoccer/exsoccer_s1_b2.c:1933: playerId=GetPlayerIdByRole(TEAM_1,PLAYER_ROLE_RIGHT_HALFFIELDER);
    00003816 2E 04            [ 7] 9610 	ld	l, #0x04
                                   9611 ;	spillPairReg hl
                                   9612 ;	spillPairReg hl
    00003818 3E 01            [ 7] 9613 	ld	a, #0x01
    0000381A CDr00r00         [17] 9614 	call	_GetPlayerIdByRole
    0000381D 4F               [ 4] 9615 	ld	c, a
    0000381E C3r29r38         [10] 9616 	jp	00105$
    00003821                       9617 00104$:
                                   9618 ;E:\Dropbox\FAUSTO\SVILUPPI\MSX\CODE\C\MSXgl\projects\exsoccer/exsoccer_s1_b2.c:1936: playerId=GetPlayerIdByRole(TEAM_2,PLAYER_ROLE_LEFT_HALFFIELDER);
    00003821 2E 03            [ 7] 9619 	ld	l, #0x03
                                   9620 ;	spillPairReg hl
                                   9621 ;	spillPairReg hl
    00003823 3E 02            [ 7] 9622 	ld	a, #0x02
    00003825 CDr00r00         [17] 9623 	call	_GetPlayerIdByRole
    00003828 4F               [ 4] 9624 	ld	c, a
    00003829                       9625 00105$:
                                   9626 ;E:\Dropbox\FAUSTO\SVILUPPI\MSX\CODE\C\MSXgl\projects\exsoccer/exsoccer_s1_b2.c:1938: PutBallOnPlayerFeet(playerId);
    00003829 79               [ 4] 9627 	ld	a, c
    0000382A CDr00r00         [17] 9628 	call	_PutBallOnPlayerFeet
                                   9629 ;E:\Dropbox\FAUSTO\SVILUPPI\MSX\CODE\C\MSXgl\projects\exsoccer/exsoccer_s1_b2.c:1939: g_MatchStatus=MATCH_IN_ACTION;
    0000382D 21r00r00         [10] 9630 	ld	hl, #_g_MatchStatus
    00003830 36 0C            [10] 9631 	ld	(hl), #0x0c
    00003832                       9632 00109$:
                                   9633 ;E:\Dropbox\FAUSTO\SVILUPPI\MSX\CODE\C\MSXgl\projects\exsoccer/exsoccer_s1_b2.c:1942: if(g_MatchStatus==MATCH_BEFORE_OFFSIDE){
    00003832 3Ar00r00         [13] 9634 	ld	a, (_g_MatchStatus+0)
    00003835 D6 0E            [ 7] 9635 	sub	a, #0x0e
    00003837 C0               [11] 9636 	ret	NZ
                                   9637 ;E:\Dropbox\FAUSTO\SVILUPPI\MSX\CODE\C\MSXgl\projects\exsoccer/exsoccer_s1_b2.c:1943: if(g_Timer >= 2) { 
    00003838 3Ar00r00         [13] 9638 	ld	a, (_g_Timer+0)
    0000383B D6 02            [ 7] 9639 	sub	a, #0x02
    0000383D D8               [11] 9640 	ret	C
                                   9641 ;E:\Dropbox\FAUSTO\SVILUPPI\MSX\CODE\C\MSXgl\projects\exsoccer/exsoccer_s1_b2.c:1944: ClearTextFromLayerA(10,18,7);
    0000383E 3E 07            [ 7] 9642 	ld	a, #0x07
    00003840 F5               [11] 9643 	push	af
    00003841 33               [ 6] 9644 	inc	sp
    00003842 2E 12            [ 7] 9645 	ld	l, #0x12
                                   9646 ;	spillPairReg hl
                                   9647 ;	spillPairReg hl
    00003844 3E 0A            [ 7] 9648 	ld	a, #0x0a
    00003846 CDr00r00         [17] 9649 	call	_ClearTextFromLayerA
                                   9650 ;E:\Dropbox\FAUSTO\SVILUPPI\MSX\CODE\C\MSXgl\projects\exsoccer/exsoccer_s1_b2.c:1945: g_Timer = NO_VALUE;
    00003849 21r00r00         [10] 9651 	ld	hl, #_g_Timer
    0000384C 36 FF            [10] 9652 	ld	(hl), #0xff
                                   9653 ;E:\Dropbox\FAUSTO\SVILUPPI\MSX\CODE\C\MSXgl\projects\exsoccer/exsoccer_s1_b2.c:1947: u8 team = g_RestartKickTeamId; 
    0000384E 3Ar00r00         [13] 9654 	ld	a, (_g_RestartKickTeamId+0)
                                   9655 ;E:\Dropbox\FAUSTO\SVILUPPI\MSX\CODE\C\MSXgl\projects\exsoccer/exsoccer_s1_b2.c:1948: u8 newOwner = GetClosestPlayerToBall(team, NO_VALUE);
                                   9656 ;	spillPairReg hl
                                   9657 ;	spillPairReg hl
    00003851 2E FF            [ 7] 9658 	ld	l, #0xff
    00003853 CDr00r00         [17] 9659 	call	_GetClosestPlayerToBall
                                   9660 ;E:\Dropbox\FAUSTO\SVILUPPI\MSX\CODE\C\MSXgl\projects\exsoccer/exsoccer_s1_b2.c:1949: if (newOwner != NO_VALUE) {
    00003856 4F               [ 4] 9661 	ld	c, a
    00003857 3C               [ 4] 9662 	inc	a
    00003858 28 09            [12] 9663 	jr	Z, 00111$
                                   9664 ;E:\Dropbox\FAUSTO\SVILUPPI\MSX\CODE\C\MSXgl\projects\exsoccer/exsoccer_s1_b2.c:1950: PutBallOnPlayerFeet(newOwner);
    0000385A 79               [ 4] 9665 	ld	a, c
    0000385B CDr00r00         [17] 9666 	call	_PutBallOnPlayerFeet
                                   9667 ;E:\Dropbox\FAUSTO\SVILUPPI\MSX\CODE\C\MSXgl\projects\exsoccer/exsoccer_s1_b2.c:1951: g_Ball.KickMoveState = NO_VALUE;
    0000385E 21r0Dr00         [10] 9668 	ld	hl, #(_g_Ball + 13)
    00003861 36 FF            [10] 9669 	ld	(hl), #0xff
    00003863                       9670 00111$:
                                   9671 ;E:\Dropbox\FAUSTO\SVILUPPI\MSX\CODE\C\MSXgl\projects\exsoccer/exsoccer_s1_b2.c:1954: g_MatchStatus = MATCH_IN_ACTION;
    00003863 21r00r00         [10] 9672 	ld	hl, #_g_MatchStatus
    00003866 36 0C            [10] 9673 	ld	(hl), #0x0c
                                   9674 ;E:\Dropbox\FAUSTO\SVILUPPI\MSX\CODE\C\MSXgl\projects\exsoccer/exsoccer_s1_b2.c:1957: }
    00003868 C9               [10] 9675 	ret
    00003869                       9676 ___str_5:
    00003869 4B 49 43 4B 20 4F 46  9677 	.ascii "KICK OFF"
             46
    00003871 00                    9678 	.db 0x00
                                   9679 ;E:\Dropbox\FAUSTO\SVILUPPI\MSX\CODE\C\MSXgl\projects\exsoccer/exsoccer_s1_b2.c:1959: void ResetBallInfo(bool resetPossessionPlayer){
                                   9680 ;	---------------------------------
                                   9681 ; Function ResetBallInfo
                                   9682 ; ---------------------------------
    00003872                       9683 _ResetBallInfo::
    00003872 4F               [ 4] 9684 	ld	c, a
                                   9685 ;E:\Dropbox\FAUSTO\SVILUPPI\MSX\CODE\C\MSXgl\projects\exsoccer/exsoccer_s1_b2.c:1960: g_Ball.PreviousY=g_Ball.Y;
    00003873 ED 5Br00r00      [20] 9686 	ld	de, (#_g_Ball + 0)
    00003877 ED 53r07r00      [20] 9687 	ld	((_g_Ball + 7)), de
                                   9688 ;E:\Dropbox\FAUSTO\SVILUPPI\MSX\CODE\C\MSXgl\projects\exsoccer/exsoccer_s1_b2.c:1961: g_Ball.KickMoveState=NO_VALUE;
    0000387B 21r0Dr00         [10] 9689 	ld	hl, #(_g_Ball + 13)
    0000387E 36 FF            [10] 9690 	ld	(hl), #0xff
                                   9691 ;E:\Dropbox\FAUSTO\SVILUPPI\MSX\CODE\C\MSXgl\projects\exsoccer/exsoccer_s1_b2.c:1962: g_Ball.Size=1;
    00003880 21r04r00         [10] 9692 	ld	hl, #(_g_Ball + 4)
    00003883 36 01            [10] 9693 	ld	(hl), #0x01
                                   9694 ;E:\Dropbox\FAUSTO\SVILUPPI\MSX\CODE\C\MSXgl\projects\exsoccer/exsoccer_s1_b2.c:1963: g_Ball.Direction=DIRECTION_NONE;
    00003885 21r05r00         [10] 9695 	ld	hl, #(_g_Ball + 5)
    00003888 36 00            [10] 9696 	ld	(hl), #0x00
                                   9697 ;E:\Dropbox\FAUSTO\SVILUPPI\MSX\CODE\C\MSXgl\projects\exsoccer/exsoccer_s1_b2.c:1964: if(resetPossessionPlayer){
    0000388A 79               [ 4] 9698 	ld	a, c
    0000388B B7               [ 4] 9699 	or	a, a
    0000388C C8               [11] 9700 	ret	Z
                                   9701 ;E:\Dropbox\FAUSTO\SVILUPPI\MSX\CODE\C\MSXgl\projects\exsoccer/exsoccer_s1_b2.c:1965: g_Ball.PossessionPlayerId=NO_VALUE;
    0000388D 21r06r00         [10] 9702 	ld	hl, #(_g_Ball + 6)
    00003890 36 FF            [10] 9703 	ld	(hl), #0xff
                                   9704 ;E:\Dropbox\FAUSTO\SVILUPPI\MSX\CODE\C\MSXgl\projects\exsoccer/exsoccer_s1_b2.c:1967: }
    00003892 C9               [10] 9705 	ret
                                   9706 	.area _SEG1
                                   9707 	.area _INITIALIZER
                                   9708 	.area _CABS (ABS)
