                                      1 ;--------------------------------------------------------
                                      2 ; File Created by SDCC : free open source ANSI-C Compiler
                                      3 ; Version 4.2.0 #13081 (MINGW64)
                                      4 ;--------------------------------------------------------
                                      5 	.module exsoccer_s2_b0
                                      6 	.optsdcc -mz80
                                      7 	
                                      8 ;--------------------------------------------------------
                                      9 ; Public variables in this module
                                     10 ;--------------------------------------------------------
                                     11 	.globl _Math_Abs32
                                     12 	.globl _PrintTeamName
                                     13 	.globl _PerformPass
                                     14 	.globl _CornerKick
                                     15 	.globl _GoalKick
                                     16 	.globl _BallThrowIn
                                     17 	.globl _BallInGoal
                                     18 	.globl _GetNoMovingPlayerPatternId
                                     19 	.globl _SetPlayerBallPossession
                                     20 	.globl _PutBallOnPlayerFeet
                                     21 	.globl _UpdatePlayerPatternByDirection
                                     22 	.globl _TickFieldScrollingAction
                                     23 	.globl _V9_Poke16_CurrentAddr
                                     24 	.globl _V9_WriteVRAM_CurrentAddr
                                     25 	.globl _V9_SetWriteAddress
                                     26 	.globl _Keyboard_IsKeyPressed
                                     27 	.globl _Joystick_Read
                                     28 	.globl _g_SLTSL
                                     29 	.globl _g_GRPACY
                                     30 	.globl _g_GRPACX
                                     31 	.globl _g_LOGOPR
                                     32 	.globl _g_CMASK
                                     33 	.globl _g_CLOC
                                     34 	.globl _g_FNKSTR
                                     35 	.globl _g_ATRBYT
                                     36 	.globl _g_BDRCLR
                                     37 	.globl _g_BAKCLR
                                     38 	.globl _g_FORCLR
                                     39 	.globl _g_CSRX
                                     40 	.globl _g_CSRY
                                     41 	.globl _g_CLIKSW
                                     42 	.globl _g_MLTPAT
                                     43 	.globl _g_MLTATR
                                     44 	.globl _g_MLTCGP
                                     45 	.globl _g_MLTCOL
                                     46 	.globl _g_MLTNAM
                                     47 	.globl _g_GRPPAT
                                     48 	.globl _g_GRPATR
                                     49 	.globl _g_GRPCGP
                                     50 	.globl _g_GRPCOL
                                     51 	.globl _g_GRPNAM
                                     52 	.globl _g_T32PAT
                                     53 	.globl _g_T32ATR
                                     54 	.globl _g_T32CGP
                                     55 	.globl _g_T32COL
                                     56 	.globl _g_T32NAM
                                     57 	.globl _g_TXTPAT
                                     58 	.globl _g_TXTATR
                                     59 	.globl _g_TXTCGP
                                     60 	.globl _g_TXTCOL
                                     61 	.globl _g_TXTNAM
                                     62 	.globl _g_CLMLST
                                     63 	.globl _g_CRTCNT
                                     64 	.globl _g_LINLEN
                                     65 	.globl _g_LINL32
                                     66 	.globl _g_LINL40
                                     67 	.globl _g_BDOS
                                     68 	.globl _g_MASTER
                                     69 	.globl _g_RAMAD3
                                     70 	.globl _g_RAMAD2
                                     71 	.globl _g_RAMAD1
                                     72 	.globl _g_RAMAD0
                                     73 	.globl _g_BREAKV
                                     74 	.globl _g_DISKVE
                                     75 	.globl _g_KANJTABLE
                                     76 	.globl _g_STRSRC
                                     77 	.globl _g_SUBRID
                                     78 	.globl _g_CHAR_16
                                     79 	.globl _g_MSXMID
                                     80 	.globl _g_MSXVER
                                     81 	.globl _g_ROMVersion
                                     82 	.globl _g_BASRVN
                                     83 	.globl _g_VDP_DW
                                     84 	.globl _g_VDP_DR
                                     85 	.globl _g_CGTABL
                                     86 	.globl _g_SVFFFD
                                     87 	.globl _g_RG27SAV
                                     88 	.globl _g_RG26SAV
                                     89 	.globl _g_RG25SAV
                                     90 	.globl _g_SVFFF8
                                     91 	.globl _g_MINROM
                                     92 	.globl _g_RG23SAV
                                     93 	.globl _g_RG22SAV
                                     94 	.globl _g_RG21SAV
                                     95 	.globl _g_RG20SAV
                                     96 	.globl _g_RG19SAV
                                     97 	.globl _g_RG18SAV
                                     98 	.globl _g_RG17SAV
                                     99 	.globl _g_RG16SAV
                                    100 	.globl _g_RG15SAV
                                    101 	.globl _g_RG14SAV
                                    102 	.globl _g_RG13SAV
                                    103 	.globl _g_RG12SAV
                                    104 	.globl _g_RG11SAV
                                    105 	.globl _g_RG10SAV
                                    106 	.globl _g_RG09SAV
                                    107 	.globl _g_RG08SAV
                                    108 	.globl _g_PROCNM
                                    109 	.globl _g_SLTWRK
                                    110 	.globl _g_SLTATR
                                    111 	.globl _g_SLTTBL
                                    112 	.globl _g_EXPTBL
                                    113 	.globl _g_MNROM
                                    114 	.globl _g_DRWANG
                                    115 	.globl _g_DRWSCL
                                    116 	.globl _g_DRWFLG
                                    117 	.globl _g_GYPOS
                                    118 	.globl _g_GXPOS
                                    119 	.globl _g_BRDATR
                                    120 	.globl _g_CASPRV
                                    121 	.globl _g_OLDSCR
                                    122 	.globl _g_SCRMOD
                                    123 	.globl _g_FLBMEM
                                    124 	.globl _g_KANAMD
                                    125 	.globl _g_KANAST
                                    126 	.globl _g_CAPST
                                    127 	.globl _g_CSTYLE
                                    128 	.globl _g_CSRSW
                                    129 	.globl _g_INSFLG
                                    130 	.globl _g_ESCCNT
                                    131 	.globl _g_GRPHED
                                    132 	.globl _g_WINWID
                                    133 	.globl _g_LOWLIM
                                    134 	.globl _g_INTCNT
                                    135 	.globl _g_INTVAL
                                    136 	.globl _g_JIFFY
                                    137 	.globl _g_PADX
                                    138 	.globl _g_PADY
                                    139 	.globl _g_INTFLG
                                    140 	.globl _g_RTYCNT
                                    141 	.globl _g_TRPTBL
                                    142 	.globl _g_HIMEM
                                    143 	.globl _g_BOTTOM
                                    144 	.globl _g_PATWRK
                                    145 	.globl _g_LINWRK
                                    146 	.globl _g_KEYBUF
                                    147 	.globl _g_NEWKEY
                                    148 	.globl _g_OLDKEY
                                    149 	.globl _g_CLIKFL
                                    150 	.globl _g_ONGSBF
                                    151 	.globl _g_FNKFLG
                                    152 	.globl _g_FNKSWI
                                    153 	.globl _g_CODSAV
                                    154 	.globl _g_FSTPOS
                                    155 	.globl _g_LINTTB
                                    156 	.globl _g_BASROM
                                    157 	.globl _g_ENSTOP
                                    158 	.globl _g_VCBC
                                    159 	.globl _g_VCBB
                                    160 	.globl _g_VCBA
                                    161 	.globl _g_PLYCNT
                                    162 	.globl _g_MUSICF
                                    163 	.globl _g_QUEUEN
                                    164 	.globl _g_MCLPTR
                                    165 	.globl _g_MCLLEN
                                    166 	.globl _g_SAVVOL
                                    167 	.globl _g_VOICEN
                                    168 	.globl _g_SAVSP
                                    169 	.globl _g_PRSCNT
                                    170 	.globl _g_LSTMOD
                                    171 	.globl _g_LSTCOM
                                    172 	.globl _g_COMMSK
                                    173 	.globl _g_ESTBLS
                                    174 	.globl _g_FLAGS
                                    175 	.globl _g_ERRORS
                                    176 	.globl _g_DATCNT
                                    177 	.globl _g_DEVNUM
                                    178 	.globl _g_OLDINT
                                    179 	.globl _g_OLDSTT
                                    180 	.globl _g_MEXBIh
                                    181 	.globl _g_RSIQLN
                                    182 	.globl _g_RSFCB
                                    183 	.globl _g_TOCNT
                                    184 	.globl _g_RSTMP
                                    185 	.globl _g_YSAVE
                                    186 	.globl _g_XSAVE
                                    187 	.globl _g_NORUSE
                                    188 	.globl _g_MODE
                                    189 	.globl _g_ROMA
                                    190 	.globl _g_CHRCNT
                                    191 	.globl _g_EXBRSA
                                    192 	.globl _g_AVCSAV
                                    193 	.globl _g_ACPAGE
                                    194 	.globl _g_DPPAGE
                                    195 	.globl _g_RS2IQ
                                    196 	.globl _g_VOICCQ
                                    197 	.globl _g_VOICBQ
                                    198 	.globl _g_VOICAQ
                                    199 	.globl _g_QUEBAK
                                    200 	.globl _g_QUETAB
                                    201 	.globl _g_ASPCT2
                                    202 	.globl _g_ASPCT1
                                    203 	.globl _g_HEADER
                                    204 	.globl _g_HIGH
                                    205 	.globl _g_LOW
                                    206 	.globl _g_CS240
                                    207 	.globl _g_CS120
                                    208 	.globl _g_GETPNT
                                    209 	.globl _g_PUTPNT
                                    210 	.globl _g_REPCNT
                                    211 	.globl _g_SCNCNT
                                    212 	.globl _g_FRCNEW
                                    213 	.globl _g_QUEUES
                                    214 	.globl _g_MINUPD
                                    215 	.globl _g_MAXUPD
                                    216 	.globl _g_TRGFLG
                                    217 	.globl _g_STATFL
                                    218 	.globl _g_RG7SAV
                                    219 	.globl _g_RG6SAV
                                    220 	.globl _g_RG5SAV
                                    221 	.globl _g_RG4SAV
                                    222 	.globl _g_RG3SAV
                                    223 	.globl _g_RG2SAV
                                    224 	.globl _g_RG1SAV
                                    225 	.globl _g_RG0SAV
                                    226 	.globl _g_CNSDFG
                                    227 	.globl _g_USRTAB
                                    228 	.globl _g_CLPRIM
                                    229 	.globl _g_WRPRIM
                                    230 	.globl _g_RDPRIM
                                    231 	.globl _V9_PrintLayerAStringAtPos
                                    232 	.globl _TickP1
                                    233 	.globl _GetPlayerIdByRole
                                    234 	.globl _UpdateSpritesPositions
                                    235 	.globl _PutBallSprite
                                    236 	.globl _ShowHeaderInfo
                                    237 	.globl _V9_PutLayerATileAtPos
                                    238 	.globl _V9_PutLayerBTileAtPos
                                    239 	.globl _PutPlayerSprite
                                    240 	.globl _ResetPlayersInfo
                                    241 	.globl _ClearTextFromLayerA
                                    242 	.globl _TickPlayerToOwnTarget
                                    243 	.globl _GetNumberString
                                    244 	.globl _IsTeamJoystickTriggerPressed
                                    245 	.globl _GetJoystick1Direction
                                    246 	.globl _GetJoystick2Direction
                                    247 	.globl _ShowFieldZone
                                    248 	.globl _TickCheckBallBoundaries
                                    249 	.globl _TimeUp
                                    250 	.globl _GetClosestPlayerToBall
                                    251 	.globl _GetBestPassTarget
                                    252 	.globl _UpdatePassTarget
                                    253 	.globl _GoalkeeperWithBall
                                    254 	.globl _TickGoalkeeperAnimation
                                    255 	.globl _PerformShot
                                    256 	.globl _TickBallFlying
                                    257 	.globl _TickThrowIn
                                    258 ;--------------------------------------------------------
                                    259 ; special function registers
                                    260 ;--------------------------------------------------------
                         000000A8   261 _g_PortPrimarySlot	=	0x00a8
                         000000A9   262 _g_PortReadKeyboard	=	0x00a9
                         000000AA   263 _g_PortAccessKeyboard	=	0x00aa
                         000000AB   264 _g_PortControl	=	0x00ab
                         00000098   265 _g_VDP_DataPort	=	0x0098
                         00000099   266 _g_VDP_RegPort	=	0x0099
                         00000099   267 _g_VDP_AddrPort	=	0x0099
                         00000099   268 _g_VDP_StatPort	=	0x0099
                         000000A0   269 _g_PSG_RegPort	=	0x00a0
                         000000A1   270 _g_PSG_DataPort	=	0x00a1
                         000000A2   271 _g_PSG_StatPort	=	0x00a2
                         00000010   272 _g_PSG_Ext_RegPort	=	0x0010
                         00000011   273 _g_PSG_Ext_DataPort	=	0x0011
                         00000012   274 _g_PSG_Ext_StatPort	=	0x0012
                         0000007C   275 _g_MSXMusic_IndexPort	=	0x007c
                         0000007D   276 _g_MSXMusic_DataPort	=	0x007d
                         000000C0   277 _g_MSXAudio_IndexPort	=	0x00c0
                         000000C1   278 _g_MSXAudio_DataPort	=	0x00c1
                         000000C2   279 _g_MSXAudio_IndexPort2	=	0x00c2
                         000000C3   280 _g_MSXAudio_DataPort2	=	0x00c3
                         000000B4   281 _g_RTC_AddrPort	=	0x00b4
                         000000B5   282 _g_RTC_DataPort	=	0x00b5
                         00000060   283 _g_V9_VRAMPort	=	0x0060
                         00000061   284 _g_V9_PalettePort	=	0x0061
                         00000062   285 _g_V9_CmdDataPort	=	0x0062
                         00000063   286 _g_V9_RegDataPort	=	0x0063
                         00000064   287 _g_V9_RegSelectPort	=	0x0064
                         00000065   288 _g_V9_SatusPort	=	0x0065
                         00000066   289 _g_V9_IntFlagPort	=	0x0066
                         00000067   290 _g_V9_SysCtrlPort	=	0x0067
                         00000068   291 _g_V9_KanjiAddrLPort	=	0x0068
                         00000069   292 _g_V9_KanjiAddrHPort	=	0x0069
                         00000069   293 _g_V9_KanjiDataPort	=	0x0069
                         0000006A   294 _g_V9_Kanji2AddrLPort	=	0x006a
                         0000006B   295 _g_V9_Kanji2AddrHPort	=	0x006b
                         0000006B   296 _g_V9_Kanji2DataPort	=	0x006b
                         0000006F   297 _g_V9_OutputCtrPort	=	0x006f
                                    298 ;--------------------------------------------------------
                                    299 ; ram data
                                    300 ;--------------------------------------------------------
                                    301 	.area _DATA
                         0000F3AE   302 _g_LINL40	=	0xf3ae
                         0000F3AF   303 _g_LINL32	=	0xf3af
                         0000F3B0   304 _g_LINLEN	=	0xf3b0
                         0000F3B1   305 _g_CRTCNT	=	0xf3b1
                         0000F3B2   306 _g_CLMLST	=	0xf3b2
                         0000F3B3   307 _g_TXTNAM	=	0xf3b3
                         0000F3B5   308 _g_TXTCOL	=	0xf3b5
                         0000F3B7   309 _g_TXTCGP	=	0xf3b7
                         0000F3B9   310 _g_TXTATR	=	0xf3b9
                         0000F3BB   311 _g_TXTPAT	=	0xf3bb
                         0000F3BD   312 _g_T32NAM	=	0xf3bd
                         0000F3BF   313 _g_T32COL	=	0xf3bf
                         0000F3C1   314 _g_T32CGP	=	0xf3c1
                         0000F3C3   315 _g_T32ATR	=	0xf3c3
                         0000F3C5   316 _g_T32PAT	=	0xf3c5
                         0000F3C7   317 _g_GRPNAM	=	0xf3c7
                         0000F3C9   318 _g_GRPCOL	=	0xf3c9
                         0000F3CB   319 _g_GRPCGP	=	0xf3cb
                         0000F3CD   320 _g_GRPATR	=	0xf3cd
                         0000F3CF   321 _g_GRPPAT	=	0xf3cf
                         0000F3D1   322 _g_MLTNAM	=	0xf3d1
                         0000F3D3   323 _g_MLTCOL	=	0xf3d3
                         0000F3D5   324 _g_MLTCGP	=	0xf3d5
                         0000F3D7   325 _g_MLTATR	=	0xf3d7
                         0000F3D9   326 _g_MLTPAT	=	0xf3d9
                         0000F3DB   327 _g_CLIKSW	=	0xf3db
                         0000F3DC   328 _g_CSRY	=	0xf3dc
                         0000F3DD   329 _g_CSRX	=	0xf3dd
                         0000F3E9   330 _g_FORCLR	=	0xf3e9
                         0000F3EA   331 _g_BAKCLR	=	0xf3ea
                         0000F3EB   332 _g_BDRCLR	=	0xf3eb
                         0000F3F2   333 _g_ATRBYT	=	0xf3f2
                         0000F87F   334 _g_FNKSTR	=	0xf87f
                         0000F92A   335 _g_CLOC	=	0xf92a
                         0000F92C   336 _g_CMASK	=	0xf92c
                         0000FB02   337 _g_LOGOPR	=	0xfb02
                         0000FCB7   338 _g_GRPACX	=	0xfcb7
                         0000FCB9   339 _g_GRPACY	=	0xfcb9
                         0000FFFF   340 _g_SLTSL	=	0xffff
    00000000                        341 _PutBallSprite_s_StopCooldown_65538_1139:
    00000000                        342 	.ds 1
    00000001                        343 _PrintTeamName_k_Names_131072_1152:
    00000001                        344 	.ds 12
    0000000D                        345 _TickPlayerToOwnTarget_s_GkMoveTick_131072_1208:
    0000000D                        346 	.ds 1
    0000000E                        347 _GetNumberString_str_65536_1252:
    0000000E                        348 	.ds 5
    00000013                        349 _UpdatePassTarget_passUpdateTimer_65537_1340:
    00000013                        350 	.ds 1
    00000014                        351 _TickThrowIn_s_ThrowTargetId_65537_1410:
    00000014                        352 	.ds 1
    00000015                        353 _TickThrowIn_s_JoyMoved_65537_1410:
    00000015                        354 	.ds 1
                                    355 ;--------------------------------------------------------
                                    356 ; ram data
                                    357 ;--------------------------------------------------------
                                    358 	.area _INITIALIZED
    00000000                        359 _s_GkAnimTimer:
    00000000                        360 	.ds 1
    00000001                        361 _s_GkAnimPlayerId:
    00000001                        362 	.ds 1
    00000002                        363 _s_GkRecoilY:
    00000002                        364 	.ds 1
                                    365 ;--------------------------------------------------------
                                    366 ; absolute external ram data
                                    367 ;--------------------------------------------------------
                                    368 	.area _DABS (ABS)
                                    369 ;--------------------------------------------------------
                                    370 ; global & static initialisations
                                    371 ;--------------------------------------------------------
                                    372 	.area _HOME
                                    373 	.area _GSINIT
                                    374 	.area _GSFINAL
                                    375 	.area _GSINIT
                                    376 ;E:\Dropbox\FAUSTO\SVILUPPI\MSX\CODE\C\MSXgl\projects\exsoccer/exsoccer_s2_b0.c:97: static u8 s_StopCooldown = 0;
    00000000 FD 21r00r00      [14]  377 	ld	iy, #_PutBallSprite_s_StopCooldown_65538_1139
    00000004 FD 36 00 00      [19]  378 	ld	0 (iy), #0x00
                                    379 ;E:\Dropbox\FAUSTO\SVILUPPI\MSX\CODE\C\MSXgl\projects\exsoccer/exsoccer_s2_b0.c:137: static const char* k_Names[] = { "AUS", "BRA", "AUS", "FRA", "GBR", "GER" };
    00000008 21r2Dr02         [10]  380 	ld	hl, #___str_0
    0000000B 22r01r00         [16]  381 	ld	(_PrintTeamName_k_Names_131072_1152), hl
    0000000E 21r31r02         [10]  382 	ld	hl, #___str_1
    00000011 22r03r00         [16]  383 	ld	((_PrintTeamName_k_Names_131072_1152 + 2)), hl
    00000014 21r2Dr02         [10]  384 	ld	hl, #___str_0
    00000017 22r05r00         [16]  385 	ld	((_PrintTeamName_k_Names_131072_1152 + 4)), hl
    0000001A 21r35r02         [10]  386 	ld	hl, #___str_2
    0000001D 22r07r00         [16]  387 	ld	((_PrintTeamName_k_Names_131072_1152 + 6)), hl
    00000020 21r39r02         [10]  388 	ld	hl, #___str_3
    00000023 22r09r00         [16]  389 	ld	((_PrintTeamName_k_Names_131072_1152 + 8)), hl
    00000026 21r3Dr02         [10]  390 	ld	hl, #___str_4
    00000029 22r0Br00         [16]  391 	ld	((_PrintTeamName_k_Names_131072_1152 + 10)), hl
                                    392 ;E:\Dropbox\FAUSTO\SVILUPPI\MSX\CODE\C\MSXgl\projects\exsoccer/exsoccer_s2_b0.c:281: static u8 s_GkMoveTick = 0;
    0000002C FD 21r0Dr00      [14]  393 	ld	iy, #_TickPlayerToOwnTarget_s_GkMoveTick_131072_1208
    00000030 FD 36 00 00      [19]  394 	ld	0 (iy), #0x00
                                    395 ;E:\Dropbox\FAUSTO\SVILUPPI\MSX\CODE\C\MSXgl\projects\exsoccer/exsoccer_s2_b0.c:849: static u8 passUpdateTimer = 0;
    00000034 FD 21r13r00      [14]  396 	ld	iy, #_UpdatePassTarget_passUpdateTimer_65537_1340
    00000038 FD 36 00 00      [19]  397 	ld	0 (iy), #0x00
                                    398 ;E:\Dropbox\FAUSTO\SVILUPPI\MSX\CODE\C\MSXgl\projects\exsoccer/exsoccer_s2_b0.c:1301: static u8 s_ThrowTargetId = NO_VALUE;
    0000003C FD 21r14r00      [14]  399 	ld	iy, #_TickThrowIn_s_ThrowTargetId_65537_1410
    00000040 FD 36 00 FF      [19]  400 	ld	0 (iy), #0xff
                                    401 ;E:\Dropbox\FAUSTO\SVILUPPI\MSX\CODE\C\MSXgl\projects\exsoccer/exsoccer_s2_b0.c:1302: static bool s_JoyMoved = false;
    00000044 FD 21r15r00      [14]  402 	ld	iy, #_TickThrowIn_s_JoyMoved_65537_1410
    00000048 FD 36 00 00      [19]  403 	ld	0 (iy), #0x00
                                    404 ;--------------------------------------------------------
                                    405 ; Home
                                    406 ;--------------------------------------------------------
                                    407 	.area _HOME
                                    408 	.area _HOME
                                    409 ;--------------------------------------------------------
                                    410 ; code
                                    411 ;--------------------------------------------------------
                                    412 	.area _SEG2
                                    413 ;E:\Dropbox\FAUSTO\SVILUPPI\MSX\CODE\C\MSXgl\projects\exsoccer/exsoccer_s2_b0.c:41: void V9_PrintLayerAStringAtPos(u8 x, u8 y, const c8* str)
                                    414 ;	---------------------------------
                                    415 ; Function V9_PrintLayerAStringAtPos
                                    416 ; ---------------------------------
    00000000                        417 _V9_PrintLayerAStringAtPos::
    00000000 DD E5            [15]  418 	push	ix
    00000002 DD 21 00 00      [14]  419 	ld	ix,#0
    00000006 DD 39            [15]  420 	add	ix,sp
    00000008 4F               [ 4]  421 	ld	c, a
    00000009 45               [ 4]  422 	ld	b, l
                                    423 ;E:\Dropbox\FAUSTO\SVILUPPI\MSX\CODE\C\MSXgl\projects\exsoccer/exsoccer_s2_b0.c:44: while (*str != 0){
    0000000A DD 5E 04         [19]  424 	ld	e, 4 (ix)
    0000000D DD 56 05         [19]  425 	ld	d, 5 (ix)
    00000010                        426 00101$:
    00000010 1A               [ 7]  427 	ld	a, (de)
    00000011 B7               [ 4]  428 	or	a, a
    00000012 28 12            [12]  429 	jr	Z, 00104$
                                    430 ;E:\Dropbox\FAUSTO\SVILUPPI\MSX\CODE\C\MSXgl\projects\exsoccer/exsoccer_s2_b0.c:45: V9_PutLayerATileAtPos(x,y,*(str++));
    00000014 13               [ 6]  431 	inc	de
    00000015 26 00            [ 7]  432 	ld	h, #0x00
                                    433 ;	spillPairReg hl
                                    434 ;	spillPairReg hl
    00000017 C5               [11]  435 	push	bc
    00000018 D5               [11]  436 	push	de
    00000019 6F               [ 4]  437 	ld	l, a
                                    438 ;	spillPairReg hl
                                    439 ;	spillPairReg hl
    0000001A E5               [11]  440 	push	hl
    0000001B 68               [ 4]  441 	ld	l, b
                                    442 ;	spillPairReg hl
                                    443 ;	spillPairReg hl
    0000001C 79               [ 4]  444 	ld	a, c
    0000001D CDr29r03         [17]  445 	call	_V9_PutLayerATileAtPos
    00000020 D1               [10]  446 	pop	de
    00000021 C1               [10]  447 	pop	bc
                                    448 ;E:\Dropbox\FAUSTO\SVILUPPI\MSX\CODE\C\MSXgl\projects\exsoccer/exsoccer_s2_b0.c:46: x++;
    00000022 0C               [ 4]  449 	inc	c
                                    450 ;E:\Dropbox\FAUSTO\SVILUPPI\MSX\CODE\C\MSXgl\projects\exsoccer/exsoccer_s2_b0.c:47: pos++;
    00000023 C3r10r00         [10]  451 	jp	00101$
    00000026                        452 00104$:
                                    453 ;E:\Dropbox\FAUSTO\SVILUPPI\MSX\CODE\C\MSXgl\projects\exsoccer/exsoccer_s2_b0.c:50: }
    00000026 DD E1            [14]  454 	pop	ix
    00000028 E1               [10]  455 	pop	hl
    00000029 F1               [10]  456 	pop	af
    0000002A E9               [ 4]  457 	jp	(hl)
                         0000F380   458 _g_RDPRIM	=	0xf380
                         0000F385   459 _g_WRPRIM	=	0xf385
                         0000F38C   460 _g_CLPRIM	=	0xf38c
                         0000F39A   461 _g_USRTAB	=	0xf39a
                         0000F3DE   462 _g_CNSDFG	=	0xf3de
                         0000F3DF   463 _g_RG0SAV	=	0xf3df
                         0000F3E0   464 _g_RG1SAV	=	0xf3e0
                         0000F3E1   465 _g_RG2SAV	=	0xf3e1
                         0000F3E2   466 _g_RG3SAV	=	0xf3e2
                         0000F3E3   467 _g_RG4SAV	=	0xf3e3
                         0000F3E4   468 _g_RG5SAV	=	0xf3e4
                         0000F3E5   469 _g_RG6SAV	=	0xf3e5
                         0000F3E6   470 _g_RG7SAV	=	0xf3e6
                         0000F3E7   471 _g_STATFL	=	0xf3e7
                         0000F3E8   472 _g_TRGFLG	=	0xf3e8
                         0000F3EC   473 _g_MAXUPD	=	0xf3ec
                         0000F3EF   474 _g_MINUPD	=	0xf3ef
                         0000F3F3   475 _g_QUEUES	=	0xf3f3
                         0000F3F5   476 _g_FRCNEW	=	0xf3f5
                         0000F3F6   477 _g_SCNCNT	=	0xf3f6
                         0000F3F7   478 _g_REPCNT	=	0xf3f7
                         0000F3F8   479 _g_PUTPNT	=	0xf3f8
                         0000F3FA   480 _g_GETPNT	=	0xf3fa
                         0000F3FC   481 _g_CS120	=	0xf3fc
                         0000F401   482 _g_CS240	=	0xf401
                         0000F406   483 _g_LOW	=	0xf406
                         0000F408   484 _g_HIGH	=	0xf408
                         0000F40A   485 _g_HEADER	=	0xf40a
                         0000F40B   486 _g_ASPCT1	=	0xf40b
                         0000F40D   487 _g_ASPCT2	=	0xf40d
                         0000F959   488 _g_QUETAB	=	0xf959
                         0000F971   489 _g_QUEBAK	=	0xf971
                         0000F975   490 _g_VOICAQ	=	0xf975
                         0000F9F5   491 _g_VOICBQ	=	0xf9f5
                         0000FA75   492 _g_VOICCQ	=	0xfa75
                         0000FAF5   493 _g_RS2IQ	=	0xfaf5
                         0000FAF5   494 _g_DPPAGE	=	0xfaf5
                         0000FAF6   495 _g_ACPAGE	=	0xfaf6
                         0000FAF7   496 _g_AVCSAV	=	0xfaf7
                         0000FAF8   497 _g_EXBRSA	=	0xfaf8
                         0000FAF9   498 _g_CHRCNT	=	0xfaf9
                         0000FAFA   499 _g_ROMA	=	0xfafa
                         0000FAFC   500 _g_MODE	=	0xfafc
                         0000FAFD   501 _g_NORUSE	=	0xfafd
                         0000FAFE   502 _g_XSAVE	=	0xfafe
                         0000FB00   503 _g_YSAVE	=	0xfb00
                         0000FB03   504 _g_RSTMP	=	0xfb03
                         0000FB03   505 _g_TOCNT	=	0xfb03
                         0000FB04   506 _g_RSFCB	=	0xfb04
                         0000FB06   507 _g_RSIQLN	=	0xfb06
                         0000FB07   508 _g_MEXBIh	=	0xfb07
                         0000FB0C   509 _g_OLDSTT	=	0xfb0c
                         0000FB0C   510 _g_OLDINT	=	0xfb0c
                         0000FB16   511 _g_DEVNUM	=	0xfb16
                         0000FB17   512 _g_DATCNT	=	0xfb17
                         0000FB1A   513 _g_ERRORS	=	0xfb1a
                         0000FB1B   514 _g_FLAGS	=	0xfb1b
                         0000FB1C   515 _g_ESTBLS	=	0xfb1c
                         0000FB1D   516 _g_COMMSK	=	0xfb1d
                         0000FB1E   517 _g_LSTCOM	=	0xfb1e
                         0000FB1F   518 _g_LSTMOD	=	0xfb1f
                         0000FB35   519 _g_PRSCNT	=	0xfb35
                         0000FB36   520 _g_SAVSP	=	0xfb36
                         0000FB38   521 _g_VOICEN	=	0xfb38
                         0000FB39   522 _g_SAVVOL	=	0xfb39
                         0000FB3B   523 _g_MCLLEN	=	0xfb3b
                         0000FB3C   524 _g_MCLPTR	=	0xfb3c
                         0000FB3E   525 _g_QUEUEN	=	0xfb3e
                         0000FB3F   526 _g_MUSICF	=	0xfb3f
                         0000FB40   527 _g_PLYCNT	=	0xfb40
                         0000FB41   528 _g_VCBA	=	0xfb41
                         0000FB66   529 _g_VCBB	=	0xfb66
                         0000FB8B   530 _g_VCBC	=	0xfb8b
                         0000FBB0   531 _g_ENSTOP	=	0xfbb0
                         0000FBB1   532 _g_BASROM	=	0xfbb1
                         0000FBB2   533 _g_LINTTB	=	0xfbb2
                         0000FBCA   534 _g_FSTPOS	=	0xfbca
                         0000FBCC   535 _g_CODSAV	=	0xfbcc
                         0000FBCD   536 _g_FNKSWI	=	0xfbcd
                         0000FBCE   537 _g_FNKFLG	=	0xfbce
                         0000FBD8   538 _g_ONGSBF	=	0xfbd8
                         0000FBD9   539 _g_CLIKFL	=	0xfbd9
                         0000FBDA   540 _g_OLDKEY	=	0xfbda
                         0000FBE5   541 _g_NEWKEY	=	0xfbe5
                         0000FBF0   542 _g_KEYBUF	=	0xfbf0
                         0000FC18   543 _g_LINWRK	=	0xfc18
                         0000FC40   544 _g_PATWRK	=	0xfc40
                         0000FC48   545 _g_BOTTOM	=	0xfc48
                         0000FC4A   546 _g_HIMEM	=	0xfc4a
                         0000FC4C   547 _g_TRPTBL	=	0xfc4c
                         0000FC9A   548 _g_RTYCNT	=	0xfc9a
                         0000FC9B   549 _g_INTFLG	=	0xfc9b
                         0000FC9C   550 _g_PADY	=	0xfc9c
                         0000FC9D   551 _g_PADX	=	0xfc9d
                         0000FC9E   552 _g_JIFFY	=	0xfc9e
                         0000FCA0   553 _g_INTVAL	=	0xfca0
                         0000FCA2   554 _g_INTCNT	=	0xfca2
                         0000FCA4   555 _g_LOWLIM	=	0xfca4
                         0000FCA5   556 _g_WINWID	=	0xfca5
                         0000FCA6   557 _g_GRPHED	=	0xfca6
                         0000FCA7   558 _g_ESCCNT	=	0xfca7
                         0000FCA8   559 _g_INSFLG	=	0xfca8
                         0000FCA9   560 _g_CSRSW	=	0xfca9
                         0000FCAA   561 _g_CSTYLE	=	0xfcaa
                         0000FCAB   562 _g_CAPST	=	0xfcab
                         0000FCAC   563 _g_KANAST	=	0xfcac
                         0000FCAD   564 _g_KANAMD	=	0xfcad
                         0000FCAE   565 _g_FLBMEM	=	0xfcae
                         0000FCAF   566 _g_SCRMOD	=	0xfcaf
                         0000FCB0   567 _g_OLDSCR	=	0xfcb0
                         0000FCB1   568 _g_CASPRV	=	0xfcb1
                         0000FCB2   569 _g_BRDATR	=	0xfcb2
                         0000FCB3   570 _g_GXPOS	=	0xfcb3
                         0000FCB5   571 _g_GYPOS	=	0xfcb5
                         0000FCBB   572 _g_DRWFLG	=	0xfcbb
                         0000FCBC   573 _g_DRWSCL	=	0xfcbc
                         0000FCBD   574 _g_DRWANG	=	0xfcbd
                         0000FCC1   575 _g_MNROM	=	0xfcc1
                         0000FCC1   576 _g_EXPTBL	=	0xfcc1
                         0000FCC5   577 _g_SLTTBL	=	0xfcc5
                         0000FCC9   578 _g_SLTATR	=	0xfcc9
                         0000FD09   579 _g_SLTWRK	=	0xfd09
                         0000FD89   580 _g_PROCNM	=	0xfd89
                         0000FFE7   581 _g_RG08SAV	=	0xffe7
                         0000FFE8   582 _g_RG09SAV	=	0xffe8
                         0000FFE9   583 _g_RG10SAV	=	0xffe9
                         0000FFEA   584 _g_RG11SAV	=	0xffea
                         0000FFEB   585 _g_RG12SAV	=	0xffeb
                         0000FFEC   586 _g_RG13SAV	=	0xffec
                         0000FFED   587 _g_RG14SAV	=	0xffed
                         0000FFEE   588 _g_RG15SAV	=	0xffee
                         0000FFEF   589 _g_RG16SAV	=	0xffef
                         0000FFF0   590 _g_RG17SAV	=	0xfff0
                         0000FFF1   591 _g_RG18SAV	=	0xfff1
                         0000FFF2   592 _g_RG19SAV	=	0xfff2
                         0000FFF3   593 _g_RG20SAV	=	0xfff3
                         0000FFF4   594 _g_RG21SAV	=	0xfff4
                         0000FFF5   595 _g_RG22SAV	=	0xfff5
                         0000FFF6   596 _g_RG23SAV	=	0xfff6
                         0000FFF7   597 _g_MINROM	=	0xfff7
                         0000FFF8   598 _g_SVFFF8	=	0xfff8
                         0000FFFA   599 _g_RG25SAV	=	0xfffa
                         0000FFFB   600 _g_RG26SAV	=	0xfffb
                         0000FFFC   601 _g_RG27SAV	=	0xfffc
                         0000FFFD   602 _g_SVFFFD	=	0xfffd
                         00000004   603 _g_CGTABL	=	0x0004
                         00000006   604 _g_VDP_DR	=	0x0006
                         00000007   605 _g_VDP_DW	=	0x0007
                         0000002B   606 _g_BASRVN	=	0x002b
                         0000002B   607 _g_ROMVersion	=	0x002b
                         0000002D   608 _g_MSXVER	=	0x002d
                         0000002E   609 _g_MSXMID	=	0x002e
                         00000034   610 _g_CHAR_16	=	0x0034
                         00000000   611 _g_SUBRID	=	0x0000
                         00000002   612 _g_STRSRC	=	0x0002
                         0000F30F   613 _g_KANJTABLE	=	0xf30f
                         0000F323   614 _g_DISKVE	=	0xf323
                         0000F325   615 _g_BREAKV	=	0xf325
                         0000F341   616 _g_RAMAD0	=	0xf341
                         0000F342   617 _g_RAMAD1	=	0xf342
                         0000F343   618 _g_RAMAD2	=	0xf343
                         0000F344   619 _g_RAMAD3	=	0xf344
                         0000F348   620 _g_MASTER	=	0xf348
                         0000F37D   621 _g_BDOS	=	0xf37d
                                    622 ;E:\Dropbox\FAUSTO\SVILUPPI\MSX\CODE\C\MSXgl\projects\exsoccer/exsoccer_s2_b0.c:56: void TickP1(){
                                    623 ;	---------------------------------
                                    624 ; Function TickP1
                                    625 ; ---------------------------------
    0000002B                        626 _TickP1::
                                    627 ;E:\Dropbox\FAUSTO\SVILUPPI\MSX\CODE\C\MSXgl\projects\exsoccer/exsoccer_s2_b0.c:57: TickFieldScrollingAction();
                                    628 ;E:\Dropbox\FAUSTO\SVILUPPI\MSX\CODE\C\MSXgl\projects\exsoccer/exsoccer_s2_b0.c:58: }
    0000002B C3r00r00         [10]  629 	jp	_TickFieldScrollingAction
                                    630 ;E:\Dropbox\FAUSTO\SVILUPPI\MSX\CODE\C\MSXgl\projects\exsoccer/exsoccer_s2_b0.c:63: u8 GetPlayerIdByRole(u8 teamId, u8 role){
                                    631 ;	---------------------------------
                                    632 ; Function GetPlayerIdByRole
                                    633 ; ---------------------------------
    0000002E                        634 _GetPlayerIdByRole::
    0000002E DD E5            [15]  635 	push	ix
    00000030 DD 21 00 00      [14]  636 	ld	ix,#0
    00000034 DD 39            [15]  637 	add	ix,sp
    00000036 F5               [11]  638 	push	af
    00000037 3B               [ 6]  639 	dec	sp
    00000038 4F               [ 4]  640 	ld	c, a
    00000039 DD 75 FF         [19]  641 	ld	-1 (ix), l
                                    642 ;E:\Dropbox\FAUSTO\SVILUPPI\MSX\CODE\C\MSXgl\projects\exsoccer/exsoccer_s2_b0.c:64: u8 playerId=NO_VALUE;
    0000003C DD 36 FD FF      [19]  643 	ld	-3 (ix), #0xff
                                    644 ;E:\Dropbox\FAUSTO\SVILUPPI\MSX\CODE\C\MSXgl\projects\exsoccer/exsoccer_s2_b0.c:65: for(u8 i=0;i<14;i++){
    00000040 DD 36 FE 00      [19]  645 	ld	-2 (ix), #0x00
    00000044 06 00            [ 7]  646 	ld	b, #0x00
    00000046                        647 00106$:
    00000046 78               [ 4]  648 	ld	a, b
    00000047 D6 0E            [ 7]  649 	sub	a, #0x0e
    00000049 30 36            [12]  650 	jr	NC, 00104$
                                    651 ;E:\Dropbox\FAUSTO\SVILUPPI\MSX\CODE\C\MSXgl\projects\exsoccer/exsoccer_s2_b0.c:66: if(g_Players[i].Role==role && g_Players[i].TeamId==teamId){
    0000004B 58               [ 4]  652 	ld	e, b
    0000004C 16 00            [ 7]  653 	ld	d, #0x00
    0000004E 6B               [ 4]  654 	ld	l, e
    0000004F 62               [ 4]  655 	ld	h, d
    00000050 29               [11]  656 	add	hl, hl
    00000051 29               [11]  657 	add	hl, hl
    00000052 19               [11]  658 	add	hl, de
    00000053 29               [11]  659 	add	hl, hl
    00000054 29               [11]  660 	add	hl, hl
    00000055 19               [11]  661 	add	hl, de
    00000056 11r00r00         [10]  662 	ld	de, #_g_Players
    00000059 19               [11]  663 	add	hl, de
                                    664 ;	spillPairReg hl
                                    665 ;	spillPairReg hl
    0000005A 5D               [ 4]  666 	ld	e, l
    0000005B 54               [ 4]  667 	ld	d, h
                                    668 ;	spillPairReg hl
                                    669 ;	spillPairReg hl
    0000005C C5               [11]  670 	push	bc
    0000005D 01 0D 00         [10]  671 	ld	bc, #0x000d
    00000060 09               [11]  672 	add	hl, bc
    00000061 C1               [10]  673 	pop	bc
                                    674 ;	spillPairReg hl
    00000062 DD 7E FF         [19]  675 	ld	a,-1 (ix)
    00000065 96               [ 7]  676 	sub	a,(hl)
    00000066 20 12            [12]  677 	jr	NZ, 00107$
    00000068 21 09 00         [10]  678 	ld	hl, #9
    0000006B 19               [11]  679 	add	hl, de
    0000006C 5E               [ 7]  680 	ld	e, (hl)
    0000006D 79               [ 4]  681 	ld	a, c
    0000006E 93               [ 4]  682 	sub	a, e
    0000006F 20 09            [12]  683 	jr	NZ, 00107$
                                    684 ;E:\Dropbox\FAUSTO\SVILUPPI\MSX\CODE\C\MSXgl\projects\exsoccer/exsoccer_s2_b0.c:67: playerId=i;
    00000071 DD 7E FE         [19]  685 	ld	a, -2 (ix)
    00000074 DD 77 FD         [19]  686 	ld	-3 (ix), a
                                    687 ;E:\Dropbox\FAUSTO\SVILUPPI\MSX\CODE\C\MSXgl\projects\exsoccer/exsoccer_s2_b0.c:68: break;
    00000077 C3r81r00         [10]  688 	jp	00104$
    0000007A                        689 00107$:
                                    690 ;E:\Dropbox\FAUSTO\SVILUPPI\MSX\CODE\C\MSXgl\projects\exsoccer/exsoccer_s2_b0.c:65: for(u8 i=0;i<14;i++){
    0000007A 04               [ 4]  691 	inc	b
    0000007B DD 70 FE         [19]  692 	ld	-2 (ix), b
    0000007E C3r46r00         [10]  693 	jp	00106$
    00000081                        694 00104$:
                                    695 ;E:\Dropbox\FAUSTO\SVILUPPI\MSX\CODE\C\MSXgl\projects\exsoccer/exsoccer_s2_b0.c:71: return playerId;
    00000081 DD 7E FD         [19]  696 	ld	a, -3 (ix)
                                    697 ;E:\Dropbox\FAUSTO\SVILUPPI\MSX\CODE\C\MSXgl\projects\exsoccer/exsoccer_s2_b0.c:72: }
    00000084 DD F9            [10]  698 	ld	sp, ix
    00000086 DD E1            [14]  699 	pop	ix
    00000088 C9               [10]  700 	ret
                                    701 ;E:\Dropbox\FAUSTO\SVILUPPI\MSX\CODE\C\MSXgl\projects\exsoccer/exsoccer_s2_b0.c:75: void UpdateSpritesPositions(){
                                    702 ;	---------------------------------
                                    703 ; Function UpdateSpritesPositions
                                    704 ; ---------------------------------
    00000089                        705 _UpdateSpritesPositions::
                                    706 ;E:\Dropbox\FAUSTO\SVILUPPI\MSX\CODE\C\MSXgl\projects\exsoccer/exsoccer_s2_b0.c:76: for (u8 i=0;i<15;i++){
    00000089 0E 00            [ 7]  707 	ld	c, #0x00
    0000008B                        708 00103$:
    0000008B 79               [ 4]  709 	ld	a, c
    0000008C D6 0F            [ 7]  710 	sub	a, #0x0f
    0000008E D2r9Br00         [10]  711 	jp	NC,_PutBallSprite
                                    712 ;E:\Dropbox\FAUSTO\SVILUPPI\MSX\CODE\C\MSXgl\projects\exsoccer/exsoccer_s2_b0.c:77: PutPlayerSprite(i);
    00000091 C5               [11]  713 	push	bc
    00000092 79               [ 4]  714 	ld	a, c
    00000093 CDr9Fr03         [17]  715 	call	_PutPlayerSprite
    00000096 C1               [10]  716 	pop	bc
                                    717 ;E:\Dropbox\FAUSTO\SVILUPPI\MSX\CODE\C\MSXgl\projects\exsoccer/exsoccer_s2_b0.c:76: for (u8 i=0;i<15;i++){
    00000097 0C               [ 4]  718 	inc	c
                                    719 ;E:\Dropbox\FAUSTO\SVILUPPI\MSX\CODE\C\MSXgl\projects\exsoccer/exsoccer_s2_b0.c:79: PutBallSprite();
                                    720 ;E:\Dropbox\FAUSTO\SVILUPPI\MSX\CODE\C\MSXgl\projects\exsoccer/exsoccer_s2_b0.c:80: }
    00000098 C3r8Br00         [10]  721 	jp	00103$
                                    722 ;E:\Dropbox\FAUSTO\SVILUPPI\MSX\CODE\C\MSXgl\projects\exsoccer/exsoccer_s2_b0.c:81: void PutBallSprite(){
                                    723 ;	---------------------------------
                                    724 ; Function PutBallSprite
                                    725 ; ---------------------------------
    0000009B                        726 _PutBallSprite::
    0000009B DD E5            [15]  727 	push	ix
    0000009D DD 21 00 00      [14]  728 	ld	ix,#0
    000000A1 DD 39            [15]  729 	add	ix,sp
    000000A3 21 F8 FF         [10]  730 	ld	hl, #-8
    000000A6 39               [11]  731 	add	hl, sp
    000000A7 F9               [ 6]  732 	ld	sp, hl
                                    733 ;E:\Dropbox\FAUSTO\SVILUPPI\MSX\CODE\C\MSXgl\projects\exsoccer/exsoccer_s2_b0.c:83: attr.D=0;
    000000A8 21 00 00         [10]  734 	ld	hl, #0
    000000AB 39               [11]  735 	add	hl, sp
    000000AC 4D               [ 4]  736 	ld	c, l
    000000AD 44               [ 4]  737 	ld	b, h
    000000AE 21 03 00         [10]  738 	ld	hl, #3
    000000B1 39               [11]  739 	add	hl, sp
    000000B2 CB A6            [15]  740 	res	4, (hl)
                                    741 ;E:\Dropbox\FAUSTO\SVILUPPI\MSX\CODE\C\MSXgl\projects\exsoccer/exsoccer_s2_b0.c:84: attr.SC=0;
    000000B4 21 03 00         [10]  742 	ld	hl, #3
    000000B7 39               [11]  743 	add	hl, sp
    000000B8 7E               [ 7]  744 	ld	a, (hl)
    000000B9 E6 3F            [ 7]  745 	and	a, #0x3f
    000000BB 77               [ 7]  746 	ld	(hl), a
                                    747 ;E:\Dropbox\FAUSTO\SVILUPPI\MSX\CODE\C\MSXgl\projects\exsoccer/exsoccer_s2_b0.c:85: attr.Y = g_Ball.Y-g_FieldCurrentYPosition;
    000000BC 21r00r00         [10]  748 	ld	hl, #_g_Ball+0
    000000BF 56               [ 7]  749 	ld	d, (hl)
    000000C0 3Ar00r00         [13]  750 	ld	a, (_g_FieldCurrentYPosition+0)
    000000C3 5F               [ 4]  751 	ld	e, a
    000000C4 7A               [ 4]  752 	ld	a, d
    000000C5 93               [ 4]  753 	sub	a, e
    000000C6 02               [ 7]  754 	ld	(bc), a
                                    755 ;E:\Dropbox\FAUSTO\SVILUPPI\MSX\CODE\C\MSXgl\projects\exsoccer/exsoccer_s2_b0.c:88: u8 logicalSize = g_Ball.Size;
    000000C7 21r04r00         [10]  756 	ld	hl, #_g_Ball + 4
    000000CA 5E               [ 7]  757 	ld	e, (hl)
                                    758 ;E:\Dropbox\FAUSTO\SVILUPPI\MSX\CODE\C\MSXgl\projects\exsoccer/exsoccer_s2_b0.c:90: if (g_Ball.PossessionPlayerId != NO_VALUE) logicalSize = 1;
    000000CB 3Ar06r00         [13]  759 	ld	a, (#_g_Ball + 6)
    000000CE 3C               [ 4]  760 	inc	a
    000000CF 28 02            [12]  761 	jr	Z, 00102$
    000000D1 1E 01            [ 7]  762 	ld	e, #0x01
    000000D3                        763 00102$:
                                    764 ;E:\Dropbox\FAUSTO\SVILUPPI\MSX\CODE\C\MSXgl\projects\exsoccer/exsoccer_s2_b0.c:92: if (logicalSize == 0) logicalSize = 1;
    000000D3 7B               [ 4]  765 	ld	a, e
    000000D4 B7               [ 4]  766 	or	a, a
    000000D5 20 02            [12]  767 	jr	NZ, 00104$
    000000D7 1E 01            [ 7]  768 	ld	e, #0x01
    000000D9                        769 00104$:
                                    770 ;E:\Dropbox\FAUSTO\SVILUPPI\MSX\CODE\C\MSXgl\projects\exsoccer/exsoccer_s2_b0.c:93: if (logicalSize > 4) logicalSize = 4;
    000000D9 3E 04            [ 7]  771 	ld	a, #0x04
    000000DB 93               [ 4]  772 	sub	a, e
    000000DC 30 02            [12]  773 	jr	NC, 00106$
    000000DE 1E 04            [ 7]  774 	ld	e, #0x04
    000000E0                        775 00106$:
                                    776 ;E:\Dropbox\FAUSTO\SVILUPPI\MSX\CODE\C\MSXgl\projects\exsoccer/exsoccer_s2_b0.c:98: bool rawMovement = (g_Ball.OldX != g_Ball.X || g_Ball.OldY != g_Ball.Y);
    000000E0 21r09r00         [10]  777 	ld	hl, #(_g_Ball + 9)
    000000E3 7E               [ 7]  778 	ld	a, (hl)
    000000E4 DD 77 FE         [19]  779 	ld	-2 (ix), a
    000000E7 23               [ 6]  780 	inc	hl
    000000E8 7E               [ 7]  781 	ld	a, (hl)
    000000E9 DD 77 FF         [19]  782 	ld	-1 (ix), a
    000000EC 21r02r00         [10]  783 	ld	hl, #(_g_Ball + 2)
    000000EF 7E               [ 7]  784 	ld	a, (hl)
    000000F0 DD 77 FC         [19]  785 	ld	-4 (ix), a
    000000F3 23               [ 6]  786 	inc	hl
    000000F4 7E               [ 7]  787 	ld	a, (hl)
    000000F5 DD 77 FD         [19]  788 	ld	-3 (ix), a
    000000F8 DD 7E FE         [19]  789 	ld	a, -2 (ix)
    000000FB DD 96 FC         [19]  790 	sub	a, -4 (ix)
    000000FE 20 28            [12]  791 	jr	NZ, 00117$
    00000100 DD 7E FF         [19]  792 	ld	a, -1 (ix)
    00000103 DD 96 FD         [19]  793 	sub	a, -3 (ix)
    00000106 20 20            [12]  794 	jr	NZ, 00117$
    00000108 21r0Br00         [10]  795 	ld	hl, #(_g_Ball + 11)
    0000010B 7E               [ 7]  796 	ld	a, (hl)
    0000010C DD 77 FE         [19]  797 	ld	-2 (ix), a
    0000010F 23               [ 6]  798 	inc	hl
    00000110 7E               [ 7]  799 	ld	a, (hl)
    00000111 DD 77 FF         [19]  800 	ld	-1 (ix), a
    00000114 2Ar00r00         [16]  801 	ld	hl, (#_g_Ball + 0)
    00000117 7D               [ 4]  802 	ld	a, l
    00000118 DD 96 FE         [19]  803 	sub	a, -2 (ix)
    0000011B 20 0B            [12]  804 	jr	NZ, 00117$
    0000011D 7C               [ 4]  805 	ld	a, h
    0000011E DD 96 FF         [19]  806 	sub	a, -1 (ix)
    00000121 20 05            [12]  807 	jr	NZ, 00117$
    00000123 16 00            [ 7]  808 	ld	d, #0x00
    00000125 C3r2Ar01         [10]  809 	jp	00118$
    00000128                        810 00117$:
    00000128 16 01            [ 7]  811 	ld	d, #0x01
    0000012A                        812 00118$:
                                    813 ;E:\Dropbox\FAUSTO\SVILUPPI\MSX\CODE\C\MSXgl\projects\exsoccer/exsoccer_s2_b0.c:101: g_Ball.OldX = g_Ball.X;
    0000012A 21r09r00         [10]  814 	ld	hl, #(_g_Ball + 9)
    0000012D DD 7E FC         [19]  815 	ld	a, -4 (ix)
    00000130 77               [ 7]  816 	ld	(hl), a
    00000131 23               [ 6]  817 	inc	hl
    00000132 DD 7E FD         [19]  818 	ld	a, -3 (ix)
    00000135 77               [ 7]  819 	ld	(hl), a
                                    820 ;E:\Dropbox\FAUSTO\SVILUPPI\MSX\CODE\C\MSXgl\projects\exsoccer/exsoccer_s2_b0.c:102: g_Ball.OldY = g_Ball.Y;
    00000136 21r00r00         [10]  821 	ld	hl, #_g_Ball
    00000139 7E               [ 7]  822 	ld	a, (hl)
    0000013A DD 77 FE         [19]  823 	ld	-2 (ix), a
    0000013D 23               [ 6]  824 	inc	hl
    0000013E 7E               [ 7]  825 	ld	a, (hl)
    0000013F DD 77 FF         [19]  826 	ld	-1 (ix), a
    00000142 21r0Br00         [10]  827 	ld	hl, #(_g_Ball + 11)
    00000145 DD 7E FE         [19]  828 	ld	a, -2 (ix)
    00000148 77               [ 7]  829 	ld	(hl), a
    00000149 23               [ 6]  830 	inc	hl
    0000014A DD 7E FF         [19]  831 	ld	a, -1 (ix)
    0000014D 77               [ 7]  832 	ld	(hl), a
                                    833 ;E:\Dropbox\FAUSTO\SVILUPPI\MSX\CODE\C\MSXgl\projects\exsoccer/exsoccer_s2_b0.c:104: if (rawMovement) {
    0000014E 7A               [ 4]  834 	ld	a, d
    0000014F B7               [ 4]  835 	or	a, a
    00000150 28 08            [12]  836 	jr	Z, 00110$
                                    837 ;E:\Dropbox\FAUSTO\SVILUPPI\MSX\CODE\C\MSXgl\projects\exsoccer/exsoccer_s2_b0.c:105: s_StopCooldown = 15; // Keep animation active for ~1/4 sec after last move
    00000152 3E 0F            [ 7]  838 	ld	a, #0x0f
    00000154 32r00r00         [13]  839 	ld	(#_PutBallSprite_s_StopCooldown_65538_1139), a
    00000157 C3r67r01         [10]  840 	jp	00111$
    0000015A                        841 00110$:
                                    842 ;E:\Dropbox\FAUSTO\SVILUPPI\MSX\CODE\C\MSXgl\projects\exsoccer/exsoccer_s2_b0.c:107: if (s_StopCooldown > 0) s_StopCooldown--;
    0000015A 3Ar00r00         [13]  843 	ld	a, (_PutBallSprite_s_StopCooldown_65538_1139+0)
    0000015D B7               [ 4]  844 	or	a, a
    0000015E 28 07            [12]  845 	jr	Z, 00111$
    00000160 FD 21r00r00      [14]  846 	ld	iy, #_PutBallSprite_s_StopCooldown_65538_1139
    00000164 FD 35 00         [23]  847 	dec	0 (iy)
    00000167                        848 00111$:
                                    849 ;E:\Dropbox\FAUSTO\SVILUPPI\MSX\CODE\C\MSXgl\projects\exsoccer/exsoccer_s2_b0.c:110: bool isAnimating = (s_StopCooldown > 0);
    00000167 3Ar00r00         [13]  850 	ld	a, (_PutBallSprite_s_StopCooldown_65538_1139+0)
    0000016A B7               [ 4]  851 	or	a, a
    0000016B 3E 01            [ 7]  852 	ld	a, #0x01
    0000016D 20 01            [12]  853 	jr	NZ, 00120$
    0000016F AF               [ 4]  854 	xor	a, a
    00000170                        855 00120$:
                                    856 ;E:\Dropbox\FAUSTO\SVILUPPI\MSX\CODE\C\MSXgl\projects\exsoccer/exsoccer_s2_b0.c:114: bool useAlt = isAnimating && ((g_FrameCounter & 8) != 0);
    00000170 B7               [ 4]  857 	or	a, a
    00000171 28 07            [12]  858 	jr	Z, 00121$
    00000173 2Ar00r00         [16]  859 	ld	hl, (_g_FrameCounter)
    00000176 CB 5D            [ 8]  860 	bit	3, l
    00000178 20 04            [12]  861 	jr	NZ, 00122$
    0000017A                        862 00121$:
    0000017A AF               [ 4]  863 	xor	a, a
    0000017B C3r80r01         [10]  864 	jp	00123$
    0000017E                        865 00122$:
    0000017E 3E 01            [ 7]  866 	ld	a, #0x01
    00000180                        867 00123$:
                                    868 ;E:\Dropbox\FAUSTO\SVILUPPI\MSX\CODE\C\MSXgl\projects\exsoccer/exsoccer_s2_b0.c:121: u8 idx = (logicalSize - 1) * 2 + (useAlt ? 1 : 0);
    00000180 6B               [ 4]  869 	ld	l, e
                                    870 ;	spillPairReg hl
                                    871 ;	spillPairReg hl
    00000181 2D               [ 4]  872 	dec	l
    00000182 CB 25            [ 8]  873 	sla	l
    00000184 B7               [ 4]  874 	or	a, a
    00000185 28 06            [12]  875 	jr	Z, 00124$
    00000187 11 01 00         [10]  876 	ld	de, #0x0001
    0000018A C3r90r01         [10]  877 	jp	00125$
    0000018D                        878 00124$:
    0000018D 11 00 00         [10]  879 	ld	de, #0x0000
    00000190                        880 00125$:
    00000190 19               [11]  881 	add	hl, de
                                    882 ;E:\Dropbox\FAUSTO\SVILUPPI\MSX\CODE\C\MSXgl\projects\exsoccer/exsoccer_s2_b0.c:122: attr.Pattern = k_BallPatterns[idx & 7];
    00000191 11rE6r01         [10]  883 	ld	de, #_PutBallSprite_k_BallPatterns_65539_1142+0
    00000194 7D               [ 4]  884 	ld	a, l
                                    885 ;	spillPairReg hl
                                    886 ;	spillPairReg hl
    00000195 E6 07            [ 7]  887 	and	a, #0x07
    00000197 26 00            [ 7]  888 	ld	h, #0x00
                                    889 ;	spillPairReg hl
                                    890 ;	spillPairReg hl
    00000199 6F               [ 4]  891 	ld	l, a
    0000019A 19               [11]  892 	add	hl, de
    0000019B 7E               [ 7]  893 	ld	a, (hl)
    0000019C DD 77 F9         [19]  894 	ld	-7 (ix), a
                                    895 ;E:\Dropbox\FAUSTO\SVILUPPI\MSX\CODE\C\MSXgl\projects\exsoccer/exsoccer_s2_b0.c:124: attr.X = g_Ball.X;
    0000019F ED 5Br02r00      [20]  896 	ld	de, (#(_g_Ball + 2) + 0)
    000001A3 21 02 00         [10]  897 	ld	hl, #2
    000001A6 39               [11]  898 	add	hl, sp
    000001A7 73               [ 7]  899 	ld	(hl), e
    000001A8 23               [ 6]  900 	inc	hl
    000001A9 7A               [ 4]  901 	ld	a, d
    000001AA E6 03            [ 7]  902 	and	a, #0x03
    000001AC C5               [11]  903 	push	bc
    000001AD 4F               [ 4]  904 	ld	c,a
    000001AE 7E               [ 7]  905 	ld	a, (hl)
    000001AF E6 FC            [ 7]  906 	and	a, #0xfc
    000001B1 B1               [ 4]  907 	or	a, c
    000001B2 C1               [10]  908 	pop	bc
    000001B3 77               [ 7]  909 	ld	(hl), a
                                    910 ;E:\Dropbox\FAUSTO\SVILUPPI\MSX\CODE\C\MSXgl\projects\exsoccer/exsoccer_s2_b0.c:125: attr.P = attr.D;
    000001B4 21 03 00         [10]  911 	ld	hl, #3
    000001B7 39               [11]  912 	add	hl, sp
    000001B8 7E               [ 7]  913 	ld	a, (hl)
    000001B9 07               [ 4]  914 	rlca
    000001BA 07               [ 4]  915 	rlca
    000001BB 07               [ 4]  916 	rlca
    000001BC 07               [ 4]  917 	rlca
    000001BD E6 01            [ 7]  918 	and	a, #0x01
    000001BF 21 03 00         [10]  919 	ld	hl, #3
    000001C2 39               [11]  920 	add	hl, sp
    000001C3 0F               [ 4]  921 	rrca
    000001C4 0F               [ 4]  922 	rrca
    000001C5 0F               [ 4]  923 	rrca
    000001C6 E6 20            [ 7]  924 	and	a, #0x20
    000001C8 5F               [ 4]  925 	ld	e, a
    000001C9 7E               [ 7]  926 	ld	a, (hl)
    000001CA E6 DF            [ 7]  927 	and	a, #0xdf
    000001CC B3               [ 4]  928 	or	a, e
    000001CD 77               [ 7]  929 	ld	(hl), a
                                    930 ;E:\Dropbox\FAUSTO\SVILUPPI\MSX\CODE\C\MSXgl\projects\exsoccer/exsoccer_s2_b0.c:126: V9_SetSpriteP1(15, &attr);
                                    931 ;E:/Dropbox/FAUSTO/SVILUPPI/MSX/CODE/C/MSXgl/engine/src/v9990.h:781: inline void V9_SetSpriteP1(u8 id, const V9_Sprite* attr) { V9_WriteVRAM(V9_P1_SPAT + (id * 4), (const u8*)attr, 4); }
                                    932 ;E:/Dropbox/FAUSTO/SVILUPPI/MSX/CODE/C/MSXgl/engine/src/v9990.h:371: inline void V9_WriteVRAM(u32 addr, const u8* src, u16 count) { V9_SetWriteAddress(addr); V9_WriteVRAM_CurrentAddr(src, count); }
    000001CE 11 3C FE         [10]  933 	ld	de, #0xfe3c
    000001D1 21 03 00         [10]  934 	ld	hl, #0x0003
    000001D4 CDr00r00         [17]  935 	call	_V9_SetWriteAddress
    000001D7 11 04 00         [10]  936 	ld	de, #0x0004
    000001DA 21 00 00         [10]  937 	ld	hl, #0
    000001DD 39               [11]  938 	add	hl, sp
    000001DE CDr00r00         [17]  939 	call	_V9_WriteVRAM_CurrentAddr
                                    940 ;E:\Dropbox\FAUSTO\SVILUPPI\MSX\CODE\C\MSXgl\projects\exsoccer/exsoccer_s2_b0.c:126: V9_SetSpriteP1(15, &attr);
                                    941 ;E:\Dropbox\FAUSTO\SVILUPPI\MSX\CODE\C\MSXgl\projects\exsoccer/exsoccer_s2_b0.c:127: }
    000001E1 DD F9            [10]  942 	ld	sp, ix
    000001E3 DD E1            [14]  943 	pop	ix
    000001E5 C9               [10]  944 	ret
    000001E6                        945 _PutBallSprite_k_BallPatterns_65539_1142:
    000001E6 39                     946 	.db #0x39	; 57	'9'
    000001E7 3A                     947 	.db #0x3a	; 58
    000001E8 3B                     948 	.db #0x3b	; 59
    000001E9 3C                     949 	.db #0x3c	; 60
    000001EA 3D                     950 	.db #0x3d	; 61
    000001EB 3E                     951 	.db #0x3e	; 62
    000001EC 3F                     952 	.db #0x3f	; 63
    000001ED 74                     953 	.db #0x74	; 116	't'
                                    954 ;E:\Dropbox\FAUSTO\SVILUPPI\MSX\CODE\C\MSXgl\projects\exsoccer/exsoccer_s2_b0.c:129: void PrintTeamName(u8 x, u8 teamPaletteId) {
                                    955 ;	---------------------------------
                                    956 ; Function PrintTeamName
                                    957 ; ---------------------------------
    000001EE                        958 _PrintTeamName::
    000001EE 4F               [ 4]  959 	ld	c, a
    000001EF 45               [ 4]  960 	ld	b, l
                                    961 ;E:\Dropbox\FAUSTO\SVILUPPI\MSX\CODE\C\MSXgl\projects\exsoccer/exsoccer_s2_b0.c:130: const char* pName = 0;
    000001F0 11 00 00         [10]  962 	ld	de, #0x0000
                                    963 ;E:\Dropbox\FAUSTO\SVILUPPI\MSX\CODE\C\MSXgl\projects\exsoccer/exsoccer_s2_b0.c:131: if (g_FioBre) {
    000001F3 3Ar00r00         [13]  964 	ld	a, (_g_FioBre+0)
    000001F6 B7               [ 4]  965 	or	a, a
    000001F7 28 12            [12]  966 	jr	Z, 00107$
                                    967 ;E:\Dropbox\FAUSTO\SVILUPPI\MSX\CODE\C\MSXgl\projects\exsoccer/exsoccer_s2_b0.c:132: if (teamPaletteId == TEAM_AUS) pName = "FIO";
    000001F9 78               [ 4]  968 	ld	a, b
    000001FA B7               [ 4]  969 	or	a, a
    000001FB 20 06            [12]  970 	jr	NZ, 00104$
    000001FD 11r41r02         [10]  971 	ld	de, #___str_5
    00000200 C3r0Br02         [10]  972 	jp	00107$
    00000203                        973 00104$:
                                    974 ;E:\Dropbox\FAUSTO\SVILUPPI\MSX\CODE\C\MSXgl\projects\exsoccer/exsoccer_s2_b0.c:133: else if (teamPaletteId == TEAM_ITA) pName = "BRE";
    00000203 78               [ 4]  975 	ld	a, b
    00000204 D6 02            [ 7]  976 	sub	a, #0x02
    00000206 20 03            [12]  977 	jr	NZ, 00107$
    00000208 11r45r02         [10]  978 	ld	de, #___str_6
    0000020B                        979 00107$:
                                    980 ;E:\Dropbox\FAUSTO\SVILUPPI\MSX\CODE\C\MSXgl\projects\exsoccer/exsoccer_s2_b0.c:136: if (!pName) {
    0000020B 7A               [ 4]  981 	ld	a, d
    0000020C B3               [ 4]  982 	or	a, e
    0000020D 20 16            [12]  983 	jr	NZ, 00112$
                                    984 ;E:\Dropbox\FAUSTO\SVILUPPI\MSX\CODE\C\MSXgl\projects\exsoccer/exsoccer_s2_b0.c:138: if (teamPaletteId <= 5) pName = k_Names[teamPaletteId];
    0000020F 3E 05            [ 7]  985 	ld	a, #0x05
    00000211 90               [ 4]  986 	sub	a, b
    00000212 38 0E            [12]  987 	jr	C, 00109$
    00000214 11r01r00         [10]  988 	ld	de, #_PrintTeamName_k_Names_131072_1152+0
    00000217 68               [ 4]  989 	ld	l, b
                                    990 ;	spillPairReg hl
                                    991 ;	spillPairReg hl
    00000218 26 00            [ 7]  992 	ld	h, #0x00
                                    993 ;	spillPairReg hl
                                    994 ;	spillPairReg hl
    0000021A 29               [11]  995 	add	hl, hl
    0000021B 19               [11]  996 	add	hl, de
    0000021C 5E               [ 7]  997 	ld	e, (hl)
    0000021D 23               [ 6]  998 	inc	hl
    0000021E 56               [ 7]  999 	ld	d, (hl)
    0000021F C3r25r02         [10] 1000 	jp	00112$
    00000222                       1001 00109$:
                                   1002 ;E:\Dropbox\FAUSTO\SVILUPPI\MSX\CODE\C\MSXgl\projects\exsoccer/exsoccer_s2_b0.c:139: else pName = "   ";
    00000222 11r49r02         [10] 1003 	ld	de, #___str_7
    00000225                       1004 00112$:
                                   1005 ;E:\Dropbox\FAUSTO\SVILUPPI\MSX\CODE\C\MSXgl\projects\exsoccer/exsoccer_s2_b0.c:141: V9_PrintLayerAStringAtPos(x, 0, pName);
    00000225 D5               [11] 1006 	push	de
    00000226 2E 00            [ 7] 1007 	ld	l, #0x00
                                   1008 ;	spillPairReg hl
                                   1009 ;	spillPairReg hl
    00000228 79               [ 4] 1010 	ld	a, c
    00000229 CDr00r00         [17] 1011 	call	_V9_PrintLayerAStringAtPos
                                   1012 ;E:\Dropbox\FAUSTO\SVILUPPI\MSX\CODE\C\MSXgl\projects\exsoccer/exsoccer_s2_b0.c:142: }
    0000022C C9               [10] 1013 	ret
    0000022D                       1014 ___str_0:
    0000022D 41 55 53              1015 	.ascii "AUS"
    00000230 00                    1016 	.db 0x00
    00000231                       1017 ___str_1:
    00000231 42 52 41              1018 	.ascii "BRA"
    00000234 00                    1019 	.db 0x00
    00000235                       1020 ___str_2:
    00000235 46 52 41              1021 	.ascii "FRA"
    00000238 00                    1022 	.db 0x00
    00000239                       1023 ___str_3:
    00000239 47 42 52              1024 	.ascii "GBR"
    0000023C 00                    1025 	.db 0x00
    0000023D                       1026 ___str_4:
    0000023D 47 45 52              1027 	.ascii "GER"
    00000240 00                    1028 	.db 0x00
    00000241                       1029 ___str_5:
    00000241 46 49 4F              1030 	.ascii "FIO"
    00000244 00                    1031 	.db 0x00
    00000245                       1032 ___str_6:
    00000245 42 52 45              1033 	.ascii "BRE"
    00000248 00                    1034 	.db 0x00
    00000249                       1035 ___str_7:
    00000249 20 20 20              1036 	.ascii "   "
    0000024C 00                    1037 	.db 0x00
                                   1038 ;E:\Dropbox\FAUSTO\SVILUPPI\MSX\CODE\C\MSXgl\projects\exsoccer/exsoccer_s2_b0.c:144: void ShowHeaderInfo(){
                                   1039 ;	---------------------------------
                                   1040 ; Function ShowHeaderInfo
                                   1041 ; ---------------------------------
    0000024D                       1042 _ShowHeaderInfo::
    0000024D DD E5            [15] 1043 	push	ix
    0000024F DD 21 00 00      [14] 1044 	ld	ix,#0
    00000253 DD 39            [15] 1045 	add	ix,sp
    00000255 3B               [ 6] 1046 	dec	sp
                                   1047 ;E:\Dropbox\FAUSTO\SVILUPPI\MSX\CODE\C\MSXgl\projects\exsoccer/exsoccer_s2_b0.c:145: u8 pos1 = (g_Team1Score >= 10) ? 4 : 5;
    00000256 3Ar00r00         [13] 1048 	ld	a, (_g_Team1Score+0)
    00000259 D6 0A            [ 7] 1049 	sub	a, #0x0a
    0000025B 38 06            [12] 1050 	jr	C, 00106$
    0000025D 01 04 00         [10] 1051 	ld	bc, #0x0004
    00000260 C3r66r02         [10] 1052 	jp	00107$
    00000263                       1053 00106$:
    00000263 01 05 00         [10] 1054 	ld	bc, #0x0005
    00000266                       1055 00107$:
                                   1056 ;E:\Dropbox\FAUSTO\SVILUPPI\MSX\CODE\C\MSXgl\projects\exsoccer/exsoccer_s2_b0.c:146: u8 pos2 = (g_Team2Score >= 10) ? 9 : 10;
    00000266 3Ar00r00         [13] 1057 	ld	a, (_g_Team2Score+0)
    00000269 D6 0A            [ 7] 1058 	sub	a, #0x0a
    0000026B 38 06            [12] 1059 	jr	C, 00108$
    0000026D 11 09 00         [10] 1060 	ld	de, #0x0009
    00000270 C3r76r02         [10] 1061 	jp	00109$
    00000273                       1062 00108$:
    00000273 11 0A 00         [10] 1063 	ld	de, #0x000a
    00000276                       1064 00109$:
    00000276 DD 73 FF         [19] 1065 	ld	-1 (ix), e
                                   1066 ;E:\Dropbox\FAUSTO\SVILUPPI\MSX\CODE\C\MSXgl\projects\exsoccer/exsoccer_s2_b0.c:148: PrintTeamName(0, g_Team1PaletteId);
    00000279 C5               [11] 1067 	push	bc
    0000027A 3Ar00r00         [13] 1068 	ld	a, (_g_Team1PaletteId+0)
    0000027D 6F               [ 4] 1069 	ld	l, a
                                   1070 ;	spillPairReg hl
                                   1071 ;	spillPairReg hl
    0000027E AF               [ 4] 1072 	xor	a, a
    0000027F CDrEEr01         [17] 1073 	call	_PrintTeamName
    00000282 C1               [10] 1074 	pop	bc
                                   1075 ;E:\Dropbox\FAUSTO\SVILUPPI\MSX\CODE\C\MSXgl\projects\exsoccer/exsoccer_s2_b0.c:150: V9_PrintLayerAStringAtPos(pos1, 0, GetNumberString(g_Team1Score));
    00000283 3Ar00r00         [13] 1076 	ld	a, (_g_Team1Score+0)
    00000286 6F               [ 4] 1077 	ld	l, a
                                   1078 ;	spillPairReg hl
                                   1079 ;	spillPairReg hl
    00000287 26 00            [ 7] 1080 	ld	h, #0x00
                                   1081 ;	spillPairReg hl
                                   1082 ;	spillPairReg hl
    00000289 C5               [11] 1083 	push	bc
    0000028A CDr02r0D         [17] 1084 	call	_GetNumberString
    0000028D C1               [10] 1085 	pop	bc
    0000028E D5               [11] 1086 	push	de
    0000028F 2E 00            [ 7] 1087 	ld	l, #0x00
                                   1088 ;	spillPairReg hl
                                   1089 ;	spillPairReg hl
    00000291 79               [ 4] 1090 	ld	a, c
    00000292 CDr00r00         [17] 1091 	call	_V9_PrintLayerAStringAtPos
                                   1092 ;E:\Dropbox\FAUSTO\SVILUPPI\MSX\CODE\C\MSXgl\projects\exsoccer/exsoccer_s2_b0.c:151: V9_PrintLayerAStringAtPos(7, 0, "-");
    00000295 21r23r03         [10] 1093 	ld	hl, #___str_8
    00000298 E5               [11] 1094 	push	hl
    00000299 2E 00            [ 7] 1095 	ld	l, #0x00
                                   1096 ;	spillPairReg hl
                                   1097 ;	spillPairReg hl
    0000029B 3E 07            [ 7] 1098 	ld	a, #0x07
    0000029D CDr00r00         [17] 1099 	call	_V9_PrintLayerAStringAtPos
                                   1100 ;E:\Dropbox\FAUSTO\SVILUPPI\MSX\CODE\C\MSXgl\projects\exsoccer/exsoccer_s2_b0.c:152: V9_PrintLayerAStringAtPos(pos2, 0, GetNumberString(g_Team2Score));
    000002A0 3Ar00r00         [13] 1101 	ld	a, (_g_Team2Score+0)
    000002A3 6F               [ 4] 1102 	ld	l, a
                                   1103 ;	spillPairReg hl
                                   1104 ;	spillPairReg hl
    000002A4 26 00            [ 7] 1105 	ld	h, #0x00
                                   1106 ;	spillPairReg hl
                                   1107 ;	spillPairReg hl
    000002A6 CDr02r0D         [17] 1108 	call	_GetNumberString
    000002A9 D5               [11] 1109 	push	de
    000002AA 2E 00            [ 7] 1110 	ld	l, #0x00
                                   1111 ;	spillPairReg hl
                                   1112 ;	spillPairReg hl
    000002AC DD 7E FF         [19] 1113 	ld	a, -1 (ix)
    000002AF CDr00r00         [17] 1114 	call	_V9_PrintLayerAStringAtPos
                                   1115 ;E:\Dropbox\FAUSTO\SVILUPPI\MSX\CODE\C\MSXgl\projects\exsoccer/exsoccer_s2_b0.c:154: PrintTeamName(12, g_Team2PaletteId);
    000002B2 3Ar00r00         [13] 1116 	ld	a, (_g_Team2PaletteId+0)
    000002B5 6F               [ 4] 1117 	ld	l, a
                                   1118 ;	spillPairReg hl
                                   1119 ;	spillPairReg hl
    000002B6 3E 0C            [ 7] 1120 	ld	a, #0x0c
    000002B8 CDrEEr01         [17] 1121 	call	_PrintTeamName
                                   1122 ;E:\Dropbox\FAUSTO\SVILUPPI\MSX\CODE\C\MSXgl\projects\exsoccer/exsoccer_s2_b0.c:155: u8 minutes=g_SecondsToEndOfMatch / 60;
    000002BB 3Ar00r00         [13] 1123 	ld	a, (_g_SecondsToEndOfMatch+0)
    000002BE 6F               [ 4] 1124 	ld	l, a
                                   1125 ;	spillPairReg hl
                                   1126 ;	spillPairReg hl
    000002BF 26 00            [ 7] 1127 	ld	h, #0x00
                                   1128 ;	spillPairReg hl
                                   1129 ;	spillPairReg hl
    000002C1 11 3C 00         [10] 1130 	ld	de, #0x003c
    000002C4 CDr00r00         [17] 1131 	call	__divsint
                                   1132 ;E:\Dropbox\FAUSTO\SVILUPPI\MSX\CODE\C\MSXgl\projects\exsoccer/exsoccer_s2_b0.c:156: u8 seconds=g_SecondsToEndOfMatch - minutes*60;
    000002C7 7B               [ 4] 1133 	ld	a, e
    000002C8 4F               [ 4] 1134 	ld	c, a
    000002C9 87               [ 4] 1135 	add	a, a
    000002CA 87               [ 4] 1136 	add	a, a
    000002CB 87               [ 4] 1137 	add	a, a
    000002CC 87               [ 4] 1138 	add	a, a
    000002CD 91               [ 4] 1139 	sub	a, c
    000002CE 87               [ 4] 1140 	add	a, a
    000002CF 87               [ 4] 1141 	add	a, a
    000002D0 4F               [ 4] 1142 	ld	c, a
    000002D1 3Ar00r00         [13] 1143 	ld	a, (_g_SecondsToEndOfMatch+0)
    000002D4 91               [ 4] 1144 	sub	a, c
    000002D5 4F               [ 4] 1145 	ld	c, a
                                   1146 ;E:\Dropbox\FAUSTO\SVILUPPI\MSX\CODE\C\MSXgl\projects\exsoccer/exsoccer_s2_b0.c:157: V9_PrintLayerAStringAtPos(28,0,GetNumberString(minutes));
    000002D6 16 00            [ 7] 1147 	ld	d, #0x00
    000002D8 C5               [11] 1148 	push	bc
    000002D9 EB               [ 4] 1149 	ex	de, hl
    000002DA CDr02r0D         [17] 1150 	call	_GetNumberString
    000002DD D5               [11] 1151 	push	de
    000002DE 2E 00            [ 7] 1152 	ld	l, #0x00
                                   1153 ;	spillPairReg hl
                                   1154 ;	spillPairReg hl
    000002E0 3E 1C            [ 7] 1155 	ld	a, #0x1c
    000002E2 CDr00r00         [17] 1156 	call	_V9_PrintLayerAStringAtPos
    000002E5 21r25r03         [10] 1157 	ld	hl, #___str_9
    000002E8 E5               [11] 1158 	push	hl
    000002E9 2E 00            [ 7] 1159 	ld	l, #0x00
                                   1160 ;	spillPairReg hl
                                   1161 ;	spillPairReg hl
    000002EB 3E 1D            [ 7] 1162 	ld	a, #0x1d
    000002ED CDr00r00         [17] 1163 	call	_V9_PrintLayerAStringAtPos
    000002F0 C1               [10] 1164 	pop	bc
                                   1165 ;E:\Dropbox\FAUSTO\SVILUPPI\MSX\CODE\C\MSXgl\projects\exsoccer/exsoccer_s2_b0.c:160: V9_PrintLayerAStringAtPos(30,0,GetNumberString(seconds));
    000002F1 69               [ 4] 1166 	ld	l, c
                                   1167 ;	spillPairReg hl
                                   1168 ;	spillPairReg hl
    000002F2 26 00            [ 7] 1169 	ld	h, #0x00
                                   1170 ;	spillPairReg hl
                                   1171 ;	spillPairReg hl
                                   1172 ;E:\Dropbox\FAUSTO\SVILUPPI\MSX\CODE\C\MSXgl\projects\exsoccer/exsoccer_s2_b0.c:159: if(seconds>=10){
    000002F4 79               [ 4] 1173 	ld	a, c
    000002F5 D6 0A            [ 7] 1174 	sub	a, #0x0a
    000002F7 38 0E            [12] 1175 	jr	C, 00102$
                                   1176 ;E:\Dropbox\FAUSTO\SVILUPPI\MSX\CODE\C\MSXgl\projects\exsoccer/exsoccer_s2_b0.c:160: V9_PrintLayerAStringAtPos(30,0,GetNumberString(seconds));
    000002F9 CDr02r0D         [17] 1177 	call	_GetNumberString
    000002FC D5               [11] 1178 	push	de
    000002FD 2E 00            [ 7] 1179 	ld	l, #0x00
                                   1180 ;	spillPairReg hl
                                   1181 ;	spillPairReg hl
    000002FF 3E 1E            [ 7] 1182 	ld	a, #0x1e
    00000301 CDr00r00         [17] 1183 	call	_V9_PrintLayerAStringAtPos
    00000304 C3r1Fr03         [10] 1184 	jp	00104$
    00000307                       1185 00102$:
                                   1186 ;E:\Dropbox\FAUSTO\SVILUPPI\MSX\CODE\C\MSXgl\projects\exsoccer/exsoccer_s2_b0.c:163: V9_PrintLayerAStringAtPos(30,0,"0");
    00000307 01r27r03         [10] 1187 	ld	bc, #___str_10+0
    0000030A E5               [11] 1188 	push	hl
    0000030B C5               [11] 1189 	push	bc
    0000030C 2E 00            [ 7] 1190 	ld	l, #0x00
                                   1191 ;	spillPairReg hl
                                   1192 ;	spillPairReg hl
    0000030E 3E 1E            [ 7] 1193 	ld	a, #0x1e
    00000310 CDr00r00         [17] 1194 	call	_V9_PrintLayerAStringAtPos
    00000313 E1               [10] 1195 	pop	hl
                                   1196 ;E:\Dropbox\FAUSTO\SVILUPPI\MSX\CODE\C\MSXgl\projects\exsoccer/exsoccer_s2_b0.c:164: V9_PrintLayerAStringAtPos(31,0,GetNumberString(seconds));
    00000314 CDr02r0D         [17] 1197 	call	_GetNumberString
    00000317 D5               [11] 1198 	push	de
    00000318 2E 00            [ 7] 1199 	ld	l, #0x00
                                   1200 ;	spillPairReg hl
                                   1201 ;	spillPairReg hl
    0000031A 3E 1F            [ 7] 1202 	ld	a, #0x1f
    0000031C CDr00r00         [17] 1203 	call	_V9_PrintLayerAStringAtPos
    0000031F                       1204 00104$:
                                   1205 ;E:\Dropbox\FAUSTO\SVILUPPI\MSX\CODE\C\MSXgl\projects\exsoccer/exsoccer_s2_b0.c:166: }
    0000031F 33               [ 6] 1206 	inc	sp
    00000320 DD E1            [14] 1207 	pop	ix
    00000322 C9               [10] 1208 	ret
    00000323                       1209 ___str_8:
    00000323 2D                    1210 	.ascii "-"
    00000324 00                    1211 	.db 0x00
    00000325                       1212 ___str_9:
    00000325 3A                    1213 	.ascii ":"
    00000326 00                    1214 	.db 0x00
    00000327                       1215 ___str_10:
    00000327 30                    1216 	.ascii "0"
    00000328 00                    1217 	.db 0x00
                                   1218 ;E:\Dropbox\FAUSTO\SVILUPPI\MSX\CODE\C\MSXgl\projects\exsoccer/exsoccer_s2_b0.c:169: void V9_PutLayerATileAtPos(u8 x, u8 y, u16 tileId) {
                                   1219 ;	---------------------------------
                                   1220 ; Function V9_PutLayerATileAtPos
                                   1221 ; ---------------------------------
    00000329                       1222 _V9_PutLayerATileAtPos::
    00000329 DD E5            [15] 1223 	push	ix
    0000032B DD 21 00 00      [14] 1224 	ld	ix,#0
    0000032F DD 39            [15] 1225 	add	ix,sp
    00000331 5F               [ 4] 1226 	ld	e, a
                                   1227 ;E:\Dropbox\FAUSTO\SVILUPPI\MSX\CODE\C\MSXgl\projects\exsoccer/exsoccer_s2_b0.c:170: V9_Poke16(V9_CellAddrP1A(x,y), tileId);
    00000332 DD 4E 04         [19] 1228 	ld	c, 4 (ix)
    00000335 DD 46 05         [19] 1229 	ld	b, 5 (ix)
                                   1230 ;E:/Dropbox/FAUSTO/SVILUPPI/MSX/CODE/C/MSXgl/engine/src/v9990.h:1426: inline u32 V9_CellAddrP1A(u8 x, u8 y) { return V9_P1_PNT_A + (((64 * y) + x) * 2); }
    00000338 26 00            [ 7] 1231 	ld	h, #0x00
                                   1232 ;	spillPairReg hl
                                   1233 ;	spillPairReg hl
    0000033A 29               [11] 1234 	add	hl, hl
    0000033B 29               [11] 1235 	add	hl, hl
    0000033C 29               [11] 1236 	add	hl, hl
    0000033D 29               [11] 1237 	add	hl, hl
    0000033E 29               [11] 1238 	add	hl, hl
    0000033F 29               [11] 1239 	add	hl, hl
    00000340 16 00            [ 7] 1240 	ld	d, #0x00
    00000342 19               [11] 1241 	add	hl, de
    00000343 29               [11] 1242 	add	hl, hl
    00000344 7C               [ 4] 1243 	ld	a, h
    00000345 07               [ 4] 1244 	rlca
    00000346 9F               [ 4] 1245 	sbc	a, a
    00000347 5F               [ 4] 1246 	ld	e, a
    00000348 57               [ 4] 1247 	ld	d, a
    00000349 7C               [ 4] 1248 	ld	a, h
    0000034A C6 C0            [ 7] 1249 	add	a, #0xc0
    0000034C 67               [ 4] 1250 	ld	h, a
                                   1251 ;	spillPairReg hl
                                   1252 ;	spillPairReg hl
    0000034D 7B               [ 4] 1253 	ld	a, e
    0000034E CE 07            [ 7] 1254 	adc	a, #0x07
    00000350 5F               [ 4] 1255 	ld	e, a
    00000351 30 01            [12] 1256 	jr	NC, 00105$
    00000353 14               [ 4] 1257 	inc	d
    00000354                       1258 00105$:
                                   1259 ;E:/Dropbox/FAUSTO/SVILUPPI/MSX/CODE/C/MSXgl/engine/src/v9990.h:396: inline void V9_Poke16(u32 addr, u16 val) { V9_SetWriteAddress(addr); V9_Poke16_CurrentAddr(val); }
    00000354 C5               [11] 1260 	push	bc
    00000355 EB               [ 4] 1261 	ex	de, hl
    00000356 CDr00r00         [17] 1262 	call	_V9_SetWriteAddress
    00000359 C1               [10] 1263 	pop	bc
    0000035A 69               [ 4] 1264 	ld	l, c
                                   1265 ;	spillPairReg hl
                                   1266 ;	spillPairReg hl
    0000035B 60               [ 4] 1267 	ld	h, b
                                   1268 ;	spillPairReg hl
                                   1269 ;	spillPairReg hl
    0000035C CDr00r00         [17] 1270 	call	_V9_Poke16_CurrentAddr
                                   1271 ;E:\Dropbox\FAUSTO\SVILUPPI\MSX\CODE\C\MSXgl\projects\exsoccer/exsoccer_s2_b0.c:170: V9_Poke16(V9_CellAddrP1A(x,y), tileId);
                                   1272 ;E:\Dropbox\FAUSTO\SVILUPPI\MSX\CODE\C\MSXgl\projects\exsoccer/exsoccer_s2_b0.c:171: }
    0000035F DD E1            [14] 1273 	pop	ix
    00000361 E1               [10] 1274 	pop	hl
    00000362 F1               [10] 1275 	pop	af
    00000363 E9               [ 4] 1276 	jp	(hl)
                                   1277 ;E:\Dropbox\FAUSTO\SVILUPPI\MSX\CODE\C\MSXgl\projects\exsoccer/exsoccer_s2_b0.c:172: void V9_PutLayerBTileAtPos(u8 x, u8 y, u16 tileId) {
                                   1278 ;	---------------------------------
                                   1279 ; Function V9_PutLayerBTileAtPos
                                   1280 ; ---------------------------------
    00000364                       1281 _V9_PutLayerBTileAtPos::
    00000364 DD E5            [15] 1282 	push	ix
    00000366 DD 21 00 00      [14] 1283 	ld	ix,#0
    0000036A DD 39            [15] 1284 	add	ix,sp
    0000036C 5F               [ 4] 1285 	ld	e, a
                                   1286 ;E:\Dropbox\FAUSTO\SVILUPPI\MSX\CODE\C\MSXgl\projects\exsoccer/exsoccer_s2_b0.c:173: V9_Poke16(V9_CellAddrP1B(x,y), tileId);
    0000036D DD 4E 04         [19] 1287 	ld	c, 4 (ix)
    00000370 DD 46 05         [19] 1288 	ld	b, 5 (ix)
                                   1289 ;E:/Dropbox/FAUSTO/SVILUPPI/MSX/CODE/C/MSXgl/engine/src/v9990.h:1437: inline u32 V9_CellAddrP1B(u8 x, u8 y) { return V9_P1_PNT_B + (((64 * y) + x) * 2); }
    00000373 26 00            [ 7] 1290 	ld	h, #0x00
                                   1291 ;	spillPairReg hl
                                   1292 ;	spillPairReg hl
    00000375 29               [11] 1293 	add	hl, hl
    00000376 29               [11] 1294 	add	hl, hl
    00000377 29               [11] 1295 	add	hl, hl
    00000378 29               [11] 1296 	add	hl, hl
    00000379 29               [11] 1297 	add	hl, hl
    0000037A 29               [11] 1298 	add	hl, hl
    0000037B 16 00            [ 7] 1299 	ld	d, #0x00
    0000037D 19               [11] 1300 	add	hl, de
    0000037E 29               [11] 1301 	add	hl, hl
    0000037F 7C               [ 4] 1302 	ld	a, h
    00000380 07               [ 4] 1303 	rlca
    00000381 9F               [ 4] 1304 	sbc	a, a
    00000382 5F               [ 4] 1305 	ld	e, a
    00000383 57               [ 4] 1306 	ld	d, a
    00000384 7C               [ 4] 1307 	ld	a, h
    00000385 C6 E0            [ 7] 1308 	add	a, #0xe0
    00000387 67               [ 4] 1309 	ld	h, a
                                   1310 ;	spillPairReg hl
                                   1311 ;	spillPairReg hl
    00000388 7B               [ 4] 1312 	ld	a, e
    00000389 CE 07            [ 7] 1313 	adc	a, #0x07
    0000038B 5F               [ 4] 1314 	ld	e, a
    0000038C 30 01            [12] 1315 	jr	NC, 00105$
    0000038E 14               [ 4] 1316 	inc	d
    0000038F                       1317 00105$:
                                   1318 ;E:/Dropbox/FAUSTO/SVILUPPI/MSX/CODE/C/MSXgl/engine/src/v9990.h:396: inline void V9_Poke16(u32 addr, u16 val) { V9_SetWriteAddress(addr); V9_Poke16_CurrentAddr(val); }
    0000038F C5               [11] 1319 	push	bc
    00000390 EB               [ 4] 1320 	ex	de, hl
    00000391 CDr00r00         [17] 1321 	call	_V9_SetWriteAddress
    00000394 C1               [10] 1322 	pop	bc
    00000395 69               [ 4] 1323 	ld	l, c
                                   1324 ;	spillPairReg hl
                                   1325 ;	spillPairReg hl
    00000396 60               [ 4] 1326 	ld	h, b
                                   1327 ;	spillPairReg hl
                                   1328 ;	spillPairReg hl
    00000397 CDr00r00         [17] 1329 	call	_V9_Poke16_CurrentAddr
                                   1330 ;E:\Dropbox\FAUSTO\SVILUPPI\MSX\CODE\C\MSXgl\projects\exsoccer/exsoccer_s2_b0.c:173: V9_Poke16(V9_CellAddrP1B(x,y), tileId);
                                   1331 ;E:\Dropbox\FAUSTO\SVILUPPI\MSX\CODE\C\MSXgl\projects\exsoccer/exsoccer_s2_b0.c:174: }
    0000039A DD E1            [14] 1332 	pop	ix
    0000039C E1               [10] 1333 	pop	hl
    0000039D F1               [10] 1334 	pop	af
    0000039E E9               [ 4] 1335 	jp	(hl)
                                   1336 ;E:\Dropbox\FAUSTO\SVILUPPI\MSX\CODE\C\MSXgl\projects\exsoccer/exsoccer_s2_b0.c:175: void PutPlayerSprite(u8 playerId){
                                   1337 ;	---------------------------------
                                   1338 ; Function PutPlayerSprite
                                   1339 ; ---------------------------------
    0000039F                       1340 _PutPlayerSprite::
    0000039F DD E5            [15] 1341 	push	ix
    000003A1 DD 21 00 00      [14] 1342 	ld	ix,#0
    000003A5 DD 39            [15] 1343 	add	ix,sp
    000003A7 21 E9 FF         [10] 1344 	ld	hl, #-23
    000003AA 39               [11] 1345 	add	hl, sp
    000003AB F9               [ 6] 1346 	ld	sp, hl
    000003AC DD 77 FF         [19] 1347 	ld	-1 (ix), a
                                   1348 ;E:\Dropbox\FAUSTO\SVILUPPI\MSX\CODE\C\MSXgl\projects\exsoccer/exsoccer_s2_b0.c:177: attr.D=0;
    000003AF 21 03 00         [10] 1349 	ld	hl, #3
    000003B2 39               [11] 1350 	add	hl, sp
    000003B3 CB A6            [15] 1351 	res	4, (hl)
                                   1352 ;E:\Dropbox\FAUSTO\SVILUPPI\MSX\CODE\C\MSXgl\projects\exsoccer/exsoccer_s2_b0.c:178: attr.SC=2;
    000003B5 21 03 00         [10] 1353 	ld	hl, #3
    000003B8 39               [11] 1354 	add	hl, sp
    000003B9 7E               [ 7] 1355 	ld	a, (hl)
    000003BA E6 3F            [ 7] 1356 	and	a, #0x3f
    000003BC F6 80            [ 7] 1357 	or	a, #0x80
    000003BE 77               [ 7] 1358 	ld	(hl), a
                                   1359 ;E:\Dropbox\FAUSTO\SVILUPPI\MSX\CODE\C\MSXgl\projects\exsoccer/exsoccer_s2_b0.c:179: u16 minY=g_FieldCurrentYPosition+16;
    000003BF 2Ar00r00         [16] 1360 	ld	hl, (_g_FieldCurrentYPosition)
    000003C2 11 10 00         [10] 1361 	ld	de, #0x0010
    000003C5 19               [11] 1362 	add	hl, de
    000003C6 4D               [ 4] 1363 	ld	c, l
    000003C7 44               [ 4] 1364 	ld	b, h
                                   1365 ;E:\Dropbox\FAUSTO\SVILUPPI\MSX\CODE\C\MSXgl\projects\exsoccer/exsoccer_s2_b0.c:180: u16 maxY=g_FieldCurrentYPosition+235;
    000003C8 2Ar00r00         [16] 1366 	ld	hl, (_g_FieldCurrentYPosition)
    000003CB 11 EB 00         [10] 1367 	ld	de, #0x00eb
    000003CE 19               [11] 1368 	add	hl, de
                                   1369 ;E:\Dropbox\FAUSTO\SVILUPPI\MSX\CODE\C\MSXgl\projects\exsoccer/exsoccer_s2_b0.c:182: attr.Y = g_Players[playerId].Y-g_FieldCurrentYPosition;
    000003CF E5               [11] 1370 	push	hl
    000003D0 DD 5E FF         [19] 1371 	ld	e, -1 (ix)
    000003D3 16 00            [ 7] 1372 	ld	d, #0x00
    000003D5 6B               [ 4] 1373 	ld	l, e
    000003D6 62               [ 4] 1374 	ld	h, d
    000003D7 29               [11] 1375 	add	hl, hl
    000003D8 29               [11] 1376 	add	hl, hl
    000003D9 19               [11] 1377 	add	hl, de
    000003DA 29               [11] 1378 	add	hl, hl
    000003DB 29               [11] 1379 	add	hl, hl
    000003DC 19               [11] 1380 	add	hl, de
    000003DD D1               [10] 1381 	pop	de
    000003DE 3Er00            [ 7] 1382 	ld	a, #<(_g_Players)
    000003E0 85               [ 4] 1383 	add	a, l
    000003E1 DD 77 ED         [19] 1384 	ld	-19 (ix), a
    000003E4 3Es00            [ 7] 1385 	ld	a, #>(_g_Players)
    000003E6 8C               [ 4] 1386 	adc	a, h
    000003E7 DD 77 EE         [19] 1387 	ld	-18 (ix), a
    000003EA DD 6E ED         [19] 1388 	ld	l, -19 (ix)
    000003ED DD 66 EE         [19] 1389 	ld	h, -18 (ix)
    000003F0 66               [ 7] 1390 	ld	h, (hl)
                                   1391 ;	spillPairReg hl
    000003F1 3Ar00r00         [13] 1392 	ld	a, (_g_FieldCurrentYPosition+0)
    000003F4 6F               [ 4] 1393 	ld	l, a
                                   1394 ;	spillPairReg hl
                                   1395 ;	spillPairReg hl
    000003F5 7C               [ 4] 1396 	ld	a, h
    000003F6 95               [ 4] 1397 	sub	a, l
    000003F7 DD 77 E9         [19] 1398 	ld	-23 (ix), a
                                   1399 ;E:\Dropbox\FAUSTO\SVILUPPI\MSX\CODE\C\MSXgl\projects\exsoccer/exsoccer_s2_b0.c:183: if(g_Players[playerId].TeamId==TEAM_2){
    000003FA DD 7E ED         [19] 1400 	ld	a, -19 (ix)
    000003FD C6 09            [ 7] 1401 	add	a, #0x09
    000003FF DD 77 EF         [19] 1402 	ld	-17 (ix), a
    00000402 DD 7E EE         [19] 1403 	ld	a, -18 (ix)
    00000405 CE 00            [ 7] 1404 	adc	a, #0x00
    00000407 DD 77 F0         [19] 1405 	ld	-16 (ix), a
    0000040A DD 6E EF         [19] 1406 	ld	l, -17 (ix)
    0000040D DD 66 F0         [19] 1407 	ld	h, -16 (ix)
    00000410 7E               [ 7] 1408 	ld	a, (hl)
    00000411 D6 02            [ 7] 1409 	sub	a, #0x02
    00000413 20 08            [12] 1410 	jr	NZ, 00102$
                                   1411 ;E:\Dropbox\FAUSTO\SVILUPPI\MSX\CODE\C\MSXgl\projects\exsoccer/exsoccer_s2_b0.c:184: attr.SC=3;
    00000415 21 03 00         [10] 1412 	ld	hl, #3
    00000418 39               [11] 1413 	add	hl, sp
    00000419 7E               [ 7] 1414 	ld	a, (hl)
    0000041A F6 C0            [ 7] 1415 	or	a, #0xc0
    0000041C 77               [ 7] 1416 	ld	(hl), a
    0000041D                       1417 00102$:
                                   1418 ;E:\Dropbox\FAUSTO\SVILUPPI\MSX\CODE\C\MSXgl\projects\exsoccer/exsoccer_s2_b0.c:187: if(g_Players[playerId].TeamId==REFEREE){
    0000041D DD 6E EF         [19] 1419 	ld	l, -17 (ix)
    00000420 DD 66 F0         [19] 1420 	ld	h, -16 (ix)
    00000423 7E               [ 7] 1421 	ld	a, (hl)
    00000424 D6 0E            [ 7] 1422 	sub	a, #0x0e
    00000426 20 0A            [12] 1423 	jr	NZ, 00104$
                                   1424 ;E:\Dropbox\FAUSTO\SVILUPPI\MSX\CODE\C\MSXgl\projects\exsoccer/exsoccer_s2_b0.c:188: attr.SC=1;
    00000428 21 03 00         [10] 1425 	ld	hl, #3
    0000042B 39               [11] 1426 	add	hl, sp
    0000042C 7E               [ 7] 1427 	ld	a, (hl)
    0000042D E6 3F            [ 7] 1428 	and	a, #0x3f
    0000042F F6 40            [ 7] 1429 	or	a, #0x40
    00000431 77               [ 7] 1430 	ld	(hl), a
    00000432                       1431 00104$:
                                   1432 ;E:\Dropbox\FAUSTO\SVILUPPI\MSX\CODE\C\MSXgl\projects\exsoccer/exsoccer_s2_b0.c:191: if(g_Players[playerId].Y>maxY){
    00000432 DD 6E ED         [19] 1433 	ld	l, -19 (ix)
    00000435 DD 66 EE         [19] 1434 	ld	h, -18 (ix)
    00000438 7E               [ 7] 1435 	ld	a, (hl)
    00000439 23               [ 6] 1436 	inc	hl
    0000043A 66               [ 7] 1437 	ld	h, (hl)
                                   1438 ;	spillPairReg hl
    0000043B 6F               [ 4] 1439 	ld	l, a
                                   1440 ;	spillPairReg hl
                                   1441 ;	spillPairReg hl
    0000043C 7B               [ 4] 1442 	ld	a, e
    0000043D 95               [ 4] 1443 	sub	a, l
    0000043E 7A               [ 4] 1444 	ld	a, d
    0000043F 9C               [ 4] 1445 	sbc	a, h
    00000440 30 06            [12] 1446 	jr	NC, 00106$
                                   1447 ;E:\Dropbox\FAUSTO\SVILUPPI\MSX\CODE\C\MSXgl\projects\exsoccer/exsoccer_s2_b0.c:192: attr.D=1;
    00000442 21 03 00         [10] 1448 	ld	hl, #3
    00000445 39               [11] 1449 	add	hl, sp
    00000446 CB E6            [15] 1450 	set	4, (hl)
    00000448                       1451 00106$:
                                   1452 ;E:\Dropbox\FAUSTO\SVILUPPI\MSX\CODE\C\MSXgl\projects\exsoccer/exsoccer_s2_b0.c:194: if(g_Players[playerId].Y<minY){
    00000448 DD 6E ED         [19] 1453 	ld	l, -19 (ix)
    0000044B DD 66 EE         [19] 1454 	ld	h, -18 (ix)
    0000044E 5E               [ 7] 1455 	ld	e, (hl)
    0000044F 23               [ 6] 1456 	inc	hl
    00000450 56               [ 7] 1457 	ld	d, (hl)
    00000451 7B               [ 4] 1458 	ld	a, e
    00000452 91               [ 4] 1459 	sub	a, c
    00000453 7A               [ 4] 1460 	ld	a, d
    00000454 98               [ 4] 1461 	sbc	a, b
    00000455 30 06            [12] 1462 	jr	NC, 00108$
                                   1463 ;E:\Dropbox\FAUSTO\SVILUPPI\MSX\CODE\C\MSXgl\projects\exsoccer/exsoccer_s2_b0.c:195: attr.D=1;
    00000457 21 03 00         [10] 1464 	ld	hl, #3
    0000045A 39               [11] 1465 	add	hl, sp
    0000045B CB E6            [15] 1466 	set	4, (hl)
    0000045D                       1467 00108$:
                                   1468 ;E:\Dropbox\FAUSTO\SVILUPPI\MSX\CODE\C\MSXgl\projects\exsoccer/exsoccer_s2_b0.c:198: if(g_Players[playerId].Role!=PLAYER_ROLE_GOALKEEPER){
    0000045D DD 7E ED         [19] 1469 	ld	a, -19 (ix)
    00000460 C6 0D            [ 7] 1470 	add	a, #0x0d
    00000462 DD 77 F1         [19] 1471 	ld	-15 (ix), a
    00000465 DD 7E EE         [19] 1472 	ld	a, -18 (ix)
    00000468 CE 00            [ 7] 1473 	adc	a, #0x00
    0000046A DD 77 F2         [19] 1474 	ld	-14 (ix), a
                                   1475 ;E:\Dropbox\FAUSTO\SVILUPPI\MSX\CODE\C\MSXgl\projects\exsoccer/exsoccer_s2_b0.c:197: if(g_MatchStatus!=MATCH_NOT_STARTED && g_MatchStatus!=MATCH_KICK_OFF){
    0000046D 3Ar00r00         [13] 1476 	ld	a, (_g_MatchStatus+0)
    00000470 B7               [ 4] 1477 	or	a, a
    00000471 28 17            [12] 1478 	jr	Z, 00112$
    00000473 3Ar00r00         [13] 1479 	ld	a, (_g_MatchStatus+0)
    00000476 D6 07            [ 7] 1480 	sub	a, #0x07
    00000478 28 10            [12] 1481 	jr	Z, 00112$
                                   1482 ;E:\Dropbox\FAUSTO\SVILUPPI\MSX\CODE\C\MSXgl\projects\exsoccer/exsoccer_s2_b0.c:198: if(g_Players[playerId].Role!=PLAYER_ROLE_GOALKEEPER){
    0000047A DD 6E F1         [19] 1483 	ld	l, -15 (ix)
    0000047D DD 66 F2         [19] 1484 	ld	h, -14 (ix)
    00000480 7E               [ 7] 1485 	ld	a, (hl)
    00000481 B7               [ 4] 1486 	or	a, a
    00000482 28 06            [12] 1487 	jr	Z, 00112$
                                   1488 ;E:\Dropbox\FAUSTO\SVILUPPI\MSX\CODE\C\MSXgl\projects\exsoccer/exsoccer_s2_b0.c:199: UpdatePlayerPatternByDirection(playerId);
    00000484 DD 7E FF         [19] 1489 	ld	a, -1 (ix)
    00000487 CDr00r00         [17] 1490 	call	_UpdatePlayerPatternByDirection
    0000048A                       1491 00112$:
                                   1492 ;E:\Dropbox\FAUSTO\SVILUPPI\MSX\CODE\C\MSXgl\projects\exsoccer/exsoccer_s2_b0.c:202: if(g_Players[playerId].Role==PLAYER_ROLE_GOALKEEPER){
    0000048A DD 6E F1         [19] 1493 	ld	l, -15 (ix)
    0000048D DD 66 F2         [19] 1494 	ld	h, -14 (ix)
    00000490 4E               [ 7] 1495 	ld	c, (hl)
                                   1496 ;E:\Dropbox\FAUSTO\SVILUPPI\MSX\CODE\C\MSXgl\projects\exsoccer/exsoccer_s2_b0.c:210: if(g_Players[playerId].OldX!=g_Players[playerId].X || g_Players[playerId].OldY!=g_Players[playerId].Y){
    00000491 DD 7E ED         [19] 1497 	ld	a, -19 (ix)
    00000494 C6 02            [ 7] 1498 	add	a, #0x02
    00000496 DD 77 F3         [19] 1499 	ld	-13 (ix), a
    00000499 DD 7E EE         [19] 1500 	ld	a, -18 (ix)
    0000049C CE 00            [ 7] 1501 	adc	a, #0x00
    0000049E DD 77 F4         [19] 1502 	ld	-12 (ix), a
                                   1503 ;E:\Dropbox\FAUSTO\SVILUPPI\MSX\CODE\C\MSXgl\projects\exsoccer/exsoccer_s2_b0.c:212: g_Players[playerId].PatternId = (team == TEAM_1) ? PLAYER_POSE_GK_H_MOVE_BACK_1 : PLAYER_POSE_GK_H_MOVE_FRONT_1;
    000004A1 DD 7E ED         [19] 1504 	ld	a, -19 (ix)
    000004A4 C6 08            [ 7] 1505 	add	a, #0x08
    000004A6 DD 77 F5         [19] 1506 	ld	-11 (ix), a
    000004A9 DD 7E EE         [19] 1507 	ld	a, -18 (ix)
    000004AC CE 00            [ 7] 1508 	adc	a, #0x00
    000004AE DD 77 F6         [19] 1509 	ld	-10 (ix), a
                                   1510 ;E:\Dropbox\FAUSTO\SVILUPPI\MSX\CODE\C\MSXgl\projects\exsoccer/exsoccer_s2_b0.c:202: if(g_Players[playerId].Role==PLAYER_ROLE_GOALKEEPER){
    000004B1 79               [ 4] 1511 	ld	a, c
    000004B2 B7               [ 4] 1512 	or	a, a
    000004B3 C2rC1r05         [10] 1513 	jp	NZ, 00124$
                                   1514 ;E:\Dropbox\FAUSTO\SVILUPPI\MSX\CODE\C\MSXgl\projects\exsoccer/exsoccer_s2_b0.c:203: attr.SC=0;
    000004B6 21 03 00         [10] 1515 	ld	hl, #3
    000004B9 39               [11] 1516 	add	hl, sp
    000004BA 7E               [ 7] 1517 	ld	a, (hl)
    000004BB E6 3F            [ 7] 1518 	and	a, #0x3f
    000004BD 77               [ 7] 1519 	ld	(hl), a
                                   1520 ;E:\Dropbox\FAUSTO\SVILUPPI\MSX\CODE\C\MSXgl\projects\exsoccer/exsoccer_s2_b0.c:206: if (g_MatchStatus == MATCH_IN_ACTION) {
    000004BE 3Ar00r00         [13] 1521 	ld	a, (_g_MatchStatus+0)
    000004C1 D6 0C            [ 7] 1522 	sub	a, #0x0c
    000004C3 C2rBBr05         [10] 1523 	jp	NZ,00121$
                                   1524 ;E:\Dropbox\FAUSTO\SVILUPPI\MSX\CODE\C\MSXgl\projects\exsoccer/exsoccer_s2_b0.c:207: g_Players[playerId].Status=PLAYER_STATUS_POSITIONED;
    000004C6 DD 6E ED         [19] 1525 	ld	l, -19 (ix)
    000004C9 DD 66 EE         [19] 1526 	ld	h, -18 (ix)
    000004CC 11 12 00         [10] 1527 	ld	de, #0x0012
    000004CF 19               [11] 1528 	add	hl, de
    000004D0 36 04            [10] 1529 	ld	(hl), #0x04
    000004D2 23               [ 6] 1530 	inc	hl
    000004D3 36 00            [10] 1531 	ld	(hl), #0x00
                                   1532 ;E:\Dropbox\FAUSTO\SVILUPPI\MSX\CODE\C\MSXgl\projects\exsoccer/exsoccer_s2_b0.c:208: u8 team = g_Players[playerId].TeamId;
    000004D5 DD 6E EF         [19] 1533 	ld	l, -17 (ix)
    000004D8 DD 66 F0         [19] 1534 	ld	h, -16 (ix)
    000004DB 46               [ 7] 1535 	ld	b, (hl)
                                   1536 ;E:\Dropbox\FAUSTO\SVILUPPI\MSX\CODE\C\MSXgl\projects\exsoccer/exsoccer_s2_b0.c:210: if(g_Players[playerId].OldX!=g_Players[playerId].X || g_Players[playerId].OldY!=g_Players[playerId].Y){
    000004DC DD 7E ED         [19] 1537 	ld	a, -19 (ix)
    000004DF C6 04            [ 7] 1538 	add	a, #0x04
    000004E1 DD 77 F7         [19] 1539 	ld	-9 (ix), a
    000004E4 DD 7E EE         [19] 1540 	ld	a, -18 (ix)
    000004E7 CE 00            [ 7] 1541 	adc	a, #0x00
    000004E9 DD 77 F8         [19] 1542 	ld	-8 (ix), a
    000004EC DD 6E F7         [19] 1543 	ld	l, -9 (ix)
    000004EF DD 66 F8         [19] 1544 	ld	h, -8 (ix)
    000004F2 5E               [ 7] 1545 	ld	e, (hl)
    000004F3 23               [ 6] 1546 	inc	hl
    000004F4 56               [ 7] 1547 	ld	d, (hl)
    000004F5 DD 6E F3         [19] 1548 	ld	l, -13 (ix)
    000004F8 DD 66 F4         [19] 1549 	ld	h, -12 (ix)
    000004FB 4E               [ 7] 1550 	ld	c, (hl)
    000004FC 23               [ 6] 1551 	inc	hl
    000004FD 66               [ 7] 1552 	ld	h, (hl)
                                   1553 ;	spillPairReg hl
    000004FE DD 7E ED         [19] 1554 	ld	a, -19 (ix)
    00000501 C6 06            [ 7] 1555 	add	a, #0x06
    00000503 DD 77 F9         [19] 1556 	ld	-7 (ix), a
    00000506 DD 7E EE         [19] 1557 	ld	a, -18 (ix)
    00000509 CE 00            [ 7] 1558 	adc	a, #0x00
    0000050B DD 77 FA         [19] 1559 	ld	-6 (ix), a
    0000050E 69               [ 4] 1560 	ld	l, c
    0000050F BF               [ 4] 1561 	cp	a, a
    00000510 ED 52            [15] 1562 	sbc	hl, de
    00000512 20 19            [12] 1563 	jr	NZ, 00117$
    00000514 DD 6E F9         [19] 1564 	ld	l, -7 (ix)
    00000517 DD 66 FA         [19] 1565 	ld	h, -6 (ix)
    0000051A 5E               [ 7] 1566 	ld	e, (hl)
    0000051B 23               [ 6] 1567 	inc	hl
    0000051C 56               [ 7] 1568 	ld	d, (hl)
    0000051D DD 6E ED         [19] 1569 	ld	l, -19 (ix)
    00000520 DD 66 EE         [19] 1570 	ld	h, -18 (ix)
    00000523 4E               [ 7] 1571 	ld	c, (hl)
    00000524 23               [ 6] 1572 	inc	hl
    00000525 66               [ 7] 1573 	ld	h, (hl)
                                   1574 ;	spillPairReg hl
    00000526 69               [ 4] 1575 	ld	l, c
    00000527 BF               [ 4] 1576 	cp	a, a
    00000528 ED 52            [15] 1577 	sbc	hl, de
    0000052A CArC1r05         [10] 1578 	jp	Z,00124$
    0000052D                       1579 00117$:
                                   1580 ;E:\Dropbox\FAUSTO\SVILUPPI\MSX\CODE\C\MSXgl\projects\exsoccer/exsoccer_s2_b0.c:211: if(g_Players[playerId].LastPose==0){
    0000052D DD 7E ED         [19] 1581 	ld	a, -19 (ix)
    00000530 C6 0C            [ 7] 1582 	add	a, #0x0c
    00000532 DD 77 FB         [19] 1583 	ld	-5 (ix), a
    00000535 DD 7E EE         [19] 1584 	ld	a, -18 (ix)
    00000538 CE 00            [ 7] 1585 	adc	a, #0x00
    0000053A DD 77 FC         [19] 1586 	ld	-4 (ix), a
    0000053D DD 6E FB         [19] 1587 	ld	l, -5 (ix)
    00000540 DD 66 FC         [19] 1588 	ld	h, -4 (ix)
    00000543 4E               [ 7] 1589 	ld	c, (hl)
                                   1590 ;E:\Dropbox\FAUSTO\SVILUPPI\MSX\CODE\C\MSXgl\projects\exsoccer/exsoccer_s2_b0.c:212: g_Players[playerId].PatternId = (team == TEAM_1) ? PLAYER_POSE_GK_H_MOVE_BACK_1 : PLAYER_POSE_GK_H_MOVE_FRONT_1;
    00000544 05               [ 4] 1591 	dec	b
    00000545 3E 01            [ 7] 1592 	ld	a, #0x01
    00000547 28 01            [12] 1593 	jr	Z, 00267$
    00000549 AF               [ 4] 1594 	xor	a, a
    0000054A                       1595 00267$:
                                   1596 ;E:\Dropbox\FAUSTO\SVILUPPI\MSX\CODE\C\MSXgl\projects\exsoccer/exsoccer_s2_b0.c:211: if(g_Players[playerId].LastPose==0){
    0000054A 0C               [ 4] 1597 	inc	c
    0000054B 0D               [ 4] 1598 	dec	c
    0000054C 20 2B            [12] 1599 	jr	NZ, 00115$
                                   1600 ;E:\Dropbox\FAUSTO\SVILUPPI\MSX\CODE\C\MSXgl\projects\exsoccer/exsoccer_s2_b0.c:212: g_Players[playerId].PatternId = (team == TEAM_1) ? PLAYER_POSE_GK_H_MOVE_BACK_1 : PLAYER_POSE_GK_H_MOVE_FRONT_1;
    0000054E B7               [ 4] 1601 	or	a, a
    0000054F 28 0B            [12] 1602 	jr	Z, 00141$
    00000551 DD 36 FD A4      [19] 1603 	ld	-3 (ix), #0xa4
    00000555 DD 36 FE 00      [19] 1604 	ld	-2 (ix), #0
    00000559 C3r64r05         [10] 1605 	jp	00142$
    0000055C                       1606 00141$:
    0000055C DD 36 FD 2B      [19] 1607 	ld	-3 (ix), #0x2b
    00000560 DD 36 FE 00      [19] 1608 	ld	-2 (ix), #0
    00000564                       1609 00142$:
    00000564 DD 7E FD         [19] 1610 	ld	a, -3 (ix)
    00000567 DD 6E F5         [19] 1611 	ld	l, -11 (ix)
    0000056A DD 66 F6         [19] 1612 	ld	h, -10 (ix)
    0000056D 77               [ 7] 1613 	ld	(hl), a
                                   1614 ;E:\Dropbox\FAUSTO\SVILUPPI\MSX\CODE\C\MSXgl\projects\exsoccer/exsoccer_s2_b0.c:213: g_Players[playerId].LastPose=1;
    0000056E DD 6E FB         [19] 1615 	ld	l, -5 (ix)
    00000571 DD 66 FC         [19] 1616 	ld	h, -4 (ix)
    00000574 36 01            [10] 1617 	ld	(hl), #0x01
    00000576 C3r94r05         [10] 1618 	jp	00116$
    00000579                       1619 00115$:
                                   1620 ;E:\Dropbox\FAUSTO\SVILUPPI\MSX\CODE\C\MSXgl\projects\exsoccer/exsoccer_s2_b0.c:216: g_Players[playerId].PatternId = (team == TEAM_1) ? PLAYER_POSE_GK_H_MOVE_BACK_2 : PLAYER_POSE_GK_H_MOVE_FRONT_2;
    00000579 B7               [ 4] 1621 	or	a, a
    0000057A 28 06            [12] 1622 	jr	Z, 00143$
    0000057C 01 A3 00         [10] 1623 	ld	bc, #0x00a3
    0000057F C3r85r05         [10] 1624 	jp	00144$
    00000582                       1625 00143$:
    00000582 01 2C 00         [10] 1626 	ld	bc, #0x002c
    00000585                       1627 00144$:
    00000585 DD 6E F5         [19] 1628 	ld	l, -11 (ix)
    00000588 DD 66 F6         [19] 1629 	ld	h, -10 (ix)
    0000058B 71               [ 7] 1630 	ld	(hl), c
                                   1631 ;E:\Dropbox\FAUSTO\SVILUPPI\MSX\CODE\C\MSXgl\projects\exsoccer/exsoccer_s2_b0.c:217: g_Players[playerId].LastPose=0;
    0000058C DD 6E FB         [19] 1632 	ld	l, -5 (ix)
    0000058F DD 66 FC         [19] 1633 	ld	h, -4 (ix)
    00000592 36 00            [10] 1634 	ld	(hl), #0x00
    00000594                       1635 00116$:
                                   1636 ;E:\Dropbox\FAUSTO\SVILUPPI\MSX\CODE\C\MSXgl\projects\exsoccer/exsoccer_s2_b0.c:219: g_Players[playerId].OldX=g_Players[playerId].X;
    00000594 DD 6E F3         [19] 1637 	ld	l, -13 (ix)
    00000597 DD 66 F4         [19] 1638 	ld	h, -12 (ix)
    0000059A 4E               [ 7] 1639 	ld	c, (hl)
    0000059B 23               [ 6] 1640 	inc	hl
    0000059C 46               [ 7] 1641 	ld	b, (hl)
    0000059D DD 6E F7         [19] 1642 	ld	l, -9 (ix)
    000005A0 DD 66 F8         [19] 1643 	ld	h, -8 (ix)
    000005A3 71               [ 7] 1644 	ld	(hl), c
    000005A4 23               [ 6] 1645 	inc	hl
    000005A5 70               [ 7] 1646 	ld	(hl), b
                                   1647 ;E:\Dropbox\FAUSTO\SVILUPPI\MSX\CODE\C\MSXgl\projects\exsoccer/exsoccer_s2_b0.c:220: g_Players[playerId].OldY=g_Players[playerId].Y;	
    000005A6 DD 6E ED         [19] 1648 	ld	l, -19 (ix)
    000005A9 DD 66 EE         [19] 1649 	ld	h, -18 (ix)
    000005AC 4E               [ 7] 1650 	ld	c, (hl)
    000005AD 23               [ 6] 1651 	inc	hl
    000005AE 46               [ 7] 1652 	ld	b, (hl)
    000005AF DD 6E F9         [19] 1653 	ld	l, -7 (ix)
    000005B2 DD 66 FA         [19] 1654 	ld	h, -6 (ix)
    000005B5 71               [ 7] 1655 	ld	(hl), c
    000005B6 23               [ 6] 1656 	inc	hl
    000005B7 70               [ 7] 1657 	ld	(hl), b
    000005B8 C3rC1r05         [10] 1658 	jp	00124$
    000005BB                       1659 00121$:
                                   1660 ;E:\Dropbox\FAUSTO\SVILUPPI\MSX\CODE\C\MSXgl\projects\exsoccer/exsoccer_s2_b0.c:225: UpdatePlayerPatternByDirection(playerId);
    000005BB DD 7E FF         [19] 1661 	ld	a, -1 (ix)
    000005BE CDr00r00         [17] 1662 	call	_UpdatePlayerPatternByDirection
    000005C1                       1663 00124$:
                                   1664 ;E:\Dropbox\FAUSTO\SVILUPPI\MSX\CODE\C\MSXgl\projects\exsoccer/exsoccer_s2_b0.c:228: attr.Pattern = g_Players[playerId].PatternId;
    000005C1 21 01 00         [10] 1665 	ld	hl,#0x1
    000005C4 39               [11] 1666 	add	hl,sp
    000005C5 4D               [ 4] 1667 	ld	c, l
    000005C6 44               [ 4] 1668 	ld	b, h
    000005C7 DD 6E F5         [19] 1669 	ld	l, -11 (ix)
    000005CA DD 66 F6         [19] 1670 	ld	h, -10 (ix)
    000005CD 7E               [ 7] 1671 	ld	a, (hl)
    000005CE 02               [ 7] 1672 	ld	(bc), a
                                   1673 ;E:\Dropbox\FAUSTO\SVILUPPI\MSX\CODE\C\MSXgl\projects\exsoccer/exsoccer_s2_b0.c:231: if(g_Players[playerId].TeamId != REFEREE)
    000005CF DD 6E EF         [19] 1674 	ld	l, -17 (ix)
    000005D2 DD 66 F0         [19] 1675 	ld	h, -16 (ix)
    000005D5 5E               [ 7] 1676 	ld	e, (hl)
                                   1677 ;E:\Dropbox\FAUSTO\SVILUPPI\MSX\CODE\C\MSXgl\projects\exsoccer/exsoccer_s2_b0.c:233: bool isHumanTeam = (g_Players[playerId].TeamId == TEAM_1) || (g_GameWith2Players && g_Players[playerId].TeamId == TEAM_2);
    000005D6 7B               [ 4] 1678 	ld	a,e
    000005D7 FE 0E            [ 7] 1679 	cp	a,#0x0e
    000005D9 28 48            [12] 1680 	jr	Z, 00136$
    000005DB 3D               [ 4] 1681 	dec	a
    000005DC 28 0F            [12] 1682 	jr	Z, 00146$
    000005DE 3Ar00r00         [13] 1683 	ld	a, (_g_GameWith2Players+0)
    000005E1 B7               [ 4] 1684 	or	a, a
    000005E2 28 05            [12] 1685 	jr	Z, 00145$
    000005E4 7B               [ 4] 1686 	ld	a, e
    000005E5 D6 02            [ 7] 1687 	sub	a, #0x02
    000005E7 28 04            [12] 1688 	jr	Z, 00146$
    000005E9                       1689 00145$:
    000005E9 AF               [ 4] 1690 	xor	a, a
    000005EA C3rEFr05         [10] 1691 	jp	00147$
    000005ED                       1692 00146$:
    000005ED 3E 01            [ 7] 1693 	ld	a, #0x01
    000005EF                       1694 00147$:
                                   1695 ;E:\Dropbox\FAUSTO\SVILUPPI\MSX\CODE\C\MSXgl\projects\exsoccer/exsoccer_s2_b0.c:235: if (isHumanTeam) {
    000005EF B7               [ 4] 1696 	or	a, a
    000005F0 28 31            [12] 1697 	jr	Z, 00136$
                                   1698 ;E:\Dropbox\FAUSTO\SVILUPPI\MSX\CODE\C\MSXgl\projects\exsoccer/exsoccer_s2_b0.c:237: if (g_Players[playerId].Role != PLAYER_ROLE_GOALKEEPER) {
    000005F2 DD 6E F1         [19] 1699 	ld	l, -15 (ix)
    000005F5 DD 66 F2         [19] 1700 	ld	h, -14 (ix)
    000005F8 7E               [ 7] 1701 	ld	a, (hl)
    000005F9 B7               [ 4] 1702 	or	a, a
    000005FA 28 1A            [12] 1703 	jr	Z, 00130$
                                   1704 ;E:\Dropbox\FAUSTO\SVILUPPI\MSX\CODE\C\MSXgl\projects\exsoccer/exsoccer_s2_b0.c:238: if (playerId==g_Team1ActivePlayer || (g_GameWith2Players && playerId==g_Team2ActivePlayer)) {
    000005FC 3Ar00r00         [13] 1705 	ld	a, (_g_Team1ActivePlayer+0)
    000005FF DD 96 FF         [19] 1706 	sub	a, -1 (ix)
    00000602 28 0E            [12] 1707 	jr	Z, 00125$
    00000604 3Ar00r00         [13] 1708 	ld	a, (_g_GameWith2Players+0)
    00000607 B7               [ 4] 1709 	or	a, a
    00000608 28 0C            [12] 1710 	jr	Z, 00130$
    0000060A 3Ar00r00         [13] 1711 	ld	a, (_g_Team2ActivePlayer+0)
    0000060D DD 96 FF         [19] 1712 	sub	a, -1 (ix)
    00000610 20 04            [12] 1713 	jr	NZ, 00130$
    00000612                       1714 00125$:
                                   1715 ;E:\Dropbox\FAUSTO\SVILUPPI\MSX\CODE\C\MSXgl\projects\exsoccer/exsoccer_s2_b0.c:240: attr.Pattern=attr.Pattern+64;
    00000612 0A               [ 7] 1716 	ld	a, (bc)
    00000613 C6 40            [ 7] 1717 	add	a, #0x40
    00000615 02               [ 7] 1718 	ld	(bc), a
    00000616                       1719 00130$:
                                   1720 ;E:\Dropbox\FAUSTO\SVILUPPI\MSX\CODE\C\MSXgl\projects\exsoccer/exsoccer_s2_b0.c:245: if (playerId == g_PassTargetPlayer) {
    00000616 DD 7E FF         [19] 1721 	ld	a, -1 (ix)
    00000619 21r00r00         [10] 1722 	ld	hl, #_g_PassTargetPlayer
    0000061C 96               [ 7] 1723 	sub	a, (hl)
    0000061D 20 04            [12] 1724 	jr	NZ, 00136$
                                   1725 ;E:\Dropbox\FAUSTO\SVILUPPI\MSX\CODE\C\MSXgl\projects\exsoccer/exsoccer_s2_b0.c:246: attr.Pattern=attr.Pattern+64;
    0000061F 0A               [ 7] 1726 	ld	a, (bc)
    00000620 C6 40            [ 7] 1727 	add	a, #0x40
    00000622 02               [ 7] 1728 	ld	(bc), a
    00000623                       1729 00136$:
                                   1730 ;E:\Dropbox\FAUSTO\SVILUPPI\MSX\CODE\C\MSXgl\projects\exsoccer/exsoccer_s2_b0.c:252: attr.X = g_Players[playerId].X;
    00000623 DD 6E F3         [19] 1731 	ld	l, -13 (ix)
    00000626 DD 66 F4         [19] 1732 	ld	h, -12 (ix)
    00000629 4E               [ 7] 1733 	ld	c, (hl)
    0000062A 23               [ 6] 1734 	inc	hl
    0000062B 46               [ 7] 1735 	ld	b, (hl)
    0000062C 21 02 00         [10] 1736 	ld	hl, #2
    0000062F 39               [11] 1737 	add	hl, sp
    00000630 71               [ 7] 1738 	ld	(hl), c
    00000631 23               [ 6] 1739 	inc	hl
    00000632 78               [ 4] 1740 	ld	a, b
    00000633 E6 03            [ 7] 1741 	and	a, #0x03
    00000635 5F               [ 4] 1742 	ld	e,a
    00000636 7E               [ 7] 1743 	ld	a, (hl)
    00000637 E6 FC            [ 7] 1744 	and	a, #0xfc
    00000639 B3               [ 4] 1745 	or	a, e
    0000063A 77               [ 7] 1746 	ld	(hl), a
                                   1747 ;E:\Dropbox\FAUSTO\SVILUPPI\MSX\CODE\C\MSXgl\projects\exsoccer/exsoccer_s2_b0.c:253: attr.P = 1;
    0000063B 21 03 00         [10] 1748 	ld	hl, #3
    0000063E 39               [11] 1749 	add	hl, sp
    0000063F CB EE            [15] 1750 	set	5, (hl)
                                   1751 ;E:\Dropbox\FAUSTO\SVILUPPI\MSX\CODE\C\MSXgl\projects\exsoccer/exsoccer_s2_b0.c:255: V9_SetSpriteP1(playerId, &attr);
                                   1752 ;E:/Dropbox/FAUSTO/SVILUPPI/MSX/CODE/C/MSXgl/engine/src/v9990.h:781: inline void V9_SetSpriteP1(u8 id, const V9_Sprite* attr) { V9_WriteVRAM(V9_P1_SPAT + (id * 4), (const u8*)attr, 4); }
    00000641 DD 6E FF         [19] 1753 	ld	l, -1 (ix)
                                   1754 ;	spillPairReg hl
                                   1755 ;	spillPairReg hl
    00000644 26 00            [ 7] 1756 	ld	h, #0x00
                                   1757 ;	spillPairReg hl
                                   1758 ;	spillPairReg hl
    00000646 29               [11] 1759 	add	hl, hl
    00000647 29               [11] 1760 	add	hl, hl
    00000648 7C               [ 4] 1761 	ld	a, h
    00000649 07               [ 4] 1762 	rlca
    0000064A 9F               [ 4] 1763 	sbc	a, a
    0000064B 5F               [ 4] 1764 	ld	e, a
    0000064C 57               [ 4] 1765 	ld	d, a
    0000064D 7C               [ 4] 1766 	ld	a, h
    0000064E C6 FE            [ 7] 1767 	add	a, #0xfe
    00000650 67               [ 4] 1768 	ld	h, a
                                   1769 ;	spillPairReg hl
                                   1770 ;	spillPairReg hl
    00000651 7B               [ 4] 1771 	ld	a, e
    00000652 CE 03            [ 7] 1772 	adc	a, #0x03
    00000654 5F               [ 4] 1773 	ld	e, a
    00000655 30 01            [12] 1774 	jr	NC, 00276$
    00000657 14               [ 4] 1775 	inc	d
    00000658                       1776 00276$:
                                   1777 ;E:/Dropbox/FAUSTO/SVILUPPI/MSX/CODE/C/MSXgl/engine/src/v9990.h:371: inline void V9_WriteVRAM(u32 addr, const u8* src, u16 count) { V9_SetWriteAddress(addr); V9_WriteVRAM_CurrentAddr(src, count); }
    00000658 EB               [ 4] 1778 	ex	de, hl
    00000659 CDr00r00         [17] 1779 	call	_V9_SetWriteAddress
    0000065C 11 04 00         [10] 1780 	ld	de, #0x0004
    0000065F 21 00 00         [10] 1781 	ld	hl, #0
    00000662 39               [11] 1782 	add	hl, sp
    00000663 CDr00r00         [17] 1783 	call	_V9_WriteVRAM_CurrentAddr
                                   1784 ;E:\Dropbox\FAUSTO\SVILUPPI\MSX\CODE\C\MSXgl\projects\exsoccer/exsoccer_s2_b0.c:255: V9_SetSpriteP1(playerId, &attr);
                                   1785 ;E:\Dropbox\FAUSTO\SVILUPPI\MSX\CODE\C\MSXgl\projects\exsoccer/exsoccer_s2_b0.c:257: }
    00000666 DD F9            [10] 1786 	ld	sp, ix
    00000668 DD E1            [14] 1787 	pop	ix
    0000066A C9               [10] 1788 	ret
                                   1789 ;E:\Dropbox\FAUSTO\SVILUPPI\MSX\CODE\C\MSXgl\projects\exsoccer/exsoccer_s2_b0.c:260: void ResetPlayersInfo(){
                                   1790 ;	---------------------------------
                                   1791 ; Function ResetPlayersInfo
                                   1792 ; ---------------------------------
    0000066B                       1793 _ResetPlayersInfo::
    0000066B DD E5            [15] 1794 	push	ix
    0000066D DD 21 00 00      [14] 1795 	ld	ix,#0
    00000671 DD 39            [15] 1796 	add	ix,sp
    00000673 3B               [ 6] 1797 	dec	sp
                                   1798 ;E:\Dropbox\FAUSTO\SVILUPPI\MSX\CODE\C\MSXgl\projects\exsoccer/exsoccer_s2_b0.c:261: SetPlayerBallPossession(NO_VALUE);
    00000674 3E FF            [ 7] 1799 	ld	a, #0xff
    00000676 CDr00r00         [17] 1800 	call	_SetPlayerBallPossession
                                   1801 ;E:\Dropbox\FAUSTO\SVILUPPI\MSX\CODE\C\MSXgl\projects\exsoccer/exsoccer_s2_b0.c:262: for(u8 i=0;i<14;i++){
    00000679 0E 00            [ 7] 1802 	ld	c, #0x00
    0000067B                       1803 00103$:
    0000067B 79               [ 4] 1804 	ld	a, c
    0000067C D6 0E            [ 7] 1805 	sub	a, #0x0e
    0000067E 30 41            [12] 1806 	jr	NC, 00105$
                                   1807 ;E:\Dropbox\FAUSTO\SVILUPPI\MSX\CODE\C\MSXgl\projects\exsoccer/exsoccer_s2_b0.c:263: g_Players[i].Direction=DIRECTION_NONE;
    00000680 06 00            [ 7] 1808 	ld	b, #0x00
    00000682 69               [ 4] 1809 	ld	l, c
    00000683 60               [ 4] 1810 	ld	h, b
    00000684 29               [11] 1811 	add	hl, hl
    00000685 29               [11] 1812 	add	hl, hl
    00000686 09               [11] 1813 	add	hl, bc
    00000687 29               [11] 1814 	add	hl, hl
    00000688 29               [11] 1815 	add	hl, hl
    00000689 09               [11] 1816 	add	hl, bc
    0000068A EB               [ 4] 1817 	ex	de, hl
    0000068B 21r00r00         [10] 1818 	ld	hl, #_g_Players
    0000068E 19               [11] 1819 	add	hl, de
    0000068F EB               [ 4] 1820 	ex	de, hl
    00000690 21 0A 00         [10] 1821 	ld	hl, #0x000a
    00000693 19               [11] 1822 	add	hl, de
    00000694 36 00            [10] 1823 	ld	(hl), #0x00
                                   1824 ;E:\Dropbox\FAUSTO\SVILUPPI\MSX\CODE\C\MSXgl\projects\exsoccer/exsoccer_s2_b0.c:264: g_Players[i].PreviousDirection=g_Players[i].Direction;
    00000696 7B               [ 4] 1825 	ld	a, e
    00000697 C6 0B            [ 7] 1826 	add	a, #0x0b
    00000699 47               [ 4] 1827 	ld	b, a
    0000069A 7A               [ 4] 1828 	ld	a, d
    0000069B CE 00            [ 7] 1829 	adc	a, #0x00
    0000069D F5               [11] 1830 	push	af
    0000069E 7E               [ 7] 1831 	ld	a, (hl)
    0000069F DD 77 FF         [19] 1832 	ld	-1 (ix), a
    000006A2 F1               [10] 1833 	pop	af
    000006A3 68               [ 4] 1834 	ld	l, b
    000006A4 67               [ 4] 1835 	ld	h, a
    000006A5 DD 7E FF         [19] 1836 	ld	a, -1 (ix)
    000006A8 77               [ 7] 1837 	ld	(hl), a
                                   1838 ;E:\Dropbox\FAUSTO\SVILUPPI\MSX\CODE\C\MSXgl\projects\exsoccer/exsoccer_s2_b0.c:265: g_Players[i].LastPose=0;
    000006A9 21 0C 00         [10] 1839 	ld	hl, #0x000c
    000006AC 19               [11] 1840 	add	hl, de
    000006AD 36 00            [10] 1841 	ld	(hl), #0x00
                                   1842 ;E:\Dropbox\FAUSTO\SVILUPPI\MSX\CODE\C\MSXgl\projects\exsoccer/exsoccer_s2_b0.c:266: g_Players[i].Status=PLAYER_STATUS_NONE;
    000006AF 21 12 00         [10] 1843 	ld	hl, #0x0012
    000006B2 19               [11] 1844 	add	hl, de
    000006B3 36 00            [10] 1845 	ld	(hl), #0x00
    000006B5 23               [ 6] 1846 	inc	hl
    000006B6 36 00            [10] 1847 	ld	(hl), #0x00
    000006B8 2B               [ 6] 1848 	dec	hl
                                   1849 ;E:\Dropbox\FAUSTO\SVILUPPI\MSX\CODE\C\MSXgl\projects\exsoccer/exsoccer_s2_b0.c:267: g_Players[i].Status=PLAYER_STATUS_NONE;
    000006B9 AF               [ 4] 1850 	xor	a, a
    000006BA 77               [ 7] 1851 	ld	(hl), a
    000006BB 23               [ 6] 1852 	inc	hl
    000006BC 77               [ 7] 1853 	ld	(hl), a
                                   1854 ;E:\Dropbox\FAUSTO\SVILUPPI\MSX\CODE\C\MSXgl\projects\exsoccer/exsoccer_s2_b0.c:262: for(u8 i=0;i<14;i++){
    000006BD 0C               [ 4] 1855 	inc	c
    000006BE C3r7Br06         [10] 1856 	jp	00103$
    000006C1                       1857 00105$:
                                   1858 ;E:\Dropbox\FAUSTO\SVILUPPI\MSX\CODE\C\MSXgl\projects\exsoccer/exsoccer_s2_b0.c:269: }
    000006C1 33               [ 6] 1859 	inc	sp
    000006C2 DD E1            [14] 1860 	pop	ix
    000006C4 C9               [10] 1861 	ret
                                   1862 ;E:\Dropbox\FAUSTO\SVILUPPI\MSX\CODE\C\MSXgl\projects\exsoccer/exsoccer_s2_b0.c:270: void ClearTextFromLayerA(u8 x, u8 y, u8 length){
                                   1863 ;	---------------------------------
                                   1864 ; Function ClearTextFromLayerA
                                   1865 ; ---------------------------------
    000006C5                       1866 _ClearTextFromLayerA::
    000006C5 4F               [ 4] 1867 	ld	c, a
    000006C6 45               [ 4] 1868 	ld	b, l
                                   1869 ;E:\Dropbox\FAUSTO\SVILUPPI\MSX\CODE\C\MSXgl\projects\exsoccer/exsoccer_s2_b0.c:271: for(u8 i=0;i<length;i++){
    000006C7 1E 00            [ 7] 1870 	ld	e, #0x00
    000006C9                       1871 00103$:
    000006C9 21 02 00         [10] 1872 	ld	hl, #2
    000006CC 39               [11] 1873 	add	hl, sp
    000006CD 7B               [ 4] 1874 	ld	a, e
    000006CE 96               [ 7] 1875 	sub	a, (hl)
    000006CF 30 12            [12] 1876 	jr	NC, 00105$
                                   1877 ;E:\Dropbox\FAUSTO\SVILUPPI\MSX\CODE\C\MSXgl\projects\exsoccer/exsoccer_s2_b0.c:272: V9_PutLayerATileAtPos(x,y,0);
    000006D1 C5               [11] 1878 	push	bc
    000006D2 D5               [11] 1879 	push	de
    000006D3 21 00 00         [10] 1880 	ld	hl, #0x0000
    000006D6 E5               [11] 1881 	push	hl
    000006D7 68               [ 4] 1882 	ld	l, b
                                   1883 ;	spillPairReg hl
                                   1884 ;	spillPairReg hl
    000006D8 79               [ 4] 1885 	ld	a, c
    000006D9 CDr29r03         [17] 1886 	call	_V9_PutLayerATileAtPos
    000006DC D1               [10] 1887 	pop	de
    000006DD C1               [10] 1888 	pop	bc
                                   1889 ;E:\Dropbox\FAUSTO\SVILUPPI\MSX\CODE\C\MSXgl\projects\exsoccer/exsoccer_s2_b0.c:273: x++;
    000006DE 0C               [ 4] 1890 	inc	c
                                   1891 ;E:\Dropbox\FAUSTO\SVILUPPI\MSX\CODE\C\MSXgl\projects\exsoccer/exsoccer_s2_b0.c:271: for(u8 i=0;i<length;i++){
    000006DF 1C               [ 4] 1892 	inc	e
    000006E0 C3rC9r06         [10] 1893 	jp	00103$
    000006E3                       1894 00105$:
                                   1895 ;E:\Dropbox\FAUSTO\SVILUPPI\MSX\CODE\C\MSXgl\projects\exsoccer/exsoccer_s2_b0.c:275: }
    000006E3 E1               [10] 1896 	pop	hl
    000006E4 33               [ 6] 1897 	inc	sp
    000006E5 E9               [ 4] 1898 	jp	(hl)
                                   1899 ;E:\Dropbox\FAUSTO\SVILUPPI\MSX\CODE\C\MSXgl\projects\exsoccer/exsoccer_s2_b0.c:276: void TickPlayerToOwnTarget(){
                                   1900 ;	---------------------------------
                                   1901 ; Function TickPlayerToOwnTarget
                                   1902 ; ---------------------------------
    000006E6                       1903 _TickPlayerToOwnTarget::
    000006E6 DD E5            [15] 1904 	push	ix
    000006E8 DD 21 00 00      [14] 1905 	ld	ix,#0
    000006EC DD 39            [15] 1906 	add	ix,sp
    000006EE 21 F3 FF         [10] 1907 	ld	hl, #-13
    000006F1 39               [11] 1908 	add	hl, sp
    000006F2 F9               [ 6] 1909 	ld	sp, hl
                                   1910 ;E:\Dropbox\FAUSTO\SVILUPPI\MSX\CODE\C\MSXgl\projects\exsoccer/exsoccer_s2_b0.c:278: if(g_MatchStatus!=MATCH_NOT_STARTED){
    000006F3 3Ar00r00         [13] 1911 	ld	a, (_g_MatchStatus+0)
    000006F6 B7               [ 4] 1912 	or	a, a
    000006F7 CArFDr0C         [10] 1913 	jp	Z, 00241$
                                   1914 ;E:\Dropbox\FAUSTO\SVILUPPI\MSX\CODE\C\MSXgl\projects\exsoccer/exsoccer_s2_b0.c:279: bool allPlayersInPosition = true;
    000006FA DD 36 F3 01      [19] 1915 	ld	-13 (ix), #0x01
                                   1916 ;E:\Dropbox\FAUSTO\SVILUPPI\MSX\CODE\C\MSXgl\projects\exsoccer/exsoccer_s2_b0.c:282: s_GkMoveTick++;
    000006FE 21r0Dr00         [10] 1917 	ld	hl, #_TickPlayerToOwnTarget_s_GkMoveTick_131072_1208
    00000701 34               [11] 1918 	inc	(hl)
                                   1919 ;E:\Dropbox\FAUSTO\SVILUPPI\MSX\CODE\C\MSXgl\projects\exsoccer/exsoccer_s2_b0.c:283: for(u8 i=0;i<15;i++){
    00000702 DD 36 FF 00      [19] 1920 	ld	-1 (ix), #0x00
    00000706                       1921 00240$:
    00000706 DD 7E FF         [19] 1922 	ld	a, -1 (ix)
    00000709 D6 0F            [ 7] 1923 	sub	a, #0x0f
    0000070B D2rD7r0C         [10] 1924 	jp	NC, 00232$
                                   1925 ;E:\Dropbox\FAUSTO\SVILUPPI\MSX\CODE\C\MSXgl\projects\exsoccer/exsoccer_s2_b0.c:285: if (g_MatchStatus == MATCH_IN_ACTION && g_Players[i].Role == PLAYER_ROLE_GOALKEEPER) {
    0000070E 3Ar00r00         [13] 1926 	ld	a, (_g_MatchStatus+0)
    00000711 D6 0C            [ 7] 1927 	sub	a, #0x0c
    00000713 20 6F            [12] 1928 	jr	NZ, 00108$
    00000715 DD 4E FF         [19] 1929 	ld	c, -1 (ix)
    00000718 06 00            [ 7] 1930 	ld	b, #0x00
    0000071A 69               [ 4] 1931 	ld	l, c
    0000071B 60               [ 4] 1932 	ld	h, b
    0000071C 29               [11] 1933 	add	hl, hl
    0000071D 29               [11] 1934 	add	hl, hl
    0000071E 09               [11] 1935 	add	hl, bc
    0000071F 29               [11] 1936 	add	hl, hl
    00000720 29               [11] 1937 	add	hl, hl
    00000721 09               [11] 1938 	add	hl, bc
    00000722 EB               [ 4] 1939 	ex	de, hl
    00000723 21r00r00         [10] 1940 	ld	hl, #_g_Players
    00000726 19               [11] 1941 	add	hl, de
    00000727 DD 75 FB         [19] 1942 	ld	-5 (ix), l
    0000072A DD 74 FC         [19] 1943 	ld	-4 (ix), h
    0000072D 01 0D 00         [10] 1944 	ld	bc,#13
    00000730 09               [11] 1945 	add	hl,bc
    00000731 7E               [ 7] 1946 	ld	a, (hl)
    00000732 B7               [ 4] 1947 	or	a, a
    00000733 20 4F            [12] 1948 	jr	NZ, 00108$
                                   1949 ;E:\Dropbox\FAUSTO\SVILUPPI\MSX\CODE\C\MSXgl\projects\exsoccer/exsoccer_s2_b0.c:286: if ((s_GkMoveTick & 3) == 0) { // ogni 4 tick
    00000735 3Ar0Dr00         [13] 1950 	ld	a, (_TickPlayerToOwnTarget_s_GkMoveTick_131072_1208+0)
    00000738 E6 03            [ 7] 1951 	and	a, #0x03
    0000073A 20 48            [12] 1952 	jr	NZ, 00108$
                                   1953 ;E:\Dropbox\FAUSTO\SVILUPPI\MSX\CODE\C\MSXgl\projects\exsoccer/exsoccer_s2_b0.c:289: u16 ballX = g_Ball.X;
    0000073C 21r02r00         [10] 1954 	ld	hl, #(_g_Ball + 2)
    0000073F 7E               [ 7] 1955 	ld	a, (hl)
    00000740 DD 77 FD         [19] 1956 	ld	-3 (ix), a
    00000743 23               [ 6] 1957 	inc	hl
    00000744 7E               [ 7] 1958 	ld	a, (hl)
    00000745 DD 77 FE         [19] 1959 	ld	-2 (ix), a
                                   1960 ;E:\Dropbox\FAUSTO\SVILUPPI\MSX\CODE\C\MSXgl\projects\exsoccer/exsoccer_s2_b0.c:290: if (ballX < minX-3) ballX = minX;
    00000748 DD 7E FD         [19] 1961 	ld	a, -3 (ix)
    0000074B DD 46 FE         [19] 1962 	ld	b, -2 (ix)
    0000074E D6 5D            [ 7] 1963 	sub	a, #0x5d
    00000750 78               [ 4] 1964 	ld	a, b
    00000751 DE 00            [ 7] 1965 	sbc	a, #0x00
    00000753 30 08            [12] 1966 	jr	NC, 00102$
    00000755 DD 36 FD 60      [19] 1967 	ld	-3 (ix), #0x60
    00000759 DD 36 FE 00      [19] 1968 	ld	-2 (ix), #0
    0000075D                       1969 00102$:
                                   1970 ;E:\Dropbox\FAUSTO\SVILUPPI\MSX\CODE\C\MSXgl\projects\exsoccer/exsoccer_s2_b0.c:291: if (ballX > maxX+3) ballX = maxX;
    0000075D DD 4E FD         [19] 1971 	ld	c, -3 (ix)
    00000760 DD 46 FE         [19] 1972 	ld	b, -2 (ix)
    00000763 3E 93            [ 7] 1973 	ld	a, #0x93
    00000765 B9               [ 4] 1974 	cp	a, c
    00000766 3E 00            [ 7] 1975 	ld	a, #0x00
    00000768 98               [ 4] 1976 	sbc	a, b
    00000769 30 08            [12] 1977 	jr	NC, 00104$
    0000076B DD 36 FD 90      [19] 1978 	ld	-3 (ix), #0x90
    0000076F DD 36 FE 00      [19] 1979 	ld	-2 (ix), #0
    00000773                       1980 00104$:
                                   1981 ;E:\Dropbox\FAUSTO\SVILUPPI\MSX\CODE\C\MSXgl\projects\exsoccer/exsoccer_s2_b0.c:292: g_Players[i].X = ballX;
    00000773 DD 4E FB         [19] 1982 	ld	c, -5 (ix)
    00000776 DD 46 FC         [19] 1983 	ld	b, -4 (ix)
    00000779 03               [ 6] 1984 	inc	bc
    0000077A 03               [ 6] 1985 	inc	bc
    0000077B DD 7E FD         [19] 1986 	ld	a, -3 (ix)
    0000077E 02               [ 7] 1987 	ld	(bc), a
    0000077F 03               [ 6] 1988 	inc	bc
    00000780 DD 7E FE         [19] 1989 	ld	a, -2 (ix)
    00000783 02               [ 7] 1990 	ld	(bc), a
    00000784                       1991 00108$:
                                   1992 ;E:\Dropbox\FAUSTO\SVILUPPI\MSX\CODE\C\MSXgl\projects\exsoccer/exsoccer_s2_b0.c:297: if(i != REFEREE) continue;
    00000784 DD 7E FF         [19] 1993 	ld	a, -1 (ix)
    00000787 D6 0E            [ 7] 1994 	sub	a, #0x0e
    00000789 3E 01            [ 7] 1995 	ld	a, #0x01
    0000078B 28 01            [12] 1996 	jr	Z, 00636$
    0000078D AF               [ 4] 1997 	xor	a, a
    0000078E                       1998 00636$:
    0000078E DD 77 FA         [19] 1999 	ld	-6 (ix), a
                                   2000 ;E:\Dropbox\FAUSTO\SVILUPPI\MSX\CODE\C\MSXgl\projects\exsoccer/exsoccer_s2_b0.c:296: if(g_MatchStatus == MATCH_AFTER_IN_GOAL) {
    00000791 3Ar00r00         [13] 2001 	ld	a, (_g_MatchStatus+0)
    00000794 D6 06            [ 7] 2002 	sub	a, #0x06
    00000796 20 60            [12] 2003 	jr	NZ, 00113$
                                   2004 ;E:\Dropbox\FAUSTO\SVILUPPI\MSX\CODE\C\MSXgl\projects\exsoccer/exsoccer_s2_b0.c:297: if(i != REFEREE) continue;
    00000798 DD CB FA 46      [20] 2005 	bit	0, -6 (ix)
    0000079C CArD1r0C         [10] 2006 	jp	Z, 00231$
                                   2007 ;E:\Dropbox\FAUSTO\SVILUPPI\MSX\CODE\C\MSXgl\projects\exsoccer/exsoccer_s2_b0.c:299: g_Players[i].TargetX=FIELD_POS_X_CENTER - 30; 
    0000079F DD 4E FF         [19] 2008 	ld	c, -1 (ix)
    000007A2 06 00            [ 7] 2009 	ld	b, #0x00
    000007A4 69               [ 4] 2010 	ld	l, c
    000007A5 60               [ 4] 2011 	ld	h, b
    000007A6 29               [11] 2012 	add	hl, hl
    000007A7 29               [11] 2013 	add	hl, hl
    000007A8 09               [11] 2014 	add	hl, bc
    000007A9 29               [11] 2015 	add	hl, hl
    000007AA 29               [11] 2016 	add	hl, hl
    000007AB 09               [11] 2017 	add	hl, bc
    000007AC DD 75 FD         [19] 2018 	ld	-3 (ix), l
    000007AF DD 74 FE         [19] 2019 	ld	-2 (ix), h
    000007B2 3Er00            [ 7] 2020 	ld	a, #<(_g_Players)
    000007B4 DD 86 FD         [19] 2021 	add	a, -3 (ix)
    000007B7 DD 77 FB         [19] 2022 	ld	-5 (ix), a
    000007BA 3Es00            [ 7] 2023 	ld	a, #>(_g_Players)
    000007BC DD 8E FE         [19] 2024 	adc	a, -2 (ix)
    000007BF DD 77 FC         [19] 2025 	ld	-4 (ix), a
    000007C2 DD 7E FB         [19] 2026 	ld	a, -5 (ix)
    000007C5 C6 10            [ 7] 2027 	add	a, #0x10
    000007C7 DD 77 FD         [19] 2028 	ld	-3 (ix), a
    000007CA DD 7E FC         [19] 2029 	ld	a, -4 (ix)
    000007CD CE 00            [ 7] 2030 	adc	a, #0x00
    000007CF DD 77 FE         [19] 2031 	ld	-2 (ix), a
    000007D2 DD 6E FD         [19] 2032 	ld	l, -3 (ix)
    000007D5 DD 66 FE         [19] 2033 	ld	h, -2 (ix)
    000007D8 36 5A            [10] 2034 	ld	(hl), #0x5a
    000007DA 23               [ 6] 2035 	inc	hl
    000007DB 36 00            [10] 2036 	ld	(hl), #0x00
                                   2037 ;E:\Dropbox\FAUSTO\SVILUPPI\MSX\CODE\C\MSXgl\projects\exsoccer/exsoccer_s2_b0.c:300: g_Players[i].TargetY=FIELD_POS_Y_CENTER - 40; 
    000007DD DD 7E FB         [19] 2038 	ld	a, -5 (ix)
    000007E0 C6 0E            [ 7] 2039 	add	a, #0x0e
    000007E2 DD 77 FD         [19] 2040 	ld	-3 (ix), a
    000007E5 DD 7E FC         [19] 2041 	ld	a, -4 (ix)
    000007E8 CE 00            [ 7] 2042 	adc	a, #0x00
    000007EA DD 77 FE         [19] 2043 	ld	-2 (ix), a
    000007ED DD 6E FD         [19] 2044 	ld	l, -3 (ix)
    000007F0 DD 66 FE         [19] 2045 	ld	h, -2 (ix)
    000007F3 36 CB            [10] 2046 	ld	(hl), #0xcb
    000007F5 23               [ 6] 2047 	inc	hl
    000007F6 36 00            [10] 2048 	ld	(hl), #0x00
    000007F8                       2049 00113$:
                                   2050 ;E:\Dropbox\FAUSTO\SVILUPPI\MSX\CODE\C\MSXgl\projects\exsoccer/exsoccer_s2_b0.c:303: if (i == REFEREE && (g_MatchStatus == MATCH_IN_ACTION || g_MatchStatus == MATCH_BALL_ON_GOALKEEPER)) continue;
    000007F8 DD 7E FA         [19] 2051 	ld	a, -6 (ix)
    000007FB B7               [ 4] 2052 	or	a, a
    000007FC 28 0D            [12] 2053 	jr	Z, 00115$
    000007FE 3Ar00r00         [13] 2054 	ld	a,(_g_MatchStatus+0)
    00000801 FE 0C            [ 7] 2055 	cp	a,#0x0c
    00000803 CArD1r0C         [10] 2056 	jp	Z,00231$
    00000806 D6 0D            [ 7] 2057 	sub	a, #0x0d
    00000808 CArD1r0C         [10] 2058 	jp	Z,00231$
    0000080B                       2059 00115$:
                                   2060 ;E:\Dropbox\FAUSTO\SVILUPPI\MSX\CODE\C\MSXgl\projects\exsoccer/exsoccer_s2_b0.c:306: bool isSetPieceSetup = (g_MatchStatus == MATCH_BEFORE_CORNER_KICK || g_MatchStatus == MATCH_BEFORE_GOAL_KICK || g_MatchStatus == MATCH_BEFORE_OFFSIDE || g_MatchStatus == MATCH_BEFORE_THROW_IN);
    0000080B 3Ar00r00         [13] 2061 	ld	a,(_g_MatchStatus+0)
    0000080E FE 02            [ 7] 2062 	cp	a,#0x02
    00000810 28 10            [12] 2063 	jr	Z, 00244$
    00000812 FE 05            [ 7] 2064 	cp	a,#0x05
    00000814 28 0C            [12] 2065 	jr	Z, 00244$
    00000816 FE 0E            [ 7] 2066 	cp	a,#0x0e
    00000818 28 08            [12] 2067 	jr	Z, 00244$
    0000081A D6 03            [ 7] 2068 	sub	a, #0x03
    0000081C 28 04            [12] 2069 	jr	Z, 00244$
    0000081E AF               [ 4] 2070 	xor	a, a
    0000081F C3r24r08         [10] 2071 	jp	00245$
    00000822                       2072 00244$:
    00000822 3E 01            [ 7] 2073 	ld	a, #0x01
    00000824                       2074 00245$:
    00000824 DD 77 F4         [19] 2075 	ld	-12 (ix), a
                                   2076 ;E:\Dropbox\FAUSTO\SVILUPPI\MSX\CODE\C\MSXgl\projects\exsoccer/exsoccer_s2_b0.c:308: if (!isSetPieceSetup) {
    00000827 B7               [ 4] 2077 	or	a, a
    00000828 20 36            [12] 2078 	jr	NZ, 00129$
                                   2079 ;E:\Dropbox\FAUSTO\SVILUPPI\MSX\CODE\C\MSXgl\projects\exsoccer/exsoccer_s2_b0.c:309: if (g_Team1ActivePlayer != NO_VALUE && i == g_Team1ActivePlayer) continue;
    0000082A 3Ar00r00         [13] 2080 	ld	a, (_g_Team1ActivePlayer+0)
    0000082D 3C               [ 4] 2081 	inc	a
    0000082E 28 0A            [12] 2082 	jr	Z, 00119$
    00000830 DD 7E FF         [19] 2083 	ld	a, -1 (ix)
    00000833 21r00r00         [10] 2084 	ld	hl, #_g_Team1ActivePlayer
    00000836 96               [ 7] 2085 	sub	a, (hl)
    00000837 CArD1r0C         [10] 2086 	jp	Z,00231$
    0000083A                       2087 00119$:
                                   2088 ;E:\Dropbox\FAUSTO\SVILUPPI\MSX\CODE\C\MSXgl\projects\exsoccer/exsoccer_s2_b0.c:310: if (g_GameWith2Players && g_Team2ActivePlayer != NO_VALUE && i == g_Team2ActivePlayer) continue;
    0000083A 3Ar00r00         [13] 2089 	ld	a, (_g_GameWith2Players+0)
    0000083D B7               [ 4] 2090 	or	a, a
    0000083E 28 10            [12] 2091 	jr	Z, 00122$
    00000840 3Ar00r00         [13] 2092 	ld	a, (_g_Team2ActivePlayer+0)
    00000843 3C               [ 4] 2093 	inc	a
    00000844 28 0A            [12] 2094 	jr	Z, 00122$
    00000846 DD 7E FF         [19] 2095 	ld	a, -1 (ix)
    00000849 21r00r00         [10] 2096 	ld	hl, #_g_Team2ActivePlayer
    0000084C 96               [ 7] 2097 	sub	a, (hl)
    0000084D CArD1r0C         [10] 2098 	jp	Z,00231$
    00000850                       2099 00122$:
                                   2100 ;E:\Dropbox\FAUSTO\SVILUPPI\MSX\CODE\C\MSXgl\projects\exsoccer/exsoccer_s2_b0.c:311: if (g_GameWith2Players && i == g_Team2ActivePlayer) {
    00000850 3Ar00r00         [13] 2101 	ld	a, (_g_GameWith2Players+0)
    00000853 B7               [ 4] 2102 	or	a, a
    00000854 28 0A            [12] 2103 	jr	Z, 00129$
    00000856 DD 7E FF         [19] 2104 	ld	a, -1 (ix)
    00000859 21r00r00         [10] 2105 	ld	hl, #_g_Team2ActivePlayer
    0000085C 96               [ 7] 2106 	sub	a, (hl)
    0000085D CArD1r0C         [10] 2107 	jp	Z,00231$
                                   2108 ;E:\Dropbox\FAUSTO\SVILUPPI\MSX\CODE\C\MSXgl\projects\exsoccer/exsoccer_s2_b0.c:312: continue;
    00000860                       2109 00129$:
                                   2110 ;E:\Dropbox\FAUSTO\SVILUPPI\MSX\CODE\C\MSXgl\projects\exsoccer/exsoccer_s2_b0.c:317: bool playerInPosition = (g_Players[i].X == g_Players[i].TargetX && g_Players[i].Y == g_Players[i].TargetY);
    00000860 DD 4E FF         [19] 2111 	ld	c, -1 (ix)
    00000863 06 00            [ 7] 2112 	ld	b, #0x00
    00000865 69               [ 4] 2113 	ld	l, c
    00000866 60               [ 4] 2114 	ld	h, b
    00000867 29               [11] 2115 	add	hl, hl
    00000868 29               [11] 2116 	add	hl, hl
    00000869 09               [11] 2117 	add	hl, bc
    0000086A 29               [11] 2118 	add	hl, hl
    0000086B 29               [11] 2119 	add	hl, hl
    0000086C 09               [11] 2120 	add	hl, bc
    0000086D 11r00r00         [10] 2121 	ld	de, #_g_Players
    00000870 19               [11] 2122 	add	hl, de
    00000871 4D               [ 4] 2123 	ld	c, l
    00000872 44               [ 4] 2124 	ld	b, h
    00000873 21 02 00         [10] 2125 	ld	hl, #0x0002
    00000876 09               [11] 2126 	add	hl, bc
    00000877 DD 75 F5         [19] 2127 	ld	-11 (ix), l
    0000087A DD 74 F6         [19] 2128 	ld	-10 (ix), h
    0000087D 5E               [ 7] 2129 	ld	e, (hl)
    0000087E 23               [ 6] 2130 	inc	hl
    0000087F 56               [ 7] 2131 	ld	d, (hl)
    00000880 21 10 00         [10] 2132 	ld	hl, #0x0010
    00000883 09               [11] 2133 	add	hl, bc
    00000884 DD 75 FD         [19] 2134 	ld	-3 (ix), l
    00000887 DD 74 FE         [19] 2135 	ld	-2 (ix), h
    0000088A 7E               [ 7] 2136 	ld	a, (hl)
    0000088B 23               [ 6] 2137 	inc	hl
    0000088C 66               [ 7] 2138 	ld	h, (hl)
                                   2139 ;	spillPairReg hl
    0000088D 6F               [ 4] 2140 	ld	l, a
                                   2141 ;	spillPairReg hl
                                   2142 ;	spillPairReg hl
    0000088E BF               [ 4] 2143 	cp	a, a
    0000088F ED 52            [15] 2144 	sbc	hl, de
    00000891 20 13            [12] 2145 	jr	NZ, 00252$
    00000893 69               [ 4] 2146 	ld	l, c
    00000894 60               [ 4] 2147 	ld	h, b
    00000895 5E               [ 7] 2148 	ld	e, (hl)
    00000896 23               [ 6] 2149 	inc	hl
    00000897 56               [ 7] 2150 	ld	d, (hl)
    00000898 C5               [11] 2151 	push	bc
    00000899 FD E1            [14] 2152 	pop	iy
    0000089B FD 6E 0E         [19] 2153 	ld	l, 14 (iy)
                                   2154 ;	spillPairReg hl
    0000089E FD 66 0F         [19] 2155 	ld	h, 15 (iy)
                                   2156 ;	spillPairReg hl
    000008A1 BF               [ 4] 2157 	cp	a, a
    000008A2 ED 52            [15] 2158 	sbc	hl, de
    000008A4 28 04            [12] 2159 	jr	Z, 00253$
    000008A6                       2160 00252$:
    000008A6 AF               [ 4] 2161 	xor	a, a
    000008A7 C3rACr08         [10] 2162 	jp	00254$
    000008AA                       2163 00253$:
    000008AA 3E 01            [ 7] 2164 	ld	a, #0x01
    000008AC                       2165 00254$:
    000008AC DD 77 F7         [19] 2166 	ld	-9 (ix), a
                                   2167 ;E:\Dropbox\FAUSTO\SVILUPPI\MSX\CODE\C\MSXgl\projects\exsoccer/exsoccer_s2_b0.c:320: if (g_MatchStatus == MATCH_BEFORE_KICK_OFF && !playerInPosition) {
    000008AF 3Ar00r00         [13] 2168 	ld	a, (_g_MatchStatus+0)
    000008B2 3D               [ 4] 2169 	dec	a
    000008B3 20 0A            [12] 2170 	jr	NZ, 00131$
    000008B5 DD 7E F7         [19] 2171 	ld	a, -9 (ix)
    000008B8 B7               [ 4] 2172 	or	a, a
    000008B9 20 04            [12] 2173 	jr	NZ, 00131$
                                   2174 ;E:\Dropbox\FAUSTO\SVILUPPI\MSX\CODE\C\MSXgl\projects\exsoccer/exsoccer_s2_b0.c:321: allPlayersInPosition = false;
    000008BB DD 36 F3 00      [19] 2175 	ld	-13 (ix), #0x00
    000008BF                       2176 00131$:
                                   2177 ;E:\Dropbox\FAUSTO\SVILUPPI\MSX\CODE\C\MSXgl\projects\exsoccer/exsoccer_s2_b0.c:326: if(g_Players[i].AiTickCounter<AI_TICK_SPEED){
    000008BF 21 14 00         [10] 2178 	ld	hl, #0x0014
    000008C2 09               [11] 2179 	add	hl, bc
                                   2180 ;E:\Dropbox\FAUSTO\SVILUPPI\MSX\CODE\C\MSXgl\projects\exsoccer/exsoccer_s2_b0.c:324: if(g_MatchStatus==MATCH_IN_ACTION){
    000008C3 3Ar00r00         [13] 2181 	ld	a, (_g_MatchStatus+0)
    000008C6 D6 0C            [ 7] 2182 	sub	a, #0x0c
    000008C8 20 0A            [12] 2183 	jr	NZ, 00136$
                                   2184 ;E:\Dropbox\FAUSTO\SVILUPPI\MSX\CODE\C\MSXgl\projects\exsoccer/exsoccer_s2_b0.c:326: if(g_Players[i].AiTickCounter<AI_TICK_SPEED){
    000008CA 7E               [ 7] 2185 	ld	a, (hl)
    000008CB FE 01            [ 7] 2186 	cp	a, #0x01
    000008CD 30 05            [12] 2187 	jr	NC, 00136$
                                   2188 ;E:\Dropbox\FAUSTO\SVILUPPI\MSX\CODE\C\MSXgl\projects\exsoccer/exsoccer_s2_b0.c:327: g_Players[i].AiTickCounter++;
    000008CF 3C               [ 4] 2189 	inc	a
    000008D0 77               [ 7] 2190 	ld	(hl), a
                                   2191 ;E:\Dropbox\FAUSTO\SVILUPPI\MSX\CODE\C\MSXgl\projects\exsoccer/exsoccer_s2_b0.c:328: continue;
    000008D1 C3rD1r0C         [10] 2192 	jp	00231$
    000008D4                       2193 00136$:
                                   2194 ;E:\Dropbox\FAUSTO\SVILUPPI\MSX\CODE\C\MSXgl\projects\exsoccer/exsoccer_s2_b0.c:332: g_Players[i].AiTickCounter=0;
    000008D4 36 00            [10] 2195 	ld	(hl), #0x00
                                   2196 ;E:\Dropbox\FAUSTO\SVILUPPI\MSX\CODE\C\MSXgl\projects\exsoccer/exsoccer_s2_b0.c:334: if(!playerInPosition){
    000008D6 DD 7E F7         [19] 2197 	ld	a, -9 (ix)
    000008D9 B7               [ 4] 2198 	or	a, a
    000008DA C2r49r0B         [10] 2199 	jp	NZ, 00177$
                                   2200 ;E:\Dropbox\FAUSTO\SVILUPPI\MSX\CODE\C\MSXgl\projects\exsoccer/exsoccer_s2_b0.c:335: g_Players[i].Status=PLAYER_STATUS_NONE;
    000008DD 21 12 00         [10] 2201 	ld	hl, #0x0012
    000008E0 09               [11] 2202 	add	hl, bc
    000008E1 AF               [ 4] 2203 	xor	a, a
    000008E2 77               [ 7] 2204 	ld	(hl), a
    000008E3 23               [ 6] 2205 	inc	hl
    000008E4 77               [ 7] 2206 	ld	(hl), a
                                   2207 ;E:\Dropbox\FAUSTO\SVILUPPI\MSX\CODE\C\MSXgl\projects\exsoccer/exsoccer_s2_b0.c:317: bool playerInPosition = (g_Players[i].X == g_Players[i].TargetX && g_Players[i].Y == g_Players[i].TargetY);
    000008E5 DD 6E F5         [19] 2208 	ld	l, -11 (ix)
    000008E8 DD 66 F6         [19] 2209 	ld	h, -10 (ix)
    000008EB 7E               [ 7] 2210 	ld	a, (hl)
    000008EC DD 77 F8         [19] 2211 	ld	-8 (ix), a
    000008EF 23               [ 6] 2212 	inc	hl
    000008F0 7E               [ 7] 2213 	ld	a, (hl)
    000008F1 DD 77 F9         [19] 2214 	ld	-7 (ix), a
    000008F4 DD 6E FD         [19] 2215 	ld	l, -3 (ix)
    000008F7 DD 66 FE         [19] 2216 	ld	h, -2 (ix)
    000008FA 7E               [ 7] 2217 	ld	a, (hl)
    000008FB DD 77 FA         [19] 2218 	ld	-6 (ix), a
    000008FE 23               [ 6] 2219 	inc	hl
    000008FF 7E               [ 7] 2220 	ld	a, (hl)
    00000900 DD 77 FB         [19] 2221 	ld	-5 (ix), a
    00000903 69               [ 4] 2222 	ld	l, c
    00000904 60               [ 4] 2223 	ld	h, b
    00000905 5E               [ 7] 2224 	ld	e, (hl)
    00000906 23               [ 6] 2225 	inc	hl
    00000907 56               [ 7] 2226 	ld	d, (hl)
                                   2227 ;E:\Dropbox\FAUSTO\SVILUPPI\MSX\CODE\C\MSXgl\projects\exsoccer/exsoccer_s2_b0.c:336: if(g_Players[i].X<g_Players[i].TargetX && g_Players[i].Y>g_Players[i].TargetY){
    00000908 DD 7E F8         [19] 2228 	ld	a, -8 (ix)
    0000090B DD 96 FA         [19] 2229 	sub	a, -6 (ix)
    0000090E DD 7E F9         [19] 2230 	ld	a, -7 (ix)
    00000911 DD 9E FB         [19] 2231 	sbc	a, -5 (ix)
    00000914 3E 00            [ 7] 2232 	ld	a, #0x00
    00000916 17               [ 4] 2233 	rla
    00000917 DD 77 FC         [19] 2234 	ld	-4 (ix), a
    0000091A B7               [ 4] 2235 	or	a, a
    0000091B 28 38            [12] 2236 	jr	Z, 00165$
    0000091D 69               [ 4] 2237 	ld	l, c
                                   2238 ;	spillPairReg hl
                                   2239 ;	spillPairReg hl
    0000091E 60               [ 4] 2240 	ld	h, b
                                   2241 ;	spillPairReg hl
                                   2242 ;	spillPairReg hl
    0000091F C5               [11] 2243 	push	bc
    00000920 01 0E 00         [10] 2244 	ld	bc, #0x000e
    00000923 09               [11] 2245 	add	hl, bc
    00000924 C1               [10] 2246 	pop	bc
    00000925 7E               [ 7] 2247 	ld	a, (hl)
    00000926 23               [ 6] 2248 	inc	hl
    00000927 66               [ 7] 2249 	ld	h, (hl)
                                   2250 ;	spillPairReg hl
    00000928 6F               [ 4] 2251 	ld	l, a
                                   2252 ;	spillPairReg hl
                                   2253 ;	spillPairReg hl
    00000929 AF               [ 4] 2254 	xor	a, a
    0000092A ED 52            [15] 2255 	sbc	hl, de
    0000092C 30 27            [12] 2256 	jr	NC, 00165$
                                   2257 ;E:\Dropbox\FAUSTO\SVILUPPI\MSX\CODE\C\MSXgl\projects\exsoccer/exsoccer_s2_b0.c:337: g_Players[i].Direction=DIRECTION_UP_RIGHT;
    0000092E 21 0A 00         [10] 2258 	ld	hl, #0x000a
    00000931 09               [11] 2259 	add	hl, bc
    00000932 36 02            [10] 2260 	ld	(hl), #0x02
                                   2261 ;E:\Dropbox\FAUSTO\SVILUPPI\MSX\CODE\C\MSXgl\projects\exsoccer/exsoccer_s2_b0.c:338: g_Players[i].X++;
    00000934 DD 6E F5         [19] 2262 	ld	l, -11 (ix)
    00000937 DD 66 F6         [19] 2263 	ld	h, -10 (ix)
    0000093A 5E               [ 7] 2264 	ld	e, (hl)
    0000093B 23               [ 6] 2265 	inc	hl
    0000093C 56               [ 7] 2266 	ld	d, (hl)
    0000093D 13               [ 6] 2267 	inc	de
    0000093E DD 6E F5         [19] 2268 	ld	l, -11 (ix)
    00000941 DD 66 F6         [19] 2269 	ld	h, -10 (ix)
    00000944 73               [ 7] 2270 	ld	(hl), e
    00000945 23               [ 6] 2271 	inc	hl
    00000946 72               [ 7] 2272 	ld	(hl), d
                                   2273 ;E:\Dropbox\FAUSTO\SVILUPPI\MSX\CODE\C\MSXgl\projects\exsoccer/exsoccer_s2_b0.c:339: g_Players[i].Y--;
    00000947 69               [ 4] 2274 	ld	l, c
    00000948 60               [ 4] 2275 	ld	h, b
    00000949 5E               [ 7] 2276 	ld	e, (hl)
    0000094A 23               [ 6] 2277 	inc	hl
    0000094B 56               [ 7] 2278 	ld	d, (hl)
    0000094C 1B               [ 6] 2279 	dec	de
    0000094D 69               [ 4] 2280 	ld	l, c
    0000094E 60               [ 4] 2281 	ld	h, b
    0000094F 73               [ 7] 2282 	ld	(hl), e
    00000950 23               [ 6] 2283 	inc	hl
    00000951 72               [ 7] 2284 	ld	(hl), d
    00000952 C3rEDr0A         [10] 2285 	jp	00166$
    00000955                       2286 00165$:
                                   2287 ;E:\Dropbox\FAUSTO\SVILUPPI\MSX\CODE\C\MSXgl\projects\exsoccer/exsoccer_s2_b0.c:341: else if(g_Players[i].X>g_Players[i].TargetX && g_Players[i].Y>g_Players[i].TargetY){
    00000955 DD 7E FA         [19] 2288 	ld	a, -6 (ix)
    00000958 DD 96 F8         [19] 2289 	sub	a, -8 (ix)
    0000095B DD 7E FB         [19] 2290 	ld	a, -5 (ix)
    0000095E DD 9E F9         [19] 2291 	sbc	a, -7 (ix)
    00000961 3E 00            [ 7] 2292 	ld	a, #0x00
    00000963 17               [ 4] 2293 	rla
    00000964 DD 77 FD         [19] 2294 	ld	-3 (ix), a
    00000967 B7               [ 4] 2295 	or	a, a
    00000968 28 38            [12] 2296 	jr	Z, 00161$
    0000096A 69               [ 4] 2297 	ld	l, c
                                   2298 ;	spillPairReg hl
                                   2299 ;	spillPairReg hl
    0000096B 60               [ 4] 2300 	ld	h, b
                                   2301 ;	spillPairReg hl
                                   2302 ;	spillPairReg hl
    0000096C C5               [11] 2303 	push	bc
    0000096D 01 0E 00         [10] 2304 	ld	bc, #0x000e
    00000970 09               [11] 2305 	add	hl, bc
    00000971 C1               [10] 2306 	pop	bc
    00000972 7E               [ 7] 2307 	ld	a, (hl)
    00000973 23               [ 6] 2308 	inc	hl
    00000974 66               [ 7] 2309 	ld	h, (hl)
                                   2310 ;	spillPairReg hl
    00000975 6F               [ 4] 2311 	ld	l, a
                                   2312 ;	spillPairReg hl
                                   2313 ;	spillPairReg hl
    00000976 AF               [ 4] 2314 	xor	a, a
    00000977 ED 52            [15] 2315 	sbc	hl, de
    00000979 30 27            [12] 2316 	jr	NC, 00161$
                                   2317 ;E:\Dropbox\FAUSTO\SVILUPPI\MSX\CODE\C\MSXgl\projects\exsoccer/exsoccer_s2_b0.c:342: g_Players[i].Direction=DIRECTION_UP_LEFT;
    0000097B 21 0A 00         [10] 2318 	ld	hl, #0x000a
    0000097E 09               [11] 2319 	add	hl, bc
    0000097F 36 08            [10] 2320 	ld	(hl), #0x08
                                   2321 ;E:\Dropbox\FAUSTO\SVILUPPI\MSX\CODE\C\MSXgl\projects\exsoccer/exsoccer_s2_b0.c:343: g_Players[i].X--;
    00000981 DD 6E F5         [19] 2322 	ld	l, -11 (ix)
    00000984 DD 66 F6         [19] 2323 	ld	h, -10 (ix)
    00000987 5E               [ 7] 2324 	ld	e, (hl)
    00000988 23               [ 6] 2325 	inc	hl
    00000989 56               [ 7] 2326 	ld	d, (hl)
    0000098A 1B               [ 6] 2327 	dec	de
    0000098B DD 6E F5         [19] 2328 	ld	l, -11 (ix)
    0000098E DD 66 F6         [19] 2329 	ld	h, -10 (ix)
    00000991 73               [ 7] 2330 	ld	(hl), e
    00000992 23               [ 6] 2331 	inc	hl
    00000993 72               [ 7] 2332 	ld	(hl), d
                                   2333 ;E:\Dropbox\FAUSTO\SVILUPPI\MSX\CODE\C\MSXgl\projects\exsoccer/exsoccer_s2_b0.c:344: g_Players[i].Y--;
    00000994 69               [ 4] 2334 	ld	l, c
    00000995 60               [ 4] 2335 	ld	h, b
    00000996 5E               [ 7] 2336 	ld	e, (hl)
    00000997 23               [ 6] 2337 	inc	hl
    00000998 56               [ 7] 2338 	ld	d, (hl)
    00000999 1B               [ 6] 2339 	dec	de
    0000099A 69               [ 4] 2340 	ld	l, c
    0000099B 60               [ 4] 2341 	ld	h, b
    0000099C 73               [ 7] 2342 	ld	(hl), e
    0000099D 23               [ 6] 2343 	inc	hl
    0000099E 72               [ 7] 2344 	ld	(hl), d
    0000099F C3rEDr0A         [10] 2345 	jp	00166$
    000009A2                       2346 00161$:
                                   2347 ;E:\Dropbox\FAUSTO\SVILUPPI\MSX\CODE\C\MSXgl\projects\exsoccer/exsoccer_s2_b0.c:346: else if(g_Players[i].X>g_Players[i].TargetX && g_Players[i].Y<g_Players[i].TargetY){
    000009A2 DD 7E FD         [19] 2348 	ld	a, -3 (ix)
    000009A5 B7               [ 4] 2349 	or	a, a
    000009A6 28 39            [12] 2350 	jr	Z, 00157$
    000009A8 69               [ 4] 2351 	ld	l, c
                                   2352 ;	spillPairReg hl
                                   2353 ;	spillPairReg hl
    000009A9 60               [ 4] 2354 	ld	h, b
                                   2355 ;	spillPairReg hl
                                   2356 ;	spillPairReg hl
    000009AA C5               [11] 2357 	push	bc
    000009AB 01 0E 00         [10] 2358 	ld	bc, #0x000e
    000009AE 09               [11] 2359 	add	hl, bc
    000009AF C1               [10] 2360 	pop	bc
    000009B0 7E               [ 7] 2361 	ld	a, (hl)
    000009B1 23               [ 6] 2362 	inc	hl
    000009B2 66               [ 7] 2363 	ld	h, (hl)
                                   2364 ;	spillPairReg hl
    000009B3 6F               [ 4] 2365 	ld	l, a
                                   2366 ;	spillPairReg hl
                                   2367 ;	spillPairReg hl
    000009B4 7B               [ 4] 2368 	ld	a, e
    000009B5 95               [ 4] 2369 	sub	a, l
    000009B6 7A               [ 4] 2370 	ld	a, d
    000009B7 9C               [ 4] 2371 	sbc	a, h
    000009B8 30 27            [12] 2372 	jr	NC, 00157$
                                   2373 ;E:\Dropbox\FAUSTO\SVILUPPI\MSX\CODE\C\MSXgl\projects\exsoccer/exsoccer_s2_b0.c:347: g_Players[i].Direction=DIRECTION_DOWN_LEFT;
    000009BA 21 0A 00         [10] 2374 	ld	hl, #0x000a
    000009BD 09               [11] 2375 	add	hl, bc
    000009BE 36 06            [10] 2376 	ld	(hl), #0x06
                                   2377 ;E:\Dropbox\FAUSTO\SVILUPPI\MSX\CODE\C\MSXgl\projects\exsoccer/exsoccer_s2_b0.c:348: g_Players[i].X--;
    000009C0 DD 6E F5         [19] 2378 	ld	l, -11 (ix)
    000009C3 DD 66 F6         [19] 2379 	ld	h, -10 (ix)
    000009C6 5E               [ 7] 2380 	ld	e, (hl)
    000009C7 23               [ 6] 2381 	inc	hl
    000009C8 56               [ 7] 2382 	ld	d, (hl)
    000009C9 1B               [ 6] 2383 	dec	de
    000009CA DD 6E F5         [19] 2384 	ld	l, -11 (ix)
    000009CD DD 66 F6         [19] 2385 	ld	h, -10 (ix)
    000009D0 73               [ 7] 2386 	ld	(hl), e
    000009D1 23               [ 6] 2387 	inc	hl
    000009D2 72               [ 7] 2388 	ld	(hl), d
                                   2389 ;E:\Dropbox\FAUSTO\SVILUPPI\MSX\CODE\C\MSXgl\projects\exsoccer/exsoccer_s2_b0.c:349: g_Players[i].Y++;
    000009D3 69               [ 4] 2390 	ld	l, c
    000009D4 60               [ 4] 2391 	ld	h, b
    000009D5 5E               [ 7] 2392 	ld	e, (hl)
    000009D6 23               [ 6] 2393 	inc	hl
    000009D7 56               [ 7] 2394 	ld	d, (hl)
    000009D8 13               [ 6] 2395 	inc	de
    000009D9 69               [ 4] 2396 	ld	l, c
    000009DA 60               [ 4] 2397 	ld	h, b
    000009DB 73               [ 7] 2398 	ld	(hl), e
    000009DC 23               [ 6] 2399 	inc	hl
    000009DD 72               [ 7] 2400 	ld	(hl), d
    000009DE C3rEDr0A         [10] 2401 	jp	00166$
    000009E1                       2402 00157$:
                                   2403 ;E:\Dropbox\FAUSTO\SVILUPPI\MSX\CODE\C\MSXgl\projects\exsoccer/exsoccer_s2_b0.c:351: else if(g_Players[i].X<g_Players[i].TargetX && g_Players[i].Y<g_Players[i].TargetY){
    000009E1 DD 7E FC         [19] 2404 	ld	a, -4 (ix)
    000009E4 B7               [ 4] 2405 	or	a, a
    000009E5 28 39            [12] 2406 	jr	Z, 00153$
    000009E7 69               [ 4] 2407 	ld	l, c
                                   2408 ;	spillPairReg hl
                                   2409 ;	spillPairReg hl
    000009E8 60               [ 4] 2410 	ld	h, b
                                   2411 ;	spillPairReg hl
                                   2412 ;	spillPairReg hl
    000009E9 C5               [11] 2413 	push	bc
    000009EA 01 0E 00         [10] 2414 	ld	bc, #0x000e
    000009ED 09               [11] 2415 	add	hl, bc
    000009EE C1               [10] 2416 	pop	bc
    000009EF 7E               [ 7] 2417 	ld	a, (hl)
    000009F0 23               [ 6] 2418 	inc	hl
    000009F1 66               [ 7] 2419 	ld	h, (hl)
                                   2420 ;	spillPairReg hl
    000009F2 6F               [ 4] 2421 	ld	l, a
                                   2422 ;	spillPairReg hl
                                   2423 ;	spillPairReg hl
    000009F3 7B               [ 4] 2424 	ld	a, e
    000009F4 95               [ 4] 2425 	sub	a, l
    000009F5 7A               [ 4] 2426 	ld	a, d
    000009F6 9C               [ 4] 2427 	sbc	a, h
    000009F7 30 27            [12] 2428 	jr	NC, 00153$
                                   2429 ;E:\Dropbox\FAUSTO\SVILUPPI\MSX\CODE\C\MSXgl\projects\exsoccer/exsoccer_s2_b0.c:352: g_Players[i].Direction=DIRECTION_DOWN_RIGHT;
    000009F9 21 0A 00         [10] 2430 	ld	hl, #0x000a
    000009FC 09               [11] 2431 	add	hl, bc
    000009FD 36 04            [10] 2432 	ld	(hl), #0x04
                                   2433 ;E:\Dropbox\FAUSTO\SVILUPPI\MSX\CODE\C\MSXgl\projects\exsoccer/exsoccer_s2_b0.c:353: g_Players[i].X++;
    000009FF DD 6E F5         [19] 2434 	ld	l, -11 (ix)
    00000A02 DD 66 F6         [19] 2435 	ld	h, -10 (ix)
    00000A05 5E               [ 7] 2436 	ld	e, (hl)
    00000A06 23               [ 6] 2437 	inc	hl
    00000A07 56               [ 7] 2438 	ld	d, (hl)
    00000A08 13               [ 6] 2439 	inc	de
    00000A09 DD 6E F5         [19] 2440 	ld	l, -11 (ix)
    00000A0C DD 66 F6         [19] 2441 	ld	h, -10 (ix)
    00000A0F 73               [ 7] 2442 	ld	(hl), e
    00000A10 23               [ 6] 2443 	inc	hl
    00000A11 72               [ 7] 2444 	ld	(hl), d
                                   2445 ;E:\Dropbox\FAUSTO\SVILUPPI\MSX\CODE\C\MSXgl\projects\exsoccer/exsoccer_s2_b0.c:354: g_Players[i].Y++;
    00000A12 69               [ 4] 2446 	ld	l, c
    00000A13 60               [ 4] 2447 	ld	h, b
    00000A14 5E               [ 7] 2448 	ld	e, (hl)
    00000A15 23               [ 6] 2449 	inc	hl
    00000A16 56               [ 7] 2450 	ld	d, (hl)
    00000A17 13               [ 6] 2451 	inc	de
    00000A18 69               [ 4] 2452 	ld	l, c
    00000A19 60               [ 4] 2453 	ld	h, b
    00000A1A 73               [ 7] 2454 	ld	(hl), e
    00000A1B 23               [ 6] 2455 	inc	hl
    00000A1C 72               [ 7] 2456 	ld	(hl), d
    00000A1D C3rEDr0A         [10] 2457 	jp	00166$
    00000A20                       2458 00153$:
                                   2459 ;E:\Dropbox\FAUSTO\SVILUPPI\MSX\CODE\C\MSXgl\projects\exsoccer/exsoccer_s2_b0.c:356: else if(g_Players[i].X==g_Players[i].TargetX && g_Players[i].Y>g_Players[i].TargetY){
    00000A20 DD 7E F8         [19] 2460 	ld	a, -8 (ix)
    00000A23 DD 96 FA         [19] 2461 	sub	a, -6 (ix)
    00000A26 20 0A            [12] 2462 	jr	NZ, 00657$
    00000A28 DD 7E F9         [19] 2463 	ld	a, -7 (ix)
    00000A2B DD 96 FB         [19] 2464 	sub	a, -5 (ix)
    00000A2E 3E 01            [ 7] 2465 	ld	a, #0x01
    00000A30 28 01            [12] 2466 	jr	Z, 00658$
    00000A32                       2467 00657$:
    00000A32 AF               [ 4] 2468 	xor	a, a
    00000A33                       2469 00658$:
    00000A33 DD 77 FE         [19] 2470 	ld	-2 (ix), a
    00000A36 B7               [ 4] 2471 	or	a, a
    00000A37 28 25            [12] 2472 	jr	Z, 00149$
    00000A39 69               [ 4] 2473 	ld	l, c
                                   2474 ;	spillPairReg hl
                                   2475 ;	spillPairReg hl
    00000A3A 60               [ 4] 2476 	ld	h, b
                                   2477 ;	spillPairReg hl
                                   2478 ;	spillPairReg hl
    00000A3B C5               [11] 2479 	push	bc
    00000A3C 01 0E 00         [10] 2480 	ld	bc, #0x000e
    00000A3F 09               [11] 2481 	add	hl, bc
    00000A40 C1               [10] 2482 	pop	bc
    00000A41 7E               [ 7] 2483 	ld	a, (hl)
    00000A42 23               [ 6] 2484 	inc	hl
    00000A43 66               [ 7] 2485 	ld	h, (hl)
                                   2486 ;	spillPairReg hl
    00000A44 6F               [ 4] 2487 	ld	l, a
                                   2488 ;	spillPairReg hl
                                   2489 ;	spillPairReg hl
    00000A45 AF               [ 4] 2490 	xor	a, a
    00000A46 ED 52            [15] 2491 	sbc	hl, de
    00000A48 30 14            [12] 2492 	jr	NC, 00149$
                                   2493 ;E:\Dropbox\FAUSTO\SVILUPPI\MSX\CODE\C\MSXgl\projects\exsoccer/exsoccer_s2_b0.c:357: g_Players[i].Direction=DIRECTION_UP;
    00000A4A 21 0A 00         [10] 2494 	ld	hl, #0x000a
    00000A4D 09               [11] 2495 	add	hl, bc
    00000A4E 36 01            [10] 2496 	ld	(hl), #0x01
                                   2497 ;E:\Dropbox\FAUSTO\SVILUPPI\MSX\CODE\C\MSXgl\projects\exsoccer/exsoccer_s2_b0.c:358: g_Players[i].Y--;
    00000A50 69               [ 4] 2498 	ld	l, c
    00000A51 60               [ 4] 2499 	ld	h, b
    00000A52 5E               [ 7] 2500 	ld	e, (hl)
    00000A53 23               [ 6] 2501 	inc	hl
    00000A54 56               [ 7] 2502 	ld	d, (hl)
    00000A55 1B               [ 6] 2503 	dec	de
    00000A56 69               [ 4] 2504 	ld	l, c
    00000A57 60               [ 4] 2505 	ld	h, b
    00000A58 73               [ 7] 2506 	ld	(hl), e
    00000A59 23               [ 6] 2507 	inc	hl
    00000A5A 72               [ 7] 2508 	ld	(hl), d
    00000A5B C3rEDr0A         [10] 2509 	jp	00166$
    00000A5E                       2510 00149$:
                                   2511 ;E:\Dropbox\FAUSTO\SVILUPPI\MSX\CODE\C\MSXgl\projects\exsoccer/exsoccer_s2_b0.c:360: else if(g_Players[i].X==g_Players[i].TargetX && g_Players[i].Y<g_Players[i].TargetY){
    00000A5E DD 7E FE         [19] 2512 	ld	a, -2 (ix)
    00000A61 B7               [ 4] 2513 	or	a, a
    00000A62 28 26            [12] 2514 	jr	Z, 00145$
    00000A64 69               [ 4] 2515 	ld	l, c
                                   2516 ;	spillPairReg hl
                                   2517 ;	spillPairReg hl
    00000A65 60               [ 4] 2518 	ld	h, b
                                   2519 ;	spillPairReg hl
                                   2520 ;	spillPairReg hl
    00000A66 C5               [11] 2521 	push	bc
    00000A67 01 0E 00         [10] 2522 	ld	bc, #0x000e
    00000A6A 09               [11] 2523 	add	hl, bc
    00000A6B C1               [10] 2524 	pop	bc
    00000A6C 7E               [ 7] 2525 	ld	a, (hl)
    00000A6D 23               [ 6] 2526 	inc	hl
    00000A6E 66               [ 7] 2527 	ld	h, (hl)
                                   2528 ;	spillPairReg hl
    00000A6F 6F               [ 4] 2529 	ld	l, a
                                   2530 ;	spillPairReg hl
                                   2531 ;	spillPairReg hl
    00000A70 7B               [ 4] 2532 	ld	a, e
    00000A71 95               [ 4] 2533 	sub	a, l
    00000A72 7A               [ 4] 2534 	ld	a, d
    00000A73 9C               [ 4] 2535 	sbc	a, h
    00000A74 30 14            [12] 2536 	jr	NC, 00145$
                                   2537 ;E:\Dropbox\FAUSTO\SVILUPPI\MSX\CODE\C\MSXgl\projects\exsoccer/exsoccer_s2_b0.c:361: g_Players[i].Direction=DIRECTION_DOWN;
    00000A76 21 0A 00         [10] 2538 	ld	hl, #0x000a
    00000A79 09               [11] 2539 	add	hl, bc
    00000A7A 36 05            [10] 2540 	ld	(hl), #0x05
                                   2541 ;E:\Dropbox\FAUSTO\SVILUPPI\MSX\CODE\C\MSXgl\projects\exsoccer/exsoccer_s2_b0.c:362: g_Players[i].Y++;
    00000A7C 69               [ 4] 2542 	ld	l, c
    00000A7D 60               [ 4] 2543 	ld	h, b
    00000A7E 5E               [ 7] 2544 	ld	e, (hl)
    00000A7F 23               [ 6] 2545 	inc	hl
    00000A80 56               [ 7] 2546 	ld	d, (hl)
    00000A81 13               [ 6] 2547 	inc	de
    00000A82 69               [ 4] 2548 	ld	l, c
    00000A83 60               [ 4] 2549 	ld	h, b
    00000A84 73               [ 7] 2550 	ld	(hl), e
    00000A85 23               [ 6] 2551 	inc	hl
    00000A86 72               [ 7] 2552 	ld	(hl), d
    00000A87 C3rEDr0A         [10] 2553 	jp	00166$
    00000A8A                       2554 00145$:
                                   2555 ;E:\Dropbox\FAUSTO\SVILUPPI\MSX\CODE\C\MSXgl\projects\exsoccer/exsoccer_s2_b0.c:364: else if(g_Players[i].X<g_Players[i].TargetX && g_Players[i].Y==g_Players[i].TargetY){
    00000A8A DD 7E FC         [19] 2556 	ld	a, -4 (ix)
    00000A8D B7               [ 4] 2557 	or	a, a
    00000A8E 28 2D            [12] 2558 	jr	Z, 00141$
    00000A90 69               [ 4] 2559 	ld	l, c
                                   2560 ;	spillPairReg hl
                                   2561 ;	spillPairReg hl
    00000A91 60               [ 4] 2562 	ld	h, b
                                   2563 ;	spillPairReg hl
                                   2564 ;	spillPairReg hl
    00000A92 C5               [11] 2565 	push	bc
    00000A93 01 0E 00         [10] 2566 	ld	bc, #0x000e
    00000A96 09               [11] 2567 	add	hl, bc
    00000A97 C1               [10] 2568 	pop	bc
    00000A98 7E               [ 7] 2569 	ld	a, (hl)
    00000A99 23               [ 6] 2570 	inc	hl
    00000A9A 66               [ 7] 2571 	ld	h, (hl)
                                   2572 ;	spillPairReg hl
    00000A9B 6F               [ 4] 2573 	ld	l, a
                                   2574 ;	spillPairReg hl
                                   2575 ;	spillPairReg hl
    00000A9C BF               [ 4] 2576 	cp	a, a
    00000A9D ED 52            [15] 2577 	sbc	hl, de
    00000A9F 20 1C            [12] 2578 	jr	NZ, 00141$
                                   2579 ;E:\Dropbox\FAUSTO\SVILUPPI\MSX\CODE\C\MSXgl\projects\exsoccer/exsoccer_s2_b0.c:365: g_Players[i].Direction=DIRECTION_RIGHT;
    00000AA1 21 0A 00         [10] 2580 	ld	hl, #0x000a
    00000AA4 09               [11] 2581 	add	hl, bc
    00000AA5 36 03            [10] 2582 	ld	(hl), #0x03
                                   2583 ;E:\Dropbox\FAUSTO\SVILUPPI\MSX\CODE\C\MSXgl\projects\exsoccer/exsoccer_s2_b0.c:366: g_Players[i].X++;
    00000AA7 DD 6E F5         [19] 2584 	ld	l, -11 (ix)
    00000AAA DD 66 F6         [19] 2585 	ld	h, -10 (ix)
    00000AAD 5E               [ 7] 2586 	ld	e, (hl)
    00000AAE 23               [ 6] 2587 	inc	hl
    00000AAF 56               [ 7] 2588 	ld	d, (hl)
    00000AB0 13               [ 6] 2589 	inc	de
    00000AB1 DD 6E F5         [19] 2590 	ld	l, -11 (ix)
    00000AB4 DD 66 F6         [19] 2591 	ld	h, -10 (ix)
    00000AB7 73               [ 7] 2592 	ld	(hl), e
    00000AB8 23               [ 6] 2593 	inc	hl
    00000AB9 72               [ 7] 2594 	ld	(hl), d
    00000ABA C3rEDr0A         [10] 2595 	jp	00166$
    00000ABD                       2596 00141$:
                                   2597 ;E:\Dropbox\FAUSTO\SVILUPPI\MSX\CODE\C\MSXgl\projects\exsoccer/exsoccer_s2_b0.c:368: else if(g_Players[i].X>g_Players[i].TargetX && g_Players[i].Y==g_Players[i].TargetY){
    00000ABD DD 7E FD         [19] 2598 	ld	a, -3 (ix)
    00000AC0 B7               [ 4] 2599 	or	a, a
    00000AC1 28 2A            [12] 2600 	jr	Z, 00166$
    00000AC3 69               [ 4] 2601 	ld	l, c
                                   2602 ;	spillPairReg hl
                                   2603 ;	spillPairReg hl
    00000AC4 60               [ 4] 2604 	ld	h, b
                                   2605 ;	spillPairReg hl
                                   2606 ;	spillPairReg hl
    00000AC5 C5               [11] 2607 	push	bc
    00000AC6 01 0E 00         [10] 2608 	ld	bc, #0x000e
    00000AC9 09               [11] 2609 	add	hl, bc
    00000ACA C1               [10] 2610 	pop	bc
    00000ACB 7E               [ 7] 2611 	ld	a, (hl)
    00000ACC 23               [ 6] 2612 	inc	hl
    00000ACD 66               [ 7] 2613 	ld	h, (hl)
                                   2614 ;	spillPairReg hl
    00000ACE 6F               [ 4] 2615 	ld	l, a
                                   2616 ;	spillPairReg hl
                                   2617 ;	spillPairReg hl
    00000ACF BF               [ 4] 2618 	cp	a, a
    00000AD0 ED 52            [15] 2619 	sbc	hl, de
    00000AD2 20 19            [12] 2620 	jr	NZ, 00166$
                                   2621 ;E:\Dropbox\FAUSTO\SVILUPPI\MSX\CODE\C\MSXgl\projects\exsoccer/exsoccer_s2_b0.c:369: g_Players[i].Direction=DIRECTION_LEFT;
    00000AD4 21 0A 00         [10] 2622 	ld	hl, #0x000a
    00000AD7 09               [11] 2623 	add	hl, bc
    00000AD8 36 07            [10] 2624 	ld	(hl), #0x07
                                   2625 ;E:\Dropbox\FAUSTO\SVILUPPI\MSX\CODE\C\MSXgl\projects\exsoccer/exsoccer_s2_b0.c:370: g_Players[i].X--;
    00000ADA DD 6E F5         [19] 2626 	ld	l, -11 (ix)
    00000ADD DD 66 F6         [19] 2627 	ld	h, -10 (ix)
    00000AE0 5E               [ 7] 2628 	ld	e, (hl)
    00000AE1 23               [ 6] 2629 	inc	hl
    00000AE2 56               [ 7] 2630 	ld	d, (hl)
    00000AE3 1B               [ 6] 2631 	dec	de
    00000AE4 DD 6E F5         [19] 2632 	ld	l, -11 (ix)
    00000AE7 DD 66 F6         [19] 2633 	ld	h, -10 (ix)
    00000AEA 73               [ 7] 2634 	ld	(hl), e
    00000AEB 23               [ 6] 2635 	inc	hl
    00000AEC 72               [ 7] 2636 	ld	(hl), d
    00000AED                       2637 00166$:
                                   2638 ;E:\Dropbox\FAUSTO\SVILUPPI\MSX\CODE\C\MSXgl\projects\exsoccer/exsoccer_s2_b0.c:374: if(g_Players[i].Y < FIELD_BOUND_Y_TOP) g_Players[i].Y = FIELD_BOUND_Y_TOP;
    00000AED 69               [ 4] 2639 	ld	l, c
    00000AEE 60               [ 4] 2640 	ld	h, b
    00000AEF 5E               [ 7] 2641 	ld	e, (hl)
    00000AF0 23               [ 6] 2642 	inc	hl
    00000AF1 56               [ 7] 2643 	ld	d, (hl)
    00000AF2 7B               [ 4] 2644 	ld	a, e
    00000AF3 D6 32            [ 7] 2645 	sub	a, #0x32
    00000AF5 7A               [ 4] 2646 	ld	a, d
    00000AF6 DE 00            [ 7] 2647 	sbc	a, #0x00
    00000AF8 30 07            [12] 2648 	jr	NC, 00169$
    00000AFA 69               [ 4] 2649 	ld	l, c
    00000AFB 60               [ 4] 2650 	ld	h, b
    00000AFC 36 32            [10] 2651 	ld	(hl), #0x32
    00000AFE 23               [ 6] 2652 	inc	hl
    00000AFF 36 00            [10] 2653 	ld	(hl), #0x00
    00000B01                       2654 00169$:
                                   2655 ;E:\Dropbox\FAUSTO\SVILUPPI\MSX\CODE\C\MSXgl\projects\exsoccer/exsoccer_s2_b0.c:375: if(g_Players[i].Y > FIELD_BOUND_Y_BOTTOM) g_Players[i].Y = FIELD_BOUND_Y_BOTTOM;
    00000B01 69               [ 4] 2656 	ld	l, c
    00000B02 60               [ 4] 2657 	ld	h, b
    00000B03 5E               [ 7] 2658 	ld	e, (hl)
    00000B04 23               [ 6] 2659 	inc	hl
    00000B05 56               [ 7] 2660 	ld	d, (hl)
    00000B06 3E AE            [ 7] 2661 	ld	a, #0xae
    00000B08 BB               [ 4] 2662 	cp	a, e
    00000B09 3E 01            [ 7] 2663 	ld	a, #0x01
    00000B0B 9A               [ 4] 2664 	sbc	a, d
    00000B0C 30 07            [12] 2665 	jr	NC, 00171$
    00000B0E 69               [ 4] 2666 	ld	l, c
    00000B0F 60               [ 4] 2667 	ld	h, b
    00000B10 36 AE            [10] 2668 	ld	(hl), #0xae
    00000B12 23               [ 6] 2669 	inc	hl
    00000B13 36 01            [10] 2670 	ld	(hl), #0x01
    00000B15                       2671 00171$:
                                   2672 ;E:\Dropbox\FAUSTO\SVILUPPI\MSX\CODE\C\MSXgl\projects\exsoccer/exsoccer_s2_b0.c:376: if(g_Players[i].X < FIELD_BOUND_X_LEFT) g_Players[i].X = FIELD_BOUND_X_LEFT;
    00000B15 DD 6E F5         [19] 2673 	ld	l, -11 (ix)
    00000B18 DD 66 F6         [19] 2674 	ld	h, -10 (ix)
    00000B1B 5E               [ 7] 2675 	ld	e, (hl)
    00000B1C 23               [ 6] 2676 	inc	hl
    00000B1D 56               [ 7] 2677 	ld	d, (hl)
    00000B1E 7B               [ 4] 2678 	ld	a, e
    00000B1F D6 0A            [ 7] 2679 	sub	a, #0x0a
    00000B21 7A               [ 4] 2680 	ld	a, d
    00000B22 DE 00            [ 7] 2681 	sbc	a, #0x00
    00000B24 30 09            [12] 2682 	jr	NC, 00173$
    00000B26 D1               [10] 2683 	pop	de
    00000B27 E1               [10] 2684 	pop	hl
    00000B28 E5               [11] 2685 	push	hl
    00000B29 D5               [11] 2686 	push	de
    00000B2A 36 0A            [10] 2687 	ld	(hl), #0x0a
    00000B2C 23               [ 6] 2688 	inc	hl
    00000B2D 36 00            [10] 2689 	ld	(hl), #0x00
    00000B2F                       2690 00173$:
                                   2691 ;E:\Dropbox\FAUSTO\SVILUPPI\MSX\CODE\C\MSXgl\projects\exsoccer/exsoccer_s2_b0.c:377: if(g_Players[i].X > FIELD_BOUND_X_RIGHT) g_Players[i].X = FIELD_BOUND_X_RIGHT;
    00000B2F DD 6E F5         [19] 2692 	ld	l, -11 (ix)
    00000B32 DD 66 F6         [19] 2693 	ld	h, -10 (ix)
    00000B35 5E               [ 7] 2694 	ld	e, (hl)
    00000B36 23               [ 6] 2695 	inc	hl
    00000B37 56               [ 7] 2696 	ld	d, (hl)
    00000B38 3E F6            [ 7] 2697 	ld	a, #0xf6
    00000B3A BB               [ 4] 2698 	cp	a, e
    00000B3B 3E 00            [ 7] 2699 	ld	a, #0x00
    00000B3D 9A               [ 4] 2700 	sbc	a, d
    00000B3E 30 09            [12] 2701 	jr	NC, 00177$
    00000B40 D1               [10] 2702 	pop	de
    00000B41 E1               [10] 2703 	pop	hl
    00000B42 E5               [11] 2704 	push	hl
    00000B43 D5               [11] 2705 	push	de
    00000B44 36 F6            [10] 2706 	ld	(hl), #0xf6
    00000B46 23               [ 6] 2707 	inc	hl
    00000B47 36 00            [10] 2708 	ld	(hl), #0x00
    00000B49                       2709 00177$:
                                   2710 ;E:\Dropbox\FAUSTO\SVILUPPI\MSX\CODE\C\MSXgl\projects\exsoccer/exsoccer_s2_b0.c:285: if (g_MatchStatus == MATCH_IN_ACTION && g_Players[i].Role == PLAYER_ROLE_GOALKEEPER) {
    00000B49 3Ar00r00         [13] 2711 	ld	a, (_g_MatchStatus+0)
    00000B4C D6 0C            [ 7] 2712 	sub	a, #0x0c
    00000B4E 3E 01            [ 7] 2713 	ld	a, #0x01
    00000B50 28 01            [12] 2714 	jr	Z, 00664$
    00000B52 AF               [ 4] 2715 	xor	a, a
    00000B53                       2716 00664$:
                                   2717 ;E:\Dropbox\FAUSTO\SVILUPPI\MSX\CODE\C\MSXgl\projects\exsoccer/exsoccer_s2_b0.c:381: if (g_MatchStatus == MATCH_IN_ACTION || (isSetPieceSetup && g_Ball.PossessionPlayerId == i)) {
    00000B53 5F               [ 4] 2718 	ld	e, a
    00000B54 B7               [ 4] 2719 	or	a, a
    00000B55 20 10            [12] 2720 	jr	NZ, 00188$
    00000B57 DD 7E F4         [19] 2721 	ld	a, -12 (ix)
    00000B5A B7               [ 4] 2722 	or	a, a
    00000B5B 28 3B            [12] 2723 	jr	Z, 00189$
    00000B5D 21r06r00         [10] 2724 	ld	hl, #(_g_Ball + 6)
    00000B60 56               [ 7] 2725 	ld	d, (hl)
    00000B61 DD 7E FF         [19] 2726 	ld	a, -1 (ix)
    00000B64 92               [ 4] 2727 	sub	a, d
    00000B65 20 31            [12] 2728 	jr	NZ, 00189$
    00000B67                       2729 00188$:
                                   2730 ;E:\Dropbox\FAUSTO\SVILUPPI\MSX\CODE\C\MSXgl\projects\exsoccer/exsoccer_s2_b0.c:382: if (g_Ball.PossessionPlayerId == i) {
    00000B67 21r06r00         [10] 2731 	ld	hl, #(_g_Ball + 6)
    00000B6A 56               [ 7] 2732 	ld	d, (hl)
    00000B6B DD 7E FF         [19] 2733 	ld	a, -1 (ix)
    00000B6E 92               [ 4] 2734 	sub	a, d
    00000B6F 20 27            [12] 2735 	jr	NZ, 00189$
                                   2736 ;E:\Dropbox\FAUSTO\SVILUPPI\MSX\CODE\C\MSXgl\projects\exsoccer/exsoccer_s2_b0.c:385: if (g_Ball.KickMoveState == NO_VALUE) g_Ball.KickMoveState = 0;
    00000B71 21r0Dr00         [10] 2737 	ld	hl, #_g_Ball + 13
                                   2738 ;E:\Dropbox\FAUSTO\SVILUPPI\MSX\CODE\C\MSXgl\projects\exsoccer/exsoccer_s2_b0.c:384: if (!playerInPosition && g_MatchStatus == MATCH_IN_ACTION) {
    00000B74 DD 7E F7         [19] 2739 	ld	a, -9 (ix)
    00000B77 B7               [ 4] 2740 	or	a,a
    00000B78 20 14            [12] 2741 	jr	NZ, 00183$
    00000B7A B3               [ 4] 2742 	or	a,e
    00000B7B 28 11            [12] 2743 	jr	Z, 00183$
                                   2744 ;E:\Dropbox\FAUSTO\SVILUPPI\MSX\CODE\C\MSXgl\projects\exsoccer/exsoccer_s2_b0.c:385: if (g_Ball.KickMoveState == NO_VALUE) g_Ball.KickMoveState = 0;
    00000B7D 7E               [ 7] 2745 	ld	a, (hl)
    00000B7E 3C               [ 4] 2746 	inc	a
    00000B7F 20 01            [12] 2747 	jr	NZ, 00179$
    00000B81 77               [ 7] 2748 	ld	(hl),a
    00000B82                       2749 00179$:
                                   2750 ;E:\Dropbox\FAUSTO\SVILUPPI\MSX\CODE\C\MSXgl\projects\exsoccer/exsoccer_s2_b0.c:386: g_Ball.KickMoveState++;
    00000B82 34               [11] 2751 	inc	(hl)
    00000B83 5E               [ 7] 2752 	ld	e, (hl)
                                   2753 ;E:\Dropbox\FAUSTO\SVILUPPI\MSX\CODE\C\MSXgl\projects\exsoccer/exsoccer_s2_b0.c:387: if (g_Ball.KickMoveState > 3) g_Ball.KickMoveState = 0;
    00000B84 3E 03            [ 7] 2754 	ld	a, #0x03
    00000B86 93               [ 4] 2755 	sub	a, e
    00000B87 30 07            [12] 2756 	jr	NC, 00184$
    00000B89 36 00            [10] 2757 	ld	(hl), #0x00
    00000B8B C3r90r0B         [10] 2758 	jp	00184$
    00000B8E                       2759 00183$:
                                   2760 ;E:\Dropbox\FAUSTO\SVILUPPI\MSX\CODE\C\MSXgl\projects\exsoccer/exsoccer_s2_b0.c:389: g_Ball.KickMoveState = 0;
    00000B8E 36 00            [10] 2761 	ld	(hl), #0x00
    00000B90                       2762 00184$:
                                   2763 ;E:\Dropbox\FAUSTO\SVILUPPI\MSX\CODE\C\MSXgl\projects\exsoccer/exsoccer_s2_b0.c:391: PutBallOnPlayerFeet(i);
    00000B90 C5               [11] 2764 	push	bc
    00000B91 DD 7E FF         [19] 2765 	ld	a, -1 (ix)
    00000B94 CDr00r00         [17] 2766 	call	_PutBallOnPlayerFeet
    00000B97 C1               [10] 2767 	pop	bc
    00000B98                       2768 00189$:
                                   2769 ;E:\Dropbox\FAUSTO\SVILUPPI\MSX\CODE\C\MSXgl\projects\exsoccer/exsoccer_s2_b0.c:395: if (playerInPosition) {
    00000B98 DD 7E F7         [19] 2770 	ld	a, -9 (ix)
    00000B9B B7               [ 4] 2771 	or	a, a
    00000B9C CArD1r0C         [10] 2772 	jp	Z, 00231$
                                   2773 ;E:\Dropbox\FAUSTO\SVILUPPI\MSX\CODE\C\MSXgl\projects\exsoccer/exsoccer_s2_b0.c:397: if (g_MatchStatus == MATCH_BEFORE_CORNER_KICK || g_MatchStatus == MATCH_BEFORE_GOAL_KICK || 
    00000B9F 3Ar00r00         [13] 2774 	ld	a,(_g_MatchStatus+0)
    00000BA2 FE 02            [ 7] 2775 	cp	a,#0x02
    00000BA4 28 0C            [12] 2776 	jr	Z, 00202$
                                   2777 ;E:\Dropbox\FAUSTO\SVILUPPI\MSX\CODE\C\MSXgl\projects\exsoccer/exsoccer_s2_b0.c:398: g_MatchStatus == MATCH_BEFORE_OFFSIDE || g_MatchStatus == MATCH_BEFORE_THROW_IN) {
    00000BA6 FE 05            [ 7] 2778 	cp	a,#0x05
    00000BA8 28 08            [12] 2779 	jr	Z, 00202$
    00000BAA FE 0E            [ 7] 2780 	cp	a,#0x0e
    00000BAC 28 04            [12] 2781 	jr	Z, 00202$
    00000BAE D6 03            [ 7] 2782 	sub	a, #0x03
    00000BB0 20 4E            [12] 2783 	jr	NZ, 00203$
    00000BB2                       2784 00202$:
                                   2785 ;E:\Dropbox\FAUSTO\SVILUPPI\MSX\CODE\C\MSXgl\projects\exsoccer/exsoccer_s2_b0.c:399: if (g_Players[i].Status != PLAYER_STATUS_POSITIONED) {
    00000BB2 21 12 00         [10] 2786 	ld	hl, #0x0012
    00000BB5 09               [11] 2787 	add	hl, bc
    00000BB6 5E               [ 7] 2788 	ld	e, (hl)
    00000BB7 23               [ 6] 2789 	inc	hl
    00000BB8 56               [ 7] 2790 	ld	d, (hl)
    00000BB9 2B               [ 6] 2791 	dec	hl
    00000BBA 7B               [ 4] 2792 	ld	a, e
    00000BBB D6 04            [ 7] 2793 	sub	a, #0x04
    00000BBD B2               [ 4] 2794 	or	a, d
    00000BBE 28 40            [12] 2795 	jr	Z, 00203$
                                   2796 ;E:\Dropbox\FAUSTO\SVILUPPI\MSX\CODE\C\MSXgl\projects\exsoccer/exsoccer_s2_b0.c:400: g_Players[i].Status = PLAYER_STATUS_POSITIONED;
    00000BC0 36 04            [10] 2797 	ld	(hl), #0x04
    00000BC2 23               [ 6] 2798 	inc	hl
    00000BC3 36 00            [10] 2799 	ld	(hl), #0x00
                                   2800 ;E:\Dropbox\FAUSTO\SVILUPPI\MSX\CODE\C\MSXgl\projects\exsoccer/exsoccer_s2_b0.c:401: g_Players[i].Direction = DIRECTION_NONE;
    00000BC5 21 0A 00         [10] 2801 	ld	hl, #0x000a
    00000BC8 09               [11] 2802 	add	hl, bc
    00000BC9 36 00            [10] 2803 	ld	(hl), #0x00
                                   2804 ;E:\Dropbox\FAUSTO\SVILUPPI\MSX\CODE\C\MSXgl\projects\exsoccer/exsoccer_s2_b0.c:402: u8 useDir = g_Players[i].PreviousDirection;
    00000BCB C5               [11] 2805 	push	bc
    00000BCC FD E1            [14] 2806 	pop	iy
    00000BCE FD 7E 0B         [19] 2807 	ld	a, 11 (iy)
    00000BD1 5F               [ 4] 2808 	ld	e, a
                                   2809 ;E:\Dropbox\FAUSTO\SVILUPPI\MSX\CODE\C\MSXgl\projects\exsoccer/exsoccer_s2_b0.c:403: if (useDir == DIRECTION_NONE) {
    00000BD2 B7               [ 4] 2810 	or	a, a
    00000BD3 20 1E            [12] 2811 	jr	NZ, 00199$
                                   2812 ;E:\Dropbox\FAUSTO\SVILUPPI\MSX\CODE\C\MSXgl\projects\exsoccer/exsoccer_s2_b0.c:405: if(g_MatchStatus == MATCH_BEFORE_THROW_IN) {
    00000BD5 3Ar00r00         [13] 2813 	ld	a, (_g_MatchStatus+0)
    00000BD8 D6 03            [ 7] 2814 	sub	a, #0x03
    00000BDA 20 15            [12] 2815 	jr	NZ, 00196$
                                   2816 ;E:\Dropbox\FAUSTO\SVILUPPI\MSX\CODE\C\MSXgl\projects\exsoccer/exsoccer_s2_b0.c:407: if(g_Ball.X < 128) useDir = DIRECTION_RIGHT; else useDir = DIRECTION_LEFT;
    00000BDC 2Ar02r00         [16] 2817 	ld	hl, (#(_g_Ball + 2) + 0)
    00000BDF 11 80 00         [10] 2818 	ld	de, #0x0080
    00000BE2 BF               [ 4] 2819 	cp	a, a
    00000BE3 ED 52            [15] 2820 	sbc	hl, de
    00000BE5 30 05            [12] 2821 	jr	NC, 00193$
    00000BE7 1E 03            [ 7] 2822 	ld	e, #0x03
    00000BE9 C3rF3r0B         [10] 2823 	jp	00199$
    00000BEC                       2824 00193$:
    00000BEC 1E 07            [ 7] 2825 	ld	e, #0x07
    00000BEE C3rF3r0B         [10] 2826 	jp	00199$
    00000BF1                       2827 00196$:
                                   2828 ;E:\Dropbox\FAUSTO\SVILUPPI\MSX\CODE\C\MSXgl\projects\exsoccer/exsoccer_s2_b0.c:409: useDir = DIRECTION_DOWN; 
    00000BF1 1E 05            [ 7] 2829 	ld	e, #0x05
    00000BF3                       2830 00199$:
                                   2831 ;E:\Dropbox\FAUSTO\SVILUPPI\MSX\CODE\C\MSXgl\projects\exsoccer/exsoccer_s2_b0.c:412: g_Players[i].PatternId = GetNoMovingPlayerPatternId(useDir);
    00000BF3 21 08 00         [10] 2832 	ld	hl, #0x0008
    00000BF6 09               [11] 2833 	add	hl, bc
    00000BF7 E5               [11] 2834 	push	hl
    00000BF8 C5               [11] 2835 	push	bc
    00000BF9 7B               [ 4] 2836 	ld	a, e
    00000BFA CDr00r00         [17] 2837 	call	_GetNoMovingPlayerPatternId
    00000BFD C1               [10] 2838 	pop	bc
    00000BFE E1               [10] 2839 	pop	hl
    00000BFF 77               [ 7] 2840 	ld	(hl), a
    00000C00                       2841 00203$:
                                   2842 ;E:\Dropbox\FAUSTO\SVILUPPI\MSX\CODE\C\MSXgl\projects\exsoccer/exsoccer_s2_b0.c:416: if(g_MatchStatus==MATCH_IN_ACTION){
    00000C00 3Ar00r00         [13] 2843 	ld	a, (_g_MatchStatus+0)
    00000C03 D6 0C            [ 7] 2844 	sub	a, #0x0c
    00000C05 20 09            [12] 2845 	jr	NZ, 00208$
                                   2846 ;E:\Dropbox\FAUSTO\SVILUPPI\MSX\CODE\C\MSXgl\projects\exsoccer/exsoccer_s2_b0.c:417: g_Players[i].Status=PLAYER_STATUS_POSITIONED;
    00000C07 21 12 00         [10] 2847 	ld	hl, #0x0012
    00000C0A 09               [11] 2848 	add	hl, bc
    00000C0B 36 04            [10] 2849 	ld	(hl), #0x04
    00000C0D 23               [ 6] 2850 	inc	hl
    00000C0E 36 00            [10] 2851 	ld	(hl), #0x00
    00000C10                       2852 00208$:
                                   2853 ;E:\Dropbox\FAUSTO\SVILUPPI\MSX\CODE\C\MSXgl\projects\exsoccer/exsoccer_s2_b0.c:420: if (g_Players[i].TeamId == REFEREE) {
    00000C10 21 09 00         [10] 2854 	ld	hl, #0x0009
    00000C13 09               [11] 2855 	add	hl, bc
    00000C14 EB               [ 4] 2856 	ex	de, hl
    00000C15 1A               [ 7] 2857 	ld	a, (de)
    00000C16 D6 0E            [ 7] 2858 	sub	a, #0x0e
    00000C18 20 2C            [12] 2859 	jr	NZ, 00213$
                                   2860 ;E:\Dropbox\FAUSTO\SVILUPPI\MSX\CODE\C\MSXgl\projects\exsoccer/exsoccer_s2_b0.c:421: if(g_MatchStatus == MATCH_BEFORE_KICK_OFF || g_MatchStatus == MATCH_AFTER_IN_GOAL) {
    00000C1A 3Ar00r00         [13] 2861 	ld	a, (_g_MatchStatus+0)
    00000C1D 3D               [ 4] 2862 	dec	a
    00000C1E 28 07            [12] 2863 	jr	Z, 00209$
    00000C20 3Ar00r00         [13] 2864 	ld	a, (_g_MatchStatus+0)
    00000C23 D6 06            [ 7] 2865 	sub	a, #0x06
    00000C25 20 1F            [12] 2866 	jr	NZ, 00213$
    00000C27                       2867 00209$:
                                   2868 ;E:\Dropbox\FAUSTO\SVILUPPI\MSX\CODE\C\MSXgl\projects\exsoccer/exsoccer_s2_b0.c:422: g_Players[i].Direction = DIRECTION_DOWN;
    00000C27 21 0A 00         [10] 2869 	ld	hl, #0x000a
    00000C2A 09               [11] 2870 	add	hl, bc
    00000C2B 36 05            [10] 2871 	ld	(hl), #0x05
                                   2872 ;E:\Dropbox\FAUSTO\SVILUPPI\MSX\CODE\C\MSXgl\projects\exsoccer/exsoccer_s2_b0.c:423: g_Players[i].PatternId = PLAYER_POSE_FRONT;
    00000C2D 21 08 00         [10] 2873 	ld	hl, #0x0008
    00000C30 09               [11] 2874 	add	hl, bc
    00000C31 36 10            [10] 2875 	ld	(hl), #0x10
                                   2876 ;E:\Dropbox\FAUSTO\SVILUPPI\MSX\CODE\C\MSXgl\projects\exsoccer/exsoccer_s2_b0.c:424: g_Players[i].Status = PLAYER_STATUS_POSITIONED;
    00000C33 21 12 00         [10] 2877 	ld	hl, #0x0012
    00000C36 09               [11] 2878 	add	hl, bc
    00000C37 36 04            [10] 2879 	ld	(hl), #0x04
    00000C39 23               [ 6] 2880 	inc	hl
    00000C3A 36 00            [10] 2881 	ld	(hl), #0x00
                                   2882 ;E:\Dropbox\FAUSTO\SVILUPPI\MSX\CODE\C\MSXgl\projects\exsoccer/exsoccer_s2_b0.c:425: PutPlayerSprite(i);
    00000C3C C5               [11] 2883 	push	bc
    00000C3D D5               [11] 2884 	push	de
    00000C3E DD 7E FF         [19] 2885 	ld	a, -1 (ix)
    00000C41 CDr9Fr03         [17] 2886 	call	_PutPlayerSprite
    00000C44 D1               [10] 2887 	pop	de
    00000C45 C1               [10] 2888 	pop	bc
    00000C46                       2889 00213$:
                                   2890 ;E:\Dropbox\FAUSTO\SVILUPPI\MSX\CODE\C\MSXgl\projects\exsoccer/exsoccer_s2_b0.c:432: if(g_MatchStatus==MATCH_BEFORE_KICK_OFF){
    00000C46 3Ar00r00         [13] 2891 	ld	a, (_g_MatchStatus+0)
    00000C49 3D               [ 4] 2892 	dec	a
    00000C4A C2rD1r0C         [10] 2893 	jp	NZ,00231$
                                   2894 ;E:\Dropbox\FAUSTO\SVILUPPI\MSX\CODE\C\MSXgl\projects\exsoccer/exsoccer_s2_b0.c:434: if(g_Players[i].TeamId!=REFEREE && g_Players[i].PatternId!=PLAYER_POSE_BACK && g_Players[i].PatternId!=PLAYER_POSE_FRONT){
    00000C4D 1A               [ 7] 2895 	ld	a, (de)
    00000C4E D6 0E            [ 7] 2896 	sub	a, #0x0e
    00000C50 CArD1r0C         [10] 2897 	jp	Z,00231$
    00000C53 21 08 00         [10] 2898 	ld	hl, #0x0008
    00000C56 09               [11] 2899 	add	hl, bc
    00000C57 DD 75 FB         [19] 2900 	ld	-5 (ix), l
    00000C5A DD 74 FC         [19] 2901 	ld	-4 (ix), h
    00000C5D 7E               [ 7] 2902 	ld	a, (hl)
    00000C5E FE 11            [ 7] 2903 	cp	a, #0x11
    00000C60 28 6F            [12] 2904 	jr	Z, 00231$
    00000C62 D6 10            [ 7] 2905 	sub	a, #0x10
    00000C64 28 6B            [12] 2906 	jr	Z, 00231$
                                   2907 ;E:\Dropbox\FAUSTO\SVILUPPI\MSX\CODE\C\MSXgl\projects\exsoccer/exsoccer_s2_b0.c:435: g_Players[i].Status=PLAYER_STATUS_POSITIONED;
    00000C66 21 12 00         [10] 2908 	ld	hl, #0x0012
    00000C69 09               [11] 2909 	add	hl, bc
    00000C6A 36 04            [10] 2910 	ld	(hl), #0x04
    00000C6C 23               [ 6] 2911 	inc	hl
    00000C6D 36 00            [10] 2912 	ld	(hl), #0x00
                                   2913 ;E:\Dropbox\FAUSTO\SVILUPPI\MSX\CODE\C\MSXgl\projects\exsoccer/exsoccer_s2_b0.c:337: g_Players[i].Direction=DIRECTION_UP_RIGHT;
    00000C6F 21 0A 00         [10] 2914 	ld	hl, #0x000a
    00000C72 09               [11] 2915 	add	hl, bc
    00000C73 DD 75 FD         [19] 2916 	ld	-3 (ix), l
    00000C76 DD 74 FE         [19] 2917 	ld	-2 (ix), h
                                   2918 ;E:\Dropbox\FAUSTO\SVILUPPI\MSX\CODE\C\MSXgl\projects\exsoccer/exsoccer_s2_b0.c:420: if (g_Players[i].TeamId == REFEREE) {
    00000C79 1A               [ 7] 2919 	ld	a, (de)
                                   2920 ;E:\Dropbox\FAUSTO\SVILUPPI\MSX\CODE\C\MSXgl\projects\exsoccer/exsoccer_s2_b0.c:438: if(g_Players[i].TeamId==TEAM_1){
    00000C7A 3D               [ 4] 2921 	dec	a
    00000C7B 3E 01            [ 7] 2922 	ld	a, #0x01
    00000C7D 28 01            [12] 2923 	jr	Z, 00692$
    00000C7F AF               [ 4] 2924 	xor	a, a
    00000C80                       2925 00692$:
    00000C80 4F               [ 4] 2926 	ld	c, a
                                   2927 ;E:\Dropbox\FAUSTO\SVILUPPI\MSX\CODE\C\MSXgl\projects\exsoccer/exsoccer_s2_b0.c:437: if (i != g_GoalScorerId) {
    00000C81 DD 7E FF         [19] 2928 	ld	a, -1 (ix)
    00000C84 21r00r00         [10] 2929 	ld	hl, #_g_GoalScorerId
    00000C87 96               [ 7] 2930 	sub	a, (hl)
    00000C88 28 2A            [12] 2931 	jr	Z, 00221$
                                   2932 ;E:\Dropbox\FAUSTO\SVILUPPI\MSX\CODE\C\MSXgl\projects\exsoccer/exsoccer_s2_b0.c:438: if(g_Players[i].TeamId==TEAM_1){
    00000C8A 79               [ 4] 2933 	ld	a, c
    00000C8B B7               [ 4] 2934 	or	a, a
    00000C8C 28 13            [12] 2935 	jr	Z, 00215$
                                   2936 ;E:\Dropbox\FAUSTO\SVILUPPI\MSX\CODE\C\MSXgl\projects\exsoccer/exsoccer_s2_b0.c:439: g_Players[i].PatternId=PLAYER_POSE_BACK;
    00000C8E DD 6E FB         [19] 2937 	ld	l, -5 (ix)
    00000C91 DD 66 FC         [19] 2938 	ld	h, -4 (ix)
    00000C94 36 11            [10] 2939 	ld	(hl), #0x11
                                   2940 ;E:\Dropbox\FAUSTO\SVILUPPI\MSX\CODE\C\MSXgl\projects\exsoccer/exsoccer_s2_b0.c:440: g_Players[i].Direction=DIRECTION_UP;
    00000C96 DD 6E FD         [19] 2941 	ld	l, -3 (ix)
    00000C99 DD 66 FE         [19] 2942 	ld	h, -2 (ix)
    00000C9C 36 01            [10] 2943 	ld	(hl), #0x01
    00000C9E C3rCBr0C         [10] 2944 	jp	00222$
    00000CA1                       2945 00215$:
                                   2946 ;E:\Dropbox\FAUSTO\SVILUPPI\MSX\CODE\C\MSXgl\projects\exsoccer/exsoccer_s2_b0.c:443: g_Players[i].PatternId=PLAYER_POSE_FRONT;
    00000CA1 DD 6E FB         [19] 2947 	ld	l, -5 (ix)
    00000CA4 DD 66 FC         [19] 2948 	ld	h, -4 (ix)
    00000CA7 36 10            [10] 2949 	ld	(hl), #0x10
                                   2950 ;E:\Dropbox\FAUSTO\SVILUPPI\MSX\CODE\C\MSXgl\projects\exsoccer/exsoccer_s2_b0.c:444: g_Players[i].Direction=DIRECTION_DOWN;
    00000CA9 DD 6E FD         [19] 2951 	ld	l, -3 (ix)
    00000CAC DD 66 FE         [19] 2952 	ld	h, -2 (ix)
    00000CAF 36 05            [10] 2953 	ld	(hl), #0x05
    00000CB1 C3rCBr0C         [10] 2954 	jp	00222$
    00000CB4                       2955 00221$:
                                   2956 ;E:\Dropbox\FAUSTO\SVILUPPI\MSX\CODE\C\MSXgl\projects\exsoccer/exsoccer_s2_b0.c:450: if(g_Players[i].TeamId==TEAM_1) g_Players[i].Direction=DIRECTION_UP;
    00000CB4 79               [ 4] 2957 	ld	a, c
    00000CB5 B7               [ 4] 2958 	or	a, a
    00000CB6 28 0B            [12] 2959 	jr	Z, 00218$
    00000CB8 DD 6E FD         [19] 2960 	ld	l, -3 (ix)
    00000CBB DD 66 FE         [19] 2961 	ld	h, -2 (ix)
    00000CBE 36 01            [10] 2962 	ld	(hl), #0x01
    00000CC0 C3rCBr0C         [10] 2963 	jp	00222$
    00000CC3                       2964 00218$:
                                   2965 ;E:\Dropbox\FAUSTO\SVILUPPI\MSX\CODE\C\MSXgl\projects\exsoccer/exsoccer_s2_b0.c:451: else g_Players[i].Direction=DIRECTION_DOWN;
    00000CC3 DD 6E FD         [19] 2966 	ld	l, -3 (ix)
    00000CC6 DD 66 FE         [19] 2967 	ld	h, -2 (ix)
    00000CC9 36 05            [10] 2968 	ld	(hl), #0x05
    00000CCB                       2969 00222$:
                                   2970 ;E:\Dropbox\FAUSTO\SVILUPPI\MSX\CODE\C\MSXgl\projects\exsoccer/exsoccer_s2_b0.c:453: PutPlayerSprite(i);
    00000CCB DD 7E FF         [19] 2971 	ld	a, -1 (ix)
    00000CCE CDr9Fr03         [17] 2972 	call	_PutPlayerSprite
    00000CD1                       2973 00231$:
                                   2974 ;E:\Dropbox\FAUSTO\SVILUPPI\MSX\CODE\C\MSXgl\projects\exsoccer/exsoccer_s2_b0.c:283: for(u8 i=0;i<15;i++){
    00000CD1 DD 34 FF         [23] 2975 	inc	-1 (ix)
    00000CD4 C3r06r07         [10] 2976 	jp	00240$
    00000CD7                       2977 00232$:
                                   2978 ;E:\Dropbox\FAUSTO\SVILUPPI\MSX\CODE\C\MSXgl\projects\exsoccer/exsoccer_s2_b0.c:460: if(g_MatchStatus==MATCH_BEFORE_KICK_OFF && allPlayersInPosition && g_FieldScrollingActionInProgress==NO_VALUE){
    00000CD7 3Ar00r00         [13] 2979 	ld	a, (_g_MatchStatus+0)
    00000CDA 3D               [ 4] 2980 	dec	a
    00000CDB 20 20            [12] 2981 	jr	NZ, 00241$
    00000CDD DD 7E F3         [19] 2982 	ld	a, -13 (ix)
    00000CE0 B7               [ 4] 2983 	or	a, a
    00000CE1 28 1A            [12] 2984 	jr	Z, 00241$
    00000CE3 3Ar00r00         [13] 2985 	ld	a, (_g_FieldScrollingActionInProgress+0)
    00000CE6 3C               [ 4] 2986 	inc	a
    00000CE7 20 14            [12] 2987 	jr	NZ, 00241$
                                   2988 ;E:\Dropbox\FAUSTO\SVILUPPI\MSX\CODE\C\MSXgl\projects\exsoccer/exsoccer_s2_b0.c:461: g_FieldScrollSpeed=FIELD_SCROLL_GAME_SPEED;
    00000CE9 21r00r00         [10] 2989 	ld	hl, #_g_FieldScrollSpeed
    00000CEC 36 05            [10] 2990 	ld	(hl), #0x05
                                   2991 ;E:\Dropbox\FAUSTO\SVILUPPI\MSX\CODE\C\MSXgl\projects\exsoccer/exsoccer_s2_b0.c:462: g_MatchStatus=MATCH_KICK_OFF;
    00000CEE 21r00r00         [10] 2992 	ld	hl, #_g_MatchStatus
    00000CF1 36 07            [10] 2993 	ld	(hl), #0x07
                                   2994 ;E:\Dropbox\FAUSTO\SVILUPPI\MSX\CODE\C\MSXgl\projects\exsoccer/exsoccer_s2_b0.c:463: g_Timer=0;
    00000CF3 21r00r00         [10] 2995 	ld	hl, #_g_Timer
    00000CF6 36 00            [10] 2996 	ld	(hl), #0x00
                                   2997 ;E:\Dropbox\FAUSTO\SVILUPPI\MSX\CODE\C\MSXgl\projects\exsoccer/exsoccer_s2_b0.c:464: g_GoalScorerId = NO_VALUE; // Reset scorer
    00000CF8 21r00r00         [10] 2998 	ld	hl, #_g_GoalScorerId
    00000CFB 36 FF            [10] 2999 	ld	(hl), #0xff
    00000CFD                       3000 00241$:
                                   3001 ;E:\Dropbox\FAUSTO\SVILUPPI\MSX\CODE\C\MSXgl\projects\exsoccer/exsoccer_s2_b0.c:468: }
    00000CFD DD F9            [10] 3002 	ld	sp, ix
    00000CFF DD E1            [14] 3003 	pop	ix
    00000D01 C9               [10] 3004 	ret
                                   3005 ;E:\Dropbox\FAUSTO\SVILUPPI\MSX\CODE\C\MSXgl\projects\exsoccer/exsoccer_s2_b0.c:471: char *GetNumberString(u16 value)
                                   3006 ;	---------------------------------
                                   3007 ; Function GetNumberString
                                   3008 ; ---------------------------------
    00000D02                       3009 _GetNumberString::
    00000D02 EB               [ 4] 3010 	ex	de, hl
                                   3011 ;E:\Dropbox\FAUSTO\SVILUPPI\MSX\CODE\C\MSXgl\projects\exsoccer/exsoccer_s2_b0.c:475: if (value < 10) {
    00000D03 4B               [ 4] 3012 	ld	c, e
    00000D04 42               [ 4] 3013 	ld	b, d
    00000D05 79               [ 4] 3014 	ld	a, c
    00000D06 D6 0A            [ 7] 3015 	sub	a, #0x0a
    00000D08 78               [ 4] 3016 	ld	a, b
    00000D09 DE 00            [ 7] 3017 	sbc	a, #0x00
    00000D0B 30 0D            [12] 3018 	jr	NC, 00102$
                                   3019 ;E:\Dropbox\FAUSTO\SVILUPPI\MSX\CODE\C\MSXgl\projects\exsoccer/exsoccer_s2_b0.c:476: str[0] = '0' + value;
    00000D0D 01r0Er00         [10] 3020 	ld	bc, #_GetNumberString_str_65536_1252+0
    00000D10 7B               [ 4] 3021 	ld	a, e
    00000D11 C6 30            [ 7] 3022 	add	a, #0x30
    00000D13 02               [ 7] 3023 	ld	(bc), a
                                   3024 ;E:\Dropbox\FAUSTO\SVILUPPI\MSX\CODE\C\MSXgl\projects\exsoccer/exsoccer_s2_b0.c:477: str[1] = '\0';
    00000D14 03               [ 6] 3025 	inc	bc
    00000D15 AF               [ 4] 3026 	xor	a, a
    00000D16 02               [ 7] 3027 	ld	(bc), a
    00000D17 C3r3Dr0D         [10] 3028 	jp	00103$
    00000D1A                       3029 00102$:
                                   3030 ;E:\Dropbox\FAUSTO\SVILUPPI\MSX\CODE\C\MSXgl\projects\exsoccer/exsoccer_s2_b0.c:479: str[0] = '0' + (value / 10);
    00000D1A C5               [11] 3031 	push	bc
    00000D1B 11 0A 00         [10] 3032 	ld	de, #0x000a
    00000D1E 69               [ 4] 3033 	ld	l, c
                                   3034 ;	spillPairReg hl
                                   3035 ;	spillPairReg hl
    00000D1F 60               [ 4] 3036 	ld	h, b
                                   3037 ;	spillPairReg hl
                                   3038 ;	spillPairReg hl
    00000D20 CDr00r00         [17] 3039 	call	__divuint
    00000D23 C1               [10] 3040 	pop	bc
    00000D24 7B               [ 4] 3041 	ld	a, e
    00000D25 C6 30            [ 7] 3042 	add	a, #0x30
    00000D27 32r0Er00         [13] 3043 	ld	(#_GetNumberString_str_65536_1252),a
                                   3044 ;E:\Dropbox\FAUSTO\SVILUPPI\MSX\CODE\C\MSXgl\projects\exsoccer/exsoccer_s2_b0.c:480: str[1] = '0' + (value % 10);
    00000D2A 11 0A 00         [10] 3045 	ld	de, #0x000a
    00000D2D 69               [ 4] 3046 	ld	l, c
                                   3047 ;	spillPairReg hl
                                   3048 ;	spillPairReg hl
    00000D2E 60               [ 4] 3049 	ld	h, b
                                   3050 ;	spillPairReg hl
                                   3051 ;	spillPairReg hl
    00000D2F CDr00r00         [17] 3052 	call	__moduint
    00000D32 7B               [ 4] 3053 	ld	a, e
    00000D33 C6 30            [ 7] 3054 	add	a, #0x30
    00000D35 32r0Fr00         [13] 3055 	ld	(#(_GetNumberString_str_65536_1252 + 1)),a
                                   3056 ;E:\Dropbox\FAUSTO\SVILUPPI\MSX\CODE\C\MSXgl\projects\exsoccer/exsoccer_s2_b0.c:481: str[2] = '\0';
    00000D38 21r10r00         [10] 3057 	ld	hl, #(_GetNumberString_str_65536_1252 + 2)
    00000D3B 36 00            [10] 3058 	ld	(hl), #0x00
    00000D3D                       3059 00103$:
                                   3060 ;E:\Dropbox\FAUSTO\SVILUPPI\MSX\CODE\C\MSXgl\projects\exsoccer/exsoccer_s2_b0.c:484: return str;
    00000D3D 11r0Er00         [10] 3061 	ld	de, #_GetNumberString_str_65536_1252
                                   3062 ;E:\Dropbox\FAUSTO\SVILUPPI\MSX\CODE\C\MSXgl\projects\exsoccer/exsoccer_s2_b0.c:485: }
    00000D40 C9               [10] 3063 	ret
                                   3064 ;E:\Dropbox\FAUSTO\SVILUPPI\MSX\CODE\C\MSXgl\projects\exsoccer/exsoccer_s2_b0.c:487: bool IsTeamJoystickTriggerPressed(u8 teamId){
                                   3065 ;	---------------------------------
                                   3066 ; Function IsTeamJoystickTriggerPressed
                                   3067 ; ---------------------------------
    00000D41                       3068 _IsTeamJoystickTriggerPressed::
    00000D41 4F               [ 4] 3069 	ld	c, a
                                   3070 ;E:\Dropbox\FAUSTO\SVILUPPI\MSX\CODE\C\MSXgl\projects\exsoccer/exsoccer_s2_b0.c:488: if(teamId==TEAM_1){
    00000D42 0D               [ 4] 3071 	dec	c
    00000D43 20 17            [12] 3072 	jr	NZ, 00108$
                                   3073 ;E:\Dropbox\FAUSTO\SVILUPPI\MSX\CODE\C\MSXgl\projects\exsoccer/exsoccer_s2_b0.c:490: u8 joyStat = Joystick_Read(JOY_PORT_1);
    00000D45 2E 0F            [ 7] 3074 	ld	l, #0x0f
                                   3075 ;	spillPairReg hl
                                   3076 ;	spillPairReg hl
    00000D47 CDr00r00         [17] 3077 	call	_Joystick_Read
                                   3078 ;E:\Dropbox\FAUSTO\SVILUPPI\MSX\CODE\C\MSXgl\projects\exsoccer/exsoccer_s2_b0.c:491: if (IS_JOY_PRESSED(joyStat, JOY_INPUT_TRIGGER_A))
    00000D4A CB 65            [ 8] 3079 	bit	4, l
    00000D4C 20 03            [12] 3080 	jr	NZ, 00102$
                                   3081 ;E:\Dropbox\FAUSTO\SVILUPPI\MSX\CODE\C\MSXgl\projects\exsoccer/exsoccer_s2_b0.c:493: return true;
    00000D4E 3E 01            [ 7] 3082 	ld	a, #0x01
    00000D50 C9               [10] 3083 	ret
    00000D51                       3084 00102$:
                                   3085 ;E:\Dropbox\FAUSTO\SVILUPPI\MSX\CODE\C\MSXgl\projects\exsoccer/exsoccer_s2_b0.c:495: if(Keyboard_IsKeyPressed(KEY_SPACE))
    00000D51 3E 08            [ 7] 3086 	ld	a, #0x08
    00000D53 CDr00r00         [17] 3087 	call	_Keyboard_IsKeyPressed
    00000D56 B7               [ 4] 3088 	or	a, a
    00000D57 28 0D            [12] 3089 	jr	Z, 00109$
                                   3090 ;E:\Dropbox\FAUSTO\SVILUPPI\MSX\CODE\C\MSXgl\projects\exsoccer/exsoccer_s2_b0.c:497: return true;
    00000D59 3E 01            [ 7] 3091 	ld	a, #0x01
    00000D5B C9               [10] 3092 	ret
    00000D5C                       3093 00108$:
                                   3094 ;E:\Dropbox\FAUSTO\SVILUPPI\MSX\CODE\C\MSXgl\projects\exsoccer/exsoccer_s2_b0.c:501: u8 joyStat = Joystick_Read(JOY_PORT_2);
    00000D5C 2E 4F            [ 7] 3095 	ld	l, #0x4f
                                   3096 ;	spillPairReg hl
                                   3097 ;	spillPairReg hl
    00000D5E CDr00r00         [17] 3098 	call	_Joystick_Read
                                   3099 ;E:\Dropbox\FAUSTO\SVILUPPI\MSX\CODE\C\MSXgl\projects\exsoccer/exsoccer_s2_b0.c:502: if (IS_JOY_PRESSED(joyStat, JOY_INPUT_TRIGGER_A))
    00000D61 CB 65            [ 8] 3100 	bit	4, l
                                   3101 ;E:\Dropbox\FAUSTO\SVILUPPI\MSX\CODE\C\MSXgl\projects\exsoccer/exsoccer_s2_b0.c:504: return true;
                                   3102 ;E:\Dropbox\FAUSTO\SVILUPPI\MSX\CODE\C\MSXgl\projects\exsoccer/exsoccer_s2_b0.c:507: return FALSE;
    00000D63 3E 01            [ 7] 3103 	ld	a, #0x01
    00000D65 C8               [11] 3104 	ret	Z
    00000D66                       3105 00109$:
    00000D66 AF               [ 4] 3106 	xor	a, a
                                   3107 ;E:\Dropbox\FAUSTO\SVILUPPI\MSX\CODE\C\MSXgl\projects\exsoccer/exsoccer_s2_b0.c:508: }
    00000D67 C9               [10] 3108 	ret
                                   3109 ;E:\Dropbox\FAUSTO\SVILUPPI\MSX\CODE\C\MSXgl\projects\exsoccer/exsoccer_s2_b0.c:509: u8 GetJoystick1Direction(){
                                   3110 ;	---------------------------------
                                   3111 ; Function GetJoystick1Direction
                                   3112 ; ---------------------------------
    00000D68                       3113 _GetJoystick1Direction::
                                   3114 ;E:/Dropbox/FAUSTO/SVILUPPI/MSX/CODE/C/MSXgl/engine/src/input.h:182: u8 in = ~Joystick_Read(port);
    00000D68 2E 0F            [ 7] 3115 	ld	l, #0x0f
                                   3116 ;	spillPairReg hl
                                   3117 ;	spillPairReg hl
    00000D6A CDr00r00         [17] 3118 	call	_Joystick_Read
    00000D6D 7D               [ 4] 3119 	ld	a, l
    00000D6E 2F               [ 4] 3120 	cpl
                                   3121 ;E:\Dropbox\FAUSTO\SVILUPPI\MSX\CODE\C\MSXgl\projects\exsoccer/exsoccer_s2_b0.c:510: u8 dir = Joystick_GetDirection(JOY_PORT_1);
    00000D6F E6 0F            [ 7] 3122 	and	a, #0x0f
    00000D71 47               [ 4] 3123 	ld	b, a
    00000D72 58               [ 4] 3124 	ld	e, b
                                   3125 ;E:\Dropbox\FAUSTO\SVILUPPI\MSX\CODE\C\MSXgl\projects\exsoccer/exsoccer_s2_b0.c:511: u8 retValue=DIRECTION_NONE;
    00000D73 0E 00            [ 7] 3126 	ld	c, #0x00
                                   3127 ;E:\Dropbox\FAUSTO\SVILUPPI\MSX\CODE\C\MSXgl\projects\exsoccer/exsoccer_s2_b0.c:512: switch (dir){
    00000D75 3E 0A            [ 7] 3128 	ld	a, #0x0a
    00000D77 90               [ 4] 3129 	sub	a, b
    00000D78 38 4F            [12] 3130 	jr	C, 00109$
    00000D7A 16 00            [ 7] 3131 	ld	d, #0x00
    00000D7C 21r83r0D         [10] 3132 	ld	hl, #00229$
    00000D7F 19               [11] 3133 	add	hl, de
    00000D80 19               [11] 3134 	add	hl, de
    00000D81 19               [11] 3135 	add	hl, de
    00000D82 E9               [ 4] 3136 	jp	(hl)
    00000D83                       3137 00229$:
    00000D83 C3rC9r0D         [10] 3138 	jp	00109$
    00000D86 C3rA4r0D         [10] 3139 	jp	00101$
    00000D89 C3rA9r0D         [10] 3140 	jp	00102$
    00000D8C C3rC9r0D         [10] 3141 	jp	00109$
    00000D8F C3rAEr0D         [10] 3142 	jp	00103$
    00000D92 C3rBDr0D         [10] 3143 	jp	00106$
    00000D95 C3rC7r0D         [10] 3144 	jp	00108$
    00000D98 C3rC9r0D         [10] 3145 	jp	00109$
    00000D9B C3rB3r0D         [10] 3146 	jp	00104$
    00000D9E C3rB8r0D         [10] 3147 	jp	00105$
    00000DA1 C3rC2r0D         [10] 3148 	jp	00107$
                                   3149 ;E:\Dropbox\FAUSTO\SVILUPPI\MSX\CODE\C\MSXgl\projects\exsoccer/exsoccer_s2_b0.c:513: case JOY_INPUT_DIR_UP:
    00000DA4                       3150 00101$:
                                   3151 ;E:\Dropbox\FAUSTO\SVILUPPI\MSX\CODE\C\MSXgl\projects\exsoccer/exsoccer_s2_b0.c:514: retValue=DIRECTION_UP;
    00000DA4 0E 01            [ 7] 3152 	ld	c, #0x01
                                   3153 ;E:\Dropbox\FAUSTO\SVILUPPI\MSX\CODE\C\MSXgl\projects\exsoccer/exsoccer_s2_b0.c:515: break;
    00000DA6 C3rC9r0D         [10] 3154 	jp	00109$
                                   3155 ;E:\Dropbox\FAUSTO\SVILUPPI\MSX\CODE\C\MSXgl\projects\exsoccer/exsoccer_s2_b0.c:516: case JOY_INPUT_DIR_DOWN:
    00000DA9                       3156 00102$:
                                   3157 ;E:\Dropbox\FAUSTO\SVILUPPI\MSX\CODE\C\MSXgl\projects\exsoccer/exsoccer_s2_b0.c:517: retValue=DIRECTION_DOWN;
    00000DA9 0E 05            [ 7] 3158 	ld	c, #0x05
                                   3159 ;E:\Dropbox\FAUSTO\SVILUPPI\MSX\CODE\C\MSXgl\projects\exsoccer/exsoccer_s2_b0.c:518: break;
    00000DAB C3rC9r0D         [10] 3160 	jp	00109$
                                   3161 ;E:\Dropbox\FAUSTO\SVILUPPI\MSX\CODE\C\MSXgl\projects\exsoccer/exsoccer_s2_b0.c:519: case JOY_INPUT_DIR_LEFT:
    00000DAE                       3162 00103$:
                                   3163 ;E:\Dropbox\FAUSTO\SVILUPPI\MSX\CODE\C\MSXgl\projects\exsoccer/exsoccer_s2_b0.c:520: retValue=DIRECTION_LEFT;
    00000DAE 0E 07            [ 7] 3164 	ld	c, #0x07
                                   3165 ;E:\Dropbox\FAUSTO\SVILUPPI\MSX\CODE\C\MSXgl\projects\exsoccer/exsoccer_s2_b0.c:521: break;
    00000DB0 C3rC9r0D         [10] 3166 	jp	00109$
                                   3167 ;E:\Dropbox\FAUSTO\SVILUPPI\MSX\CODE\C\MSXgl\projects\exsoccer/exsoccer_s2_b0.c:522: case JOY_INPUT_DIR_RIGHT:
    00000DB3                       3168 00104$:
                                   3169 ;E:\Dropbox\FAUSTO\SVILUPPI\MSX\CODE\C\MSXgl\projects\exsoccer/exsoccer_s2_b0.c:523: retValue=DIRECTION_RIGHT;
    00000DB3 0E 03            [ 7] 3170 	ld	c, #0x03
                                   3171 ;E:\Dropbox\FAUSTO\SVILUPPI\MSX\CODE\C\MSXgl\projects\exsoccer/exsoccer_s2_b0.c:524: break;
    00000DB5 C3rC9r0D         [10] 3172 	jp	00109$
                                   3173 ;E:\Dropbox\FAUSTO\SVILUPPI\MSX\CODE\C\MSXgl\projects\exsoccer/exsoccer_s2_b0.c:525: case JOY_INPUT_DIR_UP_RIGHT:
    00000DB8                       3174 00105$:
                                   3175 ;E:\Dropbox\FAUSTO\SVILUPPI\MSX\CODE\C\MSXgl\projects\exsoccer/exsoccer_s2_b0.c:526: retValue=DIRECTION_UP_RIGHT;
    00000DB8 0E 02            [ 7] 3176 	ld	c, #0x02
                                   3177 ;E:\Dropbox\FAUSTO\SVILUPPI\MSX\CODE\C\MSXgl\projects\exsoccer/exsoccer_s2_b0.c:527: break;
    00000DBA C3rC9r0D         [10] 3178 	jp	00109$
                                   3179 ;E:\Dropbox\FAUSTO\SVILUPPI\MSX\CODE\C\MSXgl\projects\exsoccer/exsoccer_s2_b0.c:528: case JOY_INPUT_DIR_UP_LEFT:
    00000DBD                       3180 00106$:
                                   3181 ;E:\Dropbox\FAUSTO\SVILUPPI\MSX\CODE\C\MSXgl\projects\exsoccer/exsoccer_s2_b0.c:529: retValue=DIRECTION_UP_LEFT;
    00000DBD 0E 08            [ 7] 3182 	ld	c, #0x08
                                   3183 ;E:\Dropbox\FAUSTO\SVILUPPI\MSX\CODE\C\MSXgl\projects\exsoccer/exsoccer_s2_b0.c:530: break;
    00000DBF C3rC9r0D         [10] 3184 	jp	00109$
                                   3185 ;E:\Dropbox\FAUSTO\SVILUPPI\MSX\CODE\C\MSXgl\projects\exsoccer/exsoccer_s2_b0.c:531: case JOY_INPUT_DIR_DOWN_RIGHT:
    00000DC2                       3186 00107$:
                                   3187 ;E:\Dropbox\FAUSTO\SVILUPPI\MSX\CODE\C\MSXgl\projects\exsoccer/exsoccer_s2_b0.c:532: retValue=DIRECTION_DOWN_RIGHT;
    00000DC2 0E 04            [ 7] 3188 	ld	c, #0x04
                                   3189 ;E:\Dropbox\FAUSTO\SVILUPPI\MSX\CODE\C\MSXgl\projects\exsoccer/exsoccer_s2_b0.c:533: break;
    00000DC4 C3rC9r0D         [10] 3190 	jp	00109$
                                   3191 ;E:\Dropbox\FAUSTO\SVILUPPI\MSX\CODE\C\MSXgl\projects\exsoccer/exsoccer_s2_b0.c:534: case JOY_INPUT_DIR_DOWN_LEFT:
    00000DC7                       3192 00108$:
                                   3193 ;E:\Dropbox\FAUSTO\SVILUPPI\MSX\CODE\C\MSXgl\projects\exsoccer/exsoccer_s2_b0.c:535: retValue=DIRECTION_DOWN_LEFT;
    00000DC7 0E 06            [ 7] 3194 	ld	c, #0x06
                                   3195 ;E:\Dropbox\FAUSTO\SVILUPPI\MSX\CODE\C\MSXgl\projects\exsoccer/exsoccer_s2_b0.c:537: }
    00000DC9                       3196 00109$:
                                   3197 ;E:\Dropbox\FAUSTO\SVILUPPI\MSX\CODE\C\MSXgl\projects\exsoccer/exsoccer_s2_b0.c:538: if(retValue==DIRECTION_NONE){
    00000DC9 79               [ 4] 3198 	ld	a, c
    00000DCA B7               [ 4] 3199 	or	a, a
    00000DCB C2r66r0E         [10] 3200 	jp	NZ, 00135$
                                   3201 ;E:\Dropbox\FAUSTO\SVILUPPI\MSX\CODE\C\MSXgl\projects\exsoccer/exsoccer_s2_b0.c:539: if(Keyboard_IsKeyPressed(KEY_LEFT) && Keyboard_IsKeyPressed(KEY_UP))
    00000DCE C5               [11] 3202 	push	bc
    00000DCF 3E 48            [ 7] 3203 	ld	a, #0x48
    00000DD1 CDr00r00         [17] 3204 	call	_Keyboard_IsKeyPressed
    00000DD4 C1               [10] 3205 	pop	bc
    00000DD5 B7               [ 4] 3206 	or	a, a
    00000DD6 28 0C            [12] 3207 	jr	Z, 00111$
    00000DD8 C5               [11] 3208 	push	bc
    00000DD9 3E 58            [ 7] 3209 	ld	a, #0x58
    00000DDB CDr00r00         [17] 3210 	call	_Keyboard_IsKeyPressed
    00000DDE C1               [10] 3211 	pop	bc
    00000DDF B7               [ 4] 3212 	or	a, a
    00000DE0 28 02            [12] 3213 	jr	Z, 00111$
                                   3214 ;E:\Dropbox\FAUSTO\SVILUPPI\MSX\CODE\C\MSXgl\projects\exsoccer/exsoccer_s2_b0.c:541: retValue=DIRECTION_UP_LEFT;
    00000DE2 0E 08            [ 7] 3215 	ld	c, #0x08
    00000DE4                       3216 00111$:
                                   3217 ;E:\Dropbox\FAUSTO\SVILUPPI\MSX\CODE\C\MSXgl\projects\exsoccer/exsoccer_s2_b0.c:543: if(Keyboard_IsKeyPressed(KEY_LEFT) && Keyboard_IsKeyPressed(KEY_DOWN))
    00000DE4 C5               [11] 3218 	push	bc
    00000DE5 3E 48            [ 7] 3219 	ld	a, #0x48
    00000DE7 CDr00r00         [17] 3220 	call	_Keyboard_IsKeyPressed
    00000DEA C1               [10] 3221 	pop	bc
    00000DEB B7               [ 4] 3222 	or	a, a
    00000DEC 28 0C            [12] 3223 	jr	Z, 00114$
    00000DEE C5               [11] 3224 	push	bc
    00000DEF 3E 68            [ 7] 3225 	ld	a, #0x68
    00000DF1 CDr00r00         [17] 3226 	call	_Keyboard_IsKeyPressed
    00000DF4 C1               [10] 3227 	pop	bc
    00000DF5 B7               [ 4] 3228 	or	a, a
    00000DF6 28 02            [12] 3229 	jr	Z, 00114$
                                   3230 ;E:\Dropbox\FAUSTO\SVILUPPI\MSX\CODE\C\MSXgl\projects\exsoccer/exsoccer_s2_b0.c:545: retValue=DIRECTION_DOWN_LEFT;
    00000DF8 0E 06            [ 7] 3231 	ld	c, #0x06
    00000DFA                       3232 00114$:
                                   3233 ;E:\Dropbox\FAUSTO\SVILUPPI\MSX\CODE\C\MSXgl\projects\exsoccer/exsoccer_s2_b0.c:547: if(Keyboard_IsKeyPressed(KEY_RIGHT) && Keyboard_IsKeyPressed(KEY_DOWN))
    00000DFA C5               [11] 3234 	push	bc
    00000DFB 3E 78            [ 7] 3235 	ld	a, #0x78
    00000DFD CDr00r00         [17] 3236 	call	_Keyboard_IsKeyPressed
    00000E00 C1               [10] 3237 	pop	bc
    00000E01 B7               [ 4] 3238 	or	a, a
    00000E02 28 0C            [12] 3239 	jr	Z, 00117$
    00000E04 C5               [11] 3240 	push	bc
    00000E05 3E 68            [ 7] 3241 	ld	a, #0x68
    00000E07 CDr00r00         [17] 3242 	call	_Keyboard_IsKeyPressed
    00000E0A C1               [10] 3243 	pop	bc
    00000E0B B7               [ 4] 3244 	or	a, a
    00000E0C 28 02            [12] 3245 	jr	Z, 00117$
                                   3246 ;E:\Dropbox\FAUSTO\SVILUPPI\MSX\CODE\C\MSXgl\projects\exsoccer/exsoccer_s2_b0.c:549: retValue=DIRECTION_DOWN_RIGHT;
    00000E0E 0E 04            [ 7] 3247 	ld	c, #0x04
    00000E10                       3248 00117$:
                                   3249 ;E:\Dropbox\FAUSTO\SVILUPPI\MSX\CODE\C\MSXgl\projects\exsoccer/exsoccer_s2_b0.c:551: if(Keyboard_IsKeyPressed(KEY_RIGHT) && Keyboard_IsKeyPressed(KEY_UP))
    00000E10 C5               [11] 3250 	push	bc
    00000E11 3E 78            [ 7] 3251 	ld	a, #0x78
    00000E13 CDr00r00         [17] 3252 	call	_Keyboard_IsKeyPressed
    00000E16 C1               [10] 3253 	pop	bc
    00000E17 B7               [ 4] 3254 	or	a, a
    00000E18 28 0C            [12] 3255 	jr	Z, 00120$
    00000E1A C5               [11] 3256 	push	bc
    00000E1B 3E 58            [ 7] 3257 	ld	a, #0x58
    00000E1D CDr00r00         [17] 3258 	call	_Keyboard_IsKeyPressed
    00000E20 C1               [10] 3259 	pop	bc
    00000E21 B7               [ 4] 3260 	or	a, a
    00000E22 28 02            [12] 3261 	jr	Z, 00120$
                                   3262 ;E:\Dropbox\FAUSTO\SVILUPPI\MSX\CODE\C\MSXgl\projects\exsoccer/exsoccer_s2_b0.c:553: retValue=DIRECTION_UP_RIGHT;
    00000E24 0E 02            [ 7] 3263 	ld	c, #0x02
    00000E26                       3264 00120$:
                                   3265 ;E:\Dropbox\FAUSTO\SVILUPPI\MSX\CODE\C\MSXgl\projects\exsoccer/exsoccer_s2_b0.c:555: if(retValue==DIRECTION_NONE && Keyboard_IsKeyPressed(KEY_LEFT))
    00000E26 79               [ 4] 3266 	ld	a, c
    00000E27 B7               [ 4] 3267 	or	a, a
    00000E28 20 0C            [12] 3268 	jr	NZ, 00123$
    00000E2A C5               [11] 3269 	push	bc
    00000E2B 3E 48            [ 7] 3270 	ld	a, #0x48
    00000E2D CDr00r00         [17] 3271 	call	_Keyboard_IsKeyPressed
    00000E30 C1               [10] 3272 	pop	bc
    00000E31 B7               [ 4] 3273 	or	a, a
    00000E32 28 02            [12] 3274 	jr	Z, 00123$
                                   3275 ;E:\Dropbox\FAUSTO\SVILUPPI\MSX\CODE\C\MSXgl\projects\exsoccer/exsoccer_s2_b0.c:557: retValue=DIRECTION_LEFT;
    00000E34 0E 07            [ 7] 3276 	ld	c, #0x07
    00000E36                       3277 00123$:
                                   3278 ;E:\Dropbox\FAUSTO\SVILUPPI\MSX\CODE\C\MSXgl\projects\exsoccer/exsoccer_s2_b0.c:559: if(retValue==DIRECTION_NONE && Keyboard_IsKeyPressed(KEY_RIGHT))
    00000E36 79               [ 4] 3279 	ld	a, c
    00000E37 B7               [ 4] 3280 	or	a, a
    00000E38 20 0C            [12] 3281 	jr	NZ, 00126$
    00000E3A C5               [11] 3282 	push	bc
    00000E3B 3E 78            [ 7] 3283 	ld	a, #0x78
    00000E3D CDr00r00         [17] 3284 	call	_Keyboard_IsKeyPressed
    00000E40 C1               [10] 3285 	pop	bc
    00000E41 B7               [ 4] 3286 	or	a, a
    00000E42 28 02            [12] 3287 	jr	Z, 00126$
                                   3288 ;E:\Dropbox\FAUSTO\SVILUPPI\MSX\CODE\C\MSXgl\projects\exsoccer/exsoccer_s2_b0.c:561: retValue=DIRECTION_RIGHT;
    00000E44 0E 03            [ 7] 3289 	ld	c, #0x03
    00000E46                       3290 00126$:
                                   3291 ;E:\Dropbox\FAUSTO\SVILUPPI\MSX\CODE\C\MSXgl\projects\exsoccer/exsoccer_s2_b0.c:563: if(retValue==DIRECTION_NONE && Keyboard_IsKeyPressed(KEY_UP))
    00000E46 79               [ 4] 3292 	ld	a, c
    00000E47 B7               [ 4] 3293 	or	a, a
    00000E48 20 0C            [12] 3294 	jr	NZ, 00129$
    00000E4A C5               [11] 3295 	push	bc
    00000E4B 3E 58            [ 7] 3296 	ld	a, #0x58
    00000E4D CDr00r00         [17] 3297 	call	_Keyboard_IsKeyPressed
    00000E50 C1               [10] 3298 	pop	bc
    00000E51 B7               [ 4] 3299 	or	a, a
    00000E52 28 02            [12] 3300 	jr	Z, 00129$
                                   3301 ;E:\Dropbox\FAUSTO\SVILUPPI\MSX\CODE\C\MSXgl\projects\exsoccer/exsoccer_s2_b0.c:565: retValue=DIRECTION_UP;
    00000E54 0E 01            [ 7] 3302 	ld	c, #0x01
    00000E56                       3303 00129$:
                                   3304 ;E:\Dropbox\FAUSTO\SVILUPPI\MSX\CODE\C\MSXgl\projects\exsoccer/exsoccer_s2_b0.c:567: if(retValue==DIRECTION_NONE && Keyboard_IsKeyPressed(KEY_DOWN))
    00000E56 79               [ 4] 3305 	ld	a, c
    00000E57 B7               [ 4] 3306 	or	a, a
    00000E58 20 0C            [12] 3307 	jr	NZ, 00135$
    00000E5A C5               [11] 3308 	push	bc
    00000E5B 3E 68            [ 7] 3309 	ld	a, #0x68
    00000E5D CDr00r00         [17] 3310 	call	_Keyboard_IsKeyPressed
    00000E60 C1               [10] 3311 	pop	bc
    00000E61 B7               [ 4] 3312 	or	a, a
    00000E62 28 02            [12] 3313 	jr	Z, 00135$
                                   3314 ;E:\Dropbox\FAUSTO\SVILUPPI\MSX\CODE\C\MSXgl\projects\exsoccer/exsoccer_s2_b0.c:569: retValue=DIRECTION_DOWN;
    00000E64 0E 05            [ 7] 3315 	ld	c, #0x05
    00000E66                       3316 00135$:
                                   3317 ;E:\Dropbox\FAUSTO\SVILUPPI\MSX\CODE\C\MSXgl\projects\exsoccer/exsoccer_s2_b0.c:572: return retValue;
    00000E66 79               [ 4] 3318 	ld	a, c
                                   3319 ;E:\Dropbox\FAUSTO\SVILUPPI\MSX\CODE\C\MSXgl\projects\exsoccer/exsoccer_s2_b0.c:573: }
    00000E67 C9               [10] 3320 	ret
                                   3321 ;E:\Dropbox\FAUSTO\SVILUPPI\MSX\CODE\C\MSXgl\projects\exsoccer/exsoccer_s2_b0.c:574: u8 GetJoystick2Direction(){
                                   3322 ;	---------------------------------
                                   3323 ; Function GetJoystick2Direction
                                   3324 ; ---------------------------------
    00000E68                       3325 _GetJoystick2Direction::
                                   3326 ;E:/Dropbox/FAUSTO/SVILUPPI/MSX/CODE/C/MSXgl/engine/src/bios.h:382: inline u8 Bios_GetJoystickDirection(u8 port) { return ((u8(*)(u8))R_GTSTCK)(port); }
    00000E68 3E 02            [ 7] 3327 	ld	a, #0x02
                                   3328 ;E:\Dropbox\FAUSTO\SVILUPPI\MSX\CODE\C\MSXgl\projects\exsoccer/exsoccer_s2_b0.c:575: return Bios_GetJoystickDirection(2);
                                   3329 ;E:\Dropbox\FAUSTO\SVILUPPI\MSX\CODE\C\MSXgl\projects\exsoccer/exsoccer_s2_b0.c:576: }
    00000E6A C3 D5 00         [10] 3330 	jp  0x00d5
                                   3331 ;E:\Dropbox\FAUSTO\SVILUPPI\MSX\CODE\C\MSXgl\projects\exsoccer/exsoccer_s2_b0.c:578: void ShowFieldZone(u8 zone){
                                   3332 ;	---------------------------------
                                   3333 ; Function ShowFieldZone
                                   3334 ; ---------------------------------
    00000E6D                       3335 _ShowFieldZone::
    00000E6D 32r00r00         [13] 3336 	ld	(_g_FieldScrollingActionInProgress+0), a
                                   3337 ;E:\Dropbox\FAUSTO\SVILUPPI\MSX\CODE\C\MSXgl\projects\exsoccer/exsoccer_s2_b0.c:579: g_FieldScrollingActionInProgress=zone;
                                   3338 ;E:\Dropbox\FAUSTO\SVILUPPI\MSX\CODE\C\MSXgl\projects\exsoccer/exsoccer_s2_b0.c:580: }
    00000E70 C9               [10] 3339 	ret
                                   3340 ;E:\Dropbox\FAUSTO\SVILUPPI\MSX\CODE\C\MSXgl\projects\exsoccer/exsoccer_s2_b0.c:581: void TickCheckBallBoundaries(){
                                   3341 ;	---------------------------------
                                   3342 ; Function TickCheckBallBoundaries
                                   3343 ; ---------------------------------
    00000E71                       3344 _TickCheckBallBoundaries::
    00000E71 DD E5            [15] 3345 	push	ix
    00000E73 DD 21 00 00      [14] 3346 	ld	ix,#0
    00000E77 DD 39            [15] 3347 	add	ix,sp
    00000E79 21 FA FF         [10] 3348 	ld	hl, #-6
    00000E7C 39               [11] 3349 	add	hl, sp
    00000E7D F9               [ 6] 3350 	ld	sp, hl
                                   3351 ;E:\Dropbox\FAUSTO\SVILUPPI\MSX\CODE\C\MSXgl\projects\exsoccer/exsoccer_s2_b0.c:582: if(g_MatchStatus!=MATCH_IN_ACTION){
                                   3352 ;E:\Dropbox\FAUSTO\SVILUPPI\MSX\CODE\C\MSXgl\projects\exsoccer/exsoccer_s2_b0.c:583: return;
                                   3353 ;E:\Dropbox\FAUSTO\SVILUPPI\MSX\CODE\C\MSXgl\projects\exsoccer/exsoccer_s2_b0.c:587: if(g_MatchStatus == MATCH_BALL_ON_GOALKEEPER || g_Ball.PossessionPlayerId != NO_VALUE) {
    00000E7E 3Ar00r00         [13] 3354 	ld	a,(_g_MatchStatus+0)
    00000E81 FE 0C            [ 7] 3355 	cp	a,#0x0c
    00000E83 C2r19r10         [10] 3356 	jp	NZ,00160$
    00000E86 D6 0D            [ 7] 3357 	sub	a, #0x0d
    00000E88 28 06            [12] 3358 	jr	Z, 00107$
    00000E8A 3Ar06r00         [13] 3359 	ld	a, (#(_g_Ball + 6) + 0)
    00000E8D 3C               [ 4] 3360 	inc	a
    00000E8E 28 1F            [12] 3361 	jr	Z, 00108$
    00000E90                       3362 00107$:
                                   3363 ;E:\Dropbox\FAUSTO\SVILUPPI\MSX\CODE\C\MSXgl\projects\exsoccer/exsoccer_s2_b0.c:588: if(g_Ball.PossessionPlayerId != NO_VALUE) {
    00000E90 21r06r00         [10] 3364 	ld	hl, #_g_Ball+6
    00000E93 5E               [ 7] 3365 	ld	e, (hl)
    00000E94 7B               [ 4] 3366 	ld	a, e
    00000E95 3C               [ 4] 3367 	inc	a
    00000E96 28 17            [12] 3368 	jr	Z, 00108$
                                   3369 ;E:\Dropbox\FAUSTO\SVILUPPI\MSX\CODE\C\MSXgl\projects\exsoccer/exsoccer_s2_b0.c:589: if(g_Players[g_Ball.PossessionPlayerId].Role == PLAYER_ROLE_GOALKEEPER) return;
    00000E98 01r00r00         [10] 3370 	ld	bc, #_g_Players+0
    00000E9B 16 00            [ 7] 3371 	ld	d, #0x00
    00000E9D 6B               [ 4] 3372 	ld	l, e
    00000E9E 62               [ 4] 3373 	ld	h, d
    00000E9F 29               [11] 3374 	add	hl, hl
    00000EA0 29               [11] 3375 	add	hl, hl
    00000EA1 19               [11] 3376 	add	hl, de
    00000EA2 29               [11] 3377 	add	hl, hl
    00000EA3 29               [11] 3378 	add	hl, hl
    00000EA4 19               [11] 3379 	add	hl, de
    00000EA5 09               [11] 3380 	add	hl, bc
    00000EA6 11 0D 00         [10] 3381 	ld	de, #0x000d
    00000EA9 19               [11] 3382 	add	hl, de
    00000EAA 7E               [ 7] 3383 	ld	a, (hl)
    00000EAB B7               [ 4] 3384 	or	a, a
    00000EAC CAr19r10         [10] 3385 	jp	Z,00160$
    00000EAF                       3386 00108$:
                                   3387 ;E:\Dropbox\FAUSTO\SVILUPPI\MSX\CODE\C\MSXgl\projects\exsoccer/exsoccer_s2_b0.c:594: if (g_Ball.ShotActive != 0 || g_Ball.PassTargetPlayerId != NO_VALUE) {
    00000EAF 3Ar1Br00         [13] 3388 	ld	a, (#_g_Ball + 27)
    00000EB2 DD 77 FF         [19] 3389 	ld	-1 (ix), a
                                   3390 ;E:\Dropbox\FAUSTO\SVILUPPI\MSX\CODE\C\MSXgl\projects\exsoccer/exsoccer_s2_b0.c:602: if (g_Ball.Y < FIELD_BOUND_Y_TOP) {
    00000EB5 ED 4Br00r00      [20] 3391 	ld	bc, (#_g_Ball + 0)
                                   3392 ;E:\Dropbox\FAUSTO\SVILUPPI\MSX\CODE\C\MSXgl\projects\exsoccer/exsoccer_s2_b0.c:594: if (g_Ball.ShotActive != 0 || g_Ball.PassTargetPlayerId != NO_VALUE) {
    00000EB9 3Ar10r00         [13] 3393 	ld	a, (#_g_Ball + 16)
    00000EBC DD 77 FD         [19] 3394 	ld	-3 (ix), a
                                   3395 ;E:\Dropbox\FAUSTO\SVILUPPI\MSX\CODE\C\MSXgl\projects\exsoccer/exsoccer_s2_b0.c:602: if (g_Ball.Y < FIELD_BOUND_Y_TOP) {
    00000EBF 59               [ 4] 3396 	ld	e, c
    00000EC0 50               [ 4] 3397 	ld	d, b
                                   3398 ;E:\Dropbox\FAUSTO\SVILUPPI\MSX\CODE\C\MSXgl\projects\exsoccer/exsoccer_s2_b0.c:594: if (g_Ball.ShotActive != 0 || g_Ball.PassTargetPlayerId != NO_VALUE) {
    00000EC1 DD 7E FD         [19] 3399 	ld	a, -3 (ix)
    00000EC4 3C               [ 4] 3400 	inc	a
    00000EC5 3E 01            [ 7] 3401 	ld	a, #0x01
    00000EC7 28 01            [12] 3402 	jr	Z, 00314$
    00000EC9 AF               [ 4] 3403 	xor	a, a
    00000ECA                       3404 00314$:
    00000ECA DD 77 FE         [19] 3405 	ld	-2 (ix), a
                                   3406 ;E:\Dropbox\FAUSTO\SVILUPPI\MSX\CODE\C\MSXgl\projects\exsoccer/exsoccer_s2_b0.c:602: if (g_Ball.Y < FIELD_BOUND_Y_TOP) {
    00000ECD 7B               [ 4] 3407 	ld	a, e
    00000ECE D6 32            [ 7] 3408 	sub	a, #0x32
    00000ED0 7A               [ 4] 3409 	ld	a, d
    00000ED1 DE 00            [ 7] 3410 	sbc	a, #0x00
    00000ED3 3E 00            [ 7] 3411 	ld	a, #0x00
    00000ED5 17               [ 4] 3412 	rla
    00000ED6 DD 77 FA         [19] 3413 	ld	-6 (ix), a
                                   3414 ;E:\Dropbox\FAUSTO\SVILUPPI\MSX\CODE\C\MSXgl\projects\exsoccer/exsoccer_s2_b0.c:594: if (g_Ball.ShotActive != 0 || g_Ball.PassTargetPlayerId != NO_VALUE) {
    00000ED9 DD 7E FF         [19] 3415 	ld	a, -1 (ix)
    00000EDC B7               [ 4] 3416 	or	a, a
    00000EDD 20 06            [12] 3417 	jr	NZ, 00120$
    00000EDF DD CB FE 46      [20] 3418 	bit	0, -2 (ix)
    00000EE3 20 3B            [12] 3419 	jr	NZ, 00121$
    00000EE5                       3420 00120$:
                                   3421 ;E:\Dropbox\FAUSTO\SVILUPPI\MSX\CODE\C\MSXgl\projects\exsoccer/exsoccer_s2_b0.c:596: u16 destY = g_Ball.TargetY;
    00000EE5 2Ar19r00         [16] 3422 	ld	hl, (#_g_Ball + 25)
                                   3423 ;E:\Dropbox\FAUSTO\SVILUPPI\MSX\CODE\C\MSXgl\projects\exsoccer/exsoccer_s2_b0.c:597: if (g_Ball.PassTargetPlayerId != NO_VALUE) {
    00000EE8 DD CB FE 46      [20] 3424 	bit	0, -2 (ix)
    00000EEC 20 17            [12] 3425 	jr	NZ, 00111$
                                   3426 ;E:\Dropbox\FAUSTO\SVILUPPI\MSX\CODE\C\MSXgl\projects\exsoccer/exsoccer_s2_b0.c:598: destY = g_Players[g_Ball.PassTargetPlayerId].Y;
    00000EEE D5               [11] 3427 	push	de
    00000EEF DD 5E FD         [19] 3428 	ld	e, -3 (ix)
    00000EF2 16 00            [ 7] 3429 	ld	d, #0x00
    00000EF4 6B               [ 4] 3430 	ld	l, e
    00000EF5 62               [ 4] 3431 	ld	h, d
    00000EF6 29               [11] 3432 	add	hl, hl
    00000EF7 29               [11] 3433 	add	hl, hl
    00000EF8 19               [11] 3434 	add	hl, de
    00000EF9 29               [11] 3435 	add	hl, hl
    00000EFA 29               [11] 3436 	add	hl, hl
    00000EFB 19               [11] 3437 	add	hl, de
    00000EFC 11r00r00         [10] 3438 	ld	de, #_g_Players
    00000EFF 19               [11] 3439 	add	hl, de
    00000F00 D1               [10] 3440 	pop	de
    00000F01 7E               [ 7] 3441 	ld	a, (hl)
    00000F02 23               [ 6] 3442 	inc	hl
    00000F03 66               [ 7] 3443 	ld	h, (hl)
                                   3444 ;	spillPairReg hl
    00000F04 6F               [ 4] 3445 	ld	l, a
                                   3446 ;	spillPairReg hl
                                   3447 ;	spillPairReg hl
    00000F05                       3448 00111$:
                                   3449 ;E:\Dropbox\FAUSTO\SVILUPPI\MSX\CODE\C\MSXgl\projects\exsoccer/exsoccer_s2_b0.c:602: if (g_Ball.Y < FIELD_BOUND_Y_TOP) {
    00000F05 DD 7E FA         [19] 3450 	ld	a, -6 (ix)
    00000F08 B7               [ 4] 3451 	or	a, a
    00000F09 28 07            [12] 3452 	jr	Z, 00115$
                                   3453 ;E:\Dropbox\FAUSTO\SVILUPPI\MSX\CODE\C\MSXgl\projects\exsoccer/exsoccer_s2_b0.c:604: if(destY > g_Ball.Y) return;
    00000F0B 79               [ 4] 3454 	ld	a, c
    00000F0C 95               [ 4] 3455 	sub	a, l
    00000F0D 78               [ 4] 3456 	ld	a, b
    00000F0E 9C               [ 4] 3457 	sbc	a, h
    00000F0F DAr19r10         [10] 3458 	jp	C,00160$
    00000F12                       3459 00115$:
                                   3460 ;E:\Dropbox\FAUSTO\SVILUPPI\MSX\CODE\C\MSXgl\projects\exsoccer/exsoccer_s2_b0.c:608: if (g_Ball.Y > FIELD_BOUND_Y_BOTTOM) {
    00000F12 3E AE            [ 7] 3461 	ld	a, #0xae
    00000F14 BB               [ 4] 3462 	cp	a, e
    00000F15 3E 01            [ 7] 3463 	ld	a, #0x01
    00000F17 9A               [ 4] 3464 	sbc	a, d
    00000F18 30 06            [12] 3465 	jr	NC, 00121$
                                   3466 ;E:\Dropbox\FAUSTO\SVILUPPI\MSX\CODE\C\MSXgl\projects\exsoccer/exsoccer_s2_b0.c:610: if(destY < g_Ball.Y) return;
    00000F1A AF               [ 4] 3467 	xor	a, a
    00000F1B ED 42            [15] 3468 	sbc	hl, bc
    00000F1D DAr19r10         [10] 3469 	jp	C,00160$
    00000F20                       3470 00121$:
                                   3471 ;E:\Dropbox\FAUSTO\SVILUPPI\MSX\CODE\C\MSXgl\projects\exsoccer/exsoccer_s2_b0.c:626: if (g_Ball.Y < FIELD_BOUND_Y_TOP) {
    00000F20 DD 7E FA         [19] 3472 	ld	a, -6 (ix)
    00000F23 B7               [ 4] 3473 	or	a, a
    00000F24 28 18            [12] 3474 	jr	Z, 00129$
                                   3475 ;E:\Dropbox\FAUSTO\SVILUPPI\MSX\CODE\C\MSXgl\projects\exsoccer/exsoccer_s2_b0.c:628: if (g_Ball.ShotActive && (g_Ball.Direction == DIRECTION_DOWN || g_Ball.Direction == DIRECTION_DOWN_LEFT || g_Ball.Direction == DIRECTION_DOWN_RIGHT)) {
    00000F26 DD 7E FF         [19] 3476 	ld	a, -1 (ix)
    00000F29 B7               [ 4] 3477 	or	a, a
    00000F2A 28 12            [12] 3478 	jr	Z, 00129$
    00000F2C 3Ar05r00         [13] 3479 	ld	a, (#_g_Ball + 5)
    00000F2F FE 05            [ 7] 3480 	cp	a, #0x05
    00000F31 CAr19r10         [10] 3481 	jp	Z,00160$
    00000F34 FE 06            [ 7] 3482 	cp	a, #0x06
    00000F36 CAr19r10         [10] 3483 	jp	Z,00160$
    00000F39 D6 04            [ 7] 3484 	sub	a, #0x04
                                   3485 ;E:\Dropbox\FAUSTO\SVILUPPI\MSX\CODE\C\MSXgl\projects\exsoccer/exsoccer_s2_b0.c:629: return; 
    00000F3B CAr19r10         [10] 3486 	jp	Z,00160$
    00000F3E                       3487 00129$:
                                   3488 ;E:\Dropbox\FAUSTO\SVILUPPI\MSX\CODE\C\MSXgl\projects\exsoccer/exsoccer_s2_b0.c:634: if (g_Ball.Y > FIELD_BOUND_Y_BOTTOM) {
    00000F3E 3E AE            [ 7] 3489 	ld	a, #0xae
    00000F40 BB               [ 4] 3490 	cp	a, e
    00000F41 3E 01            [ 7] 3491 	ld	a, #0x01
    00000F43 9A               [ 4] 3492 	sbc	a, d
    00000F44 3E 00            [ 7] 3493 	ld	a, #0x00
    00000F46 17               [ 4] 3494 	rla
    00000F47 DD 77 FB         [19] 3495 	ld	-5 (ix), a
    00000F4A B7               [ 4] 3496 	or	a, a
    00000F4B 28 18            [12] 3497 	jr	Z, 00136$
                                   3498 ;E:\Dropbox\FAUSTO\SVILUPPI\MSX\CODE\C\MSXgl\projects\exsoccer/exsoccer_s2_b0.c:636: if (g_Ball.ShotActive && (g_Ball.Direction == DIRECTION_UP || g_Ball.Direction == DIRECTION_UP_LEFT || g_Ball.Direction == DIRECTION_UP_RIGHT)) {
    00000F4D DD 7E FF         [19] 3499 	ld	a, -1 (ix)
    00000F50 B7               [ 4] 3500 	or	a, a
    00000F51 28 12            [12] 3501 	jr	Z, 00136$
    00000F53 3Ar05r00         [13] 3502 	ld	a, (#_g_Ball + 5)
    00000F56 FE 01            [ 7] 3503 	cp	a, #0x01
    00000F58 CAr19r10         [10] 3504 	jp	Z,00160$
    00000F5B FE 08            [ 7] 3505 	cp	a, #0x08
    00000F5D CAr19r10         [10] 3506 	jp	Z,00160$
    00000F60 D6 02            [ 7] 3507 	sub	a, #0x02
                                   3508 ;E:\Dropbox\FAUSTO\SVILUPPI\MSX\CODE\C\MSXgl\projects\exsoccer/exsoccer_s2_b0.c:637: return;
    00000F62 CAr19r10         [10] 3509 	jp	Z,00160$
    00000F65                       3510 00136$:
                                   3511 ;E:\Dropbox\FAUSTO\SVILUPPI\MSX\CODE\C\MSXgl\projects\exsoccer/exsoccer_s2_b0.c:641: u8 teamId = g_Ball.LastTouchTeamId;
    00000F65 3Ar0Er00         [13] 3512 	ld	a, (#_g_Ball + 14)
                                   3513 ;E:\Dropbox\FAUSTO\SVILUPPI\MSX\CODE\C\MSXgl\projects\exsoccer/exsoccer_s2_b0.c:642: if(teamId==NO_VALUE){
    00000F68 DD 77 FC         [19] 3514 	ld	-4 (ix), a
    00000F6B 3C               [ 4] 3515 	inc	a
    00000F6C 20 04            [12] 3516 	jr	NZ, 00138$
                                   3517 ;E:\Dropbox\FAUSTO\SVILUPPI\MSX\CODE\C\MSXgl\projects\exsoccer/exsoccer_s2_b0.c:643: teamId=TEAM_1; // Default
    00000F6E DD 36 FC 01      [19] 3518 	ld	-4 (ix), #0x01
    00000F72                       3519 00138$:
                                   3520 ;E:\Dropbox\FAUSTO\SVILUPPI\MSX\CODE\C\MSXgl\projects\exsoccer/exsoccer_s2_b0.c:645: u8 opponentTeamId = (teamId == TEAM_1) ? TEAM_2 : TEAM_1;
    00000F72 DD 7E FC         [19] 3521 	ld	a, -4 (ix)
    00000F75 3D               [ 4] 3522 	dec	a
    00000F76 3E 01            [ 7] 3523 	ld	a, #0x01
    00000F78 28 01            [12] 3524 	jr	Z, 00326$
    00000F7A AF               [ 4] 3525 	xor	a, a
    00000F7B                       3526 00326$:
    00000F7B DD 77 FD         [19] 3527 	ld	-3 (ix), a
    00000F7E B7               [ 4] 3528 	or	a, a
    00000F7F 28 0B            [12] 3529 	jr	Z, 00162$
    00000F81 DD 36 FE 02      [19] 3530 	ld	-2 (ix), #0x02
    00000F85 DD 36 FF 00      [19] 3531 	ld	-1 (ix), #0
    00000F89 C3r94r0F         [10] 3532 	jp	00163$
    00000F8C                       3533 00162$:
    00000F8C DD 36 FE 01      [19] 3534 	ld	-2 (ix), #0x01
    00000F90 DD 36 FF 00      [19] 3535 	ld	-1 (ix), #0
    00000F94                       3536 00163$:
    00000F94 DD 4E FE         [19] 3537 	ld	c, -2 (ix)
                                   3538 ;E:\Dropbox\FAUSTO\SVILUPPI\MSX\CODE\C\MSXgl\projects\exsoccer/exsoccer_s2_b0.c:653: if(g_Ball.X < FIELD_BOUND_X_LEFT || g_Ball.X > FIELD_BOUND_X_RIGHT){
    00000F97 2Ar02r00         [16] 3539 	ld	hl, (#_g_Ball + 2)
    00000F9A 5D               [ 4] 3540 	ld	e, l
    00000F9B 54               [ 4] 3541 	ld	d, h
    00000F9C 7B               [ 4] 3542 	ld	a, e
    00000F9D D6 0A            [ 7] 3543 	sub	a, #0x0a
    00000F9F 7A               [ 4] 3544 	ld	a, d
    00000FA0 DE 00            [ 7] 3545 	sbc	a, #0x00
    00000FA2 38 08            [12] 3546 	jr	C, 00139$
    00000FA4 3E F6            [ 7] 3547 	ld	a, #0xf6
    00000FA6 BB               [ 4] 3548 	cp	a, e
    00000FA7 3E 00            [ 7] 3549 	ld	a, #0x00
    00000FA9 9A               [ 4] 3550 	sbc	a, d
    00000FAA 30 07            [12] 3551 	jr	NC, 00140$
    00000FAC                       3552 00139$:
                                   3553 ;E:\Dropbox\FAUSTO\SVILUPPI\MSX\CODE\C\MSXgl\projects\exsoccer/exsoccer_s2_b0.c:654: BallThrowIn(opponentTeamId); //GP_USER
    00000FAC 79               [ 4] 3554 	ld	a, c
    00000FAD CDr00r00         [17] 3555 	call	_BallThrowIn
                                   3556 ;E:\Dropbox\FAUSTO\SVILUPPI\MSX\CODE\C\MSXgl\projects\exsoccer/exsoccer_s2_b0.c:656: return;
    00000FB0 C3r19r10         [10] 3557 	jp	00160$
    00000FB3                       3558 00140$:
                                   3559 ;E:\Dropbox\FAUSTO\SVILUPPI\MSX\CODE\C\MSXgl\projects\exsoccer/exsoccer_s2_b0.c:660: if(g_Ball.Y < FIELD_BOUND_Y_TOP){
    00000FB3 DD 7E FA         [19] 3560 	ld	a, -6 (ix)
    00000FB6 B7               [ 4] 3561 	or	a, a
    00000FB7 28 2E            [12] 3562 	jr	Z, 00150$
                                   3563 ;E:\Dropbox\FAUSTO\SVILUPPI\MSX\CODE\C\MSXgl\projects\exsoccer/exsoccer_s2_b0.c:663: if(g_Ball.X > (GOAL_X_MIN - 8) && g_Ball.X < (GOAL_X_MAX + 8)){
    00000FB9 3E 58            [ 7] 3564 	ld	a, #0x58
    00000FBB BD               [ 4] 3565 	cp	a, l
    00000FBC 3E 00            [ 7] 3566 	ld	a, #0x00
    00000FBE 9C               [ 4] 3567 	sbc	a, h
    00000FBF 30 10            [12] 3568 	jr	NC, 00146$
    00000FC1 11 98 00         [10] 3569 	ld	de, #0x0098
    00000FC4 BF               [ 4] 3570 	cp	a, a
    00000FC5 ED 52            [15] 3571 	sbc	hl, de
    00000FC7 30 08            [12] 3572 	jr	NC, 00146$
                                   3573 ;E:\Dropbox\FAUSTO\SVILUPPI\MSX\CODE\C\MSXgl\projects\exsoccer/exsoccer_s2_b0.c:664: BallInGoal(TEAM_1); // Team 1 attacked up and scored
    00000FC9 3E 01            [ 7] 3574 	ld	a, #0x01
    00000FCB CDr00r00         [17] 3575 	call	_BallInGoal
    00000FCE C3r19r10         [10] 3576 	jp	00160$
    00000FD1                       3577 00146$:
                                   3578 ;E:\Dropbox\FAUSTO\SVILUPPI\MSX\CODE\C\MSXgl\projects\exsoccer/exsoccer_s2_b0.c:667: if(teamId == TEAM_1){ // Attacker touched last
    00000FD1 DD 7E FD         [19] 3579 	ld	a, -3 (ix)
    00000FD4 B7               [ 4] 3580 	or	a, a
    00000FD5 28 08            [12] 3581 	jr	Z, 00143$
                                   3582 ;E:\Dropbox\FAUSTO\SVILUPPI\MSX\CODE\C\MSXgl\projects\exsoccer/exsoccer_s2_b0.c:668: GoalKick(TEAM_2);
    00000FD7 3E 02            [ 7] 3583 	ld	a, #0x02
    00000FD9 CDr00r00         [17] 3584 	call	_GoalKick
    00000FDC C3r19r10         [10] 3585 	jp	00160$
    00000FDF                       3586 00143$:
                                   3587 ;E:\Dropbox\FAUSTO\SVILUPPI\MSX\CODE\C\MSXgl\projects\exsoccer/exsoccer_s2_b0.c:671: CornerKick(TEAM_1);
    00000FDF 3E 01            [ 7] 3588 	ld	a, #0x01
    00000FE1 CDr00r00         [17] 3589 	call	_CornerKick
                                   3590 ;E:\Dropbox\FAUSTO\SVILUPPI\MSX\CODE\C\MSXgl\projects\exsoccer/exsoccer_s2_b0.c:674: return;
    00000FE4 C3r19r10         [10] 3591 	jp	00160$
    00000FE7                       3592 00150$:
                                   3593 ;E:\Dropbox\FAUSTO\SVILUPPI\MSX\CODE\C\MSXgl\projects\exsoccer/exsoccer_s2_b0.c:678: if(g_Ball.Y > FIELD_BOUND_Y_BOTTOM){
    00000FE7 DD 7E FB         [19] 3594 	ld	a, -5 (ix)
    00000FEA B7               [ 4] 3595 	or	a, a
    00000FEB 28 2C            [12] 3596 	jr	Z, 00160$
                                   3597 ;E:\Dropbox\FAUSTO\SVILUPPI\MSX\CODE\C\MSXgl\projects\exsoccer/exsoccer_s2_b0.c:680: if(g_Ball.X > (GOAL_X_MIN - 8) && g_Ball.X < (GOAL_X_MAX + 8)){
    00000FED 3E 58            [ 7] 3598 	ld	a, #0x58
    00000FEF BD               [ 4] 3599 	cp	a, l
    00000FF0 3E 00            [ 7] 3600 	ld	a, #0x00
    00000FF2 9C               [ 4] 3601 	sbc	a, h
    00000FF3 30 10            [12] 3602 	jr	NC, 00155$
    00000FF5 11 98 00         [10] 3603 	ld	de, #0x0098
    00000FF8 BF               [ 4] 3604 	cp	a, a
    00000FF9 ED 52            [15] 3605 	sbc	hl, de
    00000FFB 30 08            [12] 3606 	jr	NC, 00155$
                                   3607 ;E:\Dropbox\FAUSTO\SVILUPPI\MSX\CODE\C\MSXgl\projects\exsoccer/exsoccer_s2_b0.c:681: BallInGoal(TEAM_2); // Team 2 attacked down and scored
    00000FFD 3E 02            [ 7] 3608 	ld	a, #0x02
    00000FFF CDr00r00         [17] 3609 	call	_BallInGoal
    00001002 C3r19r10         [10] 3610 	jp	00156$
    00001005                       3611 00155$:
                                   3612 ;E:\Dropbox\FAUSTO\SVILUPPI\MSX\CODE\C\MSXgl\projects\exsoccer/exsoccer_s2_b0.c:684: if(teamId == TEAM_2){ // Attacker touched last (Team 2 attacking down)
    00001005 DD 7E FC         [19] 3613 	ld	a, -4 (ix)
    00001008 D6 02            [ 7] 3614 	sub	a, #0x02
    0000100A 20 08            [12] 3615 	jr	NZ, 00152$
                                   3616 ;E:\Dropbox\FAUSTO\SVILUPPI\MSX\CODE\C\MSXgl\projects\exsoccer/exsoccer_s2_b0.c:685: GoalKick(TEAM_1);
    0000100C 3E 01            [ 7] 3617 	ld	a, #0x01
    0000100E CDr00r00         [17] 3618 	call	_GoalKick
    00001011 C3r19r10         [10] 3619 	jp	00156$
    00001014                       3620 00152$:
                                   3621 ;E:\Dropbox\FAUSTO\SVILUPPI\MSX\CODE\C\MSXgl\projects\exsoccer/exsoccer_s2_b0.c:688: CornerKick(TEAM_2);
    00001014 3E 02            [ 7] 3622 	ld	a, #0x02
    00001016 CDr00r00         [17] 3623 	call	_CornerKick
    00001019                       3624 00156$:
                                   3625 ;E:\Dropbox\FAUSTO\SVILUPPI\MSX\CODE\C\MSXgl\projects\exsoccer/exsoccer_s2_b0.c:691: return;
    00001019                       3626 00160$:
                                   3627 ;E:\Dropbox\FAUSTO\SVILUPPI\MSX\CODE\C\MSXgl\projects\exsoccer/exsoccer_s2_b0.c:693: }
    00001019 DD F9            [10] 3628 	ld	sp, ix
    0000101B DD E1            [14] 3629 	pop	ix
    0000101D C9               [10] 3630 	ret
                                   3631 ;E:\Dropbox\FAUSTO\SVILUPPI\MSX\CODE\C\MSXgl\projects\exsoccer/exsoccer_s2_b0.c:697: void TimeUp(){
                                   3632 ;	---------------------------------
                                   3633 ; Function TimeUp
                                   3634 ; ---------------------------------
    0000101E                       3635 _TimeUp::
                                   3636 ;E:\Dropbox\FAUSTO\SVILUPPI\MSX\CODE\C\MSXgl\projects\exsoccer/exsoccer_s2_b0.c:699: }
    0000101E C9               [10] 3637 	ret
                                   3638 ;E:\Dropbox\FAUSTO\SVILUPPI\MSX\CODE\C\MSXgl\projects\exsoccer/exsoccer_s2_b0.c:701: u8 GetClosestPlayerToBall(u8 teamId, u8 excludePlayerId){
                                   3639 ;	---------------------------------
                                   3640 ; Function GetClosestPlayerToBall
                                   3641 ; ---------------------------------
    0000101F                       3642 _GetClosestPlayerToBall::
    0000101F DD E5            [15] 3643 	push	ix
    00001021 DD 21 00 00      [14] 3644 	ld	ix,#0
    00001025 DD 39            [15] 3645 	add	ix,sp
    00001027 FD 21 F2 FF      [14] 3646 	ld	iy, #-14
    0000102B FD 39            [15] 3647 	add	iy, sp
    0000102D FD F9            [10] 3648 	ld	sp, iy
    0000102F DD 77 FE         [19] 3649 	ld	-2 (ix), a
    00001032 DD 75 FD         [19] 3650 	ld	-3 (ix), l
                                   3651 ;E:\Dropbox\FAUSTO\SVILUPPI\MSX\CODE\C\MSXgl\projects\exsoccer/exsoccer_s2_b0.c:702: u8 closestId = NO_VALUE;
    00001035 DD 36 F4 FF      [19] 3652 	ld	-12 (ix), #0xff
                                   3653 ;E:\Dropbox\FAUSTO\SVILUPPI\MSX\CODE\C\MSXgl\projects\exsoccer/exsoccer_s2_b0.c:703: u16 minDist = 0xFFFF;
    00001039 DD 36 F5 FF      [19] 3654 	ld	-11 (ix), #0xff
    0000103D DD 36 F6 FF      [19] 3655 	ld	-10 (ix), #0xff
                                   3656 ;E:\Dropbox\FAUSTO\SVILUPPI\MSX\CODE\C\MSXgl\projects\exsoccer/exsoccer_s2_b0.c:705: for(u8 i=0;i<14;i++){
    00001041 21r02r00         [10] 3657 	ld	hl, #_g_Ball + 2
    00001044 7E               [ 7] 3658 	ld	a, (hl)
    00001045 DD 77 F7         [19] 3659 	ld	-9 (ix), a
    00001048 23               [ 6] 3660 	inc	hl
    00001049 7E               [ 7] 3661 	ld	a, (hl)
    0000104A DD 77 F8         [19] 3662 	ld	-8 (ix), a
    0000104D DD 36 FF 00      [19] 3663 	ld	-1 (ix), #0x00
    00001051                       3664 00110$:
    00001051 DD 7E FF         [19] 3665 	ld	a, -1 (ix)
    00001054 D6 0E            [ 7] 3666 	sub	a, #0x0e
    00001056 D2r3Ar11         [10] 3667 	jp	NC, 00108$
                                   3668 ;E:\Dropbox\FAUSTO\SVILUPPI\MSX\CODE\C\MSXgl\projects\exsoccer/exsoccer_s2_b0.c:706: if(g_Players[i].TeamId != teamId) continue;
    00001059 DD 4E FF         [19] 3669 	ld	c, -1 (ix)
    0000105C 06 00            [ 7] 3670 	ld	b, #0x00
    0000105E 69               [ 4] 3671 	ld	l, c
    0000105F 60               [ 4] 3672 	ld	h, b
    00001060 29               [11] 3673 	add	hl, hl
    00001061 29               [11] 3674 	add	hl, hl
    00001062 09               [11] 3675 	add	hl, bc
    00001063 29               [11] 3676 	add	hl, hl
    00001064 29               [11] 3677 	add	hl, hl
    00001065 09               [11] 3678 	add	hl, bc
    00001066 DD 75 FB         [19] 3679 	ld	-5 (ix), l
    00001069 DD 74 FC         [19] 3680 	ld	-4 (ix), h
    0000106C DD 7E FB         [19] 3681 	ld	a, -5 (ix)
    0000106F C6r00            [ 7] 3682 	add	a, #<(_g_Players)
    00001071 DD 77 F9         [19] 3683 	ld	-7 (ix), a
    00001074 DD 7E FC         [19] 3684 	ld	a, -4 (ix)
    00001077 CEs00            [ 7] 3685 	adc	a, #>(_g_Players)
    00001079 DD 77 FA         [19] 3686 	ld	-6 (ix), a
    0000107C DD 7E F9         [19] 3687 	ld	a, -7 (ix)
    0000107F DD 77 FB         [19] 3688 	ld	-5 (ix), a
    00001082 DD 7E FA         [19] 3689 	ld	a, -6 (ix)
    00001085 DD 77 FC         [19] 3690 	ld	-4 (ix), a
    00001088 DD 6E FB         [19] 3691 	ld	l, -5 (ix)
    0000108B DD 66 FC         [19] 3692 	ld	h, -4 (ix)
    0000108E 11 09 00         [10] 3693 	ld	de, #0x0009
    00001091 19               [11] 3694 	add	hl, de
    00001092 DD 7E FE         [19] 3695 	ld	a,-2 (ix)
    00001095 96               [ 7] 3696 	sub	a,(hl)
    00001096 C2r34r11         [10] 3697 	jp	NZ,00107$
                                   3698 ;E:\Dropbox\FAUSTO\SVILUPPI\MSX\CODE\C\MSXgl\projects\exsoccer/exsoccer_s2_b0.c:707: if(i == excludePlayerId) continue;
    00001099 DD 7E FD         [19] 3699 	ld	a, -3 (ix)
    0000109C DD 96 FF         [19] 3700 	sub	a, -1 (ix)
    0000109F CAr34r11         [10] 3701 	jp	Z,00107$
                                   3702 ;E:\Dropbox\FAUSTO\SVILUPPI\MSX\CODE\C\MSXgl\projects\exsoccer/exsoccer_s2_b0.c:709: u16 distX = (g_Players[i].X > g_Ball.X) ? (g_Players[i].X - g_Ball.X) : (g_Ball.X - g_Players[i].X);
    000010A2 DD 6E F9         [19] 3703 	ld	l, -7 (ix)
                                   3704 ;	spillPairReg hl
                                   3705 ;	spillPairReg hl
    000010A5 DD 66 FA         [19] 3706 	ld	h, -6 (ix)
                                   3707 ;	spillPairReg hl
                                   3708 ;	spillPairReg hl
    000010A8 23               [ 6] 3709 	inc	hl
    000010A9 23               [ 6] 3710 	inc	hl
    000010AA 7E               [ 7] 3711 	ld	a, (hl)
    000010AB DD 77 F2         [19] 3712 	ld	-14 (ix), a
    000010AE 23               [ 6] 3713 	inc	hl
    000010AF 7E               [ 7] 3714 	ld	a, (hl)
    000010B0 DD 77 F3         [19] 3715 	ld	-13 (ix), a
    000010B3 DD 7E F7         [19] 3716 	ld	a, -9 (ix)
    000010B6 DD 96 F2         [19] 3717 	sub	a, -14 (ix)
    000010B9 DD 7E F8         [19] 3718 	ld	a, -8 (ix)
    000010BC DD 9E F3         [19] 3719 	sbc	a, -13 (ix)
    000010BF 30 15            [12] 3720 	jr	NC, 00113$
    000010C1 DD 7E F2         [19] 3721 	ld	a, -14 (ix)
    000010C4 DD 96 F7         [19] 3722 	sub	a, -9 (ix)
    000010C7 DD 77 FB         [19] 3723 	ld	-5 (ix), a
    000010CA DD 7E F3         [19] 3724 	ld	a, -13 (ix)
    000010CD DD 9E F8         [19] 3725 	sbc	a, -8 (ix)
    000010D0 DD 77 FC         [19] 3726 	ld	-4 (ix), a
    000010D3 C3rE8r10         [10] 3727 	jp	00114$
    000010D6                       3728 00113$:
    000010D6 DD 7E F7         [19] 3729 	ld	a, -9 (ix)
    000010D9 DD 96 F2         [19] 3730 	sub	a, -14 (ix)
    000010DC DD 77 FB         [19] 3731 	ld	-5 (ix), a
    000010DF DD 7E F8         [19] 3732 	ld	a, -8 (ix)
    000010E2 DD 9E F3         [19] 3733 	sbc	a, -13 (ix)
    000010E5 DD 77 FC         [19] 3734 	ld	-4 (ix), a
    000010E8                       3735 00114$:
                                   3736 ;E:\Dropbox\FAUSTO\SVILUPPI\MSX\CODE\C\MSXgl\projects\exsoccer/exsoccer_s2_b0.c:710: u16 distY = (g_Players[i].Y > g_Ball.Y) ? (g_Players[i].Y - g_Ball.Y) : (g_Ball.Y - g_Players[i].Y);
    000010E8 DD 6E F9         [19] 3737 	ld	l, -7 (ix)
    000010EB DD 66 FA         [19] 3738 	ld	h, -6 (ix)
    000010EE 4E               [ 7] 3739 	ld	c, (hl)
    000010EF 23               [ 6] 3740 	inc	hl
    000010F0 46               [ 7] 3741 	ld	b, (hl)
    000010F1 2Ar00r00         [16] 3742 	ld	hl, (#_g_Ball + 0)
    000010F4 7D               [ 4] 3743 	ld	a, l
    000010F5 91               [ 4] 3744 	sub	a, c
    000010F6 7C               [ 4] 3745 	ld	a, h
    000010F7 98               [ 4] 3746 	sbc	a, b
    000010F8 30 0D            [12] 3747 	jr	NC, 00115$
    000010FA 79               [ 4] 3748 	ld	a, c
    000010FB 95               [ 4] 3749 	sub	a, l
    000010FC DD 77 F9         [19] 3750 	ld	-7 (ix), a
    000010FF 78               [ 4] 3751 	ld	a, b
    00001100 9C               [ 4] 3752 	sbc	a, h
    00001101 DD 77 FA         [19] 3753 	ld	-6 (ix), a
    00001104 C3r11r11         [10] 3754 	jp	00116$
    00001107                       3755 00115$:
    00001107 7D               [ 4] 3756 	ld	a, l
    00001108 91               [ 4] 3757 	sub	a, c
    00001109 DD 77 F9         [19] 3758 	ld	-7 (ix), a
    0000110C 7C               [ 4] 3759 	ld	a, h
    0000110D 98               [ 4] 3760 	sbc	a, b
    0000110E DD 77 FA         [19] 3761 	ld	-6 (ix), a
    00001111                       3762 00116$:
    00001111 DD 4E F9         [19] 3763 	ld	c, -7 (ix)
    00001114 DD 46 FA         [19] 3764 	ld	b, -6 (ix)
                                   3765 ;E:\Dropbox\FAUSTO\SVILUPPI\MSX\CODE\C\MSXgl\projects\exsoccer/exsoccer_s2_b0.c:713: u16 totalDist = distX + distY;
    00001117 DD 6E FB         [19] 3766 	ld	l, -5 (ix)
    0000111A DD 66 FC         [19] 3767 	ld	h, -4 (ix)
    0000111D 09               [11] 3768 	add	hl, bc
                                   3769 ;E:\Dropbox\FAUSTO\SVILUPPI\MSX\CODE\C\MSXgl\projects\exsoccer/exsoccer_s2_b0.c:715: if(totalDist < minDist){
    0000111E 7D               [ 4] 3770 	ld	a, l
    0000111F DD 96 F5         [19] 3771 	sub	a, -11 (ix)
    00001122 7C               [ 4] 3772 	ld	a, h
    00001123 DD 9E F6         [19] 3773 	sbc	a, -10 (ix)
    00001126 30 0C            [12] 3774 	jr	NC, 00107$
                                   3775 ;E:\Dropbox\FAUSTO\SVILUPPI\MSX\CODE\C\MSXgl\projects\exsoccer/exsoccer_s2_b0.c:716: minDist = totalDist;
    00001128 DD 75 F5         [19] 3776 	ld	-11 (ix), l
    0000112B DD 74 F6         [19] 3777 	ld	-10 (ix), h
                                   3778 ;E:\Dropbox\FAUSTO\SVILUPPI\MSX\CODE\C\MSXgl\projects\exsoccer/exsoccer_s2_b0.c:717: closestId = i;
    0000112E DD 7E FF         [19] 3779 	ld	a, -1 (ix)
    00001131 DD 77 F4         [19] 3780 	ld	-12 (ix), a
    00001134                       3781 00107$:
                                   3782 ;E:\Dropbox\FAUSTO\SVILUPPI\MSX\CODE\C\MSXgl\projects\exsoccer/exsoccer_s2_b0.c:705: for(u8 i=0;i<14;i++){
    00001134 DD 34 FF         [23] 3783 	inc	-1 (ix)
    00001137 C3r51r10         [10] 3784 	jp	00110$
    0000113A                       3785 00108$:
                                   3786 ;E:\Dropbox\FAUSTO\SVILUPPI\MSX\CODE\C\MSXgl\projects\exsoccer/exsoccer_s2_b0.c:720: return closestId;
    0000113A DD 7E F4         [19] 3787 	ld	a, -12 (ix)
                                   3788 ;E:\Dropbox\FAUSTO\SVILUPPI\MSX\CODE\C\MSXgl\projects\exsoccer/exsoccer_s2_b0.c:721: }
    0000113D DD F9            [10] 3789 	ld	sp, ix
    0000113F DD E1            [14] 3790 	pop	ix
    00001141 C9               [10] 3791 	ret
                                   3792 ;E:\Dropbox\FAUSTO\SVILUPPI\MSX\CODE\C\MSXgl\projects\exsoccer/exsoccer_s2_b0.c:727: i32 Math_Abs32(i32 v) { return (v < 0) ? -v : v; }
                                   3793 ;	---------------------------------
                                   3794 ; Function Math_Abs32
                                   3795 ; ---------------------------------
    00001142                       3796 _Math_Abs32::
    00001142 4D               [ 4] 3797 	ld	c, l
    00001143 44               [ 4] 3798 	ld	b, h
    00001144 CB 78            [ 8] 3799 	bit	7, b
    00001146 28 0D            [12] 3800 	jr	Z, 00103$
    00001148 21 00 00         [10] 3801 	ld	hl, #0x0000
    0000114B BF               [ 4] 3802 	cp	a, a
    0000114C ED 52            [15] 3803 	sbc	hl, de
    0000114E EB               [ 4] 3804 	ex	de, hl
    0000114F 21 00 00         [10] 3805 	ld	hl, #0x0000
    00001152 ED 42            [15] 3806 	sbc	hl, bc
    00001154 C9               [10] 3807 	ret
    00001155                       3808 00103$:
    00001155 69               [ 4] 3809 	ld	l, c
                                   3810 ;	spillPairReg hl
                                   3811 ;	spillPairReg hl
    00001156 60               [ 4] 3812 	ld	h, b
                                   3813 ;	spillPairReg hl
                                   3814 ;	spillPairReg hl
    00001157 C9               [10] 3815 	ret
                                   3816 ;E:\Dropbox\FAUSTO\SVILUPPI\MSX\CODE\C\MSXgl\projects\exsoccer/exsoccer_s2_b0.c:729: u8 GetBestPassTarget(u8 passerId) {
                                   3817 ;	---------------------------------
                                   3818 ; Function GetBestPassTarget
                                   3819 ; ---------------------------------
    00001158                       3820 _GetBestPassTarget::
    00001158 DD E5            [15] 3821 	push	ix
    0000115A DD 21 00 00      [14] 3822 	ld	ix,#0
    0000115E DD 39            [15] 3823 	add	ix,sp
    00001160 21 D6 FF         [10] 3824 	ld	hl, #-42
    00001163 39               [11] 3825 	add	hl, sp
    00001164 F9               [ 6] 3826 	ld	sp, hl
    00001165 DD 77 FE         [19] 3827 	ld	-2 (ix), a
                                   3828 ;E:\Dropbox\FAUSTO\SVILUPPI\MSX\CODE\C\MSXgl\projects\exsoccer/exsoccer_s2_b0.c:730: u8 bestTarget = NO_VALUE;
    00001168 DD 36 D6 FF      [19] 3829 	ld	-42 (ix), #0xff
                                   3830 ;E:\Dropbox\FAUSTO\SVILUPPI\MSX\CODE\C\MSXgl\projects\exsoccer/exsoccer_s2_b0.c:731: i32 bestScore = -2100000000;
    0000116C DD 36 D7 00      [19] 3831 	ld	-41 (ix), #0x00
    00001170 DD 36 D8 8B      [19] 3832 	ld	-40 (ix), #0x8b
    00001174 DD 36 D9 D4      [19] 3833 	ld	-39 (ix), #0xd4
    00001178 DD 36 DA 82      [19] 3834 	ld	-38 (ix), #0x82
                                   3835 ;E:\Dropbox\FAUSTO\SVILUPPI\MSX\CODE\C\MSXgl\projects\exsoccer/exsoccer_s2_b0.c:732: u8 teamId = g_Players[passerId].TeamId;
    0000117C DD 4E FE         [19] 3836 	ld	c, -2 (ix)
    0000117F 06 00            [ 7] 3837 	ld	b, #0x00
    00001181 69               [ 4] 3838 	ld	l, c
    00001182 60               [ 4] 3839 	ld	h, b
    00001183 29               [11] 3840 	add	hl, hl
    00001184 29               [11] 3841 	add	hl, hl
    00001185 09               [11] 3842 	add	hl, bc
    00001186 29               [11] 3843 	add	hl, hl
    00001187 29               [11] 3844 	add	hl, hl
    00001188 09               [11] 3845 	add	hl, bc
    00001189 11r00r00         [10] 3846 	ld	de, #_g_Players
    0000118C 19               [11] 3847 	add	hl, de
    0000118D DD 75 FC         [19] 3848 	ld	-4 (ix), l
    00001190 DD 74 FD         [19] 3849 	ld	-3 (ix), h
    00001193 01 09 00         [10] 3850 	ld	bc,#9
    00001196 09               [11] 3851 	add	hl,bc
    00001197 7E               [ 7] 3852 	ld	a, (hl)
    00001198 DD 77 DB         [19] 3853 	ld	-37 (ix), a
                                   3854 ;E:\Dropbox\FAUSTO\SVILUPPI\MSX\CODE\C\MSXgl\projects\exsoccer/exsoccer_s2_b0.c:733: u8 dir = g_Players[passerId].Direction;
    0000119B DD 4E FC         [19] 3855 	ld	c, -4 (ix)
    0000119E DD 46 FD         [19] 3856 	ld	b, -3 (ix)
    000011A1 21 0A 00         [10] 3857 	ld	hl, #10
    000011A4 09               [11] 3858 	add	hl, bc
    000011A5 7E               [ 7] 3859 	ld	a, (hl)
    000011A6 DD 77 FF         [19] 3860 	ld	-1 (ix), a
                                   3861 ;E:\Dropbox\FAUSTO\SVILUPPI\MSX\CODE\C\MSXgl\projects\exsoccer/exsoccer_s2_b0.c:734: i16 px = (i16)g_Players[passerId].X;
    000011A9 DD 6E FC         [19] 3862 	ld	l, -4 (ix)
                                   3863 ;	spillPairReg hl
                                   3864 ;	spillPairReg hl
    000011AC DD 66 FD         [19] 3865 	ld	h, -3 (ix)
                                   3866 ;	spillPairReg hl
                                   3867 ;	spillPairReg hl
    000011AF 23               [ 6] 3868 	inc	hl
    000011B0 23               [ 6] 3869 	inc	hl
    000011B1 4E               [ 7] 3870 	ld	c, (hl)
    000011B2 23               [ 6] 3871 	inc	hl
    000011B3 7E               [ 7] 3872 	ld	a, (hl)
    000011B4 DD 71 DC         [19] 3873 	ld	-36 (ix), c
    000011B7 DD 77 DD         [19] 3874 	ld	-35 (ix), a
                                   3875 ;E:\Dropbox\FAUSTO\SVILUPPI\MSX\CODE\C\MSXgl\projects\exsoccer/exsoccer_s2_b0.c:735: i16 py = (i16)g_Players[passerId].Y;
    000011BA DD 6E FC         [19] 3876 	ld	l, -4 (ix)
    000011BD DD 66 FD         [19] 3877 	ld	h, -3 (ix)
    000011C0 4E               [ 7] 3878 	ld	c, (hl)
    000011C1 23               [ 6] 3879 	inc	hl
    000011C2 7E               [ 7] 3880 	ld	a, (hl)
    000011C3 DD 71 DE         [19] 3881 	ld	-34 (ix), c
    000011C6 DD 77 DF         [19] 3882 	ld	-33 (ix), a
                                   3883 ;E:\Dropbox\FAUSTO\SVILUPPI\MSX\CODE\C\MSXgl\projects\exsoccer/exsoccer_s2_b0.c:738: i16 dirX = 0, dirY = 0;
    000011C9 AF               [ 4] 3884 	xor	a, a
    000011CA DD 77 E0         [19] 3885 	ld	-32 (ix), a
    000011CD DD 77 E1         [19] 3886 	ld	-31 (ix), a
    000011D0 AF               [ 4] 3887 	xor	a, a
    000011D1 DD 77 E2         [19] 3888 	ld	-30 (ix), a
    000011D4 DD 77 E3         [19] 3889 	ld	-29 (ix), a
                                   3890 ;E:\Dropbox\FAUSTO\SVILUPPI\MSX\CODE\C\MSXgl\projects\exsoccer/exsoccer_s2_b0.c:741: if (dir == DIRECTION_NONE) dir = g_Players[passerId].PreviousDirection;
    000011D7 DD 7E FF         [19] 3891 	ld	a, -1 (ix)
    000011DA B7               [ 4] 3892 	or	a, a
    000011DB 20 1A            [12] 3893 	jr	NZ, 00102$
    000011DD DD 7E FC         [19] 3894 	ld	a, -4 (ix)
    000011E0 DD 77 FA         [19] 3895 	ld	-6 (ix), a
    000011E3 DD 7E FD         [19] 3896 	ld	a, -3 (ix)
    000011E6 DD 77 FB         [19] 3897 	ld	-5 (ix), a
    000011E9 DD 6E FA         [19] 3898 	ld	l, -6 (ix)
    000011EC DD 66 FB         [19] 3899 	ld	h, -5 (ix)
    000011EF 11 0B 00         [10] 3900 	ld	de, #0x000b
    000011F2 19               [11] 3901 	add	hl, de
    000011F3 7E               [ 7] 3902 	ld	a, (hl)
    000011F4 DD 77 FF         [19] 3903 	ld	-1 (ix), a
    000011F7                       3904 00102$:
                                   3905 ;E:\Dropbox\FAUSTO\SVILUPPI\MSX\CODE\C\MSXgl\projects\exsoccer/exsoccer_s2_b0.c:743: if (dir == DIRECTION_UP) dirY = -100;
    000011F7 DD 7E FF         [19] 3906 	ld	a, -1 (ix)
    000011FA 3D               [ 4] 3907 	dec	a
    000011FB 20 0B            [12] 3908 	jr	NZ, 00128$
    000011FD DD 36 E2 9C      [19] 3909 	ld	-30 (ix), #0x9c
    00001201 DD 36 E3 FF      [19] 3910 	ld	-29 (ix), #0xff
    00001205 C3rBFr12         [10] 3911 	jp	00202$
    00001208                       3912 00128$:
                                   3913 ;E:\Dropbox\FAUSTO\SVILUPPI\MSX\CODE\C\MSXgl\projects\exsoccer/exsoccer_s2_b0.c:744: else if (dir == DIRECTION_DOWN) dirY = 100;
    00001208 DD 7E FF         [19] 3914 	ld	a, -1 (ix)
    0000120B D6 05            [ 7] 3915 	sub	a, #0x05
    0000120D 20 0B            [12] 3916 	jr	NZ, 00125$
    0000120F DD 36 E2 64      [19] 3917 	ld	-30 (ix), #0x64
    00001213 DD 36 E3 00      [19] 3918 	ld	-29 (ix), #0
    00001217 C3rBFr12         [10] 3919 	jp	00202$
    0000121A                       3920 00125$:
                                   3921 ;E:\Dropbox\FAUSTO\SVILUPPI\MSX\CODE\C\MSXgl\projects\exsoccer/exsoccer_s2_b0.c:745: else if (dir == DIRECTION_LEFT) dirX = -100;
    0000121A DD 7E FF         [19] 3922 	ld	a, -1 (ix)
    0000121D D6 07            [ 7] 3923 	sub	a, #0x07
    0000121F 20 0B            [12] 3924 	jr	NZ, 00122$
    00001221 DD 36 E0 9C      [19] 3925 	ld	-32 (ix), #0x9c
    00001225 DD 36 E1 FF      [19] 3926 	ld	-31 (ix), #0xff
    00001229 C3rBFr12         [10] 3927 	jp	00202$
    0000122C                       3928 00122$:
                                   3929 ;E:\Dropbox\FAUSTO\SVILUPPI\MSX\CODE\C\MSXgl\projects\exsoccer/exsoccer_s2_b0.c:746: else if (dir == DIRECTION_RIGHT) dirX = 100;
    0000122C DD 7E FF         [19] 3930 	ld	a, -1 (ix)
    0000122F D6 03            [ 7] 3931 	sub	a, #0x03
    00001231 20 0B            [12] 3932 	jr	NZ, 00119$
    00001233 DD 36 E0 64      [19] 3933 	ld	-32 (ix), #0x64
    00001237 DD 36 E1 00      [19] 3934 	ld	-31 (ix), #0
    0000123B C3rBFr12         [10] 3935 	jp	00202$
    0000123E                       3936 00119$:
                                   3937 ;E:\Dropbox\FAUSTO\SVILUPPI\MSX\CODE\C\MSXgl\projects\exsoccer/exsoccer_s2_b0.c:747: else if (dir == DIRECTION_UP_RIGHT) { dirX = 70; dirY = -70; }
    0000123E DD 7E FF         [19] 3938 	ld	a, -1 (ix)
    00001241 D6 02            [ 7] 3939 	sub	a, #0x02
    00001243 20 13            [12] 3940 	jr	NZ, 00116$
    00001245 DD 36 E0 46      [19] 3941 	ld	-32 (ix), #0x46
    00001249 AF               [ 4] 3942 	xor	a, a
    0000124A DD 77 E1         [19] 3943 	ld	-31 (ix), a
    0000124D DD 36 E2 BA      [19] 3944 	ld	-30 (ix), #0xba
    00001251 DD 36 E3 FF      [19] 3945 	ld	-29 (ix), #0xff
    00001255 C3rBFr12         [10] 3946 	jp	00202$
    00001258                       3947 00116$:
                                   3948 ;E:\Dropbox\FAUSTO\SVILUPPI\MSX\CODE\C\MSXgl\projects\exsoccer/exsoccer_s2_b0.c:748: else if (dir == DIRECTION_UP_LEFT) { dirX = -70; dirY = -70; }
    00001258 DD 7E FF         [19] 3949 	ld	a, -1 (ix)
    0000125B D6 08            [ 7] 3950 	sub	a, #0x08
    0000125D 20 13            [12] 3951 	jr	NZ, 00113$
    0000125F DD 36 E0 BA      [19] 3952 	ld	-32 (ix), #0xba
    00001263 DD 36 E1 FF      [19] 3953 	ld	-31 (ix), #0xff
    00001267 DD 36 E2 BA      [19] 3954 	ld	-30 (ix), #0xba
    0000126B DD 36 E3 FF      [19] 3955 	ld	-29 (ix), #0xff
    0000126F C3rBFr12         [10] 3956 	jp	00202$
    00001272                       3957 00113$:
                                   3958 ;E:\Dropbox\FAUSTO\SVILUPPI\MSX\CODE\C\MSXgl\projects\exsoccer/exsoccer_s2_b0.c:749: else if (dir == DIRECTION_DOWN_RIGHT) { dirX = 70; dirY = 70; }
    00001272 DD 7E FF         [19] 3959 	ld	a, -1 (ix)
    00001275 D6 04            [ 7] 3960 	sub	a, #0x04
    00001277 20 13            [12] 3961 	jr	NZ, 00110$
    00001279 DD 36 E0 46      [19] 3962 	ld	-32 (ix), #0x46
    0000127D DD 36 E1 00      [19] 3963 	ld	-31 (ix), #0
    00001281 DD 36 E2 46      [19] 3964 	ld	-30 (ix), #0x46
    00001285 DD 36 E3 00      [19] 3965 	ld	-29 (ix), #0
    00001289 C3rBFr12         [10] 3966 	jp	00202$
    0000128C                       3967 00110$:
                                   3968 ;E:\Dropbox\FAUSTO\SVILUPPI\MSX\CODE\C\MSXgl\projects\exsoccer/exsoccer_s2_b0.c:750: else if (dir == DIRECTION_DOWN_LEFT) { dirX = -70; dirY = 70; }
    0000128C DD 7E FF         [19] 3969 	ld	a, -1 (ix)
    0000128F D6 06            [ 7] 3970 	sub	a, #0x06
    00001291 20 13            [12] 3971 	jr	NZ, 00107$
    00001293 DD 36 E0 BA      [19] 3972 	ld	-32 (ix), #0xba
    00001297 DD 36 E1 FF      [19] 3973 	ld	-31 (ix), #0xff
    0000129B DD 36 E2 46      [19] 3974 	ld	-30 (ix), #0x46
    0000129F DD 36 E3 00      [19] 3975 	ld	-29 (ix), #0
    000012A3 C3rBFr12         [10] 3976 	jp	00202$
    000012A6                       3977 00107$:
                                   3978 ;E:\Dropbox\FAUSTO\SVILUPPI\MSX\CODE\C\MSXgl\projects\exsoccer/exsoccer_s2_b0.c:752: if (teamId == TEAM_1) dirY = -100; 
    000012A6 DD 7E DB         [19] 3979 	ld	a, -37 (ix)
    000012A9 3D               [ 4] 3980 	dec	a
    000012AA 20 0B            [12] 3981 	jr	NZ, 00104$
    000012AC DD 36 E2 9C      [19] 3982 	ld	-30 (ix), #0x9c
    000012B0 DD 36 E3 FF      [19] 3983 	ld	-29 (ix), #0xff
    000012B4 C3rBFr12         [10] 3984 	jp	00202$
    000012B7                       3985 00104$:
                                   3986 ;E:\Dropbox\FAUSTO\SVILUPPI\MSX\CODE\C\MSXgl\projects\exsoccer/exsoccer_s2_b0.c:753: else dirY = 100; 
    000012B7 DD 36 E2 64      [19] 3987 	ld	-30 (ix), #0x64
    000012BB DD 36 E3 00      [19] 3988 	ld	-29 (ix), #0
                                   3989 ;E:\Dropbox\FAUSTO\SVILUPPI\MSX\CODE\C\MSXgl\projects\exsoccer/exsoccer_s2_b0.c:756: for(i=0; i<14; i++) {
    000012BF                       3990 00202$:
    000012BF DD 7E FC         [19] 3991 	ld	a, -4 (ix)
    000012C2 DD 77 E4         [19] 3992 	ld	-28 (ix), a
    000012C5 DD 7E FD         [19] 3993 	ld	a, -3 (ix)
    000012C8 DD 77 E5         [19] 3994 	ld	-27 (ix), a
    000012CB DD 36 FF 00      [19] 3995 	ld	-1 (ix), #0x00
    000012CF                       3996 00169$:
                                   3997 ;E:\Dropbox\FAUSTO\SVILUPPI\MSX\CODE\C\MSXgl\projects\exsoccer/exsoccer_s2_b0.c:761: if(g_Players[i].TeamId != teamId) continue;
    000012CF DD 4E FF         [19] 3998 	ld	c, -1 (ix)
    000012D2 06 00            [ 7] 3999 	ld	b, #0x00
    000012D4 69               [ 4] 4000 	ld	l, c
    000012D5 60               [ 4] 4001 	ld	h, b
    000012D6 29               [11] 4002 	add	hl, hl
    000012D7 29               [11] 4003 	add	hl, hl
    000012D8 09               [11] 4004 	add	hl, bc
    000012D9 29               [11] 4005 	add	hl, hl
    000012DA 29               [11] 4006 	add	hl, hl
    000012DB 09               [11] 4007 	add	hl, bc
    000012DC DD 75 FC         [19] 4008 	ld	-4 (ix), l
    000012DF DD 74 FD         [19] 4009 	ld	-3 (ix), h
    000012E2 DD 7E FC         [19] 4010 	ld	a, -4 (ix)
    000012E5 C6r00            [ 7] 4011 	add	a, #<(_g_Players)
    000012E7 DD 77 FA         [19] 4012 	ld	-6 (ix), a
    000012EA DD 7E FD         [19] 4013 	ld	a, -3 (ix)
    000012ED CEs00            [ 7] 4014 	adc	a, #>(_g_Players)
    000012EF DD 77 FB         [19] 4015 	ld	-5 (ix), a
    000012F2 DD 7E FA         [19] 4016 	ld	a, -6 (ix)
    000012F5 DD 77 FC         [19] 4017 	ld	-4 (ix), a
    000012F8 DD 7E FB         [19] 4018 	ld	a, -5 (ix)
    000012FB DD 77 FD         [19] 4019 	ld	-3 (ix), a
    000012FE DD 6E FC         [19] 4020 	ld	l, -4 (ix)
    00001301 DD 66 FD         [19] 4021 	ld	h, -3 (ix)
    00001304 11 09 00         [10] 4022 	ld	de, #0x0009
    00001307 19               [11] 4023 	add	hl, de
    00001308 DD 7E DB         [19] 4024 	ld	a,-37 (ix)
    0000130B 96               [ 7] 4025 	sub	a,(hl)
    0000130C C2r83r16         [10] 4026 	jp	NZ,00150$
                                   4027 ;E:\Dropbox\FAUSTO\SVILUPPI\MSX\CODE\C\MSXgl\projects\exsoccer/exsoccer_s2_b0.c:762: if(i == passerId) continue;
    0000130F DD 7E FE         [19] 4028 	ld	a, -2 (ix)
    00001312 DD 96 FF         [19] 4029 	sub	a, -1 (ix)
    00001315 CAr83r16         [10] 4030 	jp	Z,00150$
                                   4031 ;E:\Dropbox\FAUSTO\SVILUPPI\MSX\CODE\C\MSXgl\projects\exsoccer/exsoccer_s2_b0.c:764: if(g_Players[i].Role == PLAYER_ROLE_GOALKEEPER) continue; 
    00001318 DD 7E FA         [19] 4032 	ld	a, -6 (ix)
    0000131B DD 77 FC         [19] 4033 	ld	-4 (ix), a
    0000131E DD 7E FB         [19] 4034 	ld	a, -5 (ix)
    00001321 DD 77 FD         [19] 4035 	ld	-3 (ix), a
    00001324 DD 6E FC         [19] 4036 	ld	l, -4 (ix)
    00001327 DD 66 FD         [19] 4037 	ld	h, -3 (ix)
    0000132A 11 0D 00         [10] 4038 	ld	de, #0x000d
    0000132D 19               [11] 4039 	add	hl, de
    0000132E 7E               [ 7] 4040 	ld	a, (hl)
    0000132F DD 77 FD         [19] 4041 	ld	-3 (ix), a
    00001332 B7               [ 4] 4042 	or	a, a
    00001333 CAr83r16         [10] 4043 	jp	Z, 00150$
                                   4044 ;E:\Dropbox\FAUSTO\SVILUPPI\MSX\CODE\C\MSXgl\projects\exsoccer/exsoccer_s2_b0.c:767: if (g_Players[i].Y < g_FieldCurrentYPosition || g_Players[i].Y > (g_FieldCurrentYPosition + 220)) {
    00001336 DD 6E FA         [19] 4045 	ld	l, -6 (ix)
    00001339 DD 66 FB         [19] 4046 	ld	h, -5 (ix)
    0000133C 7E               [ 7] 4047 	ld	a, (hl)
    0000133D DD 77 FC         [19] 4048 	ld	-4 (ix), a
    00001340 23               [ 6] 4049 	inc	hl
    00001341 7E               [ 7] 4050 	ld	a, (hl)
    00001342 DD 77 FD         [19] 4051 	ld	-3 (ix), a
    00001345 DD 7E FC         [19] 4052 	ld	a, -4 (ix)
    00001348 DD 77 F6         [19] 4053 	ld	-10 (ix), a
    0000134B DD 7E FD         [19] 4054 	ld	a, -3 (ix)
    0000134E DD 77 F7         [19] 4055 	ld	-9 (ix), a
    00001351 2Ar00r00         [16] 4056 	ld	hl, (_g_FieldCurrentYPosition)
    00001354 DD 75 F8         [19] 4057 	ld	-8 (ix), l
    00001357 DD 74 F9         [19] 4058 	ld	-7 (ix), h
    0000135A DD 7E F6         [19] 4059 	ld	a, -10 (ix)
    0000135D DD 96 F8         [19] 4060 	sub	a, -8 (ix)
    00001360 DD 7E F7         [19] 4061 	ld	a, -9 (ix)
    00001363 DD 9E F9         [19] 4062 	sbc	a, -7 (ix)
    00001366 DAr83r16         [10] 4063 	jp	C, 00150$
    00001369 2Ar00r00         [16] 4064 	ld	hl, (_g_FieldCurrentYPosition)
    0000136C 11 DC 00         [10] 4065 	ld	de, #0x00dc
    0000136F 19               [11] 4066 	add	hl, de
    00001370 7D               [ 4] 4067 	ld	a, l
    00001371 DD 96 F6         [19] 4068 	sub	a, -10 (ix)
    00001374 7C               [ 4] 4069 	ld	a, h
    00001375 DD 9E F7         [19] 4070 	sbc	a, -9 (ix)
    00001378 DAr83r16         [10] 4071 	jp	C, 00150$
                                   4072 ;E:\Dropbox\FAUSTO\SVILUPPI\MSX\CODE\C\MSXgl\projects\exsoccer/exsoccer_s2_b0.c:771: dx = (i16)g_Players[i].X - px;
    0000137B DD 6E FA         [19] 4073 	ld	l, -6 (ix)
    0000137E DD 66 FB         [19] 4074 	ld	h, -5 (ix)
    00001381 23               [ 6] 4075 	inc	hl
    00001382 23               [ 6] 4076 	inc	hl
    00001383 7E               [ 7] 4077 	ld	a, (hl)
    00001384 DD 77 FA         [19] 4078 	ld	-6 (ix), a
    00001387 23               [ 6] 4079 	inc	hl
    00001388 7E               [ 7] 4080 	ld	a, (hl)
    00001389 DD 77 FB         [19] 4081 	ld	-5 (ix), a
    0000138C DD 7E FA         [19] 4082 	ld	a, -6 (ix)
    0000138F DD 96 DC         [19] 4083 	sub	a, -36 (ix)
    00001392 DD 77 F6         [19] 4084 	ld	-10 (ix), a
    00001395 DD 7E FB         [19] 4085 	ld	a, -5 (ix)
    00001398 DD 9E DD         [19] 4086 	sbc	a, -35 (ix)
    0000139B DD 77 F7         [19] 4087 	ld	-9 (ix), a
    0000139E DD 7E F6         [19] 4088 	ld	a, -10 (ix)
    000013A1 DD 77 F9         [19] 4089 	ld	-7 (ix), a
    000013A4 DD 7E F7         [19] 4090 	ld	a, -9 (ix)
    000013A7 DD 77 FA         [19] 4091 	ld	-6 (ix), a
                                   4092 ;E:\Dropbox\FAUSTO\SVILUPPI\MSX\CODE\C\MSXgl\projects\exsoccer/exsoccer_s2_b0.c:772: dy = (i16)g_Players[i].Y - py;
    000013AA DD 7E FC         [19] 4093 	ld	a, -4 (ix)
    000013AD DD 96 DE         [19] 4094 	sub	a, -34 (ix)
    000013B0 DD 77 F7         [19] 4095 	ld	-9 (ix), a
    000013B3 DD 7E FD         [19] 4096 	ld	a, -3 (ix)
    000013B6 DD 9E DF         [19] 4097 	sbc	a, -33 (ix)
    000013B9 DD 77 F8         [19] 4098 	ld	-8 (ix), a
    000013BC DD 7E F7         [19] 4099 	ld	a, -9 (ix)
    000013BF DD 77 FB         [19] 4100 	ld	-5 (ix), a
    000013C2 DD 7E F8         [19] 4101 	ld	a, -8 (ix)
    000013C5 DD 77 FC         [19] 4102 	ld	-4 (ix), a
                                   4103 ;E:\Dropbox\FAUSTO\SVILUPPI\MSX\CODE\C\MSXgl\projects\exsoccer/exsoccer_s2_b0.c:776: adx = (dx < 0) ? -dx : dx;
    000013C8 DD 7E F9         [19] 4104 	ld	a, -7 (ix)
    000013CB DD 77 F7         [19] 4105 	ld	-9 (ix), a
    000013CE DD 7E FA         [19] 4106 	ld	a, -6 (ix)
    000013D1 DD 77 F8         [19] 4107 	ld	-8 (ix), a
    000013D4 DD CB F8 7E      [20] 4108 	bit	7, -8 (ix)
    000013D8 28 11            [12] 4109 	jr	Z, 00173$
    000013DA AF               [ 4] 4110 	xor	a, a
    000013DB DD 96 F9         [19] 4111 	sub	a, -7 (ix)
    000013DE DD 77 F7         [19] 4112 	ld	-9 (ix), a
    000013E1 9F               [ 4] 4113 	sbc	a, a
    000013E2 DD 96 FA         [19] 4114 	sub	a, -6 (ix)
    000013E5 DD 77 F8         [19] 4115 	ld	-8 (ix), a
    000013E8 C3rF7r13         [10] 4116 	jp	00174$
    000013EB                       4117 00173$:
    000013EB DD 7E F9         [19] 4118 	ld	a, -7 (ix)
    000013EE DD 77 F7         [19] 4119 	ld	-9 (ix), a
    000013F1 DD 7E FA         [19] 4120 	ld	a, -6 (ix)
    000013F4 DD 77 F8         [19] 4121 	ld	-8 (ix), a
    000013F7                       4122 00174$:
    000013F7 DD 7E F7         [19] 4123 	ld	a, -9 (ix)
    000013FA DD 77 E6         [19] 4124 	ld	-26 (ix), a
    000013FD DD 7E F8         [19] 4125 	ld	a, -8 (ix)
    00001400 DD 77 E7         [19] 4126 	ld	-25 (ix), a
                                   4127 ;E:\Dropbox\FAUSTO\SVILUPPI\MSX\CODE\C\MSXgl\projects\exsoccer/exsoccer_s2_b0.c:777: ady = (dy < 0) ? -dy : dy;
    00001403 DD 7E FB         [19] 4128 	ld	a, -5 (ix)
    00001406 DD 77 F7         [19] 4129 	ld	-9 (ix), a
    00001409 DD 7E FC         [19] 4130 	ld	a, -4 (ix)
    0000140C DD 77 F8         [19] 4131 	ld	-8 (ix), a
    0000140F DD CB F8 7E      [20] 4132 	bit	7, -8 (ix)
    00001413 28 11            [12] 4133 	jr	Z, 00175$
    00001415 AF               [ 4] 4134 	xor	a, a
    00001416 DD 96 FB         [19] 4135 	sub	a, -5 (ix)
    00001419 DD 77 F7         [19] 4136 	ld	-9 (ix), a
    0000141C 9F               [ 4] 4137 	sbc	a, a
    0000141D DD 96 FC         [19] 4138 	sub	a, -4 (ix)
    00001420 DD 77 F8         [19] 4139 	ld	-8 (ix), a
    00001423 C3r32r14         [10] 4140 	jp	00176$
    00001426                       4141 00175$:
    00001426 DD 7E FB         [19] 4142 	ld	a, -5 (ix)
    00001429 DD 77 F7         [19] 4143 	ld	-9 (ix), a
    0000142C DD 7E FC         [19] 4144 	ld	a, -4 (ix)
    0000142F DD 77 F8         [19] 4145 	ld	-8 (ix), a
    00001432                       4146 00176$:
    00001432 DD 7E F7         [19] 4147 	ld	a, -9 (ix)
    00001435 DD 77 E8         [19] 4148 	ld	-24 (ix), a
    00001438 DD 7E F8         [19] 4149 	ld	a, -8 (ix)
    0000143B DD 77 E9         [19] 4150 	ld	-23 (ix), a
                                   4151 ;E:\Dropbox\FAUSTO\SVILUPPI\MSX\CODE\C\MSXgl\projects\exsoccer/exsoccer_s2_b0.c:778: if (adx < 32 && ady < 32) continue;
    0000143E DD 7E E6         [19] 4152 	ld	a, -26 (ix)
    00001441 DD 46 E7         [19] 4153 	ld	b, -25 (ix)
    00001444 D6 20            [ 7] 4154 	sub	a, #0x20
    00001446 78               [ 4] 4155 	ld	a, b
    00001447 17               [ 4] 4156 	rla
    00001448 3F               [ 4] 4157 	ccf
    00001449 1F               [ 4] 4158 	rra
    0000144A DE 80            [ 7] 4159 	sbc	a, #0x80
    0000144C 30 11            [12] 4160 	jr	NC, 00140$
    0000144E DD 7E E8         [19] 4161 	ld	a, -24 (ix)
    00001451 DD 46 E9         [19] 4162 	ld	b, -23 (ix)
    00001454 D6 20            [ 7] 4163 	sub	a, #0x20
    00001456 78               [ 4] 4164 	ld	a, b
    00001457 17               [ 4] 4165 	rla
    00001458 3F               [ 4] 4166 	ccf
    00001459 1F               [ 4] 4167 	rra
    0000145A DE 80            [ 7] 4168 	sbc	a, #0x80
    0000145C DAr83r16         [10] 4169 	jp	C, 00150$
    0000145F                       4170 00140$:
                                   4171 ;E:\Dropbox\FAUSTO\SVILUPPI\MSX\CODE\C\MSXgl\projects\exsoccer/exsoccer_s2_b0.c:781: if (g_Players[passerId].Role == PLAYER_ROLE_GOALKEEPER) {
    0000145F DD 6E E4         [19] 4172 	ld	l, -28 (ix)
    00001462 DD 66 E5         [19] 4173 	ld	h, -27 (ix)
    00001465 11 0D 00         [10] 4174 	ld	de, #0x000d
    00001468 19               [11] 4175 	add	hl, de
    00001469 7E               [ 7] 4176 	ld	a, (hl)
    0000146A DD 77 FD         [19] 4177 	ld	-3 (ix), a
                                   4178 ;E:\Dropbox\FAUSTO\SVILUPPI\MSX\CODE\C\MSXgl\projects\exsoccer/exsoccer_s2_b0.c:783: if (((i32)dx*(i32)dx + (i32)dy*(i32)dy) > 40000) continue;
    0000146D DD 7E F9         [19] 4179 	ld	a, -7 (ix)
    00001470 DD 77 EA         [19] 4180 	ld	-22 (ix), a
    00001473 DD 7E FA         [19] 4181 	ld	a, -6 (ix)
    00001476 DD 77 EB         [19] 4182 	ld	-21 (ix), a
    00001479 07               [ 4] 4183 	rlca
    0000147A 9F               [ 4] 4184 	sbc	a, a
    0000147B DD 77 EC         [19] 4185 	ld	-20 (ix), a
    0000147E DD 77 ED         [19] 4186 	ld	-19 (ix), a
    00001481 DD 7E FB         [19] 4187 	ld	a, -5 (ix)
    00001484 DD 77 EE         [19] 4188 	ld	-18 (ix), a
    00001487 DD 7E FC         [19] 4189 	ld	a, -4 (ix)
    0000148A DD 77 EF         [19] 4190 	ld	-17 (ix), a
    0000148D 07               [ 4] 4191 	rlca
    0000148E 9F               [ 4] 4192 	sbc	a, a
    0000148F DD 77 F0         [19] 4193 	ld	-16 (ix), a
    00001492 DD 77 F1         [19] 4194 	ld	-15 (ix), a
                                   4195 ;E:\Dropbox\FAUSTO\SVILUPPI\MSX\CODE\C\MSXgl\projects\exsoccer/exsoccer_s2_b0.c:781: if (g_Players[passerId].Role == PLAYER_ROLE_GOALKEEPER) {
    00001495 DD 7E FD         [19] 4196 	ld	a, -3 (ix)
    00001498 B7               [ 4] 4197 	or	a, a
    00001499 C2r32r15         [10] 4198 	jp	NZ, 00145$
                                   4199 ;E:\Dropbox\FAUSTO\SVILUPPI\MSX\CODE\C\MSXgl\projects\exsoccer/exsoccer_s2_b0.c:783: if (((i32)dx*(i32)dx + (i32)dy*(i32)dy) > 40000) continue;
    0000149C DD 6E EC         [19] 4200 	ld	l, -20 (ix)
                                   4201 ;	spillPairReg hl
                                   4202 ;	spillPairReg hl
    0000149F DD 66 ED         [19] 4203 	ld	h, -19 (ix)
                                   4204 ;	spillPairReg hl
                                   4205 ;	spillPairReg hl
    000014A2 E5               [11] 4206 	push	hl
    000014A3 DD 6E EA         [19] 4207 	ld	l, -22 (ix)
                                   4208 ;	spillPairReg hl
                                   4209 ;	spillPairReg hl
    000014A6 DD 66 EB         [19] 4210 	ld	h, -21 (ix)
                                   4211 ;	spillPairReg hl
                                   4212 ;	spillPairReg hl
    000014A9 E5               [11] 4213 	push	hl
    000014AA DD 5E EA         [19] 4214 	ld	e, -22 (ix)
    000014AD DD 56 EB         [19] 4215 	ld	d, -21 (ix)
    000014B0 DD 6E EC         [19] 4216 	ld	l, -20 (ix)
                                   4217 ;	spillPairReg hl
                                   4218 ;	spillPairReg hl
    000014B3 DD 66 ED         [19] 4219 	ld	h, -19 (ix)
                                   4220 ;	spillPairReg hl
                                   4221 ;	spillPairReg hl
    000014B6 CDr00r00         [17] 4222 	call	__mullong
    000014B9 F1               [10] 4223 	pop	af
    000014BA F1               [10] 4224 	pop	af
    000014BB DD 73 F2         [19] 4225 	ld	-14 (ix), e
    000014BE DD 72 F3         [19] 4226 	ld	-13 (ix), d
    000014C1 DD 75 F4         [19] 4227 	ld	-12 (ix), l
    000014C4 DD 74 F5         [19] 4228 	ld	-11 (ix), h
    000014C7 DD 6E F0         [19] 4229 	ld	l, -16 (ix)
                                   4230 ;	spillPairReg hl
                                   4231 ;	spillPairReg hl
    000014CA DD 66 F1         [19] 4232 	ld	h, -15 (ix)
                                   4233 ;	spillPairReg hl
                                   4234 ;	spillPairReg hl
    000014CD E5               [11] 4235 	push	hl
    000014CE DD 6E EE         [19] 4236 	ld	l, -18 (ix)
                                   4237 ;	spillPairReg hl
                                   4238 ;	spillPairReg hl
    000014D1 DD 66 EF         [19] 4239 	ld	h, -17 (ix)
                                   4240 ;	spillPairReg hl
                                   4241 ;	spillPairReg hl
    000014D4 E5               [11] 4242 	push	hl
    000014D5 DD 5E EE         [19] 4243 	ld	e, -18 (ix)
    000014D8 DD 56 EF         [19] 4244 	ld	d, -17 (ix)
    000014DB DD 6E F0         [19] 4245 	ld	l, -16 (ix)
                                   4246 ;	spillPairReg hl
                                   4247 ;	spillPairReg hl
    000014DE DD 66 F1         [19] 4248 	ld	h, -15 (ix)
                                   4249 ;	spillPairReg hl
                                   4250 ;	spillPairReg hl
    000014E1 CDr00r00         [17] 4251 	call	__mullong
    000014E4 F1               [10] 4252 	pop	af
    000014E5 F1               [10] 4253 	pop	af
    000014E6 DD 73 F6         [19] 4254 	ld	-10 (ix), e
    000014E9 DD 72 F7         [19] 4255 	ld	-9 (ix), d
    000014EC DD 75 F8         [19] 4256 	ld	-8 (ix), l
    000014EF DD 74 F9         [19] 4257 	ld	-7 (ix), h
    000014F2 DD 7E F6         [19] 4258 	ld	a, -10 (ix)
    000014F5 DD 86 F2         [19] 4259 	add	a, -14 (ix)
    000014F8 DD 77 FA         [19] 4260 	ld	-6 (ix), a
    000014FB DD 7E F7         [19] 4261 	ld	a, -9 (ix)
    000014FE DD 8E F3         [19] 4262 	adc	a, -13 (ix)
    00001501 DD 77 FB         [19] 4263 	ld	-5 (ix), a
    00001504 DD 7E F8         [19] 4264 	ld	a, -8 (ix)
    00001507 DD 8E F4         [19] 4265 	adc	a, -12 (ix)
    0000150A DD 77 FC         [19] 4266 	ld	-4 (ix), a
    0000150D DD 7E F9         [19] 4267 	ld	a, -7 (ix)
    00001510 DD 8E F5         [19] 4268 	adc	a, -11 (ix)
    00001513 DD 77 FD         [19] 4269 	ld	-3 (ix), a
    00001516 3E 40            [ 7] 4270 	ld	a, #0x40
    00001518 DD BE FA         [19] 4271 	cp	a, -6 (ix)
    0000151B 3E 9C            [ 7] 4272 	ld	a, #0x9c
    0000151D DD 9E FB         [19] 4273 	sbc	a, -5 (ix)
    00001520 3E 00            [ 7] 4274 	ld	a, #0x00
    00001522 DD 9E FC         [19] 4275 	sbc	a, -4 (ix)
    00001525 3E 00            [ 7] 4276 	ld	a, #0x00
    00001527 DD 9E FD         [19] 4277 	sbc	a, -3 (ix)
    0000152A E2r2Fr15         [10] 4278 	jp	PO, 00374$
    0000152D EE 80            [ 7] 4279 	xor	a, #0x80
    0000152F                       4280 00374$:
    0000152F FAr83r16         [10] 4281 	jp	M, 00150$
    00001532                       4282 00145$:
                                   4283 ;E:\Dropbox\FAUSTO\SVILUPPI\MSX\CODE\C\MSXgl\projects\exsoccer/exsoccer_s2_b0.c:786: dot = ((i32)dx * dirX) + ((i32)dy * dirY);
    00001532 DD 7E E0         [19] 4284 	ld	a, -32 (ix)
    00001535 DD 77 FA         [19] 4285 	ld	-6 (ix), a
    00001538 DD 7E E1         [19] 4286 	ld	a, -31 (ix)
    0000153B DD 77 FB         [19] 4287 	ld	-5 (ix), a
    0000153E 07               [ 4] 4288 	rlca
    0000153F 9F               [ 4] 4289 	sbc	a, a
                                   4290 ;	spillPairReg hl
                                   4291 ;	spillPairReg hl
    00001540 DD 77 FC         [19] 4292 	ld	-4 (ix), a
    00001543 DD 77 FD         [19] 4293 	ld	-3 (ix), a
    00001546 6F               [ 4] 4294 	ld	l, a
    00001547 67               [ 4] 4295 	ld	h, a
                                   4296 ;	spillPairReg hl
                                   4297 ;	spillPairReg hl
    00001548 E5               [11] 4298 	push	hl
    00001549 DD 6E FA         [19] 4299 	ld	l, -6 (ix)
                                   4300 ;	spillPairReg hl
                                   4301 ;	spillPairReg hl
    0000154C DD 66 FB         [19] 4302 	ld	h, -5 (ix)
                                   4303 ;	spillPairReg hl
                                   4304 ;	spillPairReg hl
    0000154F E5               [11] 4305 	push	hl
    00001550 DD 5E EA         [19] 4306 	ld	e, -22 (ix)
    00001553 DD 56 EB         [19] 4307 	ld	d, -21 (ix)
    00001556 DD 6E EC         [19] 4308 	ld	l, -20 (ix)
                                   4309 ;	spillPairReg hl
                                   4310 ;	spillPairReg hl
    00001559 DD 66 ED         [19] 4311 	ld	h, -19 (ix)
                                   4312 ;	spillPairReg hl
                                   4313 ;	spillPairReg hl
    0000155C CDr00r00         [17] 4314 	call	__mullong
    0000155F F1               [10] 4315 	pop	af
    00001560 F1               [10] 4316 	pop	af
    00001561 DD 73 FA         [19] 4317 	ld	-6 (ix), e
    00001564 DD 72 FB         [19] 4318 	ld	-5 (ix), d
    00001567 DD 75 FC         [19] 4319 	ld	-4 (ix), l
    0000156A DD 74 FD         [19] 4320 	ld	-3 (ix), h
    0000156D DD 7E E2         [19] 4321 	ld	a, -30 (ix)
    00001570 DD 77 F6         [19] 4322 	ld	-10 (ix), a
    00001573 DD 7E E3         [19] 4323 	ld	a, -29 (ix)
    00001576 DD 77 F7         [19] 4324 	ld	-9 (ix), a
    00001579 07               [ 4] 4325 	rlca
    0000157A 9F               [ 4] 4326 	sbc	a, a
                                   4327 ;	spillPairReg hl
                                   4328 ;	spillPairReg hl
    0000157B DD 77 F8         [19] 4329 	ld	-8 (ix), a
    0000157E DD 77 F9         [19] 4330 	ld	-7 (ix), a
    00001581 6F               [ 4] 4331 	ld	l, a
    00001582 67               [ 4] 4332 	ld	h, a
                                   4333 ;	spillPairReg hl
                                   4334 ;	spillPairReg hl
    00001583 E5               [11] 4335 	push	hl
    00001584 DD 6E F6         [19] 4336 	ld	l, -10 (ix)
                                   4337 ;	spillPairReg hl
                                   4338 ;	spillPairReg hl
    00001587 DD 66 F7         [19] 4339 	ld	h, -9 (ix)
                                   4340 ;	spillPairReg hl
                                   4341 ;	spillPairReg hl
    0000158A E5               [11] 4342 	push	hl
    0000158B DD 5E EE         [19] 4343 	ld	e, -18 (ix)
    0000158E DD 56 EF         [19] 4344 	ld	d, -17 (ix)
    00001591 DD 6E F0         [19] 4345 	ld	l, -16 (ix)
                                   4346 ;	spillPairReg hl
                                   4347 ;	spillPairReg hl
    00001594 DD 66 F1         [19] 4348 	ld	h, -15 (ix)
                                   4349 ;	spillPairReg hl
                                   4350 ;	spillPairReg hl
    00001597 CDr00r00         [17] 4351 	call	__mullong
    0000159A F1               [10] 4352 	pop	af
    0000159B F1               [10] 4353 	pop	af
    0000159C DD 73 F2         [19] 4354 	ld	-14 (ix), e
    0000159F DD 72 F3         [19] 4355 	ld	-13 (ix), d
    000015A2 DD 75 F4         [19] 4356 	ld	-12 (ix), l
    000015A5 DD 74 F5         [19] 4357 	ld	-11 (ix), h
    000015A8 DD 7E F2         [19] 4358 	ld	a, -14 (ix)
    000015AB DD 86 FA         [19] 4359 	add	a, -6 (ix)
    000015AE DD 77 F6         [19] 4360 	ld	-10 (ix), a
    000015B1 DD 7E F3         [19] 4361 	ld	a, -13 (ix)
    000015B4 DD 8E FB         [19] 4362 	adc	a, -5 (ix)
    000015B7 DD 77 F7         [19] 4363 	ld	-9 (ix), a
    000015BA DD 7E F4         [19] 4364 	ld	a, -12 (ix)
    000015BD DD 8E FC         [19] 4365 	adc	a, -4 (ix)
    000015C0 DD 77 F8         [19] 4366 	ld	-8 (ix), a
    000015C3 DD 7E F5         [19] 4367 	ld	a, -11 (ix)
    000015C6 DD 8E FD         [19] 4368 	adc	a, -3 (ix)
    000015C9 DD 77 F9         [19] 4369 	ld	-7 (ix), a
    000015CC 21 24 00         [10] 4370 	ld	hl, #36
    000015CF 39               [11] 4371 	add	hl, sp
    000015D0 EB               [ 4] 4372 	ex	de, hl
    000015D1 21 20 00         [10] 4373 	ld	hl, #32
    000015D4 39               [11] 4374 	add	hl, sp
    000015D5 01 04 00         [10] 4375 	ld	bc, #4
    000015D8 ED B0            [21] 4376 	ldir
                                   4377 ;E:\Dropbox\FAUSTO\SVILUPPI\MSX\CODE\C\MSXgl\projects\exsoccer/exsoccer_s2_b0.c:789: if (dot <= 0) {
    000015DA AF               [ 4] 4378 	xor	a, a
    000015DB DD BE FA         [19] 4379 	cp	a, -6 (ix)
    000015DE DD 9E FB         [19] 4380 	sbc	a, -5 (ix)
    000015E1 3E 00            [ 7] 4381 	ld	a, #0x00
    000015E3 DD 9E FC         [19] 4382 	sbc	a, -4 (ix)
    000015E6 3E 00            [ 7] 4383 	ld	a, #0x00
    000015E8 DD 9E FD         [19] 4384 	sbc	a, -3 (ix)
    000015EB E2rF0r15         [10] 4385 	jp	PO, 00375$
    000015EE EE 80            [ 7] 4386 	xor	a, #0x80
    000015F0                       4387 00375$:
    000015F0 F2r83r16         [10] 4388 	jp	P, 00150$
                                   4389 ;E:\Dropbox\FAUSTO\SVILUPPI\MSX\CODE\C\MSXgl\projects\exsoccer/exsoccer_s2_b0.c:800: score = dot - ((i32)(adx + ady) * 40); 
    000015F3 DD 7E E6         [19] 4390 	ld	a, -26 (ix)
    000015F6 DD 86 E8         [19] 4391 	add	a, -24 (ix)
    000015F9 DD 77 F8         [19] 4392 	ld	-8 (ix), a
    000015FC DD 7E E7         [19] 4393 	ld	a, -25 (ix)
    000015FF DD 8E E9         [19] 4394 	adc	a, -23 (ix)
    00001602 DD 77 F9         [19] 4395 	ld	-7 (ix), a
    00001605 DD 5E F8         [19] 4396 	ld	e, -8 (ix)
    00001608 DD 56 F9         [19] 4397 	ld	d, -7 (ix)
    0000160B 21 28 00         [10] 4398 	ld	hl, #0x0028
    0000160E CDr00r00         [17] 4399 	call	___mulsint2slong
    00001611 DD 73 F2         [19] 4400 	ld	-14 (ix), e
    00001614 DD 72 F3         [19] 4401 	ld	-13 (ix), d
    00001617 DD 75 F4         [19] 4402 	ld	-12 (ix), l
    0000161A DD 74 F5         [19] 4403 	ld	-11 (ix), h
    0000161D DD 7E FA         [19] 4404 	ld	a, -6 (ix)
    00001620 DD 96 F2         [19] 4405 	sub	a, -14 (ix)
    00001623 DD 77 F6         [19] 4406 	ld	-10 (ix), a
    00001626 DD 7E FB         [19] 4407 	ld	a, -5 (ix)
    00001629 DD 9E F3         [19] 4408 	sbc	a, -13 (ix)
    0000162C DD 77 F7         [19] 4409 	ld	-9 (ix), a
    0000162F DD 7E FC         [19] 4410 	ld	a, -4 (ix)
    00001632 DD 9E F4         [19] 4411 	sbc	a, -12 (ix)
    00001635 DD 77 F8         [19] 4412 	ld	-8 (ix), a
    00001638 DD 7E FD         [19] 4413 	ld	a, -3 (ix)
    0000163B DD 9E F5         [19] 4414 	sbc	a, -11 (ix)
    0000163E DD 77 F9         [19] 4415 	ld	-7 (ix), a
    00001641 21 24 00         [10] 4416 	ld	hl, #36
    00001644 39               [11] 4417 	add	hl, sp
    00001645 EB               [ 4] 4418 	ex	de, hl
    00001646 21 20 00         [10] 4419 	ld	hl, #32
    00001649 39               [11] 4420 	add	hl, sp
    0000164A 01 04 00         [10] 4421 	ld	bc, #4
    0000164D ED B0            [21] 4422 	ldir
                                   4423 ;E:\Dropbox\FAUSTO\SVILUPPI\MSX\CODE\C\MSXgl\projects\exsoccer/exsoccer_s2_b0.c:802: if (score > bestScore) {
    0000164F DD 7E D7         [19] 4424 	ld	a, -41 (ix)
    00001652 DD 96 FA         [19] 4425 	sub	a, -6 (ix)
    00001655 DD 7E D8         [19] 4426 	ld	a, -40 (ix)
    00001658 DD 9E FB         [19] 4427 	sbc	a, -5 (ix)
    0000165B DD 7E D9         [19] 4428 	ld	a, -39 (ix)
    0000165E DD 9E FC         [19] 4429 	sbc	a, -4 (ix)
    00001661 DD 7E DA         [19] 4430 	ld	a, -38 (ix)
    00001664 DD 9E FD         [19] 4431 	sbc	a, -3 (ix)
    00001667 E2r6Cr16         [10] 4432 	jp	PO, 00376$
    0000166A EE 80            [ 7] 4433 	xor	a, #0x80
    0000166C                       4434 00376$:
    0000166C F2r83r16         [10] 4435 	jp	P, 00150$
                                   4436 ;E:\Dropbox\FAUSTO\SVILUPPI\MSX\CODE\C\MSXgl\projects\exsoccer/exsoccer_s2_b0.c:803: bestScore = score;
    0000166F 21 01 00         [10] 4437 	ld	hl, #1
    00001672 39               [11] 4438 	add	hl, sp
    00001673 EB               [ 4] 4439 	ex	de, hl
    00001674 21 24 00         [10] 4440 	ld	hl, #36
    00001677 39               [11] 4441 	add	hl, sp
    00001678 01 04 00         [10] 4442 	ld	bc, #4
    0000167B ED B0            [21] 4443 	ldir
                                   4444 ;E:\Dropbox\FAUSTO\SVILUPPI\MSX\CODE\C\MSXgl\projects\exsoccer/exsoccer_s2_b0.c:804: bestTarget = i;
    0000167D DD 7E FF         [19] 4445 	ld	a, -1 (ix)
    00001680 DD 77 D6         [19] 4446 	ld	-42 (ix), a
    00001683                       4447 00150$:
                                   4448 ;E:\Dropbox\FAUSTO\SVILUPPI\MSX\CODE\C\MSXgl\projects\exsoccer/exsoccer_s2_b0.c:756: for(i=0; i<14; i++) {
    00001683 DD 34 FF         [23] 4449 	inc	-1 (ix)
    00001686 DD 7E FF         [19] 4450 	ld	a, -1 (ix)
    00001689 D6 0E            [ 7] 4451 	sub	a, #0x0e
    0000168B DArCFr12         [10] 4452 	jp	C, 00169$
                                   4453 ;E:\Dropbox\FAUSTO\SVILUPPI\MSX\CODE\C\MSXgl\projects\exsoccer/exsoccer_s2_b0.c:811: if (bestTarget == NO_VALUE) {
    0000168E DD 7E D6         [19] 4454 	ld	a, -42 (ix)
    00001691 3C               [ 4] 4455 	inc	a
    00001692 C2rB8r17         [10] 4456 	jp	NZ,00168$
                                   4457 ;E:\Dropbox\FAUSTO\SVILUPPI\MSX\CODE\C\MSXgl\projects\exsoccer/exsoccer_s2_b0.c:812: for(i=0; i<14; i++) {
    00001695 DD 36 FF 00      [19] 4458 	ld	-1 (ix), #0x00
    00001699                       4459 00170$:
                                   4460 ;E:\Dropbox\FAUSTO\SVILUPPI\MSX\CODE\C\MSXgl\projects\exsoccer/exsoccer_s2_b0.c:813: if(g_Players[i].TeamId != teamId) continue;
    00001699 DD 4E FF         [19] 4461 	ld	c, -1 (ix)
    0000169C 06 00            [ 7] 4462 	ld	b, #0x00
    0000169E 69               [ 4] 4463 	ld	l, c
    0000169F 60               [ 4] 4464 	ld	h, b
    000016A0 29               [11] 4465 	add	hl, hl
    000016A1 29               [11] 4466 	add	hl, hl
    000016A2 09               [11] 4467 	add	hl, bc
    000016A3 29               [11] 4468 	add	hl, hl
    000016A4 29               [11] 4469 	add	hl, hl
    000016A5 09               [11] 4470 	add	hl, bc
    000016A6 EB               [ 4] 4471 	ex	de, hl
    000016A7 21r00r00         [10] 4472 	ld	hl, #_g_Players
    000016AA 19               [11] 4473 	add	hl, de
    000016AB DD 75 FC         [19] 4474 	ld	-4 (ix), l
    000016AE DD 74 FD         [19] 4475 	ld	-3 (ix), h
    000016B1 01 09 00         [10] 4476 	ld	bc,#9
    000016B4 09               [11] 4477 	add	hl,bc
    000016B5 DD 7E DB         [19] 4478 	ld	a,-37 (ix)
    000016B8 96               [ 7] 4479 	sub	a,(hl)
    000016B9 C2rADr17         [10] 4480 	jp	NZ,00165$
                                   4481 ;E:\Dropbox\FAUSTO\SVILUPPI\MSX\CODE\C\MSXgl\projects\exsoccer/exsoccer_s2_b0.c:814: if(i == passerId) continue;
    000016BC DD 7E FE         [19] 4482 	ld	a, -2 (ix)
    000016BF DD 96 FF         [19] 4483 	sub	a, -1 (ix)
    000016C2 CArADr17         [10] 4484 	jp	Z,00165$
                                   4485 ;E:\Dropbox\FAUSTO\SVILUPPI\MSX\CODE\C\MSXgl\projects\exsoccer/exsoccer_s2_b0.c:816: if(g_Players[i].Role == PLAYER_ROLE_GOALKEEPER) continue;
    000016C5 DD 4E FC         [19] 4486 	ld	c, -4 (ix)
    000016C8 DD 46 FD         [19] 4487 	ld	b, -3 (ix)
    000016CB 21 0D 00         [10] 4488 	ld	hl, #13
    000016CE 09               [11] 4489 	add	hl, bc
    000016CF 7E               [ 7] 4490 	ld	a, (hl)
    000016D0 B7               [ 4] 4491 	or	a, a
    000016D1 CArADr17         [10] 4492 	jp	Z, 00165$
                                   4493 ;E:\Dropbox\FAUSTO\SVILUPPI\MSX\CODE\C\MSXgl\projects\exsoccer/exsoccer_s2_b0.c:819: if (g_Players[i].Y < g_FieldCurrentYPosition || g_Players[i].Y > (g_FieldCurrentYPosition + 220)) continue;
    000016D4 DD 6E FC         [19] 4494 	ld	l, -4 (ix)
    000016D7 DD 66 FD         [19] 4495 	ld	h, -3 (ix)
    000016DA 5E               [ 7] 4496 	ld	e, (hl)
    000016DB 23               [ 6] 4497 	inc	hl
    000016DC 56               [ 7] 4498 	ld	d, (hl)
    000016DD 4B               [ 4] 4499 	ld	c, e
    000016DE 42               [ 4] 4500 	ld	b, d
    000016DF 2Ar00r00         [16] 4501 	ld	hl, (_g_FieldCurrentYPosition)
    000016E2 79               [ 4] 4502 	ld	a, c
    000016E3 95               [ 4] 4503 	sub	a, l
    000016E4 78               [ 4] 4504 	ld	a, b
    000016E5 9C               [ 4] 4505 	sbc	a, h
    000016E6 DArADr17         [10] 4506 	jp	C, 00165$
    000016E9 FD 21 DC 00      [14] 4507 	ld	iy, #0x00dc
    000016ED C5               [11] 4508 	push	bc
    000016EE ED 4Br00r00      [20] 4509 	ld	bc, (_g_FieldCurrentYPosition)
    000016F2 FD 09            [15] 4510 	add	iy, bc
    000016F4 C1               [10] 4511 	pop	bc
    000016F5 FD E5            [15] 4512 	push	iy
    000016F7 E1               [10] 4513 	pop	hl
    000016F8 AF               [ 4] 4514 	xor	a, a
    000016F9 ED 42            [15] 4515 	sbc	hl, bc
    000016FB DArADr17         [10] 4516 	jp	C, 00165$
                                   4517 ;E:\Dropbox\FAUSTO\SVILUPPI\MSX\CODE\C\MSXgl\projects\exsoccer/exsoccer_s2_b0.c:821: i16 dx = (i16)g_Players[i].X - px;
    000016FE DD 6E FC         [19] 4518 	ld	l, -4 (ix)
                                   4519 ;	spillPairReg hl
                                   4520 ;	spillPairReg hl
    00001701 DD 66 FD         [19] 4521 	ld	h, -3 (ix)
                                   4522 ;	spillPairReg hl
                                   4523 ;	spillPairReg hl
    00001704 23               [ 6] 4524 	inc	hl
    00001705 23               [ 6] 4525 	inc	hl
    00001706 4E               [ 7] 4526 	ld	c, (hl)
    00001707 23               [ 6] 4527 	inc	hl
    00001708 46               [ 7] 4528 	ld	b, (hl)
    00001709 79               [ 4] 4529 	ld	a, c
    0000170A DD 96 DC         [19] 4530 	sub	a, -36 (ix)
    0000170D 4F               [ 4] 4531 	ld	c, a
    0000170E 78               [ 4] 4532 	ld	a, b
    0000170F DD 9E DD         [19] 4533 	sbc	a, -35 (ix)
    00001712 47               [ 4] 4534 	ld	b, a
                                   4535 ;E:\Dropbox\FAUSTO\SVILUPPI\MSX\CODE\C\MSXgl\projects\exsoccer/exsoccer_s2_b0.c:822: i16 dy = (i16)g_Players[i].Y - py;
    00001713 7B               [ 4] 4536 	ld	a, e
    00001714 DD 96 DE         [19] 4537 	sub	a, -34 (ix)
    00001717 5F               [ 4] 4538 	ld	e, a
    00001718 7A               [ 4] 4539 	ld	a, d
    00001719 DD 9E DF         [19] 4540 	sbc	a, -33 (ix)
    0000171C DD 73 F8         [19] 4541 	ld	-8 (ix), e
    0000171F DD 77 F9         [19] 4542 	ld	-7 (ix), a
                                   4543 ;E:\Dropbox\FAUSTO\SVILUPPI\MSX\CODE\C\MSXgl\projects\exsoccer/exsoccer_s2_b0.c:827: i16 adx = (dx < 0) ? -dx : dx;
    00001722 59               [ 4] 4544 	ld	e, c
    00001723 50               [ 4] 4545 	ld	d, b
    00001724 CB 7A            [ 8] 4546 	bit	7, d
    00001726 28 08            [12] 4547 	jr	Z, 00177$
    00001728 AF               [ 4] 4548 	xor	a, a
    00001729 91               [ 4] 4549 	sub	a, c
    0000172A 4F               [ 4] 4550 	ld	c, a
    0000172B 9F               [ 4] 4551 	sbc	a, a
    0000172C 90               [ 4] 4552 	sub	a, b
    0000172D C3r31r17         [10] 4553 	jp	00178$
    00001730                       4554 00177$:
    00001730 78               [ 4] 4555 	ld	a, b
    00001731                       4556 00178$:
    00001731 DD 71 FA         [19] 4557 	ld	-6 (ix), c
    00001734 DD 77 FB         [19] 4558 	ld	-5 (ix), a
                                   4559 ;E:\Dropbox\FAUSTO\SVILUPPI\MSX\CODE\C\MSXgl\projects\exsoccer/exsoccer_s2_b0.c:828: i16 ady = (dy < 0) ? -dy : dy;
    00001737 DD 46 F9         [19] 4560 	ld	b, -7 (ix)
    0000173A CB 78            [ 8] 4561 	bit	7, b
    0000173C 28 11            [12] 4562 	jr	Z, 00179$
    0000173E AF               [ 4] 4563 	xor	a, a
    0000173F DD 96 F8         [19] 4564 	sub	a, -8 (ix)
    00001742 DD 77 FC         [19] 4565 	ld	-4 (ix), a
    00001745 9F               [ 4] 4566 	sbc	a, a
    00001746 DD 96 F9         [19] 4567 	sub	a, -7 (ix)
    00001749 DD 77 FD         [19] 4568 	ld	-3 (ix), a
    0000174C C3r5Br17         [10] 4569 	jp	00180$
    0000174F                       4570 00179$:
    0000174F DD 7E F8         [19] 4571 	ld	a, -8 (ix)
    00001752 DD 77 FC         [19] 4572 	ld	-4 (ix), a
    00001755 DD 7E F9         [19] 4573 	ld	a, -7 (ix)
    00001758 DD 77 FD         [19] 4574 	ld	-3 (ix), a
    0000175B                       4575 00180$:
    0000175B DD 4E FC         [19] 4576 	ld	c, -4 (ix)
    0000175E DD 46 FD         [19] 4577 	ld	b, -3 (ix)
                                   4578 ;E:\Dropbox\FAUSTO\SVILUPPI\MSX\CODE\C\MSXgl\projects\exsoccer/exsoccer_s2_b0.c:829: if (adx + ady > 100) continue; // Only close teammates
    00001761 DD 6E FA         [19] 4579 	ld	l, -6 (ix)
    00001764 DD 66 FB         [19] 4580 	ld	h, -5 (ix)
    00001767 09               [11] 4581 	add	hl, bc
    00001768 4D               [ 4] 4582 	ld	c, l
    00001769 44               [ 4] 4583 	ld	b, h
    0000176A 3E 64            [ 7] 4584 	ld	a, #0x64
    0000176C B9               [ 4] 4585 	cp	a, c
    0000176D 3E 00            [ 7] 4586 	ld	a, #0x00
    0000176F 98               [ 4] 4587 	sbc	a, b
    00001770 E2r75r17         [10] 4588 	jp	PO, 00382$
    00001773 EE 80            [ 7] 4589 	xor	a, #0x80
    00001775                       4590 00382$:
    00001775 FArADr17         [10] 4591 	jp	M, 00165$
                                   4592 ;E:\Dropbox\FAUSTO\SVILUPPI\MSX\CODE\C\MSXgl\projects\exsoccer/exsoccer_s2_b0.c:832: i32 score = 1000 - (adx + ady);
    00001778 3E E8            [ 7] 4593 	ld	a, #0xe8
    0000177A 95               [ 4] 4594 	sub	a, l
    0000177B 4F               [ 4] 4595 	ld	c, a
    0000177C 3E 03            [ 7] 4596 	ld	a, #0x03
    0000177E 9C               [ 4] 4597 	sbc	a, h
    0000177F 47               [ 4] 4598 	ld	b, a
    00001780 07               [ 4] 4599 	rlca
    00001781 ED 62            [15] 4600 	sbc	hl, hl
                                   4601 ;E:\Dropbox\FAUSTO\SVILUPPI\MSX\CODE\C\MSXgl\projects\exsoccer/exsoccer_s2_b0.c:833: if (score > bestScore) {
    00001783 DD 7E D7         [19] 4602 	ld	a, -41 (ix)
    00001786 91               [ 4] 4603 	sub	a, c
    00001787 DD 7E D8         [19] 4604 	ld	a, -40 (ix)
    0000178A 98               [ 4] 4605 	sbc	a, b
    0000178B DD 7E D9         [19] 4606 	ld	a, -39 (ix)
    0000178E 9D               [ 4] 4607 	sbc	a, l
    0000178F DD 7E DA         [19] 4608 	ld	a, -38 (ix)
    00001792 9C               [ 4] 4609 	sbc	a, h
    00001793 E2r98r17         [10] 4610 	jp	PO, 00383$
    00001796 EE 80            [ 7] 4611 	xor	a, #0x80
    00001798                       4612 00383$:
    00001798 F2rADr17         [10] 4613 	jp	P, 00165$
                                   4614 ;E:\Dropbox\FAUSTO\SVILUPPI\MSX\CODE\C\MSXgl\projects\exsoccer/exsoccer_s2_b0.c:834: bestScore = score;
    0000179B DD 71 D7         [19] 4615 	ld	-41 (ix), c
    0000179E DD 70 D8         [19] 4616 	ld	-40 (ix), b
    000017A1 DD 75 D9         [19] 4617 	ld	-39 (ix), l
    000017A4 DD 74 DA         [19] 4618 	ld	-38 (ix), h
                                   4619 ;E:\Dropbox\FAUSTO\SVILUPPI\MSX\CODE\C\MSXgl\projects\exsoccer/exsoccer_s2_b0.c:835: bestTarget = i;
    000017A7 DD 7E FF         [19] 4620 	ld	a, -1 (ix)
    000017AA DD 77 D6         [19] 4621 	ld	-42 (ix), a
    000017AD                       4622 00165$:
                                   4623 ;E:\Dropbox\FAUSTO\SVILUPPI\MSX\CODE\C\MSXgl\projects\exsoccer/exsoccer_s2_b0.c:812: for(i=0; i<14; i++) {
    000017AD DD 34 FF         [23] 4624 	inc	-1 (ix)
    000017B0 DD 7E FF         [19] 4625 	ld	a, -1 (ix)
    000017B3 D6 0E            [ 7] 4626 	sub	a, #0x0e
    000017B5 DAr99r16         [10] 4627 	jp	C, 00170$
    000017B8                       4628 00168$:
                                   4629 ;E:\Dropbox\FAUSTO\SVILUPPI\MSX\CODE\C\MSXgl\projects\exsoccer/exsoccer_s2_b0.c:840: return bestTarget;
    000017B8 DD 7E D6         [19] 4630 	ld	a, -42 (ix)
                                   4631 ;E:\Dropbox\FAUSTO\SVILUPPI\MSX\CODE\C\MSXgl\projects\exsoccer/exsoccer_s2_b0.c:841: }
    000017BB DD F9            [10] 4632 	ld	sp, ix
    000017BD DD E1            [14] 4633 	pop	ix
    000017BF C9               [10] 4634 	ret
                                   4635 ;E:\Dropbox\FAUSTO\SVILUPPI\MSX\CODE\C\MSXgl\projects\exsoccer/exsoccer_s2_b0.c:843: void UpdatePassTarget() {
                                   4636 ;	---------------------------------
                                   4637 ; Function UpdatePassTarget
                                   4638 ; ---------------------------------
    000017C0                       4639 _UpdatePassTarget::
                                   4640 ;E:\Dropbox\FAUSTO\SVILUPPI\MSX\CODE\C\MSXgl\projects\exsoccer/exsoccer_s2_b0.c:845: if (g_MatchStatus != MATCH_IN_ACTION && g_MatchStatus != MATCH_BALL_ON_GOALKEEPER) {
    000017C0 3Ar00r00         [13] 4641 	ld	a,(_g_MatchStatus+0)
    000017C3 FE 0C            [ 7] 4642 	cp	a,#0x0c
    000017C5 28 03            [12] 4643 	jr	Z, 00102$
    000017C7 D6 0D            [ 7] 4644 	sub	a, #0x0d
                                   4645 ;E:\Dropbox\FAUSTO\SVILUPPI\MSX\CODE\C\MSXgl\projects\exsoccer/exsoccer_s2_b0.c:846: return; 
    000017C9 C0               [11] 4646 	ret	NZ
    000017CA                       4647 00102$:
                                   4648 ;E:\Dropbox\FAUSTO\SVILUPPI\MSX\CODE\C\MSXgl\projects\exsoccer/exsoccer_s2_b0.c:850: u8 carrier = g_Ball.PossessionPlayerId;
    000017CA 3Ar06r00         [13] 4649 	ld	a, (#_g_Ball + 6)
    000017CD 4F               [ 4] 4650 	ld	c, a
                                   4651 ;E:\Dropbox\FAUSTO\SVILUPPI\MSX\CODE\C\MSXgl\projects\exsoccer/exsoccer_s2_b0.c:852: if (g_Ball.PossessionPlayerId == NO_VALUE) {
    000017CE 3C               [ 4] 4652 	inc	a
    000017CF 20 06            [12] 4653 	jr	NZ, 00105$
                                   4654 ;E:\Dropbox\FAUSTO\SVILUPPI\MSX\CODE\C\MSXgl\projects\exsoccer/exsoccer_s2_b0.c:853: g_PassTargetPlayer = NO_VALUE;
    000017D1 21r00r00         [10] 4655 	ld	hl, #_g_PassTargetPlayer
    000017D4 36 FF            [10] 4656 	ld	(hl), #0xff
                                   4657 ;E:\Dropbox\FAUSTO\SVILUPPI\MSX\CODE\C\MSXgl\projects\exsoccer/exsoccer_s2_b0.c:854: return;
    000017D6 C9               [10] 4658 	ret
    000017D7                       4659 00105$:
                                   4660 ;E:\Dropbox\FAUSTO\SVILUPPI\MSX\CODE\C\MSXgl\projects\exsoccer/exsoccer_s2_b0.c:858: passUpdateTimer++;
    000017D7 21r13r00         [10] 4661 	ld	hl, #_UpdatePassTarget_passUpdateTimer_65537_1340
    000017DA 34               [11] 4662 	inc	(hl)
                                   4663 ;E:\Dropbox\FAUSTO\SVILUPPI\MSX\CODE\C\MSXgl\projects\exsoccer/exsoccer_s2_b0.c:859: if (passUpdateTimer < 8) return;
    000017DB 3Ar13r00         [13] 4664 	ld	a, (_UpdatePassTarget_passUpdateTimer_65537_1340+0)
    000017DE D6 08            [ 7] 4665 	sub	a, #0x08
    000017E0 D8               [11] 4666 	ret	C
                                   4667 ;E:\Dropbox\FAUSTO\SVILUPPI\MSX\CODE\C\MSXgl\projects\exsoccer/exsoccer_s2_b0.c:860: passUpdateTimer = 0;
    000017E1 21r13r00         [10] 4668 	ld	hl, #_UpdatePassTarget_passUpdateTimer_65537_1340
    000017E4 36 00            [10] 4669 	ld	(hl), #0x00
                                   4670 ;E:\Dropbox\FAUSTO\SVILUPPI\MSX\CODE\C\MSXgl\projects\exsoccer/exsoccer_s2_b0.c:862: if (carrier != NO_VALUE) {
    000017E6 79               [ 4] 4671 	ld	a, c
    000017E7 3C               [ 4] 4672 	inc	a
    000017E8 28 08            [12] 4673 	jr	Z, 00111$
                                   4674 ;E:\Dropbox\FAUSTO\SVILUPPI\MSX\CODE\C\MSXgl\projects\exsoccer/exsoccer_s2_b0.c:863: g_PassTargetPlayer = GetBestPassTarget(carrier);
    000017EA 79               [ 4] 4675 	ld	a, c
    000017EB CDr58r11         [17] 4676 	call	_GetBestPassTarget
    000017EE 32r00r00         [13] 4677 	ld	(_g_PassTargetPlayer+0), a
    000017F1 C9               [10] 4678 	ret
    000017F2                       4679 00111$:
                                   4680 ;E:\Dropbox\FAUSTO\SVILUPPI\MSX\CODE\C\MSXgl\projects\exsoccer/exsoccer_s2_b0.c:865: if (g_Ball.PassTargetPlayerId == NO_VALUE) g_PassTargetPlayer = NO_VALUE;
    000017F2 3Ar10r00         [13] 4681 	ld	a, (#_g_Ball + 16)
    000017F5 3C               [ 4] 4682 	inc	a
    000017F6 C0               [11] 4683 	ret	NZ
    000017F7 21r00r00         [10] 4684 	ld	hl, #_g_PassTargetPlayer
    000017FA 36 FF            [10] 4685 	ld	(hl), #0xff
                                   4686 ;E:\Dropbox\FAUSTO\SVILUPPI\MSX\CODE\C\MSXgl\projects\exsoccer/exsoccer_s2_b0.c:867: }
    000017FC C9               [10] 4687 	ret
                                   4688 ;E:\Dropbox\FAUSTO\SVILUPPI\MSX\CODE\C\MSXgl\projects\exsoccer/exsoccer_s2_b0.c:877: void GoalkeeperWithBall(u8 teamId, bool isSteal) {
                                   4689 ;	---------------------------------
                                   4690 ; Function GoalkeeperWithBall
                                   4691 ; ---------------------------------
    000017FD                       4692 _GoalkeeperWithBall::
    000017FD DD E5            [15] 4693 	push	ix
    000017FF DD 21 00 00      [14] 4694 	ld	ix,#0
    00001803 DD 39            [15] 4695 	add	ix,sp
    00001805 FD 21 F2 FF      [14] 4696 	ld	iy, #-14
    00001809 FD 39            [15] 4697 	add	iy, sp
    0000180B FD F9            [10] 4698 	ld	sp, iy
    0000180D DD 77 FE         [19] 4699 	ld	-2 (ix), a
    00001810 DD 75 FD         [19] 4700 	ld	-3 (ix), l
                                   4701 ;E:\Dropbox\FAUSTO\SVILUPPI\MSX\CODE\C\MSXgl\projects\exsoccer/exsoccer_s2_b0.c:878: u8 gkId = GetPlayerIdByRole(teamId, PLAYER_ROLE_GOALKEEPER);
    00001813 2E 00            [ 7] 4702 	ld	l, #0x00
                                   4703 ;	spillPairReg hl
                                   4704 ;	spillPairReg hl
    00001815 DD 7E FE         [19] 4705 	ld	a, -2 (ix)
    00001818 CDr2Er00         [17] 4706 	call	_GetPlayerIdByRole
                                   4707 ;E:\Dropbox\FAUSTO\SVILUPPI\MSX\CODE\C\MSXgl\projects\exsoccer/exsoccer_s2_b0.c:879: if(gkId == NO_VALUE) return;
    0000181B DD 77 F4         [19] 4708 	ld	-12 (ix), a
    0000181E 3C               [ 4] 4709 	inc	a
    0000181F CAr2Ar1A         [10] 4710 	jp	Z,00135$
    00001822 C3r25r18         [10] 4711 	jp	00102$
    00001825                       4712 00102$:
                                   4713 ;E:\Dropbox\FAUSTO\SVILUPPI\MSX\CODE\C\MSXgl\projects\exsoccer/exsoccer_s2_b0.c:881: s_GkAnimPlayerId = gkId;
    00001825 DD 7E F4         [19] 4714 	ld	a, -12 (ix)
    00001828 32r01r00         [13] 4715 	ld	(_s_GkAnimPlayerId+0), a
                                   4716 ;E:\Dropbox\FAUSTO\SVILUPPI\MSX\CODE\C\MSXgl\projects\exsoccer/exsoccer_s2_b0.c:882: s_GkAnimTimer = 0;
    0000182B 21r00r00         [10] 4717 	ld	hl, #_s_GkAnimTimer
    0000182E 36 00            [10] 4718 	ld	(hl), #0x00
                                   4719 ;E:\Dropbox\FAUSTO\SVILUPPI\MSX\CODE\C\MSXgl\projects\exsoccer/exsoccer_s2_b0.c:885: if (teamId == TEAM_1) {
    00001830 DD 7E FE         [19] 4720 	ld	a, -2 (ix)
    00001833 3D               [ 4] 4721 	dec	a
    00001834 3E 01            [ 7] 4722 	ld	a, #0x01
    00001836 28 01            [12] 4723 	jr	Z, 00239$
    00001838 AF               [ 4] 4724 	xor	a, a
    00001839                       4725 00239$:
    00001839 DD 77 F5         [19] 4726 	ld	-11 (ix), a
                                   4727 ;E:\Dropbox\FAUSTO\SVILUPPI\MSX\CODE\C\MSXgl\projects\exsoccer/exsoccer_s2_b0.c:886: g_Players[gkId].PatternId = PLAYER_POSE_TEAM1_GK_BALL_FRONT;
    0000183C DD 4E F4         [19] 4728 	ld	c, -12 (ix)
    0000183F 06 00            [ 7] 4729 	ld	b, #0x00
    00001841 69               [ 4] 4730 	ld	l, c
    00001842 60               [ 4] 4731 	ld	h, b
    00001843 29               [11] 4732 	add	hl, hl
    00001844 29               [11] 4733 	add	hl, hl
    00001845 09               [11] 4734 	add	hl, bc
    00001846 29               [11] 4735 	add	hl, hl
    00001847 29               [11] 4736 	add	hl, hl
    00001848 09               [11] 4737 	add	hl, bc
    00001849 4D               [ 4] 4738 	ld	c, l
    0000184A 44               [ 4] 4739 	ld	b, h
                                   4740 ;E:\Dropbox\FAUSTO\SVILUPPI\MSX\CODE\C\MSXgl\projects\exsoccer/exsoccer_s2_b0.c:885: if (teamId == TEAM_1) {
    0000184B DD 7E F5         [19] 4741 	ld	a, -11 (ix)
    0000184E B7               [ 4] 4742 	or	a, a
    0000184F 28 14            [12] 4743 	jr	Z, 00104$
                                   4744 ;E:\Dropbox\FAUSTO\SVILUPPI\MSX\CODE\C\MSXgl\projects\exsoccer/exsoccer_s2_b0.c:886: g_Players[gkId].PatternId = PLAYER_POSE_TEAM1_GK_BALL_FRONT;
    00001851 21r00r00         [10] 4745 	ld	hl, #_g_Players+0
    00001854 09               [11] 4746 	add	hl, bc
    00001855 EB               [ 4] 4747 	ex	de, hl
    00001856 21 08 00         [10] 4748 	ld	hl, #0x0008
    00001859 19               [11] 4749 	add	hl, de
    0000185A 36 9B            [10] 4750 	ld	(hl), #0x9b
                                   4751 ;E:\Dropbox\FAUSTO\SVILUPPI\MSX\CODE\C\MSXgl\projects\exsoccer/exsoccer_s2_b0.c:887: g_Players[gkId].Direction = DIRECTION_UP; // Face Up (Attack Direction)
    0000185C 21 0A 00         [10] 4752 	ld	hl, #0x000a
    0000185F 19               [11] 4753 	add	hl, de
    00001860 36 01            [10] 4754 	ld	(hl), #0x01
    00001862 C3r76r18         [10] 4755 	jp	00105$
    00001865                       4756 00104$:
                                   4757 ;E:\Dropbox\FAUSTO\SVILUPPI\MSX\CODE\C\MSXgl\projects\exsoccer/exsoccer_s2_b0.c:890: g_Players[gkId].PatternId = PLAYER_POSE_FRONT; // Team 2 GK plays like a player (feet)
    00001865 21r00r00         [10] 4758 	ld	hl, #_g_Players+0
    00001868 09               [11] 4759 	add	hl, bc
    00001869 EB               [ 4] 4760 	ex	de, hl
    0000186A 21 08 00         [10] 4761 	ld	hl, #0x0008
    0000186D 19               [11] 4762 	add	hl, de
    0000186E 36 10            [10] 4763 	ld	(hl), #0x10
                                   4764 ;E:\Dropbox\FAUSTO\SVILUPPI\MSX\CODE\C\MSXgl\projects\exsoccer/exsoccer_s2_b0.c:891: g_Players[gkId].Direction = DIRECTION_DOWN; // Face Down (Attack Direction)
    00001870 21 0A 00         [10] 4765 	ld	hl, #0x000a
    00001873 19               [11] 4766 	add	hl, de
    00001874 36 05            [10] 4767 	ld	(hl), #0x05
    00001876                       4768 00105$:
                                   4769 ;E:\Dropbox\FAUSTO\SVILUPPI\MSX\CODE\C\MSXgl\projects\exsoccer/exsoccer_s2_b0.c:895: g_Players[gkId].Status = PLAYER_STATUS_POSITIONED;
    00001876 21r00r00         [10] 4770 	ld	hl, #_g_Players
    00001879 09               [11] 4771 	add	hl, bc
    0000187A 4D               [ 4] 4772 	ld	c, l
    0000187B 44               [ 4] 4773 	ld	b, h
    0000187C 21 12 00         [10] 4774 	ld	hl, #0x0012
    0000187F 09               [11] 4775 	add	hl, bc
    00001880 36 04            [10] 4776 	ld	(hl), #0x04
    00001882 23               [ 6] 4777 	inc	hl
                                   4778 ;E:\Dropbox\FAUSTO\SVILUPPI\MSX\CODE\C\MSXgl\projects\exsoccer/exsoccer_s2_b0.c:899: bool closeToLine = false;
    00001883 36 00            [10] 4779 	ld	(hl), #0x00
    00001885 5E               [ 7] 4780 	ld	e, (hl)
                                   4781 ;E:\Dropbox\FAUSTO\SVILUPPI\MSX\CODE\C\MSXgl\projects\exsoccer/exsoccer_s2_b0.c:900: if (teamId == TEAM_2) { // GK 2 (Top)
    00001886 DD 7E FE         [19] 4782 	ld	a, -2 (ix)
    00001889 D6 02            [ 7] 4783 	sub	a, #0x02
    0000188B 20 17            [12] 4784 	jr	NZ, 00111$
                                   4785 ;E:\Dropbox\FAUSTO\SVILUPPI\MSX\CODE\C\MSXgl\projects\exsoccer/exsoccer_s2_b0.c:901: s_GkRecoilY = -1;
    0000188D 21r02r00         [10] 4786 	ld	hl, #_s_GkRecoilY
    00001890 36 FF            [10] 4787 	ld	(hl), #0xff
                                   4788 ;E:\Dropbox\FAUSTO\SVILUPPI\MSX\CODE\C\MSXgl\projects\exsoccer/exsoccer_s2_b0.c:902: if (g_Players[gkId].Y <= FIELD_BOUND_Y_TOP + 4) closeToLine = true;
    00001892 69               [ 4] 4789 	ld	l, c
    00001893 60               [ 4] 4790 	ld	h, b
    00001894 4E               [ 7] 4791 	ld	c, (hl)
    00001895 23               [ 6] 4792 	inc	hl
    00001896 46               [ 7] 4793 	ld	b, (hl)
    00001897 3E 36            [ 7] 4794 	ld	a, #0x36
    00001899 B9               [ 4] 4795 	cp	a, c
    0000189A 3E 00            [ 7] 4796 	ld	a, #0x00
    0000189C 98               [ 4] 4797 	sbc	a, b
    0000189D 38 19            [12] 4798 	jr	C, 00112$
    0000189F 1E 01            [ 7] 4799 	ld	e, #0x01
    000018A1 C3rB8r18         [10] 4800 	jp	00112$
    000018A4                       4801 00111$:
                                   4802 ;E:\Dropbox\FAUSTO\SVILUPPI\MSX\CODE\C\MSXgl\projects\exsoccer/exsoccer_s2_b0.c:904: s_GkRecoilY = 1;
    000018A4 21r02r00         [10] 4803 	ld	hl, #_s_GkRecoilY
    000018A7 36 01            [10] 4804 	ld	(hl), #0x01
                                   4805 ;E:\Dropbox\FAUSTO\SVILUPPI\MSX\CODE\C\MSXgl\projects\exsoccer/exsoccer_s2_b0.c:905: if (g_Players[gkId].Y >= FIELD_BOUND_Y_BOTTOM - 4) closeToLine = true;
    000018A9 69               [ 4] 4806 	ld	l, c
    000018AA 60               [ 4] 4807 	ld	h, b
    000018AB 4E               [ 7] 4808 	ld	c, (hl)
    000018AC 23               [ 6] 4809 	inc	hl
    000018AD 46               [ 7] 4810 	ld	b, (hl)
    000018AE 79               [ 4] 4811 	ld	a, c
    000018AF D6 AA            [ 7] 4812 	sub	a, #0xaa
    000018B1 78               [ 4] 4813 	ld	a, b
    000018B2 DE 01            [ 7] 4814 	sbc	a, #0x01
    000018B4 38 02            [12] 4815 	jr	C, 00112$
    000018B6 1E 01            [ 7] 4816 	ld	e, #0x01
    000018B8                       4817 00112$:
                                   4818 ;E:\Dropbox\FAUSTO\SVILUPPI\MSX\CODE\C\MSXgl\projects\exsoccer/exsoccer_s2_b0.c:908: if (closeToLine || isSteal) s_GkRecoilY = 0; // No recoil for Steals
    000018B8 7B               [ 4] 4819 	ld	a, e
    000018B9 B7               [ 4] 4820 	or	a, a
    000018BA 20 06            [12] 4821 	jr	NZ, 00113$
    000018BC DD 7E FD         [19] 4822 	ld	a, -3 (ix)
    000018BF B7               [ 4] 4823 	or	a, a
    000018C0 28 05            [12] 4824 	jr	Z, 00114$
    000018C2                       4825 00113$:
    000018C2 21r02r00         [10] 4826 	ld	hl, #_s_GkRecoilY
    000018C5 36 00            [10] 4827 	ld	(hl), #0x00
    000018C7                       4828 00114$:
                                   4829 ;E:\Dropbox\FAUSTO\SVILUPPI\MSX\CODE\C\MSXgl\projects\exsoccer/exsoccer_s2_b0.c:911: SetPlayerBallPossession(gkId);
    000018C7 DD 7E F4         [19] 4830 	ld	a, -12 (ix)
    000018CA CDr00r00         [17] 4831 	call	_SetPlayerBallPossession
                                   4832 ;E:\Dropbox\FAUSTO\SVILUPPI\MSX\CODE\C\MSXgl\projects\exsoccer/exsoccer_s2_b0.c:912: g_Ball.ShotActive = 0;
    000018CD 21r1Br00         [10] 4833 	ld	hl, #(_g_Ball + 27)
    000018D0 36 00            [10] 4834 	ld	(hl), #0x00
                                   4835 ;E:\Dropbox\FAUSTO\SVILUPPI\MSX\CODE\C\MSXgl\projects\exsoccer/exsoccer_s2_b0.c:914: g_MatchStatus = MATCH_BALL_ON_GOALKEEPER;
    000018D2 21r00r00         [10] 4836 	ld	hl, #_g_MatchStatus
    000018D5 36 0D            [10] 4837 	ld	(hl), #0x0d
                                   4838 ;E:\Dropbox\FAUSTO\SVILUPPI\MSX\CODE\C\MSXgl\projects\exsoccer/exsoccer_s2_b0.c:917: for(u8 i=0; i<14; i++) {
    000018D7 DD 36 FF 00      [19] 4839 	ld	-1 (ix), #0x00
    000018DB                       4840 00134$:
    000018DB DD 7E FF         [19] 4841 	ld	a, -1 (ix)
    000018DE D6 0E            [ 7] 4842 	sub	a, #0x0e
    000018E0 D2r2Ar1A         [10] 4843 	jp	NC, 00135$
                                   4844 ;E:\Dropbox\FAUSTO\SVILUPPI\MSX\CODE\C\MSXgl\projects\exsoccer/exsoccer_s2_b0.c:918: if(i == gkId) continue;
    000018E3 DD 7E F4         [19] 4845 	ld	a, -12 (ix)
    000018E6 DD 96 FF         [19] 4846 	sub	a, -1 (ix)
    000018E9 CAr24r1A         [10] 4847 	jp	Z,00131$
                                   4848 ;E:\Dropbox\FAUSTO\SVILUPPI\MSX\CODE\C\MSXgl\projects\exsoccer/exsoccer_s2_b0.c:919: if(g_Players[i].TeamId == REFEREE) continue;
    000018EC DD 4E FF         [19] 4849 	ld	c, -1 (ix)
    000018EF 06 00            [ 7] 4850 	ld	b, #0x00
    000018F1 69               [ 4] 4851 	ld	l, c
    000018F2 60               [ 4] 4852 	ld	h, b
    000018F3 29               [11] 4853 	add	hl, hl
    000018F4 29               [11] 4854 	add	hl, hl
    000018F5 09               [11] 4855 	add	hl, bc
    000018F6 29               [11] 4856 	add	hl, hl
    000018F7 29               [11] 4857 	add	hl, hl
    000018F8 09               [11] 4858 	add	hl, bc
    000018F9 EB               [ 4] 4859 	ex	de, hl
    000018FA 21r00r00         [10] 4860 	ld	hl, #_g_Players
    000018FD 19               [11] 4861 	add	hl, de
    000018FE DD 75 F6         [19] 4862 	ld	-10 (ix), l
    00001901 DD 74 F7         [19] 4863 	ld	-9 (ix), h
    00001904 01 09 00         [10] 4864 	ld	bc,#9
    00001907 09               [11] 4865 	add	hl,bc
    00001908 7E               [ 7] 4866 	ld	a, (hl)
    00001909 DD 77 F8         [19] 4867 	ld	-8 (ix), a
    0000190C D6 0E            [ 7] 4868 	sub	a, #0x0e
    0000190E CAr24r1A         [10] 4869 	jp	Z,00131$
                                   4870 ;E:\Dropbox\FAUSTO\SVILUPPI\MSX\CODE\C\MSXgl\projects\exsoccer/exsoccer_s2_b0.c:920: if(g_Players[i].Role == PLAYER_ROLE_GOALKEEPER) continue;
    00001911 DD 7E F6         [19] 4871 	ld	a, -10 (ix)
    00001914 DD 77 FB         [19] 4872 	ld	-5 (ix), a
    00001917 DD 7E F7         [19] 4873 	ld	a, -9 (ix)
    0000191A DD 77 FC         [19] 4874 	ld	-4 (ix), a
    0000191D DD 6E FB         [19] 4875 	ld	l, -5 (ix)
    00001920 DD 66 FC         [19] 4876 	ld	h, -4 (ix)
    00001923 11 0D 00         [10] 4877 	ld	de, #0x000d
    00001926 19               [11] 4878 	add	hl, de
    00001927 7E               [ 7] 4879 	ld	a, (hl)
    00001928 DD 77 FC         [19] 4880 	ld	-4 (ix), a
    0000192B B7               [ 4] 4881 	or	a, a
    0000192C CAr24r1A         [10] 4882 	jp	Z, 00131$
                                   4883 ;E:\Dropbox\FAUSTO\SVILUPPI\MSX\CODE\C\MSXgl\projects\exsoccer/exsoccer_s2_b0.c:924: tx = g_Players[i].X;
    0000192F DD 7E F6         [19] 4884 	ld	a, -10 (ix)
    00001932 DD 77 FB         [19] 4885 	ld	-5 (ix), a
    00001935 DD 7E F7         [19] 4886 	ld	a, -9 (ix)
    00001938 DD 77 FC         [19] 4887 	ld	-4 (ix), a
    0000193B DD 6E FB         [19] 4888 	ld	l, -5 (ix)
    0000193E DD 66 FC         [19] 4889 	ld	h, -4 (ix)
    00001941 23               [ 6] 4890 	inc	hl
    00001942 23               [ 6] 4891 	inc	hl
    00001943 7E               [ 7] 4892 	ld	a, (hl)
    00001944 DD 77 F9         [19] 4893 	ld	-7 (ix), a
    00001947 23               [ 6] 4894 	inc	hl
    00001948 7E               [ 7] 4895 	ld	a, (hl)
    00001949 DD 77 FA         [19] 4896 	ld	-6 (ix), a
                                   4897 ;E:\Dropbox\FAUSTO\SVILUPPI\MSX\CODE\C\MSXgl\projects\exsoccer/exsoccer_s2_b0.c:931: ty = (g_Players[i].Y > 50) ? (g_Players[i].Y - 40) : 50;
    0000194C DD 6E F6         [19] 4898 	ld	l, -10 (ix)
    0000194F DD 66 F7         [19] 4899 	ld	h, -9 (ix)
    00001952 7E               [ 7] 4900 	ld	a, (hl)
    00001953 DD 77 FB         [19] 4901 	ld	-5 (ix), a
    00001956 23               [ 6] 4902 	inc	hl
    00001957 7E               [ 7] 4903 	ld	a, (hl)
    00001958 DD 77 FC         [19] 4904 	ld	-4 (ix), a
                                   4905 ;E:\Dropbox\FAUSTO\SVILUPPI\MSX\CODE\C\MSXgl\projects\exsoccer/exsoccer_s2_b0.c:927: if(g_Players[i].TeamId == teamId) {
    0000195B DD 7E FE         [19] 4906 	ld	a, -2 (ix)
    0000195E DD 96 F8         [19] 4907 	sub	a, -8 (ix)
    00001961 20 4F            [12] 4908 	jr	NZ, 00129$
                                   4909 ;E:\Dropbox\FAUSTO\SVILUPPI\MSX\CODE\C\MSXgl\projects\exsoccer/exsoccer_s2_b0.c:930: if(teamId == TEAM_1) { // Moving UP
    00001963 DD 7E F5         [19] 4910 	ld	a, -11 (ix)
    00001966 B7               [ 4] 4911 	or	a, a
    00001967 28 21            [12] 4912 	jr	Z, 00123$
                                   4913 ;E:\Dropbox\FAUSTO\SVILUPPI\MSX\CODE\C\MSXgl\projects\exsoccer/exsoccer_s2_b0.c:931: ty = (g_Players[i].Y > 50) ? (g_Players[i].Y - 40) : 50;
    00001969 3E 32            [ 7] 4914 	ld	a, #0x32
    0000196B DD BE FB         [19] 4915 	cp	a, -5 (ix)
    0000196E 3E 00            [ 7] 4916 	ld	a, #0x00
    00001970 DD 9E FC         [19] 4917 	sbc	a, -4 (ix)
    00001973 30 0F            [12] 4918 	jr	NC, 00137$
    00001975 DD 7E FB         [19] 4919 	ld	a, -5 (ix)
    00001978 C6 D8            [ 7] 4920 	add	a, #0xd8
    0000197A 5F               [ 4] 4921 	ld	e, a
    0000197B DD 7E FC         [19] 4922 	ld	a, -4 (ix)
    0000197E CE FF            [ 7] 4923 	adc	a, #0xff
    00001980 57               [ 4] 4924 	ld	d, a
    00001981 C3rF6r19         [10] 4925 	jp	00130$
    00001984                       4926 00137$:
    00001984 11 32 00         [10] 4927 	ld	de, #0x0032
    00001987 C3rF6r19         [10] 4928 	jp	00130$
    0000198A                       4929 00123$:
                                   4930 ;E:\Dropbox\FAUSTO\SVILUPPI\MSX\CODE\C\MSXgl\projects\exsoccer/exsoccer_s2_b0.c:933: ty = (g_Players[i].Y < 380) ? (g_Players[i].Y + 40) : 380;
    0000198A DD 7E FB         [19] 4931 	ld	a, -5 (ix)
    0000198D D6 7C            [ 7] 4932 	sub	a, #0x7c
    0000198F DD 7E FC         [19] 4933 	ld	a, -4 (ix)
    00001992 DE 01            [ 7] 4934 	sbc	a, #0x01
    00001994 30 13            [12] 4935 	jr	NC, 00139$
    00001996 DD 7E FB         [19] 4936 	ld	a, -5 (ix)
    00001999 C6 28            [ 7] 4937 	add	a, #0x28
    0000199B DD 77 F2         [19] 4938 	ld	-14 (ix), a
    0000199E DD 7E FC         [19] 4939 	ld	a, -4 (ix)
    000019A1 CE 00            [ 7] 4940 	adc	a, #0x00
    000019A3 DD 77 F3         [19] 4941 	ld	-13 (ix), a
    000019A6 C3rADr19         [10] 4942 	jp	00140$
    000019A9                       4943 00139$:
    000019A9 21 7C 01         [10] 4944 	ld	hl, #0x017c
    000019AC E3               [19] 4945 	ex	(sp), hl
    000019AD                       4946 00140$:
    000019AD D1               [10] 4947 	pop	de
    000019AE D5               [11] 4948 	push	de
    000019AF C3rF6r19         [10] 4949 	jp	00130$
    000019B2                       4950 00129$:
                                   4951 ;E:\Dropbox\FAUSTO\SVILUPPI\MSX\CODE\C\MSXgl\projects\exsoccer/exsoccer_s2_b0.c:938: if(teamId == TEAM_1) { // Opponent is Team 2 (Top) -> Retreat UP? No, Team 2 Defends Top.
    000019B2 DD 7E F5         [19] 4952 	ld	a, -11 (ix)
    000019B5 B7               [ 4] 4953 	or	a, a
    000019B6 28 21            [12] 4954 	jr	Z, 00126$
                                   4955 ;E:\Dropbox\FAUSTO\SVILUPPI\MSX\CODE\C\MSXgl\projects\exsoccer/exsoccer_s2_b0.c:941: ty = (g_Players[i].Y > 50) ? (g_Players[i].Y - 40) : 50;
    000019B8 3E 32            [ 7] 4956 	ld	a, #0x32
    000019BA DD BE FB         [19] 4957 	cp	a, -5 (ix)
    000019BD 3E 00            [ 7] 4958 	ld	a, #0x00
    000019BF DD 9E FC         [19] 4959 	sbc	a, -4 (ix)
    000019C2 30 0F            [12] 4960 	jr	NC, 00141$
    000019C4 DD 7E FB         [19] 4961 	ld	a, -5 (ix)
    000019C7 C6 D8            [ 7] 4962 	add	a, #0xd8
    000019C9 5F               [ 4] 4963 	ld	e, a
    000019CA DD 7E FC         [19] 4964 	ld	a, -4 (ix)
    000019CD CE FF            [ 7] 4965 	adc	a, #0xff
    000019CF 57               [ 4] 4966 	ld	d, a
    000019D0 C3rF6r19         [10] 4967 	jp	00130$
    000019D3                       4968 00141$:
    000019D3 11 32 00         [10] 4969 	ld	de, #0x0032
    000019D6 C3rF6r19         [10] 4970 	jp	00130$
    000019D9                       4971 00126$:
                                   4972 ;E:\Dropbox\FAUSTO\SVILUPPI\MSX\CODE\C\MSXgl\projects\exsoccer/exsoccer_s2_b0.c:944: ty = (g_Players[i].Y < 380) ? (g_Players[i].Y + 40) : 380;
    000019D9 DD 7E FB         [19] 4973 	ld	a, -5 (ix)
    000019DC D6 7C            [ 7] 4974 	sub	a, #0x7c
    000019DE DD 7E FC         [19] 4975 	ld	a, -4 (ix)
    000019E1 DE 01            [ 7] 4976 	sbc	a, #0x01
    000019E3 30 0D            [12] 4977 	jr	NC, 00143$
    000019E5 DD 6E FB         [19] 4978 	ld	l, -5 (ix)
    000019E8 DD 66 FC         [19] 4979 	ld	h, -4 (ix)
    000019EB 11 28 00         [10] 4980 	ld	de, #0x0028
    000019EE 19               [11] 4981 	add	hl, de
    000019EF C3rF5r19         [10] 4982 	jp	00144$
    000019F2                       4983 00143$:
    000019F2 21 7C 01         [10] 4984 	ld	hl, #0x017c
    000019F5                       4985 00144$:
    000019F5 EB               [ 4] 4986 	ex	de, hl
    000019F6                       4987 00130$:
                                   4988 ;E:\Dropbox\FAUSTO\SVILUPPI\MSX\CODE\C\MSXgl\projects\exsoccer/exsoccer_s2_b0.c:949: g_Players[i].TargetX = tx;
    000019F6 DD 6E F6         [19] 4989 	ld	l, -10 (ix)
    000019F9 DD 66 F7         [19] 4990 	ld	h, -9 (ix)
    000019FC 01 10 00         [10] 4991 	ld	bc, #0x0010
    000019FF 09               [11] 4992 	add	hl, bc
    00001A00 DD 7E F9         [19] 4993 	ld	a, -7 (ix)
    00001A03 77               [ 7] 4994 	ld	(hl), a
    00001A04 23               [ 6] 4995 	inc	hl
    00001A05 DD 7E FA         [19] 4996 	ld	a, -6 (ix)
    00001A08 77               [ 7] 4997 	ld	(hl), a
                                   4998 ;E:\Dropbox\FAUSTO\SVILUPPI\MSX\CODE\C\MSXgl\projects\exsoccer/exsoccer_s2_b0.c:950: g_Players[i].TargetY = ty;
    00001A09 DD 6E F6         [19] 4999 	ld	l, -10 (ix)
    00001A0C DD 66 F7         [19] 5000 	ld	h, -9 (ix)
    00001A0F 01 0E 00         [10] 5001 	ld	bc, #0x000e
    00001A12 09               [11] 5002 	add	hl, bc
    00001A13 73               [ 7] 5003 	ld	(hl), e
    00001A14 23               [ 6] 5004 	inc	hl
    00001A15 72               [ 7] 5005 	ld	(hl), d
                                   5006 ;E:\Dropbox\FAUSTO\SVILUPPI\MSX\CODE\C\MSXgl\projects\exsoccer/exsoccer_s2_b0.c:951: g_Players[i].Status = PLAYER_STATUS_NONE; // Unlock movement
    00001A16 DD 6E F6         [19] 5007 	ld	l, -10 (ix)
    00001A19 DD 66 F7         [19] 5008 	ld	h, -9 (ix)
    00001A1C 11 12 00         [10] 5009 	ld	de, #0x0012
    00001A1F 19               [11] 5010 	add	hl, de
    00001A20 AF               [ 4] 5011 	xor	a, a
    00001A21 77               [ 7] 5012 	ld	(hl), a
    00001A22 23               [ 6] 5013 	inc	hl
    00001A23 77               [ 7] 5014 	ld	(hl), a
    00001A24                       5015 00131$:
                                   5016 ;E:\Dropbox\FAUSTO\SVILUPPI\MSX\CODE\C\MSXgl\projects\exsoccer/exsoccer_s2_b0.c:917: for(u8 i=0; i<14; i++) {
    00001A24 DD 34 FF         [23] 5017 	inc	-1 (ix)
    00001A27 C3rDBr18         [10] 5018 	jp	00134$
    00001A2A                       5019 00135$:
                                   5020 ;E:\Dropbox\FAUSTO\SVILUPPI\MSX\CODE\C\MSXgl\projects\exsoccer/exsoccer_s2_b0.c:953: }
    00001A2A DD F9            [10] 5021 	ld	sp, ix
    00001A2C DD E1            [14] 5022 	pop	ix
    00001A2E C9               [10] 5023 	ret
                                   5024 ;E:\Dropbox\FAUSTO\SVILUPPI\MSX\CODE\C\MSXgl\projects\exsoccer/exsoccer_s2_b0.c:955: void TickGoalkeeperAnimation() {
                                   5025 ;	---------------------------------
                                   5026 ; Function TickGoalkeeperAnimation
                                   5027 ; ---------------------------------
    00001A2F                       5028 _TickGoalkeeperAnimation::
    00001A2F DD E5            [15] 5029 	push	ix
    00001A31 DD 21 00 00      [14] 5030 	ld	ix,#0
    00001A35 DD 39            [15] 5031 	add	ix,sp
    00001A37 F5               [11] 5032 	push	af
                                   5033 ;E:\Dropbox\FAUSTO\SVILUPPI\MSX\CODE\C\MSXgl\projects\exsoccer/exsoccer_s2_b0.c:956: if (g_MatchStatus != MATCH_BALL_ON_GOALKEEPER) return;
    00001A38 3Ar00r00         [13] 5034 	ld	a, (_g_MatchStatus+0)
    00001A3B D6 0D            [ 7] 5035 	sub	a, #0x0d
    00001A3D C2r6Ar1C         [10] 5036 	jp	NZ,00146$
                                   5037 ;E:\Dropbox\FAUSTO\SVILUPPI\MSX\CODE\C\MSXgl\projects\exsoccer/exsoccer_s2_b0.c:957: if (s_GkAnimPlayerId == NO_VALUE) return;
    00001A40 3Ar01r00         [13] 5038 	ld	a, (_s_GkAnimPlayerId+0)
    00001A43 3C               [ 4] 5039 	inc	a
    00001A44 CAr6Ar1C         [10] 5040 	jp	Z,00146$
    00001A47 C3r4Ar1A         [10] 5041 	jp	00104$
    00001A4A                       5042 00104$:
                                   5043 ;E:\Dropbox\FAUSTO\SVILUPPI\MSX\CODE\C\MSXgl\projects\exsoccer/exsoccer_s2_b0.c:960: g_Players[s_GkAnimPlayerId].Status = PLAYER_STATUS_POSITIONED;
    00001A4A 01r00r00         [10] 5044 	ld	bc, #_g_Players+0
    00001A4D ED 5Br01r00      [20] 5045 	ld	de, (_s_GkAnimPlayerId)
    00001A51 16 00            [ 7] 5046 	ld	d, #0x00
    00001A53 6B               [ 4] 5047 	ld	l, e
    00001A54 62               [ 4] 5048 	ld	h, d
    00001A55 29               [11] 5049 	add	hl, hl
    00001A56 29               [11] 5050 	add	hl, hl
    00001A57 19               [11] 5051 	add	hl, de
    00001A58 29               [11] 5052 	add	hl, hl
    00001A59 29               [11] 5053 	add	hl, hl
    00001A5A 19               [11] 5054 	add	hl, de
    00001A5B 09               [11] 5055 	add	hl, bc
    00001A5C 11 12 00         [10] 5056 	ld	de, #0x0012
    00001A5F 19               [11] 5057 	add	hl, de
    00001A60 36 04            [10] 5058 	ld	(hl), #0x04
    00001A62 23               [ 6] 5059 	inc	hl
    00001A63 36 00            [10] 5060 	ld	(hl), #0x00
                                   5061 ;E:\Dropbox\FAUSTO\SVILUPPI\MSX\CODE\C\MSXgl\projects\exsoccer/exsoccer_s2_b0.c:962: s_GkAnimTimer++;
    00001A65 FD 21r00r00      [14] 5062 	ld	iy, #_s_GkAnimTimer
    00001A69 FD 34 00         [23] 5063 	inc	0 (iy)
                                   5064 ;E:\Dropbox\FAUSTO\SVILUPPI\MSX\CODE\C\MSXgl\projects\exsoccer/exsoccer_s2_b0.c:967: if (s_GkAnimTimer < kickTime) {
                                   5065 ;E:\Dropbox\FAUSTO\SVILUPPI\MSX\CODE\C\MSXgl\projects\exsoccer/exsoccer_s2_b0.c:968: if (s_GkAnimTimer < 30 && (s_GkAnimTimer % 2) == 0 && s_GkRecoilY != 0) { // Faster movement (every 2 frames)
    00001A6C 3Ar00r00         [13] 5066 	ld	a,(_s_GkAnimTimer+0)
    00001A6F FE 3C            [ 7] 5067 	cp	a,#0x3c
    00001A71 D2r45r1B         [10] 5068 	jp	NC,00144$
    00001A74 D6 1E            [ 7] 5069 	sub	a, #0x1e
    00001A76 D2r18r1B         [10] 5070 	jp	NC, 00110$
    00001A79 FD CB 00 46      [20] 5071 	bit	0, 0 (iy)
    00001A7D C2r18r1B         [10] 5072 	jp	NZ,00110$
    00001A80 3Ar02r00         [13] 5073 	ld	a, (_s_GkRecoilY+0)
    00001A83 B7               [ 4] 5074 	or	a, a
    00001A84 CAr18r1B         [10] 5075 	jp	Z, 00110$
                                   5076 ;E:\Dropbox\FAUSTO\SVILUPPI\MSX\CODE\C\MSXgl\projects\exsoccer/exsoccer_s2_b0.c:969: g_Players[s_GkAnimPlayerId].Y += s_GkRecoilY;
    00001A87 ED 5Br01r00      [20] 5077 	ld	de, (_s_GkAnimPlayerId)
    00001A8B 16 00            [ 7] 5078 	ld	d, #0x00
    00001A8D 6B               [ 4] 5079 	ld	l, e
    00001A8E 62               [ 4] 5080 	ld	h, d
    00001A8F 29               [11] 5081 	add	hl, hl
    00001A90 29               [11] 5082 	add	hl, hl
    00001A91 19               [11] 5083 	add	hl, de
    00001A92 29               [11] 5084 	add	hl, hl
    00001A93 29               [11] 5085 	add	hl, hl
    00001A94 19               [11] 5086 	add	hl, de
    00001A95 09               [11] 5087 	add	hl, bc
    00001A96 5E               [ 7] 5088 	ld	e, (hl)
    00001A97 23               [ 6] 5089 	inc	hl
    00001A98 56               [ 7] 5090 	ld	d, (hl)
    00001A99 2B               [ 6] 5091 	dec	hl
    00001A9A 3Ar02r00         [13] 5092 	ld	a, (_s_GkRecoilY+0)
    00001A9D FD E5            [15] 5093 	push	iy
    00001A9F DD 77 FC         [19] 5094 	ld	-4 (ix), a
    00001AA2 FD E1            [14] 5095 	pop	iy
    00001AA4 07               [ 4] 5096 	rlca
    00001AA5 9F               [ 4] 5097 	sbc	a, a
    00001AA6 FD E5            [15] 5098 	push	iy
    00001AA8 DD 77 FD         [19] 5099 	ld	-3 (ix), a
    00001AAB FD E1            [14] 5100 	pop	iy
    00001AAD FD 19            [15] 5101 	add	iy, de
    00001AAF FD E5            [15] 5102 	push	iy
    00001AB1 D1               [10] 5103 	pop	de
    00001AB2 73               [ 7] 5104 	ld	(hl), e
    00001AB3 23               [ 6] 5105 	inc	hl
    00001AB4 72               [ 7] 5106 	ld	(hl), d
                                   5107 ;E:\Dropbox\FAUSTO\SVILUPPI\MSX\CODE\C\MSXgl\projects\exsoccer/exsoccer_s2_b0.c:972: if(g_Players[s_GkAnimPlayerId].Y < FIELD_BOUND_Y_TOP) g_Players[s_GkAnimPlayerId].Y = FIELD_BOUND_Y_TOP;
    00001AB5 ED 5Br01r00      [20] 5108 	ld	de, (_s_GkAnimPlayerId)
    00001AB9 16 00            [ 7] 5109 	ld	d, #0x00
    00001ABB 6B               [ 4] 5110 	ld	l, e
    00001ABC 62               [ 4] 5111 	ld	h, d
    00001ABD 29               [11] 5112 	add	hl, hl
    00001ABE 29               [11] 5113 	add	hl, hl
    00001ABF 19               [11] 5114 	add	hl, de
    00001AC0 29               [11] 5115 	add	hl, hl
    00001AC1 29               [11] 5116 	add	hl, hl
    00001AC2 19               [11] 5117 	add	hl, de
    00001AC3 09               [11] 5118 	add	hl, bc
    00001AC4 5E               [ 7] 5119 	ld	e, (hl)
    00001AC5 23               [ 6] 5120 	inc	hl
    00001AC6 56               [ 7] 5121 	ld	d, (hl)
    00001AC7 2B               [ 6] 5122 	dec	hl
    00001AC8 7B               [ 4] 5123 	ld	a, e
    00001AC9 D6 32            [ 7] 5124 	sub	a, #0x32
    00001ACB 7A               [ 4] 5125 	ld	a, d
    00001ACC DE 00            [ 7] 5126 	sbc	a, #0x00
    00001ACE 30 05            [12] 5127 	jr	NC, 00106$
    00001AD0 36 32            [10] 5128 	ld	(hl), #0x32
    00001AD2 23               [ 6] 5129 	inc	hl
    00001AD3 36 00            [10] 5130 	ld	(hl), #0x00
    00001AD5                       5131 00106$:
                                   5132 ;E:\Dropbox\FAUSTO\SVILUPPI\MSX\CODE\C\MSXgl\projects\exsoccer/exsoccer_s2_b0.c:973: if(g_Players[s_GkAnimPlayerId].Y > FIELD_BOUND_Y_BOTTOM) g_Players[s_GkAnimPlayerId].Y = FIELD_BOUND_Y_BOTTOM;
    00001AD5 ED 5Br01r00      [20] 5133 	ld	de, (_s_GkAnimPlayerId)
    00001AD9 16 00            [ 7] 5134 	ld	d, #0x00
    00001ADB 6B               [ 4] 5135 	ld	l, e
    00001ADC 62               [ 4] 5136 	ld	h, d
    00001ADD 29               [11] 5137 	add	hl, hl
    00001ADE 29               [11] 5138 	add	hl, hl
    00001ADF 19               [11] 5139 	add	hl, de
    00001AE0 29               [11] 5140 	add	hl, hl
    00001AE1 29               [11] 5141 	add	hl, hl
    00001AE2 19               [11] 5142 	add	hl, de
    00001AE3 09               [11] 5143 	add	hl, bc
    00001AE4 5E               [ 7] 5144 	ld	e, (hl)
    00001AE5 23               [ 6] 5145 	inc	hl
    00001AE6 56               [ 7] 5146 	ld	d, (hl)
    00001AE7 2B               [ 6] 5147 	dec	hl
    00001AE8 3E AE            [ 7] 5148 	ld	a, #0xae
    00001AEA BB               [ 4] 5149 	cp	a, e
    00001AEB 3E 01            [ 7] 5150 	ld	a, #0x01
    00001AED 9A               [ 4] 5151 	sbc	a, d
    00001AEE 30 05            [12] 5152 	jr	NC, 00108$
    00001AF0 36 AE            [10] 5153 	ld	(hl), #0xae
    00001AF2 23               [ 6] 5154 	inc	hl
    00001AF3 36 01            [10] 5155 	ld	(hl), #0x01
    00001AF5                       5156 00108$:
                                   5157 ;E:\Dropbox\FAUSTO\SVILUPPI\MSX\CODE\C\MSXgl\projects\exsoccer/exsoccer_s2_b0.c:975: g_Players[s_GkAnimPlayerId].TargetY = g_Players[s_GkAnimPlayerId].Y; // Sync target
    00001AF5 ED 5Br01r00      [20] 5158 	ld	de, (_s_GkAnimPlayerId)
    00001AF9 16 00            [ 7] 5159 	ld	d, #0x00
    00001AFB 6B               [ 4] 5160 	ld	l, e
    00001AFC 62               [ 4] 5161 	ld	h, d
    00001AFD 29               [11] 5162 	add	hl, hl
    00001AFE 29               [11] 5163 	add	hl, hl
    00001AFF 19               [11] 5164 	add	hl, de
    00001B00 29               [11] 5165 	add	hl, hl
    00001B01 29               [11] 5166 	add	hl, hl
    00001B02 19               [11] 5167 	add	hl, de
    00001B03 09               [11] 5168 	add	hl, bc
    00001B04 7D               [ 4] 5169 	ld	a, l
    00001B05 C6 0E            [ 7] 5170 	add	a, #0x0e
    00001B07 DD 77 FE         [19] 5171 	ld	-2 (ix), a
    00001B0A 7C               [ 4] 5172 	ld	a, h
    00001B0B CE 00            [ 7] 5173 	adc	a, #0x00
    00001B0D DD 77 FF         [19] 5174 	ld	-1 (ix), a
    00001B10 5E               [ 7] 5175 	ld	e, (hl)
    00001B11 23               [ 6] 5176 	inc	hl
    00001B12 56               [ 7] 5177 	ld	d, (hl)
    00001B13 E1               [10] 5178 	pop	hl
    00001B14 E5               [11] 5179 	push	hl
    00001B15 73               [ 7] 5180 	ld	(hl), e
    00001B16 23               [ 6] 5181 	inc	hl
    00001B17 72               [ 7] 5182 	ld	(hl), d
    00001B18                       5183 00110$:
                                   5184 ;E:\Dropbox\FAUSTO\SVILUPPI\MSX\CODE\C\MSXgl\projects\exsoccer/exsoccer_s2_b0.c:978: if (g_Players[s_GkAnimPlayerId].TeamId == TEAM_1) g_Players[s_GkAnimPlayerId].PatternId = PLAYER_POSE_TEAM1_GK_BALL_FRONT;
    00001B18 ED 5Br01r00      [20] 5185 	ld	de, (_s_GkAnimPlayerId)
    00001B1C 16 00            [ 7] 5186 	ld	d, #0x00
    00001B1E 6B               [ 4] 5187 	ld	l, e
    00001B1F 62               [ 4] 5188 	ld	h, d
    00001B20 29               [11] 5189 	add	hl, hl
    00001B21 29               [11] 5190 	add	hl, hl
    00001B22 19               [11] 5191 	add	hl, de
    00001B23 29               [11] 5192 	add	hl, hl
    00001B24 29               [11] 5193 	add	hl, hl
    00001B25 19               [11] 5194 	add	hl, de
    00001B26 09               [11] 5195 	add	hl, bc
    00001B27 EB               [ 4] 5196 	ex	de, hl
    00001B28 D5               [11] 5197 	push	de
    00001B29 FD E1            [14] 5198 	pop	iy
    00001B2B FD 4E 09         [19] 5199 	ld	c, 9 (iy)
    00001B2E 21 08 00         [10] 5200 	ld	hl, #0x0008
    00001B31 19               [11] 5201 	add	hl, de
    00001B32 0D               [ 4] 5202 	dec	c
    00001B33 20 05            [12] 5203 	jr	NZ, 00114$
    00001B35 36 9B            [10] 5204 	ld	(hl), #0x9b
    00001B37 C3r3Cr1B         [10] 5205 	jp	00115$
    00001B3A                       5206 00114$:
                                   5207 ;E:\Dropbox\FAUSTO\SVILUPPI\MSX\CODE\C\MSXgl\projects\exsoccer/exsoccer_s2_b0.c:979: else g_Players[s_GkAnimPlayerId].PatternId = PLAYER_POSE_FRONT; // Team 2 GK plays like a player (feet)
    00001B3A 36 10            [10] 5208 	ld	(hl), #0x10
    00001B3C                       5209 00115$:
                                   5210 ;E:\Dropbox\FAUSTO\SVILUPPI\MSX\CODE\C\MSXgl\projects\exsoccer/exsoccer_s2_b0.c:981: PutBallOnPlayerFeet(s_GkAnimPlayerId);
    00001B3C 3Ar01r00         [13] 5211 	ld	a, (_s_GkAnimPlayerId+0)
    00001B3F CDr00r00         [17] 5212 	call	_PutBallOnPlayerFeet
    00001B42 C3r6Ar1C         [10] 5213 	jp	00146$
    00001B45                       5214 00144$:
                                   5215 ;E:\Dropbox\FAUSTO\SVILUPPI\MSX\CODE\C\MSXgl\projects\exsoccer/exsoccer_s2_b0.c:983: } else if (s_GkAnimTimer == kickTime) {
    00001B45 3Ar00r00         [13] 5216 	ld	a, (_s_GkAnimTimer+0)
    00001B48 D6 3C            [ 7] 5217 	sub	a, #0x3c
    00001B4A C2r3Fr1C         [10] 5218 	jp	NZ,00141$
                                   5219 ;E:\Dropbox\FAUSTO\SVILUPPI\MSX\CODE\C\MSXgl\projects\exsoccer/exsoccer_s2_b0.c:985: u8 targetId = GetBestPassTarget(s_GkAnimPlayerId); 
    00001B4D C5               [11] 5220 	push	bc
    00001B4E 3Ar01r00         [13] 5221 	ld	a, (_s_GkAnimPlayerId+0)
    00001B51 CDr58r11         [17] 5222 	call	_GetBestPassTarget
    00001B54 C1               [10] 5223 	pop	bc
                                   5224 ;E:\Dropbox\FAUSTO\SVILUPPI\MSX\CODE\C\MSXgl\projects\exsoccer/exsoccer_s2_b0.c:987: if (targetId != NO_VALUE) {
    00001B55 5F               [ 4] 5225 	ld	e, a
    00001B56 3C               [ 4] 5226 	inc	a
    00001B57 28 6E            [12] 5227 	jr	Z, 00136$
                                   5228 ;E:\Dropbox\FAUSTO\SVILUPPI\MSX\CODE\C\MSXgl\projects\exsoccer/exsoccer_s2_b0.c:988: PerformPass(targetId);
    00001B59 C5               [11] 5229 	push	bc
    00001B5A 7B               [ 4] 5230 	ld	a, e
    00001B5B CDr00r00         [17] 5231 	call	_PerformPass
    00001B5E C1               [10] 5232 	pop	bc
                                   5233 ;E:\Dropbox\FAUSTO\SVILUPPI\MSX\CODE\C\MSXgl\projects\exsoccer/exsoccer_s2_b0.c:991: u8 dir = g_Players[s_GkAnimPlayerId].Direction;
    00001B5F ED 5Br01r00      [20] 5234 	ld	de, (_s_GkAnimPlayerId)
    00001B63 16 00            [ 7] 5235 	ld	d, #0x00
    00001B65 6B               [ 4] 5236 	ld	l, e
    00001B66 62               [ 4] 5237 	ld	h, d
    00001B67 29               [11] 5238 	add	hl, hl
    00001B68 29               [11] 5239 	add	hl, hl
    00001B69 19               [11] 5240 	add	hl, de
    00001B6A 29               [11] 5241 	add	hl, hl
    00001B6B 29               [11] 5242 	add	hl, hl
    00001B6C 19               [11] 5243 	add	hl, de
    00001B6D 09               [11] 5244 	add	hl, bc
    00001B6E EB               [ 4] 5245 	ex	de, hl
    00001B6F D5               [11] 5246 	push	de
    00001B70 FD E1            [14] 5247 	pop	iy
    00001B72 FD 7E 0A         [19] 5248 	ld	a, 10 (iy)
                                   5249 ;E:\Dropbox\FAUSTO\SVILUPPI\MSX\CODE\C\MSXgl\projects\exsoccer/exsoccer_s2_b0.c:995: if (dir == DIRECTION_RIGHT || dir == DIRECTION_UP_RIGHT || dir == DIRECTION_DOWN_RIGHT) 
    00001B75 FE 03            [ 7] 5250 	cp	a, #0x03
    00001B77 28 08            [12] 5251 	jr	Z, 00121$
    00001B79 FE 02            [ 7] 5252 	cp	a, #0x02
    00001B7B 28 04            [12] 5253 	jr	Z, 00121$
    00001B7D FE 04            [ 7] 5254 	cp	a, #0x04
    00001B7F 20 07            [12] 5255 	jr	NZ, 00122$
    00001B81                       5256 00121$:
                                   5257 ;E:\Dropbox\FAUSTO\SVILUPPI\MSX\CODE\C\MSXgl\projects\exsoccer/exsoccer_s2_b0.c:996: pose = (team == TEAM_1) ? PLAYER_POSE_TEAM1_RESTART_RIGHT : PLAYER_POSE_TEAM2_RESTART_RIGHT;
    00001B81 DD 36 FF CB      [19] 5258 	ld	-1 (ix), #0xcb
    00001B85 C3r9Fr1B         [10] 5259 	jp	00123$
    00001B88                       5260 00122$:
                                   5261 ;E:\Dropbox\FAUSTO\SVILUPPI\MSX\CODE\C\MSXgl\projects\exsoccer/exsoccer_s2_b0.c:997: else if (dir == DIRECTION_LEFT || dir == DIRECTION_UP_LEFT || dir == DIRECTION_DOWN_LEFT)
    00001B88 FE 07            [ 7] 5262 	cp	a, #0x07
    00001B8A 28 08            [12] 5263 	jr	Z, 00116$
    00001B8C FE 08            [ 7] 5264 	cp	a, #0x08
    00001B8E 28 04            [12] 5265 	jr	Z, 00116$
    00001B90 D6 06            [ 7] 5266 	sub	a, #0x06
    00001B92 20 07            [12] 5267 	jr	NZ, 00117$
    00001B94                       5268 00116$:
                                   5269 ;E:\Dropbox\FAUSTO\SVILUPPI\MSX\CODE\C\MSXgl\projects\exsoccer/exsoccer_s2_b0.c:998: pose = (team == TEAM_1) ? PLAYER_POSE_TEAM1_RESTART_LEFT : PLAYER_POSE_TEAM2_RESTART_LEFT;
    00001B94 DD 36 FF 44      [19] 5270 	ld	-1 (ix), #0x44
    00001B98 C3r9Fr1B         [10] 5271 	jp	00123$
    00001B9B                       5272 00117$:
                                   5273 ;E:\Dropbox\FAUSTO\SVILUPPI\MSX\CODE\C\MSXgl\projects\exsoccer/exsoccer_s2_b0.c:1000: pose = (team == TEAM_1) ? PLAYER_POSE_TEAM1_RESTART_FRONT : PLAYER_POSE_TEAM2_RESTART_FRONT;
    00001B9B DD 36 FF 45      [19] 5274 	ld	-1 (ix), #0x45
    00001B9F                       5275 00123$:
                                   5276 ;E:\Dropbox\FAUSTO\SVILUPPI\MSX\CODE\C\MSXgl\projects\exsoccer/exsoccer_s2_b0.c:1002: g_Players[s_GkAnimPlayerId].PatternId = pose;
    00001B9F 21 08 00         [10] 5277 	ld	hl, #0x0008
    00001BA2 19               [11] 5278 	add	hl, de
    00001BA3 DD 7E FF         [19] 5279 	ld	a, -1 (ix)
    00001BA6 77               [ 7] 5280 	ld	(hl), a
                                   5281 ;E:\Dropbox\FAUSTO\SVILUPPI\MSX\CODE\C\MSXgl\projects\exsoccer/exsoccer_s2_b0.c:1004: g_Players[s_GkAnimPlayerId].Status = PLAYER_STATUS_POSITIONED;
    00001BA7 ED 5Br01r00      [20] 5282 	ld	de, (_s_GkAnimPlayerId)
    00001BAB 16 00            [ 7] 5283 	ld	d, #0x00
    00001BAD 6B               [ 4] 5284 	ld	l, e
    00001BAE 62               [ 4] 5285 	ld	h, d
    00001BAF 29               [11] 5286 	add	hl, hl
    00001BB0 29               [11] 5287 	add	hl, hl
    00001BB1 19               [11] 5288 	add	hl, de
    00001BB2 29               [11] 5289 	add	hl, hl
    00001BB3 29               [11] 5290 	add	hl, hl
    00001BB4 19               [11] 5291 	add	hl, de
    00001BB5 09               [11] 5292 	add	hl, bc
    00001BB6 01 12 00         [10] 5293 	ld	bc, #0x0012
    00001BB9 09               [11] 5294 	add	hl, bc
    00001BBA 36 04            [10] 5295 	ld	(hl), #0x04
    00001BBC 23               [ 6] 5296 	inc	hl
    00001BBD 36 00            [10] 5297 	ld	(hl), #0x00
                                   5298 ;E:\Dropbox\FAUSTO\SVILUPPI\MSX\CODE\C\MSXgl\projects\exsoccer/exsoccer_s2_b0.c:1007: g_MatchStatus = MATCH_IN_ACTION;
    00001BBF 21r00r00         [10] 5299 	ld	hl, #_g_MatchStatus
    00001BC2 36 0C            [10] 5300 	ld	(hl), #0x0c
    00001BC4 C3r6Ar1C         [10] 5301 	jp	00146$
    00001BC7                       5302 00136$:
                                   5303 ;E:\Dropbox\FAUSTO\SVILUPPI\MSX\CODE\C\MSXgl\projects\exsoccer/exsoccer_s2_b0.c:1011: u8 team = g_Players[s_GkAnimPlayerId].TeamId;
    00001BC7 ED 5Br01r00      [20] 5304 	ld	de, (_s_GkAnimPlayerId)
    00001BCB 16 00            [ 7] 5305 	ld	d, #0x00
    00001BCD 6B               [ 4] 5306 	ld	l, e
    00001BCE 62               [ 4] 5307 	ld	h, d
    00001BCF 29               [11] 5308 	add	hl, hl
    00001BD0 29               [11] 5309 	add	hl, hl
    00001BD1 19               [11] 5310 	add	hl, de
    00001BD2 29               [11] 5311 	add	hl, hl
    00001BD3 29               [11] 5312 	add	hl, hl
    00001BD4 19               [11] 5313 	add	hl, de
    00001BD5 09               [11] 5314 	add	hl, bc
    00001BD6 EB               [ 4] 5315 	ex	de, hl
    00001BD7 D5               [11] 5316 	push	de
    00001BD8 FD E1            [14] 5317 	pop	iy
    00001BDA FD 7E 09         [19] 5318 	ld	a, 9 (iy)
    00001BDD DD 77 FF         [19] 5319 	ld	-1 (ix), a
                                   5320 ;E:\Dropbox\FAUSTO\SVILUPPI\MSX\CODE\C\MSXgl\projects\exsoccer/exsoccer_s2_b0.c:1013: g_Players[s_GkAnimPlayerId].PatternId = pose;
    00001BE0 21 08 00         [10] 5321 	ld	hl, #0x0008
    00001BE3 19               [11] 5322 	add	hl, de
    00001BE4 36 45            [10] 5323 	ld	(hl), #0x45
                                   5324 ;E:\Dropbox\FAUSTO\SVILUPPI\MSX\CODE\C\MSXgl\projects\exsoccer/exsoccer_s2_b0.c:1016: u16 tx = g_Players[s_GkAnimPlayerId].X;
    00001BE6 ED 5Br01r00      [20] 5325 	ld	de, (_s_GkAnimPlayerId)
    00001BEA 16 00            [ 7] 5326 	ld	d, #0x00
    00001BEC 6B               [ 4] 5327 	ld	l, e
    00001BED 62               [ 4] 5328 	ld	h, d
    00001BEE 29               [11] 5329 	add	hl, hl
    00001BEF 29               [11] 5330 	add	hl, hl
    00001BF0 19               [11] 5331 	add	hl, de
    00001BF1 29               [11] 5332 	add	hl, hl
    00001BF2 29               [11] 5333 	add	hl, hl
    00001BF3 19               [11] 5334 	add	hl, de
    00001BF4 09               [11] 5335 	add	hl, bc
                                   5336 ;	spillPairReg hl
                                   5337 ;	spillPairReg hl
    00001BF5 5D               [ 4] 5338 	ld	e, l
    00001BF6 54               [ 4] 5339 	ld	d, h
                                   5340 ;	spillPairReg hl
                                   5341 ;	spillPairReg hl
    00001BF7 23               [ 6] 5342 	inc	hl
    00001BF8 23               [ 6] 5343 	inc	hl
    00001BF9 4E               [ 7] 5344 	ld	c, (hl)
    00001BFA 23               [ 6] 5345 	inc	hl
    00001BFB 46               [ 7] 5346 	ld	b, (hl)
                                   5347 ;E:\Dropbox\FAUSTO\SVILUPPI\MSX\CODE\C\MSXgl\projects\exsoccer/exsoccer_s2_b0.c:1019: if (g_Players[s_GkAnimPlayerId].Y > (FIELD_BOUND_Y_TOP + 100)) ty = g_Players[s_GkAnimPlayerId].Y - 100;
    00001BFC EB               [ 4] 5348 	ex	de,hl
    00001BFD 5E               [ 7] 5349 	ld	e, (hl)
    00001BFE 23               [ 6] 5350 	inc	hl
    00001BFF 56               [ 7] 5351 	ld	d, (hl)
                                   5352 ;E:\Dropbox\FAUSTO\SVILUPPI\MSX\CODE\C\MSXgl\projects\exsoccer/exsoccer_s2_b0.c:1018: if (team == TEAM_1) { // Shooting UP
    00001C00 DD 7E FF         [19] 5353 	ld	a, -1 (ix)
    00001C03 3D               [ 4] 5354 	dec	a
    00001C04 20 19            [12] 5355 	jr	NZ, 00133$
                                   5356 ;E:\Dropbox\FAUSTO\SVILUPPI\MSX\CODE\C\MSXgl\projects\exsoccer/exsoccer_s2_b0.c:1019: if (g_Players[s_GkAnimPlayerId].Y > (FIELD_BOUND_Y_TOP + 100)) ty = g_Players[s_GkAnimPlayerId].Y - 100;
    00001C06 3E 96            [ 7] 5357 	ld	a, #0x96
    00001C08 BB               [ 4] 5358 	cp	a, e
    00001C09 3E 00            [ 7] 5359 	ld	a, #0x00
    00001C0B 9A               [ 4] 5360 	sbc	a, d
    00001C0C 30 0B            [12] 5361 	jr	NC, 00127$
    00001C0E 7B               [ 4] 5362 	ld	a, e
    00001C0F C6 9C            [ 7] 5363 	add	a, #0x9c
    00001C11 5F               [ 4] 5364 	ld	e, a
    00001C12 7A               [ 4] 5365 	ld	a, d
    00001C13 CE FF            [ 7] 5366 	adc	a, #0xff
    00001C15 57               [ 4] 5367 	ld	d, a
    00001C16 C3r32r1C         [10] 5368 	jp	00134$
    00001C19                       5369 00127$:
                                   5370 ;E:\Dropbox\FAUSTO\SVILUPPI\MSX\CODE\C\MSXgl\projects\exsoccer/exsoccer_s2_b0.c:1020: else ty = FIELD_BOUND_Y_TOP;
    00001C19 11 32 00         [10] 5371 	ld	de, #0x0032
    00001C1C C3r32r1C         [10] 5372 	jp	00134$
    00001C1F                       5373 00133$:
                                   5374 ;E:\Dropbox\FAUSTO\SVILUPPI\MSX\CODE\C\MSXgl\projects\exsoccer/exsoccer_s2_b0.c:1022: if (g_Players[s_GkAnimPlayerId].Y < (FIELD_BOUND_Y_BOTTOM - 100)) ty = g_Players[s_GkAnimPlayerId].Y + 100;
    00001C1F 7B               [ 4] 5375 	ld	a, e
    00001C20 D6 4A            [ 7] 5376 	sub	a, #0x4a
    00001C22 7A               [ 4] 5377 	ld	a, d
    00001C23 DE 01            [ 7] 5378 	sbc	a, #0x01
    00001C25 30 08            [12] 5379 	jr	NC, 00130$
    00001C27 21 64 00         [10] 5380 	ld	hl, #0x0064
    00001C2A 19               [11] 5381 	add	hl, de
    00001C2B EB               [ 4] 5382 	ex	de, hl
    00001C2C C3r32r1C         [10] 5383 	jp	00134$
    00001C2F                       5384 00130$:
                                   5385 ;E:\Dropbox\FAUSTO\SVILUPPI\MSX\CODE\C\MSXgl\projects\exsoccer/exsoccer_s2_b0.c:1023: else ty = FIELD_BOUND_Y_BOTTOM;
    00001C2F 11 AE 01         [10] 5386 	ld	de, #0x01ae
    00001C32                       5387 00134$:
                                   5388 ;E:\Dropbox\FAUSTO\SVILUPPI\MSX\CODE\C\MSXgl\projects\exsoccer/exsoccer_s2_b0.c:1026: PerformShot(tx, ty);
    00001C32 69               [ 4] 5389 	ld	l, c
                                   5390 ;	spillPairReg hl
                                   5391 ;	spillPairReg hl
    00001C33 60               [ 4] 5392 	ld	h, b
                                   5393 ;	spillPairReg hl
                                   5394 ;	spillPairReg hl
    00001C34 CDr6Fr1C         [17] 5395 	call	_PerformShot
                                   5396 ;E:\Dropbox\FAUSTO\SVILUPPI\MSX\CODE\C\MSXgl\projects\exsoccer/exsoccer_s2_b0.c:1029: g_MatchStatus = MATCH_IN_ACTION;
    00001C37 21r00r00         [10] 5397 	ld	hl, #_g_MatchStatus
    00001C3A 36 0C            [10] 5398 	ld	(hl), #0x0c
    00001C3C C3r6Ar1C         [10] 5399 	jp	00146$
    00001C3F                       5400 00141$:
                                   5401 ;E:\Dropbox\FAUSTO\SVILUPPI\MSX\CODE\C\MSXgl\projects\exsoccer/exsoccer_s2_b0.c:1032: } else if (s_GkAnimTimer > (kickTime + 15)) {
    00001C3F 3Ar00r00         [13] 5402 	ld	a, (_s_GkAnimTimer+0)
    00001C42 5F               [ 4] 5403 	ld	e, a
    00001C43 16 00            [ 7] 5404 	ld	d, #0x00
    00001C45 3E 4B            [ 7] 5405 	ld	a, #0x4b
    00001C47 BB               [ 4] 5406 	cp	a, e
    00001C48 3E 00            [ 7] 5407 	ld	a, #0x00
    00001C4A 9A               [ 4] 5408 	sbc	a, d
    00001C4B E2r50r1C         [10] 5409 	jp	PO, 00263$
    00001C4E EE 80            [ 7] 5410 	xor	a, #0x80
    00001C50                       5411 00263$:
    00001C50 F2r6Ar1C         [10] 5412 	jp	P, 00146$
                                   5413 ;E:\Dropbox\FAUSTO\SVILUPPI\MSX\CODE\C\MSXgl\projects\exsoccer/exsoccer_s2_b0.c:1035: g_Players[s_GkAnimPlayerId].Status = PLAYER_STATUS_NONE;
    00001C53 ED 5Br01r00      [20] 5414 	ld	de, (_s_GkAnimPlayerId)
    00001C57 16 00            [ 7] 5415 	ld	d, #0x00
    00001C59 6B               [ 4] 5416 	ld	l, e
    00001C5A 62               [ 4] 5417 	ld	h, d
    00001C5B 29               [11] 5418 	add	hl, hl
    00001C5C 29               [11] 5419 	add	hl, hl
    00001C5D 19               [11] 5420 	add	hl, de
    00001C5E 29               [11] 5421 	add	hl, hl
    00001C5F 29               [11] 5422 	add	hl, hl
    00001C60 19               [11] 5423 	add	hl, de
    00001C61 09               [11] 5424 	add	hl, bc
    00001C62 01 12 00         [10] 5425 	ld	bc, #0x0012
    00001C65 09               [11] 5426 	add	hl, bc
    00001C66 AF               [ 4] 5427 	xor	a, a
    00001C67 77               [ 7] 5428 	ld	(hl), a
    00001C68 23               [ 6] 5429 	inc	hl
    00001C69 77               [ 7] 5430 	ld	(hl), a
    00001C6A                       5431 00146$:
                                   5432 ;E:\Dropbox\FAUSTO\SVILUPPI\MSX\CODE\C\MSXgl\projects\exsoccer/exsoccer_s2_b0.c:1037: }
    00001C6A DD F9            [10] 5433 	ld	sp, ix
    00001C6C DD E1            [14] 5434 	pop	ix
    00001C6E C9               [10] 5435 	ret
                                   5436 ;E:\Dropbox\FAUSTO\SVILUPPI\MSX\CODE\C\MSXgl\projects\exsoccer/exsoccer_s2_b0.c:1039: void PerformShot(u16 targetX, u16 targetY) {
                                   5437 ;	---------------------------------
                                   5438 ; Function PerformShot
                                   5439 ; ---------------------------------
    00001C6F                       5440 _PerformShot::
    00001C6F DD E5            [15] 5441 	push	ix
    00001C71 DD 21 00 00      [14] 5442 	ld	ix,#0
    00001C75 DD 39            [15] 5443 	add	ix,sp
    00001C77 FD 21 EC FF      [14] 5444 	ld	iy, #-20
    00001C7B FD 39            [15] 5445 	add	iy, sp
    00001C7D FD F9            [10] 5446 	ld	sp, iy
    00001C7F DD 75 FE         [19] 5447 	ld	-2 (ix), l
    00001C82 DD 74 FF         [19] 5448 	ld	-1 (ix), h
    00001C85 DD 73 FC         [19] 5449 	ld	-4 (ix), e
    00001C88 DD 72 FD         [19] 5450 	ld	-3 (ix), d
                                   5451 ;E:\Dropbox\FAUSTO\SVILUPPI\MSX\CODE\C\MSXgl\projects\exsoccer/exsoccer_s2_b0.c:1040: u8 fromId = g_Ball.PossessionPlayerId;
    00001C8B 3Ar06r00         [13] 5452 	ld	a, (#(_g_Ball + 6) + 0)
                                   5453 ;E:\Dropbox\FAUSTO\SVILUPPI\MSX\CODE\C\MSXgl\projects\exsoccer/exsoccer_s2_b0.c:1041: if (fromId == NO_VALUE) return;
    00001C8E DD 77 FB         [19] 5454 	ld	-5 (ix), a
    00001C91 3C               [ 4] 5455 	inc	a
    00001C92 CAr47r1F         [10] 5456 	jp	Z,00132$
    00001C95 C3r98r1C         [10] 5457 	jp	00102$
    00001C98                       5458 00102$:
                                   5459 ;E:\Dropbox\FAUSTO\SVILUPPI\MSX\CODE\C\MSXgl\projects\exsoccer/exsoccer_s2_b0.c:1047: dx = (i16)targetX - (i16)g_Players[fromId].X;
    00001C98 DD 4E FE         [19] 5460 	ld	c, -2 (ix)
    00001C9B DD 46 FF         [19] 5461 	ld	b, -1 (ix)
    00001C9E DD 5E FB         [19] 5462 	ld	e, -5 (ix)
    00001CA1 16 00            [ 7] 5463 	ld	d, #0x00
    00001CA3 6B               [ 4] 5464 	ld	l, e
    00001CA4 62               [ 4] 5465 	ld	h, d
    00001CA5 29               [11] 5466 	add	hl, hl
    00001CA6 29               [11] 5467 	add	hl, hl
    00001CA7 19               [11] 5468 	add	hl, de
    00001CA8 29               [11] 5469 	add	hl, hl
    00001CA9 29               [11] 5470 	add	hl, hl
    00001CAA 19               [11] 5471 	add	hl, de
    00001CAB 11r00r00         [10] 5472 	ld	de, #_g_Players
    00001CAE 19               [11] 5473 	add	hl, de
    00001CAF E3               [19] 5474 	ex	(sp), hl
    00001CB0 DD 7E EC         [19] 5475 	ld	a, -20 (ix)
    00001CB3 C6 02            [ 7] 5476 	add	a, #0x02
    00001CB5 DD 77 EE         [19] 5477 	ld	-18 (ix), a
    00001CB8 DD 7E ED         [19] 5478 	ld	a, -19 (ix)
    00001CBB CE 00            [ 7] 5479 	adc	a, #0x00
    00001CBD DD 77 EF         [19] 5480 	ld	-17 (ix), a
    00001CC0 DD 6E EE         [19] 5481 	ld	l, -18 (ix)
    00001CC3 DD 66 EF         [19] 5482 	ld	h, -17 (ix)
    00001CC6 5E               [ 7] 5483 	ld	e, (hl)
    00001CC7 23               [ 6] 5484 	inc	hl
    00001CC8 56               [ 7] 5485 	ld	d, (hl)
    00001CC9 79               [ 4] 5486 	ld	a, c
    00001CCA 93               [ 4] 5487 	sub	a, e
    00001CCB 4F               [ 4] 5488 	ld	c, a
    00001CCC 78               [ 4] 5489 	ld	a, b
    00001CCD 9A               [ 4] 5490 	sbc	a, d
    00001CCE DD 71 F0         [19] 5491 	ld	-16 (ix), c
    00001CD1 DD 77 F1         [19] 5492 	ld	-15 (ix), a
                                   5493 ;E:\Dropbox\FAUSTO\SVILUPPI\MSX\CODE\C\MSXgl\projects\exsoccer/exsoccer_s2_b0.c:1048: dy = (i16)targetY - (i16)g_Players[fromId].Y;
    00001CD4 DD 4E FC         [19] 5494 	ld	c, -4 (ix)
    00001CD7 DD 46 FD         [19] 5495 	ld	b, -3 (ix)
    00001CDA E1               [10] 5496 	pop	hl
    00001CDB E5               [11] 5497 	push	hl
    00001CDC 5E               [ 7] 5498 	ld	e, (hl)
    00001CDD 23               [ 6] 5499 	inc	hl
    00001CDE 56               [ 7] 5500 	ld	d, (hl)
    00001CDF 79               [ 4] 5501 	ld	a, c
    00001CE0 93               [ 4] 5502 	sub	a, e
    00001CE1 4F               [ 4] 5503 	ld	c, a
    00001CE2 78               [ 4] 5504 	ld	a, b
    00001CE3 9A               [ 4] 5505 	sbc	a, d
    00001CE4 DD 71 F2         [19] 5506 	ld	-14 (ix), c
    00001CE7 DD 77 F3         [19] 5507 	ld	-13 (ix), a
                                   5508 ;E:\Dropbox\FAUSTO\SVILUPPI\MSX\CODE\C\MSXgl\projects\exsoccer/exsoccer_s2_b0.c:1049: adx = (dx < 0) ? -dx : dx;
    00001CEA DD 7E F0         [19] 5509 	ld	a, -16 (ix)
    00001CED DD 77 F4         [19] 5510 	ld	-12 (ix), a
    00001CF0 DD 7E F1         [19] 5511 	ld	a, -15 (ix)
    00001CF3 DD 77 F5         [19] 5512 	ld	-11 (ix), a
    00001CF6 DD CB F5 7E      [20] 5513 	bit	7, -11 (ix)
    00001CFA 28 0C            [12] 5514 	jr	Z, 00134$
    00001CFC AF               [ 4] 5515 	xor	a, a
    00001CFD DD 96 F0         [19] 5516 	sub	a, -16 (ix)
    00001D00 4F               [ 4] 5517 	ld	c, a
    00001D01 9F               [ 4] 5518 	sbc	a, a
    00001D02 DD 96 F1         [19] 5519 	sub	a, -15 (ix)
    00001D05 C3r0Er1D         [10] 5520 	jp	00135$
    00001D08                       5521 00134$:
    00001D08 DD 4E F0         [19] 5522 	ld	c, -16 (ix)
    00001D0B DD 7E F1         [19] 5523 	ld	a, -15 (ix)
    00001D0E                       5524 00135$:
    00001D0E DD 71 F6         [19] 5525 	ld	-10 (ix), c
    00001D11 DD 77 F7         [19] 5526 	ld	-9 (ix), a
                                   5527 ;E:\Dropbox\FAUSTO\SVILUPPI\MSX\CODE\C\MSXgl\projects\exsoccer/exsoccer_s2_b0.c:1050: ady = (dy < 0) ? -dy : dy;
    00001D14 DD 7E F2         [19] 5528 	ld	a, -14 (ix)
    00001D17 DD 77 F8         [19] 5529 	ld	-8 (ix), a
    00001D1A DD 7E F3         [19] 5530 	ld	a, -13 (ix)
    00001D1D DD 77 F9         [19] 5531 	ld	-7 (ix), a
    00001D20 DD CB F9 7E      [20] 5532 	bit	7, -7 (ix)
    00001D24 28 11            [12] 5533 	jr	Z, 00136$
    00001D26 AF               [ 4] 5534 	xor	a, a
    00001D27 DD 96 F2         [19] 5535 	sub	a, -14 (ix)
    00001D2A DD 77 FA         [19] 5536 	ld	-6 (ix), a
    00001D2D 9F               [ 4] 5537 	sbc	a, a
    00001D2E DD 96 F3         [19] 5538 	sub	a, -13 (ix)
    00001D31 DD 77 FB         [19] 5539 	ld	-5 (ix), a
    00001D34 C3r43r1D         [10] 5540 	jp	00137$
    00001D37                       5541 00136$:
    00001D37 DD 7E F2         [19] 5542 	ld	a, -14 (ix)
    00001D3A DD 77 FA         [19] 5543 	ld	-6 (ix), a
    00001D3D DD 7E F3         [19] 5544 	ld	a, -13 (ix)
    00001D40 DD 77 FB         [19] 5545 	ld	-5 (ix), a
    00001D43                       5546 00137$:
    00001D43 DD 4E FA         [19] 5547 	ld	c, -6 (ix)
    00001D46 DD 46 FB         [19] 5548 	ld	b, -5 (ix)
                                   5549 ;E:\Dropbox\FAUSTO\SVILUPPI\MSX\CODE\C\MSXgl\projects\exsoccer/exsoccer_s2_b0.c:1052: if (adx > ady * 2) {
    00001D49 69               [ 4] 5550 	ld	l, c
    00001D4A 60               [ 4] 5551 	ld	h, b
    00001D4B 29               [11] 5552 	add	hl, hl
    00001D4C DD 5E F6         [19] 5553 	ld	e, -10 (ix)
    00001D4F DD 56 F7         [19] 5554 	ld	d, -9 (ix)
    00001D52 7D               [ 4] 5555 	ld	a, l
    00001D53 93               [ 4] 5556 	sub	a, e
    00001D54 7C               [ 4] 5557 	ld	a, h
    00001D55 9A               [ 4] 5558 	sbc	a, d
    00001D56 E2r5Br1D         [10] 5559 	jp	PO, 00238$
    00001D59 EE 80            [ 7] 5560 	xor	a, #0x80
    00001D5B                       5561 00238$:
    00001D5B F2r7Cr1D         [10] 5562 	jp	P, 00110$
                                   5563 ;E:\Dropbox\FAUSTO\SVILUPPI\MSX\CODE\C\MSXgl\projects\exsoccer/exsoccer_s2_b0.c:1053: newDir = (dx > 0) ? DIRECTION_RIGHT : DIRECTION_LEFT;
    00001D5E AF               [ 4] 5564 	xor	a, a
    00001D5F DD BE F4         [19] 5565 	cp	a, -12 (ix)
    00001D62 DD 9E F5         [19] 5566 	sbc	a, -11 (ix)
    00001D65 E2r6Ar1D         [10] 5567 	jp	PO, 00239$
    00001D68 EE 80            [ 7] 5568 	xor	a, #0x80
    00001D6A                       5569 00239$:
    00001D6A F2r73r1D         [10] 5570 	jp	P, 00138$
    00001D6D 01 03 00         [10] 5571 	ld	bc, #0x0003
    00001D70 C3r76r1D         [10] 5572 	jp	00139$
    00001D73                       5573 00138$:
    00001D73 01 07 00         [10] 5574 	ld	bc, #0x0007
    00001D76                       5575 00139$:
    00001D76 DD 71 FB         [19] 5576 	ld	-5 (ix), c
    00001D79 C3rE0r1D         [10] 5577 	jp	00111$
    00001D7C                       5578 00110$:
                                   5579 ;E:\Dropbox\FAUSTO\SVILUPPI\MSX\CODE\C\MSXgl\projects\exsoccer/exsoccer_s2_b0.c:1054: } else if (ady > adx * 2) {
    00001D7C EB               [ 4] 5580 	ex	de, hl
    00001D7D 29               [11] 5581 	add	hl, hl
    00001D7E EB               [ 4] 5582 	ex	de, hl
                                   5583 ;E:\Dropbox\FAUSTO\SVILUPPI\MSX\CODE\C\MSXgl\projects\exsoccer/exsoccer_s2_b0.c:1055: newDir = (dy > 0) ? DIRECTION_DOWN : DIRECTION_UP;
    00001D7F AF               [ 4] 5584 	xor	a, a
    00001D80 DD BE F8         [19] 5585 	cp	a, -8 (ix)
    00001D83 DD 9E F9         [19] 5586 	sbc	a, -7 (ix)
    00001D86 E2r8Br1D         [10] 5587 	jp	PO, 00240$
    00001D89 EE 80            [ 7] 5588 	xor	a, #0x80
    00001D8B                       5589 00240$:
    00001D8B 07               [ 4] 5590 	rlca
    00001D8C E6 01            [ 7] 5591 	and	a,#0x01
    00001D8E 6F               [ 4] 5592 	ld	l, a
                                   5593 ;	spillPairReg hl
                                   5594 ;	spillPairReg hl
                                   5595 ;E:\Dropbox\FAUSTO\SVILUPPI\MSX\CODE\C\MSXgl\projects\exsoccer/exsoccer_s2_b0.c:1054: } else if (ady > adx * 2) {
    00001D8F 7B               [ 4] 5596 	ld	a, e
    00001D90 91               [ 4] 5597 	sub	a, c
    00001D91 7A               [ 4] 5598 	ld	a, d
    00001D92 98               [ 4] 5599 	sbc	a, b
    00001D93 E2r98r1D         [10] 5600 	jp	PO, 00241$
    00001D96 EE 80            [ 7] 5601 	xor	a, #0x80
    00001D98                       5602 00241$:
    00001D98 F2rAEr1D         [10] 5603 	jp	P, 00107$
                                   5604 ;E:\Dropbox\FAUSTO\SVILUPPI\MSX\CODE\C\MSXgl\projects\exsoccer/exsoccer_s2_b0.c:1055: newDir = (dy > 0) ? DIRECTION_DOWN : DIRECTION_UP;
    00001D9B 7D               [ 4] 5605 	ld	a, l
    00001D9C B7               [ 4] 5606 	or	a, a
    00001D9D 28 06            [12] 5607 	jr	Z, 00140$
    00001D9F 01 05 00         [10] 5608 	ld	bc, #0x0005
    00001DA2 C3rA8r1D         [10] 5609 	jp	00141$
    00001DA5                       5610 00140$:
    00001DA5 01 01 00         [10] 5611 	ld	bc, #0x0001
    00001DA8                       5612 00141$:
    00001DA8 DD 71 FB         [19] 5613 	ld	-5 (ix), c
    00001DAB C3rE0r1D         [10] 5614 	jp	00111$
    00001DAE                       5615 00107$:
                                   5616 ;E:\Dropbox\FAUSTO\SVILUPPI\MSX\CODE\C\MSXgl\projects\exsoccer/exsoccer_s2_b0.c:1057: if (dx > 0) newDir = (dy > 0) ? DIRECTION_DOWN_RIGHT : DIRECTION_UP_RIGHT;
    00001DAE AF               [ 4] 5617 	xor	a, a
    00001DAF DD BE F4         [19] 5618 	cp	a, -12 (ix)
    00001DB2 DD 9E F5         [19] 5619 	sbc	a, -11 (ix)
    00001DB5 E2rBAr1D         [10] 5620 	jp	PO, 00242$
    00001DB8 EE 80            [ 7] 5621 	xor	a, #0x80
    00001DBA                       5622 00242$:
    00001DBA F2rD0r1D         [10] 5623 	jp	P, 00104$
    00001DBD 7D               [ 4] 5624 	ld	a, l
    00001DBE B7               [ 4] 5625 	or	a, a
    00001DBF 28 06            [12] 5626 	jr	Z, 00142$
    00001DC1 01 04 00         [10] 5627 	ld	bc, #0x0004
    00001DC4 C3rCAr1D         [10] 5628 	jp	00143$
    00001DC7                       5629 00142$:
    00001DC7 01 02 00         [10] 5630 	ld	bc, #0x0002
    00001DCA                       5631 00143$:
    00001DCA DD 71 FB         [19] 5632 	ld	-5 (ix), c
    00001DCD C3rE0r1D         [10] 5633 	jp	00111$
    00001DD0                       5634 00104$:
                                   5635 ;E:\Dropbox\FAUSTO\SVILUPPI\MSX\CODE\C\MSXgl\projects\exsoccer/exsoccer_s2_b0.c:1058: else newDir = (dy > 0) ? DIRECTION_DOWN_LEFT : DIRECTION_UP_LEFT;
    00001DD0 7D               [ 4] 5636 	ld	a, l
    00001DD1 B7               [ 4] 5637 	or	a, a
    00001DD2 28 06            [12] 5638 	jr	Z, 00144$
    00001DD4 01 06 00         [10] 5639 	ld	bc, #0x0006
    00001DD7 C3rDDr1D         [10] 5640 	jp	00145$
    00001DDA                       5641 00144$:
    00001DDA 01 08 00         [10] 5642 	ld	bc, #0x0008
    00001DDD                       5643 00145$:
    00001DDD DD 71 FB         [19] 5644 	ld	-5 (ix), c
    00001DE0                       5645 00111$:
                                   5646 ;E:\Dropbox\FAUSTO\SVILUPPI\MSX\CODE\C\MSXgl\projects\exsoccer/exsoccer_s2_b0.c:1060: g_Players[fromId].Direction = newDir;
    00001DE0 E1               [10] 5647 	pop	hl
    00001DE1 E5               [11] 5648 	push	hl
    00001DE2 11 0A 00         [10] 5649 	ld	de, #0x000a
    00001DE5 19               [11] 5650 	add	hl, de
    00001DE6 DD 7E FB         [19] 5651 	ld	a, -5 (ix)
    00001DE9 77               [ 7] 5652 	ld	(hl), a
                                   5653 ;E:\Dropbox\FAUSTO\SVILUPPI\MSX\CODE\C\MSXgl\projects\exsoccer/exsoccer_s2_b0.c:1063: if (newDir == DIRECTION_UP || newDir == DIRECTION_UP_LEFT || newDir == DIRECTION_UP_RIGHT) g_Players[fromId].PatternId = PLAYER_POSE_SHOT_FRONT;
    00001DEA DD 7E FB         [19] 5654 	ld	a, -5 (ix)
    00001DED 3D               [ 4] 5655 	dec	a
    00001DEE 28 0E            [12] 5656 	jr	Z, 00122$
    00001DF0 DD 7E FB         [19] 5657 	ld	a, -5 (ix)
    00001DF3 D6 08            [ 7] 5658 	sub	a, #0x08
    00001DF5 28 07            [12] 5659 	jr	Z, 00122$
    00001DF7 DD 7E FB         [19] 5660 	ld	a, -5 (ix)
    00001DFA D6 02            [ 7] 5661 	sub	a, #0x02
    00001DFC 20 1B            [12] 5662 	jr	NZ, 00123$
    00001DFE                       5663 00122$:
    00001DFE DD 7E EC         [19] 5664 	ld	a, -20 (ix)
    00001E01 C6 08            [ 7] 5665 	add	a, #0x08
    00001E03 DD 77 FA         [19] 5666 	ld	-6 (ix), a
    00001E06 DD 7E ED         [19] 5667 	ld	a, -19 (ix)
    00001E09 CE 00            [ 7] 5668 	adc	a, #0x00
    00001E0B DD 77 FB         [19] 5669 	ld	-5 (ix), a
    00001E0E DD 6E FA         [19] 5670 	ld	l, -6 (ix)
    00001E11 DD 66 FB         [19] 5671 	ld	h, -5 (ix)
    00001E14 36 18            [10] 5672 	ld	(hl), #0x18
    00001E16 C3r5Ar1E         [10] 5673 	jp	00124$
    00001E19                       5674 00123$:
                                   5675 ;E:\Dropbox\FAUSTO\SVILUPPI\MSX\CODE\C\MSXgl\projects\exsoccer/exsoccer_s2_b0.c:1064: else if (newDir == DIRECTION_DOWN || newDir == DIRECTION_DOWN_LEFT || newDir == DIRECTION_DOWN_RIGHT) g_Players[fromId].PatternId = PLAYER_POSE_SHOT_BACK;
    00001E19 DD 7E FB         [19] 5676 	ld	a, -5 (ix)
    00001E1C D6 05            [ 7] 5677 	sub	a, #0x05
    00001E1E 28 0E            [12] 5678 	jr	Z, 00117$
    00001E20 DD 7E FB         [19] 5679 	ld	a, -5 (ix)
    00001E23 D6 06            [ 7] 5680 	sub	a, #0x06
    00001E25 28 07            [12] 5681 	jr	Z, 00117$
    00001E27 DD 7E FB         [19] 5682 	ld	a, -5 (ix)
    00001E2A D6 04            [ 7] 5683 	sub	a, #0x04
    00001E2C 20 0B            [12] 5684 	jr	NZ, 00118$
    00001E2E                       5685 00117$:
    00001E2E E1               [10] 5686 	pop	hl
    00001E2F E5               [11] 5687 	push	hl
    00001E30 11 08 00         [10] 5688 	ld	de, #0x0008
    00001E33 19               [11] 5689 	add	hl, de
    00001E34 36 15            [10] 5690 	ld	(hl), #0x15
    00001E36 C3r5Ar1E         [10] 5691 	jp	00124$
    00001E39                       5692 00118$:
                                   5693 ;E:\Dropbox\FAUSTO\SVILUPPI\MSX\CODE\C\MSXgl\projects\exsoccer/exsoccer_s2_b0.c:1065: else if (newDir == DIRECTION_LEFT) g_Players[fromId].PatternId = PLAYER_POSE_SHOT_LEFT;
    00001E39 DD 7E FB         [19] 5694 	ld	a, -5 (ix)
    00001E3C D6 07            [ 7] 5695 	sub	a, #0x07
    00001E3E 20 0B            [12] 5696 	jr	NZ, 00115$
    00001E40 E1               [10] 5697 	pop	hl
    00001E41 E5               [11] 5698 	push	hl
    00001E42 11 08 00         [10] 5699 	ld	de, #0x0008
    00001E45 19               [11] 5700 	add	hl, de
    00001E46 36 A4            [10] 5701 	ld	(hl), #0xa4
    00001E48 C3r5Ar1E         [10] 5702 	jp	00124$
    00001E4B                       5703 00115$:
                                   5704 ;E:\Dropbox\FAUSTO\SVILUPPI\MSX\CODE\C\MSXgl\projects\exsoccer/exsoccer_s2_b0.c:1066: else if (newDir == DIRECTION_RIGHT) g_Players[fromId].PatternId = PLAYER_POSE_SHOT_RIGHT;
    00001E4B DD 7E FB         [19] 5705 	ld	a, -5 (ix)
    00001E4E D6 03            [ 7] 5706 	sub	a, #0x03
    00001E50 20 08            [12] 5707 	jr	NZ, 00124$
    00001E52 E1               [10] 5708 	pop	hl
    00001E53 E5               [11] 5709 	push	hl
    00001E54 11 08 00         [10] 5710 	ld	de, #0x0008
    00001E57 19               [11] 5711 	add	hl, de
    00001E58 36 1B            [10] 5712 	ld	(hl), #0x1b
    00001E5A                       5713 00124$:
                                   5714 ;E:\Dropbox\FAUSTO\SVILUPPI\MSX\CODE\C\MSXgl\projects\exsoccer/exsoccer_s2_b0.c:1068: g_Players[fromId].Status = PLAYER_STATUS_POSITIONED; // Lock pose
    00001E5A E1               [10] 5715 	pop	hl
    00001E5B E5               [11] 5716 	push	hl
    00001E5C 11 12 00         [10] 5717 	ld	de, #0x0012
    00001E5F 19               [11] 5718 	add	hl, de
    00001E60 36 04            [10] 5719 	ld	(hl), #0x04
    00001E62 23               [ 6] 5720 	inc	hl
    00001E63 36 00            [10] 5721 	ld	(hl), #0x00
                                   5722 ;E:\Dropbox\FAUSTO\SVILUPPI\MSX\CODE\C\MSXgl\projects\exsoccer/exsoccer_s2_b0.c:1071: g_Players[fromId].TargetX = g_Players[fromId].X;
    00001E65 DD 7E EC         [19] 5723 	ld	a, -20 (ix)
    00001E68 C6 10            [ 7] 5724 	add	a, #0x10
    00001E6A 4F               [ 4] 5725 	ld	c, a
    00001E6B DD 7E ED         [19] 5726 	ld	a, -19 (ix)
    00001E6E CE 00            [ 7] 5727 	adc	a, #0x00
    00001E70 47               [ 4] 5728 	ld	b, a
    00001E71 DD 6E EE         [19] 5729 	ld	l, -18 (ix)
    00001E74 DD 66 EF         [19] 5730 	ld	h, -17 (ix)
    00001E77 5E               [ 7] 5731 	ld	e, (hl)
    00001E78 23               [ 6] 5732 	inc	hl
    00001E79 56               [ 7] 5733 	ld	d, (hl)
    00001E7A 7B               [ 4] 5734 	ld	a, e
    00001E7B 02               [ 7] 5735 	ld	(bc), a
    00001E7C 03               [ 6] 5736 	inc	bc
    00001E7D 7A               [ 4] 5737 	ld	a, d
    00001E7E 02               [ 7] 5738 	ld	(bc), a
                                   5739 ;E:\Dropbox\FAUSTO\SVILUPPI\MSX\CODE\C\MSXgl\projects\exsoccer/exsoccer_s2_b0.c:1072: g_Players[fromId].TargetY = g_Players[fromId].Y;
    00001E7F DD 7E EC         [19] 5740 	ld	a, -20 (ix)
    00001E82 C6 0E            [ 7] 5741 	add	a, #0x0e
    00001E84 4F               [ 4] 5742 	ld	c, a
    00001E85 DD 7E ED         [19] 5743 	ld	a, -19 (ix)
    00001E88 CE 00            [ 7] 5744 	adc	a, #0x00
    00001E8A 47               [ 4] 5745 	ld	b, a
    00001E8B E1               [10] 5746 	pop	hl
    00001E8C E5               [11] 5747 	push	hl
    00001E8D 5E               [ 7] 5748 	ld	e, (hl)
    00001E8E 23               [ 6] 5749 	inc	hl
    00001E8F 56               [ 7] 5750 	ld	d, (hl)
    00001E90 7B               [ 4] 5751 	ld	a, e
    00001E91 02               [ 7] 5752 	ld	(bc), a
    00001E92 03               [ 6] 5753 	inc	bc
    00001E93 7A               [ 4] 5754 	ld	a, d
    00001E94 02               [ 7] 5755 	ld	(bc), a
                                   5756 ;E:\Dropbox\FAUSTO\SVILUPPI\MSX\CODE\C\MSXgl\projects\exsoccer/exsoccer_s2_b0.c:1074: SetPlayerBallPossession(NO_VALUE);
    00001E95 3E FF            [ 7] 5757 	ld	a, #0xff
    00001E97 CDr00r00         [17] 5758 	call	_SetPlayerBallPossession
                                   5759 ;E:\Dropbox\FAUSTO\SVILUPPI\MSX\CODE\C\MSXgl\projects\exsoccer/exsoccer_s2_b0.c:1075: g_Ball.PossessionPlayerId = NO_VALUE;
    00001E9A 21r06r00         [10] 5760 	ld	hl, #(_g_Ball + 6)
    00001E9D 36 FF            [10] 5761 	ld	(hl), #0xff
                                   5762 ;E:\Dropbox\FAUSTO\SVILUPPI\MSX\CODE\C\MSXgl\projects\exsoccer/exsoccer_s2_b0.c:1076: g_Ball.PassTargetPlayerId = NO_VALUE;
    00001E9F 21r10r00         [10] 5763 	ld	hl, #(_g_Ball + 16)
    00001EA2 36 FF            [10] 5764 	ld	(hl), #0xff
                                   5765 ;E:\Dropbox\FAUSTO\SVILUPPI\MSX\CODE\C\MSXgl\projects\exsoccer/exsoccer_s2_b0.c:1077: g_Ball.ShotActive = 1;
    00001EA4 21r1Br00         [10] 5766 	ld	hl, #(_g_Ball + 27)
    00001EA7 36 01            [10] 5767 	ld	(hl), #0x01
                                   5768 ;E:\Dropbox\FAUSTO\SVILUPPI\MSX\CODE\C\MSXgl\projects\exsoccer/exsoccer_s2_b0.c:1078: g_Ball.TargetX = targetX;
    00001EA9 21r17r00         [10] 5769 	ld	hl, #(_g_Ball + 23)
    00001EAC DD 7E FE         [19] 5770 	ld	a, -2 (ix)
    00001EAF 77               [ 7] 5771 	ld	(hl), a
    00001EB0 23               [ 6] 5772 	inc	hl
    00001EB1 DD 7E FF         [19] 5773 	ld	a, -1 (ix)
    00001EB4 77               [ 7] 5774 	ld	(hl), a
                                   5775 ;E:\Dropbox\FAUSTO\SVILUPPI\MSX\CODE\C\MSXgl\projects\exsoccer/exsoccer_s2_b0.c:1079: g_Ball.TargetY = targetY;
    00001EB5 21r19r00         [10] 5776 	ld	hl, #(_g_Ball + 25)
    00001EB8 DD 7E FC         [19] 5777 	ld	a, -4 (ix)
    00001EBB 77               [ 7] 5778 	ld	(hl), a
    00001EBC 23               [ 6] 5779 	inc	hl
    00001EBD DD 7E FD         [19] 5780 	ld	a, -3 (ix)
    00001EC0 77               [ 7] 5781 	ld	(hl), a
                                   5782 ;E:\Dropbox\FAUSTO\SVILUPPI\MSX\CODE\C\MSXgl\projects\exsoccer/exsoccer_s2_b0.c:1080: g_Ball.PassStartX = g_Ball.X;
    00001EC1 ED 4Br02r00      [20] 5783 	ld	bc, (#_g_Ball + 2)
    00001EC5 ED 43r11r00      [20] 5784 	ld	((_g_Ball + 17)), bc
                                   5785 ;E:\Dropbox\FAUSTO\SVILUPPI\MSX\CODE\C\MSXgl\projects\exsoccer/exsoccer_s2_b0.c:1081: g_Ball.PassStartY = g_Ball.Y;
    00001EC9 ED 4Br00r00      [20] 5786 	ld	bc, (#_g_Ball + 0)
    00001ECD ED 43r13r00      [20] 5787 	ld	((_g_Ball + 19)), bc
                                   5788 ;E:\Dropbox\FAUSTO\SVILUPPI\MSX\CODE\C\MSXgl\projects\exsoccer/exsoccer_s2_b0.c:1084: i16 arcDy = dy;
    00001ED1 DD 4E F2         [19] 5789 	ld	c, -14 (ix)
    00001ED4 DD 46 F3         [19] 5790 	ld	b, -13 (ix)
                                   5791 ;E:\Dropbox\FAUSTO\SVILUPPI\MSX\CODE\C\MSXgl\projects\exsoccer/exsoccer_s2_b0.c:1085: if (targetY < FIELD_BOUND_Y_TOP) { // Shooting UP
    00001ED7 DD 5E FC         [19] 5792 	ld	e, -4 (ix)
    00001EDA DD 56 FD         [19] 5793 	ld	d, -3 (ix)
    00001EDD 7B               [ 4] 5794 	ld	a, e
    00001EDE D6 32            [ 7] 5795 	sub	a, #0x32
    00001EE0 7A               [ 4] 5796 	ld	a, d
    00001EE1 DE 00            [ 7] 5797 	sbc	a, #0x00
    00001EE3 30 0F            [12] 5798 	jr	NC, 00130$
                                   5799 ;E:\Dropbox\FAUSTO\SVILUPPI\MSX\CODE\C\MSXgl\projects\exsoccer/exsoccer_s2_b0.c:1086: arcDy = (i16)FIELD_BOUND_Y_TOP - (i16)g_Players[fromId].Y;
    00001EE5 E1               [10] 5800 	pop	hl
    00001EE6 E5               [11] 5801 	push	hl
    00001EE7 4E               [ 7] 5802 	ld	c, (hl)
    00001EE8 23               [ 6] 5803 	inc	hl
    00001EE9 46               [ 7] 5804 	ld	b, (hl)
    00001EEA 3E 32            [ 7] 5805 	ld	a, #0x32
    00001EEC 91               [ 4] 5806 	sub	a, c
    00001EED 4F               [ 4] 5807 	ld	c, a
    00001EEE 9F               [ 4] 5808 	sbc	a, a
    00001EEF 90               [ 4] 5809 	sub	a, b
    00001EF0 47               [ 4] 5810 	ld	b, a
    00001EF1 C3r09r1F         [10] 5811 	jp	00131$
    00001EF4                       5812 00130$:
                                   5813 ;E:\Dropbox\FAUSTO\SVILUPPI\MSX\CODE\C\MSXgl\projects\exsoccer/exsoccer_s2_b0.c:1087: } else if (targetY > FIELD_BOUND_Y_BOTTOM) { // Shooting DOWN
    00001EF4 3E AE            [ 7] 5814 	ld	a, #0xae
    00001EF6 BB               [ 4] 5815 	cp	a, e
    00001EF7 3E 01            [ 7] 5816 	ld	a, #0x01
    00001EF9 9A               [ 4] 5817 	sbc	a, d
    00001EFA 30 0D            [12] 5818 	jr	NC, 00131$
                                   5819 ;E:\Dropbox\FAUSTO\SVILUPPI\MSX\CODE\C\MSXgl\projects\exsoccer/exsoccer_s2_b0.c:1088: arcDy = (i16)FIELD_BOUND_Y_BOTTOM - (i16)g_Players[fromId].Y;
    00001EFC E1               [10] 5820 	pop	hl
    00001EFD E5               [11] 5821 	push	hl
    00001EFE 4E               [ 7] 5822 	ld	c, (hl)
    00001EFF 23               [ 6] 5823 	inc	hl
    00001F00 46               [ 7] 5824 	ld	b, (hl)
    00001F01 3E AE            [ 7] 5825 	ld	a, #0xae
    00001F03 91               [ 4] 5826 	sub	a, c
    00001F04 4F               [ 4] 5827 	ld	c, a
    00001F05 3E 01            [ 7] 5828 	ld	a, #0x01
    00001F07 98               [ 4] 5829 	sbc	a, b
    00001F08 47               [ 4] 5830 	ld	b, a
    00001F09                       5831 00131$:
                                   5832 ;E:\Dropbox\FAUSTO\SVILUPPI\MSX\CODE\C\MSXgl\projects\exsoccer/exsoccer_s2_b0.c:1090: g_Ball.PassTotalDist = (u16)(Math_Abs32(dx) + Math_Abs32(arcDy));
    00001F09 DD 5E F0         [19] 5833 	ld	e, -16 (ix)
    00001F0C DD 7E F1         [19] 5834 	ld	a, -15 (ix)
    00001F0F 57               [ 4] 5835 	ld	d, a
    00001F10 07               [ 4] 5836 	rlca
    00001F11 ED 62            [15] 5837 	sbc	hl, hl
    00001F13 C5               [11] 5838 	push	bc
    00001F14 CDr42r11         [17] 5839 	call	_Math_Abs32
    00001F17 DD 73 F8         [19] 5840 	ld	-8 (ix), e
    00001F1A DD 72 F9         [19] 5841 	ld	-7 (ix), d
    00001F1D DD 75 FA         [19] 5842 	ld	-6 (ix), l
    00001F20 DD 74 FB         [19] 5843 	ld	-5 (ix), h
    00001F23 C1               [10] 5844 	pop	bc
    00001F24 78               [ 4] 5845 	ld	a, b
    00001F25 07               [ 4] 5846 	rlca
    00001F26 ED 62            [15] 5847 	sbc	hl, hl
    00001F28 59               [ 4] 5848 	ld	e, c
    00001F29 50               [ 4] 5849 	ld	d, b
    00001F2A CDr42r11         [17] 5850 	call	_Math_Abs32
    00001F2D DD 4E F8         [19] 5851 	ld	c, -8 (ix)
    00001F30 DD 46 F9         [19] 5852 	ld	b, -7 (ix)
    00001F33 EB               [ 4] 5853 	ex	de, hl
    00001F34 09               [11] 5854 	add	hl, bc
    00001F35 DD 75 FA         [19] 5855 	ld	-6 (ix), l
    00001F38 DD 74 FB         [19] 5856 	ld	-5 (ix), h
    00001F3B 21r15r00         [10] 5857 	ld	hl, #(_g_Ball + 21)
    00001F3E DD 7E FA         [19] 5858 	ld	a, -6 (ix)
    00001F41 77               [ 7] 5859 	ld	(hl), a
    00001F42 23               [ 6] 5860 	inc	hl
    00001F43 DD 7E FB         [19] 5861 	ld	a, -5 (ix)
    00001F46 77               [ 7] 5862 	ld	(hl), a
    00001F47                       5863 00132$:
                                   5864 ;E:\Dropbox\FAUSTO\SVILUPPI\MSX\CODE\C\MSXgl\projects\exsoccer/exsoccer_s2_b0.c:1091: }
    00001F47 DD F9            [10] 5865 	ld	sp, ix
    00001F49 DD E1            [14] 5866 	pop	ix
    00001F4B C9               [10] 5867 	ret
                                   5868 ;E:\Dropbox\FAUSTO\SVILUPPI\MSX\CODE\C\MSXgl\projects\exsoccer/exsoccer_s2_b0.c:1093: void TickBallFlying() {
                                   5869 ;	---------------------------------
                                   5870 ; Function TickBallFlying
                                   5871 ; ---------------------------------
    00001F4C                       5872 _TickBallFlying::
    00001F4C DD E5            [15] 5873 	push	ix
    00001F4E DD 21 00 00      [14] 5874 	ld	ix,#0
    00001F52 DD 39            [15] 5875 	add	ix,sp
    00001F54 21 E8 FF         [10] 5876 	ld	hl, #-24
    00001F57 39               [11] 5877 	add	hl, sp
    00001F58 F9               [ 6] 5878 	ld	sp, hl
                                   5879 ;E:\Dropbox\FAUSTO\SVILUPPI\MSX\CODE\C\MSXgl\projects\exsoccer/exsoccer_s2_b0.c:1095: if(g_MatchStatus == MATCH_BEFORE_THROW_IN || g_MatchStatus == MATCH_THROW_IN || 
    00001F59 3Ar00r00         [13] 5880 	ld	a,(_g_MatchStatus+0)
    00001F5C FE 03            [ 7] 5881 	cp	a,#0x03
    00001F5E CAr57r28         [10] 5882 	jp	Z,00198$
                                   5883 ;E:\Dropbox\FAUSTO\SVILUPPI\MSX\CODE\C\MSXgl\projects\exsoccer/exsoccer_s2_b0.c:1096: g_MatchStatus == MATCH_BEFORE_GOAL_KICK || g_MatchStatus == MATCH_GOAL_KICK ||
    00001F61 FE 08            [ 7] 5884 	cp	a,#0x08
    00001F63 CAr57r28         [10] 5885 	jp	Z,00198$
    00001F66 FE 05            [ 7] 5886 	cp	a,#0x05
    00001F68 CAr57r28         [10] 5887 	jp	Z,00198$
                                   5888 ;E:\Dropbox\FAUSTO\SVILUPPI\MSX\CODE\C\MSXgl\projects\exsoccer/exsoccer_s2_b0.c:1097: g_MatchStatus == MATCH_BEFORE_CORNER_KICK || g_MatchStatus == MATCH_CORNER_KICK ||
    00001F6B FE 0A            [ 7] 5889 	cp	a,#0x0a
    00001F6D CAr57r28         [10] 5890 	jp	Z,00198$
    00001F70 FE 02            [ 7] 5891 	cp	a,#0x02
    00001F72 CAr57r28         [10] 5892 	jp	Z,00198$
                                   5893 ;E:\Dropbox\FAUSTO\SVILUPPI\MSX\CODE\C\MSXgl\projects\exsoccer/exsoccer_s2_b0.c:1098: g_MatchStatus == MATCH_BEFORE_KICK_OFF) {
    00001F75 FE 09            [ 7] 5894 	cp	a,#0x09
    00001F77 CAr57r28         [10] 5895 	jp	Z,00198$
    00001F7A 3D               [ 4] 5896 	dec	a
                                   5897 ;E:\Dropbox\FAUSTO\SVILUPPI\MSX\CODE\C\MSXgl\projects\exsoccer/exsoccer_s2_b0.c:1099: return;
    00001F7B CAr57r28         [10] 5898 	jp	Z,00198$
                                   5899 ;E:\Dropbox\FAUSTO\SVILUPPI\MSX\CODE\C\MSXgl\projects\exsoccer/exsoccer_s2_b0.c:1103: if (g_Ball.PossessionPlayerId != NO_VALUE) return;
    00001F7E 3Ar06r00         [13] 5900 	ld	a, (#(_g_Ball + 6) + 0)
    00001F81 3C               [ 4] 5901 	inc	a
    00001F82 C2r57r28         [10] 5902 	jp	NZ,00198$
                                   5903 ;E:\Dropbox\FAUSTO\SVILUPPI\MSX\CODE\C\MSXgl\projects\exsoccer/exsoccer_s2_b0.c:1106: bool isMovingToPlayer = (g_Ball.PassTargetPlayerId != NO_VALUE);
    00001F85 3Ar10r00         [13] 5904 	ld	a, (#(_g_Ball + 16) + 0)
    00001F88 DD 77 E9         [19] 5905 	ld	-23 (ix), a
    00001F8B 3C               [ 4] 5906 	inc	a
    00001F8C 3E 01            [ 7] 5907 	ld	a, #0x01
    00001F8E 28 01            [12] 5908 	jr	Z, 00483$
    00001F90 AF               [ 4] 5909 	xor	a, a
    00001F91                       5910 00483$:
    00001F91 EE 01            [ 7] 5911 	xor	a, #0x01
    00001F93 DD 77 EA         [19] 5912 	ld	-22 (ix), a
                                   5913 ;E:\Dropbox\FAUSTO\SVILUPPI\MSX\CODE\C\MSXgl\projects\exsoccer/exsoccer_s2_b0.c:1107: bool isFreeMoving = (g_Ball.ShotActive != 0);
    00001F96 3Ar1Br00         [13] 5914 	ld	a, (#(_g_Ball + 27) + 0)
    00001F99 DD 77 EB         [19] 5915 	ld	-21 (ix), a
    00001F9C D6 01            [ 7] 5916 	sub	a,#0x01
    00001F9E 3E 00            [ 7] 5917 	ld	a, #0x00
    00001FA0 17               [ 4] 5918 	rla
    00001FA1 EE 01            [ 7] 5919 	xor	a, #0x01
    00001FA3 4F               [ 4] 5920 	ld	c, a
                                   5921 ;E:\Dropbox\FAUSTO\SVILUPPI\MSX\CODE\C\MSXgl\projects\exsoccer/exsoccer_s2_b0.c:1109: if (!isMovingToPlayer && !isFreeMoving) return;
    00001FA4 DD 7E EA         [19] 5922 	ld	a, -22 (ix)
    00001FA7 B7               [ 4] 5923 	or	a,a
    00001FA8 20 04            [12] 5924 	jr	NZ, 00112$
    00001FAA B1               [ 4] 5925 	or	a,c
    00001FAB CAr57r28         [10] 5926 	jp	Z,00198$
    00001FAE                       5927 00112$:
                                   5928 ;E:\Dropbox\FAUSTO\SVILUPPI\MSX\CODE\C\MSXgl\projects\exsoccer/exsoccer_s2_b0.c:1113: if (isMovingToPlayer) {
    00001FAE DD 7E EA         [19] 5929 	ld	a, -22 (ix)
    00001FB1 B7               [ 4] 5930 	or	a, a
    00001FB2 28 24            [12] 5931 	jr	Z, 00115$
                                   5932 ;E:\Dropbox\FAUSTO\SVILUPPI\MSX\CODE\C\MSXgl\projects\exsoccer/exsoccer_s2_b0.c:1114: tx = g_Players[g_Ball.PassTargetPlayerId].X;
    00001FB4 01r00r00         [10] 5933 	ld	bc, #_g_Players+0
    00001FB7 DD 5E E9         [19] 5934 	ld	e, -23 (ix)
    00001FBA 16 00            [ 7] 5935 	ld	d, #0x00
    00001FBC 6B               [ 4] 5936 	ld	l, e
    00001FBD 62               [ 4] 5937 	ld	h, d
    00001FBE 29               [11] 5938 	add	hl, hl
    00001FBF 29               [11] 5939 	add	hl, hl
    00001FC0 19               [11] 5940 	add	hl, de
    00001FC1 29               [11] 5941 	add	hl, hl
    00001FC2 29               [11] 5942 	add	hl, hl
    00001FC3 19               [11] 5943 	add	hl, de
    00001FC4 09               [11] 5944 	add	hl, bc
                                   5945 ;	spillPairReg hl
                                   5946 ;	spillPairReg hl
    00001FC5 5D               [ 4] 5947 	ld	e, l
    00001FC6 54               [ 4] 5948 	ld	d, h
                                   5949 ;	spillPairReg hl
                                   5950 ;	spillPairReg hl
    00001FC7 23               [ 6] 5951 	inc	hl
    00001FC8 23               [ 6] 5952 	inc	hl
    00001FC9 4E               [ 7] 5953 	ld	c, (hl)
    00001FCA 23               [ 6] 5954 	inc	hl
    00001FCB 46               [ 7] 5955 	ld	b, (hl)
                                   5956 ;E:\Dropbox\FAUSTO\SVILUPPI\MSX\CODE\C\MSXgl\projects\exsoccer/exsoccer_s2_b0.c:1115: ty = g_Players[g_Ball.PassTargetPlayerId].Y;
    00001FCC 1A               [ 7] 5957 	ld	a, (de)
    00001FCD DD 77 EC         [19] 5958 	ld	-20 (ix), a
    00001FD0 13               [ 6] 5959 	inc	de
    00001FD1 1A               [ 7] 5960 	ld	a, (de)
    00001FD2 DD 77 ED         [19] 5961 	ld	-19 (ix), a
    00001FD5 C3rE8r1F         [10] 5962 	jp	00116$
    00001FD8                       5963 00115$:
                                   5964 ;E:\Dropbox\FAUSTO\SVILUPPI\MSX\CODE\C\MSXgl\projects\exsoccer/exsoccer_s2_b0.c:1117: tx = g_Ball.TargetX;
    00001FD8 ED 4Br17r00      [20] 5965 	ld	bc, (#_g_Ball + 23)
                                   5966 ;E:\Dropbox\FAUSTO\SVILUPPI\MSX\CODE\C\MSXgl\projects\exsoccer/exsoccer_s2_b0.c:1118: ty = g_Ball.TargetY;
    00001FDC 21r19r00         [10] 5967 	ld	hl, #_g_Ball + 25
    00001FDF 7E               [ 7] 5968 	ld	a, (hl)
    00001FE0 DD 77 EC         [19] 5969 	ld	-20 (ix), a
    00001FE3 23               [ 6] 5970 	inc	hl
    00001FE4 7E               [ 7] 5971 	ld	a, (hl)
    00001FE5 DD 77 ED         [19] 5972 	ld	-19 (ix), a
    00001FE8                       5973 00116$:
                                   5974 ;E:\Dropbox\FAUSTO\SVILUPPI\MSX\CODE\C\MSXgl\projects\exsoccer/exsoccer_s2_b0.c:1122: i16 dx = tx - (i16)g_Ball.X;
    00001FE8 21r02r00         [10] 5975 	ld	hl, #(_g_Ball + 2)
    00001FEB 7E               [ 7] 5976 	ld	a, (hl)
    00001FEC DD 77 EE         [19] 5977 	ld	-18 (ix), a
    00001FEF 23               [ 6] 5978 	inc	hl
    00001FF0 7E               [ 7] 5979 	ld	a, (hl)
    00001FF1 DD 77 EF         [19] 5980 	ld	-17 (ix), a
    00001FF4 DD 5E EE         [19] 5981 	ld	e, -18 (ix)
    00001FF7 DD 56 EF         [19] 5982 	ld	d, -17 (ix)
    00001FFA 79               [ 4] 5983 	ld	a, c
    00001FFB 93               [ 4] 5984 	sub	a, e
    00001FFC 4F               [ 4] 5985 	ld	c, a
    00001FFD 78               [ 4] 5986 	ld	a, b
    00001FFE 9A               [ 4] 5987 	sbc	a, d
    00001FFF DD 71 F0         [19] 5988 	ld	-16 (ix), c
    00002002 DD 77 F1         [19] 5989 	ld	-15 (ix), a
                                   5990 ;E:\Dropbox\FAUSTO\SVILUPPI\MSX\CODE\C\MSXgl\projects\exsoccer/exsoccer_s2_b0.c:1123: i16 dy = ty - (i16)g_Ball.Y;
    00002005 2Ar00r00         [16] 5991 	ld	hl, (#_g_Ball + 0)
    00002008 DD 7E EC         [19] 5992 	ld	a, -20 (ix)
    0000200B 95               [ 4] 5993 	sub	a, l
    0000200C 4F               [ 4] 5994 	ld	c, a
    0000200D DD 7E ED         [19] 5995 	ld	a, -19 (ix)
    00002010 9C               [ 4] 5996 	sbc	a, h
    00002011 DD 71 F2         [19] 5997 	ld	-14 (ix), c
    00002014 DD 77 F3         [19] 5998 	ld	-13 (ix), a
                                   5999 ;E:\Dropbox\FAUSTO\SVILUPPI\MSX\CODE\C\MSXgl\projects\exsoccer/exsoccer_s2_b0.c:1126: u8 speed = 3; 
    00002017 DD 36 F4 03      [19] 6000 	ld	-12 (ix), #0x03
                                   6001 ;E:\Dropbox\FAUSTO\SVILUPPI\MSX\CODE\C\MSXgl\projects\exsoccer/exsoccer_s2_b0.c:1127: if (g_Ball.ShotActive == 1) speed = 5; // Fast High Shot/Kick
    0000201B DD 7E EB         [19] 6002 	ld	a, -21 (ix)
    0000201E 3D               [ 4] 6003 	dec	a
    0000201F 3E 01            [ 7] 6004 	ld	a, #0x01
    00002021 28 01            [12] 6005 	jr	Z, 00485$
    00002023 AF               [ 4] 6006 	xor	a, a
    00002024                       6007 00485$:
    00002024 DD 77 F5         [19] 6008 	ld	-11 (ix), a
    00002027 B7               [ 4] 6009 	or	a, a
    00002028 28 07            [12] 6010 	jr	Z, 00123$
    0000202A DD 36 F4 05      [19] 6011 	ld	-12 (ix), #0x05
    0000202E C3r4Ar20         [10] 6012 	jp	00124$
    00002031                       6013 00123$:
                                   6014 ;E:\Dropbox\FAUSTO\SVILUPPI\MSX\CODE\C\MSXgl\projects\exsoccer/exsoccer_s2_b0.c:1128: else if (g_Ball.ShotActive == 2) speed = 3; // Slower Bounce
    00002031 DD 7E EB         [19] 6015 	ld	a, -21 (ix)
    00002034 D6 02            [ 7] 6016 	sub	a, #0x02
    00002036 20 07            [12] 6017 	jr	NZ, 00120$
    00002038 DD 36 F4 03      [19] 6018 	ld	-12 (ix), #0x03
    0000203C C3r4Ar20         [10] 6019 	jp	00124$
    0000203F                       6020 00120$:
                                   6021 ;E:\Dropbox\FAUSTO\SVILUPPI\MSX\CODE\C\MSXgl\projects\exsoccer/exsoccer_s2_b0.c:1129: else if (g_Ball.ShotActive == 3) speed = 2; // Rolling
    0000203F DD 7E EB         [19] 6022 	ld	a, -21 (ix)
    00002042 D6 03            [ 7] 6023 	sub	a, #0x03
    00002044 20 04            [12] 6024 	jr	NZ, 00124$
    00002046 DD 36 F4 02      [19] 6025 	ld	-12 (ix), #0x02
    0000204A                       6026 00124$:
                                   6027 ;E:\Dropbox\FAUSTO\SVILUPPI\MSX\CODE\C\MSXgl\projects\exsoccer/exsoccer_s2_b0.c:1132: if (dx > -speed && dx < speed && dy > -speed && dy < speed) {
    0000204A DD 7E F4         [19] 6028 	ld	a, -12 (ix)
    0000204D DD 77 F6         [19] 6029 	ld	-10 (ix), a
    00002050 DD 36 F7 00      [19] 6030 	ld	-9 (ix), #0x00
    00002054 AF               [ 4] 6031 	xor	a, a
    00002055 DD 96 F6         [19] 6032 	sub	a, -10 (ix)
    00002058 DD 77 F8         [19] 6033 	ld	-8 (ix), a
    0000205B 9F               [ 4] 6034 	sbc	a, a
    0000205C DD 96 F7         [19] 6035 	sub	a, -9 (ix)
    0000205F DD 77 F9         [19] 6036 	ld	-7 (ix), a
    00002062 DD 7E F0         [19] 6037 	ld	a, -16 (ix)
    00002065 DD 77 FA         [19] 6038 	ld	-6 (ix), a
    00002068 DD 7E F1         [19] 6039 	ld	a, -15 (ix)
    0000206B DD 77 FB         [19] 6040 	ld	-5 (ix), a
    0000206E DD 7E F8         [19] 6041 	ld	a, -8 (ix)
    00002071 DD 96 FA         [19] 6042 	sub	a, -6 (ix)
    00002074 DD 7E F9         [19] 6043 	ld	a, -7 (ix)
    00002077 DD 9E FB         [19] 6044 	sbc	a, -5 (ix)
    0000207A E2r7Fr20         [10] 6045 	jp	PO, 00490$
    0000207D EE 80            [ 7] 6046 	xor	a, #0x80
    0000207F                       6047 00490$:
    0000207F F2r96r25         [10] 6048 	jp	P, 00160$
    00002082 DD 7E F4         [19] 6049 	ld	a, -12 (ix)
    00002085 DD 77 FC         [19] 6050 	ld	-4 (ix), a
    00002088 DD 36 FD 00      [19] 6051 	ld	-3 (ix), #0x00
    0000208C DD 7E F0         [19] 6052 	ld	a, -16 (ix)
    0000208F DD 96 FC         [19] 6053 	sub	a, -4 (ix)
    00002092 DD 7E F1         [19] 6054 	ld	a, -15 (ix)
    00002095 DD 9E FD         [19] 6055 	sbc	a, -3 (ix)
    00002098 E2r9Dr20         [10] 6056 	jp	PO, 00491$
    0000209B EE 80            [ 7] 6057 	xor	a, #0x80
    0000209D                       6058 00491$:
    0000209D F2r96r25         [10] 6059 	jp	P, 00160$
    000020A0 DD 7E F2         [19] 6060 	ld	a, -14 (ix)
    000020A3 DD 77 FE         [19] 6061 	ld	-2 (ix), a
    000020A6 DD 7E F3         [19] 6062 	ld	a, -13 (ix)
    000020A9 DD 77 FF         [19] 6063 	ld	-1 (ix), a
    000020AC DD 7E F8         [19] 6064 	ld	a, -8 (ix)
    000020AF DD 96 FE         [19] 6065 	sub	a, -2 (ix)
    000020B2 DD 7E F9         [19] 6066 	ld	a, -7 (ix)
    000020B5 DD 9E FF         [19] 6067 	sbc	a, -1 (ix)
    000020B8 E2rBDr20         [10] 6068 	jp	PO, 00492$
    000020BB EE 80            [ 7] 6069 	xor	a, #0x80
    000020BD                       6070 00492$:
    000020BD F2r96r25         [10] 6071 	jp	P, 00160$
    000020C0 DD 7E F2         [19] 6072 	ld	a, -14 (ix)
    000020C3 DD 96 FC         [19] 6073 	sub	a, -4 (ix)
    000020C6 DD 7E F3         [19] 6074 	ld	a, -13 (ix)
    000020C9 DD 9E FD         [19] 6075 	sbc	a, -3 (ix)
    000020CC E2rD1r20         [10] 6076 	jp	PO, 00493$
    000020CF EE 80            [ 7] 6077 	xor	a, #0x80
    000020D1                       6078 00493$:
    000020D1 F2r96r25         [10] 6079 	jp	P, 00160$
                                   6080 ;E:\Dropbox\FAUSTO\SVILUPPI\MSX\CODE\C\MSXgl\projects\exsoccer/exsoccer_s2_b0.c:1136: if (isMovingToPlayer) {
    000020D4 DD 7E EA         [19] 6081 	ld	a, -22 (ix)
    000020D7 B7               [ 4] 6082 	or	a, a
    000020D8 28 13            [12] 6083 	jr	Z, 00157$
                                   6084 ;E:\Dropbox\FAUSTO\SVILUPPI\MSX\CODE\C\MSXgl\projects\exsoccer/exsoccer_s2_b0.c:1138: PutBallOnPlayerFeet(g_Ball.PassTargetPlayerId);
    000020DA DD 7E E9         [19] 6085 	ld	a, -23 (ix)
    000020DD CDr00r00         [17] 6086 	call	_PutBallOnPlayerFeet
                                   6087 ;E:\Dropbox\FAUSTO\SVILUPPI\MSX\CODE\C\MSXgl\projects\exsoccer/exsoccer_s2_b0.c:1139: g_Ball.PassTargetPlayerId = NO_VALUE;
    000020E0 21r10r00         [10] 6088 	ld	hl, #(_g_Ball + 16)
    000020E3 36 FF            [10] 6089 	ld	(hl), #0xff
                                   6090 ;E:\Dropbox\FAUSTO\SVILUPPI\MSX\CODE\C\MSXgl\projects\exsoccer/exsoccer_s2_b0.c:1140: g_Ball.Size = 1;
    000020E5 21r04r00         [10] 6091 	ld	hl, #(_g_Ball + 4)
    000020E8 36 01            [10] 6092 	ld	(hl), #0x01
                                   6093 ;E:\Dropbox\FAUSTO\SVILUPPI\MSX\CODE\C\MSXgl\projects\exsoccer/exsoccer_s2_b0.c:1141: return;
    000020EA C3r57r28         [10] 6094 	jp	00198$
    000020ED                       6095 00157$:
                                   6096 ;E:\Dropbox\FAUSTO\SVILUPPI\MSX\CODE\C\MSXgl\projects\exsoccer/exsoccer_s2_b0.c:1147: if (g_Ball.ShotActive == 1) {
    000020ED DD 7E F5         [19] 6097 	ld	a, -11 (ix)
    000020F0 B7               [ 4] 6098 	or	a, a
    000020F1 CArAEr23         [10] 6099 	jp	Z, 00154$
                                   6100 ;E:\Dropbox\FAUSTO\SVILUPPI\MSX\CODE\C\MSXgl\projects\exsoccer/exsoccer_s2_b0.c:1151: bool isInsideField = (ty >= FIELD_BOUND_Y_TOP && ty <= FIELD_BOUND_Y_BOTTOM);
    000020F4 DD 7E EC         [19] 6101 	ld	a, -20 (ix)
    000020F7 DD 77 FE         [19] 6102 	ld	-2 (ix), a
    000020FA DD 7E ED         [19] 6103 	ld	a, -19 (ix)
    000020FD DD 77 FF         [19] 6104 	ld	-1 (ix), a
    00002100 DD 7E FE         [19] 6105 	ld	a, -2 (ix)
    00002103 D6 32            [ 7] 6106 	sub	a, #0x32
    00002105 DD 7E FF         [19] 6107 	ld	a, -1 (ix)
    00002108 17               [ 4] 6108 	rla
    00002109 3F               [ 4] 6109 	ccf
    0000210A 1F               [ 4] 6110 	rra
    0000210B DE 80            [ 7] 6111 	sbc	a, #0x80
    0000210D 38 12            [12] 6112 	jr	C, 00200$
    0000210F 3E AE            [ 7] 6113 	ld	a, #0xae
    00002111 DD BE FE         [19] 6114 	cp	a, -2 (ix)
    00002114 3E 01            [ 7] 6115 	ld	a, #0x01
    00002116 DD 9E FF         [19] 6116 	sbc	a, -1 (ix)
    00002119 E2r1Er21         [10] 6117 	jp	PO, 00494$
    0000211C EE 80            [ 7] 6118 	xor	a, #0x80
    0000211E                       6119 00494$:
    0000211E F2r28r21         [10] 6120 	jp	P, 00201$
    00002121                       6121 00200$:
    00002121 DD 36 FF 00      [19] 6122 	ld	-1 (ix), #0x00
    00002125 C3r2Cr21         [10] 6123 	jp	00202$
    00002128                       6124 00201$:
    00002128 DD 36 FF 01      [19] 6125 	ld	-1 (ix), #0x01
    0000212C                       6126 00202$:
                                   6127 ;E:\Dropbox\FAUSTO\SVILUPPI\MSX\CODE\C\MSXgl\projects\exsoccer/exsoccer_s2_b0.c:1153: if (isInsideField) {
    0000212C DD 7E FF         [19] 6128 	ld	a, -1 (ix)
    0000212F B7               [ 4] 6129 	or	a, a
    00002130 CAr7Fr25         [10] 6130 	jp	Z, 00155$
                                   6131 ;E:\Dropbox\FAUSTO\SVILUPPI\MSX\CODE\C\MSXgl\projects\exsoccer/exsoccer_s2_b0.c:1157: i16 totalVectorX = (i16)g_Ball.TargetX - (i16)g_Ball.PassStartX;
    00002133 21r17r00         [10] 6132 	ld	hl, #(_g_Ball + 23)
    00002136 7E               [ 7] 6133 	ld	a, (hl)
    00002137 DD 77 FE         [19] 6134 	ld	-2 (ix), a
    0000213A 23               [ 6] 6135 	inc	hl
    0000213B 7E               [ 7] 6136 	ld	a, (hl)
    0000213C DD 77 FF         [19] 6137 	ld	-1 (ix), a
    0000213F DD 7E FE         [19] 6138 	ld	a, -2 (ix)
    00002142 DD 77 FA         [19] 6139 	ld	-6 (ix), a
    00002145 DD 7E FF         [19] 6140 	ld	a, -1 (ix)
    00002148 DD 77 FB         [19] 6141 	ld	-5 (ix), a
    0000214B 21r11r00         [10] 6142 	ld	hl, #(_g_Ball + 17)
    0000214E 7E               [ 7] 6143 	ld	a, (hl)
    0000214F DD 77 FE         [19] 6144 	ld	-2 (ix), a
    00002152 23               [ 6] 6145 	inc	hl
    00002153 7E               [ 7] 6146 	ld	a, (hl)
    00002154 DD 77 FF         [19] 6147 	ld	-1 (ix), a
    00002157 DD 7E FE         [19] 6148 	ld	a, -2 (ix)
    0000215A DD 77 FC         [19] 6149 	ld	-4 (ix), a
    0000215D DD 7E FF         [19] 6150 	ld	a, -1 (ix)
    00002160 DD 77 FD         [19] 6151 	ld	-3 (ix), a
    00002163 DD 7E FA         [19] 6152 	ld	a, -6 (ix)
    00002166 DD 96 FC         [19] 6153 	sub	a, -4 (ix)
    00002169 DD 77 FE         [19] 6154 	ld	-2 (ix), a
    0000216C DD 7E FB         [19] 6155 	ld	a, -5 (ix)
    0000216F DD 9E FD         [19] 6156 	sbc	a, -3 (ix)
    00002172 DD 77 FF         [19] 6157 	ld	-1 (ix), a
    00002175 DD 7E FE         [19] 6158 	ld	a, -2 (ix)
    00002178 DD 77 FC         [19] 6159 	ld	-4 (ix), a
    0000217B DD 7E FF         [19] 6160 	ld	a, -1 (ix)
    0000217E DD 77 FD         [19] 6161 	ld	-3 (ix), a
                                   6162 ;E:\Dropbox\FAUSTO\SVILUPPI\MSX\CODE\C\MSXgl\projects\exsoccer/exsoccer_s2_b0.c:1158: i16 totalVectorY = (i16)g_Ball.TargetY - (i16)g_Ball.PassStartY;
    00002181 21r19r00         [10] 6163 	ld	hl, #(_g_Ball + 25)
    00002184 7E               [ 7] 6164 	ld	a, (hl)
    00002185 DD 77 FE         [19] 6165 	ld	-2 (ix), a
    00002188 23               [ 6] 6166 	inc	hl
    00002189 7E               [ 7] 6167 	ld	a, (hl)
    0000218A DD 77 FF         [19] 6168 	ld	-1 (ix), a
    0000218D DD 7E FE         [19] 6169 	ld	a, -2 (ix)
    00002190 DD 77 F8         [19] 6170 	ld	-8 (ix), a
    00002193 DD 7E FF         [19] 6171 	ld	a, -1 (ix)
    00002196 DD 77 F9         [19] 6172 	ld	-7 (ix), a
    00002199 21r13r00         [10] 6173 	ld	hl, #(_g_Ball + 19)
    0000219C 7E               [ 7] 6174 	ld	a, (hl)
    0000219D DD 77 FE         [19] 6175 	ld	-2 (ix), a
    000021A0 23               [ 6] 6176 	inc	hl
    000021A1 7E               [ 7] 6177 	ld	a, (hl)
    000021A2 DD 77 FF         [19] 6178 	ld	-1 (ix), a
    000021A5 DD 7E FE         [19] 6179 	ld	a, -2 (ix)
    000021A8 DD 77 FA         [19] 6180 	ld	-6 (ix), a
    000021AB DD 7E FF         [19] 6181 	ld	a, -1 (ix)
    000021AE DD 77 FB         [19] 6182 	ld	-5 (ix), a
    000021B1 DD 7E F8         [19] 6183 	ld	a, -8 (ix)
    000021B4 DD 96 FA         [19] 6184 	sub	a, -6 (ix)
    000021B7 DD 77 FE         [19] 6185 	ld	-2 (ix), a
    000021BA DD 7E F9         [19] 6186 	ld	a, -7 (ix)
    000021BD DD 9E FB         [19] 6187 	sbc	a, -5 (ix)
    000021C0 DD 77 FF         [19] 6188 	ld	-1 (ix), a
                                   6189 ;E:\Dropbox\FAUSTO\SVILUPPI\MSX\CODE\C\MSXgl\projects\exsoccer/exsoccer_s2_b0.c:1161: g_Ball.PassStartX = g_Ball.X;
    000021C3 21r11r00         [10] 6190 	ld	hl, #(_g_Ball + 17)
    000021C6 DD 7E EE         [19] 6191 	ld	a, -18 (ix)
    000021C9 77               [ 7] 6192 	ld	(hl), a
    000021CA 23               [ 6] 6193 	inc	hl
    000021CB DD 7E EF         [19] 6194 	ld	a, -17 (ix)
    000021CE 77               [ 7] 6195 	ld	(hl), a
                                   6196 ;E:\Dropbox\FAUSTO\SVILUPPI\MSX\CODE\C\MSXgl\projects\exsoccer/exsoccer_s2_b0.c:1162: g_Ball.PassStartY = g_Ball.Y;
    000021CF 21r00r00         [10] 6197 	ld	hl, #_g_Ball
    000021D2 7E               [ 7] 6198 	ld	a, (hl)
    000021D3 DD 77 FA         [19] 6199 	ld	-6 (ix), a
    000021D6 23               [ 6] 6200 	inc	hl
    000021D7 7E               [ 7] 6201 	ld	a, (hl)
    000021D8 DD 77 FB         [19] 6202 	ld	-5 (ix), a
    000021DB 21r13r00         [10] 6203 	ld	hl, #(_g_Ball + 19)
    000021DE DD 7E FA         [19] 6204 	ld	a, -6 (ix)
    000021E1 77               [ 7] 6205 	ld	(hl), a
    000021E2 23               [ 6] 6206 	inc	hl
    000021E3 DD 7E FB         [19] 6207 	ld	a, -5 (ix)
    000021E6 77               [ 7] 6208 	ld	(hl), a
                                   6209 ;E:\Dropbox\FAUSTO\SVILUPPI\MSX\CODE\C\MSXgl\projects\exsoccer/exsoccer_s2_b0.c:1165: i16 bounceDx = totalVectorX / 4; 
    000021E7 DD 7E FC         [19] 6210 	ld	a, -4 (ix)
    000021EA DD 77 F9         [19] 6211 	ld	-7 (ix), a
    000021ED DD 7E FD         [19] 6212 	ld	a, -3 (ix)
    000021F0 DD 77 FA         [19] 6213 	ld	-6 (ix), a
    000021F3 DD 7E F9         [19] 6214 	ld	a, -7 (ix)
    000021F6 DD 77 FC         [19] 6215 	ld	-4 (ix), a
    000021F9 DD 7E FA         [19] 6216 	ld	a, -6 (ix)
    000021FC DD 77 FD         [19] 6217 	ld	-3 (ix), a
    000021FF DD CB FA 7E      [20] 6218 	bit	7, -6 (ix)
    00002203 28 10            [12] 6219 	jr	Z, 00203$
    00002205 DD 7E F9         [19] 6220 	ld	a, -7 (ix)
    00002208 C6 03            [ 7] 6221 	add	a, #0x03
    0000220A DD 77 FC         [19] 6222 	ld	-4 (ix), a
    0000220D DD 7E FA         [19] 6223 	ld	a, -6 (ix)
    00002210 CE 00            [ 7] 6224 	adc	a, #0x00
    00002212 DD 77 FD         [19] 6225 	ld	-3 (ix), a
    00002215                       6226 00203$:
    00002215 DD CB FD 2E      [23] 6227 	sra	-3 (ix)
    00002219 DD CB FC 1E      [23] 6228 	rr	-4 (ix)
    0000221D DD CB FD 2E      [23] 6229 	sra	-3 (ix)
    00002221 DD CB FC 1E      [23] 6230 	rr	-4 (ix)
    00002225 DD 7E FC         [19] 6231 	ld	a, -4 (ix)
    00002228 DD 77 F6         [19] 6232 	ld	-10 (ix), a
    0000222B DD 7E FD         [19] 6233 	ld	a, -3 (ix)
    0000222E DD 77 F7         [19] 6234 	ld	-9 (ix), a
                                   6235 ;E:\Dropbox\FAUSTO\SVILUPPI\MSX\CODE\C\MSXgl\projects\exsoccer/exsoccer_s2_b0.c:1166: i16 bounceDy = totalVectorY / 4; 
    00002231 DD 7E FE         [19] 6236 	ld	a, -2 (ix)
    00002234 DD 77 FB         [19] 6237 	ld	-5 (ix), a
    00002237 DD 7E FF         [19] 6238 	ld	a, -1 (ix)
    0000223A DD 77 FC         [19] 6239 	ld	-4 (ix), a
    0000223D DD 7E FB         [19] 6240 	ld	a, -5 (ix)
    00002240 DD 77 FE         [19] 6241 	ld	-2 (ix), a
    00002243 DD 7E FC         [19] 6242 	ld	a, -4 (ix)
    00002246 DD 77 FF         [19] 6243 	ld	-1 (ix), a
    00002249 DD CB FC 7E      [20] 6244 	bit	7, -4 (ix)
    0000224D 28 10            [12] 6245 	jr	Z, 00204$
    0000224F DD 7E FB         [19] 6246 	ld	a, -5 (ix)
    00002252 C6 03            [ 7] 6247 	add	a, #0x03
    00002254 DD 77 FE         [19] 6248 	ld	-2 (ix), a
    00002257 DD 7E FC         [19] 6249 	ld	a, -4 (ix)
    0000225A CE 00            [ 7] 6250 	adc	a, #0x00
    0000225C DD 77 FF         [19] 6251 	ld	-1 (ix), a
    0000225F                       6252 00204$:
    0000225F DD CB FF 2E      [23] 6253 	sra	-1 (ix)
    00002263 DD CB FE 1E      [23] 6254 	rr	-2 (ix)
    00002267 DD CB FF 2E      [23] 6255 	sra	-1 (ix)
    0000226B DD CB FE 1E      [23] 6256 	rr	-2 (ix)
    0000226F DD 7E FE         [19] 6257 	ld	a, -2 (ix)
    00002272 DD 77 F8         [19] 6258 	ld	-8 (ix), a
    00002275 DD 7E FF         [19] 6259 	ld	a, -1 (ix)
    00002278 DD 77 F9         [19] 6260 	ld	-7 (ix), a
                                   6261 ;E:\Dropbox\FAUSTO\SVILUPPI\MSX\CODE\C\MSXgl\projects\exsoccer/exsoccer_s2_b0.c:1169: i16 newTx = (i16)g_Ball.X + bounceDx;
    0000227B 21r02r00         [10] 6262 	ld	hl, #(_g_Ball + 2)
    0000227E 7E               [ 7] 6263 	ld	a, (hl)
    0000227F DD 77 FE         [19] 6264 	ld	-2 (ix), a
    00002282 23               [ 6] 6265 	inc	hl
    00002283 7E               [ 7] 6266 	ld	a, (hl)
    00002284 DD 77 FF         [19] 6267 	ld	-1 (ix), a
    00002287 DD 7E FE         [19] 6268 	ld	a, -2 (ix)
    0000228A DD 77 FC         [19] 6269 	ld	-4 (ix), a
    0000228D DD 7E FF         [19] 6270 	ld	a, -1 (ix)
    00002290 DD 77 FD         [19] 6271 	ld	-3 (ix), a
    00002293 DD 7E F6         [19] 6272 	ld	a, -10 (ix)
    00002296 DD 86 FC         [19] 6273 	add	a, -4 (ix)
    00002299 DD 77 FE         [19] 6274 	ld	-2 (ix), a
    0000229C DD 7E F7         [19] 6275 	ld	a, -9 (ix)
    0000229F DD 8E FD         [19] 6276 	adc	a, -3 (ix)
    000022A2 DD 77 FF         [19] 6277 	ld	-1 (ix), a
    000022A5 DD 7E FE         [19] 6278 	ld	a, -2 (ix)
    000022A8 DD 77 FA         [19] 6279 	ld	-6 (ix), a
    000022AB DD 7E FF         [19] 6280 	ld	a, -1 (ix)
    000022AE DD 77 FB         [19] 6281 	ld	-5 (ix), a
                                   6282 ;E:\Dropbox\FAUSTO\SVILUPPI\MSX\CODE\C\MSXgl\projects\exsoccer/exsoccer_s2_b0.c:1170: i16 newTy = (i16)g_Ball.Y + bounceDy;
    000022B1 21r00r00         [10] 6283 	ld	hl, #_g_Ball
    000022B4 7E               [ 7] 6284 	ld	a, (hl)
    000022B5 DD 77 FE         [19] 6285 	ld	-2 (ix), a
    000022B8 23               [ 6] 6286 	inc	hl
    000022B9 7E               [ 7] 6287 	ld	a, (hl)
    000022BA DD 77 FF         [19] 6288 	ld	-1 (ix), a
    000022BD DD 7E FE         [19] 6289 	ld	a, -2 (ix)
    000022C0 DD 77 FC         [19] 6290 	ld	-4 (ix), a
    000022C3 DD 7E FF         [19] 6291 	ld	a, -1 (ix)
    000022C6 DD 77 FD         [19] 6292 	ld	-3 (ix), a
    000022C9 DD 7E F8         [19] 6293 	ld	a, -8 (ix)
    000022CC DD 86 FC         [19] 6294 	add	a, -4 (ix)
    000022CF DD 77 FE         [19] 6295 	ld	-2 (ix), a
    000022D2 DD 7E F9         [19] 6296 	ld	a, -7 (ix)
    000022D5 DD 8E FD         [19] 6297 	adc	a, -3 (ix)
    000022D8 DD 77 FF         [19] 6298 	ld	-1 (ix), a
    000022DB DD 7E FE         [19] 6299 	ld	a, -2 (ix)
    000022DE DD 77 FC         [19] 6300 	ld	-4 (ix), a
    000022E1 DD 7E FF         [19] 6301 	ld	a, -1 (ix)
    000022E4 DD 77 FD         [19] 6302 	ld	-3 (ix), a
                                   6303 ;E:\Dropbox\FAUSTO\SVILUPPI\MSX\CODE\C\MSXgl\projects\exsoccer/exsoccer_s2_b0.c:1173: if (newTx < FIELD_BOUND_X_LEFT) newTx = FIELD_BOUND_X_LEFT;
    000022E7 DD 7E FA         [19] 6304 	ld	a, -6 (ix)
    000022EA DD 77 FE         [19] 6305 	ld	-2 (ix), a
    000022ED DD 7E FB         [19] 6306 	ld	a, -5 (ix)
    000022F0 DD 77 FF         [19] 6307 	ld	-1 (ix), a
    000022F3 DD 7E FE         [19] 6308 	ld	a, -2 (ix)
    000022F6 D6 0A            [ 7] 6309 	sub	a, #0x0a
    000022F8 DD 7E FF         [19] 6310 	ld	a, -1 (ix)
    000022FB 17               [ 4] 6311 	rla
    000022FC 3F               [ 4] 6312 	ccf
    000022FD 1F               [ 4] 6313 	rra
    000022FE DE 80            [ 7] 6314 	sbc	a, #0x80
    00002300 30 0B            [12] 6315 	jr	NC, 00128$
    00002302 DD 36 FA 0A      [19] 6316 	ld	-6 (ix), #0x0a
    00002306 DD 36 FB 00      [19] 6317 	ld	-5 (ix), #0
    0000230A C3r27r23         [10] 6318 	jp	00129$
    0000230D                       6319 00128$:
                                   6320 ;E:\Dropbox\FAUSTO\SVILUPPI\MSX\CODE\C\MSXgl\projects\exsoccer/exsoccer_s2_b0.c:1174: else if (newTx > FIELD_BOUND_X_RIGHT) newTx = FIELD_BOUND_X_RIGHT;
    0000230D 3E F6            [ 7] 6321 	ld	a, #0xf6
    0000230F DD BE FE         [19] 6322 	cp	a, -2 (ix)
    00002312 3E 00            [ 7] 6323 	ld	a, #0x00
    00002314 DD 9E FF         [19] 6324 	sbc	a, -1 (ix)
    00002317 E2r1Cr23         [10] 6325 	jp	PO, 00495$
    0000231A EE 80            [ 7] 6326 	xor	a, #0x80
    0000231C                       6327 00495$:
    0000231C F2r27r23         [10] 6328 	jp	P, 00129$
    0000231F DD 36 FA F6      [19] 6329 	ld	-6 (ix), #0xf6
    00002323 DD 36 FB 00      [19] 6330 	ld	-5 (ix), #0
    00002327                       6331 00129$:
                                   6332 ;E:\Dropbox\FAUSTO\SVILUPPI\MSX\CODE\C\MSXgl\projects\exsoccer/exsoccer_s2_b0.c:1176: if (newTy < FIELD_BOUND_Y_TOP) newTy = FIELD_BOUND_Y_TOP;
    00002327 DD 4E FC         [19] 6333 	ld	c, -4 (ix)
    0000232A DD 46 FD         [19] 6334 	ld	b, -3 (ix)
    0000232D 79               [ 4] 6335 	ld	a, c
    0000232E D6 32            [ 7] 6336 	sub	a, #0x32
    00002330 78               [ 4] 6337 	ld	a, b
    00002331 17               [ 4] 6338 	rla
    00002332 3F               [ 4] 6339 	ccf
    00002333 1F               [ 4] 6340 	rra
    00002334 DE 80            [ 7] 6341 	sbc	a, #0x80
    00002336 30 0B            [12] 6342 	jr	NC, 00133$
    00002338 DD 36 FC 32      [19] 6343 	ld	-4 (ix), #0x32
    0000233C DD 36 FD 00      [19] 6344 	ld	-3 (ix), #0
    00002340 C3r59r23         [10] 6345 	jp	00134$
    00002343                       6346 00133$:
                                   6347 ;E:\Dropbox\FAUSTO\SVILUPPI\MSX\CODE\C\MSXgl\projects\exsoccer/exsoccer_s2_b0.c:1177: else if (newTy > FIELD_BOUND_Y_BOTTOM) newTy = FIELD_BOUND_Y_BOTTOM;
    00002343 3E AE            [ 7] 6348 	ld	a, #0xae
    00002345 B9               [ 4] 6349 	cp	a, c
    00002346 3E 01            [ 7] 6350 	ld	a, #0x01
    00002348 98               [ 4] 6351 	sbc	a, b
    00002349 E2r4Er23         [10] 6352 	jp	PO, 00496$
    0000234C EE 80            [ 7] 6353 	xor	a, #0x80
    0000234E                       6354 00496$:
    0000234E F2r59r23         [10] 6355 	jp	P, 00134$
    00002351 DD 36 FC AE      [19] 6356 	ld	-4 (ix), #0xae
    00002355 DD 36 FD 01      [19] 6357 	ld	-3 (ix), #0x01
    00002359                       6358 00134$:
                                   6359 ;E:\Dropbox\FAUSTO\SVILUPPI\MSX\CODE\C\MSXgl\projects\exsoccer/exsoccer_s2_b0.c:1179: g_Ball.TargetX = newTx;
    00002359 21r17r00         [10] 6360 	ld	hl, #(_g_Ball + 23)
    0000235C DD 7E FA         [19] 6361 	ld	a, -6 (ix)
    0000235F 77               [ 7] 6362 	ld	(hl), a
    00002360 23               [ 6] 6363 	inc	hl
    00002361 DD 7E FB         [19] 6364 	ld	a, -5 (ix)
    00002364 77               [ 7] 6365 	ld	(hl), a
                                   6366 ;E:\Dropbox\FAUSTO\SVILUPPI\MSX\CODE\C\MSXgl\projects\exsoccer/exsoccer_s2_b0.c:1180: g_Ball.TargetY = newTy;
    00002365 21r19r00         [10] 6367 	ld	hl, #(_g_Ball + 25)
    00002368 DD 7E FC         [19] 6368 	ld	a, -4 (ix)
    0000236B 77               [ 7] 6369 	ld	(hl), a
    0000236C 23               [ 6] 6370 	inc	hl
    0000236D DD 7E FD         [19] 6371 	ld	a, -3 (ix)
    00002370 77               [ 7] 6372 	ld	(hl), a
                                   6373 ;E:\Dropbox\FAUSTO\SVILUPPI\MSX\CODE\C\MSXgl\projects\exsoccer/exsoccer_s2_b0.c:1183: g_Ball.PassTotalDist = (u16)(Math_Abs32(bounceDx) + Math_Abs32(bounceDy));
    00002371 DD 5E F6         [19] 6374 	ld	e, -10 (ix)
    00002374 DD 7E F7         [19] 6375 	ld	a, -9 (ix)
    00002377 57               [ 4] 6376 	ld	d, a
    00002378 07               [ 4] 6377 	rlca
    00002379 ED 62            [15] 6378 	sbc	hl, hl
    0000237B CDr42r11         [17] 6379 	call	_Math_Abs32
    0000237E E5               [11] 6380 	push	hl
    0000237F FD E1            [14] 6381 	pop	iy
    00002381 4B               [ 4] 6382 	ld	c, e
    00002382 42               [ 4] 6383 	ld	b, d
    00002383 DD 5E F8         [19] 6384 	ld	e, -8 (ix)
    00002386 DD 7E F9         [19] 6385 	ld	a, -7 (ix)
    00002389 57               [ 4] 6386 	ld	d, a
    0000238A 07               [ 4] 6387 	rlca
    0000238B ED 62            [15] 6388 	sbc	hl, hl
    0000238D C5               [11] 6389 	push	bc
    0000238E FD E5            [15] 6390 	push	iy
    00002390 CDr42r11         [17] 6391 	call	_Math_Abs32
    00002393 FD E1            [14] 6392 	pop	iy
    00002395 C1               [10] 6393 	pop	bc
    00002396 EB               [ 4] 6394 	ex	de, hl
    00002397 09               [11] 6395 	add	hl, bc
    00002398 EB               [ 4] 6396 	ex	de, hl
    00002399 ED 53r15r00      [20] 6397 	ld	((_g_Ball + 21)), de
                                   6398 ;E:\Dropbox\FAUSTO\SVILUPPI\MSX\CODE\C\MSXgl\projects\exsoccer/exsoccer_s2_b0.c:1185: if (g_Ball.PassTotalDist > 5) {
    0000239D 3E 05            [ 7] 6399 	ld	a, #0x05
    0000239F BB               [ 4] 6400 	cp	a, e
    000023A0 3E 00            [ 7] 6401 	ld	a, #0x00
    000023A2 9A               [ 4] 6402 	sbc	a, d
    000023A3 D2r7Fr25         [10] 6403 	jp	NC, 00155$
                                   6404 ;E:\Dropbox\FAUSTO\SVILUPPI\MSX\CODE\C\MSXgl\projects\exsoccer/exsoccer_s2_b0.c:1186: g_Ball.ShotActive = 2; // Enter Bounce State
    000023A6 21r1Br00         [10] 6405 	ld	hl, #(_g_Ball + 27)
    000023A9 36 02            [10] 6406 	ld	(hl), #0x02
                                   6407 ;E:\Dropbox\FAUSTO\SVILUPPI\MSX\CODE\C\MSXgl\projects\exsoccer/exsoccer_s2_b0.c:1187: return; 
    000023AB C3r57r28         [10] 6408 	jp	00198$
    000023AE                       6409 00154$:
                                   6410 ;E:\Dropbox\FAUSTO\SVILUPPI\MSX\CODE\C\MSXgl\projects\exsoccer/exsoccer_s2_b0.c:1190: } else if (g_Ball.ShotActive == 2) {
    000023AE DD 7E EB         [19] 6411 	ld	a, -21 (ix)
    000023B1 D6 02            [ 7] 6412 	sub	a, #0x02
    000023B3 C2r7Fr25         [10] 6413 	jp	NZ,00155$
                                   6414 ;E:\Dropbox\FAUSTO\SVILUPPI\MSX\CODE\C\MSXgl\projects\exsoccer/exsoccer_s2_b0.c:1194: i16 vecX = (i16)g_Ball.TargetX - (i16)g_Ball.PassStartX;
    000023B6 ED 4Br17r00      [20] 6415 	ld	bc, (#(_g_Ball + 23) + 0)
    000023BA 2Ar11r00         [16] 6416 	ld	hl, (#(_g_Ball + 17) + 0)
    000023BD 79               [ 4] 6417 	ld	a, c
    000023BE 95               [ 4] 6418 	sub	a, l
    000023BF 4F               [ 4] 6419 	ld	c, a
    000023C0 78               [ 4] 6420 	ld	a, b
    000023C1 9C               [ 4] 6421 	sbc	a, h
    000023C2 47               [ 4] 6422 	ld	b, a
                                   6423 ;E:\Dropbox\FAUSTO\SVILUPPI\MSX\CODE\C\MSXgl\projects\exsoccer/exsoccer_s2_b0.c:1195: i16 vecY = (i16)g_Ball.TargetY - (i16)g_Ball.PassStartY;
    000023C3 ED 5Br19r00      [20] 6424 	ld	de, (#(_g_Ball + 25) + 0)
    000023C7 2Ar13r00         [16] 6425 	ld	hl, (#(_g_Ball + 19) + 0)
    000023CA 7B               [ 4] 6426 	ld	a, e
    000023CB 95               [ 4] 6427 	sub	a, l
    000023CC 5F               [ 4] 6428 	ld	e, a
    000023CD 7A               [ 4] 6429 	ld	a, d
    000023CE 9C               [ 4] 6430 	sbc	a, h
    000023CF 57               [ 4] 6431 	ld	d, a
    000023D0 DD 73 FE         [19] 6432 	ld	-2 (ix), e
    000023D3 DD 72 FF         [19] 6433 	ld	-1 (ix), d
                                   6434 ;E:\Dropbox\FAUSTO\SVILUPPI\MSX\CODE\C\MSXgl\projects\exsoccer/exsoccer_s2_b0.c:1197: g_Ball.PassStartX = g_Ball.X;
    000023D6 21r11r00         [10] 6435 	ld	hl, #(_g_Ball + 17)
    000023D9 DD 7E EE         [19] 6436 	ld	a, -18 (ix)
    000023DC 77               [ 7] 6437 	ld	(hl), a
    000023DD 23               [ 6] 6438 	inc	hl
    000023DE DD 7E EF         [19] 6439 	ld	a, -17 (ix)
    000023E1 77               [ 7] 6440 	ld	(hl), a
                                   6441 ;E:\Dropbox\FAUSTO\SVILUPPI\MSX\CODE\C\MSXgl\projects\exsoccer/exsoccer_s2_b0.c:1198: g_Ball.PassStartY = g_Ball.Y;
    000023E2 ED 5Br00r00      [20] 6442 	ld	de, (#_g_Ball + 0)
    000023E6 ED 53r13r00      [20] 6443 	ld	((_g_Ball + 19)), de
                                   6444 ;E:\Dropbox\FAUSTO\SVILUPPI\MSX\CODE\C\MSXgl\projects\exsoccer/exsoccer_s2_b0.c:1201: i16 rollDx = vecX / 4; 
    000023EA 59               [ 4] 6445 	ld	e, c
    000023EB 50               [ 4] 6446 	ld	d, b
    000023EC CB 78            [ 8] 6447 	bit	7, b
    000023EE 28 05            [12] 6448 	jr	Z, 00205$
    000023F0 59               [ 4] 6449 	ld	e, c
    000023F1 50               [ 4] 6450 	ld	d, b
    000023F2 13               [ 6] 6451 	inc	de
    000023F3 13               [ 6] 6452 	inc	de
    000023F4 13               [ 6] 6453 	inc	de
    000023F5                       6454 00205$:
    000023F5 CB 2A            [ 8] 6455 	sra	d
    000023F7 CB 1B            [ 8] 6456 	rr	e
    000023F9 CB 2A            [ 8] 6457 	sra	d
    000023FB CB 1B            [ 8] 6458 	rr	e
    000023FD DD 73 F6         [19] 6459 	ld	-10 (ix), e
    00002400 DD 72 F7         [19] 6460 	ld	-9 (ix), d
                                   6461 ;E:\Dropbox\FAUSTO\SVILUPPI\MSX\CODE\C\MSXgl\projects\exsoccer/exsoccer_s2_b0.c:1202: i16 rollDy = vecY / 4; 
    00002403 DD 7E FE         [19] 6462 	ld	a, -2 (ix)
    00002406 DD 77 FC         [19] 6463 	ld	-4 (ix), a
    00002409 DD 7E FF         [19] 6464 	ld	a, -1 (ix)
    0000240C DD 77 FD         [19] 6465 	ld	-3 (ix), a
    0000240F DD 7E FC         [19] 6466 	ld	a, -4 (ix)
    00002412 DD 77 FE         [19] 6467 	ld	-2 (ix), a
    00002415 DD 7E FD         [19] 6468 	ld	a, -3 (ix)
    00002418 DD 77 FF         [19] 6469 	ld	-1 (ix), a
    0000241B DD CB FD 7E      [20] 6470 	bit	7, -3 (ix)
    0000241F 28 10            [12] 6471 	jr	Z, 00206$
    00002421 DD 7E FC         [19] 6472 	ld	a, -4 (ix)
    00002424 C6 03            [ 7] 6473 	add	a, #0x03
    00002426 DD 77 FE         [19] 6474 	ld	-2 (ix), a
    00002429 DD 7E FD         [19] 6475 	ld	a, -3 (ix)
    0000242C CE 00            [ 7] 6476 	adc	a, #0x00
    0000242E DD 77 FF         [19] 6477 	ld	-1 (ix), a
    00002431                       6478 00206$:
    00002431 DD CB FF 2E      [23] 6479 	sra	-1 (ix)
    00002435 DD CB FE 1E      [23] 6480 	rr	-2 (ix)
    00002439 DD CB FF 2E      [23] 6481 	sra	-1 (ix)
    0000243D DD CB FE 1E      [23] 6482 	rr	-2 (ix)
    00002441 DD 7E FE         [19] 6483 	ld	a, -2 (ix)
    00002444 DD 77 F8         [19] 6484 	ld	-8 (ix), a
    00002447 DD 7E FF         [19] 6485 	ld	a, -1 (ix)
    0000244A DD 77 F9         [19] 6486 	ld	-7 (ix), a
                                   6487 ;E:\Dropbox\FAUSTO\SVILUPPI\MSX\CODE\C\MSXgl\projects\exsoccer/exsoccer_s2_b0.c:1207: i16 rollTx = (i16)g_Ball.X + rollDx;
    0000244D 21r02r00         [10] 6488 	ld	hl, #(_g_Ball + 2)
    00002450 7E               [ 7] 6489 	ld	a, (hl)
    00002451 DD 77 FE         [19] 6490 	ld	-2 (ix), a
    00002454 23               [ 6] 6491 	inc	hl
    00002455 7E               [ 7] 6492 	ld	a, (hl)
    00002456 DD 77 FF         [19] 6493 	ld	-1 (ix), a
    00002459 DD 7E FE         [19] 6494 	ld	a, -2 (ix)
    0000245C DD 77 FC         [19] 6495 	ld	-4 (ix), a
    0000245F DD 7E FF         [19] 6496 	ld	a, -1 (ix)
    00002462 DD 77 FD         [19] 6497 	ld	-3 (ix), a
    00002465 DD 7E F6         [19] 6498 	ld	a, -10 (ix)
    00002468 DD 86 FC         [19] 6499 	add	a, -4 (ix)
    0000246B DD 77 FE         [19] 6500 	ld	-2 (ix), a
    0000246E DD 7E F7         [19] 6501 	ld	a, -9 (ix)
    00002471 DD 8E FD         [19] 6502 	adc	a, -3 (ix)
    00002474 DD 77 FF         [19] 6503 	ld	-1 (ix), a
    00002477 DD 7E FE         [19] 6504 	ld	a, -2 (ix)
    0000247A DD 77 FA         [19] 6505 	ld	-6 (ix), a
    0000247D DD 7E FF         [19] 6506 	ld	a, -1 (ix)
    00002480 DD 77 FB         [19] 6507 	ld	-5 (ix), a
                                   6508 ;E:\Dropbox\FAUSTO\SVILUPPI\MSX\CODE\C\MSXgl\projects\exsoccer/exsoccer_s2_b0.c:1208: i16 rollTy = (i16)g_Ball.Y + rollDy;
    00002483 21r00r00         [10] 6509 	ld	hl, #_g_Ball
    00002486 7E               [ 7] 6510 	ld	a, (hl)
    00002487 DD 77 FE         [19] 6511 	ld	-2 (ix), a
    0000248A 23               [ 6] 6512 	inc	hl
    0000248B 7E               [ 7] 6513 	ld	a, (hl)
    0000248C DD 77 FF         [19] 6514 	ld	-1 (ix), a
    0000248F DD 7E FE         [19] 6515 	ld	a, -2 (ix)
    00002492 DD 77 FC         [19] 6516 	ld	-4 (ix), a
    00002495 DD 7E FF         [19] 6517 	ld	a, -1 (ix)
    00002498 DD 77 FD         [19] 6518 	ld	-3 (ix), a
    0000249B DD 7E F8         [19] 6519 	ld	a, -8 (ix)
    0000249E DD 86 FC         [19] 6520 	add	a, -4 (ix)
    000024A1 DD 77 FE         [19] 6521 	ld	-2 (ix), a
    000024A4 DD 7E F9         [19] 6522 	ld	a, -7 (ix)
    000024A7 DD 8E FD         [19] 6523 	adc	a, -3 (ix)
    000024AA DD 77 FF         [19] 6524 	ld	-1 (ix), a
    000024AD DD 7E FE         [19] 6525 	ld	a, -2 (ix)
    000024B0 DD 77 FC         [19] 6526 	ld	-4 (ix), a
    000024B3 DD 7E FF         [19] 6527 	ld	a, -1 (ix)
    000024B6 DD 77 FD         [19] 6528 	ld	-3 (ix), a
                                   6529 ;E:\Dropbox\FAUSTO\SVILUPPI\MSX\CODE\C\MSXgl\projects\exsoccer/exsoccer_s2_b0.c:1211: if (rollTx < FIELD_BOUND_X_LEFT) rollTx = FIELD_BOUND_X_LEFT;
    000024B9 DD 7E FA         [19] 6530 	ld	a, -6 (ix)
    000024BC DD 77 FE         [19] 6531 	ld	-2 (ix), a
    000024BF DD 7E FB         [19] 6532 	ld	a, -5 (ix)
    000024C2 DD 77 FF         [19] 6533 	ld	-1 (ix), a
    000024C5 DD 7E FE         [19] 6534 	ld	a, -2 (ix)
    000024C8 D6 0A            [ 7] 6535 	sub	a, #0x0a
    000024CA DD 7E FF         [19] 6536 	ld	a, -1 (ix)
    000024CD 17               [ 4] 6537 	rla
    000024CE 3F               [ 4] 6538 	ccf
    000024CF 1F               [ 4] 6539 	rra
    000024D0 DE 80            [ 7] 6540 	sbc	a, #0x80
    000024D2 30 0B            [12] 6541 	jr	NC, 00142$
    000024D4 DD 36 FA 0A      [19] 6542 	ld	-6 (ix), #0x0a
    000024D8 DD 36 FB 00      [19] 6543 	ld	-5 (ix), #0
    000024DC C3rF9r24         [10] 6544 	jp	00143$
    000024DF                       6545 00142$:
                                   6546 ;E:\Dropbox\FAUSTO\SVILUPPI\MSX\CODE\C\MSXgl\projects\exsoccer/exsoccer_s2_b0.c:1212: else if (rollTx > FIELD_BOUND_X_RIGHT) rollTx = FIELD_BOUND_X_RIGHT;
    000024DF 3E F6            [ 7] 6547 	ld	a, #0xf6
    000024E1 DD BE FE         [19] 6548 	cp	a, -2 (ix)
    000024E4 3E 00            [ 7] 6549 	ld	a, #0x00
    000024E6 DD 9E FF         [19] 6550 	sbc	a, -1 (ix)
    000024E9 E2rEEr24         [10] 6551 	jp	PO, 00499$
    000024EC EE 80            [ 7] 6552 	xor	a, #0x80
    000024EE                       6553 00499$:
    000024EE F2rF9r24         [10] 6554 	jp	P, 00143$
    000024F1 DD 36 FA F6      [19] 6555 	ld	-6 (ix), #0xf6
    000024F5 DD 36 FB 00      [19] 6556 	ld	-5 (ix), #0
    000024F9                       6557 00143$:
                                   6558 ;E:\Dropbox\FAUSTO\SVILUPPI\MSX\CODE\C\MSXgl\projects\exsoccer/exsoccer_s2_b0.c:1213: if (rollTy < FIELD_BOUND_Y_TOP) rollTy = FIELD_BOUND_Y_TOP;
    000024F9 DD 4E FC         [19] 6559 	ld	c, -4 (ix)
    000024FC DD 46 FD         [19] 6560 	ld	b, -3 (ix)
    000024FF 79               [ 4] 6561 	ld	a, c
    00002500 D6 32            [ 7] 6562 	sub	a, #0x32
    00002502 78               [ 4] 6563 	ld	a, b
    00002503 17               [ 4] 6564 	rla
    00002504 3F               [ 4] 6565 	ccf
    00002505 1F               [ 4] 6566 	rra
    00002506 DE 80            [ 7] 6567 	sbc	a, #0x80
    00002508 30 0B            [12] 6568 	jr	NC, 00147$
    0000250A DD 36 FC 32      [19] 6569 	ld	-4 (ix), #0x32
    0000250E DD 36 FD 00      [19] 6570 	ld	-3 (ix), #0
    00002512 C3r2Br25         [10] 6571 	jp	00148$
    00002515                       6572 00147$:
                                   6573 ;E:\Dropbox\FAUSTO\SVILUPPI\MSX\CODE\C\MSXgl\projects\exsoccer/exsoccer_s2_b0.c:1214: else if (rollTy > FIELD_BOUND_Y_BOTTOM) rollTy = FIELD_BOUND_Y_BOTTOM;
    00002515 3E AE            [ 7] 6574 	ld	a, #0xae
    00002517 B9               [ 4] 6575 	cp	a, c
    00002518 3E 01            [ 7] 6576 	ld	a, #0x01
    0000251A 98               [ 4] 6577 	sbc	a, b
    0000251B E2r20r25         [10] 6578 	jp	PO, 00500$
    0000251E EE 80            [ 7] 6579 	xor	a, #0x80
    00002520                       6580 00500$:
    00002520 F2r2Br25         [10] 6581 	jp	P, 00148$
    00002523 DD 36 FC AE      [19] 6582 	ld	-4 (ix), #0xae
    00002527 DD 36 FD 01      [19] 6583 	ld	-3 (ix), #0x01
    0000252B                       6584 00148$:
                                   6585 ;E:\Dropbox\FAUSTO\SVILUPPI\MSX\CODE\C\MSXgl\projects\exsoccer/exsoccer_s2_b0.c:1216: g_Ball.TargetX = rollTx;
    0000252B 21r17r00         [10] 6586 	ld	hl, #(_g_Ball + 23)
    0000252E DD 7E FA         [19] 6587 	ld	a, -6 (ix)
    00002531 77               [ 7] 6588 	ld	(hl), a
    00002532 23               [ 6] 6589 	inc	hl
    00002533 DD 7E FB         [19] 6590 	ld	a, -5 (ix)
    00002536 77               [ 7] 6591 	ld	(hl), a
                                   6592 ;E:\Dropbox\FAUSTO\SVILUPPI\MSX\CODE\C\MSXgl\projects\exsoccer/exsoccer_s2_b0.c:1217: g_Ball.TargetY = rollTy;
    00002537 21r19r00         [10] 6593 	ld	hl, #(_g_Ball + 25)
    0000253A DD 7E FC         [19] 6594 	ld	a, -4 (ix)
    0000253D 77               [ 7] 6595 	ld	(hl), a
    0000253E 23               [ 6] 6596 	inc	hl
    0000253F DD 7E FD         [19] 6597 	ld	a, -3 (ix)
    00002542 77               [ 7] 6598 	ld	(hl), a
                                   6599 ;E:\Dropbox\FAUSTO\SVILUPPI\MSX\CODE\C\MSXgl\projects\exsoccer/exsoccer_s2_b0.c:1218: g_Ball.PassTotalDist = (u16)(Math_Abs32(rollDx) + Math_Abs32(rollDy));
    00002543 DD 5E F6         [19] 6600 	ld	e, -10 (ix)
    00002546 DD 7E F7         [19] 6601 	ld	a, -9 (ix)
    00002549 57               [ 4] 6602 	ld	d, a
    0000254A 07               [ 4] 6603 	rlca
    0000254B ED 62            [15] 6604 	sbc	hl, hl
    0000254D CDr42r11         [17] 6605 	call	_Math_Abs32
    00002550 E5               [11] 6606 	push	hl
    00002551 FD E1            [14] 6607 	pop	iy
    00002553 4B               [ 4] 6608 	ld	c, e
    00002554 42               [ 4] 6609 	ld	b, d
    00002555 DD 5E F8         [19] 6610 	ld	e, -8 (ix)
    00002558 DD 7E F9         [19] 6611 	ld	a, -7 (ix)
    0000255B 57               [ 4] 6612 	ld	d, a
    0000255C 07               [ 4] 6613 	rlca
    0000255D ED 62            [15] 6614 	sbc	hl, hl
    0000255F C5               [11] 6615 	push	bc
    00002560 FD E5            [15] 6616 	push	iy
    00002562 CDr42r11         [17] 6617 	call	_Math_Abs32
    00002565 FD E1            [14] 6618 	pop	iy
    00002567 C1               [10] 6619 	pop	bc
    00002568 EB               [ 4] 6620 	ex	de, hl
    00002569 09               [11] 6621 	add	hl, bc
    0000256A EB               [ 4] 6622 	ex	de, hl
    0000256B ED 53r15r00      [20] 6623 	ld	((_g_Ball + 21)), de
                                   6624 ;E:\Dropbox\FAUSTO\SVILUPPI\MSX\CODE\C\MSXgl\projects\exsoccer/exsoccer_s2_b0.c:1220: if (g_Ball.PassTotalDist > 2) {
    0000256F 3E 02            [ 7] 6625 	ld	a, #0x02
    00002571 BB               [ 4] 6626 	cp	a, e
    00002572 3E 00            [ 7] 6627 	ld	a, #0x00
    00002574 9A               [ 4] 6628 	sbc	a, d
    00002575 30 08            [12] 6629 	jr	NC, 00155$
                                   6630 ;E:\Dropbox\FAUSTO\SVILUPPI\MSX\CODE\C\MSXgl\projects\exsoccer/exsoccer_s2_b0.c:1221: g_Ball.ShotActive = 3; // ROLLING
    00002577 21r1Br00         [10] 6631 	ld	hl, #(_g_Ball + 27)
    0000257A 36 03            [10] 6632 	ld	(hl), #0x03
                                   6633 ;E:\Dropbox\FAUSTO\SVILUPPI\MSX\CODE\C\MSXgl\projects\exsoccer/exsoccer_s2_b0.c:1222: return;
    0000257C C3r57r28         [10] 6634 	jp	00198$
    0000257F                       6635 00155$:
                                   6636 ;E:\Dropbox\FAUSTO\SVILUPPI\MSX\CODE\C\MSXgl\projects\exsoccer/exsoccer_s2_b0.c:1227: g_Ball.ShotActive = 0;
    0000257F 21r1Br00         [10] 6637 	ld	hl, #(_g_Ball + 27)
    00002582 36 00            [10] 6638 	ld	(hl), #0x00
                                   6639 ;E:\Dropbox\FAUSTO\SVILUPPI\MSX\CODE\C\MSXgl\projects\exsoccer/exsoccer_s2_b0.c:1228: g_Ball.PassTargetPlayerId = NO_VALUE;
    00002584 21r10r00         [10] 6640 	ld	hl, #(_g_Ball + 16)
    00002587 36 FF            [10] 6641 	ld	(hl), #0xff
                                   6642 ;E:\Dropbox\FAUSTO\SVILUPPI\MSX\CODE\C\MSXgl\projects\exsoccer/exsoccer_s2_b0.c:1229: g_Ball.PossessionPlayerId = NO_VALUE;
    00002589 21r06r00         [10] 6643 	ld	hl, #(_g_Ball + 6)
    0000258C 36 FF            [10] 6644 	ld	(hl), #0xff
                                   6645 ;E:\Dropbox\FAUSTO\SVILUPPI\MSX\CODE\C\MSXgl\projects\exsoccer/exsoccer_s2_b0.c:1230: g_Ball.Size = 1;
    0000258E 21r04r00         [10] 6646 	ld	hl, #(_g_Ball + 4)
    00002591 36 01            [10] 6647 	ld	(hl), #0x01
                                   6648 ;E:\Dropbox\FAUSTO\SVILUPPI\MSX\CODE\C\MSXgl\projects\exsoccer/exsoccer_s2_b0.c:1232: return;
    00002593 C3r57r28         [10] 6649 	jp	00198$
    00002596                       6650 00160$:
                                   6651 ;E:\Dropbox\FAUSTO\SVILUPPI\MSX\CODE\C\MSXgl\projects\exsoccer/exsoccer_s2_b0.c:1237: if (Math_Abs32(dx) > Math_Abs32(dy)) {
    00002596 DD 7E F0         [19] 6652 	ld	a, -16 (ix)
    00002599 DD 77 E8         [19] 6653 	ld	-24 (ix), a
    0000259C DD 7E F1         [19] 6654 	ld	a, -15 (ix)
    0000259F DD 77 E9         [19] 6655 	ld	-23 (ix), a
    000025A2 07               [ 4] 6656 	rlca
    000025A3 9F               [ 4] 6657 	sbc	a, a
    000025A4 DD 77 EA         [19] 6658 	ld	-22 (ix), a
    000025A7 DD 77 EB         [19] 6659 	ld	-21 (ix), a
    000025AA D1               [10] 6660 	pop	de
    000025AB D5               [11] 6661 	push	de
    000025AC DD 6E EA         [19] 6662 	ld	l, -22 (ix)
                                   6663 ;	spillPairReg hl
                                   6664 ;	spillPairReg hl
    000025AF DD 66 EB         [19] 6665 	ld	h, -21 (ix)
                                   6666 ;	spillPairReg hl
                                   6667 ;	spillPairReg hl
    000025B2 CDr42r11         [17] 6668 	call	_Math_Abs32
    000025B5 4B               [ 4] 6669 	ld	c, e
    000025B6 42               [ 4] 6670 	ld	b, d
    000025B7 DD 7E F2         [19] 6671 	ld	a, -14 (ix)
    000025BA DD 77 EC         [19] 6672 	ld	-20 (ix), a
    000025BD DD 7E F3         [19] 6673 	ld	a, -13 (ix)
    000025C0 DD 77 ED         [19] 6674 	ld	-19 (ix), a
    000025C3 07               [ 4] 6675 	rlca
    000025C4 9F               [ 4] 6676 	sbc	a, a
    000025C5 DD 77 EE         [19] 6677 	ld	-18 (ix), a
    000025C8 DD 77 EF         [19] 6678 	ld	-17 (ix), a
    000025CB E5               [11] 6679 	push	hl
    000025CC C5               [11] 6680 	push	bc
    000025CD DD 5E EC         [19] 6681 	ld	e, -20 (ix)
    000025D0 DD 56 ED         [19] 6682 	ld	d, -19 (ix)
    000025D3 DD 6E EE         [19] 6683 	ld	l, -18 (ix)
                                   6684 ;	spillPairReg hl
                                   6685 ;	spillPairReg hl
    000025D6 DD 66 EF         [19] 6686 	ld	h, -17 (ix)
                                   6687 ;	spillPairReg hl
                                   6688 ;	spillPairReg hl
    000025D9 CDr42r11         [17] 6689 	call	_Math_Abs32
    000025DC DD 73 FC         [19] 6690 	ld	-4 (ix), e
    000025DF DD 72 FD         [19] 6691 	ld	-3 (ix), d
    000025E2 DD 75 FE         [19] 6692 	ld	-2 (ix), l
    000025E5 DD 74 FF         [19] 6693 	ld	-1 (ix), h
    000025E8 C1               [10] 6694 	pop	bc
    000025E9 E1               [10] 6695 	pop	hl
    000025EA DD 7E FC         [19] 6696 	ld	a, -4 (ix)
    000025ED 91               [ 4] 6697 	sub	a, c
    000025EE DD 7E FD         [19] 6698 	ld	a, -3 (ix)
    000025F1 98               [ 4] 6699 	sbc	a, b
    000025F2 DD 7E FE         [19] 6700 	ld	a, -2 (ix)
    000025F5 9D               [ 4] 6701 	sbc	a, l
    000025F6 DD 7E FF         [19] 6702 	ld	a, -1 (ix)
    000025F9 9C               [ 4] 6703 	sbc	a, h
    000025FA E2rFFr25         [10] 6704 	jp	PO, 00501$
    000025FD EE 80            [ 7] 6705 	xor	a, #0x80
    000025FF                       6706 00501$:
    000025FF F2r8Br26         [10] 6707 	jp	P, 00169$
                                   6708 ;E:\Dropbox\FAUSTO\SVILUPPI\MSX\CODE\C\MSXgl\projects\exsoccer/exsoccer_s2_b0.c:1238: g_Ball.X += (dx > 0 ? speed : -speed);
    00002602 ED 4Br02r00      [20] 6709 	ld	bc, (#(_g_Ball + 2) + 0)
    00002606 AF               [ 4] 6710 	xor	a, a
    00002607 DD BE FA         [19] 6711 	cp	a, -6 (ix)
    0000260A DD 9E FB         [19] 6712 	sbc	a, -5 (ix)
    0000260D E2r12r26         [10] 6713 	jp	PO, 00502$
    00002610 EE 80            [ 7] 6714 	xor	a, #0x80
    00002612                       6715 00502$:
    00002612 F2r1Er26         [10] 6716 	jp	P, 00207$
    00002615 DD 5E F6         [19] 6717 	ld	e, -10 (ix)
    00002618 DD 56 F7         [19] 6718 	ld	d, -9 (ix)
    0000261B C3r24r26         [10] 6719 	jp	00208$
    0000261E                       6720 00207$:
    0000261E DD 5E F8         [19] 6721 	ld	e, -8 (ix)
    00002621 DD 56 F9         [19] 6722 	ld	d, -7 (ix)
    00002624                       6723 00208$:
    00002624 EB               [ 4] 6724 	ex	de, hl
    00002625 09               [11] 6725 	add	hl, bc
    00002626 EB               [ 4] 6726 	ex	de, hl
    00002627 ED 53r02r00      [20] 6727 	ld	((_g_Ball + 2)), de
                                   6728 ;E:\Dropbox\FAUSTO\SVILUPPI\MSX\CODE\C\MSXgl\projects\exsoccer/exsoccer_s2_b0.c:1239: if (dx != 0) g_Ball.Y += (dy * speed) / Math_Abs32(dx);
    0000262B DD 7E F1         [19] 6729 	ld	a, -15 (ix)
    0000262E DD B6 F0         [19] 6730 	or	a, -16 (ix)
    00002631 CAr24r27         [10] 6731 	jp	Z, 00170$
    00002634 ED 4Br00r00      [20] 6732 	ld	bc, (#_g_Ball + 0)
    00002638 DD 5E F4         [19] 6733 	ld	e, -12 (ix)
    0000263B 16 00            [ 7] 6734 	ld	d, #0x00
    0000263D C5               [11] 6735 	push	bc
    0000263E DD 6E F2         [19] 6736 	ld	l, -14 (ix)
                                   6737 ;	spillPairReg hl
                                   6738 ;	spillPairReg hl
    00002641 DD 66 F3         [19] 6739 	ld	h, -13 (ix)
                                   6740 ;	spillPairReg hl
                                   6741 ;	spillPairReg hl
    00002644 CDr00r00         [17] 6742 	call	__mulint
    00002647 D5               [11] 6743 	push	de
    00002648 DD 5E E8         [19] 6744 	ld	e, -24 (ix)
    0000264B DD 56 E9         [19] 6745 	ld	d, -23 (ix)
    0000264E DD 6E EA         [19] 6746 	ld	l, -22 (ix)
                                   6747 ;	spillPairReg hl
                                   6748 ;	spillPairReg hl
    00002651 DD 66 EB         [19] 6749 	ld	h, -21 (ix)
                                   6750 ;	spillPairReg hl
                                   6751 ;	spillPairReg hl
    00002654 CDr42r11         [17] 6752 	call	_Math_Abs32
    00002657 D5               [11] 6753 	push	de
    00002658 FD E1            [14] 6754 	pop	iy
    0000265A D1               [10] 6755 	pop	de
    0000265B C1               [10] 6756 	pop	bc
    0000265C DD 73 FC         [19] 6757 	ld	-4 (ix), e
    0000265F 7A               [ 4] 6758 	ld	a, d
    00002660 DD 77 FD         [19] 6759 	ld	-3 (ix), a
    00002663 07               [ 4] 6760 	rlca
    00002664 9F               [ 4] 6761 	sbc	a, a
    00002665 DD 77 FE         [19] 6762 	ld	-2 (ix), a
    00002668 DD 77 FF         [19] 6763 	ld	-1 (ix), a
    0000266B C5               [11] 6764 	push	bc
    0000266C E5               [11] 6765 	push	hl
    0000266D FD E5            [15] 6766 	push	iy
    0000266F DD 5E FC         [19] 6767 	ld	e, -4 (ix)
    00002672 DD 56 FD         [19] 6768 	ld	d, -3 (ix)
    00002675 DD 6E FE         [19] 6769 	ld	l, -2 (ix)
                                   6770 ;	spillPairReg hl
                                   6771 ;	spillPairReg hl
    00002678 DD 66 FF         [19] 6772 	ld	h, -1 (ix)
                                   6773 ;	spillPairReg hl
                                   6774 ;	spillPairReg hl
    0000267B CDr00r00         [17] 6775 	call	__divslong
    0000267E F1               [10] 6776 	pop	af
    0000267F F1               [10] 6777 	pop	af
    00002680 C1               [10] 6778 	pop	bc
    00002681 EB               [ 4] 6779 	ex	de, hl
    00002682 09               [11] 6780 	add	hl, bc
    00002683 EB               [ 4] 6781 	ex	de, hl
    00002684 ED 53r00r00      [20] 6782 	ld	(_g_Ball), de
    00002688 C3r24r27         [10] 6783 	jp	00170$
    0000268B                       6784 00169$:
                                   6785 ;E:\Dropbox\FAUSTO\SVILUPPI\MSX\CODE\C\MSXgl\projects\exsoccer/exsoccer_s2_b0.c:1241: g_Ball.Y += (dy > 0 ? speed : -speed);
    0000268B 11r00r00         [10] 6786 	ld	de, #_g_Ball
    0000268E 21r00r00         [10] 6787 	ld	hl, #_g_Ball
    00002691 7E               [ 7] 6788 	ld	a, (hl)
    00002692 DD 77 FE         [19] 6789 	ld	-2 (ix), a
    00002695 23               [ 6] 6790 	inc	hl
    00002696 7E               [ 7] 6791 	ld	a, (hl)
    00002697 DD 77 FF         [19] 6792 	ld	-1 (ix), a
    0000269A DD 4E F2         [19] 6793 	ld	c, -14 (ix)
    0000269D DD 46 F3         [19] 6794 	ld	b, -13 (ix)
    000026A0 AF               [ 4] 6795 	xor	a, a
    000026A1 B9               [ 4] 6796 	cp	a, c
    000026A2 98               [ 4] 6797 	sbc	a, b
    000026A3 E2rA8r26         [10] 6798 	jp	PO, 00503$
    000026A6 EE 80            [ 7] 6799 	xor	a, #0x80
    000026A8                       6800 00503$:
    000026A8 F2rB4r26         [10] 6801 	jp	P, 00209$
    000026AB DD 6E F6         [19] 6802 	ld	l, -10 (ix)
                                   6803 ;	spillPairReg hl
                                   6804 ;	spillPairReg hl
    000026AE DD 66 F7         [19] 6805 	ld	h, -9 (ix)
                                   6806 ;	spillPairReg hl
                                   6807 ;	spillPairReg hl
    000026B1 C3rBAr26         [10] 6808 	jp	00210$
    000026B4                       6809 00209$:
    000026B4 DD 6E F8         [19] 6810 	ld	l, -8 (ix)
                                   6811 ;	spillPairReg hl
                                   6812 ;	spillPairReg hl
    000026B7 DD 66 F9         [19] 6813 	ld	h, -7 (ix)
                                   6814 ;	spillPairReg hl
                                   6815 ;	spillPairReg hl
    000026BA                       6816 00210$:
    000026BA DD 4E FE         [19] 6817 	ld	c, -2 (ix)
    000026BD DD 46 FF         [19] 6818 	ld	b, -1 (ix)
    000026C0 09               [11] 6819 	add	hl, bc
    000026C1 4D               [ 4] 6820 	ld	c, l
    000026C2 44               [ 4] 6821 	ld	b, h
    000026C3 79               [ 4] 6822 	ld	a, c
    000026C4 12               [ 7] 6823 	ld	(de), a
    000026C5 13               [ 6] 6824 	inc	de
    000026C6 78               [ 4] 6825 	ld	a, b
    000026C7 12               [ 7] 6826 	ld	(de), a
                                   6827 ;E:\Dropbox\FAUSTO\SVILUPPI\MSX\CODE\C\MSXgl\projects\exsoccer/exsoccer_s2_b0.c:1242: if (dy != 0) g_Ball.X += (dx * speed) / Math_Abs32(dy);
    000026C8 DD 7E F3         [19] 6828 	ld	a, -13 (ix)
    000026CB DD B6 F2         [19] 6829 	or	a, -14 (ix)
    000026CE 28 54            [12] 6830 	jr	Z, 00170$
    000026D0 ED 4Br02r00      [20] 6831 	ld	bc, (#(_g_Ball + 2) + 0)
    000026D4 DD 5E F4         [19] 6832 	ld	e, -12 (ix)
    000026D7 16 00            [ 7] 6833 	ld	d, #0x00
    000026D9 C5               [11] 6834 	push	bc
    000026DA DD 6E F0         [19] 6835 	ld	l, -16 (ix)
                                   6836 ;	spillPairReg hl
                                   6837 ;	spillPairReg hl
    000026DD DD 66 F1         [19] 6838 	ld	h, -15 (ix)
                                   6839 ;	spillPairReg hl
                                   6840 ;	spillPairReg hl
    000026E0 CDr00r00         [17] 6841 	call	__mulint
    000026E3 D5               [11] 6842 	push	de
    000026E4 DD 5E EC         [19] 6843 	ld	e, -20 (ix)
    000026E7 DD 56 ED         [19] 6844 	ld	d, -19 (ix)
    000026EA DD 6E EE         [19] 6845 	ld	l, -18 (ix)
                                   6846 ;	spillPairReg hl
                                   6847 ;	spillPairReg hl
    000026ED DD 66 EF         [19] 6848 	ld	h, -17 (ix)
                                   6849 ;	spillPairReg hl
                                   6850 ;	spillPairReg hl
    000026F0 CDr42r11         [17] 6851 	call	_Math_Abs32
    000026F3 D5               [11] 6852 	push	de
    000026F4 FD E1            [14] 6853 	pop	iy
    000026F6 D1               [10] 6854 	pop	de
    000026F7 C1               [10] 6855 	pop	bc
    000026F8 DD 73 FC         [19] 6856 	ld	-4 (ix), e
    000026FB 7A               [ 4] 6857 	ld	a, d
    000026FC DD 77 FD         [19] 6858 	ld	-3 (ix), a
    000026FF 07               [ 4] 6859 	rlca
    00002700 9F               [ 4] 6860 	sbc	a, a
    00002701 DD 77 FE         [19] 6861 	ld	-2 (ix), a
    00002704 DD 77 FF         [19] 6862 	ld	-1 (ix), a
    00002707 C5               [11] 6863 	push	bc
    00002708 E5               [11] 6864 	push	hl
    00002709 FD E5            [15] 6865 	push	iy
    0000270B DD 5E FC         [19] 6866 	ld	e, -4 (ix)
    0000270E DD 56 FD         [19] 6867 	ld	d, -3 (ix)
    00002711 DD 6E FE         [19] 6868 	ld	l, -2 (ix)
                                   6869 ;	spillPairReg hl
                                   6870 ;	spillPairReg hl
    00002714 DD 66 FF         [19] 6871 	ld	h, -1 (ix)
                                   6872 ;	spillPairReg hl
                                   6873 ;	spillPairReg hl
    00002717 CDr00r00         [17] 6874 	call	__divslong
    0000271A F1               [10] 6875 	pop	af
    0000271B F1               [10] 6876 	pop	af
    0000271C C1               [10] 6877 	pop	bc
    0000271D EB               [ 4] 6878 	ex	de, hl
    0000271E 09               [11] 6879 	add	hl, bc
    0000271F EB               [ 4] 6880 	ex	de, hl
    00002720 ED 53r02r00      [20] 6881 	ld	((_g_Ball + 2)), de
    00002724                       6882 00170$:
                                   6883 ;E:\Dropbox\FAUSTO\SVILUPPI\MSX\CODE\C\MSXgl\projects\exsoccer/exsoccer_s2_b0.c:1246: i16 diffStartX = (i16)g_Ball.X - (i16)g_Ball.PassStartX;
    00002724 ED 4Br02r00      [20] 6884 	ld	bc, (#(_g_Ball + 2) + 0)
    00002728 2Ar11r00         [16] 6885 	ld	hl, (#_g_Ball + 17)
    0000272B 79               [ 4] 6886 	ld	a, c
    0000272C 95               [ 4] 6887 	sub	a, l
    0000272D 4F               [ 4] 6888 	ld	c, a
    0000272E 78               [ 4] 6889 	ld	a, b
    0000272F 9C               [ 4] 6890 	sbc	a, h
    00002730 47               [ 4] 6891 	ld	b, a
                                   6892 ;E:\Dropbox\FAUSTO\SVILUPPI\MSX\CODE\C\MSXgl\projects\exsoccer/exsoccer_s2_b0.c:1247: i16 diffStartY = (i16)g_Ball.Y - (i16)g_Ball.PassStartY;
    00002731 ED 5Br00r00      [20] 6893 	ld	de, (#_g_Ball + 0)
    00002735 2Ar13r00         [16] 6894 	ld	hl, (#_g_Ball + 19)
    00002738 7B               [ 4] 6895 	ld	a, e
    00002739 95               [ 4] 6896 	sub	a, l
    0000273A 5F               [ 4] 6897 	ld	e, a
    0000273B 7A               [ 4] 6898 	ld	a, d
    0000273C 9C               [ 4] 6899 	sbc	a, h
    0000273D 57               [ 4] 6900 	ld	d, a
                                   6901 ;E:\Dropbox\FAUSTO\SVILUPPI\MSX\CODE\C\MSXgl\projects\exsoccer/exsoccer_s2_b0.c:1248: u16 distCovered = (u16)(Math_Abs32(diffStartX) + Math_Abs32(diffStartY));
    0000273E 78               [ 4] 6902 	ld	a, b
    0000273F 07               [ 4] 6903 	rlca
    00002740 ED 62            [15] 6904 	sbc	hl, hl
    00002742 D5               [11] 6905 	push	de
    00002743 59               [ 4] 6906 	ld	e, c
    00002744 50               [ 4] 6907 	ld	d, b
    00002745 CDr42r11         [17] 6908 	call	_Math_Abs32
    00002748 E5               [11] 6909 	push	hl
    00002749 FD E1            [14] 6910 	pop	iy
    0000274B 4B               [ 4] 6911 	ld	c, e
    0000274C 42               [ 4] 6912 	ld	b, d
    0000274D D1               [10] 6913 	pop	de
    0000274E 7A               [ 4] 6914 	ld	a, d
    0000274F 07               [ 4] 6915 	rlca
    00002750 ED 62            [15] 6916 	sbc	hl, hl
    00002752 C5               [11] 6917 	push	bc
    00002753 FD E5            [15] 6918 	push	iy
    00002755 CDr42r11         [17] 6919 	call	_Math_Abs32
    00002758 FD E1            [14] 6920 	pop	iy
    0000275A C1               [10] 6921 	pop	bc
    0000275B EB               [ 4] 6922 	ex	de, hl
    0000275C 09               [11] 6923 	add	hl, bc
    0000275D 4D               [ 4] 6924 	ld	c, l
    0000275E 44               [ 4] 6925 	ld	b, h
                                   6926 ;E:\Dropbox\FAUSTO\SVILUPPI\MSX\CODE\C\MSXgl\projects\exsoccer/exsoccer_s2_b0.c:1250: u16 totalDist = g_Ball.PassTotalDist;
    0000275F 21r15r00         [10] 6927 	ld	hl, #_g_Ball + 21
    00002762 7E               [ 7] 6928 	ld	a, (hl)
    00002763 DD 77 FA         [19] 6929 	ld	-6 (ix), a
    00002766 23               [ 6] 6930 	inc	hl
    00002767 7E               [ 7] 6931 	ld	a, (hl)
                                   6932 ;E:\Dropbox\FAUSTO\SVILUPPI\MSX\CODE\C\MSXgl\projects\exsoccer/exsoccer_s2_b0.c:1251: if (totalDist == 0) totalDist = 1; // Safety
    00002768 DD 77 FB         [19] 6933 	ld	-5 (ix), a
    0000276B DD B6 FA         [19] 6934 	or	a, -6 (ix)
    0000276E 20 08            [12] 6935 	jr	NZ, 00172$
    00002770 DD 36 FA 01      [19] 6936 	ld	-6 (ix), #0x01
    00002774 DD 36 FB 00      [19] 6937 	ld	-5 (ix), #0
    00002778                       6938 00172$:
                                   6939 ;E:\Dropbox\FAUSTO\SVILUPPI\MSX\CODE\C\MSXgl\projects\exsoccer/exsoccer_s2_b0.c:1122: i16 dx = tx - (i16)g_Ball.X;
    00002778 ED 5Br02r00      [20] 6940 	ld	de, (#(_g_Ball + 2) + 0)
                                   6941 ;E:\Dropbox\FAUSTO\SVILUPPI\MSX\CODE\C\MSXgl\projects\exsoccer/exsoccer_s2_b0.c:1123: i16 dy = ty - (i16)g_Ball.Y;
    0000277C 21r00r00         [10] 6942 	ld	hl, #_g_Ball
    0000277F 7E               [ 7] 6943 	ld	a, (hl)
    00002780 DD 77 FC         [19] 6944 	ld	-4 (ix), a
    00002783 23               [ 6] 6945 	inc	hl
    00002784 7E               [ 7] 6946 	ld	a, (hl)
    00002785 DD 77 FD         [19] 6947 	ld	-3 (ix), a
                                   6948 ;E:\Dropbox\FAUSTO\SVILUPPI\MSX\CODE\C\MSXgl\projects\exsoccer/exsoccer_s2_b0.c:1254: if (g_Ball.X == 0 || g_Ball.X > 255 || g_Ball.Y == 0 || g_Ball.Y > 211) {
    00002788 DD 7E FC         [19] 6949 	ld	a, -4 (ix)
    0000278B DD 77 FE         [19] 6950 	ld	-2 (ix), a
    0000278E DD 7E FD         [19] 6951 	ld	a, -3 (ix)
    00002791 DD 77 FF         [19] 6952 	ld	-1 (ix), a
    00002794 7A               [ 4] 6953 	ld	a, d
    00002795 B3               [ 4] 6954 	or	a, e
    00002796 28 1D            [12] 6955 	jr	Z, 00174$
    00002798 3E FF            [ 7] 6956 	ld	a, #0xff
    0000279A BB               [ 4] 6957 	cp	a, e
    0000279B 3E 00            [ 7] 6958 	ld	a, #0x00
    0000279D 9A               [ 4] 6959 	sbc	a, d
    0000279E 38 15            [12] 6960 	jr	C, 00174$
    000027A0 DD 7E FD         [19] 6961 	ld	a, -3 (ix)
    000027A3 DD B6 FC         [19] 6962 	or	a, -4 (ix)
    000027A6 28 0D            [12] 6963 	jr	Z, 00174$
    000027A8 3E D3            [ 7] 6964 	ld	a, #0xd3
    000027AA DD BE FE         [19] 6965 	cp	a, -2 (ix)
    000027AD 3E 00            [ 7] 6966 	ld	a, #0x00
    000027AF DD 9E FF         [19] 6967 	sbc	a, -1 (ix)
    000027B2 3E 00            [ 7] 6968 	ld	a, #0x00
    000027B4 17               [ 4] 6969 	rla
                                   6970 ;E:\Dropbox\FAUSTO\SVILUPPI\MSX\CODE\C\MSXgl\projects\exsoccer/exsoccer_s2_b0.c:1257: if(g_Ball.Y > 230 || g_Ball.Y < 20) {
    000027B5                       6971 00174$:
                                   6972 ;E:\Dropbox\FAUSTO\SVILUPPI\MSX\CODE\C\MSXgl\projects\exsoccer/exsoccer_s2_b0.c:1263: if (g_Ball.ShotActive == 2) {
    000027B5 21r1Br00         [10] 6973 	ld	hl, #(_g_Ball + 27)
    000027B8 5E               [ 7] 6974 	ld	e, (hl)
                                   6975 ;E:\Dropbox\FAUSTO\SVILUPPI\MSX\CODE\C\MSXgl\projects\exsoccer/exsoccer_s2_b0.c:1140: g_Ball.Size = 1;
                                   6976 ;E:\Dropbox\FAUSTO\SVILUPPI\MSX\CODE\C\MSXgl\projects\exsoccer/exsoccer_s2_b0.c:1263: if (g_Ball.ShotActive == 2) {
    000027B9 7B               [ 4] 6977 	ld	a, e
    000027BA D6 02            [ 7] 6978 	sub	a, #0x02
    000027BC 20 33            [12] 6979 	jr	NZ, 00196$
                                   6980 ;E:\Dropbox\FAUSTO\SVILUPPI\MSX\CODE\C\MSXgl\projects\exsoccer/exsoccer_s2_b0.c:1265: u16 ratio = (distCovered * 100) / totalDist;
    000027BE 69               [ 4] 6981 	ld	l, c
    000027BF 60               [ 4] 6982 	ld	h, b
    000027C0 29               [11] 6983 	add	hl, hl
    000027C1 09               [11] 6984 	add	hl, bc
    000027C2 29               [11] 6985 	add	hl, hl
    000027C3 29               [11] 6986 	add	hl, hl
    000027C4 29               [11] 6987 	add	hl, hl
    000027C5 09               [11] 6988 	add	hl, bc
    000027C6 29               [11] 6989 	add	hl, hl
    000027C7 29               [11] 6990 	add	hl, hl
    000027C8 DD 5E FA         [19] 6991 	ld	e, -6 (ix)
    000027CB DD 56 FB         [19] 6992 	ld	d, -5 (ix)
    000027CE CDr00r00         [17] 6993 	call	__divuint
                                   6994 ;E:\Dropbox\FAUSTO\SVILUPPI\MSX\CODE\C\MSXgl\projects\exsoccer/exsoccer_s2_b0.c:1266: if (ratio < 20 || ratio > 80) g_Ball.Size = 2;
    000027D1 7B               [ 4] 6995 	ld	a, e
    000027D2 D6 14            [ 7] 6996 	sub	a, #0x14
    000027D4 7A               [ 4] 6997 	ld	a, d
    000027D5 DE 00            [ 7] 6998 	sbc	a, #0x00
    000027D7 38 08            [12] 6999 	jr	C, 00178$
    000027D9 3E 50            [ 7] 7000 	ld	a, #0x50
    000027DB BB               [ 4] 7001 	cp	a, e
    000027DC 3E 00            [ 7] 7002 	ld	a, #0x00
    000027DE 9A               [ 4] 7003 	sbc	a, d
    000027DF 30 08            [12] 7004 	jr	NC, 00179$
    000027E1                       7005 00178$:
    000027E1 21r04r00         [10] 7006 	ld	hl, #(_g_Ball + 4)
    000027E4 36 02            [10] 7007 	ld	(hl), #0x02
    000027E6 C3r4Fr28         [10] 7008 	jp	00197$
    000027E9                       7009 00179$:
                                   7010 ;E:\Dropbox\FAUSTO\SVILUPPI\MSX\CODE\C\MSXgl\projects\exsoccer/exsoccer_s2_b0.c:1267: else g_Ball.Size = 3;
    000027E9 21r04r00         [10] 7011 	ld	hl, #(_g_Ball + 4)
    000027EC 36 03            [10] 7012 	ld	(hl), #0x03
    000027EE C3r4Fr28         [10] 7013 	jp	00197$
    000027F1                       7014 00196$:
                                   7015 ;E:\Dropbox\FAUSTO\SVILUPPI\MSX\CODE\C\MSXgl\projects\exsoccer/exsoccer_s2_b0.c:1269: else if (g_Ball.ShotActive == 3) {
    000027F1 7B               [ 4] 7016 	ld	a, e
    000027F2 D6 03            [ 7] 7017 	sub	a, #0x03
    000027F4 20 08            [12] 7018 	jr	NZ, 00193$
                                   7019 ;E:\Dropbox\FAUSTO\SVILUPPI\MSX\CODE\C\MSXgl\projects\exsoccer/exsoccer_s2_b0.c:1271: g_Ball.Size = 1;
    000027F6 21r04r00         [10] 7020 	ld	hl, #(_g_Ball + 4)
    000027F9 36 01            [10] 7021 	ld	(hl), #0x01
    000027FB C3r4Fr28         [10] 7022 	jp	00197$
    000027FE                       7023 00193$:
                                   7024 ;E:\Dropbox\FAUSTO\SVILUPPI\MSX\CODE\C\MSXgl\projects\exsoccer/exsoccer_s2_b0.c:1273: else if (g_Ball.ShotActive == 1) {
    000027FE 1D               [ 4] 7025 	dec	e
    000027FF 20 08            [12] 7026 	jr	NZ, 00190$
                                   7027 ;E:\Dropbox\FAUSTO\SVILUPPI\MSX\CODE\C\MSXgl\projects\exsoccer/exsoccer_s2_b0.c:1276: g_Ball.Size = 2;
    00002801 21r04r00         [10] 7028 	ld	hl, #(_g_Ball + 4)
    00002804 36 02            [10] 7029 	ld	(hl), #0x02
    00002806 C3r4Fr28         [10] 7030 	jp	00197$
    00002809                       7031 00190$:
                                   7032 ;E:\Dropbox\FAUSTO\SVILUPPI\MSX\CODE\C\MSXgl\projects\exsoccer/exsoccer_s2_b0.c:1286: if (totalDist > 40) {
    00002809 DD 5E FA         [19] 7033 	ld	e, -6 (ix)
    0000280C DD 56 FB         [19] 7034 	ld	d, -5 (ix)
    0000280F 3E 28            [ 7] 7035 	ld	a, #0x28
    00002811 BB               [ 4] 7036 	cp	a, e
    00002812 3E 00            [ 7] 7037 	ld	a, #0x00
    00002814 9A               [ 4] 7038 	sbc	a, d
    00002815 30 33            [12] 7039 	jr	NC, 00187$
                                   7040 ;E:\Dropbox\FAUSTO\SVILUPPI\MSX\CODE\C\MSXgl\projects\exsoccer/exsoccer_s2_b0.c:1287: u16 ratio = (distCovered * 100) / totalDist;
    00002817 69               [ 4] 7041 	ld	l, c
    00002818 60               [ 4] 7042 	ld	h, b
    00002819 29               [11] 7043 	add	hl, hl
    0000281A 09               [11] 7044 	add	hl, bc
    0000281B 29               [11] 7045 	add	hl, hl
    0000281C 29               [11] 7046 	add	hl, hl
    0000281D 29               [11] 7047 	add	hl, hl
    0000281E 09               [11] 7048 	add	hl, bc
    0000281F 29               [11] 7049 	add	hl, hl
    00002820 29               [11] 7050 	add	hl, hl
    00002821 DD 5E FA         [19] 7051 	ld	e, -6 (ix)
    00002824 DD 56 FB         [19] 7052 	ld	d, -5 (ix)
    00002827 CDr00r00         [17] 7053 	call	__divuint
                                   7054 ;E:\Dropbox\FAUSTO\SVILUPPI\MSX\CODE\C\MSXgl\projects\exsoccer/exsoccer_s2_b0.c:1288: if (ratio < 15 || ratio > 85) g_Ball.Size = 2;
    0000282A 7B               [ 4] 7055 	ld	a, e
    0000282B D6 0F            [ 7] 7056 	sub	a, #0x0f
    0000282D 7A               [ 4] 7057 	ld	a, d
    0000282E DE 00            [ 7] 7058 	sbc	a, #0x00
    00002830 38 08            [12] 7059 	jr	C, 00182$
    00002832 3E 55            [ 7] 7060 	ld	a, #0x55
    00002834 BB               [ 4] 7061 	cp	a, e
    00002835 3E 00            [ 7] 7062 	ld	a, #0x00
    00002837 9A               [ 4] 7063 	sbc	a, d
    00002838 30 08            [12] 7064 	jr	NC, 00183$
    0000283A                       7065 00182$:
    0000283A 21r04r00         [10] 7066 	ld	hl, #(_g_Ball + 4)
    0000283D 36 02            [10] 7067 	ld	(hl), #0x02
    0000283F C3r4Fr28         [10] 7068 	jp	00197$
    00002842                       7069 00183$:
                                   7070 ;E:\Dropbox\FAUSTO\SVILUPPI\MSX\CODE\C\MSXgl\projects\exsoccer/exsoccer_s2_b0.c:1289: else g_Ball.Size = 3;
    00002842 21r04r00         [10] 7071 	ld	hl, #(_g_Ball + 4)
    00002845 36 03            [10] 7072 	ld	(hl), #0x03
    00002847 C3r4Fr28         [10] 7073 	jp	00197$
    0000284A                       7074 00187$:
                                   7075 ;E:\Dropbox\FAUSTO\SVILUPPI\MSX\CODE\C\MSXgl\projects\exsoccer/exsoccer_s2_b0.c:1291: g_Ball.Size = 2;
    0000284A 21r04r00         [10] 7076 	ld	hl, #(_g_Ball + 4)
    0000284D 36 02            [10] 7077 	ld	(hl), #0x02
    0000284F                       7078 00197$:
                                   7079 ;E:\Dropbox\FAUSTO\SVILUPPI\MSX\CODE\C\MSXgl\projects\exsoccer/exsoccer_s2_b0.c:1295: g_Ball.PreviousY = g_Ball.Y;
    0000284F ED 4Br00r00      [20] 7080 	ld	bc, (#_g_Ball + 0)
    00002853 ED 43r07r00      [20] 7081 	ld	((_g_Ball + 7)), bc
    00002857                       7082 00198$:
                                   7083 ;E:\Dropbox\FAUSTO\SVILUPPI\MSX\CODE\C\MSXgl\projects\exsoccer/exsoccer_s2_b0.c:1296: }
    00002857 DD F9            [10] 7084 	ld	sp, ix
    00002859 DD E1            [14] 7085 	pop	ix
    0000285B C9               [10] 7086 	ret
                                   7087 ;E:\Dropbox\FAUSTO\SVILUPPI\MSX\CODE\C\MSXgl\projects\exsoccer/exsoccer_s2_b0.c:1297: void TickThrowIn() {
                                   7088 ;	---------------------------------
                                   7089 ; Function TickThrowIn
                                   7090 ; ---------------------------------
    0000285C                       7091 _TickThrowIn::
    0000285C DD E5            [15] 7092 	push	ix
    0000285E DD 21 00 00      [14] 7093 	ld	ix,#0
    00002862 DD 39            [15] 7094 	add	ix,sp
    00002864 21 D6 FF         [10] 7095 	ld	hl, #-42
    00002867 39               [11] 7096 	add	hl, sp
    00002868 F9               [ 6] 7097 	ld	sp, hl
                                   7098 ;E:\Dropbox\FAUSTO\SVILUPPI\MSX\CODE\C\MSXgl\projects\exsoccer/exsoccer_s2_b0.c:1298: if (g_MatchStatus != MATCH_BEFORE_THROW_IN) return;
    00002869 3Ar00r00         [13] 7099 	ld	a, (_g_MatchStatus+0)
    0000286C D6 03            [ 7] 7100 	sub	a, #0x03
    0000286E C2rF6r34         [10] 7101 	jp	NZ,00268$
                                   7102 ;E:\Dropbox\FAUSTO\SVILUPPI\MSX\CODE\C\MSXgl\projects\exsoccer/exsoccer_s2_b0.c:1304: if (g_Timer == 0) {
    00002871 3Ar00r00         [13] 7103 	ld	a, (_g_Timer+0)
    00002874 B7               [ 4] 7104 	or	a, a
    00002875 C2rB4r2E         [10] 7105 	jp	NZ, 00171$
                                   7106 ;E:\Dropbox\FAUSTO\SVILUPPI\MSX\CODE\C\MSXgl\projects\exsoccer/exsoccer_s2_b0.c:1305: s_ThrowTargetId = NO_VALUE;
    00002878 21r14r00         [10] 7107 	ld	hl, #_TickThrowIn_s_ThrowTargetId_65537_1410
    0000287B 36 FF            [10] 7108 	ld	(hl), #0xff
                                   7109 ;E:\Dropbox\FAUSTO\SVILUPPI\MSX\CODE\C\MSXgl\projects\exsoccer/exsoccer_s2_b0.c:1306: s_JoyMoved = false;
    0000287D 21r15r00         [10] 7110 	ld	hl, #_TickThrowIn_s_JoyMoved_65537_1410
    00002880 36 00            [10] 7111 	ld	(hl), #0x00
                                   7112 ;E:\Dropbox\FAUSTO\SVILUPPI\MSX\CODE\C\MSXgl\projects\exsoccer/exsoccer_s2_b0.c:1309: if (g_Ball.X < FIELD_POS_X_CENTER) {
    00002882 2Ar02r00         [16] 7113 	ld	hl, (#(_g_Ball + 2) + 0)
    00002885 11 78 00         [10] 7114 	ld	de, #0x0078
    00002888 BF               [ 4] 7115 	cp	a, a
    00002889 ED 52            [15] 7116 	sbc	hl, de
    0000288B 30 09            [12] 7117 	jr	NC, 00104$
                                   7118 ;E:\Dropbox\FAUSTO\SVILUPPI\MSX\CODE\C\MSXgl\projects\exsoccer/exsoccer_s2_b0.c:1310: g_Ball.X = FIELD_BOUND_X_LEFT;
    0000288D 21 0A 00         [10] 7119 	ld	hl, #0x000a
    00002890 22r02r00         [16] 7120 	ld	((_g_Ball + 2)), hl
    00002893 C3r9Cr28         [10] 7121 	jp	00105$
    00002896                       7122 00104$:
                                   7123 ;E:\Dropbox\FAUSTO\SVILUPPI\MSX\CODE\C\MSXgl\projects\exsoccer/exsoccer_s2_b0.c:1312: g_Ball.X = FIELD_BOUND_X_RIGHT;
    00002896 21 F6 00         [10] 7124 	ld	hl, #0x00f6
    00002899 22r02r00         [16] 7125 	ld	((_g_Ball + 2)), hl
    0000289C                       7126 00105$:
                                   7127 ;E:\Dropbox\FAUSTO\SVILUPPI\MSX\CODE\C\MSXgl\projects\exsoccer/exsoccer_s2_b0.c:1316: if (g_Ball.Y < FIELD_BOUND_Y_TOP) g_Ball.Y = FIELD_BOUND_Y_TOP;
    0000289C 2Ar00r00         [16] 7128 	ld	hl, (#_g_Ball + 0)
    0000289F 11 32 00         [10] 7129 	ld	de, #0x0032
    000028A2 BF               [ 4] 7130 	cp	a, a
    000028A3 ED 52            [15] 7131 	sbc	hl, de
    000028A5 30 06            [12] 7132 	jr	NC, 00107$
    000028A7 21 32 00         [10] 7133 	ld	hl, #0x0032
    000028AA 22r00r00         [16] 7134 	ld	(_g_Ball), hl
    000028AD                       7135 00107$:
                                   7136 ;E:\Dropbox\FAUSTO\SVILUPPI\MSX\CODE\C\MSXgl\projects\exsoccer/exsoccer_s2_b0.c:1317: if (g_Ball.Y > FIELD_BOUND_Y_BOTTOM) g_Ball.Y = FIELD_BOUND_Y_BOTTOM;
    000028AD 2Ar00r00         [16] 7137 	ld	hl, (#_g_Ball + 0)
    000028B0 3E AE            [ 7] 7138 	ld	a, #0xae
    000028B2 BD               [ 4] 7139 	cp	a, l
    000028B3 3E 01            [ 7] 7140 	ld	a, #0x01
    000028B5 9C               [ 4] 7141 	sbc	a, h
    000028B6 30 06            [12] 7142 	jr	NC, 00109$
    000028B8 21 AE 01         [10] 7143 	ld	hl, #0x01ae
    000028BB 22r00r00         [16] 7144 	ld	(_g_Ball), hl
    000028BE                       7145 00109$:
                                   7146 ;E:\Dropbox\FAUSTO\SVILUPPI\MSX\CODE\C\MSXgl\projects\exsoccer/exsoccer_s2_b0.c:1319: g_Ball.PossessionPlayerId = NO_VALUE;
    000028BE 21r06r00         [10] 7147 	ld	hl, #(_g_Ball + 6)
    000028C1 36 FF            [10] 7148 	ld	(hl), #0xff
                                   7149 ;E:\Dropbox\FAUSTO\SVILUPPI\MSX\CODE\C\MSXgl\projects\exsoccer/exsoccer_s2_b0.c:1322: u8 bestId = NO_VALUE;
    000028C3 DD 36 F8 FF      [19] 7150 	ld	-8 (ix), #0xff
                                   7151 ;E:\Dropbox\FAUSTO\SVILUPPI\MSX\CODE\C\MSXgl\projects\exsoccer/exsoccer_s2_b0.c:1323: u16 minDist = 65535;
    000028C7 01 FF FF         [10] 7152 	ld	bc, #0xffff
                                   7153 ;E:\Dropbox\FAUSTO\SVILUPPI\MSX\CODE\C\MSXgl\projects\exsoccer/exsoccer_s2_b0.c:1326: u8 t1=NO_VALUE, t2=NO_VALUE; u16 dt1=65535, dt2=65535;
    000028CA DD 36 EA FF      [19] 7154 	ld	-22 (ix), #0xff
    000028CE DD 36 EB FF      [19] 7155 	ld	-21 (ix), #0xff
    000028D2 DD 36 EC FF      [19] 7156 	ld	-20 (ix), #0xff
    000028D6 DD 36 ED FF      [19] 7157 	ld	-19 (ix), #0xff
    000028DA DD 36 EE FF      [19] 7158 	ld	-18 (ix), #0xff
    000028DE DD 36 EF FF      [19] 7159 	ld	-17 (ix), #0xff
                                   7160 ;E:\Dropbox\FAUSTO\SVILUPPI\MSX\CODE\C\MSXgl\projects\exsoccer/exsoccer_s2_b0.c:1327: u8 o1=NO_VALUE, o2=NO_VALUE; u16 do1=65535, do2=65535;
    000028E2 DD 36 F0 FF      [19] 7161 	ld	-16 (ix), #0xff
    000028E6 DD 36 F1 FF      [19] 7162 	ld	-15 (ix), #0xff
    000028EA DD 36 F2 FF      [19] 7163 	ld	-14 (ix), #0xff
    000028EE DD 36 F3 FF      [19] 7164 	ld	-13 (ix), #0xff
    000028F2 DD 36 F4 FF      [19] 7165 	ld	-12 (ix), #0xff
    000028F6 DD 36 F5 FF      [19] 7166 	ld	-11 (ix), #0xff
                                   7167 ;E:\Dropbox\FAUSTO\SVILUPPI\MSX\CODE\C\MSXgl\projects\exsoccer/exsoccer_s2_b0.c:1329: for(u8 i=0; i<14; i++) {
    000028FA DD 36 FF 00      [19] 7168 	ld	-1 (ix), #0x00
    000028FE                       7169 00258$:
    000028FE DD 7E FF         [19] 7170 	ld	a, -1 (ix)
    00002901 D6 0E            [ 7] 7171 	sub	a, #0x0e
    00002903 D2rCBr29         [10] 7172 	jp	NC, 00121$
                                   7173 ;E:\Dropbox\FAUSTO\SVILUPPI\MSX\CODE\C\MSXgl\projects\exsoccer/exsoccer_s2_b0.c:1332: if(g_Players[i].X > g_Ball.X) dist += (g_Players[i].X - g_Ball.X); else dist += (g_Ball.X - g_Players[i].X);
    00002906 DD 5E FF         [19] 7174 	ld	e, -1 (ix)
    00002909 16 00            [ 7] 7175 	ld	d, #0x00
    0000290B 6B               [ 4] 7176 	ld	l, e
    0000290C 62               [ 4] 7177 	ld	h, d
    0000290D 29               [11] 7178 	add	hl, hl
    0000290E 29               [11] 7179 	add	hl, hl
    0000290F 19               [11] 7180 	add	hl, de
    00002910 29               [11] 7181 	add	hl, hl
    00002911 29               [11] 7182 	add	hl, hl
    00002912 19               [11] 7183 	add	hl, de
    00002913 11r00r00         [10] 7184 	ld	de, #_g_Players
    00002916 19               [11] 7185 	add	hl, de
                                   7186 ;	spillPairReg hl
                                   7187 ;	spillPairReg hl
    00002917 DD 75 F9         [19] 7188 	ld	-7 (ix), l
    0000291A DD 74 FA         [19] 7189 	ld	-6 (ix), h
                                   7190 ;	spillPairReg hl
                                   7191 ;	spillPairReg hl
    0000291D 23               [ 6] 7192 	inc	hl
    0000291E 23               [ 6] 7193 	inc	hl
    0000291F 5E               [ 7] 7194 	ld	e, (hl)
    00002920 23               [ 6] 7195 	inc	hl
    00002921 56               [ 7] 7196 	ld	d, (hl)
                                   7197 ;E:\Dropbox\FAUSTO\SVILUPPI\MSX\CODE\C\MSXgl\projects\exsoccer/exsoccer_s2_b0.c:1309: if (g_Ball.X < FIELD_POS_X_CENTER) {
    00002922 2Ar02r00         [16] 7198 	ld	hl, (#(_g_Ball + 2) + 0)
                                   7199 ;E:\Dropbox\FAUSTO\SVILUPPI\MSX\CODE\C\MSXgl\projects\exsoccer/exsoccer_s2_b0.c:1332: if(g_Players[i].X > g_Ball.X) dist += (g_Players[i].X - g_Ball.X); else dist += (g_Ball.X - g_Players[i].X);
    00002925 7D               [ 4] 7200 	ld	a, l
    00002926 93               [ 4] 7201 	sub	a, e
    00002927 7C               [ 4] 7202 	ld	a, h
    00002928 9A               [ 4] 7203 	sbc	a, d
    00002929 30 0D            [12] 7204 	jr	NC, 00111$
    0000292B 7B               [ 4] 7205 	ld	a, e
    0000292C 95               [ 4] 7206 	sub	a, l
    0000292D DD 77 FB         [19] 7207 	ld	-5 (ix), a
    00002930 7A               [ 4] 7208 	ld	a, d
    00002931 9C               [ 4] 7209 	sbc	a, h
    00002932 DD 77 FC         [19] 7210 	ld	-4 (ix), a
    00002935 C3r42r29         [10] 7211 	jp	00112$
    00002938                       7212 00111$:
    00002938 7D               [ 4] 7213 	ld	a, l
    00002939 93               [ 4] 7214 	sub	a, e
    0000293A DD 77 FB         [19] 7215 	ld	-5 (ix), a
    0000293D 7C               [ 4] 7216 	ld	a, h
    0000293E 9A               [ 4] 7217 	sbc	a, d
    0000293F DD 77 FC         [19] 7218 	ld	-4 (ix), a
    00002942                       7219 00112$:
                                   7220 ;E:\Dropbox\FAUSTO\SVILUPPI\MSX\CODE\C\MSXgl\projects\exsoccer/exsoccer_s2_b0.c:1333: if(g_Players[i].Y > g_Ball.Y) dist += (g_Players[i].Y - g_Ball.Y); else dist += (g_Ball.Y - g_Players[i].Y);
    00002942 DD 6E F9         [19] 7221 	ld	l, -7 (ix)
    00002945 DD 66 FA         [19] 7222 	ld	h, -6 (ix)
    00002948 7E               [ 7] 7223 	ld	a, (hl)
    00002949 DD 77 FD         [19] 7224 	ld	-3 (ix), a
    0000294C 23               [ 6] 7225 	inc	hl
    0000294D 7E               [ 7] 7226 	ld	a, (hl)
    0000294E DD 77 FE         [19] 7227 	ld	-2 (ix), a
                                   7228 ;E:\Dropbox\FAUSTO\SVILUPPI\MSX\CODE\C\MSXgl\projects\exsoccer/exsoccer_s2_b0.c:1316: if (g_Ball.Y < FIELD_BOUND_Y_TOP) g_Ball.Y = FIELD_BOUND_Y_TOP;
    00002951 ED 5Br00r00      [20] 7229 	ld	de, (#_g_Ball + 0)
                                   7230 ;E:\Dropbox\FAUSTO\SVILUPPI\MSX\CODE\C\MSXgl\projects\exsoccer/exsoccer_s2_b0.c:1333: if(g_Players[i].Y > g_Ball.Y) dist += (g_Players[i].Y - g_Ball.Y); else dist += (g_Ball.Y - g_Players[i].Y);
    00002955 7B               [ 4] 7231 	ld	a, e
    00002956 DD 96 FD         [19] 7232 	sub	a, -3 (ix)
    00002959 7A               [ 4] 7233 	ld	a, d
    0000295A DD 9E FE         [19] 7234 	sbc	a, -2 (ix)
    0000295D 30 1A            [12] 7235 	jr	NC, 00114$
    0000295F DD 7E FD         [19] 7236 	ld	a, -3 (ix)
    00002962 93               [ 4] 7237 	sub	a, e
    00002963 5F               [ 4] 7238 	ld	e, a
    00002964 DD 7E FE         [19] 7239 	ld	a, -2 (ix)
    00002967 9A               [ 4] 7240 	sbc	a, d
    00002968 57               [ 4] 7241 	ld	d, a
    00002969 DD 6E FB         [19] 7242 	ld	l, -5 (ix)
    0000296C DD 66 FC         [19] 7243 	ld	h, -4 (ix)
    0000296F 19               [11] 7244 	add	hl, de
    00002970 DD 75 FD         [19] 7245 	ld	-3 (ix), l
    00002973 DD 74 FE         [19] 7246 	ld	-2 (ix), h
    00002976 C3r90r29         [10] 7247 	jp	00115$
    00002979                       7248 00114$:
    00002979 7B               [ 4] 7249 	ld	a, e
    0000297A DD 96 FD         [19] 7250 	sub	a, -3 (ix)
    0000297D 5F               [ 4] 7251 	ld	e, a
    0000297E 7A               [ 4] 7252 	ld	a, d
    0000297F DD 9E FE         [19] 7253 	sbc	a, -2 (ix)
    00002982 57               [ 4] 7254 	ld	d, a
    00002983 DD 6E FB         [19] 7255 	ld	l, -5 (ix)
    00002986 DD 66 FC         [19] 7256 	ld	h, -4 (ix)
    00002989 19               [11] 7257 	add	hl, de
    0000298A DD 75 FD         [19] 7258 	ld	-3 (ix), l
    0000298D DD 74 FE         [19] 7259 	ld	-2 (ix), h
    00002990                       7260 00115$:
                                   7261 ;E:\Dropbox\FAUSTO\SVILUPPI\MSX\CODE\C\MSXgl\projects\exsoccer/exsoccer_s2_b0.c:1336: if(g_Players[i].TeamId == g_RestartKickTeamId && g_Players[i].Role != PLAYER_ROLE_GOALKEEPER) {
    00002990 DD 5E F9         [19] 7262 	ld	e, -7 (ix)
    00002993 DD 56 FA         [19] 7263 	ld	d, -6 (ix)
    00002996 21 09 00         [10] 7264 	ld	hl, #9
    00002999 19               [11] 7265 	add	hl, de
    0000299A 5E               [ 7] 7266 	ld	e, (hl)
    0000299B 3Ar00r00         [13] 7267 	ld	a, (_g_RestartKickTeamId+0)
    0000299E 93               [ 4] 7268 	sub	a, e
    0000299F 20 24            [12] 7269 	jr	NZ, 00259$
    000029A1 DD 5E F9         [19] 7270 	ld	e, -7 (ix)
    000029A4 DD 56 FA         [19] 7271 	ld	d, -6 (ix)
    000029A7 21 0D 00         [10] 7272 	ld	hl, #13
    000029AA 19               [11] 7273 	add	hl, de
    000029AB 7E               [ 7] 7274 	ld	a, (hl)
    000029AC B7               [ 4] 7275 	or	a, a
    000029AD 28 16            [12] 7276 	jr	Z, 00259$
                                   7277 ;E:\Dropbox\FAUSTO\SVILUPPI\MSX\CODE\C\MSXgl\projects\exsoccer/exsoccer_s2_b0.c:1337: if(dist < minDist) { minDist = dist; bestId = i; }
    000029AF DD 7E FD         [19] 7278 	ld	a, -3 (ix)
    000029B2 91               [ 4] 7279 	sub	a, c
    000029B3 DD 7E FE         [19] 7280 	ld	a, -2 (ix)
    000029B6 98               [ 4] 7281 	sbc	a, b
    000029B7 30 0C            [12] 7282 	jr	NC, 00259$
    000029B9 DD 4E FD         [19] 7283 	ld	c, -3 (ix)
    000029BC DD 46 FE         [19] 7284 	ld	b, -2 (ix)
    000029BF DD 7E FF         [19] 7285 	ld	a, -1 (ix)
    000029C2 DD 77 F8         [19] 7286 	ld	-8 (ix), a
    000029C5                       7287 00259$:
                                   7288 ;E:\Dropbox\FAUSTO\SVILUPPI\MSX\CODE\C\MSXgl\projects\exsoccer/exsoccer_s2_b0.c:1329: for(u8 i=0; i<14; i++) {
    000029C5 DD 34 FF         [23] 7289 	inc	-1 (ix)
    000029C8 C3rFEr28         [10] 7290 	jp	00258$
    000029CB                       7291 00121$:
                                   7292 ;E:\Dropbox\FAUSTO\SVILUPPI\MSX\CODE\C\MSXgl\projects\exsoccer/exsoccer_s2_b0.c:1340: g_ThrowInPlayerId = bestId;
    000029CB DD 7E F8         [19] 7293 	ld	a, -8 (ix)
    000029CE 32r00r00         [13] 7294 	ld	(_g_ThrowInPlayerId+0), a
                                   7295 ;E:\Dropbox\FAUSTO\SVILUPPI\MSX\CODE\C\MSXgl\projects\exsoccer/exsoccer_s2_b0.c:1343: for(u8 i=0; i<14; i++) {
    000029D1 DD 36 FF 00      [19] 7296 	ld	-1 (ix), #0x00
    000029D5                       7297 00261$:
    000029D5 DD 7E FF         [19] 7298 	ld	a, -1 (ix)
    000029D8 D6 0E            [ 7] 7299 	sub	a, #0x0e
    000029DA D2rB4r2B         [10] 7300 	jp	NC, 00146$
                                   7301 ;E:\Dropbox\FAUSTO\SVILUPPI\MSX\CODE\C\MSXgl\projects\exsoccer/exsoccer_s2_b0.c:1344: if(i == g_ThrowInPlayerId || g_Players[i].Role == PLAYER_ROLE_GOALKEEPER || g_Players[i].TeamId == REFEREE) continue;
    000029DD 3Ar00r00         [13] 7302 	ld	a, (_g_ThrowInPlayerId+0)
    000029E0 DD 96 FF         [19] 7303 	sub	a, -1 (ix)
    000029E3 CArAEr2B         [10] 7304 	jp	Z,00145$
    000029E6 DD 4E FF         [19] 7305 	ld	c, -1 (ix)
    000029E9 06 00            [ 7] 7306 	ld	b, #0x00
    000029EB 69               [ 4] 7307 	ld	l, c
    000029EC 60               [ 4] 7308 	ld	h, b
    000029ED 29               [11] 7309 	add	hl, hl
    000029EE 29               [11] 7310 	add	hl, hl
    000029EF 09               [11] 7311 	add	hl, bc
    000029F0 29               [11] 7312 	add	hl, hl
    000029F1 29               [11] 7313 	add	hl, hl
    000029F2 09               [11] 7314 	add	hl, bc
    000029F3 EB               [ 4] 7315 	ex	de, hl
    000029F4 21r00r00         [10] 7316 	ld	hl, #_g_Players
    000029F7 19               [11] 7317 	add	hl, de
    000029F8 DD 75 FD         [19] 7318 	ld	-3 (ix), l
    000029FB DD 74 FE         [19] 7319 	ld	-2 (ix), h
    000029FE 01 0D 00         [10] 7320 	ld	bc,#13
    00002A01 09               [11] 7321 	add	hl,bc
    00002A02 7E               [ 7] 7322 	ld	a, (hl)
    00002A03 B7               [ 4] 7323 	or	a, a
    00002A04 CArAEr2B         [10] 7324 	jp	Z, 00145$
    00002A07 DD 4E FD         [19] 7325 	ld	c, -3 (ix)
    00002A0A DD 46 FE         [19] 7326 	ld	b, -2 (ix)
    00002A0D 21 09 00         [10] 7327 	ld	hl, #9
    00002A10 09               [11] 7328 	add	hl, bc
    00002A11 7E               [ 7] 7329 	ld	a, (hl)
    00002A12 DD 77 F6         [19] 7330 	ld	-10 (ix), a
    00002A15 D6 0E            [ 7] 7331 	sub	a, #0x0e
    00002A17 CArAEr2B         [10] 7332 	jp	Z,00145$
                                   7333 ;E:\Dropbox\FAUSTO\SVILUPPI\MSX\CODE\C\MSXgl\projects\exsoccer/exsoccer_s2_b0.c:1347: if(g_Players[i].X > g_Ball.X) dist += (g_Players[i].X - g_Ball.X); else dist += (g_Ball.X - g_Players[i].X);
    00002A1A DD 6E FD         [19] 7334 	ld	l, -3 (ix)
                                   7335 ;	spillPairReg hl
                                   7336 ;	spillPairReg hl
    00002A1D DD 66 FE         [19] 7337 	ld	h, -2 (ix)
                                   7338 ;	spillPairReg hl
                                   7339 ;	spillPairReg hl
    00002A20 23               [ 6] 7340 	inc	hl
    00002A21 23               [ 6] 7341 	inc	hl
    00002A22 7E               [ 7] 7342 	ld	a, (hl)
    00002A23 DD 77 F9         [19] 7343 	ld	-7 (ix), a
    00002A26 23               [ 6] 7344 	inc	hl
    00002A27 7E               [ 7] 7345 	ld	a, (hl)
    00002A28 DD 77 FA         [19] 7346 	ld	-6 (ix), a
                                   7347 ;E:\Dropbox\FAUSTO\SVILUPPI\MSX\CODE\C\MSXgl\projects\exsoccer/exsoccer_s2_b0.c:1309: if (g_Ball.X < FIELD_POS_X_CENTER) {
    00002A2B 21r02r00         [10] 7348 	ld	hl, #(_g_Ball + 2)
    00002A2E 7E               [ 7] 7349 	ld	a, (hl)
    00002A2F DD 77 FB         [19] 7350 	ld	-5 (ix), a
    00002A32 23               [ 6] 7351 	inc	hl
    00002A33 7E               [ 7] 7352 	ld	a, (hl)
    00002A34 DD 77 FC         [19] 7353 	ld	-4 (ix), a
                                   7354 ;E:\Dropbox\FAUSTO\SVILUPPI\MSX\CODE\C\MSXgl\projects\exsoccer/exsoccer_s2_b0.c:1347: if(g_Players[i].X > g_Ball.X) dist += (g_Players[i].X - g_Ball.X); else dist += (g_Ball.X - g_Players[i].X);
    00002A37 DD 7E FB         [19] 7355 	ld	a, -5 (ix)
    00002A3A DD 96 F9         [19] 7356 	sub	a, -7 (ix)
    00002A3D DD 7E FC         [19] 7357 	ld	a, -4 (ix)
    00002A40 DD 9E FA         [19] 7358 	sbc	a, -6 (ix)
    00002A43 30 15            [12] 7359 	jr	NC, 00127$
    00002A45 DD 7E F9         [19] 7360 	ld	a, -7 (ix)
    00002A48 DD 96 FB         [19] 7361 	sub	a, -5 (ix)
    00002A4B DD 77 F7         [19] 7362 	ld	-9 (ix), a
    00002A4E DD 7E FA         [19] 7363 	ld	a, -6 (ix)
    00002A51 DD 9E FC         [19] 7364 	sbc	a, -4 (ix)
    00002A54 DD 77 F8         [19] 7365 	ld	-8 (ix), a
    00002A57 C3r6Cr2A         [10] 7366 	jp	00128$
    00002A5A                       7367 00127$:
    00002A5A DD 7E FB         [19] 7368 	ld	a, -5 (ix)
    00002A5D DD 96 F9         [19] 7369 	sub	a, -7 (ix)
    00002A60 DD 77 F7         [19] 7370 	ld	-9 (ix), a
    00002A63 DD 7E FC         [19] 7371 	ld	a, -4 (ix)
    00002A66 DD 9E FA         [19] 7372 	sbc	a, -6 (ix)
    00002A69 DD 77 F8         [19] 7373 	ld	-8 (ix), a
    00002A6C                       7374 00128$:
                                   7375 ;E:\Dropbox\FAUSTO\SVILUPPI\MSX\CODE\C\MSXgl\projects\exsoccer/exsoccer_s2_b0.c:1348: if(g_Players[i].Y > g_Ball.Y) dist += (g_Players[i].Y - g_Ball.Y); else dist += (g_Ball.Y - g_Players[i].Y);
    00002A6C DD 6E FD         [19] 7376 	ld	l, -3 (ix)
    00002A6F DD 66 FE         [19] 7377 	ld	h, -2 (ix)
    00002A72 7E               [ 7] 7378 	ld	a, (hl)
    00002A73 DD 77 F9         [19] 7379 	ld	-7 (ix), a
    00002A76 23               [ 6] 7380 	inc	hl
    00002A77 7E               [ 7] 7381 	ld	a, (hl)
    00002A78 DD 77 FA         [19] 7382 	ld	-6 (ix), a
                                   7383 ;E:\Dropbox\FAUSTO\SVILUPPI\MSX\CODE\C\MSXgl\projects\exsoccer/exsoccer_s2_b0.c:1316: if (g_Ball.Y < FIELD_BOUND_Y_TOP) g_Ball.Y = FIELD_BOUND_Y_TOP;
    00002A7B 21r00r00         [10] 7384 	ld	hl, #_g_Ball
    00002A7E 7E               [ 7] 7385 	ld	a, (hl)
    00002A7F DD 77 FB         [19] 7386 	ld	-5 (ix), a
    00002A82 23               [ 6] 7387 	inc	hl
    00002A83 7E               [ 7] 7388 	ld	a, (hl)
    00002A84 DD 77 FC         [19] 7389 	ld	-4 (ix), a
                                   7390 ;E:\Dropbox\FAUSTO\SVILUPPI\MSX\CODE\C\MSXgl\projects\exsoccer/exsoccer_s2_b0.c:1348: if(g_Players[i].Y > g_Ball.Y) dist += (g_Players[i].Y - g_Ball.Y); else dist += (g_Ball.Y - g_Players[i].Y);
    00002A87 DD 7E FB         [19] 7391 	ld	a, -5 (ix)
    00002A8A DD 96 F9         [19] 7392 	sub	a, -7 (ix)
    00002A8D DD 7E FC         [19] 7393 	ld	a, -4 (ix)
    00002A90 DD 9E FA         [19] 7394 	sbc	a, -6 (ix)
    00002A93 30 33            [12] 7395 	jr	NC, 00130$
    00002A95 DD 7E F9         [19] 7396 	ld	a, -7 (ix)
    00002A98 DD 96 FB         [19] 7397 	sub	a, -5 (ix)
    00002A9B DD 77 FD         [19] 7398 	ld	-3 (ix), a
    00002A9E DD 7E FA         [19] 7399 	ld	a, -6 (ix)
    00002AA1 DD 9E FC         [19] 7400 	sbc	a, -4 (ix)
    00002AA4 DD 77 FE         [19] 7401 	ld	-2 (ix), a
    00002AA7 DD 7E FD         [19] 7402 	ld	a, -3 (ix)
    00002AAA DD 86 F7         [19] 7403 	add	a, -9 (ix)
    00002AAD DD 77 FB         [19] 7404 	ld	-5 (ix), a
    00002AB0 DD 7E FE         [19] 7405 	ld	a, -2 (ix)
    00002AB3 DD 8E F8         [19] 7406 	adc	a, -8 (ix)
    00002AB6 DD 77 FC         [19] 7407 	ld	-4 (ix), a
    00002AB9 DD 7E FB         [19] 7408 	ld	a, -5 (ix)
    00002ABC DD 77 FD         [19] 7409 	ld	-3 (ix), a
    00002ABF DD 7E FC         [19] 7410 	ld	a, -4 (ix)
    00002AC2 DD 77 FE         [19] 7411 	ld	-2 (ix), a
    00002AC5 C3rF8r2A         [10] 7412 	jp	00131$
    00002AC8                       7413 00130$:
    00002AC8 DD 7E FB         [19] 7414 	ld	a, -5 (ix)
    00002ACB DD 96 F9         [19] 7415 	sub	a, -7 (ix)
    00002ACE DD 77 FD         [19] 7416 	ld	-3 (ix), a
    00002AD1 DD 7E FC         [19] 7417 	ld	a, -4 (ix)
    00002AD4 DD 9E FA         [19] 7418 	sbc	a, -6 (ix)
    00002AD7 DD 77 FE         [19] 7419 	ld	-2 (ix), a
    00002ADA DD 7E F7         [19] 7420 	ld	a, -9 (ix)
    00002ADD DD 86 FD         [19] 7421 	add	a, -3 (ix)
    00002AE0 DD 77 FB         [19] 7422 	ld	-5 (ix), a
    00002AE3 DD 7E F8         [19] 7423 	ld	a, -8 (ix)
    00002AE6 DD 8E FE         [19] 7424 	adc	a, -2 (ix)
    00002AE9 DD 77 FC         [19] 7425 	ld	-4 (ix), a
    00002AEC DD 7E FB         [19] 7426 	ld	a, -5 (ix)
    00002AEF DD 77 FD         [19] 7427 	ld	-3 (ix), a
    00002AF2 DD 7E FC         [19] 7428 	ld	a, -4 (ix)
    00002AF5 DD 77 FE         [19] 7429 	ld	-2 (ix), a
    00002AF8                       7430 00131$:
                                   7431 ;E:\Dropbox\FAUSTO\SVILUPPI\MSX\CODE\C\MSXgl\projects\exsoccer/exsoccer_s2_b0.c:1350: if (g_Players[i].TeamId == g_RestartKickTeamId) {
    00002AF8 DD 7E F6         [19] 7432 	ld	a, -10 (ix)
    00002AFB 21r00r00         [10] 7433 	ld	hl, #_g_RestartKickTeamId
    00002AFE 96               [ 7] 7434 	sub	a, (hl)
    00002AFF 20 58            [12] 7435 	jr	NZ, 00143$
                                   7436 ;E:\Dropbox\FAUSTO\SVILUPPI\MSX\CODE\C\MSXgl\projects\exsoccer/exsoccer_s2_b0.c:1352: if (dist < dt1) { dt2=dt1; t2=t1; dt1=dist; t1=i; }
    00002B01 DD 7E FD         [19] 7437 	ld	a, -3 (ix)
    00002B04 DD 96 EC         [19] 7438 	sub	a, -20 (ix)
    00002B07 DD 7E FE         [19] 7439 	ld	a, -2 (ix)
    00002B0A DD 9E ED         [19] 7440 	sbc	a, -19 (ix)
    00002B0D 30 27            [12] 7441 	jr	NC, 00135$
    00002B0F DD 7E EC         [19] 7442 	ld	a, -20 (ix)
    00002B12 DD 77 EE         [19] 7443 	ld	-18 (ix), a
    00002B15 DD 7E ED         [19] 7444 	ld	a, -19 (ix)
    00002B18 DD 77 EF         [19] 7445 	ld	-17 (ix), a
    00002B1B DD 7E EA         [19] 7446 	ld	a, -22 (ix)
    00002B1E DD 77 EB         [19] 7447 	ld	-21 (ix), a
    00002B21 DD 7E FD         [19] 7448 	ld	a, -3 (ix)
    00002B24 DD 77 EC         [19] 7449 	ld	-20 (ix), a
    00002B27 DD 7E FE         [19] 7450 	ld	a, -2 (ix)
    00002B2A DD 77 ED         [19] 7451 	ld	-19 (ix), a
    00002B2D DD 7E FF         [19] 7452 	ld	a, -1 (ix)
    00002B30 DD 77 EA         [19] 7453 	ld	-22 (ix), a
    00002B33 C3rAEr2B         [10] 7454 	jp	00145$
    00002B36                       7455 00135$:
                                   7456 ;E:\Dropbox\FAUSTO\SVILUPPI\MSX\CODE\C\MSXgl\projects\exsoccer/exsoccer_s2_b0.c:1353: else if (dist < dt2) { dt2=dist; t2=i; }
    00002B36 DD 7E FD         [19] 7457 	ld	a, -3 (ix)
    00002B39 DD 96 EE         [19] 7458 	sub	a, -18 (ix)
    00002B3C DD 7E FE         [19] 7459 	ld	a, -2 (ix)
    00002B3F DD 9E EF         [19] 7460 	sbc	a, -17 (ix)
    00002B42 30 6A            [12] 7461 	jr	NC, 00145$
    00002B44 DD 7E FD         [19] 7462 	ld	a, -3 (ix)
    00002B47 DD 77 EE         [19] 7463 	ld	-18 (ix), a
    00002B4A DD 7E FE         [19] 7464 	ld	a, -2 (ix)
    00002B4D DD 77 EF         [19] 7465 	ld	-17 (ix), a
    00002B50 DD 7E FF         [19] 7466 	ld	a, -1 (ix)
    00002B53 DD 77 EB         [19] 7467 	ld	-21 (ix), a
    00002B56 C3rAEr2B         [10] 7468 	jp	00145$
    00002B59                       7469 00143$:
                                   7470 ;E:\Dropbox\FAUSTO\SVILUPPI\MSX\CODE\C\MSXgl\projects\exsoccer/exsoccer_s2_b0.c:1356: if (dist < do1) { do2=do1; o2=o1; do1=dist; o1=i; }
    00002B59 DD 7E FD         [19] 7471 	ld	a, -3 (ix)
    00002B5C DD 96 F2         [19] 7472 	sub	a, -14 (ix)
    00002B5F DD 7E FE         [19] 7473 	ld	a, -2 (ix)
    00002B62 DD 9E F3         [19] 7474 	sbc	a, -13 (ix)
    00002B65 30 27            [12] 7475 	jr	NC, 00140$
    00002B67 DD 7E F2         [19] 7476 	ld	a, -14 (ix)
    00002B6A DD 77 F4         [19] 7477 	ld	-12 (ix), a
    00002B6D DD 7E F3         [19] 7478 	ld	a, -13 (ix)
    00002B70 DD 77 F5         [19] 7479 	ld	-11 (ix), a
    00002B73 DD 7E F0         [19] 7480 	ld	a, -16 (ix)
    00002B76 DD 77 F1         [19] 7481 	ld	-15 (ix), a
    00002B79 DD 7E FD         [19] 7482 	ld	a, -3 (ix)
    00002B7C DD 77 F2         [19] 7483 	ld	-14 (ix), a
    00002B7F DD 7E FE         [19] 7484 	ld	a, -2 (ix)
    00002B82 DD 77 F3         [19] 7485 	ld	-13 (ix), a
    00002B85 DD 7E FF         [19] 7486 	ld	a, -1 (ix)
    00002B88 DD 77 F0         [19] 7487 	ld	-16 (ix), a
    00002B8B C3rAEr2B         [10] 7488 	jp	00145$
    00002B8E                       7489 00140$:
                                   7490 ;E:\Dropbox\FAUSTO\SVILUPPI\MSX\CODE\C\MSXgl\projects\exsoccer/exsoccer_s2_b0.c:1357: else if (dist < do2) { do2=dist; o2=i; }
    00002B8E DD 7E FD         [19] 7491 	ld	a, -3 (ix)
    00002B91 DD 96 F4         [19] 7492 	sub	a, -12 (ix)
    00002B94 DD 7E FE         [19] 7493 	ld	a, -2 (ix)
    00002B97 DD 9E F5         [19] 7494 	sbc	a, -11 (ix)
    00002B9A 30 12            [12] 7495 	jr	NC, 00145$
    00002B9C DD 7E FD         [19] 7496 	ld	a, -3 (ix)
    00002B9F DD 77 F4         [19] 7497 	ld	-12 (ix), a
    00002BA2 DD 7E FE         [19] 7498 	ld	a, -2 (ix)
    00002BA5 DD 77 F5         [19] 7499 	ld	-11 (ix), a
    00002BA8 DD 7E FF         [19] 7500 	ld	a, -1 (ix)
    00002BAB DD 77 F1         [19] 7501 	ld	-15 (ix), a
    00002BAE                       7502 00145$:
                                   7503 ;E:\Dropbox\FAUSTO\SVILUPPI\MSX\CODE\C\MSXgl\projects\exsoccer/exsoccer_s2_b0.c:1343: for(u8 i=0; i<14; i++) {
    00002BAE DD 34 FF         [23] 7504 	inc	-1 (ix)
    00002BB1 C3rD5r29         [10] 7505 	jp	00261$
    00002BB4                       7506 00146$:
                                   7507 ;E:\Dropbox\FAUSTO\SVILUPPI\MSX\CODE\C\MSXgl\projects\exsoccer/exsoccer_s2_b0.c:1362: if (g_ThrowInPlayerId != NO_VALUE) {
    00002BB4 3Ar00r00         [13] 7508 	ld	a, (_g_ThrowInPlayerId+0)
    00002BB7 3C               [ 4] 7509 	inc	a
    00002BB8 CAr02r2D         [10] 7510 	jp	Z,00151$
                                   7511 ;E:\Dropbox\FAUSTO\SVILUPPI\MSX\CODE\C\MSXgl\projects\exsoccer/exsoccer_s2_b0.c:1363: g_Players[g_ThrowInPlayerId].TargetX = g_Ball.X;
    00002BBB ED 4Br00r00      [20] 7512 	ld	bc, (_g_ThrowInPlayerId)
    00002BBF 06 00            [ 7] 7513 	ld	b, #0x00
    00002BC1 69               [ 4] 7514 	ld	l, c
    00002BC2 60               [ 4] 7515 	ld	h, b
    00002BC3 29               [11] 7516 	add	hl, hl
    00002BC4 29               [11] 7517 	add	hl, hl
    00002BC5 09               [11] 7518 	add	hl, bc
    00002BC6 29               [11] 7519 	add	hl, hl
    00002BC7 29               [11] 7520 	add	hl, hl
    00002BC8 09               [11] 7521 	add	hl, bc
    00002BC9 DD 75 FC         [19] 7522 	ld	-4 (ix), l
    00002BCC DD 74 FD         [19] 7523 	ld	-3 (ix), h
    00002BCF DD 7E FC         [19] 7524 	ld	a, -4 (ix)
    00002BD2 C6r00            [ 7] 7525 	add	a, #<(_g_Players)
    00002BD4 DD 77 FE         [19] 7526 	ld	-2 (ix), a
    00002BD7 DD 7E FD         [19] 7527 	ld	a, -3 (ix)
    00002BDA CEs00            [ 7] 7528 	adc	a, #>(_g_Players)
    00002BDC DD 77 FF         [19] 7529 	ld	-1 (ix), a
    00002BDF DD 7E FE         [19] 7530 	ld	a, -2 (ix)
    00002BE2 C6 10            [ 7] 7531 	add	a, #0x10
    00002BE4 DD 77 FC         [19] 7532 	ld	-4 (ix), a
    00002BE7 DD 7E FF         [19] 7533 	ld	a, -1 (ix)
    00002BEA CE 00            [ 7] 7534 	adc	a, #0x00
    00002BEC DD 77 FD         [19] 7535 	ld	-3 (ix), a
    00002BEF 21r02r00         [10] 7536 	ld	hl, #(_g_Ball + 2)
    00002BF2 7E               [ 7] 7537 	ld	a, (hl)
    00002BF3 DD 77 FE         [19] 7538 	ld	-2 (ix), a
    00002BF6 23               [ 6] 7539 	inc	hl
    00002BF7 7E               [ 7] 7540 	ld	a, (hl)
    00002BF8 DD 77 FF         [19] 7541 	ld	-1 (ix), a
    00002BFB DD 6E FC         [19] 7542 	ld	l, -4 (ix)
    00002BFE DD 66 FD         [19] 7543 	ld	h, -3 (ix)
    00002C01 DD 7E FE         [19] 7544 	ld	a, -2 (ix)
    00002C04 77               [ 7] 7545 	ld	(hl), a
    00002C05 23               [ 6] 7546 	inc	hl
    00002C06 DD 7E FF         [19] 7547 	ld	a, -1 (ix)
    00002C09 77               [ 7] 7548 	ld	(hl), a
                                   7549 ;E:\Dropbox\FAUSTO\SVILUPPI\MSX\CODE\C\MSXgl\projects\exsoccer/exsoccer_s2_b0.c:1364: g_Players[g_ThrowInPlayerId].TargetY = g_Ball.Y;
    00002C0A ED 4Br00r00      [20] 7550 	ld	bc, (_g_ThrowInPlayerId)
    00002C0E 06 00            [ 7] 7551 	ld	b, #0x00
    00002C10 69               [ 4] 7552 	ld	l, c
    00002C11 60               [ 4] 7553 	ld	h, b
    00002C12 29               [11] 7554 	add	hl, hl
    00002C13 29               [11] 7555 	add	hl, hl
    00002C14 09               [11] 7556 	add	hl, bc
    00002C15 29               [11] 7557 	add	hl, hl
    00002C16 29               [11] 7558 	add	hl, hl
    00002C17 09               [11] 7559 	add	hl, bc
    00002C18 DD 75 FC         [19] 7560 	ld	-4 (ix), l
    00002C1B DD 74 FD         [19] 7561 	ld	-3 (ix), h
    00002C1E 3Er00            [ 7] 7562 	ld	a, #<(_g_Players)
    00002C20 DD 86 FC         [19] 7563 	add	a, -4 (ix)
    00002C23 DD 77 FE         [19] 7564 	ld	-2 (ix), a
    00002C26 3Es00            [ 7] 7565 	ld	a, #>(_g_Players)
    00002C28 DD 8E FD         [19] 7566 	adc	a, -3 (ix)
    00002C2B DD 77 FF         [19] 7567 	ld	-1 (ix), a
    00002C2E DD 7E FE         [19] 7568 	ld	a, -2 (ix)
    00002C31 C6 0E            [ 7] 7569 	add	a, #0x0e
    00002C33 DD 77 FC         [19] 7570 	ld	-4 (ix), a
    00002C36 DD 7E FF         [19] 7571 	ld	a, -1 (ix)
    00002C39 CE 00            [ 7] 7572 	adc	a, #0x00
    00002C3B DD 77 FD         [19] 7573 	ld	-3 (ix), a
    00002C3E 21r00r00         [10] 7574 	ld	hl, #_g_Ball
    00002C41 7E               [ 7] 7575 	ld	a, (hl)
    00002C42 DD 77 FE         [19] 7576 	ld	-2 (ix), a
    00002C45 23               [ 6] 7577 	inc	hl
    00002C46 7E               [ 7] 7578 	ld	a, (hl)
    00002C47 DD 77 FF         [19] 7579 	ld	-1 (ix), a
    00002C4A DD 6E FC         [19] 7580 	ld	l, -4 (ix)
    00002C4D DD 66 FD         [19] 7581 	ld	h, -3 (ix)
    00002C50 DD 7E FE         [19] 7582 	ld	a, -2 (ix)
    00002C53 77               [ 7] 7583 	ld	(hl), a
    00002C54 23               [ 6] 7584 	inc	hl
    00002C55 DD 7E FF         [19] 7585 	ld	a, -1 (ix)
    00002C58 77               [ 7] 7586 	ld	(hl), a
                                   7587 ;E:\Dropbox\FAUSTO\SVILUPPI\MSX\CODE\C\MSXgl\projects\exsoccer/exsoccer_s2_b0.c:1365: g_Players[g_ThrowInPlayerId].Status = PLAYER_STATUS_NONE;
    00002C59 ED 4Br00r00      [20] 7588 	ld	bc, (_g_ThrowInPlayerId)
    00002C5D 06 00            [ 7] 7589 	ld	b, #0x00
    00002C5F 69               [ 4] 7590 	ld	l, c
    00002C60 60               [ 4] 7591 	ld	h, b
    00002C61 29               [11] 7592 	add	hl, hl
    00002C62 29               [11] 7593 	add	hl, hl
    00002C63 09               [11] 7594 	add	hl, bc
    00002C64 29               [11] 7595 	add	hl, hl
    00002C65 29               [11] 7596 	add	hl, hl
    00002C66 09               [11] 7597 	add	hl, bc
    00002C67 DD 75 FE         [19] 7598 	ld	-2 (ix), l
    00002C6A DD 74 FF         [19] 7599 	ld	-1 (ix), h
    00002C6D 3Er00            [ 7] 7600 	ld	a, #<(_g_Players)
    00002C6F DD 86 FE         [19] 7601 	add	a, -2 (ix)
    00002C72 DD 77 FC         [19] 7602 	ld	-4 (ix), a
    00002C75 3Es00            [ 7] 7603 	ld	a, #>(_g_Players)
    00002C77 DD 8E FF         [19] 7604 	adc	a, -1 (ix)
    00002C7A DD 77 FD         [19] 7605 	ld	-3 (ix), a
    00002C7D DD 7E FC         [19] 7606 	ld	a, -4 (ix)
    00002C80 C6 12            [ 7] 7607 	add	a, #0x12
    00002C82 DD 77 FE         [19] 7608 	ld	-2 (ix), a
    00002C85 DD 7E FD         [19] 7609 	ld	a, -3 (ix)
    00002C88 CE 00            [ 7] 7610 	adc	a, #0x00
    00002C8A DD 77 FF         [19] 7611 	ld	-1 (ix), a
    00002C8D DD 6E FE         [19] 7612 	ld	l, -2 (ix)
    00002C90 DD 66 FF         [19] 7613 	ld	h, -1 (ix)
    00002C93 AF               [ 4] 7614 	xor	a, a
    00002C94 77               [ 7] 7615 	ld	(hl), a
    00002C95 23               [ 6] 7616 	inc	hl
    00002C96 77               [ 7] 7617 	ld	(hl), a
                                   7618 ;E:\Dropbox\FAUSTO\SVILUPPI\MSX\CODE\C\MSXgl\projects\exsoccer/exsoccer_s2_b0.c:1366: if (g_Ball.X < FIELD_POS_X_CENTER) g_Players[g_ThrowInPlayerId].Direction = DIRECTION_RIGHT;
    00002C97 21r02r00         [10] 7619 	ld	hl, #(_g_Ball + 2)
    00002C9A 7E               [ 7] 7620 	ld	a, (hl)
    00002C9B DD 77 FE         [19] 7621 	ld	-2 (ix), a
    00002C9E 23               [ 6] 7622 	inc	hl
    00002C9F 7E               [ 7] 7623 	ld	a, (hl)
    00002CA0 DD 77 FF         [19] 7624 	ld	-1 (ix), a
    00002CA3 DD 7E FE         [19] 7625 	ld	a, -2 (ix)
    00002CA6 DD 77 FA         [19] 7626 	ld	-6 (ix), a
    00002CA9 DD 7E FF         [19] 7627 	ld	a, -1 (ix)
    00002CAC DD 77 FB         [19] 7628 	ld	-5 (ix), a
                                   7629 ;E:\Dropbox\FAUSTO\SVILUPPI\MSX\CODE\C\MSXgl\projects\exsoccer/exsoccer_s2_b0.c:1363: g_Players[g_ThrowInPlayerId].TargetX = g_Ball.X;
    00002CAF ED 4Br00r00      [20] 7630 	ld	bc, (_g_ThrowInPlayerId)
    00002CB3 06 00            [ 7] 7631 	ld	b, #0x00
    00002CB5 69               [ 4] 7632 	ld	l, c
    00002CB6 60               [ 4] 7633 	ld	h, b
    00002CB7 29               [11] 7634 	add	hl, hl
    00002CB8 29               [11] 7635 	add	hl, hl
    00002CB9 09               [11] 7636 	add	hl, bc
    00002CBA 29               [11] 7637 	add	hl, hl
    00002CBB 29               [11] 7638 	add	hl, hl
    00002CBC 09               [11] 7639 	add	hl, bc
    00002CBD DD 75 FE         [19] 7640 	ld	-2 (ix), l
    00002CC0 DD 74 FF         [19] 7641 	ld	-1 (ix), h
                                   7642 ;E:\Dropbox\FAUSTO\SVILUPPI\MSX\CODE\C\MSXgl\projects\exsoccer/exsoccer_s2_b0.c:1366: if (g_Ball.X < FIELD_POS_X_CENTER) g_Players[g_ThrowInPlayerId].Direction = DIRECTION_RIGHT;
    00002CC3 3Er00            [ 7] 7643 	ld	a, #<(_g_Players)
    00002CC5 DD 86 FE         [19] 7644 	add	a, -2 (ix)
    00002CC8 DD 77 FC         [19] 7645 	ld	-4 (ix), a
    00002CCB 3Es00            [ 7] 7646 	ld	a, #>(_g_Players)
    00002CCD DD 8E FF         [19] 7647 	adc	a, -1 (ix)
    00002CD0 DD 77 FD         [19] 7648 	ld	-3 (ix), a
    00002CD3 DD 7E FC         [19] 7649 	ld	a, -4 (ix)
    00002CD6 C6 0A            [ 7] 7650 	add	a, #0x0a
    00002CD8 DD 77 FE         [19] 7651 	ld	-2 (ix), a
    00002CDB DD 7E FD         [19] 7652 	ld	a, -3 (ix)
    00002CDE CE 00            [ 7] 7653 	adc	a, #0x00
    00002CE0 DD 77 FF         [19] 7654 	ld	-1 (ix), a
    00002CE3 DD 7E FA         [19] 7655 	ld	a, -6 (ix)
    00002CE6 D6 78            [ 7] 7656 	sub	a, #0x78
    00002CE8 DD 7E FB         [19] 7657 	ld	a, -5 (ix)
    00002CEB DE 00            [ 7] 7658 	sbc	a, #0x00
    00002CED 30 0B            [12] 7659 	jr	NC, 00148$
    00002CEF DD 6E FE         [19] 7660 	ld	l, -2 (ix)
    00002CF2 DD 66 FF         [19] 7661 	ld	h, -1 (ix)
    00002CF5 36 03            [10] 7662 	ld	(hl), #0x03
    00002CF7 C3r02r2D         [10] 7663 	jp	00151$
    00002CFA                       7664 00148$:
                                   7665 ;E:\Dropbox\FAUSTO\SVILUPPI\MSX\CODE\C\MSXgl\projects\exsoccer/exsoccer_s2_b0.c:1367: else g_Players[g_ThrowInPlayerId].Direction = DIRECTION_LEFT;
    00002CFA DD 6E FE         [19] 7666 	ld	l, -2 (ix)
    00002CFD DD 66 FF         [19] 7667 	ld	h, -1 (ix)
    00002D00 36 07            [10] 7668 	ld	(hl), #0x07
    00002D02                       7669 00151$:
                                   7670 ;E:\Dropbox\FAUSTO\SVILUPPI\MSX\CODE\C\MSXgl\projects\exsoccer/exsoccer_s2_b0.c:1372: bool isLeft = (g_Ball.X < FIELD_POS_X_CENTER);
    00002D02 2Ar02r00         [16] 7671 	ld	hl, (#(_g_Ball + 2) + 0)
    00002D05 11 78 00         [10] 7672 	ld	de, #0x0078
    00002D08 BF               [ 4] 7673 	cp	a, a
    00002D09 ED 52            [15] 7674 	sbc	hl, de
    00002D0B 3E 00            [ 7] 7675 	ld	a, #0x00
    00002D0D 17               [ 4] 7676 	rla
    00002D0E DD 77 FF         [19] 7677 	ld	-1 (ix), a
                                   7678 ;E:\Dropbox\FAUSTO\SVILUPPI\MSX\CODE\C\MSXgl\projects\exsoccer/exsoccer_s2_b0.c:1373: u8 crowdIds[4] = {t1, t2, o1, o2};
    00002D11 DD 7E EA         [19] 7679 	ld	a, -22 (ix)
    00002D14 DD 77 D6         [19] 7680 	ld	-42 (ix), a
    00002D17 DD 7E EB         [19] 7681 	ld	a, -21 (ix)
    00002D1A DD 77 D7         [19] 7682 	ld	-41 (ix), a
    00002D1D DD 7E F0         [19] 7683 	ld	a, -16 (ix)
    00002D20 DD 77 D8         [19] 7684 	ld	-40 (ix), a
    00002D23 DD 7E F1         [19] 7685 	ld	a, -15 (ix)
    00002D26 DD 77 D9         [19] 7686 	ld	-39 (ix), a
                                   7687 ;E:\Dropbox\FAUSTO\SVILUPPI\MSX\CODE\C\MSXgl\projects\exsoccer/exsoccer_s2_b0.c:1376: i16 yOffsets[4] = {-30, 20, -15, 35}; 
    00002D29 DD 36 DA E2      [19] 7688 	ld	-38 (ix), #0xe2
    00002D2D DD 36 DB FF      [19] 7689 	ld	-37 (ix), #0xff
    00002D31 DD 36 DC 14      [19] 7690 	ld	-36 (ix), #0x14
    00002D35 DD 36 DD 00      [19] 7691 	ld	-35 (ix), #0
    00002D39 DD 36 DE F1      [19] 7692 	ld	-34 (ix), #0xf1
    00002D3D DD 36 DF FF      [19] 7693 	ld	-33 (ix), #0xff
    00002D41 DD 36 E0 23      [19] 7694 	ld	-32 (ix), #0x23
    00002D45 DD 36 E1 00      [19] 7695 	ld	-31 (ix), #0
                                   7696 ;E:\Dropbox\FAUSTO\SVILUPPI\MSX\CODE\C\MSXgl\projects\exsoccer/exsoccer_s2_b0.c:1377: u16 xOffsets[4] = {15, 35, 25, 45}; 
    00002D49 DD 36 E2 0F      [19] 7697 	ld	-30 (ix), #0x0f
    00002D4D DD 36 E3 00      [19] 7698 	ld	-29 (ix), #0
    00002D51 DD 36 E4 23      [19] 7699 	ld	-28 (ix), #0x23
    00002D55 DD 36 E5 00      [19] 7700 	ld	-27 (ix), #0
    00002D59 DD 36 E6 19      [19] 7701 	ld	-26 (ix), #0x19
    00002D5D DD 36 E7 00      [19] 7702 	ld	-25 (ix), #0
    00002D61 DD 36 E8 2D      [19] 7703 	ld	-24 (ix), #0x2d
    00002D65 DD 36 E9 00      [19] 7704 	ld	-23 (ix), #0
                                   7705 ;E:\Dropbox\FAUSTO\SVILUPPI\MSX\CODE\C\MSXgl\projects\exsoccer/exsoccer_s2_b0.c:1379: for(u8 k=0; k<4; k++) {
    00002D69 DD 36 FE 00      [19] 7706 	ld	-2 (ix), #0x00
    00002D6D                       7707 00263$:
    00002D6D DD 7E FE         [19] 7708 	ld	a, -2 (ix)
    00002D70 D6 04            [ 7] 7709 	sub	a, #0x04
    00002D72 D2r43r2E         [10] 7710 	jp	NC, 00161$
                                   7711 ;E:\Dropbox\FAUSTO\SVILUPPI\MSX\CODE\C\MSXgl\projects\exsoccer/exsoccer_s2_b0.c:1380: u8 pid = crowdIds[k];
    00002D75 DD 5E FE         [19] 7712 	ld	e, -2 (ix)
    00002D78 16 00            [ 7] 7713 	ld	d, #0x00
    00002D7A 21 00 00         [10] 7714 	ld	hl, #0
    00002D7D 39               [11] 7715 	add	hl, sp
    00002D7E 19               [11] 7716 	add	hl, de
    00002D7F 7E               [ 7] 7717 	ld	a, (hl)
                                   7718 ;E:\Dropbox\FAUSTO\SVILUPPI\MSX\CODE\C\MSXgl\projects\exsoccer/exsoccer_s2_b0.c:1381: if(pid != NO_VALUE) {
    00002D80 DD 77 FD         [19] 7719 	ld	-3 (ix), a
    00002D83 3C               [ 4] 7720 	inc	a
    00002D84 CAr3Dr2E         [10] 7721 	jp	Z,00264$
                                   7722 ;E:\Dropbox\FAUSTO\SVILUPPI\MSX\CODE\C\MSXgl\projects\exsoccer/exsoccer_s2_b0.c:1382: g_Players[pid].Status = PLAYER_STATUS_NONE;
    00002D87 DD 4E FD         [19] 7723 	ld	c, -3 (ix)
    00002D8A 06 00            [ 7] 7724 	ld	b, #0x00
    00002D8C 69               [ 4] 7725 	ld	l, c
    00002D8D 60               [ 4] 7726 	ld	h, b
    00002D8E 29               [11] 7727 	add	hl, hl
    00002D8F 29               [11] 7728 	add	hl, hl
    00002D90 09               [11] 7729 	add	hl, bc
    00002D91 29               [11] 7730 	add	hl, hl
    00002D92 29               [11] 7731 	add	hl, hl
    00002D93 09               [11] 7732 	add	hl, bc
    00002D94 11r00r00         [10] 7733 	ld	de, #_g_Players
    00002D97 19               [11] 7734 	add	hl, de
    00002D98 4D               [ 4] 7735 	ld	c, l
    00002D99 44               [ 4] 7736 	ld	b, h
    00002D9A 21 12 00         [10] 7737 	ld	hl, #0x0012
    00002D9D 09               [11] 7738 	add	hl, bc
    00002D9E AF               [ 4] 7739 	xor	a, a
    00002D9F 77               [ 7] 7740 	ld	(hl), a
    00002DA0 23               [ 6] 7741 	inc	hl
    00002DA1 77               [ 7] 7742 	ld	(hl), a
                                   7743 ;E:\Dropbox\FAUSTO\SVILUPPI\MSX\CODE\C\MSXgl\projects\exsoccer/exsoccer_s2_b0.c:1385: i16 ty = (i16)g_Ball.Y + yOffsets[k];
    00002DA2 ED 5Br00r00      [20] 7744 	ld	de, (#_g_Ball + 0)
    00002DA6 DD 6E FE         [19] 7745 	ld	l, -2 (ix)
                                   7746 ;	spillPairReg hl
                                   7747 ;	spillPairReg hl
    00002DA9 26 00            [ 7] 7748 	ld	h, #0x00
                                   7749 ;	spillPairReg hl
                                   7750 ;	spillPairReg hl
    00002DAB 29               [11] 7751 	add	hl, hl
    00002DAC DD 75 FA         [19] 7752 	ld	-6 (ix), l
    00002DAF DD 74 FB         [19] 7753 	ld	-5 (ix), h
    00002DB2 D5               [11] 7754 	push	de
    00002DB3 DD 5E FA         [19] 7755 	ld	e, -6 (ix)
    00002DB6 DD 56 FB         [19] 7756 	ld	d, -5 (ix)
    00002DB9 21 06 00         [10] 7757 	ld	hl, #6
    00002DBC 39               [11] 7758 	add	hl, sp
    00002DBD 19               [11] 7759 	add	hl, de
    00002DBE D1               [10] 7760 	pop	de
    00002DBF 7E               [ 7] 7761 	ld	a, (hl)
    00002DC0 23               [ 6] 7762 	inc	hl
    00002DC1 66               [ 7] 7763 	ld	h, (hl)
                                   7764 ;	spillPairReg hl
    00002DC2 6F               [ 4] 7765 	ld	l, a
                                   7766 ;	spillPairReg hl
                                   7767 ;	spillPairReg hl
    00002DC3 19               [11] 7768 	add	hl, de
                                   7769 ;E:\Dropbox\FAUSTO\SVILUPPI\MSX\CODE\C\MSXgl\projects\exsoccer/exsoccer_s2_b0.c:1387: if(ty < FIELD_BOUND_Y_TOP) ty = FIELD_BOUND_Y_TOP;
                                   7770 ;	spillPairReg hl
                                   7771 ;	spillPairReg hl
    00002DC4 5D               [ 4] 7772 	ld	e, l
    00002DC5 54               [ 4] 7773 	ld	d, h
                                   7774 ;	spillPairReg hl
                                   7775 ;	spillPairReg hl
    00002DC6 7D               [ 4] 7776 	ld	a, l
    00002DC7 D6 32            [ 7] 7777 	sub	a, #0x32
    00002DC9 7C               [ 4] 7778 	ld	a, h
    00002DCA 17               [ 4] 7779 	rla
    00002DCB 3F               [ 4] 7780 	ccf
    00002DCC 1F               [ 4] 7781 	rra
    00002DCD DE 80            [ 7] 7782 	sbc	a, #0x80
    00002DCF 30 03            [12] 7783 	jr	NC, 00153$
    00002DD1 11 32 00         [10] 7784 	ld	de, #0x0032
    00002DD4                       7785 00153$:
                                   7786 ;E:\Dropbox\FAUSTO\SVILUPPI\MSX\CODE\C\MSXgl\projects\exsoccer/exsoccer_s2_b0.c:1388: if(ty > FIELD_BOUND_Y_BOTTOM) ty = FIELD_BOUND_Y_BOTTOM;
    00002DD4 6B               [ 4] 7787 	ld	l, e
                                   7788 ;	spillPairReg hl
                                   7789 ;	spillPairReg hl
    00002DD5 62               [ 4] 7790 	ld	h, d
                                   7791 ;	spillPairReg hl
                                   7792 ;	spillPairReg hl
    00002DD6 3E AE            [ 7] 7793 	ld	a, #0xae
    00002DD8 BD               [ 4] 7794 	cp	a, l
    00002DD9 3E 01            [ 7] 7795 	ld	a, #0x01
    00002DDB 9C               [ 4] 7796 	sbc	a, h
    00002DDC E2rE1r2D         [10] 7797 	jp	PO, 00723$
    00002DDF EE 80            [ 7] 7798 	xor	a, #0x80
    00002DE1                       7799 00723$:
    00002DE1 F2rE7r2D         [10] 7800 	jp	P, 00155$
    00002DE4 11 AE 01         [10] 7801 	ld	de, #0x01ae
    00002DE7                       7802 00155$:
                                   7803 ;E:\Dropbox\FAUSTO\SVILUPPI\MSX\CODE\C\MSXgl\projects\exsoccer/exsoccer_s2_b0.c:1389: g_Players[pid].TargetY = (u16)ty;
    00002DE7 21 0E 00         [10] 7804 	ld	hl, #0x000e
    00002DEA 09               [11] 7805 	add	hl, bc
    00002DEB 73               [ 7] 7806 	ld	(hl), e
    00002DEC 23               [ 6] 7807 	inc	hl
    00002DED 72               [ 7] 7808 	ld	(hl), d
                                   7809 ;E:\Dropbox\FAUSTO\SVILUPPI\MSX\CODE\C\MSXgl\projects\exsoccer/exsoccer_s2_b0.c:1309: if (g_Ball.X < FIELD_POS_X_CENTER) {
    00002DEE ED 5Br02r00      [20] 7810 	ld	de, (#(_g_Ball + 2) + 0)
                                   7811 ;E:\Dropbox\FAUSTO\SVILUPPI\MSX\CODE\C\MSXgl\projects\exsoccer/exsoccer_s2_b0.c:1393: g_Players[pid].TargetX = g_Ball.X + xOffsets[k];
    00002DF2 21 10 00         [10] 7812 	ld	hl, #0x0010
    00002DF5 09               [11] 7813 	add	hl, bc
    00002DF6 DD 75 FC         [19] 7814 	ld	-4 (ix), l
    00002DF9 DD 74 FD         [19] 7815 	ld	-3 (ix), h
    00002DFC D5               [11] 7816 	push	de
    00002DFD DD 5E FA         [19] 7817 	ld	e, -6 (ix)
    00002E00 DD 56 FB         [19] 7818 	ld	d, -5 (ix)
    00002E03 21 0E 00         [10] 7819 	ld	hl, #14
    00002E06 39               [11] 7820 	add	hl, sp
    00002E07 19               [11] 7821 	add	hl, de
    00002E08 D1               [10] 7822 	pop	de
                                   7823 ;E:\Dropbox\FAUSTO\SVILUPPI\MSX\CODE\C\MSXgl\projects\exsoccer/exsoccer_s2_b0.c:1394: g_Players[pid].Direction = DIRECTION_LEFT; // Look at thrower
    00002E09 79               [ 4] 7824 	ld	a, c
    00002E0A C6 0A            [ 7] 7825 	add	a, #0x0a
    00002E0C 4F               [ 4] 7826 	ld	c, a
    00002E0D 30 01            [12] 7827 	jr	NC, 00724$
    00002E0F 04               [ 4] 7828 	inc	b
    00002E10                       7829 00724$:
                                   7830 ;E:\Dropbox\FAUSTO\SVILUPPI\MSX\CODE\C\MSXgl\projects\exsoccer/exsoccer_s2_b0.c:1393: g_Players[pid].TargetX = g_Ball.X + xOffsets[k];
    00002E10 7E               [ 7] 7831 	ld	a, (hl)
    00002E11 23               [ 6] 7832 	inc	hl
    00002E12 66               [ 7] 7833 	ld	h, (hl)
                                   7834 ;	spillPairReg hl
    00002E13 6F               [ 4] 7835 	ld	l, a
                                   7836 ;	spillPairReg hl
                                   7837 ;	spillPairReg hl
                                   7838 ;E:\Dropbox\FAUSTO\SVILUPPI\MSX\CODE\C\MSXgl\projects\exsoccer/exsoccer_s2_b0.c:1392: if (isLeft) {
    00002E14 DD 7E FF         [19] 7839 	ld	a, -1 (ix)
    00002E17 B7               [ 4] 7840 	or	a, a
    00002E18 28 11            [12] 7841 	jr	Z, 00157$
                                   7842 ;E:\Dropbox\FAUSTO\SVILUPPI\MSX\CODE\C\MSXgl\projects\exsoccer/exsoccer_s2_b0.c:1393: g_Players[pid].TargetX = g_Ball.X + xOffsets[k];
    00002E1A 19               [11] 7843 	add	hl, de
    00002E1B EB               [ 4] 7844 	ex	de, hl
    00002E1C DD 6E FC         [19] 7845 	ld	l, -4 (ix)
    00002E1F DD 66 FD         [19] 7846 	ld	h, -3 (ix)
    00002E22 73               [ 7] 7847 	ld	(hl), e
    00002E23 23               [ 6] 7848 	inc	hl
    00002E24 72               [ 7] 7849 	ld	(hl), d
                                   7850 ;E:\Dropbox\FAUSTO\SVILUPPI\MSX\CODE\C\MSXgl\projects\exsoccer/exsoccer_s2_b0.c:1394: g_Players[pid].Direction = DIRECTION_LEFT; // Look at thrower
    00002E25 3E 07            [ 7] 7851 	ld	a, #0x07
    00002E27 02               [ 7] 7852 	ld	(bc), a
    00002E28 C3r3Dr2E         [10] 7853 	jp	00264$
    00002E2B                       7854 00157$:
                                   7855 ;E:\Dropbox\FAUSTO\SVILUPPI\MSX\CODE\C\MSXgl\projects\exsoccer/exsoccer_s2_b0.c:1396: g_Players[pid].TargetX = g_Ball.X - xOffsets[k];
    00002E2B 7B               [ 4] 7856 	ld	a, e
    00002E2C 95               [ 4] 7857 	sub	a, l
    00002E2D 5F               [ 4] 7858 	ld	e, a
    00002E2E 7A               [ 4] 7859 	ld	a, d
    00002E2F 9C               [ 4] 7860 	sbc	a, h
    00002E30 57               [ 4] 7861 	ld	d, a
    00002E31 DD 6E FC         [19] 7862 	ld	l, -4 (ix)
    00002E34 DD 66 FD         [19] 7863 	ld	h, -3 (ix)
    00002E37 73               [ 7] 7864 	ld	(hl), e
    00002E38 23               [ 6] 7865 	inc	hl
    00002E39 72               [ 7] 7866 	ld	(hl), d
                                   7867 ;E:\Dropbox\FAUSTO\SVILUPPI\MSX\CODE\C\MSXgl\projects\exsoccer/exsoccer_s2_b0.c:1397: g_Players[pid].Direction = DIRECTION_RIGHT; // Look at thrower
    00002E3A 3E 03            [ 7] 7868 	ld	a, #0x03
    00002E3C 02               [ 7] 7869 	ld	(bc), a
    00002E3D                       7870 00264$:
                                   7871 ;E:\Dropbox\FAUSTO\SVILUPPI\MSX\CODE\C\MSXgl\projects\exsoccer/exsoccer_s2_b0.c:1379: for(u8 k=0; k<4; k++) {
    00002E3D DD 34 FE         [23] 7872 	inc	-2 (ix)
    00002E40 C3r6Dr2D         [10] 7873 	jp	00263$
    00002E43                       7874 00161$:
                                   7875 ;E:\Dropbox\FAUSTO\SVILUPPI\MSX\CODE\C\MSXgl\projects\exsoccer/exsoccer_s2_b0.c:1413: if (g_ThrowInPlayerId != NO_VALUE) {
    00002E43 3Ar00r00         [13] 7876 	ld	a, (_g_ThrowInPlayerId+0)
    00002E46 3C               [ 4] 7877 	inc	a
    00002E47 28 44            [12] 7878 	jr	Z, 00163$
                                   7879 ;E:\Dropbox\FAUSTO\SVILUPPI\MSX\CODE\C\MSXgl\projects\exsoccer/exsoccer_s2_b0.c:1414: g_Players[g_ThrowInPlayerId].TargetX = g_Ball.X;
    00002E49 ED 4Br00r00      [20] 7880 	ld	bc, (_g_ThrowInPlayerId)
    00002E4D 06 00            [ 7] 7881 	ld	b, #0x00
    00002E4F 69               [ 4] 7882 	ld	l, c
    00002E50 60               [ 4] 7883 	ld	h, b
    00002E51 29               [11] 7884 	add	hl, hl
    00002E52 29               [11] 7885 	add	hl, hl
    00002E53 09               [11] 7886 	add	hl, bc
    00002E54 29               [11] 7887 	add	hl, hl
    00002E55 29               [11] 7888 	add	hl, hl
    00002E56 09               [11] 7889 	add	hl, bc
    00002E57 EB               [ 4] 7890 	ex	de, hl
    00002E58 21r00r00         [10] 7891 	ld	hl, #_g_Players
    00002E5B 19               [11] 7892 	add	hl, de
    00002E5C EB               [ 4] 7893 	ex	de, hl
    00002E5D 21 10 00         [10] 7894 	ld	hl, #0x0010
    00002E60 19               [11] 7895 	add	hl, de
    00002E61 EB               [ 4] 7896 	ex	de, hl
    00002E62 ED 4Br02r00      [20] 7897 	ld	bc, (#(_g_Ball + 2) + 0)
    00002E66 79               [ 4] 7898 	ld	a, c
    00002E67 12               [ 7] 7899 	ld	(de), a
    00002E68 13               [ 6] 7900 	inc	de
    00002E69 78               [ 4] 7901 	ld	a, b
    00002E6A 12               [ 7] 7902 	ld	(de), a
                                   7903 ;E:\Dropbox\FAUSTO\SVILUPPI\MSX\CODE\C\MSXgl\projects\exsoccer/exsoccer_s2_b0.c:1415: g_Players[g_ThrowInPlayerId].TargetY = g_Ball.Y;
    00002E6B ED 4Br00r00      [20] 7904 	ld	bc, (_g_ThrowInPlayerId)
    00002E6F 06 00            [ 7] 7905 	ld	b, #0x00
    00002E71 69               [ 4] 7906 	ld	l, c
    00002E72 60               [ 4] 7907 	ld	h, b
    00002E73 29               [11] 7908 	add	hl, hl
    00002E74 29               [11] 7909 	add	hl, hl
    00002E75 09               [11] 7910 	add	hl, bc
    00002E76 29               [11] 7911 	add	hl, hl
    00002E77 29               [11] 7912 	add	hl, hl
    00002E78 09               [11] 7913 	add	hl, bc
    00002E79 EB               [ 4] 7914 	ex	de, hl
    00002E7A 21r00r00         [10] 7915 	ld	hl, #_g_Players
    00002E7D 19               [11] 7916 	add	hl, de
    00002E7E EB               [ 4] 7917 	ex	de, hl
    00002E7F 21 0E 00         [10] 7918 	ld	hl, #0x000e
    00002E82 19               [11] 7919 	add	hl, de
    00002E83 EB               [ 4] 7920 	ex	de, hl
    00002E84 ED 4Br00r00      [20] 7921 	ld	bc, (#_g_Ball + 0)
    00002E88 79               [ 4] 7922 	ld	a, c
    00002E89 12               [ 7] 7923 	ld	(de), a
    00002E8A 13               [ 6] 7924 	inc	de
    00002E8B 78               [ 4] 7925 	ld	a, b
    00002E8C 12               [ 7] 7926 	ld	(de), a
    00002E8D                       7927 00163$:
                                   7928 ;E:\Dropbox\FAUSTO\SVILUPPI\MSX\CODE\C\MSXgl\projects\exsoccer/exsoccer_s2_b0.c:1316: if (g_Ball.Y < FIELD_BOUND_Y_TOP) g_Ball.Y = FIELD_BOUND_Y_TOP;
    00002E8D 2Ar00r00         [16] 7929 	ld	hl, (#_g_Ball + 0)
                                   7930 ;E:\Dropbox\FAUSTO\SVILUPPI\MSX\CODE\C\MSXgl\projects\exsoccer/exsoccer_s2_b0.c:1419: if (g_Ball.Y < 140) ShowFieldZone(FIELD_NORTH_ZONE);
    00002E90 7D               [ 4] 7931 	ld	a, l
    00002E91 D6 8C            [ 7] 7932 	sub	a, #0x8c
    00002E93 7C               [ 4] 7933 	ld	a, h
    00002E94 DE 00            [ 7] 7934 	sbc	a, #0x00
    00002E96 30 07            [12] 7935 	jr	NC, 00168$
    00002E98 AF               [ 4] 7936 	xor	a, a
    00002E99 CDr6Dr0E         [17] 7937 	call	_ShowFieldZone
    00002E9C C3rB4r2E         [10] 7938 	jp	00171$
    00002E9F                       7939 00168$:
                                   7940 ;E:\Dropbox\FAUSTO\SVILUPPI\MSX\CODE\C\MSXgl\projects\exsoccer/exsoccer_s2_b0.c:1420: else if (g_Ball.Y > 280) ShowFieldZone(FIELD_SOUTH_ZONE);
    00002E9F 3E 18            [ 7] 7941 	ld	a, #0x18
    00002EA1 BD               [ 4] 7942 	cp	a, l
    00002EA2 3E 01            [ 7] 7943 	ld	a, #0x01
    00002EA4 9C               [ 4] 7944 	sbc	a, h
    00002EA5 30 08            [12] 7945 	jr	NC, 00165$
    00002EA7 3E 02            [ 7] 7946 	ld	a, #0x02
    00002EA9 CDr6Dr0E         [17] 7947 	call	_ShowFieldZone
    00002EAC C3rB4r2E         [10] 7948 	jp	00171$
    00002EAF                       7949 00165$:
                                   7950 ;E:\Dropbox\FAUSTO\SVILUPPI\MSX\CODE\C\MSXgl\projects\exsoccer/exsoccer_s2_b0.c:1421: else ShowFieldZone(FIELD_CENTRAL_ZONE);
    00002EAF 3E 01            [ 7] 7951 	ld	a, #0x01
    00002EB1 CDr6Dr0E         [17] 7952 	call	_ShowFieldZone
    00002EB4                       7953 00171$:
                                   7954 ;E:\Dropbox\FAUSTO\SVILUPPI\MSX\CODE\C\MSXgl\projects\exsoccer/exsoccer_s2_b0.c:1425: if (g_ThrowInPlayerId != NO_VALUE) {
    00002EB4 3Ar00r00         [13] 7955 	ld	a, (_g_ThrowInPlayerId+0)
    00002EB7 3C               [ 4] 7956 	inc	a
    00002EB8 CArF6r34         [10] 7957 	jp	Z,00268$
                                   7958 ;E:\Dropbox\FAUSTO\SVILUPPI\MSX\CODE\C\MSXgl\projects\exsoccer/exsoccer_s2_b0.c:1426: i16 dx = (i16)g_Players[g_ThrowInPlayerId].X - (i16)g_Players[g_ThrowInPlayerId].TargetX;
    00002EBB ED 4Br00r00      [20] 7959 	ld	bc, (_g_ThrowInPlayerId)
    00002EBF 06 00            [ 7] 7960 	ld	b, #0x00
    00002EC1 69               [ 4] 7961 	ld	l, c
    00002EC2 60               [ 4] 7962 	ld	h, b
    00002EC3 29               [11] 7963 	add	hl, hl
    00002EC4 29               [11] 7964 	add	hl, hl
    00002EC5 09               [11] 7965 	add	hl, bc
    00002EC6 29               [11] 7966 	add	hl, hl
    00002EC7 29               [11] 7967 	add	hl, hl
    00002EC8 09               [11] 7968 	add	hl, bc
    00002EC9 EB               [ 4] 7969 	ex	de, hl
    00002ECA 21r00r00         [10] 7970 	ld	hl, #_g_Players
    00002ECD 19               [11] 7971 	add	hl, de
    00002ECE EB               [ 4] 7972 	ex	de, hl
    00002ECF 21 02 00         [10] 7973 	ld	hl, #0x0002
    00002ED2 19               [11] 7974 	add	hl, de
    00002ED3 DD 75 FA         [19] 7975 	ld	-6 (ix), l
    00002ED6 DD 74 FB         [19] 7976 	ld	-5 (ix), h
    00002ED9 4E               [ 7] 7977 	ld	c, (hl)
    00002EDA 23               [ 6] 7978 	inc	hl
    00002EDB 46               [ 7] 7979 	ld	b, (hl)
    00002EDC 6B               [ 4] 7980 	ld	l, e
                                   7981 ;	spillPairReg hl
                                   7982 ;	spillPairReg hl
    00002EDD 62               [ 4] 7983 	ld	h, d
                                   7984 ;	spillPairReg hl
                                   7985 ;	spillPairReg hl
    00002EDE C5               [11] 7986 	push	bc
    00002EDF 01 10 00         [10] 7987 	ld	bc, #0x0010
    00002EE2 09               [11] 7988 	add	hl, bc
    00002EE3 C1               [10] 7989 	pop	bc
    00002EE4 7E               [ 7] 7990 	ld	a, (hl)
    00002EE5 DD 77 FC         [19] 7991 	ld	-4 (ix), a
    00002EE8 23               [ 6] 7992 	inc	hl
    00002EE9 7E               [ 7] 7993 	ld	a, (hl)
    00002EEA DD 77 FD         [19] 7994 	ld	-3 (ix), a
    00002EED DD 6E FC         [19] 7995 	ld	l, -4 (ix)
                                   7996 ;	spillPairReg hl
                                   7997 ;	spillPairReg hl
    00002EF0 DD 66 FD         [19] 7998 	ld	h, -3 (ix)
                                   7999 ;	spillPairReg hl
                                   8000 ;	spillPairReg hl
    00002EF3 79               [ 4] 8001 	ld	a, c
    00002EF4 95               [ 4] 8002 	sub	a, l
    00002EF5 4F               [ 4] 8003 	ld	c, a
    00002EF6 78               [ 4] 8004 	ld	a, b
    00002EF7 9C               [ 4] 8005 	sbc	a, h
    00002EF8 47               [ 4] 8006 	ld	b, a
                                   8007 ;E:\Dropbox\FAUSTO\SVILUPPI\MSX\CODE\C\MSXgl\projects\exsoccer/exsoccer_s2_b0.c:1427: i16 dy = (i16)g_Players[g_ThrowInPlayerId].Y - (i16)g_Players[g_ThrowInPlayerId].TargetY;
    00002EF9 6B               [ 4] 8008 	ld	l, e
    00002EFA 62               [ 4] 8009 	ld	h, d
    00002EFB 23               [ 6] 8010 	inc	hl
    00002EFC 7E               [ 7] 8011 	ld	a, (hl)
    00002EFD 2B               [ 6] 8012 	dec	hl
    00002EFE 6E               [ 7] 8013 	ld	l, (hl)
                                   8014 ;	spillPairReg hl
    00002EFF DD 75 FE         [19] 8015 	ld	-2 (ix), l
    00002F02 DD 77 FF         [19] 8016 	ld	-1 (ix), a
    00002F05 21 0E 00         [10] 8017 	ld	hl, #14
    00002F08 19               [11] 8018 	add	hl, de
    00002F09 5E               [ 7] 8019 	ld	e, (hl)
    00002F0A 23               [ 6] 8020 	inc	hl
    00002F0B 56               [ 7] 8021 	ld	d, (hl)
    00002F0C DD 7E FE         [19] 8022 	ld	a, -2 (ix)
    00002F0F 93               [ 4] 8023 	sub	a, e
    00002F10 5F               [ 4] 8024 	ld	e, a
    00002F11 DD 7E FF         [19] 8025 	ld	a, -1 (ix)
    00002F14 9A               [ 4] 8026 	sbc	a, d
    00002F15 57               [ 4] 8027 	ld	d, a
                                   8028 ;E:\Dropbox\FAUSTO\SVILUPPI\MSX\CODE\C\MSXgl\projects\exsoccer/exsoccer_s2_b0.c:1429: if (dx >= -4 && dx <= 4 && dy >= -4 && dy <= 4) {
    00002F16 79               [ 4] 8029 	ld	a, c
    00002F17 D6 FC            [ 7] 8030 	sub	a, #0xfc
    00002F19 78               [ 4] 8031 	ld	a, b
    00002F1A 17               [ 4] 8032 	rla
    00002F1B 3F               [ 4] 8033 	ccf
    00002F1C 1F               [ 4] 8034 	rra
    00002F1D DE 7F            [ 7] 8035 	sbc	a, #0x7f
    00002F1F DArF1r34         [10] 8036 	jp	C, 00250$
    00002F22 3E 04            [ 7] 8037 	ld	a, #0x04
    00002F24 B9               [ 4] 8038 	cp	a, c
    00002F25 3E 00            [ 7] 8039 	ld	a, #0x00
    00002F27 98               [ 4] 8040 	sbc	a, b
    00002F28 E2r2Dr2F         [10] 8041 	jp	PO, 00727$
    00002F2B EE 80            [ 7] 8042 	xor	a, #0x80
    00002F2D                       8043 00727$:
    00002F2D FArF1r34         [10] 8044 	jp	M, 00250$
    00002F30 7B               [ 4] 8045 	ld	a, e
    00002F31 D6 FC            [ 7] 8046 	sub	a, #0xfc
    00002F33 7A               [ 4] 8047 	ld	a, d
    00002F34 17               [ 4] 8048 	rla
    00002F35 3F               [ 4] 8049 	ccf
    00002F36 1F               [ 4] 8050 	rra
    00002F37 DE 7F            [ 7] 8051 	sbc	a, #0x7f
    00002F39 DArF1r34         [10] 8052 	jp	C, 00250$
    00002F3C 3E 04            [ 7] 8053 	ld	a, #0x04
    00002F3E BB               [ 4] 8054 	cp	a, e
    00002F3F 3E 00            [ 7] 8055 	ld	a, #0x00
    00002F41 9A               [ 4] 8056 	sbc	a, d
    00002F42 E2r47r2F         [10] 8057 	jp	PO, 00728$
    00002F45 EE 80            [ 7] 8058 	xor	a, #0x80
    00002F47                       8059 00728$:
    00002F47 FArF1r34         [10] 8060 	jp	M, 00250$
                                   8061 ;E:\Dropbox\FAUSTO\SVILUPPI\MSX\CODE\C\MSXgl\projects\exsoccer/exsoccer_s2_b0.c:1430: g_Players[g_ThrowInPlayerId].X = g_Players[g_ThrowInPlayerId].TargetX;
    00002F4A DD 6E FA         [19] 8062 	ld	l, -6 (ix)
    00002F4D DD 66 FB         [19] 8063 	ld	h, -5 (ix)
    00002F50 DD 7E FC         [19] 8064 	ld	a, -4 (ix)
    00002F53 77               [ 7] 8065 	ld	(hl), a
    00002F54 23               [ 6] 8066 	inc	hl
    00002F55 DD 7E FD         [19] 8067 	ld	a, -3 (ix)
    00002F58 77               [ 7] 8068 	ld	(hl), a
                                   8069 ;E:\Dropbox\FAUSTO\SVILUPPI\MSX\CODE\C\MSXgl\projects\exsoccer/exsoccer_s2_b0.c:1431: g_Players[g_ThrowInPlayerId].Y = g_Players[g_ThrowInPlayerId].TargetY;
    00002F59 ED 4Br00r00      [20] 8070 	ld	bc, (_g_ThrowInPlayerId)
    00002F5D 06 00            [ 7] 8071 	ld	b, #0x00
    00002F5F 69               [ 4] 8072 	ld	l, c
    00002F60 60               [ 4] 8073 	ld	h, b
    00002F61 29               [11] 8074 	add	hl, hl
    00002F62 29               [11] 8075 	add	hl, hl
    00002F63 09               [11] 8076 	add	hl, bc
    00002F64 29               [11] 8077 	add	hl, hl
    00002F65 29               [11] 8078 	add	hl, hl
    00002F66 09               [11] 8079 	add	hl, bc
    00002F67 EB               [ 4] 8080 	ex	de, hl
    00002F68 21r00r00         [10] 8081 	ld	hl, #_g_Players
    00002F6B 19               [11] 8082 	add	hl, de
    00002F6C EB               [ 4] 8083 	ex	de, hl
    00002F6D 4B               [ 4] 8084 	ld	c, e
    00002F6E 42               [ 4] 8085 	ld	b, d
    00002F6F 21 0E 00         [10] 8086 	ld	hl, #14
    00002F72 09               [11] 8087 	add	hl, bc
    00002F73 4E               [ 7] 8088 	ld	c, (hl)
    00002F74 23               [ 6] 8089 	inc	hl
    00002F75 46               [ 7] 8090 	ld	b, (hl)
    00002F76 79               [ 4] 8091 	ld	a, c
    00002F77 12               [ 7] 8092 	ld	(de), a
    00002F78 13               [ 6] 8093 	inc	de
    00002F79 78               [ 4] 8094 	ld	a, b
    00002F7A 12               [ 7] 8095 	ld	(de), a
                                   8096 ;E:\Dropbox\FAUSTO\SVILUPPI\MSX\CODE\C\MSXgl\projects\exsoccer/exsoccer_s2_b0.c:1432: g_Players[g_ThrowInPlayerId].Status = PLAYER_STATUS_POSITIONED;
    00002F7B ED 4Br00r00      [20] 8097 	ld	bc, (_g_ThrowInPlayerId)
    00002F7F 06 00            [ 7] 8098 	ld	b, #0x00
    00002F81 69               [ 4] 8099 	ld	l, c
    00002F82 60               [ 4] 8100 	ld	h, b
    00002F83 29               [11] 8101 	add	hl, hl
    00002F84 29               [11] 8102 	add	hl, hl
    00002F85 09               [11] 8103 	add	hl, bc
    00002F86 29               [11] 8104 	add	hl, hl
    00002F87 29               [11] 8105 	add	hl, hl
    00002F88 09               [11] 8106 	add	hl, bc
    00002F89 11r00r00         [10] 8107 	ld	de, #_g_Players
    00002F8C 19               [11] 8108 	add	hl, de
    00002F8D 01 12 00         [10] 8109 	ld	bc, #0x0012
    00002F90 09               [11] 8110 	add	hl, bc
    00002F91 36 04            [10] 8111 	ld	(hl), #0x04
    00002F93 23               [ 6] 8112 	inc	hl
    00002F94 36 00            [10] 8113 	ld	(hl), #0x00
                                   8114 ;E:\Dropbox\FAUSTO\SVILUPPI\MSX\CODE\C\MSXgl\projects\exsoccer/exsoccer_s2_b0.c:1435: if(g_Ball.X < FIELD_POS_X_CENTER) {
    00002F96 ED 4Br02r00      [20] 8115 	ld	bc, (#(_g_Ball + 2) + 0)
                                   8116 ;E:\Dropbox\FAUSTO\SVILUPPI\MSX\CODE\C\MSXgl\projects\exsoccer/exsoccer_s2_b0.c:1363: g_Players[g_ThrowInPlayerId].TargetX = g_Ball.X;
    00002F9A ED 5Br00r00      [20] 8117 	ld	de, (_g_ThrowInPlayerId)
    00002F9E 16 00            [ 7] 8118 	ld	d, #0x00
    00002FA0 6B               [ 4] 8119 	ld	l, e
    00002FA1 62               [ 4] 8120 	ld	h, d
    00002FA2 29               [11] 8121 	add	hl, hl
    00002FA3 29               [11] 8122 	add	hl, hl
    00002FA4 19               [11] 8123 	add	hl, de
    00002FA5 29               [11] 8124 	add	hl, hl
    00002FA6 29               [11] 8125 	add	hl, hl
    00002FA7 19               [11] 8126 	add	hl, de
                                   8127 ;E:\Dropbox\FAUSTO\SVILUPPI\MSX\CODE\C\MSXgl\projects\exsoccer/exsoccer_s2_b0.c:1436: g_Players[g_ThrowInPlayerId].PatternId = PLAYER_POSE_THROWIN_LEFT_1;
    00002FA8 11r00r00         [10] 8128 	ld	de, #_g_Players
    00002FAB 19               [11] 8129 	add	hl, de
    00002FAC 11 08 00         [10] 8130 	ld	de, #0x0008
    00002FAF 19               [11] 8131 	add	hl, de
    00002FB0 DD 75 FE         [19] 8132 	ld	-2 (ix), l
    00002FB3 DD 74 FF         [19] 8133 	ld	-1 (ix), h
                                   8134 ;E:\Dropbox\FAUSTO\SVILUPPI\MSX\CODE\C\MSXgl\projects\exsoccer/exsoccer_s2_b0.c:1435: if(g_Ball.X < FIELD_POS_X_CENTER) {
    00002FB6 79               [ 4] 8135 	ld	a, c
    00002FB7 D6 78            [ 7] 8136 	sub	a, #0x78
    00002FB9 78               [ 4] 8137 	ld	a, b
    00002FBA DE 00            [ 7] 8138 	sbc	a, #0x00
    00002FBC 30 23            [12] 8139 	jr	NC, 00173$
                                   8140 ;E:\Dropbox\FAUSTO\SVILUPPI\MSX\CODE\C\MSXgl\projects\exsoccer/exsoccer_s2_b0.c:1436: g_Players[g_ThrowInPlayerId].PatternId = PLAYER_POSE_THROWIN_LEFT_1;
    00002FBE DD 6E FE         [19] 8141 	ld	l, -2 (ix)
    00002FC1 DD 66 FF         [19] 8142 	ld	h, -1 (ix)
    00002FC4 36 93            [10] 8143 	ld	(hl), #0x93
                                   8144 ;E:\Dropbox\FAUSTO\SVILUPPI\MSX\CODE\C\MSXgl\projects\exsoccer/exsoccer_s2_b0.c:1437: g_Players[g_ThrowInPlayerId].Direction = DIRECTION_RIGHT;
    00002FC6 ED 4Br00r00      [20] 8145 	ld	bc, (_g_ThrowInPlayerId)
    00002FCA 06 00            [ 7] 8146 	ld	b, #0x00
    00002FCC 69               [ 4] 8147 	ld	l, c
    00002FCD 60               [ 4] 8148 	ld	h, b
    00002FCE 29               [11] 8149 	add	hl, hl
    00002FCF 29               [11] 8150 	add	hl, hl
    00002FD0 09               [11] 8151 	add	hl, bc
    00002FD1 29               [11] 8152 	add	hl, hl
    00002FD2 29               [11] 8153 	add	hl, hl
    00002FD3 09               [11] 8154 	add	hl, bc
    00002FD4 11r00r00         [10] 8155 	ld	de, #_g_Players
    00002FD7 19               [11] 8156 	add	hl, de
    00002FD8 01 0A 00         [10] 8157 	ld	bc, #0x000a
    00002FDB 09               [11] 8158 	add	hl, bc
    00002FDC 36 03            [10] 8159 	ld	(hl), #0x03
    00002FDE C3r01r30         [10] 8160 	jp	00174$
    00002FE1                       8161 00173$:
                                   8162 ;E:\Dropbox\FAUSTO\SVILUPPI\MSX\CODE\C\MSXgl\projects\exsoccer/exsoccer_s2_b0.c:1439: g_Players[g_ThrowInPlayerId].PatternId = PLAYER_POSE_THROWIN_RIGHT_1;
    00002FE1 DD 6E FE         [19] 8163 	ld	l, -2 (ix)
    00002FE4 DD 66 FF         [19] 8164 	ld	h, -1 (ix)
    00002FE7 36 1C            [10] 8165 	ld	(hl), #0x1c
                                   8166 ;E:\Dropbox\FAUSTO\SVILUPPI\MSX\CODE\C\MSXgl\projects\exsoccer/exsoccer_s2_b0.c:1440: g_Players[g_ThrowInPlayerId].Direction = DIRECTION_LEFT;
    00002FE9 ED 4Br00r00      [20] 8167 	ld	bc, (_g_ThrowInPlayerId)
    00002FED 06 00            [ 7] 8168 	ld	b, #0x00
    00002FEF 69               [ 4] 8169 	ld	l, c
    00002FF0 60               [ 4] 8170 	ld	h, b
    00002FF1 29               [11] 8171 	add	hl, hl
    00002FF2 29               [11] 8172 	add	hl, hl
    00002FF3 09               [11] 8173 	add	hl, bc
    00002FF4 29               [11] 8174 	add	hl, hl
    00002FF5 29               [11] 8175 	add	hl, hl
    00002FF6 09               [11] 8176 	add	hl, bc
    00002FF7 11r00r00         [10] 8177 	ld	de, #_g_Players
    00002FFA 19               [11] 8178 	add	hl, de
    00002FFB 01 0A 00         [10] 8179 	ld	bc, #0x000a
    00002FFE 09               [11] 8180 	add	hl, bc
    00002FFF 36 07            [10] 8181 	ld	(hl), #0x07
    00003001                       8182 00174$:
                                   8183 ;E:\Dropbox\FAUSTO\SVILUPPI\MSX\CODE\C\MSXgl\projects\exsoccer/exsoccer_s2_b0.c:1444: g_Ball.X = g_Players[g_ThrowInPlayerId].X;
    00003001 ED 4Br00r00      [20] 8184 	ld	bc, (_g_ThrowInPlayerId)
    00003005 06 00            [ 7] 8185 	ld	b, #0x00
    00003007 69               [ 4] 8186 	ld	l, c
    00003008 60               [ 4] 8187 	ld	h, b
    00003009 29               [11] 8188 	add	hl, hl
    0000300A 29               [11] 8189 	add	hl, hl
    0000300B 09               [11] 8190 	add	hl, bc
    0000300C 29               [11] 8191 	add	hl, hl
    0000300D 29               [11] 8192 	add	hl, hl
    0000300E 09               [11] 8193 	add	hl, bc
    0000300F 11r00r00         [10] 8194 	ld	de, #_g_Players
    00003012 19               [11] 8195 	add	hl, de
    00003013 23               [ 6] 8196 	inc	hl
    00003014 23               [ 6] 8197 	inc	hl
    00003015 4E               [ 7] 8198 	ld	c, (hl)
    00003016 23               [ 6] 8199 	inc	hl
    00003017 46               [ 7] 8200 	ld	b, (hl)
    00003018 ED 43r02r00      [20] 8201 	ld	((_g_Ball + 2)), bc
                                   8202 ;E:\Dropbox\FAUSTO\SVILUPPI\MSX\CODE\C\MSXgl\projects\exsoccer/exsoccer_s2_b0.c:1446: if(g_Ball.X < FIELD_POS_X_CENTER) g_Ball.Y = g_Players[g_ThrowInPlayerId].Y - 14; 
                                   8203 ;E:\Dropbox\FAUSTO\SVILUPPI\MSX\CODE\C\MSXgl\projects\exsoccer/exsoccer_s2_b0.c:1363: g_Players[g_ThrowInPlayerId].TargetX = g_Ball.X;
    0000301C ED 5Br00r00      [20] 8204 	ld	de, (_g_ThrowInPlayerId)
    00003020 16 00            [ 7] 8205 	ld	d, #0x00
    00003022 6B               [ 4] 8206 	ld	l, e
    00003023 62               [ 4] 8207 	ld	h, d
    00003024 29               [11] 8208 	add	hl, hl
    00003025 29               [11] 8209 	add	hl, hl
    00003026 19               [11] 8210 	add	hl, de
    00003027 29               [11] 8211 	add	hl, hl
    00003028 29               [11] 8212 	add	hl, hl
    00003029 19               [11] 8213 	add	hl, de
                                   8214 ;E:\Dropbox\FAUSTO\SVILUPPI\MSX\CODE\C\MSXgl\projects\exsoccer/exsoccer_s2_b0.c:1436: g_Players[g_ThrowInPlayerId].PatternId = PLAYER_POSE_THROWIN_LEFT_1;
    0000302A 11r00r00         [10] 8215 	ld	de, #_g_Players
    0000302D 19               [11] 8216 	add	hl, de
                                   8217 ;E:\Dropbox\FAUSTO\SVILUPPI\MSX\CODE\C\MSXgl\projects\exsoccer/exsoccer_s2_b0.c:1446: if(g_Ball.X < FIELD_POS_X_CENTER) g_Ball.Y = g_Players[g_ThrowInPlayerId].Y - 14; 
    0000302E 7E               [ 7] 8218 	ld	a, (hl)
    0000302F 23               [ 6] 8219 	inc	hl
    00003030 5E               [ 7] 8220 	ld	e, (hl)
    00003031 DD 77 FE         [19] 8221 	ld	-2 (ix), a
    00003034 DD 73 FF         [19] 8222 	ld	-1 (ix), e
    00003037 79               [ 4] 8223 	ld	a, c
    00003038 D6 78            [ 7] 8224 	sub	a, #0x78
    0000303A 78               [ 4] 8225 	ld	a, b
    0000303B DE 00            [ 7] 8226 	sbc	a, #0x00
    0000303D 30 13            [12] 8227 	jr	NC, 00176$
    0000303F DD 7E FE         [19] 8228 	ld	a, -2 (ix)
    00003042 C6 F2            [ 7] 8229 	add	a, #0xf2
    00003044 4F               [ 4] 8230 	ld	c, a
    00003045 DD 7E FF         [19] 8231 	ld	a, -1 (ix)
    00003048 CE FF            [ 7] 8232 	adc	a, #0xff
    0000304A 47               [ 4] 8233 	ld	b, a
    0000304B ED 43r00r00      [20] 8234 	ld	(_g_Ball), bc
    0000304F C3r62r30         [10] 8235 	jp	00177$
    00003052                       8236 00176$:
                                   8237 ;E:\Dropbox\FAUSTO\SVILUPPI\MSX\CODE\C\MSXgl\projects\exsoccer/exsoccer_s2_b0.c:1447: else g_Ball.Y = g_Players[g_ThrowInPlayerId].Y - 12;
    00003052 DD 7E FE         [19] 8238 	ld	a, -2 (ix)
    00003055 C6 F4            [ 7] 8239 	add	a, #0xf4
    00003057 4F               [ 4] 8240 	ld	c, a
    00003058 DD 7E FF         [19] 8241 	ld	a, -1 (ix)
    0000305B CE FF            [ 7] 8242 	adc	a, #0xff
    0000305D 47               [ 4] 8243 	ld	b, a
    0000305E ED 43r00r00      [20] 8244 	ld	(_g_Ball), bc
    00003062                       8245 00177$:
                                   8246 ;E:\Dropbox\FAUSTO\SVILUPPI\MSX\CODE\C\MSXgl\projects\exsoccer/exsoccer_s2_b0.c:1449: g_Ball.Size = 1;
    00003062 21r04r00         [10] 8247 	ld	hl, #(_g_Ball + 4)
                                   8248 ;E:\Dropbox\FAUSTO\SVILUPPI\MSX\CODE\C\MSXgl\projects\exsoccer/exsoccer_s2_b0.c:1453: u8 crowdReady = 1;
    00003065 36 01            [10] 8249 	ld	(hl), #0x01
    00003067 4E               [ 7] 8250 	ld	c, (hl)
                                   8251 ;E:\Dropbox\FAUSTO\SVILUPPI\MSX\CODE\C\MSXgl\projects\exsoccer/exsoccer_s2_b0.c:1455: for(i=0; i<14; i++) {
    00003068 DD 36 FF 00      [19] 8252 	ld	-1 (ix), #0x00
    0000306C                       8253 00265$:
                                   8254 ;E:\Dropbox\FAUSTO\SVILUPPI\MSX\CODE\C\MSXgl\projects\exsoccer/exsoccer_s2_b0.c:1457: u16 tdx = (g_Players[i].TargetX > g_Ball.X) ? (g_Players[i].TargetX - g_Ball.X) : (g_Ball.X - g_Players[i].TargetX);
    0000306C DD 5E FF         [19] 8255 	ld	e, -1 (ix)
    0000306F 16 00            [ 7] 8256 	ld	d, #0x00
    00003071 6B               [ 4] 8257 	ld	l, e
    00003072 62               [ 4] 8258 	ld	h, d
    00003073 29               [11] 8259 	add	hl, hl
    00003074 29               [11] 8260 	add	hl, hl
    00003075 19               [11] 8261 	add	hl, de
    00003076 29               [11] 8262 	add	hl, hl
    00003077 29               [11] 8263 	add	hl, hl
    00003078 19               [11] 8264 	add	hl, de
    00003079 11r00r00         [10] 8265 	ld	de, #_g_Players
    0000307C 19               [11] 8266 	add	hl, de
    0000307D DD 75 F3         [19] 8267 	ld	-13 (ix), l
    00003080 DD 74 F4         [19] 8268 	ld	-12 (ix), h
    00003083 11 10 00         [10] 8269 	ld	de, #16
    00003086 19               [11] 8270 	add	hl, de
    00003087 7E               [ 7] 8271 	ld	a, (hl)
    00003088 DD 77 F5         [19] 8272 	ld	-11 (ix), a
    0000308B 23               [ 6] 8273 	inc	hl
    0000308C 7E               [ 7] 8274 	ld	a, (hl)
    0000308D DD 77 F6         [19] 8275 	ld	-10 (ix), a
                                   8276 ;E:\Dropbox\FAUSTO\SVILUPPI\MSX\CODE\C\MSXgl\projects\exsoccer/exsoccer_s2_b0.c:1435: if(g_Ball.X < FIELD_POS_X_CENTER) {
    00003090 2Ar02r00         [16] 8277 	ld	hl, (#(_g_Ball + 2) + 0)
                                   8278 ;E:\Dropbox\FAUSTO\SVILUPPI\MSX\CODE\C\MSXgl\projects\exsoccer/exsoccer_s2_b0.c:1457: u16 tdx = (g_Players[i].TargetX > g_Ball.X) ? (g_Players[i].TargetX - g_Ball.X) : (g_Ball.X - g_Players[i].TargetX);
    00003093 7D               [ 4] 8279 	ld	a, l
    00003094 DD 96 F5         [19] 8280 	sub	a, -11 (ix)
    00003097 7C               [ 4] 8281 	ld	a, h
    00003098 DD 9E F6         [19] 8282 	sbc	a, -10 (ix)
    0000309B 30 0C            [12] 8283 	jr	NC, 00270$
    0000309D DD 7E F5         [19] 8284 	ld	a, -11 (ix)
    000030A0 95               [ 4] 8285 	sub	a, l
    000030A1 47               [ 4] 8286 	ld	b, a
    000030A2 DD 7E F6         [19] 8287 	ld	a, -10 (ix)
    000030A5 9C               [ 4] 8288 	sbc	a, h
    000030A6 C3rB2r30         [10] 8289 	jp	00271$
    000030A9                       8290 00270$:
    000030A9 7D               [ 4] 8291 	ld	a, l
    000030AA DD 96 F5         [19] 8292 	sub	a, -11 (ix)
    000030AD 47               [ 4] 8293 	ld	b, a
    000030AE 7C               [ 4] 8294 	ld	a, h
    000030AF DD 9E F6         [19] 8295 	sbc	a, -10 (ix)
    000030B2                       8296 00271$:
    000030B2 DD 70 FB         [19] 8297 	ld	-5 (ix), b
    000030B5 DD 77 FC         [19] 8298 	ld	-4 (ix), a
                                   8299 ;E:\Dropbox\FAUSTO\SVILUPPI\MSX\CODE\C\MSXgl\projects\exsoccer/exsoccer_s2_b0.c:1458: u16 tdy = (g_Players[i].TargetY > g_Ball.Y) ? (g_Players[i].TargetY - g_Ball.Y) : (g_Ball.Y - g_Players[i].TargetY);
    000030B8 DD 7E F3         [19] 8300 	ld	a, -13 (ix)
    000030BB C6 0E            [ 7] 8301 	add	a, #0x0e
    000030BD DD 77 F7         [19] 8302 	ld	-9 (ix), a
    000030C0 DD 7E F4         [19] 8303 	ld	a, -12 (ix)
    000030C3 CE 00            [ 7] 8304 	adc	a, #0x00
    000030C5 DD 77 F8         [19] 8305 	ld	-8 (ix), a
                                   8306 ;E:\Dropbox\FAUSTO\SVILUPPI\MSX\CODE\C\MSXgl\projects\exsoccer/exsoccer_s2_b0.c:1465: i16 pdy = (i16)g_Players[i].Y - (i16)g_Players[i].TargetY;
    000030C8 DD 6E F7         [19] 8307 	ld	l, -9 (ix)
    000030CB DD 66 F8         [19] 8308 	ld	h, -8 (ix)
    000030CE 7E               [ 7] 8309 	ld	a, (hl)
    000030CF DD 77 FD         [19] 8310 	ld	-3 (ix), a
    000030D2 23               [ 6] 8311 	inc	hl
    000030D3 7E               [ 7] 8312 	ld	a, (hl)
    000030D4 DD 77 FE         [19] 8313 	ld	-2 (ix), a
                                   8314 ;E:\Dropbox\FAUSTO\SVILUPPI\MSX\CODE\C\MSXgl\projects\exsoccer/exsoccer_s2_b0.c:1458: u16 tdy = (g_Players[i].TargetY > g_Ball.Y) ? (g_Players[i].TargetY - g_Ball.Y) : (g_Ball.Y - g_Players[i].TargetY);
    000030D7 2Ar00r00         [16] 8315 	ld	hl, (#_g_Ball + 0)
    000030DA 7D               [ 4] 8316 	ld	a, l
    000030DB DD 96 FD         [19] 8317 	sub	a, -3 (ix)
    000030DE 7C               [ 4] 8318 	ld	a, h
    000030DF DD 9E FE         [19] 8319 	sbc	a, -2 (ix)
    000030E2 30 0C            [12] 8320 	jr	NC, 00272$
    000030E4 DD 7E FD         [19] 8321 	ld	a, -3 (ix)
    000030E7 95               [ 4] 8322 	sub	a, l
    000030E8 5F               [ 4] 8323 	ld	e, a
    000030E9 DD 7E FE         [19] 8324 	ld	a, -2 (ix)
    000030EC 9C               [ 4] 8325 	sbc	a, h
    000030ED C3rF9r30         [10] 8326 	jp	00273$
    000030F0                       8327 00272$:
    000030F0 7D               [ 4] 8328 	ld	a, l
    000030F1 DD 96 FD         [19] 8329 	sub	a, -3 (ix)
    000030F4 5F               [ 4] 8330 	ld	e, a
    000030F5 7C               [ 4] 8331 	ld	a, h
    000030F6 DD 9E FE         [19] 8332 	sbc	a, -2 (ix)
    000030F9                       8333 00273$:
    000030F9 57               [ 4] 8334 	ld	d, a
                                   8335 ;E:\Dropbox\FAUSTO\SVILUPPI\MSX\CODE\C\MSXgl\projects\exsoccer/exsoccer_s2_b0.c:1460: if (tdx < 100 && tdy < 100) {
                                   8336 ;	spillPairReg hl
                                   8337 ;	spillPairReg hl
    000030FA DD 7E FB         [19] 8338 	ld	a, -5 (ix)
    000030FD DD 6E FC         [19] 8339 	ld	l, -4 (ix)
    00003100 D6 64            [ 7] 8340 	sub	a, #0x64
    00003102 7D               [ 4] 8341 	ld	a, l
    00003103 DE 00            [ 7] 8342 	sbc	a, #0x00
    00003105 D2rCDr31         [10] 8343 	jp	NC, 00266$
    00003108 7B               [ 4] 8344 	ld	a, e
    00003109 D6 64            [ 7] 8345 	sub	a, #0x64
    0000310B 7A               [ 4] 8346 	ld	a, d
    0000310C DE 00            [ 7] 8347 	sbc	a, #0x00
    0000310E D2rCDr31         [10] 8348 	jp	NC, 00266$
                                   8349 ;E:\Dropbox\FAUSTO\SVILUPPI\MSX\CODE\C\MSXgl\projects\exsoccer/exsoccer_s2_b0.c:1462: if (g_Players[i].Status != PLAYER_STATUS_POSITIONED) {
    00003111 DD 7E F3         [19] 8350 	ld	a, -13 (ix)
    00003114 C6 12            [ 7] 8351 	add	a, #0x12
    00003116 DD 77 F9         [19] 8352 	ld	-7 (ix), a
    00003119 DD 7E F4         [19] 8353 	ld	a, -12 (ix)
    0000311C CE 00            [ 7] 8354 	adc	a, #0x00
    0000311E DD 77 FA         [19] 8355 	ld	-6 (ix), a
    00003121 DD 6E F9         [19] 8356 	ld	l, -7 (ix)
    00003124 DD 66 FA         [19] 8357 	ld	h, -6 (ix)
    00003127 5E               [ 7] 8358 	ld	e, (hl)
    00003128 23               [ 6] 8359 	inc	hl
    00003129 56               [ 7] 8360 	ld	d, (hl)
    0000312A 7B               [ 4] 8361 	ld	a, e
    0000312B D6 04            [ 7] 8362 	sub	a, #0x04
    0000312D B2               [ 4] 8363 	or	a, d
    0000312E CArCDr31         [10] 8364 	jp	Z,00266$
                                   8365 ;E:\Dropbox\FAUSTO\SVILUPPI\MSX\CODE\C\MSXgl\projects\exsoccer/exsoccer_s2_b0.c:1464: i16 pdx = (i16)g_Players[i].X - (i16)g_Players[i].TargetX;
    00003131 DD 7E F3         [19] 8366 	ld	a, -13 (ix)
    00003134 C6 02            [ 7] 8367 	add	a, #0x02
    00003136 DD 77 FB         [19] 8368 	ld	-5 (ix), a
    00003139 DD 7E F4         [19] 8369 	ld	a, -12 (ix)
    0000313C CE 00            [ 7] 8370 	adc	a, #0x00
    0000313E DD 77 FC         [19] 8371 	ld	-4 (ix), a
    00003141 DD 6E FB         [19] 8372 	ld	l, -5 (ix)
    00003144 DD 66 FC         [19] 8373 	ld	h, -4 (ix)
    00003147 5E               [ 7] 8374 	ld	e, (hl)
    00003148 23               [ 6] 8375 	inc	hl
    00003149 56               [ 7] 8376 	ld	d, (hl)
    0000314A EB               [ 4] 8377 	ex	de, hl
    0000314B DD 5E F5         [19] 8378 	ld	e, -11 (ix)
    0000314E DD 56 F6         [19] 8379 	ld	d, -10 (ix)
    00003151 BF               [ 4] 8380 	cp	a, a
    00003152 ED 52            [15] 8381 	sbc	hl, de
    00003154 EB               [ 4] 8382 	ex	de, hl
                                   8383 ;E:\Dropbox\FAUSTO\SVILUPPI\MSX\CODE\C\MSXgl\projects\exsoccer/exsoccer_s2_b0.c:1465: i16 pdy = (i16)g_Players[i].Y - (i16)g_Players[i].TargetY;
    00003155 DD 6E F3         [19] 8384 	ld	l, -13 (ix)
    00003158 DD 66 F4         [19] 8385 	ld	h, -12 (ix)
    0000315B 7E               [ 7] 8386 	ld	a, (hl)
    0000315C 23               [ 6] 8387 	inc	hl
    0000315D 66               [ 7] 8388 	ld	h, (hl)
                                   8389 ;	spillPairReg hl
                                   8390 ;	spillPairReg hl
                                   8391 ;	spillPairReg hl
    0000315E DD 96 FD         [19] 8392 	sub	a, -3 (ix)
    00003161 6F               [ 4] 8393 	ld	l, a
                                   8394 ;	spillPairReg hl
                                   8395 ;	spillPairReg hl
    00003162 7C               [ 4] 8396 	ld	a, h
    00003163 DD 9E FE         [19] 8397 	sbc	a, -2 (ix)
    00003166 67               [ 4] 8398 	ld	h, a
                                   8399 ;	spillPairReg hl
                                   8400 ;	spillPairReg hl
                                   8401 ;E:\Dropbox\FAUSTO\SVILUPPI\MSX\CODE\C\MSXgl\projects\exsoccer/exsoccer_s2_b0.c:1466: if (pdx >= -4 && pdx <= 4 && pdy >= -4 && pdy <= 4) {
    00003167 7B               [ 4] 8402 	ld	a, e
    00003168 D6 FC            [ 7] 8403 	sub	a, #0xfc
    0000316A 7A               [ 4] 8404 	ld	a, d
    0000316B 17               [ 4] 8405 	rla
    0000316C 3F               [ 4] 8406 	ccf
    0000316D 1F               [ 4] 8407 	rra
    0000316E DE 7F            [ 7] 8408 	sbc	a, #0x7f
    00003170 38 56            [12] 8409 	jr	C, 00179$
    00003172 3E 04            [ 7] 8410 	ld	a, #0x04
    00003174 BB               [ 4] 8411 	cp	a, e
    00003175 3E 00            [ 7] 8412 	ld	a, #0x00
    00003177 9A               [ 4] 8413 	sbc	a, d
    00003178 E2r7Dr31         [10] 8414 	jp	PO, 00730$
    0000317B EE 80            [ 7] 8415 	xor	a, #0x80
    0000317D                       8416 00730$:
    0000317D FArC8r31         [10] 8417 	jp	M, 00179$
    00003180 7D               [ 4] 8418 	ld	a, l
    00003181 D6 FC            [ 7] 8419 	sub	a, #0xfc
    00003183 7C               [ 4] 8420 	ld	a, h
    00003184 17               [ 4] 8421 	rla
    00003185 3F               [ 4] 8422 	ccf
    00003186 1F               [ 4] 8423 	rra
    00003187 DE 7F            [ 7] 8424 	sbc	a, #0x7f
    00003189 38 3D            [12] 8425 	jr	C, 00179$
    0000318B 3E 04            [ 7] 8426 	ld	a, #0x04
    0000318D BD               [ 4] 8427 	cp	a, l
    0000318E 3E 00            [ 7] 8428 	ld	a, #0x00
    00003190 9C               [ 4] 8429 	sbc	a, h
    00003191 E2r96r31         [10] 8430 	jp	PO, 00731$
    00003194 EE 80            [ 7] 8431 	xor	a, #0x80
    00003196                       8432 00731$:
    00003196 FArC8r31         [10] 8433 	jp	M, 00179$
                                   8434 ;E:\Dropbox\FAUSTO\SVILUPPI\MSX\CODE\C\MSXgl\projects\exsoccer/exsoccer_s2_b0.c:1467: g_Players[i].X = g_Players[i].TargetX;
    00003199 DD 6E FB         [19] 8435 	ld	l, -5 (ix)
    0000319C DD 66 FC         [19] 8436 	ld	h, -4 (ix)
    0000319F DD 7E F5         [19] 8437 	ld	a, -11 (ix)
    000031A2 77               [ 7] 8438 	ld	(hl), a
    000031A3 23               [ 6] 8439 	inc	hl
    000031A4 DD 7E F6         [19] 8440 	ld	a, -10 (ix)
    000031A7 77               [ 7] 8441 	ld	(hl), a
                                   8442 ;E:\Dropbox\FAUSTO\SVILUPPI\MSX\CODE\C\MSXgl\projects\exsoccer/exsoccer_s2_b0.c:1468: g_Players[i].Y = g_Players[i].TargetY;
    000031A8 DD 6E F7         [19] 8443 	ld	l, -9 (ix)
    000031AB DD 66 F8         [19] 8444 	ld	h, -8 (ix)
    000031AE 46               [ 7] 8445 	ld	b, (hl)
    000031AF 23               [ 6] 8446 	inc	hl
    000031B0 5E               [ 7] 8447 	ld	e, (hl)
    000031B1 DD 6E F3         [19] 8448 	ld	l, -13 (ix)
    000031B4 DD 66 F4         [19] 8449 	ld	h, -12 (ix)
    000031B7 70               [ 7] 8450 	ld	(hl), b
    000031B8 23               [ 6] 8451 	inc	hl
    000031B9 73               [ 7] 8452 	ld	(hl), e
                                   8453 ;E:\Dropbox\FAUSTO\SVILUPPI\MSX\CODE\C\MSXgl\projects\exsoccer/exsoccer_s2_b0.c:1469: g_Players[i].Status = PLAYER_STATUS_POSITIONED;
    000031BA DD 6E F9         [19] 8454 	ld	l, -7 (ix)
    000031BD DD 66 FA         [19] 8455 	ld	h, -6 (ix)
    000031C0 36 04            [10] 8456 	ld	(hl), #0x04
    000031C2 23               [ 6] 8457 	inc	hl
    000031C3 36 00            [10] 8458 	ld	(hl), #0x00
    000031C5 C3rCDr31         [10] 8459 	jp	00266$
    000031C8                       8460 00179$:
                                   8461 ;E:\Dropbox\FAUSTO\SVILUPPI\MSX\CODE\C\MSXgl\projects\exsoccer/exsoccer_s2_b0.c:1471: crowdReady = 0;
    000031C8 0E 00            [ 7] 8462 	ld	c, #0x00
                                   8463 ;E:\Dropbox\FAUSTO\SVILUPPI\MSX\CODE\C\MSXgl\projects\exsoccer/exsoccer_s2_b0.c:1472: break;
    000031CA C3rD8r31         [10] 8464 	jp	00189$
    000031CD                       8465 00266$:
                                   8466 ;E:\Dropbox\FAUSTO\SVILUPPI\MSX\CODE\C\MSXgl\projects\exsoccer/exsoccer_s2_b0.c:1455: for(i=0; i<14; i++) {
    000031CD DD 34 FF         [23] 8467 	inc	-1 (ix)
    000031D0 DD 7E FF         [19] 8468 	ld	a, -1 (ix)
    000031D3 D6 0E            [ 7] 8469 	sub	a, #0x0e
    000031D5 DAr6Cr30         [10] 8470 	jp	C, 00265$
    000031D8                       8471 00189$:
                                   8472 ;E:\Dropbox\FAUSTO\SVILUPPI\MSX\CODE\C\MSXgl\projects\exsoccer/exsoccer_s2_b0.c:1478: if (crowdReady) {
    000031D8 79               [ 4] 8473 	ld	a, c
    000031D9 B7               [ 4] 8474 	or	a, a
    000031DA 28 0A            [12] 8475 	jr	Z, 00191$
                                   8476 ;E:\Dropbox\FAUSTO\SVILUPPI\MSX\CODE\C\MSXgl\projects\exsoccer/exsoccer_s2_b0.c:1479: g_Timer++;
    000031DC FD 21r00r00      [14] 8477 	ld	iy, #_g_Timer
    000031E0 FD 34 00         [23] 8478 	inc	0 (iy)
    000031E3 C3rEBr31         [10] 8479 	jp	00192$
    000031E6                       8480 00191$:
                                   8481 ;E:\Dropbox\FAUSTO\SVILUPPI\MSX\CODE\C\MSXgl\projects\exsoccer/exsoccer_s2_b0.c:1481: g_Timer = 1; // Wait
    000031E6 3E 01            [ 7] 8482 	ld	a, #0x01
    000031E8 32r00r00         [13] 8483 	ld	(#_g_Timer), a
    000031EB                       8484 00192$:
                                   8485 ;E:\Dropbox\FAUSTO\SVILUPPI\MSX\CODE\C\MSXgl\projects\exsoccer/exsoccer_s2_b0.c:1485: if (g_Timer > 60) {
    000031EB 3E 3C            [ 7] 8486 	ld	a, #0x3c
    000031ED FD 21r00r00      [14] 8487 	ld	iy, #_g_Timer
    000031F1 FD 96 00         [19] 8488 	sub	a, 0 (iy)
    000031F4 D2rF6r34         [10] 8489 	jp	NC, 00268$
                                   8490 ;E:\Dropbox\FAUSTO\SVILUPPI\MSX\CODE\C\MSXgl\projects\exsoccer/exsoccer_s2_b0.c:1491: u8 t1=NO_VALUE, t2=NO_VALUE; u16 dt1=65535, dt2=65535;
    000031F7 DD 36 F1 FF      [19] 8491 	ld	-15 (ix), #0xff
    000031FB DD 36 F2 FF      [19] 8492 	ld	-14 (ix), #0xff
    000031FF DD 36 F3 FF      [19] 8493 	ld	-13 (ix), #0xff
    00003203 DD 36 F4 FF      [19] 8494 	ld	-12 (ix), #0xff
    00003207 DD 36 F5 FF      [19] 8495 	ld	-11 (ix), #0xff
    0000320B DD 36 F6 FF      [19] 8496 	ld	-10 (ix), #0xff
                                   8497 ;E:\Dropbox\FAUSTO\SVILUPPI\MSX\CODE\C\MSXgl\projects\exsoccer/exsoccer_s2_b0.c:1493: for(i=0; i<14; i++) {
    0000320F DD 36 FF 00      [19] 8498 	ld	-1 (ix), #0x00
    00003213                       8499 00267$:
                                   8500 ;E:\Dropbox\FAUSTO\SVILUPPI\MSX\CODE\C\MSXgl\projects\exsoccer/exsoccer_s2_b0.c:1494: if(i == g_ThrowInPlayerId || g_Players[i].Role == PLAYER_ROLE_GOALKEEPER || g_Players[i].TeamId == REFEREE) continue;
    00003213 3Ar00r00         [13] 8501 	ld	a, (_g_ThrowInPlayerId+0)
    00003216 DD 96 FF         [19] 8502 	sub	a, -1 (ix)
    00003219 CAr27r33         [10] 8503 	jp	Z,00206$
    0000321C DD 4E FF         [19] 8504 	ld	c, -1 (ix)
    0000321F 06 00            [ 7] 8505 	ld	b, #0x00
    00003221 69               [ 4] 8506 	ld	l, c
    00003222 60               [ 4] 8507 	ld	h, b
    00003223 29               [11] 8508 	add	hl, hl
    00003224 29               [11] 8509 	add	hl, hl
    00003225 09               [11] 8510 	add	hl, bc
    00003226 29               [11] 8511 	add	hl, hl
    00003227 29               [11] 8512 	add	hl, hl
    00003228 09               [11] 8513 	add	hl, bc
    00003229 EB               [ 4] 8514 	ex	de, hl
    0000322A 21r00r00         [10] 8515 	ld	hl, #_g_Players
    0000322D 19               [11] 8516 	add	hl, de
    0000322E DD 75 FD         [19] 8517 	ld	-3 (ix), l
    00003231 DD 74 FE         [19] 8518 	ld	-2 (ix), h
    00003234 4D               [ 4] 8519 	ld	c, l
    00003235 44               [ 4] 8520 	ld	b, h
    00003236 21 0D 00         [10] 8521 	ld	hl, #13
    00003239 09               [11] 8522 	add	hl, bc
    0000323A 7E               [ 7] 8523 	ld	a, (hl)
    0000323B B7               [ 4] 8524 	or	a, a
    0000323C CAr27r33         [10] 8525 	jp	Z, 00206$
    0000323F DD 4E FD         [19] 8526 	ld	c, -3 (ix)
    00003242 DD 46 FE         [19] 8527 	ld	b, -2 (ix)
    00003245 21 09 00         [10] 8528 	ld	hl, #9
    00003248 09               [11] 8529 	add	hl, bc
    00003249 4E               [ 7] 8530 	ld	c, (hl)
    0000324A 79               [ 4] 8531 	ld	a, c
    0000324B D6 0E            [ 7] 8532 	sub	a, #0x0e
    0000324D CAr27r33         [10] 8533 	jp	Z,00206$
                                   8534 ;E:\Dropbox\FAUSTO\SVILUPPI\MSX\CODE\C\MSXgl\projects\exsoccer/exsoccer_s2_b0.c:1496: if (g_Players[i].TeamId == g_RestartKickTeamId) {
    00003250 3Ar00r00         [13] 8535 	ld	a, (_g_RestartKickTeamId+0)
    00003253 91               [ 4] 8536 	sub	a, c
    00003254 C2r27r33         [10] 8537 	jp	NZ,00206$
                                   8538 ;E:\Dropbox\FAUSTO\SVILUPPI\MSX\CODE\C\MSXgl\projects\exsoccer/exsoccer_s2_b0.c:1497: u16 dx = (g_Players[i].X > g_Ball.X) ? (g_Players[i].X - g_Ball.X) : (g_Ball.X - g_Players[i].X);
    00003257 DD 6E FD         [19] 8539 	ld	l, -3 (ix)
                                   8540 ;	spillPairReg hl
                                   8541 ;	spillPairReg hl
    0000325A DD 66 FE         [19] 8542 	ld	h, -2 (ix)
                                   8543 ;	spillPairReg hl
                                   8544 ;	spillPairReg hl
    0000325D 23               [ 6] 8545 	inc	hl
    0000325E 23               [ 6] 8546 	inc	hl
    0000325F 4E               [ 7] 8547 	ld	c, (hl)
    00003260 23               [ 6] 8548 	inc	hl
    00003261 46               [ 7] 8549 	ld	b, (hl)
                                   8550 ;E:\Dropbox\FAUSTO\SVILUPPI\MSX\CODE\C\MSXgl\projects\exsoccer/exsoccer_s2_b0.c:1435: if(g_Ball.X < FIELD_POS_X_CENTER) {
    00003262 ED 5Br02r00      [20] 8551 	ld	de, (#(_g_Ball + 2) + 0)
                                   8552 ;E:\Dropbox\FAUSTO\SVILUPPI\MSX\CODE\C\MSXgl\projects\exsoccer/exsoccer_s2_b0.c:1497: u16 dx = (g_Players[i].X > g_Ball.X) ? (g_Players[i].X - g_Ball.X) : (g_Ball.X - g_Players[i].X);
    00003266 7B               [ 4] 8553 	ld	a, e
    00003267 91               [ 4] 8554 	sub	a, c
    00003268 7A               [ 4] 8555 	ld	a, d
    00003269 98               [ 4] 8556 	sbc	a, b
    0000326A 30 08            [12] 8557 	jr	NC, 00274$
    0000326C 79               [ 4] 8558 	ld	a, c
    0000326D 93               [ 4] 8559 	sub	a, e
    0000326E 4F               [ 4] 8560 	ld	c, a
    0000326F 78               [ 4] 8561 	ld	a, b
    00003270 9A               [ 4] 8562 	sbc	a, d
    00003271 C3r79r32         [10] 8563 	jp	00275$
    00003274                       8564 00274$:
    00003274 7B               [ 4] 8565 	ld	a, e
    00003275 91               [ 4] 8566 	sub	a, c
    00003276 4F               [ 4] 8567 	ld	c, a
    00003277 7A               [ 4] 8568 	ld	a, d
    00003278 98               [ 4] 8569 	sbc	a, b
    00003279                       8570 00275$:
    00003279 DD 71 F7         [19] 8571 	ld	-9 (ix), c
    0000327C DD 77 F8         [19] 8572 	ld	-8 (ix), a
                                   8573 ;E:\Dropbox\FAUSTO\SVILUPPI\MSX\CODE\C\MSXgl\projects\exsoccer/exsoccer_s2_b0.c:1498: u16 dy = (g_Players[i].Y > g_Ball.Y) ? (g_Players[i].Y - g_Ball.Y) : (g_Ball.Y - g_Players[i].Y);
    0000327F DD 6E FD         [19] 8574 	ld	l, -3 (ix)
    00003282 DD 66 FE         [19] 8575 	ld	h, -2 (ix)
    00003285 7E               [ 7] 8576 	ld	a, (hl)
    00003286 DD 77 F9         [19] 8577 	ld	-7 (ix), a
    00003289 23               [ 6] 8578 	inc	hl
    0000328A 7E               [ 7] 8579 	ld	a, (hl)
    0000328B DD 77 FA         [19] 8580 	ld	-6 (ix), a
                                   8581 ;E:\Dropbox\FAUSTO\SVILUPPI\MSX\CODE\C\MSXgl\projects\exsoccer/exsoccer_s2_b0.c:1458: u16 tdy = (g_Players[i].TargetY > g_Ball.Y) ? (g_Players[i].TargetY - g_Ball.Y) : (g_Ball.Y - g_Players[i].TargetY);
    0000328E 21r00r00         [10] 8582 	ld	hl, #_g_Ball
    00003291 7E               [ 7] 8583 	ld	a, (hl)
    00003292 DD 77 FB         [19] 8584 	ld	-5 (ix), a
    00003295 23               [ 6] 8585 	inc	hl
    00003296 7E               [ 7] 8586 	ld	a, (hl)
    00003297 DD 77 FC         [19] 8587 	ld	-4 (ix), a
                                   8588 ;E:\Dropbox\FAUSTO\SVILUPPI\MSX\CODE\C\MSXgl\projects\exsoccer/exsoccer_s2_b0.c:1498: u16 dy = (g_Players[i].Y > g_Ball.Y) ? (g_Players[i].Y - g_Ball.Y) : (g_Ball.Y - g_Players[i].Y);
    0000329A DD 7E FB         [19] 8589 	ld	a, -5 (ix)
    0000329D DD 96 F9         [19] 8590 	sub	a, -7 (ix)
    000032A0 DD 7E FC         [19] 8591 	ld	a, -4 (ix)
    000032A3 DD 9E FA         [19] 8592 	sbc	a, -6 (ix)
    000032A6 30 15            [12] 8593 	jr	NC, 00276$
    000032A8 DD 7E F9         [19] 8594 	ld	a, -7 (ix)
    000032AB DD 96 FB         [19] 8595 	sub	a, -5 (ix)
    000032AE DD 77 FD         [19] 8596 	ld	-3 (ix), a
    000032B1 DD 7E FA         [19] 8597 	ld	a, -6 (ix)
    000032B4 DD 9E FC         [19] 8598 	sbc	a, -4 (ix)
    000032B7 DD 77 FE         [19] 8599 	ld	-2 (ix), a
    000032BA C3rCFr32         [10] 8600 	jp	00277$
    000032BD                       8601 00276$:
    000032BD DD 7E FB         [19] 8602 	ld	a, -5 (ix)
    000032C0 DD 96 F9         [19] 8603 	sub	a, -7 (ix)
    000032C3 DD 77 FD         [19] 8604 	ld	-3 (ix), a
    000032C6 DD 7E FC         [19] 8605 	ld	a, -4 (ix)
    000032C9 DD 9E FA         [19] 8606 	sbc	a, -6 (ix)
    000032CC DD 77 FE         [19] 8607 	ld	-2 (ix), a
    000032CF                       8608 00277$:
    000032CF DD 4E FD         [19] 8609 	ld	c, -3 (ix)
    000032D2 DD 46 FE         [19] 8610 	ld	b, -2 (ix)
                                   8611 ;E:\Dropbox\FAUSTO\SVILUPPI\MSX\CODE\C\MSXgl\projects\exsoccer/exsoccer_s2_b0.c:1499: u16 d = dx+dy;
    000032D5 DD 6E F7         [19] 8612 	ld	l, -9 (ix)
    000032D8 DD 66 F8         [19] 8613 	ld	h, -8 (ix)
    000032DB 09               [11] 8614 	add	hl, bc
                                   8615 ;E:\Dropbox\FAUSTO\SVILUPPI\MSX\CODE\C\MSXgl\projects\exsoccer/exsoccer_s2_b0.c:1501: if (d < 200) { // Safety check
    000032DC 4D               [ 4] 8616 	ld	c, l
    000032DD 44               [ 4] 8617 	ld	b, h
    000032DE 79               [ 4] 8618 	ld	a, c
    000032DF D6 C8            [ 7] 8619 	sub	a, #0xc8
    000032E1 78               [ 4] 8620 	ld	a, b
    000032E2 DE 00            [ 7] 8621 	sbc	a, #0x00
    000032E4 30 41            [12] 8622 	jr	NC, 00206$
                                   8623 ;E:\Dropbox\FAUSTO\SVILUPPI\MSX\CODE\C\MSXgl\projects\exsoccer/exsoccer_s2_b0.c:1502: if (d < dt1) { dt2=dt1; t2=t1; dt1=d; t1=i; }
    000032E6 7D               [ 4] 8624 	ld	a, l
    000032E7 DD 96 F3         [19] 8625 	sub	a, -13 (ix)
    000032EA 7C               [ 4] 8626 	ld	a, h
    000032EB DD 9E F4         [19] 8627 	sbc	a, -12 (ix)
    000032EE 30 21            [12] 8628 	jr	NC, 00200$
    000032F0 DD 7E F3         [19] 8629 	ld	a, -13 (ix)
    000032F3 DD 77 F5         [19] 8630 	ld	-11 (ix), a
    000032F6 DD 7E F4         [19] 8631 	ld	a, -12 (ix)
    000032F9 DD 77 F6         [19] 8632 	ld	-10 (ix), a
    000032FC DD 7E F1         [19] 8633 	ld	a, -15 (ix)
    000032FF DD 77 F2         [19] 8634 	ld	-14 (ix), a
    00003302 DD 75 F3         [19] 8635 	ld	-13 (ix), l
    00003305 DD 74 F4         [19] 8636 	ld	-12 (ix), h
    00003308 DD 7E FF         [19] 8637 	ld	a, -1 (ix)
    0000330B DD 77 F1         [19] 8638 	ld	-15 (ix), a
    0000330E C3r27r33         [10] 8639 	jp	00206$
    00003311                       8640 00200$:
                                   8641 ;E:\Dropbox\FAUSTO\SVILUPPI\MSX\CODE\C\MSXgl\projects\exsoccer/exsoccer_s2_b0.c:1503: else if (d < dt2) { dt2=d; t2=i; }
    00003311 7D               [ 4] 8642 	ld	a, l
    00003312 DD 96 F5         [19] 8643 	sub	a, -11 (ix)
    00003315 7C               [ 4] 8644 	ld	a, h
    00003316 DD 9E F6         [19] 8645 	sbc	a, -10 (ix)
    00003319 30 0C            [12] 8646 	jr	NC, 00206$
    0000331B DD 75 F5         [19] 8647 	ld	-11 (ix), l
    0000331E DD 74 F6         [19] 8648 	ld	-10 (ix), h
    00003321 DD 7E FF         [19] 8649 	ld	a, -1 (ix)
    00003324 DD 77 F2         [19] 8650 	ld	-14 (ix), a
    00003327                       8651 00206$:
                                   8652 ;E:\Dropbox\FAUSTO\SVILUPPI\MSX\CODE\C\MSXgl\projects\exsoccer/exsoccer_s2_b0.c:1493: for(i=0; i<14; i++) {
    00003327 DD 34 FF         [23] 8653 	inc	-1 (ix)
    0000332A DD 7E FF         [19] 8654 	ld	a, -1 (ix)
    0000332D D6 0E            [ 7] 8655 	sub	a, #0x0e
    0000332F DAr13r32         [10] 8656 	jp	C, 00267$
                                   8657 ;E:\Dropbox\FAUSTO\SVILUPPI\MSX\CODE\C\MSXgl\projects\exsoccer/exsoccer_s2_b0.c:1507: c1 = t1; c2 = t2;
    00003332 DD 7E F1         [19] 8658 	ld	a, -15 (ix)
    00003335 DD 77 FE         [19] 8659 	ld	-2 (ix), a
    00003338 DD 7E F2         [19] 8660 	ld	a, -14 (ix)
    0000333B DD 77 FF         [19] 8661 	ld	-1 (ix), a
                                   8662 ;E:\Dropbox\FAUSTO\SVILUPPI\MSX\CODE\C\MSXgl\projects\exsoccer/exsoccer_s2_b0.c:1511: if (s_ThrowTargetId == NO_VALUE && c1 != NO_VALUE) s_ThrowTargetId = c1;
    0000333E 3Ar14r00         [13] 8663 	ld	a, (_TickThrowIn_s_ThrowTargetId_65537_1410+0)
    00003341 3C               [ 4] 8664 	inc	a
    00003342 20 0C            [12] 8665 	jr	NZ, 00209$
    00003344 DD 7E F1         [19] 8666 	ld	a, -15 (ix)
    00003347 3C               [ 4] 8667 	inc	a
    00003348 28 06            [12] 8668 	jr	Z, 00209$
    0000334A DD 7E F1         [19] 8669 	ld	a, -15 (ix)
    0000334D 32r14r00         [13] 8670 	ld	(_TickThrowIn_s_ThrowTargetId_65537_1410+0), a
    00003350                       8671 00209$:
                                   8672 ;E:\Dropbox\FAUSTO\SVILUPPI\MSX\CODE\C\MSXgl\projects\exsoccer/exsoccer_s2_b0.c:1513: if (s_ThrowTargetId == NO_VALUE) {
    00003350 3Ar14r00         [13] 8673 	ld	a, (_TickThrowIn_s_ThrowTargetId_65537_1410+0)
    00003353 3C               [ 4] 8674 	inc	a
    00003354 20 0D            [12] 8675 	jr	NZ, 00212$
                                   8676 ;E:\Dropbox\FAUSTO\SVILUPPI\MSX\CODE\C\MSXgl\projects\exsoccer/exsoccer_s2_b0.c:1514: s_ThrowTargetId = GetClosestPlayerToBall(g_RestartKickTeamId, g_ThrowInPlayerId);
    00003356 3Ar00r00         [13] 8677 	ld	a, (_g_ThrowInPlayerId+0)
    00003359 6F               [ 4] 8678 	ld	l, a
                                   8679 ;	spillPairReg hl
                                   8680 ;	spillPairReg hl
    0000335A 3Ar00r00         [13] 8681 	ld	a, (_g_RestartKickTeamId+0)
    0000335D CDr1Fr10         [17] 8682 	call	_GetClosestPlayerToBall
    00003360 32r14r00         [13] 8683 	ld	(_TickThrowIn_s_ThrowTargetId_65537_1410+0), a
    00003363                       8684 00212$:
                                   8685 ;E:\Dropbox\FAUSTO\SVILUPPI\MSX\CODE\C\MSXgl\projects\exsoccer/exsoccer_s2_b0.c:1518: bool isHuman = (g_RestartKickTeamId == TEAM_1);
    00003363 3Ar00r00         [13] 8686 	ld	a, (_g_RestartKickTeamId+0)
    00003366 3D               [ 4] 8687 	dec	a
    00003367 3E 01            [ 7] 8688 	ld	a, #0x01
    00003369 28 01            [12] 8689 	jr	Z, 00742$
    0000336B AF               [ 4] 8690 	xor	a, a
    0000336C                       8691 00742$:
    0000336C 5F               [ 4] 8692 	ld	e, a
    0000336D 4B               [ 4] 8693 	ld	c, e
                                   8694 ;E:\Dropbox\FAUSTO\SVILUPPI\MSX\CODE\C\MSXgl\projects\exsoccer/exsoccer_s2_b0.c:1519: if (g_GameWith2Players) isHuman = true; 
    0000336E 3Ar00r00         [13] 8695 	ld	a, (_g_GameWith2Players+0)
    00003371 B7               [ 4] 8696 	or	a, a
    00003372 28 02            [12] 8697 	jr	Z, 00214$
    00003374 0E 01            [ 7] 8698 	ld	c, #0x01
    00003376                       8699 00214$:
                                   8700 ;E:\Dropbox\FAUSTO\SVILUPPI\MSX\CODE\C\MSXgl\projects\exsoccer/exsoccer_s2_b0.c:1520: if (g_RestartKickTeamId == TEAM_2 && !g_GameWith2Players) isHuman = false;
    00003376 3Ar00r00         [13] 8701 	ld	a, (_g_RestartKickTeamId+0)
    00003379 D6 02            [ 7] 8702 	sub	a, #0x02
    0000337B 20 07            [12] 8703 	jr	NZ, 00216$
    0000337D 3Ar00r00         [13] 8704 	ld	a, (_g_GameWith2Players+0)
    00003380 B7               [ 4] 8705 	or	a,a
    00003381 20 01            [12] 8706 	jr	NZ, 00216$
    00003383 4F               [ 4] 8707 	ld	c,a
    00003384                       8708 00216$:
                                   8709 ;E:\Dropbox\FAUSTO\SVILUPPI\MSX\CODE\C\MSXgl\projects\exsoccer/exsoccer_s2_b0.c:1522: if (isHuman) {
    00003384 79               [ 4] 8710 	ld	a, c
    00003385 B7               [ 4] 8711 	or	a, a
    00003386 CAr61r34         [10] 8712 	jp	Z, 00245$
                                   8713 ;E:\Dropbox\FAUSTO\SVILUPPI\MSX\CODE\C\MSXgl\projects\exsoccer/exsoccer_s2_b0.c:1524: u8 joy = (g_RestartKickTeamId == TEAM_1) ? GetJoystick1Direction() : GetJoystick2Direction();
    00003389 7B               [ 4] 8714 	ld	a, e
    0000338A B7               [ 4] 8715 	or	a, a
    0000338B 28 06            [12] 8716 	jr	Z, 00278$
    0000338D CDr68r0D         [17] 8717 	call	_GetJoystick1Direction
    00003390 C3r96r33         [10] 8718 	jp	00279$
    00003393                       8719 00278$:
    00003393 CDr68r0E         [17] 8720 	call	_GetJoystick2Direction
    00003396                       8721 00279$:
    00003396 57               [ 4] 8722 	ld	d, a
                                   8723 ;E:\Dropbox\FAUSTO\SVILUPPI\MSX\CODE\C\MSXgl\projects\exsoccer/exsoccer_s2_b0.c:1525: bool trig = IsTeamJoystickTriggerPressed(g_RestartKickTeamId);
    00003397 D5               [11] 8724 	push	de
    00003398 3Ar00r00         [13] 8725 	ld	a, (_g_RestartKickTeamId+0)
    0000339B CDr41r0D         [17] 8726 	call	_IsTeamJoystickTriggerPressed
    0000339E D1               [10] 8727 	pop	de
    0000339F DD 77 FD         [19] 8728 	ld	-3 (ix), a
                                   8729 ;E:\Dropbox\FAUSTO\SVILUPPI\MSX\CODE\C\MSXgl\projects\exsoccer/exsoccer_s2_b0.c:1528: if (joy != DIRECTION_NONE && !s_JoyMoved) {
    000033A2 7A               [ 4] 8730 	ld	a, d
    000033A3 B7               [ 4] 8731 	or	a, a
    000033A4 28 31            [12] 8732 	jr	Z, 00227$
    000033A6 3Ar15r00         [13] 8733 	ld	a, (_TickThrowIn_s_JoyMoved_65537_1410+0)
    000033A9 B7               [ 4] 8734 	or	a, a
    000033AA 20 2B            [12] 8735 	jr	NZ, 00227$
                                   8736 ;E:\Dropbox\FAUSTO\SVILUPPI\MSX\CODE\C\MSXgl\projects\exsoccer/exsoccer_s2_b0.c:1530: if (c1 != NO_VALUE && c2 != NO_VALUE) {
    000033AC DD 7E FE         [19] 8737 	ld	a, -2 (ix)
    000033AF 3C               [ 4] 8738 	inc	a
    000033B0 28 1D            [12] 8739 	jr	Z, 00222$
    000033B2 DD 7E FF         [19] 8740 	ld	a, -1 (ix)
    000033B5 3C               [ 4] 8741 	inc	a
    000033B6 28 17            [12] 8742 	jr	Z, 00222$
                                   8743 ;E:\Dropbox\FAUSTO\SVILUPPI\MSX\CODE\C\MSXgl\projects\exsoccer/exsoccer_s2_b0.c:1531: if (s_ThrowTargetId == c1) s_ThrowTargetId = c2;
    000033B8 3Ar14r00         [13] 8744 	ld	a, (_TickThrowIn_s_ThrowTargetId_65537_1410+0)
    000033BB DD 96 FE         [19] 8745 	sub	a, -2 (ix)
    000033BE 20 09            [12] 8746 	jr	NZ, 00219$
    000033C0 DD 7E FF         [19] 8747 	ld	a, -1 (ix)
    000033C3 32r14r00         [13] 8748 	ld	(_TickThrowIn_s_ThrowTargetId_65537_1410+0), a
    000033C6 C3rCFr33         [10] 8749 	jp	00222$
    000033C9                       8750 00219$:
                                   8751 ;E:\Dropbox\FAUSTO\SVILUPPI\MSX\CODE\C\MSXgl\projects\exsoccer/exsoccer_s2_b0.c:1532: else s_ThrowTargetId = c1;
    000033C9 DD 7E FE         [19] 8752 	ld	a, -2 (ix)
    000033CC 32r14r00         [13] 8753 	ld	(_TickThrowIn_s_ThrowTargetId_65537_1410+0), a
    000033CF                       8754 00222$:
                                   8755 ;E:\Dropbox\FAUSTO\SVILUPPI\MSX\CODE\C\MSXgl\projects\exsoccer/exsoccer_s2_b0.c:1534: s_JoyMoved = true;
    000033CF 3E 01            [ 7] 8756 	ld	a, #0x01
    000033D1 32r15r00         [13] 8757 	ld	(#_TickThrowIn_s_JoyMoved_65537_1410), a
    000033D4 C3rDEr33         [10] 8758 	jp	00228$
    000033D7                       8759 00227$:
                                   8760 ;E:\Dropbox\FAUSTO\SVILUPPI\MSX\CODE\C\MSXgl\projects\exsoccer/exsoccer_s2_b0.c:1535: } else if (joy == DIRECTION_NONE) {
    000033D7 7A               [ 4] 8761 	ld	a, d
                                   8762 ;E:\Dropbox\FAUSTO\SVILUPPI\MSX\CODE\C\MSXgl\projects\exsoccer/exsoccer_s2_b0.c:1536: s_JoyMoved = false;
    000033D8 B7               [ 4] 8763 	or	a,a
    000033D9 20 03            [12] 8764 	jr	NZ, 00228$
    000033DB 32r15r00         [13] 8765 	ld	(#_TickThrowIn_s_JoyMoved_65537_1410), a
    000033DE                       8766 00228$:
                                   8767 ;E:\Dropbox\FAUSTO\SVILUPPI\MSX\CODE\C\MSXgl\projects\exsoccer/exsoccer_s2_b0.c:1540: g_PassTargetPlayer = s_ThrowTargetId; 
    000033DE 3Ar14r00         [13] 8768 	ld	a, (_TickThrowIn_s_ThrowTargetId_65537_1410+0)
    000033E1 32r00r00         [13] 8769 	ld	(_g_PassTargetPlayer+0), a
                                   8770 ;E:\Dropbox\FAUSTO\SVILUPPI\MSX\CODE\C\MSXgl\projects\exsoccer/exsoccer_s2_b0.c:1543: if (trig && s_ThrowTargetId != NO_VALUE) {
    000033E4 DD 7E FD         [19] 8771 	ld	a, -3 (ix)
    000033E7 B7               [ 4] 8772 	or	a, a
    000033E8 CArF6r34         [10] 8773 	jp	Z, 00268$
    000033EB 3Ar14r00         [13] 8774 	ld	a, (_TickThrowIn_s_ThrowTargetId_65537_1410+0)
    000033EE 3C               [ 4] 8775 	inc	a
    000033EF CArF6r34         [10] 8776 	jp	Z,00268$
                                   8777 ;E:\Dropbox\FAUSTO\SVILUPPI\MSX\CODE\C\MSXgl\projects\exsoccer/exsoccer_s2_b0.c:1544: g_Ball.PossessionPlayerId = g_ThrowInPlayerId;
    000033F2 21r06r00         [10] 8778 	ld	hl, #(_g_Ball + 6)
    000033F5 3Ar00r00         [13] 8779 	ld	a, (_g_ThrowInPlayerId+0)
    000033F8 77               [ 7] 8780 	ld	(hl), a
                                   8781 ;E:\Dropbox\FAUSTO\SVILUPPI\MSX\CODE\C\MSXgl\projects\exsoccer/exsoccer_s2_b0.c:1545: SetPlayerBallPossession(g_ThrowInPlayerId);
    000033F9 3Ar00r00         [13] 8782 	ld	a, (_g_ThrowInPlayerId+0)
    000033FC CDr00r00         [17] 8783 	call	_SetPlayerBallPossession
                                   8784 ;E:\Dropbox\FAUSTO\SVILUPPI\MSX\CODE\C\MSXgl\projects\exsoccer/exsoccer_s2_b0.c:1546: g_Ball.Y = g_Players[g_ThrowInPlayerId].Y; // Reset to feet
    000033FF ED 4Br00r00      [20] 8785 	ld	bc, (_g_ThrowInPlayerId)
    00003403 06 00            [ 7] 8786 	ld	b, #0x00
    00003405 69               [ 4] 8787 	ld	l, c
    00003406 60               [ 4] 8788 	ld	h, b
    00003407 29               [11] 8789 	add	hl, hl
    00003408 29               [11] 8790 	add	hl, hl
    00003409 09               [11] 8791 	add	hl, bc
    0000340A 29               [11] 8792 	add	hl, hl
    0000340B 29               [11] 8793 	add	hl, hl
    0000340C 09               [11] 8794 	add	hl, bc
    0000340D DD 75 FC         [19] 8795 	ld	-4 (ix), l
    00003410 DD 74 FD         [19] 8796 	ld	-3 (ix), h
    00003413 DD 7E FC         [19] 8797 	ld	a, -4 (ix)
    00003416 C6r00            [ 7] 8798 	add	a, #<(_g_Players)
    00003418 DD 77 FE         [19] 8799 	ld	-2 (ix), a
    0000341B DD 7E FD         [19] 8800 	ld	a, -3 (ix)
    0000341E CEs00            [ 7] 8801 	adc	a, #>(_g_Players)
    00003420 DD 77 FF         [19] 8802 	ld	-1 (ix), a
    00003423 DD 6E FE         [19] 8803 	ld	l, -2 (ix)
    00003426 DD 66 FF         [19] 8804 	ld	h, -1 (ix)
    00003429 7E               [ 7] 8805 	ld	a, (hl)
    0000342A DD 77 FE         [19] 8806 	ld	-2 (ix), a
    0000342D 23               [ 6] 8807 	inc	hl
    0000342E 7E               [ 7] 8808 	ld	a, (hl)
    0000342F DD 77 FF         [19] 8809 	ld	-1 (ix), a
    00003432 21r00r00         [10] 8810 	ld	hl, #_g_Ball
    00003435 DD 7E FE         [19] 8811 	ld	a, -2 (ix)
    00003438 77               [ 7] 8812 	ld	(hl), a
    00003439 23               [ 6] 8813 	inc	hl
    0000343A DD 7E FF         [19] 8814 	ld	a, -1 (ix)
    0000343D 77               [ 7] 8815 	ld	(hl), a
                                   8816 ;E:\Dropbox\FAUSTO\SVILUPPI\MSX\CODE\C\MSXgl\projects\exsoccer/exsoccer_s2_b0.c:1547: PerformPass(s_ThrowTargetId);
    0000343E 3Ar14r00         [13] 8817 	ld	a, (_TickThrowIn_s_ThrowTargetId_65537_1410+0)
    00003441 CDr00r00         [17] 8818 	call	_PerformPass
                                   8819 ;E:\Dropbox\FAUSTO\SVILUPPI\MSX\CODE\C\MSXgl\projects\exsoccer/exsoccer_s2_b0.c:1548: g_MatchStatus = MATCH_IN_ACTION;
    00003444 21r00r00         [10] 8820 	ld	hl, #_g_MatchStatus
    00003447 36 0C            [10] 8821 	ld	(hl), #0x0c
                                   8822 ;E:\Dropbox\FAUSTO\SVILUPPI\MSX\CODE\C\MSXgl\projects\exsoccer/exsoccer_s2_b0.c:1549: ClearTextFromLayerA(10, 18, 9); // Correct coords: 10, 18 (len 9 is enough for "THROW IN")
    00003449 3E 09            [ 7] 8823 	ld	a, #0x09
    0000344B F5               [11] 8824 	push	af
    0000344C 33               [ 6] 8825 	inc	sp
    0000344D 2E 12            [ 7] 8826 	ld	l, #0x12
                                   8827 ;	spillPairReg hl
                                   8828 ;	spillPairReg hl
    0000344F 3E 0A            [ 7] 8829 	ld	a, #0x0a
    00003451 CDrC5r06         [17] 8830 	call	_ClearTextFromLayerA
                                   8831 ;E:\Dropbox\FAUSTO\SVILUPPI\MSX\CODE\C\MSXgl\projects\exsoccer/exsoccer_s2_b0.c:1550: g_Ball.ShotActive = 1; // High Arc for throw
    00003454 21r1Br00         [10] 8832 	ld	hl, #(_g_Ball + 27)
    00003457 36 01            [10] 8833 	ld	(hl), #0x01
                                   8834 ;E:\Dropbox\FAUSTO\SVILUPPI\MSX\CODE\C\MSXgl\projects\exsoccer/exsoccer_s2_b0.c:1551: g_Ball.Size = 1;
    00003459 21r04r00         [10] 8835 	ld	hl, #(_g_Ball + 4)
    0000345C 36 01            [10] 8836 	ld	(hl), #0x01
    0000345E C3rF6r34         [10] 8837 	jp	00268$
    00003461                       8838 00245$:
                                   8839 ;E:\Dropbox\FAUSTO\SVILUPPI\MSX\CODE\C\MSXgl\projects\exsoccer/exsoccer_s2_b0.c:1555: if (g_Timer > 100) {
    00003461 3E 64            [ 7] 8840 	ld	a, #0x64
    00003463 FD 21r00r00      [14] 8841 	ld	iy, #_g_Timer
    00003467 FD 96 00         [19] 8842 	sub	a, 0 (iy)
    0000346A D2rEAr34         [10] 8843 	jp	NC, 00242$
                                   8844 ;E:\Dropbox\FAUSTO\SVILUPPI\MSX\CODE\C\MSXgl\projects\exsoccer/exsoccer_s2_b0.c:1556: if (s_ThrowTargetId == NO_VALUE && c1 != NO_VALUE) s_ThrowTargetId = c1; 
    0000346D 3Ar14r00         [13] 8845 	ld	a, (_TickThrowIn_s_ThrowTargetId_65537_1410+0)
    00003470 3C               [ 4] 8846 	inc	a
    00003471 20 0C            [12] 8847 	jr	NZ, 00234$
    00003473 DD 7E FE         [19] 8848 	ld	a, -2 (ix)
    00003476 3C               [ 4] 8849 	inc	a
    00003477 28 06            [12] 8850 	jr	Z, 00234$
    00003479 DD 7E FE         [19] 8851 	ld	a, -2 (ix)
    0000347C 32r14r00         [13] 8852 	ld	(_TickThrowIn_s_ThrowTargetId_65537_1410+0), a
    0000347F                       8853 00234$:
                                   8854 ;E:\Dropbox\FAUSTO\SVILUPPI\MSX\CODE\C\MSXgl\projects\exsoccer/exsoccer_s2_b0.c:1557: if (s_ThrowTargetId == NO_VALUE) s_ThrowTargetId = GetClosestPlayerToBall(g_RestartKickTeamId, g_ThrowInPlayerId);
    0000347F 3Ar14r00         [13] 8855 	ld	a, (_TickThrowIn_s_ThrowTargetId_65537_1410+0)
    00003482 3C               [ 4] 8856 	inc	a
    00003483 20 0D            [12] 8857 	jr	NZ, 00237$
    00003485 3Ar00r00         [13] 8858 	ld	a, (_g_ThrowInPlayerId+0)
    00003488 6F               [ 4] 8859 	ld	l, a
                                   8860 ;	spillPairReg hl
                                   8861 ;	spillPairReg hl
    00003489 3Ar00r00         [13] 8862 	ld	a, (_g_RestartKickTeamId+0)
    0000348C CDr1Fr10         [17] 8863 	call	_GetClosestPlayerToBall
    0000348F 32r14r00         [13] 8864 	ld	(_TickThrowIn_s_ThrowTargetId_65537_1410+0), a
    00003492                       8865 00237$:
                                   8866 ;E:\Dropbox\FAUSTO\SVILUPPI\MSX\CODE\C\MSXgl\projects\exsoccer/exsoccer_s2_b0.c:1560: if (g_Timer > 120) {
    00003492 3E 78            [ 7] 8867 	ld	a, #0x78
    00003494 21r00r00         [10] 8868 	ld	hl, #_g_Timer
    00003497 96               [ 7] 8869 	sub	a, (hl)
    00003498 30 49            [12] 8870 	jr	NC, 00239$
                                   8871 ;E:\Dropbox\FAUSTO\SVILUPPI\MSX\CODE\C\MSXgl\projects\exsoccer/exsoccer_s2_b0.c:1561: g_Ball.PossessionPlayerId = g_ThrowInPlayerId;
    0000349A 21r06r00         [10] 8872 	ld	hl, #(_g_Ball + 6)
    0000349D 3Ar00r00         [13] 8873 	ld	a, (_g_ThrowInPlayerId+0)
    000034A0 77               [ 7] 8874 	ld	(hl), a
                                   8875 ;E:\Dropbox\FAUSTO\SVILUPPI\MSX\CODE\C\MSXgl\projects\exsoccer/exsoccer_s2_b0.c:1562: SetPlayerBallPossession(g_ThrowInPlayerId);
    000034A1 3Ar00r00         [13] 8876 	ld	a, (_g_ThrowInPlayerId+0)
    000034A4 CDr00r00         [17] 8877 	call	_SetPlayerBallPossession
                                   8878 ;E:\Dropbox\FAUSTO\SVILUPPI\MSX\CODE\C\MSXgl\projects\exsoccer/exsoccer_s2_b0.c:1563: g_Ball.Y = g_Players[g_ThrowInPlayerId].Y; // Reset to feet
    000034A7 ED 4Br00r00      [20] 8879 	ld	bc, (_g_ThrowInPlayerId)
    000034AB 06 00            [ 7] 8880 	ld	b, #0x00
    000034AD 69               [ 4] 8881 	ld	l, c
    000034AE 60               [ 4] 8882 	ld	h, b
    000034AF 29               [11] 8883 	add	hl, hl
    000034B0 29               [11] 8884 	add	hl, hl
    000034B1 09               [11] 8885 	add	hl, bc
    000034B2 29               [11] 8886 	add	hl, hl
    000034B3 29               [11] 8887 	add	hl, hl
    000034B4 09               [11] 8888 	add	hl, bc
    000034B5 11r00r00         [10] 8889 	ld	de, #_g_Players
    000034B8 19               [11] 8890 	add	hl, de
    000034B9 4E               [ 7] 8891 	ld	c, (hl)
    000034BA 23               [ 6] 8892 	inc	hl
    000034BB 46               [ 7] 8893 	ld	b, (hl)
    000034BC ED 43r00r00      [20] 8894 	ld	(_g_Ball), bc
                                   8895 ;E:\Dropbox\FAUSTO\SVILUPPI\MSX\CODE\C\MSXgl\projects\exsoccer/exsoccer_s2_b0.c:1564: PerformPass(s_ThrowTargetId);
    000034C0 3Ar14r00         [13] 8896 	ld	a, (_TickThrowIn_s_ThrowTargetId_65537_1410+0)
    000034C3 CDr00r00         [17] 8897 	call	_PerformPass
                                   8898 ;E:\Dropbox\FAUSTO\SVILUPPI\MSX\CODE\C\MSXgl\projects\exsoccer/exsoccer_s2_b0.c:1565: g_MatchStatus = MATCH_IN_ACTION; 
    000034C6 21r00r00         [10] 8899 	ld	hl, #_g_MatchStatus
    000034C9 36 0C            [10] 8900 	ld	(hl), #0x0c
                                   8901 ;E:\Dropbox\FAUSTO\SVILUPPI\MSX\CODE\C\MSXgl\projects\exsoccer/exsoccer_s2_b0.c:1566: ClearTextFromLayerA(10, 18, 9); // Correct coords
    000034CB 3E 09            [ 7] 8902 	ld	a, #0x09
    000034CD F5               [11] 8903 	push	af
    000034CE 33               [ 6] 8904 	inc	sp
    000034CF 2E 12            [ 7] 8905 	ld	l, #0x12
                                   8906 ;	spillPairReg hl
                                   8907 ;	spillPairReg hl
    000034D1 3E 0A            [ 7] 8908 	ld	a, #0x0a
    000034D3 CDrC5r06         [17] 8909 	call	_ClearTextFromLayerA
                                   8910 ;E:\Dropbox\FAUSTO\SVILUPPI\MSX\CODE\C\MSXgl\projects\exsoccer/exsoccer_s2_b0.c:1567: g_Ball.ShotActive = 1; 
    000034D6 21r1Br00         [10] 8911 	ld	hl, #(_g_Ball + 27)
    000034D9 36 01            [10] 8912 	ld	(hl), #0x01
                                   8913 ;E:\Dropbox\FAUSTO\SVILUPPI\MSX\CODE\C\MSXgl\projects\exsoccer/exsoccer_s2_b0.c:1568: g_Ball.Size = 1;
    000034DB 21r04r00         [10] 8914 	ld	hl, #(_g_Ball + 4)
    000034DE 36 01            [10] 8915 	ld	(hl), #0x01
    000034E0 C3rF6r34         [10] 8916 	jp	00268$
    000034E3                       8917 00239$:
                                   8918 ;E:\Dropbox\FAUSTO\SVILUPPI\MSX\CODE\C\MSXgl\projects\exsoccer/exsoccer_s2_b0.c:1570: g_Timer++;
    000034E3 21r00r00         [10] 8919 	ld	hl, #_g_Timer
    000034E6 34               [11] 8920 	inc	(hl)
    000034E7 C3rF6r34         [10] 8921 	jp	00268$
    000034EA                       8922 00242$:
                                   8923 ;E:\Dropbox\FAUSTO\SVILUPPI\MSX\CODE\C\MSXgl\projects\exsoccer/exsoccer_s2_b0.c:1573: g_Timer++;
    000034EA 21r00r00         [10] 8924 	ld	hl, #_g_Timer
    000034ED 34               [11] 8925 	inc	(hl)
    000034EE C3rF6r34         [10] 8926 	jp	00268$
    000034F1                       8927 00250$:
                                   8928 ;E:\Dropbox\FAUSTO\SVILUPPI\MSX\CODE\C\MSXgl\projects\exsoccer/exsoccer_s2_b0.c:1578: g_Timer = 1; 
    000034F1 21r00r00         [10] 8929 	ld	hl, #_g_Timer
    000034F4 36 01            [10] 8930 	ld	(hl), #0x01
    000034F6                       8931 00268$:
                                   8932 ;E:\Dropbox\FAUSTO\SVILUPPI\MSX\CODE\C\MSXgl\projects\exsoccer/exsoccer_s2_b0.c:1581: }
    000034F6 DD F9            [10] 8933 	ld	sp, ix
    000034F8 DD E1            [14] 8934 	pop	ix
    000034FA C9               [10] 8935 	ret
                                   8936 	.area _SEG2
                                   8937 	.area _INITIALIZER
    00000000                       8938 __xinit__s_GkAnimTimer:
    00000000 00                    8939 	.db #0x00	; 0
    00000001                       8940 __xinit__s_GkAnimPlayerId:
    00000001 FF                    8941 	.db #0xff	; 255
    00000002                       8942 __xinit__s_GkRecoilY:
    00000002 00                    8943 	.db #0x00	;  0
                                   8944 	.area _CABS (ABS)
