;--------------------------------------------------------
; File Created by SDCC : free open source ANSI-C Compiler
; Version 4.2.0 #13081 (MINGW64)
;--------------------------------------------------------
	.module exsoccer
	.optsdcc -mz80
	
;--------------------------------------------------------
; Public variables in this module
;--------------------------------------------------------
	.globl _InterruptHook
	.globl _DEBUG_INIT
	.globl _TickShowKickOff
	.globl _TickUpdateTime
	.globl _TickActiveFieldZone
	.globl _GetJoystick1Direction
	.globl _TickPlayerToOwnTarget
	.globl _UpdateSpritesPositions
	.globl _SetTeamsPresentationSpritesPosition
	.globl _ShowHeaderInfo
	.globl _InitVariables
	.globl _ShowFieldZone
	.globl _SetTeam2Palette
	.globl _SetTeam1Palette
	.globl _V9_PutLayerBTileAtPos
	.globl _V9_PutLayerATileAtPos
	.globl _InitPalette
	.globl _UpdateV9990
	.globl _V9_Detect
	.globl _V9_SetScrollingBY
	.globl _V9_SetScrollingY
	.globl _V9_SetScreenMode
	.globl _V9_WriteVRAM_CurrentAddr
	.globl _V9_FillVRAM16_CurrentAddr
	.globl _V9_FillVRAM_CurrentAddr
	.globl _V9_SetWriteAddress
	.globl _V9_GetRegister
	.globl _V9_SetRegister16
	.globl _V9_SetRegister
	.globl _V9_SetPort
	.globl _Print_SetColor
	.globl _Print_DrawText
	.globl _Print_SetTextFont
	.globl _VDP_RegWriteBakMask
	.globl _VDP_SetMode
	.globl _VDP_ClearVRAM
	.globl _g_Timer
	.globl _g_FieldScrollSpeed
	.globl _g_MatchStatus
	.globl _g_PlayersPositioningPhaseCount
	.globl _g_FieldScrollingActionInProgress
	.globl _g_FieldCurrentYPosition
	.globl _g_VSynch
	.globl _g_SecondsToEndOfMatch
	.globl _g_RestartKickTeamId
	.globl _g_ActiveFieldZone
	.globl _g_Ball
	.globl _g_Players
	.globl _g_Team2Score
	.globl _g_Team1Score
	.globl _g_Team2PaletteId
	.globl _g_Team1PaletteId
	.globl _g_FrameCounter
	.globl _g_SLTSL
	.globl _g_GRPACY
	.globl _g_GRPACX
	.globl _g_LOGOPR
	.globl _g_CMASK
	.globl _g_CLOC
	.globl _g_FNKSTR
	.globl _g_ATRBYT
	.globl _g_BDRCLR
	.globl _g_BAKCLR
	.globl _g_FORCLR
	.globl _g_CSRX
	.globl _g_CSRY
	.globl _g_CLIKSW
	.globl _g_MLTPAT
	.globl _g_MLTATR
	.globl _g_MLTCGP
	.globl _g_MLTCOL
	.globl _g_MLTNAM
	.globl _g_GRPPAT
	.globl _g_GRPATR
	.globl _g_GRPCGP
	.globl _g_GRPCOL
	.globl _g_GRPNAM
	.globl _g_T32PAT
	.globl _g_T32ATR
	.globl _g_T32CGP
	.globl _g_T32COL
	.globl _g_T32NAM
	.globl _g_TXTPAT
	.globl _g_TXTATR
	.globl _g_TXTCGP
	.globl _g_TXTCOL
	.globl _g_TXTNAM
	.globl _g_CLMLST
	.globl _g_CRTCNT
	.globl _g_LINLEN
	.globl _g_LINL32
	.globl _g_LINL40
	.globl _g_BDOS
	.globl _g_MASTER
	.globl _g_RAMAD3
	.globl _g_RAMAD2
	.globl _g_RAMAD1
	.globl _g_RAMAD0
	.globl _g_BREAKV
	.globl _g_DISKVE
	.globl _g_KANJTABLE
	.globl _g_STRSRC
	.globl _g_SUBRID
	.globl _g_CHAR_16
	.globl _g_MSXMID
	.globl _g_MSXVER
	.globl _g_ROMVersion
	.globl _g_BASRVN
	.globl _g_VDP_DW
	.globl _g_VDP_DR
	.globl _g_CGTABL
	.globl _g_SVFFFD
	.globl _g_RG27SAV
	.globl _g_RG26SAV
	.globl _g_RG25SAV
	.globl _g_SVFFF8
	.globl _g_MINROM
	.globl _g_RG23SAV
	.globl _g_RG22SAV
	.globl _g_RG21SAV
	.globl _g_RG20SAV
	.globl _g_RG19SAV
	.globl _g_RG18SAV
	.globl _g_RG17SAV
	.globl _g_RG16SAV
	.globl _g_RG15SAV
	.globl _g_RG14SAV
	.globl _g_RG13SAV
	.globl _g_RG12SAV
	.globl _g_RG11SAV
	.globl _g_RG10SAV
	.globl _g_RG09SAV
	.globl _g_RG08SAV
	.globl _g_PROCNM
	.globl _g_SLTWRK
	.globl _g_SLTATR
	.globl _g_SLTTBL
	.globl _g_EXPTBL
	.globl _g_MNROM
	.globl _g_DRWANG
	.globl _g_DRWSCL
	.globl _g_DRWFLG
	.globl _g_GYPOS
	.globl _g_GXPOS
	.globl _g_BRDATR
	.globl _g_CASPRV
	.globl _g_OLDSCR
	.globl _g_SCRMOD
	.globl _g_FLBMEM
	.globl _g_KANAMD
	.globl _g_KANAST
	.globl _g_CAPST
	.globl _g_CSTYLE
	.globl _g_CSRSW
	.globl _g_INSFLG
	.globl _g_ESCCNT
	.globl _g_GRPHED
	.globl _g_WINWID
	.globl _g_LOWLIM
	.globl _g_INTCNT
	.globl _g_INTVAL
	.globl _g_JIFFY
	.globl _g_PADX
	.globl _g_PADY
	.globl _g_INTFLG
	.globl _g_RTYCNT
	.globl _g_TRPTBL
	.globl _g_HIMEM
	.globl _g_BOTTOM
	.globl _g_PATWRK
	.globl _g_LINWRK
	.globl _g_KEYBUF
	.globl _g_NEWKEY
	.globl _g_OLDKEY
	.globl _g_CLIKFL
	.globl _g_ONGSBF
	.globl _g_FNKFLG
	.globl _g_FNKSWI
	.globl _g_CODSAV
	.globl _g_FSTPOS
	.globl _g_LINTTB
	.globl _g_BASROM
	.globl _g_ENSTOP
	.globl _g_VCBC
	.globl _g_VCBB
	.globl _g_VCBA
	.globl _g_PLYCNT
	.globl _g_MUSICF
	.globl _g_QUEUEN
	.globl _g_MCLPTR
	.globl _g_MCLLEN
	.globl _g_SAVVOL
	.globl _g_VOICEN
	.globl _g_SAVSP
	.globl _g_PRSCNT
	.globl _g_LSTMOD
	.globl _g_LSTCOM
	.globl _g_COMMSK
	.globl _g_ESTBLS
	.globl _g_FLAGS
	.globl _g_ERRORS
	.globl _g_DATCNT
	.globl _g_DEVNUM
	.globl _g_OLDINT
	.globl _g_OLDSTT
	.globl _g_MEXBIh
	.globl _g_RSIQLN
	.globl _g_RSFCB
	.globl _g_TOCNT
	.globl _g_RSTMP
	.globl _g_YSAVE
	.globl _g_XSAVE
	.globl _g_NORUSE
	.globl _g_MODE
	.globl _g_ROMA
	.globl _g_CHRCNT
	.globl _g_EXBRSA
	.globl _g_AVCSAV
	.globl _g_ACPAGE
	.globl _g_DPPAGE
	.globl _g_RS2IQ
	.globl _g_VOICCQ
	.globl _g_VOICBQ
	.globl _g_VOICAQ
	.globl _g_QUEBAK
	.globl _g_QUETAB
	.globl _g_ASPCT2
	.globl _g_ASPCT1
	.globl _g_HEADER
	.globl _g_HIGH
	.globl _g_LOW
	.globl _g_CS240
	.globl _g_CS120
	.globl _g_GETPNT
	.globl _g_PUTPNT
	.globl _g_REPCNT
	.globl _g_SCNCNT
	.globl _g_FRCNEW
	.globl _g_QUEUES
	.globl _g_MINUPD
	.globl _g_MAXUPD
	.globl _g_TRGFLG
	.globl _g_STATFL
	.globl _g_RG7SAV
	.globl _g_RG6SAV
	.globl _g_RG5SAV
	.globl _g_RG4SAV
	.globl _g_RG3SAV
	.globl _g_RG2SAV
	.globl _g_RG1SAV
	.globl _g_RG0SAV
	.globl _g_CNSDFG
	.globl _g_USRTAB
	.globl _g_CLPRIM
	.globl _g_WRPRIM
	.globl _g_RDPRIM
	.globl _V9_InterruptVBlank
	.globl _V9_InterruptHBlank
	.globl _V9_InterruptCommand
	.globl _LoadP1LayerA
	.globl _LoadP1LayerB
	.globl _GameStart
	.globl _InitializeV9990
	.globl _LoadSprites
	.globl _main
;--------------------------------------------------------
; special function registers
;--------------------------------------------------------
_g_PortPrimarySlot	=	0x00a8
_g_PortReadKeyboard	=	0x00a9
_g_PortAccessKeyboard	=	0x00aa
_g_PortControl	=	0x00ab
_g_VDP_DataPort	=	0x0098
_g_VDP_RegPort	=	0x0099
_g_VDP_AddrPort	=	0x0099
_g_VDP_StatPort	=	0x0099
_g_PSG_RegPort	=	0x00a0
_g_PSG_DataPort	=	0x00a1
_g_PSG_StatPort	=	0x00a2
_g_PSG_Ext_RegPort	=	0x0010
_g_PSG_Ext_DataPort	=	0x0011
_g_PSG_Ext_StatPort	=	0x0012
_g_MSXMusic_IndexPort	=	0x007c
_g_MSXMusic_DataPort	=	0x007d
_g_MSXAudio_IndexPort	=	0x00c0
_g_MSXAudio_DataPort	=	0x00c1
_g_MSXAudio_IndexPort2	=	0x00c2
_g_MSXAudio_DataPort2	=	0x00c3
_g_RTC_AddrPort	=	0x00b4
_g_RTC_DataPort	=	0x00b5
_g_V9_VRAMPort	=	0x0060
_g_V9_PalettePort	=	0x0061
_g_V9_CmdDataPort	=	0x0062
_g_V9_RegDataPort	=	0x0063
_g_V9_RegSelectPort	=	0x0064
_g_V9_SatusPort	=	0x0065
_g_V9_IntFlagPort	=	0x0066
_g_V9_SysCtrlPort	=	0x0067
_g_V9_KanjiAddrLPort	=	0x0068
_g_V9_KanjiAddrHPort	=	0x0069
_g_V9_KanjiDataPort	=	0x0069
_g_V9_Kanji2AddrLPort	=	0x006a
_g_V9_Kanji2AddrHPort	=	0x006b
_g_V9_Kanji2DataPort	=	0x006b
_g_V9_OutputCtrPort	=	0x006f
;--------------------------------------------------------
; ram data
;--------------------------------------------------------
	.area _DATA
_g_LINL40	=	0xf3ae
_g_LINL32	=	0xf3af
_g_LINLEN	=	0xf3b0
_g_CRTCNT	=	0xf3b1
_g_CLMLST	=	0xf3b2
_g_TXTNAM	=	0xf3b3
_g_TXTCOL	=	0xf3b5
_g_TXTCGP	=	0xf3b7
_g_TXTATR	=	0xf3b9
_g_TXTPAT	=	0xf3bb
_g_T32NAM	=	0xf3bd
_g_T32COL	=	0xf3bf
_g_T32CGP	=	0xf3c1
_g_T32ATR	=	0xf3c3
_g_T32PAT	=	0xf3c5
_g_GRPNAM	=	0xf3c7
_g_GRPCOL	=	0xf3c9
_g_GRPCGP	=	0xf3cb
_g_GRPATR	=	0xf3cd
_g_GRPPAT	=	0xf3cf
_g_MLTNAM	=	0xf3d1
_g_MLTCOL	=	0xf3d3
_g_MLTCGP	=	0xf3d5
_g_MLTATR	=	0xf3d7
_g_MLTPAT	=	0xf3d9
_g_CLIKSW	=	0xf3db
_g_CSRY	=	0xf3dc
_g_CSRX	=	0xf3dd
_g_FORCLR	=	0xf3e9
_g_BAKCLR	=	0xf3ea
_g_BDRCLR	=	0xf3eb
_g_ATRBYT	=	0xf3f2
_g_FNKSTR	=	0xf87f
_g_CLOC	=	0xf92a
_g_CMASK	=	0xf92c
_g_LOGOPR	=	0xfb02
_g_GRPACX	=	0xfcb7
_g_GRPACY	=	0xfcb9
_g_SLTSL	=	0xffff
_g_FrameCounter::
	.ds 2
_g_Team1PaletteId::
	.ds 1
_g_Team2PaletteId::
	.ds 1
_g_Team1Score::
	.ds 1
_g_Team2Score::
	.ds 1
_g_Players::
	.ds 240
_g_Ball::
	.ds 9
_g_ActiveFieldZone::
	.ds 1
_g_RestartKickTeamId::
	.ds 1
_g_SecondsToEndOfMatch::
	.ds 1
;--------------------------------------------------------
; ram data
;--------------------------------------------------------
	.area _INITIALIZED
_g_VSynch::
	.ds 1
_g_FieldCurrentYPosition::
	.ds 2
_g_FieldScrollingActionInProgress::
	.ds 1
_g_PlayersPositioningPhaseCount::
	.ds 1
_g_MatchStatus::
	.ds 1
_g_FieldScrollSpeed::
	.ds 1
_g_Timer::
	.ds 1
;--------------------------------------------------------
; absolute external ram data
;--------------------------------------------------------
	.area _DABS (ABS)
;--------------------------------------------------------
; global & static initialisations
;--------------------------------------------------------
	.area _HOME
	.area _GSINIT
	.area _GSFINAL
	.area _GSINIT
;--------------------------------------------------------
; Home
;--------------------------------------------------------
	.area _HOME
	.area _HOME
;--------------------------------------------------------
; code
;--------------------------------------------------------
	.area _CODE
;./exsoccer.c:46: void V9_InterruptVBlank()
;	---------------------------------
; Function V9_InterruptVBlank
; ---------------------------------
_V9_InterruptVBlank::
;./exsoccer.c:48: g_VSynch = TRUE;
	ld	hl, #_g_VSynch
	ld	(hl), #0x01
;./exsoccer.c:49: }
	ret
_g_RDPRIM	=	0xf380
_g_WRPRIM	=	0xf385
_g_CLPRIM	=	0xf38c
_g_USRTAB	=	0xf39a
_g_CNSDFG	=	0xf3de
_g_RG0SAV	=	0xf3df
_g_RG1SAV	=	0xf3e0
_g_RG2SAV	=	0xf3e1
_g_RG3SAV	=	0xf3e2
_g_RG4SAV	=	0xf3e3
_g_RG5SAV	=	0xf3e4
_g_RG6SAV	=	0xf3e5
_g_RG7SAV	=	0xf3e6
_g_STATFL	=	0xf3e7
_g_TRGFLG	=	0xf3e8
_g_MAXUPD	=	0xf3ec
_g_MINUPD	=	0xf3ef
_g_QUEUES	=	0xf3f3
_g_FRCNEW	=	0xf3f5
_g_SCNCNT	=	0xf3f6
_g_REPCNT	=	0xf3f7
_g_PUTPNT	=	0xf3f8
_g_GETPNT	=	0xf3fa
_g_CS120	=	0xf3fc
_g_CS240	=	0xf401
_g_LOW	=	0xf406
_g_HIGH	=	0xf408
_g_HEADER	=	0xf40a
_g_ASPCT1	=	0xf40b
_g_ASPCT2	=	0xf40d
_g_QUETAB	=	0xf959
_g_QUEBAK	=	0xf971
_g_VOICAQ	=	0xf975
_g_VOICBQ	=	0xf9f5
_g_VOICCQ	=	0xfa75
_g_RS2IQ	=	0xfaf5
_g_DPPAGE	=	0xfaf5
_g_ACPAGE	=	0xfaf6
_g_AVCSAV	=	0xfaf7
_g_EXBRSA	=	0xfaf8
_g_CHRCNT	=	0xfaf9
_g_ROMA	=	0xfafa
_g_MODE	=	0xfafc
_g_NORUSE	=	0xfafd
_g_XSAVE	=	0xfafe
_g_YSAVE	=	0xfb00
_g_RSTMP	=	0xfb03
_g_TOCNT	=	0xfb03
_g_RSFCB	=	0xfb04
_g_RSIQLN	=	0xfb06
_g_MEXBIh	=	0xfb07
_g_OLDSTT	=	0xfb0c
_g_OLDINT	=	0xfb0c
_g_DEVNUM	=	0xfb16
_g_DATCNT	=	0xfb17
_g_ERRORS	=	0xfb1a
_g_FLAGS	=	0xfb1b
_g_ESTBLS	=	0xfb1c
_g_COMMSK	=	0xfb1d
_g_LSTCOM	=	0xfb1e
_g_LSTMOD	=	0xfb1f
_g_PRSCNT	=	0xfb35
_g_SAVSP	=	0xfb36
_g_VOICEN	=	0xfb38
_g_SAVVOL	=	0xfb39
_g_MCLLEN	=	0xfb3b
_g_MCLPTR	=	0xfb3c
_g_QUEUEN	=	0xfb3e
_g_MUSICF	=	0xfb3f
_g_PLYCNT	=	0xfb40
_g_VCBA	=	0xfb41
_g_VCBB	=	0xfb66
_g_VCBC	=	0xfb8b
_g_ENSTOP	=	0xfbb0
_g_BASROM	=	0xfbb1
_g_LINTTB	=	0xfbb2
_g_FSTPOS	=	0xfbca
_g_CODSAV	=	0xfbcc
_g_FNKSWI	=	0xfbcd
_g_FNKFLG	=	0xfbce
_g_ONGSBF	=	0xfbd8
_g_CLIKFL	=	0xfbd9
_g_OLDKEY	=	0xfbda
_g_NEWKEY	=	0xfbe5
_g_KEYBUF	=	0xfbf0
_g_LINWRK	=	0xfc18
_g_PATWRK	=	0xfc40
_g_BOTTOM	=	0xfc48
_g_HIMEM	=	0xfc4a
_g_TRPTBL	=	0xfc4c
_g_RTYCNT	=	0xfc9a
_g_INTFLG	=	0xfc9b
_g_PADY	=	0xfc9c
_g_PADX	=	0xfc9d
_g_JIFFY	=	0xfc9e
_g_INTVAL	=	0xfca0
_g_INTCNT	=	0xfca2
_g_LOWLIM	=	0xfca4
_g_WINWID	=	0xfca5
_g_GRPHED	=	0xfca6
_g_ESCCNT	=	0xfca7
_g_INSFLG	=	0xfca8
_g_CSRSW	=	0xfca9
_g_CSTYLE	=	0xfcaa
_g_CAPST	=	0xfcab
_g_KANAST	=	0xfcac
_g_KANAMD	=	0xfcad
_g_FLBMEM	=	0xfcae
_g_SCRMOD	=	0xfcaf
_g_OLDSCR	=	0xfcb0
_g_CASPRV	=	0xfcb1
_g_BRDATR	=	0xfcb2
_g_GXPOS	=	0xfcb3
_g_GYPOS	=	0xfcb5
_g_DRWFLG	=	0xfcbb
_g_DRWSCL	=	0xfcbc
_g_DRWANG	=	0xfcbd
_g_MNROM	=	0xfcc1
_g_EXPTBL	=	0xfcc1
_g_SLTTBL	=	0xfcc5
_g_SLTATR	=	0xfcc9
_g_SLTWRK	=	0xfd09
_g_PROCNM	=	0xfd89
_g_RG08SAV	=	0xffe7
_g_RG09SAV	=	0xffe8
_g_RG10SAV	=	0xffe9
_g_RG11SAV	=	0xffea
_g_RG12SAV	=	0xffeb
_g_RG13SAV	=	0xffec
_g_RG14SAV	=	0xffed
_g_RG15SAV	=	0xffee
_g_RG16SAV	=	0xffef
_g_RG17SAV	=	0xfff0
_g_RG18SAV	=	0xfff1
_g_RG19SAV	=	0xfff2
_g_RG20SAV	=	0xfff3
_g_RG21SAV	=	0xfff4
_g_RG22SAV	=	0xfff5
_g_RG23SAV	=	0xfff6
_g_MINROM	=	0xfff7
_g_SVFFF8	=	0xfff8
_g_RG25SAV	=	0xfffa
_g_RG26SAV	=	0xfffb
_g_RG27SAV	=	0xfffc
_g_SVFFFD	=	0xfffd
_g_CGTABL	=	0x0004
_g_VDP_DR	=	0x0006
_g_VDP_DW	=	0x0007
_g_BASRVN	=	0x002b
_g_ROMVersion	=	0x002b
_g_MSXVER	=	0x002d
_g_MSXMID	=	0x002e
_g_CHAR_16	=	0x0034
_g_SUBRID	=	0x0000
_g_STRSRC	=	0x0002
_g_KANJTABLE	=	0xf30f
_g_DISKVE	=	0xf323
_g_BREAKV	=	0xf325
_g_RAMAD0	=	0xf341
_g_RAMAD1	=	0xf342
_g_RAMAD2	=	0xf343
_g_RAMAD3	=	0xf344
_g_MASTER	=	0xf348
_g_BDOS	=	0xf37d
;./exsoccer.c:52: void V9_InterruptHBlank()
;	---------------------------------
; Function V9_InterruptHBlank
; ---------------------------------
_V9_InterruptHBlank::
;./exsoccer.c:55: }
	ret
;./exsoccer.c:58: void V9_InterruptCommand()
;	---------------------------------
; Function V9_InterruptCommand
; ---------------------------------
_V9_InterruptCommand::
;./exsoccer.c:61: }
	ret
;./exsoccer.c:62: void InterruptHook()
;	---------------------------------
; Function InterruptHook
; ---------------------------------
_InterruptHook::
;./exsoccer.c:80: __endasm;
	in	a, (0x99)
	in	a, (0x66)
	out	(0x66), a
	rra
	call	c, _V9_InterruptVBlank
	rra
	call	c, _V9_InterruptHBlank
	rra
	call	c, _V9_InterruptCommand
;./exsoccer.c:81: }
	ret
;./exsoccer.c:84: void LoadP1LayerA(){
;	---------------------------------
; Function LoadP1LayerA
; ---------------------------------
_LoadP1LayerA::
;E:/Dropbox/FAUSTO/SVILUPPI/MSX/CODE/C/MSXgl/engine/src/v9990.h:353: inline void V9_FillVRAM(u32 addr, u8 value, u16 count) { V9_SetWriteAddress(addr); V9_FillVRAM_CurrentAddr(value, count); }
	ld	de, #0x0000
	ld	hl, #0x0000
	call	_V9_SetWriteAddress
	ld	de, #0x6a00
	xor	a, a
	call	_V9_FillVRAM_CurrentAddr
;E:/Dropbox/FAUSTO/SVILUPPI/MSX/CODE/C/MSXgl/engine/src/rom_mapper.h:250: g_Bank0Segment[b] = s;
	ld	hl, #(_g_Bank0Segment + 1)
	ld	(hl), #0x08
;E:/Dropbox/FAUSTO/SVILUPPI/MSX/CODE/C/MSXgl/engine/src/system.h:101: inline void Poke(u16 addr, u8 val) { *(u8*)addr = val; }
	ld	hl, #0x77ff
	ld	(hl), #0x08
;./exsoccer.c:87: V9_WriteVRAM(V9_P1_PGT_A, g_GameFieldLayerATiles, sizeof(g_GameFieldLayerATiles)); // Load fonts
;E:/Dropbox/FAUSTO/SVILUPPI/MSX/CODE/C/MSXgl/engine/src/v9990.h:371: inline void V9_WriteVRAM(u32 addr, const u8* src, u16 count) { V9_SetWriteAddress(addr); V9_WriteVRAM_CurrentAddr(src, count); }
	ld	de, #0x0000
	ld	hl, #0x0000
	call	_V9_SetWriteAddress
	ld	de, #0x4000
	ld	hl, #_g_GameFieldLayerATiles
	call	_V9_WriteVRAM_CurrentAddr
;E:/Dropbox/FAUSTO/SVILUPPI/MSX/CODE/C/MSXgl/engine/src/v9990.h:362: inline void V9_FillVRAM16(u32 addr, u16 value, u16 count) { V9_SetWriteAddress(addr); V9_FillVRAM16_CurrentAddr(value, count); }
	ld	de, #0xc000
	ld	hl, #0x0007
	call	_V9_SetWriteAddress
	ld	de, #0x1000
	ld	hl, #0x0000
	call	_V9_FillVRAM16_CurrentAddr
;E:/Dropbox/FAUSTO/SVILUPPI/MSX/CODE/C/MSXgl/engine/src/rom_mapper.h:250: g_Bank0Segment[b] = s;
	ld	hl, #(_g_Bank0Segment + 1)
	ld	(hl), #0x03
;E:/Dropbox/FAUSTO/SVILUPPI/MSX/CODE/C/MSXgl/engine/src/system.h:101: inline void Poke(u16 addr, u8 val) { *(u8*)addr = val; }
	ld	hl, #0x77ff
	ld	(hl), #0x03
;./exsoccer.c:93: for (u8 x=0;x<64;x++){
	ld	c, #0x00
00124$:
	ld	a, c
	sub	a, #0x40
	jr	NC, 00101$
;./exsoccer.c:94: V9_PutLayerATileAtPos(x,0,32);
	push	bc
	ld	hl, #0x0020
	push	hl
	ld	l, #0x00
;	spillPairReg hl
;	spillPairReg hl
	ld	a, c
	call	_V9_PutLayerATileAtPos
	pop	bc
;./exsoccer.c:93: for (u8 x=0;x<64;x++){
	inc	c
	jp	00124$
00101$:
;./exsoccer.c:96: for (u8 y=1;y<64;y++){
	ld	c, #0x01
00130$:
	ld	a, c
	sub	a, #0x40
	ret	NC
;./exsoccer.c:97: for (u8 x=0;x<64;x++){
	ld	b, #0x00
00127$:
	ld	a, b
	sub	a, #0x40
	jr	NC, 00131$
;./exsoccer.c:98: V9_PutLayerATileAtPos(x,y,0);
	push	bc
	ld	hl, #0x0000
	push	hl
	ld	l, c
;	spillPairReg hl
;	spillPairReg hl
	ld	a, b
	call	_V9_PutLayerATileAtPos
	pop	bc
;./exsoccer.c:97: for (u8 x=0;x<64;x++){
	inc	b
	jp	00127$
00131$:
;./exsoccer.c:96: for (u8 y=1;y<64;y++){
	inc	c
;./exsoccer.c:102: }
	jp	00130$
;./exsoccer.c:105: void LoadP1LayerB(){
;	---------------------------------
; Function LoadP1LayerB
; ---------------------------------
_LoadP1LayerB::
;E:/Dropbox/FAUSTO/SVILUPPI/MSX/CODE/C/MSXgl/engine/src/v9990.h:353: inline void V9_FillVRAM(u32 addr, u8 value, u16 count) { V9_SetWriteAddress(addr); V9_FillVRAM_CurrentAddr(value, count); }
	ld	de, #0x0000
	ld	hl, #0x0004
	call	_V9_SetWriteAddress
	ld	de, #0x6a00
	xor	a, a
	call	_V9_FillVRAM_CurrentAddr
;E:/Dropbox/FAUSTO/SVILUPPI/MSX/CODE/C/MSXgl/engine/src/rom_mapper.h:250: g_Bank0Segment[b] = s;
	ld	hl, #(_g_Bank0Segment + 1)
	ld	(hl), #0x04
;E:/Dropbox/FAUSTO/SVILUPPI/MSX/CODE/C/MSXgl/engine/src/system.h:101: inline void Poke(u16 addr, u8 val) { *(u8*)addr = val; }
	ld	hl, #0x77ff
	ld	(hl), #0x04
;./exsoccer.c:108: V9_WriteVRAM(V9_P1_PGT_B, g_GameFieldLayerATiles_part1, sizeof(g_GameFieldLayerATiles_part1)); // Load tiles (part 1)
;E:/Dropbox/FAUSTO/SVILUPPI/MSX/CODE/C/MSXgl/engine/src/v9990.h:371: inline void V9_WriteVRAM(u32 addr, const u8* src, u16 count) { V9_SetWriteAddress(addr); V9_WriteVRAM_CurrentAddr(src, count); }
	ld	de, #0x0000
	ld	hl, #0x0004
	call	_V9_SetWriteAddress
	ld	de, #0x4000
	ld	hl, #_g_GameFieldLayerATiles_part1
	call	_V9_WriteVRAM_CurrentAddr
;E:/Dropbox/FAUSTO/SVILUPPI/MSX/CODE/C/MSXgl/engine/src/rom_mapper.h:250: g_Bank0Segment[b] = s;
	ld	hl, #(_g_Bank0Segment + 1)
	ld	(hl), #0x05
;E:/Dropbox/FAUSTO/SVILUPPI/MSX/CODE/C/MSXgl/engine/src/system.h:101: inline void Poke(u16 addr, u8 val) { *(u8*)addr = val; }
	ld	hl, #0x77ff
	ld	(hl), #0x05
;./exsoccer.c:110: V9_WriteVRAM(V9_P1_PGT_B + 16384, g_GameFieldLayerATiles_part2, sizeof(g_GameFieldLayerATiles_part2)); // Load tiles (part 2)
;E:/Dropbox/FAUSTO/SVILUPPI/MSX/CODE/C/MSXgl/engine/src/v9990.h:371: inline void V9_WriteVRAM(u32 addr, const u8* src, u16 count) { V9_SetWriteAddress(addr); V9_WriteVRAM_CurrentAddr(src, count); }
	ld	de, #0x4000
	ld	hl, #0x0004
	call	_V9_SetWriteAddress
	ld	de, #0x4000
	ld	hl, #_g_GameFieldLayerATiles_part2
	call	_V9_WriteVRAM_CurrentAddr
;E:/Dropbox/FAUSTO/SVILUPPI/MSX/CODE/C/MSXgl/engine/src/rom_mapper.h:250: g_Bank0Segment[b] = s;
	ld	hl, #(_g_Bank0Segment + 1)
	ld	(hl), #0x06
;E:/Dropbox/FAUSTO/SVILUPPI/MSX/CODE/C/MSXgl/engine/src/system.h:101: inline void Poke(u16 addr, u8 val) { *(u8*)addr = val; }
	ld	hl, #0x77ff
	ld	(hl), #0x06
;./exsoccer.c:112: V9_WriteVRAM(V9_P1_PGT_B + 16384L*2, g_GameFieldLayerATiles_part3, sizeof(g_GameFieldLayerATiles_part3)); // Load tiles (part 3)
;E:/Dropbox/FAUSTO/SVILUPPI/MSX/CODE/C/MSXgl/engine/src/v9990.h:371: inline void V9_WriteVRAM(u32 addr, const u8* src, u16 count) { V9_SetWriteAddress(addr); V9_WriteVRAM_CurrentAddr(src, count); }
	ld	de, #0x8000
	ld	hl, #0x0004
	call	_V9_SetWriteAddress
	ld	de, #0x4000
	ld	hl, #_g_GameFieldLayerATiles_part3
	call	_V9_WriteVRAM_CurrentAddr
;E:/Dropbox/FAUSTO/SVILUPPI/MSX/CODE/C/MSXgl/engine/src/rom_mapper.h:250: g_Bank0Segment[b] = s;
	ld	hl, #(_g_Bank0Segment + 1)
	ld	(hl), #0x07
;E:/Dropbox/FAUSTO/SVILUPPI/MSX/CODE/C/MSXgl/engine/src/system.h:101: inline void Poke(u16 addr, u8 val) { *(u8*)addr = val; }
	ld	hl, #0x77ff
	ld	(hl), #0x07
;./exsoccer.c:114: V9_WriteVRAM(V9_P1_PGT_B + 16384L*3, g_GameFieldLayerATiles_part4, sizeof(g_GameFieldLayerATiles_part4)); // Load tiles (part 4)
;E:/Dropbox/FAUSTO/SVILUPPI/MSX/CODE/C/MSXgl/engine/src/v9990.h:371: inline void V9_WriteVRAM(u32 addr, const u8* src, u16 count) { V9_SetWriteAddress(addr); V9_WriteVRAM_CurrentAddr(src, count); }
	ld	de, #0xc000
	ld	hl, #0x0004
	call	_V9_SetWriteAddress
	ld	de, #0x3800
	ld	hl, #_g_GameFieldLayerATiles_part4
	call	_V9_WriteVRAM_CurrentAddr
;E:/Dropbox/FAUSTO/SVILUPPI/MSX/CODE/C/MSXgl/engine/src/rom_mapper.h:250: g_Bank0Segment[b] = s;
	ld	hl, #(_g_Bank0Segment + 1)
	ld	(hl), #0x03
;E:/Dropbox/FAUSTO/SVILUPPI/MSX/CODE/C/MSXgl/engine/src/system.h:101: inline void Poke(u16 addr, u8 val) { *(u8*)addr = val; }
	ld	hl, #0x77ff
	ld	(hl), #0x03
;E:/Dropbox/FAUSTO/SVILUPPI/MSX/CODE/C/MSXgl/engine/src/v9990.h:362: inline void V9_FillVRAM16(u32 addr, u16 value, u16 count) { V9_SetWriteAddress(addr); V9_FillVRAM16_CurrentAddr(value, count); }
	ld	de, #0xe000
	ld	hl, #0x0007
	call	_V9_SetWriteAddress
	ld	de, #0x1000
	ld	hl, #0x0000
	call	_V9_FillVRAM16_CurrentAddr
;E:/Dropbox/FAUSTO/SVILUPPI/MSX/CODE/C/MSXgl/engine/src/rom_mapper.h:250: g_Bank0Segment[b] = s;
	ld	hl, #(_g_Bank0Segment + 1)
	ld	(hl), #0x03
;E:/Dropbox/FAUSTO/SVILUPPI/MSX/CODE/C/MSXgl/engine/src/system.h:101: inline void Poke(u16 addr, u8 val) { *(u8*)addr = val; }
	ld	hl, #0x77ff
	ld	(hl), #0x03
;./exsoccer.c:118: u16 tileId=0;
	ld	bc, #0x0000
;./exsoccer.c:119: for (u8 y=0;y<64;y++){
	ld	e, #0x00
00161$:
	ld	a, e
	sub	a, #0x40
	ret	NC
;./exsoccer.c:120: for (u8 x=0;x<32;x++){
	ld	d, #0x00
00158$:
	ld	a, d
	sub	a, #0x20
	jr	NC, 00181$
;./exsoccer.c:121: V9_PutLayerBTileAtPos(x,y,tileId);
	push	bc
	push	de
	push	bc
	ld	l, e
;	spillPairReg hl
;	spillPairReg hl
	ld	a, d
	call	_V9_PutLayerBTileAtPos
	pop	de
	pop	bc
;./exsoccer.c:122: tileId++;
	inc	bc
;./exsoccer.c:120: for (u8 x=0;x<32;x++){
	inc	d
	jp	00158$
00181$:
;./exsoccer.c:119: for (u8 y=0;y<64;y++){
	inc	e
;./exsoccer.c:125: }
	jp	00161$
;./exsoccer.c:127: void GameStart(){
;	---------------------------------
; Function GameStart
; ---------------------------------
_GameStart::
;E:/Dropbox/FAUSTO/SVILUPPI/MSX/CODE/C/MSXgl/engine/src/v9990.h:258: inline void V9_SetFlag(u8 reg, u8 mask, u8 flag) { V9_SetRegister(reg, V9_GetRegister(reg) & (~mask) | flag); }
	ld	a, #0x08
	call	_V9_GetRegister
	ld	l, a
;	spillPairReg hl
;	spillPairReg hl
	res	7, l
	ld	a, #0x08
	call	_V9_SetRegister
;./exsoccer.c:129: g_SecondsToEndOfMatch=MATCH_DURATION;
	ld	hl, #_g_SecondsToEndOfMatch
	ld	(hl), #0x78
;./exsoccer.c:130: g_RestartKickTeamId=TEAM_1;
	ld	hl, #_g_RestartKickTeamId
	ld	(hl), #0x00
;./exsoccer.c:131: g_FieldScrollSpeed=FIELD_SCROLL_PRESENTATION_SPEED;
	ld	hl, #_g_FieldScrollSpeed
	ld	(hl), #0x01
;./exsoccer.c:132: g_FieldScrollingActionInProgress=NO_VALUE;
	ld	hl, #_g_FieldScrollingActionInProgress
	ld	(hl), #0xff
;./exsoccer.c:133: g_FieldCurrentYPosition=FIELD_TOP_Y;
	ld	hl, #0x0001
	ld	(_g_FieldCurrentYPosition), hl
;./exsoccer.c:134: g_Team1Score=0;
	xor	a, a
	ld	(#_g_Team1Score), a
;./exsoccer.c:135: g_Team2Score=0;
	xor	a, a
	ld	(#_g_Team2Score), a
;./exsoccer.c:136: g_Team1PaletteId=TEAM_FRA;
	ld	a, #0x03
	ld	(#_g_Team1PaletteId), a
;./exsoccer.c:137: g_Team2PaletteId=TEAM_BRA;
	ld	a, #0x01
	ld	(#_g_Team2PaletteId), a
;./exsoccer.c:138: V9_SetScrollingY(0);
	ld	l, h
	call	_V9_SetScrollingY
;./exsoccer.c:139: V9_SetScrollingBY(1);
	ld	hl, #0x0001
	call	_V9_SetScrollingBY
;E:/Dropbox/FAUSTO/SVILUPPI/MSX/CODE/C/MSXgl/engine/src/rom_mapper.h:250: g_Bank0Segment[b] = s;
	ld	hl, #(_g_Bank0Segment + 1)
	ld	(hl), #0x03
;E:/Dropbox/FAUSTO/SVILUPPI/MSX/CODE/C/MSXgl/engine/src/system.h:101: inline void Poke(u16 addr, u8 val) { *(u8*)addr = val; }
	ld	hl, #0x77ff
	ld	(hl), #0x03
;./exsoccer.c:141: SetTeam1Palette();
	call	_SetTeam1Palette
;./exsoccer.c:142: SetTeam2Palette();
	call	_SetTeam2Palette
;./exsoccer.c:143: SetTeamsPresentationSpritesPosition();
	call	_SetTeamsPresentationSpritesPosition
;./exsoccer.c:144: ShowFieldZone(FIELD_CENTRAL_ZONE);
	ld	a, #0x01
	call	_ShowFieldZone
;./exsoccer.c:145: ShowHeaderInfo();
	call	_ShowHeaderInfo
;E:/Dropbox/FAUSTO/SVILUPPI/MSX/CODE/C/MSXgl/engine/src/v9990.h:258: inline void V9_SetFlag(u8 reg, u8 mask, u8 flag) { V9_SetRegister(reg, V9_GetRegister(reg) & (~mask) | flag); }
	ld	a, #0x08
	call	_V9_GetRegister
	res	7, a
	ld	l, a
;	spillPairReg hl
;	spillPairReg hl
	set	7, l
	ld	a, #0x08
;./exsoccer.c:146: V9_SetDisplayEnable(TRUE);
;./exsoccer.c:147: }
	jp	_V9_SetRegister
;./exsoccer.c:150: void InitializeV9990()
;	---------------------------------
; Function InitializeV9990
; ---------------------------------
_InitializeV9990::
;E:/Dropbox/FAUSTO/SVILUPPI/MSX/CODE/C/MSXgl/engine/src/rom_mapper.h:250: g_Bank0Segment[b] = s;
	ld	hl, #(_g_Bank0Segment + 1)
	ld	(hl), #0x03
;E:/Dropbox/FAUSTO/SVILUPPI/MSX/CODE/C/MSXgl/engine/src/system.h:101: inline void Poke(u16 addr, u8 val) { *(u8*)addr = val; }
	ld	hl, #0x77ff
	ld	(hl), #0x03
;./exsoccer.c:153: V9_SetScreenMode(V9_MODE_P1);
	xor	a, a
	call	_V9_SetScreenMode
;E:/Dropbox/FAUSTO/SVILUPPI/MSX/CODE/C/MSXgl/engine/src/v9990.h:258: inline void V9_SetFlag(u8 reg, u8 mask, u8 flag) { V9_SetRegister(reg, V9_GetRegister(reg) & (~mask) | flag); }
	ld	a, #0x08
	call	_V9_GetRegister
	ld	l, a
;	spillPairReg hl
;	spillPairReg hl
	res	7, l
	ld	a, #0x08
	call	_V9_SetRegister
;E:/Dropbox/FAUSTO/SVILUPPI/MSX/CODE/C/MSXgl/engine/src/v9990.h:574: inline void V9_SetInterrupt(u8 flags) { V9_SetRegister(9, flags); }
	ld	l, #0x00
;	spillPairReg hl
;	spillPairReg hl
	ld	a, #0x09
	call	_V9_SetRegister
;E:/Dropbox/FAUSTO/SVILUPPI/MSX/CODE/C/MSXgl/engine/src/v9990.h:480: inline void V9_SetBackgroundColor(u8 color) { V9_SetRegister(15, color); }
	ld	l, #0x01
;	spillPairReg hl
;	spillPairReg hl
	ld	a, #0x0f
	call	_V9_SetRegister
;E:/Dropbox/FAUSTO/SVILUPPI/MSX/CODE/C/MSXgl/engine/src/v9990.h:258: inline void V9_SetFlag(u8 reg, u8 mask, u8 flag) { V9_SetRegister(reg, V9_GetRegister(reg) & (~mask) | flag); }
	ld	a, #0x08
	call	_V9_GetRegister
	ld	l, a
;	spillPairReg hl
;	spillPairReg hl
	res	6, l
	ld	a, #0x08
	call	_V9_SetRegister
	ld	a, #0x08
	call	_V9_GetRegister
	res	7, a
	ld	l, a
;	spillPairReg hl
;	spillPairReg hl
	set	7, l
	ld	a, #0x08
	call	_V9_SetRegister
;./exsoccer.c:161: InitPalette();
	call	_InitPalette
;./exsoccer.c:163: LoadP1LayerA();
	call	_LoadP1LayerA
;./exsoccer.c:164: LoadP1LayerB();
	call	_LoadP1LayerB
;E:/Dropbox/FAUSTO/SVILUPPI/MSX/CODE/C/MSXgl/engine/src/v9990.h:574: inline void V9_SetInterrupt(u8 flags) { V9_SetRegister(9, flags); }
	ld	l, #0x03
;	spillPairReg hl
;	spillPairReg hl
	ld	a, #0x09
	call	_V9_SetRegister
;E:/Dropbox/FAUSTO/SVILUPPI/MSX/CODE/C/MSXgl/engine/src/v9990.h:606: inline void V9_SetInterruptLine(u16 line) { V9_SetRegister16(10, line); }
	ld	de, #0x0047
	ld	a, #0x0a
	call	_V9_SetRegister16
;E:/Dropbox/FAUSTO/SVILUPPI/MSX/CODE/C/MSXgl/engine/src/v9990.h:258: inline void V9_SetFlag(u8 reg, u8 mask, u8 flag) { V9_SetRegister(reg, V9_GetRegister(reg) & (~mask) | flag); }
	ld	a, #0x08
	call	_V9_GetRegister
	res	7, a
	ld	l, a
;	spillPairReg hl
;	spillPairReg hl
	set	7, l
	ld	a, #0x08
;./exsoccer.c:168: V9_SetDisplayEnable(TRUE);
;./exsoccer.c:170: }
	jp	_V9_SetRegister
;./exsoccer.c:173: void LoadSprites(){
;	---------------------------------
; Function LoadSprites
; ---------------------------------
_LoadSprites::
;E:/Dropbox/FAUSTO/SVILUPPI/MSX/CODE/C/MSXgl/engine/src/rom_mapper.h:250: g_Bank0Segment[b] = s;
	ld	hl, #(_g_Bank0Segment + 1)
	ld	(hl), #0x09
;E:/Dropbox/FAUSTO/SVILUPPI/MSX/CODE/C/MSXgl/engine/src/system.h:101: inline void Poke(u16 addr, u8 val) { *(u8*)addr = val; }
	ld	hl, #0x77ff
	ld	(hl), #0x09
;E:/Dropbox/FAUSTO/SVILUPPI/MSX/CODE/C/MSXgl/engine/src/v9990.h:739: inline void V9_SetSpritePatternAddr(u8 addr) { V9_SetRegister(25, addr); }
	ld	l, #0x02
;	spillPairReg hl
;	spillPairReg hl
	ld	a, #0x19
	call	_V9_SetRegister
;./exsoccer.c:177: V9_WriteVRAM(0x08000, g_Sprites1, sizeof(g_Sprites1));	
;E:/Dropbox/FAUSTO/SVILUPPI/MSX/CODE/C/MSXgl/engine/src/v9990.h:371: inline void V9_WriteVRAM(u32 addr, const u8* src, u16 count) { V9_SetWriteAddress(addr); V9_WriteVRAM_CurrentAddr(src, count); }
	ld	de, #0x8000
	ld	hl, #0x0000
	call	_V9_SetWriteAddress
	ld	de, #0x4000
	ld	hl, #_g_Sprites1
	call	_V9_WriteVRAM_CurrentAddr
;E:/Dropbox/FAUSTO/SVILUPPI/MSX/CODE/C/MSXgl/engine/src/rom_mapper.h:250: g_Bank0Segment[b] = s;
	ld	hl, #(_g_Bank0Segment + 1)
	ld	(hl), #0x0a
;E:/Dropbox/FAUSTO/SVILUPPI/MSX/CODE/C/MSXgl/engine/src/system.h:101: inline void Poke(u16 addr, u8 val) { *(u8*)addr = val; }
	ld	hl, #0x77ff
	ld	(hl), #0x0a
;./exsoccer.c:179: V9_WriteVRAM(0x08000+sizeof(g_Sprites1), g_Sprites2, sizeof(g_Sprites2));	
;E:/Dropbox/FAUSTO/SVILUPPI/MSX/CODE/C/MSXgl/engine/src/v9990.h:371: inline void V9_WriteVRAM(u32 addr, const u8* src, u16 count) { V9_SetWriteAddress(addr); V9_WriteVRAM_CurrentAddr(src, count); }
	ld	de, #0xc000
	ld	hl, #0x0000
	call	_V9_SetWriteAddress
	ld	de, #0x4000
	ld	hl, #_g_Sprites2
	call	_V9_WriteVRAM_CurrentAddr
;E:/Dropbox/FAUSTO/SVILUPPI/MSX/CODE/C/MSXgl/engine/src/rom_mapper.h:250: g_Bank0Segment[b] = s;
	ld	hl, #(_g_Bank0Segment + 1)
	ld	(hl), #0x03
;E:/Dropbox/FAUSTO/SVILUPPI/MSX/CODE/C/MSXgl/engine/src/system.h:101: inline void Poke(u16 addr, u8 val) { *(u8*)addr = val; }
	ld	hl, #0x77ff
	ld	(hl), #0x03
;./exsoccer.c:180: SET_BANK_SEGMENT(1, 3); // Bank 1 = Segment 3
;./exsoccer.c:181: }
	ret
;./exsoccer.c:184: void main()
;	---------------------------------
; Function main
; ---------------------------------
_main::
	push	ix
	ld	ix,#0
	add	ix,sp
	dec	sp
;./exsoccer.c:186: DEBUG_INIT();
	call	_DEBUG_INIT
;E:/Dropbox/FAUSTO/SVILUPPI/MSX/CODE/C/MSXgl/engine/src/rom_mapper.h:250: g_Bank0Segment[b] = s;
	ld	hl, #(_g_Bank0Segment + 1)
	ld	(hl), #0x03
;E:/Dropbox/FAUSTO/SVILUPPI/MSX/CODE/C/MSXgl/engine/src/system.h:101: inline void Poke(u16 addr, u8 val) { *(u8*)addr = val; }
	ld	hl, #0x77ff
	ld	(hl), #0x03
;./exsoccer.c:188: InitVariables();
	call	_InitVariables
;./exsoccer.c:190: V9_SetPort(V9_P15, 0);
	ld	l, #0x00
;	spillPairReg hl
;	spillPairReg hl
	ld	a, #0x6f
	call	_V9_SetPort
;./exsoccer.c:192: VDP_SetMode(VDP_MODE_SCREEN0);
	xor	a, a
	call	_VDP_SetMode
;E:/Dropbox/FAUSTO/SVILUPPI/MSX/CODE/C/MSXgl/engine/src/vdp.h:712: inline void VDP_EnableVBlank(bool enable) { VDP_RegWriteBakMask(1, (u8)~R01_IE0, enable ? R01_IE0 : 0); }
	xor	a, a
	push	af
	inc	sp
	ld	l, #0xdf
;	spillPairReg hl
;	spillPairReg hl
	ld	a, #0x01
	call	_VDP_RegWriteBakMask
;./exsoccer.c:194: VDP_ClearVRAM();
	call	_VDP_ClearVRAM
;./exsoccer.c:197: Bios_SetHookDirectCallback(H_KEYI, InterruptHook);
	ld	bc, #_InterruptHook
;E:/Dropbox/FAUSTO/SVILUPPI/MSX/CODE/C/MSXgl/engine/src/bios_hook.h:37: *((u8*)hook) = 0xC3; // JUMP
	ld	hl, #0xfd9a
	ld	(hl), #0xc3
;E:/Dropbox/FAUSTO/SVILUPPI/MSX/CODE/C/MSXgl/engine/src/bios_hook.h:38: *((callback*)++hook) = cb; // Callback address
	ld	(0xfd9b), bc
;E:/Dropbox/FAUSTO/SVILUPPI/MSX/CODE/C/MSXgl/engine/src/bios_hook.h:62: *((u8*)hook) = 0xC9; // RET
	ld	l, #0x9f
	ld	(hl), #0xc9
;./exsoccer.c:201: Print_SetTextFont(g_Font_MGL_Sample6, 1);
	ld	a, #0x01
	push	af
	inc	sp
	ld	hl, #_g_Font_MGL_Sample6
	call	_Print_SetTextFont
;./exsoccer.c:202: Print_SetColor(15, 1);
	ld	l, #0x01
;	spillPairReg hl
;	spillPairReg hl
	ld	a, #0x0f
	call	_Print_SetColor
;E:/Dropbox/FAUSTO/SVILUPPI/MSX/CODE/C/MSXgl/engine/src/print.h:223: g_PrintData.CursorX = x;
	ld	bc, #_g_PrintData + 5
	xor	a, a
	ld	(bc), a
;E:/Dropbox/FAUSTO/SVILUPPI/MSX/CODE/C/MSXgl/engine/src/print.h:224: g_PrintData.CursorY = y;
	ld	hl, #(_g_PrintData + 6)
	ld	(hl), #0x00
;./exsoccer.c:204: Print_DrawText("EX Soccer - 2026 Fausto Pracek");
	push	bc
	ld	hl, #___str_1
	call	_Print_DrawText
	pop	bc
;E:/Dropbox/FAUSTO/SVILUPPI/MSX/CODE/C/MSXgl/engine/src/print.h:223: g_PrintData.CursorX = x;
	xor	a, a
	ld	(bc), a
;E:/Dropbox/FAUSTO/SVILUPPI/MSX/CODE/C/MSXgl/engine/src/print.h:224: g_PrintData.CursorY = y;
	ld	hl, #(_g_PrintData + 6)
	ld	(hl), #0x01
;./exsoccer.c:206: Print_DrawText("fpracek@gmail.com");
	push	bc
	ld	hl, #___str_2
	call	_Print_DrawText
	pop	bc
;./exsoccer.c:208: const c8* str = "V9990 not found!";
	ld	de, #___str_0+0
;./exsoccer.c:209: bool v9990IsFound=V9_Detect();
	push	bc
	push	de
	call	_V9_Detect
	pop	de
	pop	bc
	ld	-1 (ix), a
;./exsoccer.c:211: if (v9990IsFound){
	or	a, a
	jr	Z, 00102$
;./exsoccer.c:212: str = "V9990 found!";
	ld	de, #___str_3
;E:/Dropbox/FAUSTO/SVILUPPI/MSX/CODE/C/MSXgl/engine/src/print.h:223: g_PrintData.CursorX = x;
	xor	a, a
	ld	(bc), a
;E:/Dropbox/FAUSTO/SVILUPPI/MSX/CODE/C/MSXgl/engine/src/print.h:224: g_PrintData.CursorY = y;
	ld	hl, #(_g_PrintData + 6)
	ld	(hl), #0x07
;./exsoccer.c:214: Print_DrawText("The game is running on V9990 monitor.");
	push	bc
	push	de
	ld	hl, #___str_4
	call	_Print_DrawText
	pop	de
	pop	bc
00102$:
;E:/Dropbox/FAUSTO/SVILUPPI/MSX/CODE/C/MSXgl/engine/src/print.h:223: g_PrintData.CursorX = x;
	xor	a, a
	ld	(bc), a
;E:/Dropbox/FAUSTO/SVILUPPI/MSX/CODE/C/MSXgl/engine/src/print.h:224: g_PrintData.CursorY = y;
	ld	hl, #(_g_PrintData + 6)
	ld	(hl), #0x03
;./exsoccer.c:217: Print_DrawText(str);
	ex	de, hl
	call	_Print_DrawText
;./exsoccer.c:218: if(!v9990IsFound){
	ld	a, -1 (ix)
	or	a, a
	jr	NZ, 00105$
00129$:
	jp	00129$
00105$:
;./exsoccer.c:223: InitializeV9990();
	call	_InitializeV9990
;./exsoccer.c:224: LoadSprites();
	call	_LoadSprites
;./exsoccer.c:225: V9_SetPort(V9_P15, 0x10);
	ld	l, #0x10
;	spillPairReg hl
;	spillPairReg hl
	ld	a, #0x6f
	call	_V9_SetPort
;./exsoccer.c:227: GameStart();
	call	_GameStart
00130$:
;./exsoccer.c:229: UpdateV9990();
	call	_UpdateV9990
;./exsoccer.c:230: TickPlayerToOwnTarget();
	call	_TickPlayerToOwnTarget
;./exsoccer.c:231: TickActiveFieldZone();
	call	_TickActiveFieldZone
;./exsoccer.c:232: UpdateSpritesPositions();
	call	_UpdateSpritesPositions
;./exsoccer.c:233: TickUpdateTime();
	call	_TickUpdateTime
;./exsoccer.c:234: TickShowKickOff();
	call	_TickShowKickOff
;./exsoccer.c:245: if(g_FieldScrollingActionInProgress==NO_VALUE){
	ld	a, (_g_FieldScrollingActionInProgress+0)
	inc	a
	jr	NZ, 00130$
;./exsoccer.c:246: g_Ball.PreviousY=g_Ball.Y;
	ld	bc, (#_g_Ball + 0)
	ld	((_g_Ball + 7)), bc
;./exsoccer.c:247: if(GetJoystick1Direction()==JOYSTICK_DOWN){
	call	_GetJoystick1Direction
	sub	a, #0x05
	jr	NZ, 00107$
;./exsoccer.c:248: g_Ball.Y++;
	ld	bc, (#_g_Ball + 0)
	inc	bc
	ld	(_g_Ball), bc
00107$:
;./exsoccer.c:250: if(GetJoystick1Direction()==JOYSTICK_UP){
	call	_GetJoystick1Direction
	dec	a
	jr	NZ, 00130$
;./exsoccer.c:251: g_Ball.Y--;
	ld	bc, (#_g_Ball + 0)
	dec	bc
	ld	(_g_Ball), bc
	jp	00130$
;./exsoccer.c:256: Bios_Exit(0);
;./exsoccer.c:257: }
	inc	sp
	pop	ix
	ret
___str_0:
	.ascii "V9990 not found!"
	.db 0x00
___str_1:
	.ascii "EX Soccer - 2026 Fausto Pracek"
	.db 0x00
___str_2:
	.ascii "fpracek@gmail.com"
	.db 0x00
___str_3:
	.ascii "V9990 found!"
	.db 0x00
___str_4:
	.ascii "The game is running on V9990 monitor."
	.db 0x00
	.area _CODE
	.area _INITIALIZER
__xinit__g_VSynch:
	.db #0x00	; 0
__xinit__g_FieldCurrentYPosition:
	.dw #0x0000
__xinit__g_FieldScrollingActionInProgress:
	.db #0x00	; 0
__xinit__g_PlayersPositioningPhaseCount:
	.db #0xff	; 255
__xinit__g_MatchStatus:
	.db #0x00	; 0
__xinit__g_FieldScrollSpeed:
	.db #0x01	; 1
__xinit__g_Timer:
	.db #0xff	; 255
	.area _CABS (ABS)
