                                      1 ;--------------------------------------------------------
                                      2 ; File Created by SDCC : free open source ANSI-C Compiler
                                      3 ; Version 4.2.0 #13081 (MINGW64)
                                      4 ;--------------------------------------------------------
                                      5 	.module exsoccer_s3_b1
                                      6 	.optsdcc -mz80
                                      7 	
                                      8 ;--------------------------------------------------------
                                      9 ; Public variables in this module
                                     10 ;--------------------------------------------------------
                                     11 	.globl _V9_SetPaletteEntry
                                     12 	.globl _V9_SetScrollingBY
                                     13 	.globl _V9_Poke16_CurrentAddr
                                     14 	.globl _V9_WriteVRAM_CurrentAddr
                                     15 	.globl _V9_SetWriteAddress
                                     16 	.globl _V9_SetRegister
                                     17 	.globl _g_SLTSL
                                     18 	.globl _g_GRPACY
                                     19 	.globl _g_GRPACX
                                     20 	.globl _g_LOGOPR
                                     21 	.globl _g_CMASK
                                     22 	.globl _g_CLOC
                                     23 	.globl _g_FNKSTR
                                     24 	.globl _g_ATRBYT
                                     25 	.globl _g_BDRCLR
                                     26 	.globl _g_BAKCLR
                                     27 	.globl _g_FORCLR
                                     28 	.globl _g_CSRX
                                     29 	.globl _g_CSRY
                                     30 	.globl _g_CLIKSW
                                     31 	.globl _g_MLTPAT
                                     32 	.globl _g_MLTATR
                                     33 	.globl _g_MLTCGP
                                     34 	.globl _g_MLTCOL
                                     35 	.globl _g_MLTNAM
                                     36 	.globl _g_GRPPAT
                                     37 	.globl _g_GRPATR
                                     38 	.globl _g_GRPCGP
                                     39 	.globl _g_GRPCOL
                                     40 	.globl _g_GRPNAM
                                     41 	.globl _g_T32PAT
                                     42 	.globl _g_T32ATR
                                     43 	.globl _g_T32CGP
                                     44 	.globl _g_T32COL
                                     45 	.globl _g_T32NAM
                                     46 	.globl _g_TXTPAT
                                     47 	.globl _g_TXTATR
                                     48 	.globl _g_TXTCGP
                                     49 	.globl _g_TXTCOL
                                     50 	.globl _g_TXTNAM
                                     51 	.globl _g_CLMLST
                                     52 	.globl _g_CRTCNT
                                     53 	.globl _g_LINLEN
                                     54 	.globl _g_LINL32
                                     55 	.globl _g_LINL40
                                     56 	.globl _g_Sprites1_palette_bra
                                     57 	.globl _g_Sprites1_palette_gbr
                                     58 	.globl _g_Sprites1_palette_ger
                                     59 	.globl _g_Sprites1_palette_fra
                                     60 	.globl _g_Sprites1_palette_aus
                                     61 	.globl _g_Sprites1_palette_ita
                                     62 	.globl _g_GameFieldLayerBTilesPalette
                                     63 	.globl _g_GameFieldLayerATilesPalette
                                     64 	.globl _g_BDOS
                                     65 	.globl _g_MASTER
                                     66 	.globl _g_RAMAD3
                                     67 	.globl _g_RAMAD2
                                     68 	.globl _g_RAMAD1
                                     69 	.globl _g_RAMAD0
                                     70 	.globl _g_BREAKV
                                     71 	.globl _g_DISKVE
                                     72 	.globl _g_KANJTABLE
                                     73 	.globl _g_STRSRC
                                     74 	.globl _g_SUBRID
                                     75 	.globl _g_CHAR_16
                                     76 	.globl _g_MSXMID
                                     77 	.globl _g_MSXVER
                                     78 	.globl _g_ROMVersion
                                     79 	.globl _g_BASRVN
                                     80 	.globl _g_VDP_DW
                                     81 	.globl _g_VDP_DR
                                     82 	.globl _g_CGTABL
                                     83 	.globl _g_SVFFFD
                                     84 	.globl _g_RG27SAV
                                     85 	.globl _g_RG26SAV
                                     86 	.globl _g_RG25SAV
                                     87 	.globl _g_SVFFF8
                                     88 	.globl _g_MINROM
                                     89 	.globl _g_RG23SAV
                                     90 	.globl _g_RG22SAV
                                     91 	.globl _g_RG21SAV
                                     92 	.globl _g_RG20SAV
                                     93 	.globl _g_RG19SAV
                                     94 	.globl _g_RG18SAV
                                     95 	.globl _g_RG17SAV
                                     96 	.globl _g_RG16SAV
                                     97 	.globl _g_RG15SAV
                                     98 	.globl _g_RG14SAV
                                     99 	.globl _g_RG13SAV
                                    100 	.globl _g_RG12SAV
                                    101 	.globl _g_RG11SAV
                                    102 	.globl _g_RG10SAV
                                    103 	.globl _g_RG09SAV
                                    104 	.globl _g_RG08SAV
                                    105 	.globl _g_PROCNM
                                    106 	.globl _g_SLTWRK
                                    107 	.globl _g_SLTATR
                                    108 	.globl _g_SLTTBL
                                    109 	.globl _g_EXPTBL
                                    110 	.globl _g_MNROM
                                    111 	.globl _g_DRWANG
                                    112 	.globl _g_DRWSCL
                                    113 	.globl _g_DRWFLG
                                    114 	.globl _g_GYPOS
                                    115 	.globl _g_GXPOS
                                    116 	.globl _g_BRDATR
                                    117 	.globl _g_CASPRV
                                    118 	.globl _g_OLDSCR
                                    119 	.globl _g_SCRMOD
                                    120 	.globl _g_FLBMEM
                                    121 	.globl _g_KANAMD
                                    122 	.globl _g_KANAST
                                    123 	.globl _g_CAPST
                                    124 	.globl _g_CSTYLE
                                    125 	.globl _g_CSRSW
                                    126 	.globl _g_INSFLG
                                    127 	.globl _g_ESCCNT
                                    128 	.globl _g_GRPHED
                                    129 	.globl _g_WINWID
                                    130 	.globl _g_LOWLIM
                                    131 	.globl _g_INTCNT
                                    132 	.globl _g_INTVAL
                                    133 	.globl _g_JIFFY
                                    134 	.globl _g_PADX
                                    135 	.globl _g_PADY
                                    136 	.globl _g_INTFLG
                                    137 	.globl _g_RTYCNT
                                    138 	.globl _g_TRPTBL
                                    139 	.globl _g_HIMEM
                                    140 	.globl _g_BOTTOM
                                    141 	.globl _g_PATWRK
                                    142 	.globl _g_LINWRK
                                    143 	.globl _g_KEYBUF
                                    144 	.globl _g_NEWKEY
                                    145 	.globl _g_OLDKEY
                                    146 	.globl _g_CLIKFL
                                    147 	.globl _g_ONGSBF
                                    148 	.globl _g_FNKFLG
                                    149 	.globl _g_FNKSWI
                                    150 	.globl _g_CODSAV
                                    151 	.globl _g_FSTPOS
                                    152 	.globl _g_LINTTB
                                    153 	.globl _g_BASROM
                                    154 	.globl _g_ENSTOP
                                    155 	.globl _g_VCBC
                                    156 	.globl _g_VCBB
                                    157 	.globl _g_VCBA
                                    158 	.globl _g_PLYCNT
                                    159 	.globl _g_MUSICF
                                    160 	.globl _g_QUEUEN
                                    161 	.globl _g_MCLPTR
                                    162 	.globl _g_MCLLEN
                                    163 	.globl _g_SAVVOL
                                    164 	.globl _g_VOICEN
                                    165 	.globl _g_SAVSP
                                    166 	.globl _g_PRSCNT
                                    167 	.globl _g_LSTMOD
                                    168 	.globl _g_LSTCOM
                                    169 	.globl _g_COMMSK
                                    170 	.globl _g_ESTBLS
                                    171 	.globl _g_FLAGS
                                    172 	.globl _g_ERRORS
                                    173 	.globl _g_DATCNT
                                    174 	.globl _g_DEVNUM
                                    175 	.globl _g_OLDINT
                                    176 	.globl _g_OLDSTT
                                    177 	.globl _g_MEXBIh
                                    178 	.globl _g_RSIQLN
                                    179 	.globl _g_RSFCB
                                    180 	.globl _g_TOCNT
                                    181 	.globl _g_RSTMP
                                    182 	.globl _g_YSAVE
                                    183 	.globl _g_XSAVE
                                    184 	.globl _g_NORUSE
                                    185 	.globl _g_MODE
                                    186 	.globl _g_ROMA
                                    187 	.globl _g_CHRCNT
                                    188 	.globl _g_EXBRSA
                                    189 	.globl _g_AVCSAV
                                    190 	.globl _g_ACPAGE
                                    191 	.globl _g_DPPAGE
                                    192 	.globl _g_RS2IQ
                                    193 	.globl _g_VOICCQ
                                    194 	.globl _g_VOICBQ
                                    195 	.globl _g_VOICAQ
                                    196 	.globl _g_QUEBAK
                                    197 	.globl _g_QUETAB
                                    198 	.globl _g_ASPCT2
                                    199 	.globl _g_ASPCT1
                                    200 	.globl _g_HEADER
                                    201 	.globl _g_HIGH
                                    202 	.globl _g_LOW
                                    203 	.globl _g_CS240
                                    204 	.globl _g_CS120
                                    205 	.globl _g_GETPNT
                                    206 	.globl _g_PUTPNT
                                    207 	.globl _g_REPCNT
                                    208 	.globl _g_SCNCNT
                                    209 	.globl _g_FRCNEW
                                    210 	.globl _g_QUEUES
                                    211 	.globl _g_MINUPD
                                    212 	.globl _g_MAXUPD
                                    213 	.globl _g_TRGFLG
                                    214 	.globl _g_STATFL
                                    215 	.globl _g_RG7SAV
                                    216 	.globl _g_RG6SAV
                                    217 	.globl _g_RG5SAV
                                    218 	.globl _g_RG4SAV
                                    219 	.globl _g_RG3SAV
                                    220 	.globl _g_RG2SAV
                                    221 	.globl _g_RG1SAV
                                    222 	.globl _g_RG0SAV
                                    223 	.globl _g_CNSDFG
                                    224 	.globl _g_USRTAB
                                    225 	.globl _g_CLPRIM
                                    226 	.globl _g_WRPRIM
                                    227 	.globl _g_RDPRIM
                                    228 	.globl _V9_PrintLayerAStringAtPos
                                    229 	.globl _InitPalette
                                    230 	.globl _UpdateV9990
                                    231 	.globl _InitVariables
                                    232 	.globl _WaitV9990Synch
                                    233 	.globl _TickP1
                                    234 	.globl _TickActiveFieldZone
                                    235 	.globl _TickUpdateTime
                                    236 	.globl _TickFieldScrollingAction
                                    237 	.globl _TickShowKickOff
                                    238 	.globl _GetPlayerIdByRole
                                    239 	.globl _PutBallOnPlayerFeet
                                    240 	.globl _SetPlayerTarget
                                    241 	.globl _UpdateSpritesPositions
                                    242 	.globl _PutBallSprite
                                    243 	.globl _ShowHeaderInfo
                                    244 	.globl _SetTeam1Palette
                                    245 	.globl _SetTeam2Palette
                                    246 	.globl _GetTeamPaletteById
                                    247 	.globl _V9_PutLayerATileAtPos
                                    248 	.globl _V9_PutLayerBTileAtPos
                                    249 	.globl _PutPlayerSprite
                                    250 	.globl _UpdatePlayerPatternByDirection
                                    251 	.globl _SetTeamsPresentationSpritesPosition
                                    252 	.globl _ResetPlayersInfo
                                    253 	.globl _ClearTextFromLayerA
                                    254 	.globl _TickPlayerToOwnTarget
                                    255 	.globl _GetNewPoseByDirection
                                    256 	.globl _GetPatternIdByPoseAndDirection
                                    257 	.globl _GetNumberString
                                    258 	.globl _CheckJoystickTriggerButtonPressed
                                    259 	.globl _GetJoystick1Direction
                                    260 	.globl _GetJoystick2Direction
                                    261 	.globl _ShowFieldZone
                                    262 	.globl _TimeUp
                                    263 ;--------------------------------------------------------
                                    264 ; special function registers
                                    265 ;--------------------------------------------------------
                         000000A8   266 _g_PortPrimarySlot	=	0x00a8
                         000000A9   267 _g_PortReadKeyboard	=	0x00a9
                         000000AA   268 _g_PortAccessKeyboard	=	0x00aa
                         000000AB   269 _g_PortControl	=	0x00ab
                         00000098   270 _g_VDP_DataPort	=	0x0098
                         00000099   271 _g_VDP_RegPort	=	0x0099
                         00000099   272 _g_VDP_AddrPort	=	0x0099
                         00000099   273 _g_VDP_StatPort	=	0x0099
                         000000A0   274 _g_PSG_RegPort	=	0x00a0
                         000000A1   275 _g_PSG_DataPort	=	0x00a1
                         000000A2   276 _g_PSG_StatPort	=	0x00a2
                         00000010   277 _g_PSG_Ext_RegPort	=	0x0010
                         00000011   278 _g_PSG_Ext_DataPort	=	0x0011
                         00000012   279 _g_PSG_Ext_StatPort	=	0x0012
                         0000007C   280 _g_MSXMusic_IndexPort	=	0x007c
                         0000007D   281 _g_MSXMusic_DataPort	=	0x007d
                         000000C0   282 _g_MSXAudio_IndexPort	=	0x00c0
                         000000C1   283 _g_MSXAudio_DataPort	=	0x00c1
                         000000C2   284 _g_MSXAudio_IndexPort2	=	0x00c2
                         000000C3   285 _g_MSXAudio_DataPort2	=	0x00c3
                         000000B4   286 _g_RTC_AddrPort	=	0x00b4
                         000000B5   287 _g_RTC_DataPort	=	0x00b5
                         00000060   288 _g_V9_VRAMPort	=	0x0060
                         00000061   289 _g_V9_PalettePort	=	0x0061
                         00000062   290 _g_V9_CmdDataPort	=	0x0062
                         00000063   291 _g_V9_RegDataPort	=	0x0063
                         00000064   292 _g_V9_RegSelectPort	=	0x0064
                         00000065   293 _g_V9_SatusPort	=	0x0065
                         00000066   294 _g_V9_IntFlagPort	=	0x0066
                         00000067   295 _g_V9_SysCtrlPort	=	0x0067
                         00000068   296 _g_V9_KanjiAddrLPort	=	0x0068
                         00000069   297 _g_V9_KanjiAddrHPort	=	0x0069
                         00000069   298 _g_V9_KanjiDataPort	=	0x0069
                         0000006A   299 _g_V9_Kanji2AddrLPort	=	0x006a
                         0000006B   300 _g_V9_Kanji2AddrHPort	=	0x006b
                         0000006B   301 _g_V9_Kanji2DataPort	=	0x006b
                         0000006F   302 _g_V9_OutputCtrPort	=	0x006f
                                    303 ;--------------------------------------------------------
                                    304 ; ram data
                                    305 ;--------------------------------------------------------
                                    306 	.area _DATA
                         0000F3AE   307 _g_LINL40	=	0xf3ae
                         0000F3AF   308 _g_LINL32	=	0xf3af
                         0000F3B0   309 _g_LINLEN	=	0xf3b0
                         0000F3B1   310 _g_CRTCNT	=	0xf3b1
                         0000F3B2   311 _g_CLMLST	=	0xf3b2
                         0000F3B3   312 _g_TXTNAM	=	0xf3b3
                         0000F3B5   313 _g_TXTCOL	=	0xf3b5
                         0000F3B7   314 _g_TXTCGP	=	0xf3b7
                         0000F3B9   315 _g_TXTATR	=	0xf3b9
                         0000F3BB   316 _g_TXTPAT	=	0xf3bb
                         0000F3BD   317 _g_T32NAM	=	0xf3bd
                         0000F3BF   318 _g_T32COL	=	0xf3bf
                         0000F3C1   319 _g_T32CGP	=	0xf3c1
                         0000F3C3   320 _g_T32ATR	=	0xf3c3
                         0000F3C5   321 _g_T32PAT	=	0xf3c5
                         0000F3C7   322 _g_GRPNAM	=	0xf3c7
                         0000F3C9   323 _g_GRPCOL	=	0xf3c9
                         0000F3CB   324 _g_GRPCGP	=	0xf3cb
                         0000F3CD   325 _g_GRPATR	=	0xf3cd
                         0000F3CF   326 _g_GRPPAT	=	0xf3cf
                         0000F3D1   327 _g_MLTNAM	=	0xf3d1
                         0000F3D3   328 _g_MLTCOL	=	0xf3d3
                         0000F3D5   329 _g_MLTCGP	=	0xf3d5
                         0000F3D7   330 _g_MLTATR	=	0xf3d7
                         0000F3D9   331 _g_MLTPAT	=	0xf3d9
                         0000F3DB   332 _g_CLIKSW	=	0xf3db
                         0000F3DC   333 _g_CSRY	=	0xf3dc
                         0000F3DD   334 _g_CSRX	=	0xf3dd
                         0000F3E9   335 _g_FORCLR	=	0xf3e9
                         0000F3EA   336 _g_BAKCLR	=	0xf3ea
                         0000F3EB   337 _g_BDRCLR	=	0xf3eb
                         0000F3F2   338 _g_ATRBYT	=	0xf3f2
                         0000F87F   339 _g_FNKSTR	=	0xf87f
                         0000F92A   340 _g_CLOC	=	0xf92a
                         0000F92C   341 _g_CMASK	=	0xf92c
                         0000FB02   342 _g_LOGOPR	=	0xfb02
                         0000FCB7   343 _g_GRPACX	=	0xfcb7
                         0000FCB9   344 _g_GRPACY	=	0xfcb9
                         0000FFFF   345 _g_SLTSL	=	0xffff
    00000000                        346 _GetNumberString_str_65536_1318:
    00000000                        347 	.ds 5
                                    348 ;--------------------------------------------------------
                                    349 ; ram data
                                    350 ;--------------------------------------------------------
                                    351 	.area _INITIALIZED
                                    352 ;--------------------------------------------------------
                                    353 ; absolute external ram data
                                    354 ;--------------------------------------------------------
                                    355 	.area _DABS (ABS)
                                    356 ;--------------------------------------------------------
                                    357 ; global & static initialisations
                                    358 ;--------------------------------------------------------
                                    359 	.area _HOME
                                    360 	.area _GSINIT
                                    361 	.area _GSFINAL
                                    362 	.area _GSINIT
                                    363 ;--------------------------------------------------------
                                    364 ; Home
                                    365 ;--------------------------------------------------------
                                    366 	.area _HOME
                                    367 	.area _HOME
                                    368 ;--------------------------------------------------------
                                    369 ; code
                                    370 ;--------------------------------------------------------
                                    371 	.area _SEG3
                                    372 ;E:\Dropbox\FAUSTO\SVILUPPI\MSX\CODE\C\MSXgl\projects\exsoccer/exsoccer_s3_b1.c:190: void V9_PrintLayerAStringAtPos(u8 x, u8 y, const c8* str)
                                    373 ;	---------------------------------
                                    374 ; Function V9_PrintLayerAStringAtPos
                                    375 ; ---------------------------------
    00000000                        376 _V9_PrintLayerAStringAtPos::
    00000000 DD E5            [15]  377 	push	ix
    00000002 DD 21 00 00      [14]  378 	ld	ix,#0
    00000006 DD 39            [15]  379 	add	ix,sp
    00000008 4F               [ 4]  380 	ld	c, a
    00000009 45               [ 4]  381 	ld	b, l
                                    382 ;E:\Dropbox\FAUSTO\SVILUPPI\MSX\CODE\C\MSXgl\projects\exsoccer/exsoccer_s3_b1.c:193: while (*str != 0){
    0000000A DD 5E 04         [19]  383 	ld	e, 4 (ix)
    0000000D DD 56 05         [19]  384 	ld	d, 5 (ix)
    00000010                        385 00101$:
    00000010 1A               [ 7]  386 	ld	a, (de)
    00000011 B7               [ 4]  387 	or	a, a
    00000012 28 12            [12]  388 	jr	Z, 00104$
                                    389 ;E:\Dropbox\FAUSTO\SVILUPPI\MSX\CODE\C\MSXgl\projects\exsoccer/exsoccer_s3_b1.c:194: V9_PutLayerATileAtPos(x,y,*(str++));
    00000014 13               [ 6]  390 	inc	de
    00000015 26 00            [ 7]  391 	ld	h, #0x00
                                    392 ;	spillPairReg hl
                                    393 ;	spillPairReg hl
    00000017 C5               [11]  394 	push	bc
    00000018 D5               [11]  395 	push	de
    00000019 6F               [ 4]  396 	ld	l, a
                                    397 ;	spillPairReg hl
                                    398 ;	spillPairReg hl
    0000001A E5               [11]  399 	push	hl
    0000001B 68               [ 4]  400 	ld	l, b
                                    401 ;	spillPairReg hl
                                    402 ;	spillPairReg hl
    0000001C 79               [ 4]  403 	ld	a, c
    0000001D CDr64r0B         [17]  404 	call	_V9_PutLayerATileAtPos
    00000020 D1               [10]  405 	pop	de
    00000021 C1               [10]  406 	pop	bc
                                    407 ;E:\Dropbox\FAUSTO\SVILUPPI\MSX\CODE\C\MSXgl\projects\exsoccer/exsoccer_s3_b1.c:195: x++;
    00000022 0C               [ 4]  408 	inc	c
                                    409 ;E:\Dropbox\FAUSTO\SVILUPPI\MSX\CODE\C\MSXgl\projects\exsoccer/exsoccer_s3_b1.c:196: pos++;
    00000023 C3r10r00         [10]  410 	jp	00101$
    00000026                        411 00104$:
                                    412 ;E:\Dropbox\FAUSTO\SVILUPPI\MSX\CODE\C\MSXgl\projects\exsoccer/exsoccer_s3_b1.c:199: }
    00000026 DD E1            [14]  413 	pop	ix
    00000028 E1               [10]  414 	pop	hl
    00000029 F1               [10]  415 	pop	af
    0000002A E9               [ 4]  416 	jp	(hl)
                         0000F380   417 _g_RDPRIM	=	0xf380
                         0000F385   418 _g_WRPRIM	=	0xf385
                         0000F38C   419 _g_CLPRIM	=	0xf38c
                         0000F39A   420 _g_USRTAB	=	0xf39a
                         0000F3DE   421 _g_CNSDFG	=	0xf3de
                         0000F3DF   422 _g_RG0SAV	=	0xf3df
                         0000F3E0   423 _g_RG1SAV	=	0xf3e0
                         0000F3E1   424 _g_RG2SAV	=	0xf3e1
                         0000F3E2   425 _g_RG3SAV	=	0xf3e2
                         0000F3E3   426 _g_RG4SAV	=	0xf3e3
                         0000F3E4   427 _g_RG5SAV	=	0xf3e4
                         0000F3E5   428 _g_RG6SAV	=	0xf3e5
                         0000F3E6   429 _g_RG7SAV	=	0xf3e6
                         0000F3E7   430 _g_STATFL	=	0xf3e7
                         0000F3E8   431 _g_TRGFLG	=	0xf3e8
                         0000F3EC   432 _g_MAXUPD	=	0xf3ec
                         0000F3EF   433 _g_MINUPD	=	0xf3ef
                         0000F3F3   434 _g_QUEUES	=	0xf3f3
                         0000F3F5   435 _g_FRCNEW	=	0xf3f5
                         0000F3F6   436 _g_SCNCNT	=	0xf3f6
                         0000F3F7   437 _g_REPCNT	=	0xf3f7
                         0000F3F8   438 _g_PUTPNT	=	0xf3f8
                         0000F3FA   439 _g_GETPNT	=	0xf3fa
                         0000F3FC   440 _g_CS120	=	0xf3fc
                         0000F401   441 _g_CS240	=	0xf401
                         0000F406   442 _g_LOW	=	0xf406
                         0000F408   443 _g_HIGH	=	0xf408
                         0000F40A   444 _g_HEADER	=	0xf40a
                         0000F40B   445 _g_ASPCT1	=	0xf40b
                         0000F40D   446 _g_ASPCT2	=	0xf40d
                         0000F959   447 _g_QUETAB	=	0xf959
                         0000F971   448 _g_QUEBAK	=	0xf971
                         0000F975   449 _g_VOICAQ	=	0xf975
                         0000F9F5   450 _g_VOICBQ	=	0xf9f5
                         0000FA75   451 _g_VOICCQ	=	0xfa75
                         0000FAF5   452 _g_RS2IQ	=	0xfaf5
                         0000FAF5   453 _g_DPPAGE	=	0xfaf5
                         0000FAF6   454 _g_ACPAGE	=	0xfaf6
                         0000FAF7   455 _g_AVCSAV	=	0xfaf7
                         0000FAF8   456 _g_EXBRSA	=	0xfaf8
                         0000FAF9   457 _g_CHRCNT	=	0xfaf9
                         0000FAFA   458 _g_ROMA	=	0xfafa
                         0000FAFC   459 _g_MODE	=	0xfafc
                         0000FAFD   460 _g_NORUSE	=	0xfafd
                         0000FAFE   461 _g_XSAVE	=	0xfafe
                         0000FB00   462 _g_YSAVE	=	0xfb00
                         0000FB03   463 _g_RSTMP	=	0xfb03
                         0000FB03   464 _g_TOCNT	=	0xfb03
                         0000FB04   465 _g_RSFCB	=	0xfb04
                         0000FB06   466 _g_RSIQLN	=	0xfb06
                         0000FB07   467 _g_MEXBIh	=	0xfb07
                         0000FB0C   468 _g_OLDSTT	=	0xfb0c
                         0000FB0C   469 _g_OLDINT	=	0xfb0c
                         0000FB16   470 _g_DEVNUM	=	0xfb16
                         0000FB17   471 _g_DATCNT	=	0xfb17
                         0000FB1A   472 _g_ERRORS	=	0xfb1a
                         0000FB1B   473 _g_FLAGS	=	0xfb1b
                         0000FB1C   474 _g_ESTBLS	=	0xfb1c
                         0000FB1D   475 _g_COMMSK	=	0xfb1d
                         0000FB1E   476 _g_LSTCOM	=	0xfb1e
                         0000FB1F   477 _g_LSTMOD	=	0xfb1f
                         0000FB35   478 _g_PRSCNT	=	0xfb35
                         0000FB36   479 _g_SAVSP	=	0xfb36
                         0000FB38   480 _g_VOICEN	=	0xfb38
                         0000FB39   481 _g_SAVVOL	=	0xfb39
                         0000FB3B   482 _g_MCLLEN	=	0xfb3b
                         0000FB3C   483 _g_MCLPTR	=	0xfb3c
                         0000FB3E   484 _g_QUEUEN	=	0xfb3e
                         0000FB3F   485 _g_MUSICF	=	0xfb3f
                         0000FB40   486 _g_PLYCNT	=	0xfb40
                         0000FB41   487 _g_VCBA	=	0xfb41
                         0000FB66   488 _g_VCBB	=	0xfb66
                         0000FB8B   489 _g_VCBC	=	0xfb8b
                         0000FBB0   490 _g_ENSTOP	=	0xfbb0
                         0000FBB1   491 _g_BASROM	=	0xfbb1
                         0000FBB2   492 _g_LINTTB	=	0xfbb2
                         0000FBCA   493 _g_FSTPOS	=	0xfbca
                         0000FBCC   494 _g_CODSAV	=	0xfbcc
                         0000FBCD   495 _g_FNKSWI	=	0xfbcd
                         0000FBCE   496 _g_FNKFLG	=	0xfbce
                         0000FBD8   497 _g_ONGSBF	=	0xfbd8
                         0000FBD9   498 _g_CLIKFL	=	0xfbd9
                         0000FBDA   499 _g_OLDKEY	=	0xfbda
                         0000FBE5   500 _g_NEWKEY	=	0xfbe5
                         0000FBF0   501 _g_KEYBUF	=	0xfbf0
                         0000FC18   502 _g_LINWRK	=	0xfc18
                         0000FC40   503 _g_PATWRK	=	0xfc40
                         0000FC48   504 _g_BOTTOM	=	0xfc48
                         0000FC4A   505 _g_HIMEM	=	0xfc4a
                         0000FC4C   506 _g_TRPTBL	=	0xfc4c
                         0000FC9A   507 _g_RTYCNT	=	0xfc9a
                         0000FC9B   508 _g_INTFLG	=	0xfc9b
                         0000FC9C   509 _g_PADY	=	0xfc9c
                         0000FC9D   510 _g_PADX	=	0xfc9d
                         0000FC9E   511 _g_JIFFY	=	0xfc9e
                         0000FCA0   512 _g_INTVAL	=	0xfca0
                         0000FCA2   513 _g_INTCNT	=	0xfca2
                         0000FCA4   514 _g_LOWLIM	=	0xfca4
                         0000FCA5   515 _g_WINWID	=	0xfca5
                         0000FCA6   516 _g_GRPHED	=	0xfca6
                         0000FCA7   517 _g_ESCCNT	=	0xfca7
                         0000FCA8   518 _g_INSFLG	=	0xfca8
                         0000FCA9   519 _g_CSRSW	=	0xfca9
                         0000FCAA   520 _g_CSTYLE	=	0xfcaa
                         0000FCAB   521 _g_CAPST	=	0xfcab
                         0000FCAC   522 _g_KANAST	=	0xfcac
                         0000FCAD   523 _g_KANAMD	=	0xfcad
                         0000FCAE   524 _g_FLBMEM	=	0xfcae
                         0000FCAF   525 _g_SCRMOD	=	0xfcaf
                         0000FCB0   526 _g_OLDSCR	=	0xfcb0
                         0000FCB1   527 _g_CASPRV	=	0xfcb1
                         0000FCB2   528 _g_BRDATR	=	0xfcb2
                         0000FCB3   529 _g_GXPOS	=	0xfcb3
                         0000FCB5   530 _g_GYPOS	=	0xfcb5
                         0000FCBB   531 _g_DRWFLG	=	0xfcbb
                         0000FCBC   532 _g_DRWSCL	=	0xfcbc
                         0000FCBD   533 _g_DRWANG	=	0xfcbd
                         0000FCC1   534 _g_MNROM	=	0xfcc1
                         0000FCC1   535 _g_EXPTBL	=	0xfcc1
                         0000FCC5   536 _g_SLTTBL	=	0xfcc5
                         0000FCC9   537 _g_SLTATR	=	0xfcc9
                         0000FD09   538 _g_SLTWRK	=	0xfd09
                         0000FD89   539 _g_PROCNM	=	0xfd89
                         0000FFE7   540 _g_RG08SAV	=	0xffe7
                         0000FFE8   541 _g_RG09SAV	=	0xffe8
                         0000FFE9   542 _g_RG10SAV	=	0xffe9
                         0000FFEA   543 _g_RG11SAV	=	0xffea
                         0000FFEB   544 _g_RG12SAV	=	0xffeb
                         0000FFEC   545 _g_RG13SAV	=	0xffec
                         0000FFED   546 _g_RG14SAV	=	0xffed
                         0000FFEE   547 _g_RG15SAV	=	0xffee
                         0000FFEF   548 _g_RG16SAV	=	0xffef
                         0000FFF0   549 _g_RG17SAV	=	0xfff0
                         0000FFF1   550 _g_RG18SAV	=	0xfff1
                         0000FFF2   551 _g_RG19SAV	=	0xfff2
                         0000FFF3   552 _g_RG20SAV	=	0xfff3
                         0000FFF4   553 _g_RG21SAV	=	0xfff4
                         0000FFF5   554 _g_RG22SAV	=	0xfff5
                         0000FFF6   555 _g_RG23SAV	=	0xfff6
                         0000FFF7   556 _g_MINROM	=	0xfff7
                         0000FFF8   557 _g_SVFFF8	=	0xfff8
                         0000FFFA   558 _g_RG25SAV	=	0xfffa
                         0000FFFB   559 _g_RG26SAV	=	0xfffb
                         0000FFFC   560 _g_RG27SAV	=	0xfffc
                         0000FFFD   561 _g_SVFFFD	=	0xfffd
                         00000004   562 _g_CGTABL	=	0x0004
                         00000006   563 _g_VDP_DR	=	0x0006
                         00000007   564 _g_VDP_DW	=	0x0007
                         0000002B   565 _g_BASRVN	=	0x002b
                         0000002B   566 _g_ROMVersion	=	0x002b
                         0000002D   567 _g_MSXVER	=	0x002d
                         0000002E   568 _g_MSXMID	=	0x002e
                         00000034   569 _g_CHAR_16	=	0x0034
                         00000000   570 _g_SUBRID	=	0x0000
                         00000002   571 _g_STRSRC	=	0x0002
                         0000F30F   572 _g_KANJTABLE	=	0xf30f
                         0000F323   573 _g_DISKVE	=	0xf323
                         0000F325   574 _g_BREAKV	=	0xf325
                         0000F341   575 _g_RAMAD0	=	0xf341
                         0000F342   576 _g_RAMAD1	=	0xf342
                         0000F343   577 _g_RAMAD2	=	0xf343
                         0000F344   578 _g_RAMAD3	=	0xf344
                         0000F348   579 _g_MASTER	=	0xf348
                         0000F37D   580 _g_BDOS	=	0xf37d
    0000002B                        581 _g_GameFieldLayerATilesPalette:
    0000002B 00                     582 	.db #0x00	; 0
    0000002C 00                     583 	.db #0x00	; 0
    0000002D 00                     584 	.db #0x00	; 0
    0000002E 01                     585 	.db #0x01	; 1
    0000002F 01                     586 	.db #0x01	; 1
    00000030 01                     587 	.db #0x01	; 1
    00000031 01                     588 	.db #0x01	; 1
    00000032 01                     589 	.db #0x01	; 1
    00000033 01                     590 	.db #0x01	; 1
    00000034 01                     591 	.db #0x01	; 1
    00000035 01                     592 	.db #0x01	; 1
    00000036 01                     593 	.db #0x01	; 1
    00000037 FF                     594 	.db #0xff	; 255
    00000038 FF                     595 	.db #0xff	; 255
    00000039 FF                     596 	.db #0xff	; 255
    0000003A 1E                     597 	.db #0x1e	; 30
    0000003B 1A                     598 	.db #0x1a	; 26
    0000003C 08                     599 	.db #0x08	; 8
    0000003D 01                     600 	.db #0x01	; 1
    0000003E 01                     601 	.db #0x01	; 1
    0000003F 01                     602 	.db #0x01	; 1
    00000040 14                     603 	.db #0x14	; 20
    00000041 09                     604 	.db #0x09	; 9
    00000042 14                     605 	.db #0x14	; 20
    00000043 1B                     606 	.db #0x1b	; 27
    00000044 13                     607 	.db #0x13	; 19
    00000045 09                     608 	.db #0x09	; 9
    00000046 01                     609 	.db #0x01	; 1
    00000047 01                     610 	.db #0x01	; 1
    00000048 01                     611 	.db #0x01	; 1
    00000049 01                     612 	.db #0x01	; 1
    0000004A 01                     613 	.db #0x01	; 1
    0000004B 01                     614 	.db #0x01	; 1
    0000004C 01                     615 	.db #0x01	; 1
    0000004D 01                     616 	.db #0x01	; 1
    0000004E 01                     617 	.db #0x01	; 1
    0000004F 01                     618 	.db #0x01	; 1
    00000050 01                     619 	.db #0x01	; 1
    00000051 01                     620 	.db #0x01	; 1
    00000052 01                     621 	.db #0x01	; 1
    00000053 01                     622 	.db #0x01	; 1
    00000054 01                     623 	.db #0x01	; 1
    00000055 01                     624 	.db #0x01	; 1
    00000056 01                     625 	.db #0x01	; 1
    00000057 01                     626 	.db #0x01	; 1
    00000058 FF                     627 	.db #0xff	; 255
    00000059 FF                     628 	.db #0xff	; 255
    0000005A FF                     629 	.db #0xff	; 255
    0000005B                        630 _g_GameFieldLayerBTilesPalette:
    0000005B 00                     631 	.db #0x00	; 0
    0000005C 00                     632 	.db #0x00	; 0
    0000005D 00                     633 	.db #0x00	; 0
    0000005E 08                     634 	.db #0x08	; 8
    0000005F 17                     635 	.db #0x17	; 23
    00000060 1B                     636 	.db #0x1b	; 27
    00000061 01                     637 	.db #0x01	; 1
    00000062 01                     638 	.db #0x01	; 1
    00000063 01                     639 	.db #0x01	; 1
    00000064 01                     640 	.db #0x01	; 1
    00000065 01                     641 	.db #0x01	; 1
    00000066 01                     642 	.db #0x01	; 1
    00000067 01                     643 	.db #0x01	; 1
    00000068 01                     644 	.db #0x01	; 1
    00000069 01                     645 	.db #0x01	; 1
    0000006A 1E                     646 	.db #0x1e	; 30
    0000006B 1A                     647 	.db #0x1a	; 26
    0000006C 08                     648 	.db #0x08	; 8
    0000006D 01                     649 	.db #0x01	; 1
    0000006E 01                     650 	.db #0x01	; 1
    0000006F 01                     651 	.db #0x01	; 1
    00000070 01                     652 	.db #0x01	; 1
    00000071 01                     653 	.db #0x01	; 1
    00000072 01                     654 	.db #0x01	; 1
    00000073 01                     655 	.db #0x01	; 1
    00000074 01                     656 	.db #0x01	; 1
    00000075 01                     657 	.db #0x01	; 1
    00000076 1F                     658 	.db #0x1f	; 31
    00000077 00                     659 	.db #0x00	; 0
    00000078 00                     660 	.db #0x00	; 0
    00000079 1B                     661 	.db #0x1b	; 27
    0000007A 1B                     662 	.db #0x1b	; 27
    0000007B 1B                     663 	.db #0x1b	; 27
    0000007C 04                     664 	.db #0x04	; 4
    0000007D 04                     665 	.db #0x04	; 4
    0000007E 1B                     666 	.db #0x1b	; 27
    0000007F 00                     667 	.db #0x00	; 0
    00000080 00                     668 	.db #0x00	; 0
    00000081 00                     669 	.db #0x00	; 0
    00000082 1B                     670 	.db #0x1b	; 27
    00000083 1B                     671 	.db #0x1b	; 27
    00000084 1B                     672 	.db #0x1b	; 27
    00000085 00                     673 	.db #0x00	; 0
    00000086 17                     674 	.db #0x17	; 23
    00000087 00                     675 	.db #0x00	; 0
    00000088 1B                     676 	.db #0x1b	; 27
    00000089 13                     677 	.db #0x13	; 19
    0000008A 09                     678 	.db #0x09	; 9
    0000008B                        679 _g_Sprites1_palette_ita:
    0000008B 00                     680 	.db #0x00	; 0
    0000008C 00                     681 	.db #0x00	; 0
    0000008D 00                     682 	.db #0x00	; 0
    0000008E 14                     683 	.db #0x14	; 20
    0000008F 09                     684 	.db #0x09	; 9
    00000090 14                     685 	.db #0x14	; 20
    00000091 01                     686 	.db #0x01	; 1
    00000092 01                     687 	.db #0x01	; 1
    00000093 01                     688 	.db #0x01	; 1
    00000094 05                     689 	.db #0x05	; 5
    00000095 03                     690 	.db #0x03	; 3
    00000096 01                     691 	.db #0x01	; 1
    00000097 1B                     692 	.db #0x1b	; 27
    00000098 1A                     693 	.db #0x1a	; 26
    00000099 1B                     694 	.db #0x1b	; 27
    0000009A 1E                     695 	.db #0x1e	; 30
    0000009B 1A                     696 	.db #0x1a	; 26
    0000009C 08                     697 	.db #0x08	; 8
    0000009D 1B                     698 	.db #0x1b	; 27
    0000009E 1A                     699 	.db #0x1a	; 26
    0000009F 1B                     700 	.db #0x1b	; 27
    000000A0 09                     701 	.db #0x09	; 9
    000000A1 16                     702 	.db #0x16	; 22
    000000A2 1B                     703 	.db #0x1b	; 27
    000000A3 1B                     704 	.db #0x1b	; 27
    000000A4 1A                     705 	.db #0x1a	; 26
    000000A5 1B                     706 	.db #0x1b	; 27
    000000A6 1B                     707 	.db #0x1b	; 27
    000000A7 13                     708 	.db #0x13	; 19
    000000A8 09                     709 	.db #0x09	; 9
    000000A9 1F                     710 	.db #0x1f	; 31
    000000AA 1E                     711 	.db #0x1e	; 30
    000000AB 01                     712 	.db #0x01	; 1
    000000AC 1D                     713 	.db #0x1d	; 29
    000000AD 03                     714 	.db #0x03	; 3
    000000AE 02                     715 	.db #0x02	; 2
    000000AF 05                     716 	.db #0x05	; 5
    000000B0 03                     717 	.db #0x03	; 3
    000000B1 01                     718 	.db #0x01	; 1
    000000B2 01                     719 	.db #0x01	; 1
    000000B3 01                     720 	.db #0x01	; 1
    000000B4 01                     721 	.db #0x01	; 1
    000000B5 01                     722 	.db #0x01	; 1
    000000B6 01                     723 	.db #0x01	; 1
    000000B7 01                     724 	.db #0x01	; 1
    000000B8 01                     725 	.db #0x01	; 1
    000000B9 01                     726 	.db #0x01	; 1
    000000BA 01                     727 	.db #0x01	; 1
    000000BB                        728 _g_Sprites1_palette_aus:
    000000BB 00                     729 	.db #0x00	; 0
    000000BC 00                     730 	.db #0x00	; 0
    000000BD 00                     731 	.db #0x00	; 0
    000000BE 14                     732 	.db #0x14	; 20
    000000BF 09                     733 	.db #0x09	; 9
    000000C0 14                     734 	.db #0x14	; 20
    000000C1 01                     735 	.db #0x01	; 1
    000000C2 01                     736 	.db #0x01	; 1
    000000C3 01                     737 	.db #0x01	; 1
    000000C4 05                     738 	.db #0x05	; 5
    000000C5 03                     739 	.db #0x03	; 3
    000000C6 01                     740 	.db #0x01	; 1
    000000C7 1B                     741 	.db #0x1b	; 27
    000000C8 1A                     742 	.db #0x1a	; 26
    000000C9 1B                     743 	.db #0x1b	; 27
    000000CA 1E                     744 	.db #0x1e	; 30
    000000CB 1A                     745 	.db #0x1a	; 26
    000000CC 08                     746 	.db #0x08	; 8
    000000CD 1B                     747 	.db #0x1b	; 27
    000000CE 1A                     748 	.db #0x1a	; 26
    000000CF 1B                     749 	.db #0x1b	; 27
    000000D0 05                     750 	.db #0x05	; 5
    000000D1 03                     751 	.db #0x03	; 3
    000000D2 01                     752 	.db #0x01	; 1
    000000D3 1B                     753 	.db #0x1b	; 27
    000000D4 1A                     754 	.db #0x1a	; 26
    000000D5 1B                     755 	.db #0x1b	; 27
    000000D6 1B                     756 	.db #0x1b	; 27
    000000D7 13                     757 	.db #0x13	; 19
    000000D8 09                     758 	.db #0x09	; 9
    000000D9 1F                     759 	.db #0x1f	; 31
    000000DA 1E                     760 	.db #0x1e	; 30
    000000DB 01                     761 	.db #0x01	; 1
    000000DC 1D                     762 	.db #0x1d	; 29
    000000DD 03                     763 	.db #0x03	; 3
    000000DE 02                     764 	.db #0x02	; 2
    000000DF 05                     765 	.db #0x05	; 5
    000000E0 03                     766 	.db #0x03	; 3
    000000E1 01                     767 	.db #0x01	; 1
    000000E2 01                     768 	.db #0x01	; 1
    000000E3 01                     769 	.db #0x01	; 1
    000000E4 01                     770 	.db #0x01	; 1
    000000E5 01                     771 	.db #0x01	; 1
    000000E6 01                     772 	.db #0x01	; 1
    000000E7 01                     773 	.db #0x01	; 1
    000000E8 01                     774 	.db #0x01	; 1
    000000E9 01                     775 	.db #0x01	; 1
    000000EA 01                     776 	.db #0x01	; 1
    000000EB                        777 _g_Sprites1_palette_fra:
    000000EB 00                     778 	.db #0x00	; 0
    000000EC 00                     779 	.db #0x00	; 0
    000000ED 00                     780 	.db #0x00	; 0
    000000EE 14                     781 	.db #0x14	; 20
    000000EF 09                     782 	.db #0x09	; 9
    000000F0 14                     783 	.db #0x14	; 20
    000000F1 01                     784 	.db #0x01	; 1
    000000F2 01                     785 	.db #0x01	; 1
    000000F3 01                     786 	.db #0x01	; 1
    000000F4 05                     787 	.db #0x05	; 5
    000000F5 03                     788 	.db #0x03	; 3
    000000F6 01                     789 	.db #0x01	; 1
    000000F7 1B                     790 	.db #0x1b	; 27
    000000F8 1A                     791 	.db #0x1a	; 26
    000000F9 1B                     792 	.db #0x1b	; 27
    000000FA 1E                     793 	.db #0x1e	; 30
    000000FB 1A                     794 	.db #0x1a	; 26
    000000FC 08                     795 	.db #0x08	; 8
    000000FD 1B                     796 	.db #0x1b	; 27
    000000FE 1A                     797 	.db #0x1a	; 26
    000000FF 1B                     798 	.db #0x1b	; 27
    00000100 04                     799 	.db #0x04	; 4
    00000101 04                     800 	.db #0x04	; 4
    00000102 1B                     801 	.db #0x1b	; 27
    00000103 1B                     802 	.db #0x1b	; 27
    00000104 1A                     803 	.db #0x1a	; 26
    00000105 1B                     804 	.db #0x1b	; 27
    00000106 1B                     805 	.db #0x1b	; 27
    00000107 13                     806 	.db #0x13	; 19
    00000108 09                     807 	.db #0x09	; 9
    00000109 1F                     808 	.db #0x1f	; 31
    0000010A 1E                     809 	.db #0x1e	; 30
    0000010B 01                     810 	.db #0x01	; 1
    0000010C 1D                     811 	.db #0x1d	; 29
    0000010D 03                     812 	.db #0x03	; 3
    0000010E 02                     813 	.db #0x02	; 2
    0000010F 05                     814 	.db #0x05	; 5
    00000110 03                     815 	.db #0x03	; 3
    00000111 01                     816 	.db #0x01	; 1
    00000112 01                     817 	.db #0x01	; 1
    00000113 01                     818 	.db #0x01	; 1
    00000114 01                     819 	.db #0x01	; 1
    00000115 01                     820 	.db #0x01	; 1
    00000116 01                     821 	.db #0x01	; 1
    00000117 01                     822 	.db #0x01	; 1
    00000118 01                     823 	.db #0x01	; 1
    00000119 01                     824 	.db #0x01	; 1
    0000011A 01                     825 	.db #0x01	; 1
    0000011B                        826 _g_Sprites1_palette_ger:
    0000011B 00                     827 	.db #0x00	; 0
    0000011C 00                     828 	.db #0x00	; 0
    0000011D 00                     829 	.db #0x00	; 0
    0000011E 14                     830 	.db #0x14	; 20
    0000011F 09                     831 	.db #0x09	; 9
    00000120 14                     832 	.db #0x14	; 20
    00000121 01                     833 	.db #0x01	; 1
    00000122 01                     834 	.db #0x01	; 1
    00000123 01                     835 	.db #0x01	; 1
    00000124 05                     836 	.db #0x05	; 5
    00000125 03                     837 	.db #0x03	; 3
    00000126 01                     838 	.db #0x01	; 1
    00000127 1B                     839 	.db #0x1b	; 27
    00000128 1A                     840 	.db #0x1a	; 26
    00000129 1B                     841 	.db #0x1b	; 27
    0000012A 1E                     842 	.db #0x1e	; 30
    0000012B 1A                     843 	.db #0x1a	; 26
    0000012C 08                     844 	.db #0x08	; 8
    0000012D 05                     845 	.db #0x05	; 5
    0000012E 03                     846 	.db #0x03	; 3
    0000012F 01                     847 	.db #0x01	; 1
    00000130 1B                     848 	.db #0x1b	; 27
    00000131 1A                     849 	.db #0x1a	; 26
    00000132 1B                     850 	.db #0x1b	; 27
    00000133 1F                     851 	.db #0x1f	; 31
    00000134 00                     852 	.db #0x00	; 0
    00000135 00                     853 	.db #0x00	; 0
    00000136 1B                     854 	.db #0x1b	; 27
    00000137 13                     855 	.db #0x13	; 19
    00000138 09                     856 	.db #0x09	; 9
    00000139 1F                     857 	.db #0x1f	; 31
    0000013A 1E                     858 	.db #0x1e	; 30
    0000013B 01                     859 	.db #0x01	; 1
    0000013C 1D                     860 	.db #0x1d	; 29
    0000013D 03                     861 	.db #0x03	; 3
    0000013E 02                     862 	.db #0x02	; 2
    0000013F 05                     863 	.db #0x05	; 5
    00000140 03                     864 	.db #0x03	; 3
    00000141 01                     865 	.db #0x01	; 1
    00000142 01                     866 	.db #0x01	; 1
    00000143 01                     867 	.db #0x01	; 1
    00000144 01                     868 	.db #0x01	; 1
    00000145 01                     869 	.db #0x01	; 1
    00000146 01                     870 	.db #0x01	; 1
    00000147 01                     871 	.db #0x01	; 1
    00000148 01                     872 	.db #0x01	; 1
    00000149 01                     873 	.db #0x01	; 1
    0000014A 01                     874 	.db #0x01	; 1
    0000014B                        875 _g_Sprites1_palette_gbr:
    0000014B 00                     876 	.db #0x00	; 0
    0000014C 00                     877 	.db #0x00	; 0
    0000014D 00                     878 	.db #0x00	; 0
    0000014E 14                     879 	.db #0x14	; 20
    0000014F 09                     880 	.db #0x09	; 9
    00000150 14                     881 	.db #0x14	; 20
    00000151 01                     882 	.db #0x01	; 1
    00000152 01                     883 	.db #0x01	; 1
    00000153 01                     884 	.db #0x01	; 1
    00000154 05                     885 	.db #0x05	; 5
    00000155 03                     886 	.db #0x03	; 3
    00000156 01                     887 	.db #0x01	; 1
    00000157 1B                     888 	.db #0x1b	; 27
    00000158 1A                     889 	.db #0x1a	; 26
    00000159 1B                     890 	.db #0x1b	; 27
    0000015A 1E                     891 	.db #0x1e	; 30
    0000015B 1A                     892 	.db #0x1a	; 26
    0000015C 08                     893 	.db #0x08	; 8
    0000015D 01                     894 	.db #0x01	; 1
    0000015E 01                     895 	.db #0x01	; 1
    0000015F 01                     896 	.db #0x01	; 1
    00000160 1B                     897 	.db #0x1b	; 27
    00000161 1A                     898 	.db #0x1a	; 26
    00000162 1B                     899 	.db #0x1b	; 27
    00000163 01                     900 	.db #0x01	; 1
    00000164 01                     901 	.db #0x01	; 1
    00000165 01                     902 	.db #0x01	; 1
    00000166 1B                     903 	.db #0x1b	; 27
    00000167 13                     904 	.db #0x13	; 19
    00000168 09                     905 	.db #0x09	; 9
    00000169 1F                     906 	.db #0x1f	; 31
    0000016A 1E                     907 	.db #0x1e	; 30
    0000016B 01                     908 	.db #0x01	; 1
    0000016C 1D                     909 	.db #0x1d	; 29
    0000016D 03                     910 	.db #0x03	; 3
    0000016E 02                     911 	.db #0x02	; 2
    0000016F 05                     912 	.db #0x05	; 5
    00000170 03                     913 	.db #0x03	; 3
    00000171 01                     914 	.db #0x01	; 1
    00000172 01                     915 	.db #0x01	; 1
    00000173 01                     916 	.db #0x01	; 1
    00000174 01                     917 	.db #0x01	; 1
    00000175 01                     918 	.db #0x01	; 1
    00000176 01                     919 	.db #0x01	; 1
    00000177 01                     920 	.db #0x01	; 1
    00000178 01                     921 	.db #0x01	; 1
    00000179 01                     922 	.db #0x01	; 1
    0000017A 01                     923 	.db #0x01	; 1
    0000017B                        924 _g_Sprites1_palette_bra:
    0000017B 00                     925 	.db #0x00	; 0
    0000017C 00                     926 	.db #0x00	; 0
    0000017D 00                     927 	.db #0x00	; 0
    0000017E 14                     928 	.db #0x14	; 20
    0000017F 09                     929 	.db #0x09	; 9
    00000180 14                     930 	.db #0x14	; 20
    00000181 01                     931 	.db #0x01	; 1
    00000182 01                     932 	.db #0x01	; 1
    00000183 01                     933 	.db #0x01	; 1
    00000184 05                     934 	.db #0x05	; 5
    00000185 03                     935 	.db #0x03	; 3
    00000186 01                     936 	.db #0x01	; 1
    00000187 1B                     937 	.db #0x1b	; 27
    00000188 1A                     938 	.db #0x1a	; 26
    00000189 1B                     939 	.db #0x1b	; 27
    0000018A 1E                     940 	.db #0x1e	; 30
    0000018B 1A                     941 	.db #0x1a	; 26
    0000018C 08                     942 	.db #0x08	; 8
    0000018D 1B                     943 	.db #0x1b	; 27
    0000018E 13                     944 	.db #0x13	; 19
    0000018F 09                     945 	.db #0x09	; 9
    00000190 00                     946 	.db #0x00	; 0
    00000191 0A                     947 	.db #0x0a	; 10
    00000192 03                     948 	.db #0x03	; 3
    00000193 1B                     949 	.db #0x1b	; 27
    00000194 13                     950 	.db #0x13	; 19
    00000195 09                     951 	.db #0x09	; 9
    00000196 1B                     952 	.db #0x1b	; 27
    00000197 13                     953 	.db #0x13	; 19
    00000198 09                     954 	.db #0x09	; 9
    00000199 1F                     955 	.db #0x1f	; 31
    0000019A 1E                     956 	.db #0x1e	; 30
    0000019B 01                     957 	.db #0x01	; 1
    0000019C 1D                     958 	.db #0x1d	; 29
    0000019D 03                     959 	.db #0x03	; 3
    0000019E 02                     960 	.db #0x02	; 2
    0000019F 05                     961 	.db #0x05	; 5
    000001A0 03                     962 	.db #0x03	; 3
    000001A1 01                     963 	.db #0x01	; 1
    000001A2 01                     964 	.db #0x01	; 1
    000001A3 01                     965 	.db #0x01	; 1
    000001A4 01                     966 	.db #0x01	; 1
    000001A5 01                     967 	.db #0x01	; 1
    000001A6 01                     968 	.db #0x01	; 1
    000001A7 01                     969 	.db #0x01	; 1
    000001A8 01                     970 	.db #0x01	; 1
    000001A9 01                     971 	.db #0x01	; 1
    000001AA 01                     972 	.db #0x01	; 1
                                    973 ;E:\Dropbox\FAUSTO\SVILUPPI\MSX\CODE\C\MSXgl\projects\exsoccer/exsoccer_s3_b1.c:203: void InitPalette()
                                    974 ;	---------------------------------
                                    975 ; Function InitPalette
                                    976 ; ---------------------------------
    000001AB                        977 _InitPalette::
                                    978 ;E:\Dropbox\FAUSTO\SVILUPPI\MSX\CODE\C\MSXgl\projects\exsoccer/exsoccer_s3_b1.c:205: V9_SetPalette(0, 16, g_GameFieldLayerATilesPalette);
    000001AB 21r2Br00         [10]  979 	ld	hl, #_g_GameFieldLayerATilesPalette+0
                                    980 ;E:\Dropbox\FAUSTO\SVILUPPI\MSX\CODE\C\MSXgl\projects\exsoccer/exsoccer_s3_b1.c:1028: ERROR: no line number 1028 in file E:\Dropbox\FAUSTO\SVILUPPI\MSX\CODE\C\MSXgl\projects\exsoccer/exsoccer_s3_b1.c
    000001AE 01 00 00         [10]  981 	ld	bc, #0x0
    000001B1                        982 00107$:
    000001B1 78               [ 4]  983 	ld	a, b
    000001B2 D6 10            [ 7]  984 	sub	a, #0x10
    000001B4 30 1F            [12]  985 	jr	NC, 00102$
    000001B6 FD E5            [15]  986 	push	iy
    000001B8 E3               [19]  987 	ex	(sp), hl
    000001B9 69               [ 4]  988 	ld	l, c
                                    989 ;	spillPairReg hl
                                    990 ;	spillPairReg hl
    000001BA E3               [19]  991 	ex	(sp), hl
    000001BB FD E1            [14]  992 	pop	iy
    000001BD 0C               [ 4]  993 	inc	c
    000001BE E5               [11]  994 	push	hl
    000001BF C5               [11]  995 	push	bc
    000001C0 5D               [ 4]  996 	ld	e, l
    000001C1 54               [ 4]  997 	ld	d, h
    000001C2 FD E5            [15]  998 	push	iy
    000001C4 E3               [19]  999 	ex	(sp), hl
    000001C5 7D               [ 4] 1000 	ld	a, l
    000001C6 E3               [19] 1001 	ex	(sp), hl
    000001C7 FD E1            [14] 1002 	pop	iy
    000001C9 CDr00r00         [17] 1003 	call	_V9_SetPaletteEntry
    000001CC C1               [10] 1004 	pop	bc
    000001CD E1               [10] 1005 	pop	hl
    000001CE 23               [ 6] 1006 	inc	hl
    000001CF 23               [ 6] 1007 	inc	hl
    000001D0 23               [ 6] 1008 	inc	hl
    000001D1 04               [ 4] 1009 	inc	b
    000001D2 C3rB1r01         [10] 1010 	jp	00107$
                                   1011 ;E:\Dropbox\FAUSTO\SVILUPPI\MSX\CODE\C\MSXgl\projects\exsoccer/exsoccer_s3_b1.c:205: ERROR: no line number 205 in file E:\Dropbox\FAUSTO\SVILUPPI\MSX\CODE\C\MSXgl\projects\exsoccer/exsoccer_s3_b1.c
    000001D5                       1012 00102$:
                                   1013 ;E:\Dropbox\FAUSTO\SVILUPPI\MSX\CODE\C\MSXgl\projects\exsoccer/exsoccer_s3_b1.c:206: ERROR: no line number 206 in file E:\Dropbox\FAUSTO\SVILUPPI\MSX\CODE\C\MSXgl\projects\exsoccer/exsoccer_s3_b1.c
    000001D5 21r5Br00         [10] 1014 	ld	hl, #_g_GameFieldLayerBTilesPalette+0
                                   1015 ;E:\Dropbox\FAUSTO\SVILUPPI\MSX\CODE\C\MSXgl\projects\exsoccer/exsoccer_s3_b1.c:1028: ERROR: no line number 1028 in file E:\Dropbox\FAUSTO\SVILUPPI\MSX\CODE\C\MSXgl\projects\exsoccer/exsoccer_s3_b1.c
    000001D8 01 10 00         [10] 1016 	ld	bc, #0x10
    000001DB                       1017 00110$:
    000001DB 78               [ 4] 1018 	ld	a, b
    000001DC D6 10            [ 7] 1019 	sub	a, #0x10
    000001DE 30 1F            [12] 1020 	jr	NC, 00104$
    000001E0 FD E5            [15] 1021 	push	iy
    000001E2 E3               [19] 1022 	ex	(sp), hl
    000001E3 69               [ 4] 1023 	ld	l, c
                                   1024 ;	spillPairReg hl
                                   1025 ;	spillPairReg hl
    000001E4 E3               [19] 1026 	ex	(sp), hl
    000001E5 FD E1            [14] 1027 	pop	iy
    000001E7 0C               [ 4] 1028 	inc	c
    000001E8 E5               [11] 1029 	push	hl
    000001E9 C5               [11] 1030 	push	bc
    000001EA 5D               [ 4] 1031 	ld	e, l
    000001EB 54               [ 4] 1032 	ld	d, h
    000001EC FD E5            [15] 1033 	push	iy
    000001EE E3               [19] 1034 	ex	(sp), hl
    000001EF 7D               [ 4] 1035 	ld	a, l
    000001F0 E3               [19] 1036 	ex	(sp), hl
    000001F1 FD E1            [14] 1037 	pop	iy
    000001F3 CDr00r00         [17] 1038 	call	_V9_SetPaletteEntry
    000001F6 C1               [10] 1039 	pop	bc
    000001F7 E1               [10] 1040 	pop	hl
    000001F8 23               [ 6] 1041 	inc	hl
    000001F9 23               [ 6] 1042 	inc	hl
    000001FA 23               [ 6] 1043 	inc	hl
    000001FB 04               [ 4] 1044 	inc	b
    000001FC C3rDBr01         [10] 1045 	jp	00110$
                                   1046 ;E:\Dropbox\FAUSTO\SVILUPPI\MSX\CODE\C\MSXgl\projects\exsoccer/exsoccer_s3_b1.c:206: ERROR: no line number 206 in file E:\Dropbox\FAUSTO\SVILUPPI\MSX\CODE\C\MSXgl\projects\exsoccer/exsoccer_s3_b1.c
    000001FF                       1047 00104$:
                                   1048 ;E:/Dropbox/FAUSTO/SVILUPPI/MSX/CODE/C/MSXgl/engine/src/v9990.h:1047: ERROR: no line number 1047 in file E:/Dropbox/FAUSTO/SVILUPPI/MSX/CODE/C/MSXgl/engine/src/v9990.h
    000001FF 3E 01            [ 7] 1049 	ld	a, #0x01
    00000201 E6 03            [ 7] 1050 	and	a, #0x03
    00000203 87               [ 4] 1051 	add	a, a
    00000204 87               [ 4] 1052 	add	a, a
    00000205 4F               [ 4] 1053 	ld	c, a
    00000206 AF               [ 4] 1054 	xor	a, a
    00000207 E6 03            [ 7] 1055 	and	a, #0x03
    00000209 81               [ 4] 1056 	add	a, c
    0000020A 6F               [ 4] 1057 	ld	l, a
                                   1058 ;	spillPairReg hl
                                   1059 ;	spillPairReg hl
    0000020B 3E 0D            [ 7] 1060 	ld	a, #0x0d
                                   1061 ;E:\Dropbox\FAUSTO\SVILUPPI\MSX\CODE\C\MSXgl\projects\exsoccer/exsoccer_s3_b1.c:207: ERROR: no line number 207 in file E:\Dropbox\FAUSTO\SVILUPPI\MSX\CODE\C\MSXgl\projects\exsoccer/exsoccer_s3_b1.c
                                   1062 ;E:\Dropbox\FAUSTO\SVILUPPI\MSX\CODE\C\MSXgl\projects\exsoccer/exsoccer_s3_b1.c:208: ERROR: no line number 208 in file E:\Dropbox\FAUSTO\SVILUPPI\MSX\CODE\C\MSXgl\projects\exsoccer/exsoccer_s3_b1.c
    0000020D C3r00r00         [10] 1063 	jp	_V9_SetRegister
                                   1064 ;E:\Dropbox\FAUSTO\SVILUPPI\MSX\CODE\C\MSXgl\projects\exsoccer/exsoccer_s3_b1.c:209: ERROR: no line number 209 in file E:\Dropbox\FAUSTO\SVILUPPI\MSX\CODE\C\MSXgl\projects\exsoccer/exsoccer_s3_b1.c
                                   1065 ;	---------------------------------
                                   1066 ; Function UpdateV9990
                                   1067 ; ---------------------------------
    00000210                       1068 _UpdateV9990::
                                   1069 ;E:\Dropbox\FAUSTO\SVILUPPI\MSX\CODE\C\MSXgl\projects\exsoccer/exsoccer_s3_b1.c:211: ERROR: no line number 211 in file E:\Dropbox\FAUSTO\SVILUPPI\MSX\CODE\C\MSXgl\projects\exsoccer/exsoccer_s3_b1.c
    00000210 CDr17r02         [17] 1070 	call	_WaitV9990Synch
                                   1071 ;E:\Dropbox\FAUSTO\SVILUPPI\MSX\CODE\C\MSXgl\projects\exsoccer/exsoccer_s3_b1.c:212: ERROR: no line number 212 in file E:\Dropbox\FAUSTO\SVILUPPI\MSX\CODE\C\MSXgl\projects\exsoccer/exsoccer_s3_b1.c
                                   1072 ;E:\Dropbox\FAUSTO\SVILUPPI\MSX\CODE\C\MSXgl\projects\exsoccer/exsoccer_s3_b1.c:213: ERROR: no line number 213 in file E:\Dropbox\FAUSTO\SVILUPPI\MSX\CODE\C\MSXgl\projects\exsoccer/exsoccer_s3_b1.c
    00000213 C3r35r02         [10] 1073 	jp	_TickP1
                                   1074 ;E:\Dropbox\FAUSTO\SVILUPPI\MSX\CODE\C\MSXgl\projects\exsoccer/exsoccer_s3_b1.c:214: ERROR: no line number 214 in file E:\Dropbox\FAUSTO\SVILUPPI\MSX\CODE\C\MSXgl\projects\exsoccer/exsoccer_s3_b1.c
                                   1075 ;	---------------------------------
                                   1076 ; Function InitVariables
                                   1077 ; ---------------------------------
    00000216                       1078 _InitVariables::
                                   1079 ;E:\Dropbox\FAUSTO\SVILUPPI\MSX\CODE\C\MSXgl\projects\exsoccer/exsoccer_s3_b1.c:215: ERROR: no line number 215 in file E:\Dropbox\FAUSTO\SVILUPPI\MSX\CODE\C\MSXgl\projects\exsoccer/exsoccer_s3_b1.c
    00000216 C9               [10] 1080 	ret
                                   1081 ;E:\Dropbox\FAUSTO\SVILUPPI\MSX\CODE\C\MSXgl\projects\exsoccer/exsoccer_s3_b1.c:217: ERROR: no line number 217 in file E:\Dropbox\FAUSTO\SVILUPPI\MSX\CODE\C\MSXgl\projects\exsoccer/exsoccer_s3_b1.c
                                   1082 ;	---------------------------------
                                   1083 ; Function WaitV9990Synch
                                   1084 ; ---------------------------------
    00000217                       1085 _WaitV9990Synch::
                                   1086 ;E:\Dropbox\FAUSTO\SVILUPPI\MSX\CODE\C\MSXgl\projects\exsoccer/exsoccer_s3_b1.c:219: ERROR: no line number 219 in file E:\Dropbox\FAUSTO\SVILUPPI\MSX\CODE\C\MSXgl\projects\exsoccer/exsoccer_s3_b1.c
    00000217                       1087 00101$:
    00000217 3Ar00r00         [13] 1088 	ld	a, (_g_VSynch+0)
    0000021A B7               [ 4] 1089 	or	a, a
    0000021B 28 FA            [12] 1090 	jr	Z, 00101$
                                   1091 ;E:\Dropbox\FAUSTO\SVILUPPI\MSX\CODE\C\MSXgl\projects\exsoccer/exsoccer_s3_b1.c:220: ERROR: no line number 220 in file E:\Dropbox\FAUSTO\SVILUPPI\MSX\CODE\C\MSXgl\projects\exsoccer/exsoccer_s3_b1.c
    0000021D 21r00r00         [10] 1092 	ld	hl, #_g_VSynch
    00000220 36 00            [10] 1093 	ld	(hl), #0x00
                                   1094 ;E:\Dropbox\FAUSTO\SVILUPPI\MSX\CODE\C\MSXgl\projects\exsoccer/exsoccer_s3_b1.c:221: ERROR: no line number 221 in file E:\Dropbox\FAUSTO\SVILUPPI\MSX\CODE\C\MSXgl\projects\exsoccer/exsoccer_s3_b1.c
    00000222 2Ar00r00         [16] 1095 	ld	hl, (_g_FrameCounter)
    00000225 23               [ 6] 1096 	inc	hl
                                   1097 ;E:\Dropbox\FAUSTO\SVILUPPI\MSX\CODE\C\MSXgl\projects\exsoccer/exsoccer_s3_b1.c:222: ERROR: no line number 222 in file E:\Dropbox\FAUSTO\SVILUPPI\MSX\CODE\C\MSXgl\projects\exsoccer/exsoccer_s3_b1.c
    00000226 22r00r00         [16] 1098 	ld	(_g_FrameCounter), hl
    00000229 7D               [ 4] 1099 	ld	a, l
    0000022A D6 3C            [ 7] 1100 	sub	a, #0x3c
    0000022C B4               [ 4] 1101 	or	a, h
    0000022D C0               [11] 1102 	ret	NZ
                                   1103 ;E:\Dropbox\FAUSTO\SVILUPPI\MSX\CODE\C\MSXgl\projects\exsoccer/exsoccer_s3_b1.c:223: ERROR: no line number 223 in file E:\Dropbox\FAUSTO\SVILUPPI\MSX\CODE\C\MSXgl\projects\exsoccer/exsoccer_s3_b1.c
    0000022E 21 00 00         [10] 1104 	ld	hl, #0x0000
    00000231 22r00r00         [16] 1105 	ld	(_g_FrameCounter), hl
                                   1106 ;E:\Dropbox\FAUSTO\SVILUPPI\MSX\CODE\C\MSXgl\projects\exsoccer/exsoccer_s3_b1.c:225: ERROR: no line number 225 in file E:\Dropbox\FAUSTO\SVILUPPI\MSX\CODE\C\MSXgl\projects\exsoccer/exsoccer_s3_b1.c
    00000234 C9               [10] 1107 	ret
                                   1108 ;E:\Dropbox\FAUSTO\SVILUPPI\MSX\CODE\C\MSXgl\projects\exsoccer/exsoccer_s3_b1.c:230: ERROR: no line number 230 in file E:\Dropbox\FAUSTO\SVILUPPI\MSX\CODE\C\MSXgl\projects\exsoccer/exsoccer_s3_b1.c
                                   1109 ;	---------------------------------
                                   1110 ; Function TickP1
                                   1111 ; ---------------------------------
    00000235                       1112 _TickP1::
                                   1113 ;E:\Dropbox\FAUSTO\SVILUPPI\MSX\CODE\C\MSXgl\projects\exsoccer/exsoccer_s3_b1.c:231: ERROR: no line number 231 in file E:\Dropbox\FAUSTO\SVILUPPI\MSX\CODE\C\MSXgl\projects\exsoccer/exsoccer_s3_b1.c
                                   1114 ;E:\Dropbox\FAUSTO\SVILUPPI\MSX\CODE\C\MSXgl\projects\exsoccer/exsoccer_s3_b1.c:232: ERROR: no line number 232 in file E:\Dropbox\FAUSTO\SVILUPPI\MSX\CODE\C\MSXgl\projects\exsoccer/exsoccer_s3_b1.c
    00000235 C3r03r03         [10] 1115 	jp	_TickFieldScrollingAction
                                   1116 ;E:\Dropbox\FAUSTO\SVILUPPI\MSX\CODE\C\MSXgl\projects\exsoccer/exsoccer_s3_b1.c:235: ERROR: no line number 235 in file E:\Dropbox\FAUSTO\SVILUPPI\MSX\CODE\C\MSXgl\projects\exsoccer/exsoccer_s3_b1.c
                                   1117 ;	---------------------------------
                                   1118 ; Function TickActiveFieldZone
                                   1119 ; ---------------------------------
    00000238                       1120 _TickActiveFieldZone::
    00000238 DD E5            [15] 1121 	push	ix
    0000023A DD 21 00 00      [14] 1122 	ld	ix,#0
    0000023E DD 39            [15] 1123 	add	ix,sp
    00000240 F5               [11] 1124 	push	af
                                   1125 ;E:\Dropbox\FAUSTO\SVILUPPI\MSX\CODE\C\MSXgl\projects\exsoccer/exsoccer_s3_b1.c:236: ERROR: no line number 236 in file E:\Dropbox\FAUSTO\SVILUPPI\MSX\CODE\C\MSXgl\projects\exsoccer/exsoccer_s3_b1.c
    00000241 ED 4Br07r00      [20] 1126 	ld	bc, (#(_g_Ball + 7) + 0)
    00000245 ED 5Br00r00      [20] 1127 	ld	de, (#_g_Ball + 0)
    00000249 6B               [ 4] 1128 	ld	l, e
    0000024A 62               [ 4] 1129 	ld	h, d
    0000024B BF               [ 4] 1130 	cp	a, a
    0000024C ED 42            [15] 1131 	sbc	hl, bc
    0000024E 28 7C            [12] 1132 	jr	Z, 00121$
                                   1133 ;E:\Dropbox\FAUSTO\SVILUPPI\MSX\CODE\C\MSXgl\projects\exsoccer/exsoccer_s3_b1.c:238: ERROR: no line number 238 in file E:\Dropbox\FAUSTO\SVILUPPI\MSX\CODE\C\MSXgl\projects\exsoccer/exsoccer_s3_b1.c
    00000250 33               [ 6] 1134 	inc	sp
    00000251 33               [ 6] 1135 	inc	sp
    00000252 D5               [11] 1136 	push	de
                                   1137 ;E:\Dropbox\FAUSTO\SVILUPPI\MSX\CODE\C\MSXgl\projects\exsoccer/exsoccer_s3_b1.c:237: ERROR: no line number 237 in file E:\Dropbox\FAUSTO\SVILUPPI\MSX\CODE\C\MSXgl\projects\exsoccer/exsoccer_s3_b1.c
    00000253 3Ar00r00         [13] 1138 	ld	a, (_g_ActiveFieldZone+0)
    00000256 3D               [ 4] 1139 	dec	a
    00000257 20 34            [12] 1140 	jr	NZ, 00117$
                                   1141 ;E:\Dropbox\FAUSTO\SVILUPPI\MSX\CODE\C\MSXgl\projects\exsoccer/exsoccer_s3_b1.c:238: ERROR: no line number 238 in file E:\Dropbox\FAUSTO\SVILUPPI\MSX\CODE\C\MSXgl\projects\exsoccer/exsoccer_s3_b1.c
    00000259 3E C3            [ 7] 1142 	ld	a, #0xc3
    0000025B DD BE FE         [19] 1143 	cp	a, -2 (ix)
    0000025E 3E 00            [ 7] 1144 	ld	a, #0x00
    00000260 DD 9E FF         [19] 1145 	sbc	a, -1 (ix)
    00000263 38 0A            [12] 1146 	jr	C, 00102$
    00000265 7B               [ 4] 1147 	ld	a, e
    00000266 91               [ 4] 1148 	sub	a, c
    00000267 7A               [ 4] 1149 	ld	a, d
    00000268 98               [ 4] 1150 	sbc	a, b
    00000269 30 04            [12] 1151 	jr	NC, 00102$
                                   1152 ;E:\Dropbox\FAUSTO\SVILUPPI\MSX\CODE\C\MSXgl\projects\exsoccer/exsoccer_s3_b1.c:239: ERROR: no line number 239 in file E:\Dropbox\FAUSTO\SVILUPPI\MSX\CODE\C\MSXgl\projects\exsoccer/exsoccer_s3_b1.c
    0000026B AF               [ 4] 1153 	xor	a, a
    0000026C CDr21r14         [17] 1154 	call	_ShowFieldZone
    0000026F                       1155 00102$:
                                   1156 ;E:\Dropbox\FAUSTO\SVILUPPI\MSX\CODE\C\MSXgl\projects\exsoccer/exsoccer_s3_b1.c:241: ERROR: no line number 241 in file E:\Dropbox\FAUSTO\SVILUPPI\MSX\CODE\C\MSXgl\projects\exsoccer/exsoccer_s3_b1.c
    0000026F ED 4Br00r00      [20] 1157 	ld	bc, (#_g_Ball + 0)
    00000273 59               [ 4] 1158 	ld	e, c
    00000274 50               [ 4] 1159 	ld	d, b
    00000275 7B               [ 4] 1160 	ld	a, e
    00000276 D6 2C            [ 7] 1161 	sub	a, #0x2c
    00000278 7A               [ 4] 1162 	ld	a, d
    00000279 DE 01            [ 7] 1163 	sbc	a, #0x01
    0000027B 38 47            [12] 1164 	jr	C, 00118$
    0000027D 2Ar07r00         [16] 1165 	ld	hl, (#(_g_Ball + 7) + 0)
    00000280 AF               [ 4] 1166 	xor	a, a
    00000281 ED 42            [15] 1167 	sbc	hl, bc
    00000283 30 3F            [12] 1168 	jr	NC, 00118$
                                   1169 ;E:\Dropbox\FAUSTO\SVILUPPI\MSX\CODE\C\MSXgl\projects\exsoccer/exsoccer_s3_b1.c:242: ERROR: no line number 242 in file E:\Dropbox\FAUSTO\SVILUPPI\MSX\CODE\C\MSXgl\projects\exsoccer/exsoccer_s3_b1.c
    00000285 3E 02            [ 7] 1170 	ld	a, #0x02
    00000287 CDr21r14         [17] 1171 	call	_ShowFieldZone
    0000028A C3rC4r02         [10] 1172 	jp	00118$
    0000028D                       1173 00117$:
                                   1174 ;E:\Dropbox\FAUSTO\SVILUPPI\MSX\CODE\C\MSXgl\projects\exsoccer/exsoccer_s3_b1.c:246: ERROR: no line number 246 in file E:\Dropbox\FAUSTO\SVILUPPI\MSX\CODE\C\MSXgl\projects\exsoccer/exsoccer_s3_b1.c
    0000028D 3Ar00r00         [13] 1175 	ld	a, (_g_ActiveFieldZone+0)
    00000290 B7               [ 4] 1176 	or	a, a
    00000291 20 1A            [12] 1177 	jr	NZ, 00114$
                                   1178 ;E:\Dropbox\FAUSTO\SVILUPPI\MSX\CODE\C\MSXgl\projects\exsoccer/exsoccer_s3_b1.c:247: ERROR: no line number 247 in file E:\Dropbox\FAUSTO\SVILUPPI\MSX\CODE\C\MSXgl\projects\exsoccer/exsoccer_s3_b1.c
    00000293 3E A5            [ 7] 1179 	ld	a, #0xa5
    00000295 DD BE FE         [19] 1180 	cp	a, -2 (ix)
    00000298 3E 00            [ 7] 1181 	ld	a, #0x00
    0000029A DD 9E FF         [19] 1182 	sbc	a, -1 (ix)
    0000029D 30 25            [12] 1183 	jr	NC, 00118$
    0000029F 79               [ 4] 1184 	ld	a, c
    000002A0 93               [ 4] 1185 	sub	a, e
    000002A1 78               [ 4] 1186 	ld	a, b
    000002A2 9A               [ 4] 1187 	sbc	a, d
    000002A3 30 1F            [12] 1188 	jr	NC, 00118$
                                   1189 ;E:\Dropbox\FAUSTO\SVILUPPI\MSX\CODE\C\MSXgl\projects\exsoccer/exsoccer_s3_b1.c:248: ERROR: no line number 248 in file E:\Dropbox\FAUSTO\SVILUPPI\MSX\CODE\C\MSXgl\projects\exsoccer/exsoccer_s3_b1.c
    000002A5 3E 01            [ 7] 1190 	ld	a, #0x01
    000002A7 CDr21r14         [17] 1191 	call	_ShowFieldZone
    000002AA C3rC4r02         [10] 1192 	jp	00118$
    000002AD                       1193 00114$:
                                   1194 ;E:\Dropbox\FAUSTO\SVILUPPI\MSX\CODE\C\MSXgl\projects\exsoccer/exsoccer_s3_b1.c:252: ERROR: no line number 252 in file E:\Dropbox\FAUSTO\SVILUPPI\MSX\CODE\C\MSXgl\projects\exsoccer/exsoccer_s3_b1.c
    000002AD DD 7E FE         [19] 1195 	ld	a, -2 (ix)
    000002B0 D6 4A            [ 7] 1196 	sub	a, #0x4a
    000002B2 DD 7E FF         [19] 1197 	ld	a, -1 (ix)
    000002B5 DE 01            [ 7] 1198 	sbc	a, #0x01
    000002B7 30 0B            [12] 1199 	jr	NC, 00118$
    000002B9 7B               [ 4] 1200 	ld	a, e
    000002BA 91               [ 4] 1201 	sub	a, c
    000002BB 7A               [ 4] 1202 	ld	a, d
    000002BC 98               [ 4] 1203 	sbc	a, b
    000002BD 30 05            [12] 1204 	jr	NC, 00118$
                                   1205 ;E:\Dropbox\FAUSTO\SVILUPPI\MSX\CODE\C\MSXgl\projects\exsoccer/exsoccer_s3_b1.c:253: ERROR: no line number 253 in file E:\Dropbox\FAUSTO\SVILUPPI\MSX\CODE\C\MSXgl\projects\exsoccer/exsoccer_s3_b1.c
    000002BF 3E 01            [ 7] 1206 	ld	a, #0x01
    000002C1 CDr21r14         [17] 1207 	call	_ShowFieldZone
    000002C4                       1208 00118$:
                                   1209 ;E:\Dropbox\FAUSTO\SVILUPPI\MSX\CODE\C\MSXgl\projects\exsoccer/exsoccer_s3_b1.c:257: ERROR: no line number 257 in file E:\Dropbox\FAUSTO\SVILUPPI\MSX\CODE\C\MSXgl\projects\exsoccer/exsoccer_s3_b1.c
    000002C4 ED 4Br00r00      [20] 1210 	ld	bc, (#_g_Ball + 0)
    000002C8 ED 43r07r00      [20] 1211 	ld	((_g_Ball + 7)), bc
    000002CC                       1212 00121$:
                                   1213 ;E:\Dropbox\FAUSTO\SVILUPPI\MSX\CODE\C\MSXgl\projects\exsoccer/exsoccer_s3_b1.c:260: ERROR: no line number 260 in file E:\Dropbox\FAUSTO\SVILUPPI\MSX\CODE\C\MSXgl\projects\exsoccer/exsoccer_s3_b1.c
    000002CC DD F9            [10] 1214 	ld	sp, ix
    000002CE DD E1            [14] 1215 	pop	ix
    000002D0 C9               [10] 1216 	ret
                                   1217 ;E:\Dropbox\FAUSTO\SVILUPPI\MSX\CODE\C\MSXgl\projects\exsoccer/exsoccer_s3_b1.c:261: ERROR: no line number 261 in file E:\Dropbox\FAUSTO\SVILUPPI\MSX\CODE\C\MSXgl\projects\exsoccer/exsoccer_s3_b1.c
                                   1218 ;	---------------------------------
                                   1219 ; Function TickUpdateTime
                                   1220 ; ---------------------------------
    000002D1                       1221 _TickUpdateTime::
                                   1222 ;E:\Dropbox\FAUSTO\SVILUPPI\MSX\CODE\C\MSXgl\projects\exsoccer/exsoccer_s3_b1.c:262: ERROR: no line number 262 in file E:\Dropbox\FAUSTO\SVILUPPI\MSX\CODE\C\MSXgl\projects\exsoccer/exsoccer_s3_b1.c
    000002D1 3Ar00r00         [13] 1223 	ld	a, (_g_MatchStatus+0)
    000002D4 D6 0C            [ 7] 1224 	sub	a, #0x0c
    000002D6 20 19            [12] 1225 	jr	NZ, 00106$
                                   1226 ;E:\Dropbox\FAUSTO\SVILUPPI\MSX\CODE\C\MSXgl\projects\exsoccer/exsoccer_s3_b1.c:263: ERROR: no line number 263 in file E:\Dropbox\FAUSTO\SVILUPPI\MSX\CODE\C\MSXgl\projects\exsoccer/exsoccer_s3_b1.c
    000002D8 2Ar00r00         [16] 1227 	ld	hl, (_g_FrameCounter)
    000002DB 7D               [ 4] 1228 	ld	a, l
    000002DC D6 3A            [ 7] 1229 	sub	a, #0x3a
    000002DE B4               [ 4] 1230 	or	a, h
    000002DF 20 10            [12] 1231 	jr	NZ, 00106$
                                   1232 ;E:\Dropbox\FAUSTO\SVILUPPI\MSX\CODE\C\MSXgl\projects\exsoccer/exsoccer_s3_b1.c:264: ERROR: no line number 264 in file E:\Dropbox\FAUSTO\SVILUPPI\MSX\CODE\C\MSXgl\projects\exsoccer/exsoccer_s3_b1.c
    000002E1 21r00r00         [10] 1233 	ld	hl, #_g_SecondsToEndOfMatch
    000002E4 35               [11] 1234 	dec	(hl)
                                   1235 ;E:\Dropbox\FAUSTO\SVILUPPI\MSX\CODE\C\MSXgl\projects\exsoccer/exsoccer_s3_b1.c:265: ERROR: no line number 265 in file E:\Dropbox\FAUSTO\SVILUPPI\MSX\CODE\C\MSXgl\projects\exsoccer/exsoccer_s3_b1.c
    000002E5 CDr0Ar09         [17] 1236 	call	_ShowHeaderInfo
                                   1237 ;E:\Dropbox\FAUSTO\SVILUPPI\MSX\CODE\C\MSXgl\projects\exsoccer/exsoccer_s3_b1.c:266: ERROR: no line number 266 in file E:\Dropbox\FAUSTO\SVILUPPI\MSX\CODE\C\MSXgl\projects\exsoccer/exsoccer_s3_b1.c
    000002E8 3Ar00r00         [13] 1238 	ld	a, (_g_SecondsToEndOfMatch+0)
    000002EB B7               [ 4] 1239 	or	a, a
    000002EC 20 03            [12] 1240 	jr	NZ, 00106$
                                   1241 ;E:\Dropbox\FAUSTO\SVILUPPI\MSX\CODE\C\MSXgl\projects\exsoccer/exsoccer_s3_b1.c:267: ERROR: no line number 267 in file E:\Dropbox\FAUSTO\SVILUPPI\MSX\CODE\C\MSXgl\projects\exsoccer/exsoccer_s3_b1.c
    000002EE CDr25r14         [17] 1242 	call	_TimeUp
    000002F1                       1243 00106$:
                                   1244 ;E:\Dropbox\FAUSTO\SVILUPPI\MSX\CODE\C\MSXgl\projects\exsoccer/exsoccer_s3_b1.c:271: ERROR: no line number 271 in file E:\Dropbox\FAUSTO\SVILUPPI\MSX\CODE\C\MSXgl\projects\exsoccer/exsoccer_s3_b1.c
    000002F1 3Ar00r00         [13] 1245 	ld	a, (_g_Timer+0)
    000002F4 3C               [ 4] 1246 	inc	a
    000002F5 C8               [11] 1247 	ret	Z
                                   1248 ;E:\Dropbox\FAUSTO\SVILUPPI\MSX\CODE\C\MSXgl\projects\exsoccer/exsoccer_s3_b1.c:272: ERROR: no line number 272 in file E:\Dropbox\FAUSTO\SVILUPPI\MSX\CODE\C\MSXgl\projects\exsoccer/exsoccer_s3_b1.c
    000002F6 2Ar00r00         [16] 1249 	ld	hl, (_g_FrameCounter)
    000002F9 7D               [ 4] 1250 	ld	a, l
    000002FA D6 3A            [ 7] 1251 	sub	a, #0x3a
    000002FC B4               [ 4] 1252 	or	a, h
    000002FD C0               [11] 1253 	ret	NZ
                                   1254 ;E:\Dropbox\FAUSTO\SVILUPPI\MSX\CODE\C\MSXgl\projects\exsoccer/exsoccer_s3_b1.c:273: ERROR: no line number 273 in file E:\Dropbox\FAUSTO\SVILUPPI\MSX\CODE\C\MSXgl\projects\exsoccer/exsoccer_s3_b1.c
    000002FE 21r00r00         [10] 1255 	ld	hl, #_g_Timer
    00000301 34               [11] 1256 	inc	(hl)
                                   1257 ;E:\Dropbox\FAUSTO\SVILUPPI\MSX\CODE\C\MSXgl\projects\exsoccer/exsoccer_s3_b1.c:277: ERROR: no line number 277 in file E:\Dropbox\FAUSTO\SVILUPPI\MSX\CODE\C\MSXgl\projects\exsoccer/exsoccer_s3_b1.c
    00000302 C9               [10] 1258 	ret
                                   1259 ;E:\Dropbox\FAUSTO\SVILUPPI\MSX\CODE\C\MSXgl\projects\exsoccer/exsoccer_s3_b1.c:278: ERROR: no line number 278 in file E:\Dropbox\FAUSTO\SVILUPPI\MSX\CODE\C\MSXgl\projects\exsoccer/exsoccer_s3_b1.c
                                   1260 ;	---------------------------------
                                   1261 ; Function TickFieldScrollingAction
                                   1262 ; ---------------------------------
    00000303                       1263 _TickFieldScrollingAction::
                                   1264 ;E:\Dropbox\FAUSTO\SVILUPPI\MSX\CODE\C\MSXgl\projects\exsoccer/exsoccer_s3_b1.c:279: ERROR: no line number 279 in file E:\Dropbox\FAUSTO\SVILUPPI\MSX\CODE\C\MSXgl\projects\exsoccer/exsoccer_s3_b1.c
    00000303 3Ar00r00         [13] 1265 	ld	a, (_g_FieldScrollingActionInProgress+0)
    00000306 3C               [ 4] 1266 	inc	a
    00000307 C8               [11] 1267 	ret	Z
                                   1268 ;E:\Dropbox\FAUSTO\SVILUPPI\MSX\CODE\C\MSXgl\projects\exsoccer/exsoccer_s3_b1.c:281: ERROR: no line number 281 in file E:\Dropbox\FAUSTO\SVILUPPI\MSX\CODE\C\MSXgl\projects\exsoccer/exsoccer_s3_b1.c
    00000308 3Ar00r00         [13] 1269 	ld	a, (_g_FieldScrollingActionInProgress+0)
    0000030B B7               [ 4] 1270 	or	a, a
    0000030C 28 11            [12] 1271 	jr	Z, 00101$
    0000030E 3Ar00r00         [13] 1272 	ld	a, (_g_FieldScrollingActionInProgress+0)
    00000311 3D               [ 4] 1273 	dec	a
    00000312 28 39            [12] 1274 	jr	Z, 00104$
    00000314 3Ar00r00         [13] 1275 	ld	a, (_g_FieldScrollingActionInProgress+0)
    00000317 D6 02            [ 7] 1276 	sub	a, #0x02
    00000319 CArBCr03         [10] 1277 	jp	Z,00114$
    0000031C C3rF0r03         [10] 1278 	jp	00117$
                                   1279 ;E:\Dropbox\FAUSTO\SVILUPPI\MSX\CODE\C\MSXgl\projects\exsoccer/exsoccer_s3_b1.c:282: ERROR: no line number 282 in file E:\Dropbox\FAUSTO\SVILUPPI\MSX\CODE\C\MSXgl\projects\exsoccer/exsoccer_s3_b1.c
    0000031F                       1280 00101$:
                                   1281 ;E:\Dropbox\FAUSTO\SVILUPPI\MSX\CODE\C\MSXgl\projects\exsoccer/exsoccer_s3_b1.c:283: ERROR: no line number 283 in file E:\Dropbox\FAUSTO\SVILUPPI\MSX\CODE\C\MSXgl\projects\exsoccer/exsoccer_s3_b1.c
    0000031F 3Ar00r00         [13] 1282 	ld	a, (_g_FieldScrollSpeed+0)
    00000322 4F               [ 4] 1283 	ld	c, a
    00000323 06 00            [ 7] 1284 	ld	b, #0x00
    00000325 21r00r00         [10] 1285 	ld	hl, #_g_FieldCurrentYPosition
    00000328 7E               [ 7] 1286 	ld	a, (hl)
    00000329 91               [ 4] 1287 	sub	a, c
    0000032A 77               [ 7] 1288 	ld	(hl), a
    0000032B 23               [ 6] 1289 	inc	hl
    0000032C 7E               [ 7] 1290 	ld	a, (hl)
    0000032D 98               [ 4] 1291 	sbc	a, b
    0000032E 77               [ 7] 1292 	ld	(hl), a
                                   1293 ;E:\Dropbox\FAUSTO\SVILUPPI\MSX\CODE\C\MSXgl\projects\exsoccer/exsoccer_s3_b1.c:284: ERROR: no line number 284 in file E:\Dropbox\FAUSTO\SVILUPPI\MSX\CODE\C\MSXgl\projects\exsoccer/exsoccer_s3_b1.c
    0000032F 3Ar01r00         [13] 1294 	ld	a, (_g_FieldCurrentYPosition+1)
    00000332 CB 7F            [ 8] 1295 	bit	7, a
    00000334 CArF0r03         [10] 1296 	jp	Z, 00117$
                                   1297 ;E:\Dropbox\FAUSTO\SVILUPPI\MSX\CODE\C\MSXgl\projects\exsoccer/exsoccer_s3_b1.c:285: ERROR: no line number 285 in file E:\Dropbox\FAUSTO\SVILUPPI\MSX\CODE\C\MSXgl\projects\exsoccer/exsoccer_s3_b1.c
    00000337 21 01 00         [10] 1298 	ld	hl, #0x0001
    0000033A 22r00r00         [16] 1299 	ld	(_g_FieldCurrentYPosition), hl
                                   1300 ;E:\Dropbox\FAUSTO\SVILUPPI\MSX\CODE\C\MSXgl\projects\exsoccer/exsoccer_s3_b1.c:286: ERROR: no line number 286 in file E:\Dropbox\FAUSTO\SVILUPPI\MSX\CODE\C\MSXgl\projects\exsoccer/exsoccer_s3_b1.c
    0000033D 21r00r00         [10] 1301 	ld	hl, #_g_FieldScrollingActionInProgress
    00000340 36 FF            [10] 1302 	ld	(hl), #0xff
                                   1303 ;E:\Dropbox\FAUSTO\SVILUPPI\MSX\CODE\C\MSXgl\projects\exsoccer/exsoccer_s3_b1.c:287: ERROR: no line number 287 in file E:\Dropbox\FAUSTO\SVILUPPI\MSX\CODE\C\MSXgl\projects\exsoccer/exsoccer_s3_b1.c
    00000342 FD 21r00r00      [14] 1304 	ld	iy, #_g_ActiveFieldZone
    00000346 FD 36 00 00      [19] 1305 	ld	0 (iy), #0x00
                                   1306 ;E:\Dropbox\FAUSTO\SVILUPPI\MSX\CODE\C\MSXgl\projects\exsoccer/exsoccer_s3_b1.c:289: ERROR: no line number 289 in file E:\Dropbox\FAUSTO\SVILUPPI\MSX\CODE\C\MSXgl\projects\exsoccer/exsoccer_s3_b1.c
    0000034A C3rF0r03         [10] 1307 	jp	00117$
                                   1308 ;E:\Dropbox\FAUSTO\SVILUPPI\MSX\CODE\C\MSXgl\projects\exsoccer/exsoccer_s3_b1.c:290: ERROR: no line number 290 in file E:\Dropbox\FAUSTO\SVILUPPI\MSX\CODE\C\MSXgl\projects\exsoccer/exsoccer_s3_b1.c
    0000034D                       1309 00104$:
                                   1310 ;E:\Dropbox\FAUSTO\SVILUPPI\MSX\CODE\C\MSXgl\projects\exsoccer/exsoccer_s3_b1.c:291: ERROR: no line number 291 in file E:\Dropbox\FAUSTO\SVILUPPI\MSX\CODE\C\MSXgl\projects\exsoccer/exsoccer_s3_b1.c
    0000034D 3Ar00r00         [13] 1311 	ld	a, (_g_FieldCurrentYPosition+0)
    00000350 D6 88            [ 7] 1312 	sub	a, #0x88
    00000352 FD 21r00r00      [14] 1313 	ld	iy, #_g_FieldCurrentYPosition
    00000356 FD B6 01         [19] 1314 	or	a, 1 (iy)
    00000359 28 32            [12] 1315 	jr	Z, 00112$
                                   1316 ;E:\Dropbox\FAUSTO\SVILUPPI\MSX\CODE\C\MSXgl\projects\exsoccer/exsoccer_s3_b1.c:283: ERROR: no line number 283 in file E:\Dropbox\FAUSTO\SVILUPPI\MSX\CODE\C\MSXgl\projects\exsoccer/exsoccer_s3_b1.c
    0000035B 3Ar00r00         [13] 1317 	ld	a, (_g_FieldScrollSpeed+0)
    0000035E 4F               [ 4] 1318 	ld	c, a
    0000035F 06 00            [ 7] 1319 	ld	b, #0x00
                                   1320 ;E:\Dropbox\FAUSTO\SVILUPPI\MSX\CODE\C\MSXgl\projects\exsoccer/exsoccer_s3_b1.c:292: ERROR: no line number 292 in file E:\Dropbox\FAUSTO\SVILUPPI\MSX\CODE\C\MSXgl\projects\exsoccer/exsoccer_s3_b1.c
    00000361 3E 8C            [ 7] 1321 	ld	a, #0x8c
    00000363 FD BE 00         [19] 1322 	cp	a, 0 (iy)
    00000366 3E 00            [ 7] 1323 	ld	a, #0x00
    00000368 FD 9E 01         [19] 1324 	sbc	a, 1 (iy)
    0000036B E2r70r03         [10] 1325 	jp	PO, 00186$
    0000036E EE 80            [ 7] 1326 	xor	a, #0x80
    00000370                       1327 00186$:
    00000370 F2r80r03         [10] 1328 	jp	P, 00106$
                                   1329 ;E:\Dropbox\FAUSTO\SVILUPPI\MSX\CODE\C\MSXgl\projects\exsoccer/exsoccer_s3_b1.c:293: ERROR: no line number 293 in file E:\Dropbox\FAUSTO\SVILUPPI\MSX\CODE\C\MSXgl\projects\exsoccer/exsoccer_s3_b1.c
    00000373 21r00r00         [10] 1330 	ld	hl, #_g_FieldCurrentYPosition
    00000376 7E               [ 7] 1331 	ld	a, (hl)
    00000377 91               [ 4] 1332 	sub	a, c
    00000378 77               [ 7] 1333 	ld	(hl), a
    00000379 23               [ 6] 1334 	inc	hl
    0000037A 7E               [ 7] 1335 	ld	a, (hl)
    0000037B 98               [ 4] 1336 	sbc	a, b
    0000037C 77               [ 7] 1337 	ld	(hl), a
    0000037D C3rF0r03         [10] 1338 	jp	00117$
    00000380                       1339 00106$:
                                   1340 ;E:\Dropbox\FAUSTO\SVILUPPI\MSX\CODE\C\MSXgl\projects\exsoccer/exsoccer_s3_b1.c:296: ERROR: no line number 296 in file E:\Dropbox\FAUSTO\SVILUPPI\MSX\CODE\C\MSXgl\projects\exsoccer/exsoccer_s3_b1.c
    00000380 21r00r00         [10] 1341 	ld	hl, #_g_FieldCurrentYPosition
    00000383 7E               [ 7] 1342 	ld	a, (hl)
    00000384 81               [ 4] 1343 	add	a, c
    00000385 77               [ 7] 1344 	ld	(hl), a
    00000386 23               [ 6] 1345 	inc	hl
    00000387 7E               [ 7] 1346 	ld	a, (hl)
    00000388 88               [ 4] 1347 	adc	a, b
    00000389 77               [ 7] 1348 	ld	(hl), a
    0000038A C3rF0r03         [10] 1349 	jp	00117$
    0000038D                       1350 00112$:
                                   1351 ;E:\Dropbox\FAUSTO\SVILUPPI\MSX\CODE\C\MSXgl\projects\exsoccer/exsoccer_s3_b1.c:301: ERROR: no line number 301 in file E:\Dropbox\FAUSTO\SVILUPPI\MSX\CODE\C\MSXgl\projects\exsoccer/exsoccer_s3_b1.c
    0000038D 21r00r00         [10] 1352 	ld	hl, #_g_FieldScrollingActionInProgress
    00000390 36 FF            [10] 1353 	ld	(hl), #0xff
                                   1354 ;E:\Dropbox\FAUSTO\SVILUPPI\MSX\CODE\C\MSXgl\projects\exsoccer/exsoccer_s3_b1.c:302: ERROR: no line number 302 in file E:\Dropbox\FAUSTO\SVILUPPI\MSX\CODE\C\MSXgl\projects\exsoccer/exsoccer_s3_b1.c
    00000392 FD 21r00r00      [14] 1355 	ld	iy, #_g_ActiveFieldZone
    00000396 FD 36 00 01      [19] 1356 	ld	0 (iy), #0x01
                                   1357 ;E:\Dropbox\FAUSTO\SVILUPPI\MSX\CODE\C\MSXgl\projects\exsoccer/exsoccer_s3_b1.c:303: ERROR: no line number 303 in file E:\Dropbox\FAUSTO\SVILUPPI\MSX\CODE\C\MSXgl\projects\exsoccer/exsoccer_s3_b1.c
    0000039A 3Ar00r00         [13] 1358 	ld	a, (_g_MatchStatus+0)
    0000039D B7               [ 4] 1359 	or	a, a
    0000039E 20 50            [12] 1360 	jr	NZ, 00117$
                                   1361 ;E:\Dropbox\FAUSTO\SVILUPPI\MSX\CODE\C\MSXgl\projects\exsoccer/exsoccer_s3_b1.c:304: ERROR: no line number 304 in file E:\Dropbox\FAUSTO\SVILUPPI\MSX\CODE\C\MSXgl\projects\exsoccer/exsoccer_s3_b1.c
    000003A0 21r00r00         [10] 1362 	ld	hl, #_g_MatchStatus
    000003A3 36 01            [10] 1363 	ld	(hl), #0x01
                                   1364 ;E:\Dropbox\FAUSTO\SVILUPPI\MSX\CODE\C\MSXgl\projects\exsoccer/exsoccer_s3_b1.c:305: ERROR: no line number 305 in file E:\Dropbox\FAUSTO\SVILUPPI\MSX\CODE\C\MSXgl\projects\exsoccer/exsoccer_s3_b1.c
    000003A5 0E 00            [ 7] 1365 	ld	c, #0x00
    000003A7                       1366 00121$:
    000003A7 79               [ 4] 1367 	ld	a, c
    000003A8 D6 0F            [ 7] 1368 	sub	a, #0x0f
    000003AA 30 0A            [12] 1369 	jr	NC, 00108$
                                   1370 ;E:\Dropbox\FAUSTO\SVILUPPI\MSX\CODE\C\MSXgl\projects\exsoccer/exsoccer_s3_b1.c:306: ERROR: no line number 306 in file E:\Dropbox\FAUSTO\SVILUPPI\MSX\CODE\C\MSXgl\projects\exsoccer/exsoccer_s3_b1.c
    000003AC C5               [11] 1371 	push	bc
    000003AD 79               [ 4] 1372 	ld	a, c
    000003AE CDr31r06         [17] 1373 	call	_SetPlayerTarget
    000003B1 C1               [10] 1374 	pop	bc
                                   1375 ;E:\Dropbox\FAUSTO\SVILUPPI\MSX\CODE\C\MSXgl\projects\exsoccer/exsoccer_s3_b1.c:305: ERROR: no line number 305 in file E:\Dropbox\FAUSTO\SVILUPPI\MSX\CODE\C\MSXgl\projects\exsoccer/exsoccer_s3_b1.c
    000003B2 0C               [ 4] 1376 	inc	c
    000003B3 C3rA7r03         [10] 1377 	jp	00121$
    000003B6                       1378 00108$:
                                   1379 ;E:\Dropbox\FAUSTO\SVILUPPI\MSX\CODE\C\MSXgl\projects\exsoccer/exsoccer_s3_b1.c:308: ERROR: no line number 308 in file E:\Dropbox\FAUSTO\SVILUPPI\MSX\CODE\C\MSXgl\projects\exsoccer/exsoccer_s3_b1.c
    000003B6 CDr9Er0F         [17] 1380 	call	_TickPlayerToOwnTarget
                                   1381 ;E:\Dropbox\FAUSTO\SVILUPPI\MSX\CODE\C\MSXgl\projects\exsoccer/exsoccer_s3_b1.c:312: ERROR: no line number 312 in file E:\Dropbox\FAUSTO\SVILUPPI\MSX\CODE\C\MSXgl\projects\exsoccer/exsoccer_s3_b1.c
    000003B9 C3rF0r03         [10] 1382 	jp	00117$
                                   1383 ;E:\Dropbox\FAUSTO\SVILUPPI\MSX\CODE\C\MSXgl\projects\exsoccer/exsoccer_s3_b1.c:313: ERROR: no line number 313 in file E:\Dropbox\FAUSTO\SVILUPPI\MSX\CODE\C\MSXgl\projects\exsoccer/exsoccer_s3_b1.c
    000003BC                       1384 00114$:
                                   1385 ;E:\Dropbox\FAUSTO\SVILUPPI\MSX\CODE\C\MSXgl\projects\exsoccer/exsoccer_s3_b1.c:314: ERROR: no line number 314 in file E:\Dropbox\FAUSTO\SVILUPPI\MSX\CODE\C\MSXgl\projects\exsoccer/exsoccer_s3_b1.c
    000003BC 3Ar00r00         [13] 1386 	ld	a, (_g_FieldScrollSpeed+0)
    000003BF 4F               [ 4] 1387 	ld	c, a
    000003C0 06 00            [ 7] 1388 	ld	b, #0x00
    000003C2 79               [ 4] 1389 	ld	a, c
    000003C3 FD 21r00r00      [14] 1390 	ld	iy, #_g_FieldCurrentYPosition
    000003C7 FD 86 00         [19] 1391 	add	a, 0 (iy)
    000003CA 32r00r00         [13] 1392 	ld	(_g_FieldCurrentYPosition+0), a
    000003CD 78               [ 4] 1393 	ld	a, b
    000003CE FD 8E 01         [19] 1394 	adc	a, 1 (iy)
    000003D1 32r01r00         [13] 1395 	ld	(_g_FieldCurrentYPosition+1), a
                                   1396 ;E:\Dropbox\FAUSTO\SVILUPPI\MSX\CODE\C\MSXgl\projects\exsoccer/exsoccer_s3_b1.c:315: ERROR: no line number 315 in file E:\Dropbox\FAUSTO\SVILUPPI\MSX\CODE\C\MSXgl\projects\exsoccer/exsoccer_s3_b1.c
    000003D4 3Ar00r00         [13] 1397 	ld	a, (_g_FieldCurrentYPosition+0)
    000003D7 D6 18            [ 7] 1398 	sub	a, #0x18
    000003D9 3Ar01r00         [13] 1399 	ld	a, (_g_FieldCurrentYPosition+1)
    000003DC 17               [ 4] 1400 	rla
    000003DD 3F               [ 4] 1401 	ccf
    000003DE 1F               [ 4] 1402 	rra
    000003DF DE 81            [ 7] 1403 	sbc	a, #0x81
    000003E1 38 0D            [12] 1404 	jr	C, 00117$
                                   1405 ;E:\Dropbox\FAUSTO\SVILUPPI\MSX\CODE\C\MSXgl\projects\exsoccer/exsoccer_s3_b1.c:316: ERROR: no line number 316 in file E:\Dropbox\FAUSTO\SVILUPPI\MSX\CODE\C\MSXgl\projects\exsoccer/exsoccer_s3_b1.c
    000003E3 21r00r00         [10] 1406 	ld	hl, #_g_ActiveFieldZone
    000003E6 36 02            [10] 1407 	ld	(hl), #0x02
                                   1408 ;E:\Dropbox\FAUSTO\SVILUPPI\MSX\CODE\C\MSXgl\projects\exsoccer/exsoccer_s3_b1.c:317: ERROR: no line number 317 in file E:\Dropbox\FAUSTO\SVILUPPI\MSX\CODE\C\MSXgl\projects\exsoccer/exsoccer_s3_b1.c
    000003E8 FD 21r00r00      [14] 1409 	ld	iy, #_g_FieldScrollingActionInProgress
    000003EC FD 36 00 FF      [19] 1410 	ld	0 (iy), #0xff
                                   1411 ;E:\Dropbox\FAUSTO\SVILUPPI\MSX\CODE\C\MSXgl\projects\exsoccer/exsoccer_s3_b1.c:320: ERROR: no line number 320 in file E:\Dropbox\FAUSTO\SVILUPPI\MSX\CODE\C\MSXgl\projects\exsoccer/exsoccer_s3_b1.c
    000003F0                       1412 00117$:
                                   1413 ;E:\Dropbox\FAUSTO\SVILUPPI\MSX\CODE\C\MSXgl\projects\exsoccer/exsoccer_s3_b1.c:321: ERROR: no line number 321 in file E:\Dropbox\FAUSTO\SVILUPPI\MSX\CODE\C\MSXgl\projects\exsoccer/exsoccer_s3_b1.c
    000003F0 2Ar00r00         [16] 1414 	ld	hl, (_g_FieldCurrentYPosition)
                                   1415 ;E:\Dropbox\FAUSTO\SVILUPPI\MSX\CODE\C\MSXgl\projects\exsoccer/exsoccer_s3_b1.c:323: ERROR: no line number 323 in file E:\Dropbox\FAUSTO\SVILUPPI\MSX\CODE\C\MSXgl\projects\exsoccer/exsoccer_s3_b1.c
    000003F3 C3r00r00         [10] 1416 	jp	_V9_SetScrollingBY
                                   1417 ;E:\Dropbox\FAUSTO\SVILUPPI\MSX\CODE\C\MSXgl\projects\exsoccer/exsoccer_s3_b1.c:324: ERROR: no line number 324 in file E:\Dropbox\FAUSTO\SVILUPPI\MSX\CODE\C\MSXgl\projects\exsoccer/exsoccer_s3_b1.c
                                   1418 ;	---------------------------------
                                   1419 ; Function TickShowKickOff
                                   1420 ; ---------------------------------
    000003F6                       1421 _TickShowKickOff::
                                   1422 ;E:\Dropbox\FAUSTO\SVILUPPI\MSX\CODE\C\MSXgl\projects\exsoccer/exsoccer_s3_b1.c:325: ERROR: no line number 325 in file E:\Dropbox\FAUSTO\SVILUPPI\MSX\CODE\C\MSXgl\projects\exsoccer/exsoccer_s3_b1.c
    000003F6 3Ar00r00         [13] 1423 	ld	a, (_g_MatchStatus+0)
    000003F9 D6 07            [ 7] 1424 	sub	a, #0x07
    000003FB C0               [11] 1425 	ret	NZ
                                   1426 ;E:\Dropbox\FAUSTO\SVILUPPI\MSX\CODE\C\MSXgl\projects\exsoccer/exsoccer_s3_b1.c:326: ERROR: no line number 326 in file E:\Dropbox\FAUSTO\SVILUPPI\MSX\CODE\C\MSXgl\projects\exsoccer/exsoccer_s3_b1.c
    000003FC 3Ar00r00         [13] 1427 	ld	a, (_g_Timer+0)
    000003FF 3D               [ 4] 1428 	dec	a
    00000400 20 10            [12] 1429 	jr	NZ, 00102$
                                   1430 ;E:\Dropbox\FAUSTO\SVILUPPI\MSX\CODE\C\MSXgl\projects\exsoccer/exsoccer_s3_b1.c:327: ERROR: no line number 327 in file E:\Dropbox\FAUSTO\SVILUPPI\MSX\CODE\C\MSXgl\projects\exsoccer/exsoccer_s3_b1.c
    00000402 21r44r04         [10] 1431 	ld	hl, #___str_0
    00000405 E5               [11] 1432 	push	hl
    00000406 2E 12            [ 7] 1433 	ld	l, #0x12
                                   1434 ;	spillPairReg hl
                                   1435 ;	spillPairReg hl
    00000408 3E 0C            [ 7] 1436 	ld	a, #0x0c
    0000040A CDr00r00         [17] 1437 	call	_V9_PrintLayerAStringAtPos
                                   1438 ;E:\Dropbox\FAUSTO\SVILUPPI\MSX\CODE\C\MSXgl\projects\exsoccer/exsoccer_s3_b1.c:328: ERROR: no line number 328 in file E:\Dropbox\FAUSTO\SVILUPPI\MSX\CODE\C\MSXgl\projects\exsoccer/exsoccer_s3_b1.c
    0000040D 21r00r00         [10] 1439 	ld	hl, #_g_Timer
    00000410 36 02            [10] 1440 	ld	(hl), #0x02
    00000412                       1441 00102$:
                                   1442 ;E:\Dropbox\FAUSTO\SVILUPPI\MSX\CODE\C\MSXgl\projects\exsoccer/exsoccer_s3_b1.c:330: ERROR: no line number 330 in file E:\Dropbox\FAUSTO\SVILUPPI\MSX\CODE\C\MSXgl\projects\exsoccer/exsoccer_s3_b1.c
    00000412 3Ar00r00         [13] 1443 	ld	a, (_g_Timer+0)
    00000415 D6 03            [ 7] 1444 	sub	a, #0x03
    00000417 C0               [11] 1445 	ret	NZ
                                   1446 ;E:\Dropbox\FAUSTO\SVILUPPI\MSX\CODE\C\MSXgl\projects\exsoccer/exsoccer_s3_b1.c:331: ERROR: no line number 331 in file E:\Dropbox\FAUSTO\SVILUPPI\MSX\CODE\C\MSXgl\projects\exsoccer/exsoccer_s3_b1.c
    00000418 3E 09            [ 7] 1447 	ld	a, #0x09
    0000041A F5               [11] 1448 	push	af
    0000041B 33               [ 6] 1449 	inc	sp
    0000041C 2E 12            [ 7] 1450 	ld	l, #0x12
                                   1451 ;	spillPairReg hl
                                   1452 ;	spillPairReg hl
    0000041E 3E 0C            [ 7] 1453 	ld	a, #0x0c
    00000420 CDr7Dr0F         [17] 1454 	call	_ClearTextFromLayerA
                                   1455 ;E:\Dropbox\FAUSTO\SVILUPPI\MSX\CODE\C\MSXgl\projects\exsoccer/exsoccer_s3_b1.c:332: ERROR: no line number 332 in file E:\Dropbox\FAUSTO\SVILUPPI\MSX\CODE\C\MSXgl\projects\exsoccer/exsoccer_s3_b1.c
    00000423 21r00r00         [10] 1456 	ld	hl, #_g_Timer
    00000426 36 FF            [10] 1457 	ld	(hl), #0xff
                                   1458 ;E:\Dropbox\FAUSTO\SVILUPPI\MSX\CODE\C\MSXgl\projects\exsoccer/exsoccer_s3_b1.c:337: ERROR: no line number 337 in file E:\Dropbox\FAUSTO\SVILUPPI\MSX\CODE\C\MSXgl\projects\exsoccer/exsoccer_s3_b1.c
    00000428 3Ar00r00         [13] 1459 	ld	a, (_g_RestartKickTeamId+0)
    0000042B B7               [ 4] 1460 	or	a, a
    0000042C 20 0A            [12] 1461 	jr	NZ, 00104$
                                   1462 ;E:\Dropbox\FAUSTO\SVILUPPI\MSX\CODE\C\MSXgl\projects\exsoccer/exsoccer_s3_b1.c:338: ERROR: no line number 338 in file E:\Dropbox\FAUSTO\SVILUPPI\MSX\CODE\C\MSXgl\projects\exsoccer/exsoccer_s3_b1.c
    0000042E 2E 04            [ 7] 1463 	ld	l, #0x04
                                   1464 ;	spillPairReg hl
                                   1465 ;	spillPairReg hl
    00000430 AF               [ 4] 1466 	xor	a, a
    00000431 CDr4Dr04         [17] 1467 	call	_GetPlayerIdByRole
    00000434 4F               [ 4] 1468 	ld	c, a
    00000435 C3r40r04         [10] 1469 	jp	00105$
    00000438                       1470 00104$:
                                   1471 ;E:\Dropbox\FAUSTO\SVILUPPI\MSX\CODE\C\MSXgl\projects\exsoccer/exsoccer_s3_b1.c:341: ERROR: no line number 341 in file E:\Dropbox\FAUSTO\SVILUPPI\MSX\CODE\C\MSXgl\projects\exsoccer/exsoccer_s3_b1.c
    00000438 2E 03            [ 7] 1472 	ld	l, #0x03
                                   1473 ;	spillPairReg hl
                                   1474 ;	spillPairReg hl
    0000043A 3E 01            [ 7] 1475 	ld	a, #0x01
    0000043C CDr4Dr04         [17] 1476 	call	_GetPlayerIdByRole
    0000043F 4F               [ 4] 1477 	ld	c, a
    00000440                       1478 00105$:
                                   1479 ;E:\Dropbox\FAUSTO\SVILUPPI\MSX\CODE\C\MSXgl\projects\exsoccer/exsoccer_s3_b1.c:343: ERROR: no line number 343 in file E:\Dropbox\FAUSTO\SVILUPPI\MSX\CODE\C\MSXgl\projects\exsoccer/exsoccer_s3_b1.c
    00000440 79               [ 4] 1480 	ld	a, c
                                   1481 ;E:\Dropbox\FAUSTO\SVILUPPI\MSX\CODE\C\MSXgl\projects\exsoccer/exsoccer_s3_b1.c:348: ERROR: no line number 348 in file E:\Dropbox\FAUSTO\SVILUPPI\MSX\CODE\C\MSXgl\projects\exsoccer/exsoccer_s3_b1.c
    00000441 C3rA6r04         [10] 1482 	jp	_PutBallOnPlayerFeet
    00000444                       1483 ___str_0:
    00000444 4B 49 43 4B 20 4F 46  1484 	.ascii "KICK OFF"
             46
    0000044C 00                    1485 	.db 0x00
                                   1486 ;E:\Dropbox\FAUSTO\SVILUPPI\MSX\CODE\C\MSXgl\projects\exsoccer/exsoccer_s3_b1.c:350: ERROR: no line number 350 in file E:\Dropbox\FAUSTO\SVILUPPI\MSX\CODE\C\MSXgl\projects\exsoccer/exsoccer_s3_b1.c
                                   1487 ;	---------------------------------
                                   1488 ; Function GetPlayerIdByRole
                                   1489 ; ---------------------------------
    0000044D                       1490 _GetPlayerIdByRole::
    0000044D DD E5            [15] 1491 	push	ix
    0000044F DD 21 00 00      [14] 1492 	ld	ix,#0
    00000453 DD 39            [15] 1493 	add	ix,sp
    00000455 F5               [11] 1494 	push	af
    00000456 3B               [ 6] 1495 	dec	sp
    00000457 4F               [ 4] 1496 	ld	c, a
    00000458 DD 75 FF         [19] 1497 	ld	-1 (ix), l
                                   1498 ;E:\Dropbox\FAUSTO\SVILUPPI\MSX\CODE\C\MSXgl\projects\exsoccer/exsoccer_s3_b1.c:351: ERROR: no line number 351 in file E:\Dropbox\FAUSTO\SVILUPPI\MSX\CODE\C\MSXgl\projects\exsoccer/exsoccer_s3_b1.c
    0000045B DD 36 FD FF      [19] 1499 	ld	-3 (ix), #0xff
                                   1500 ;E:\Dropbox\FAUSTO\SVILUPPI\MSX\CODE\C\MSXgl\projects\exsoccer/exsoccer_s3_b1.c:352: ERROR: no line number 352 in file E:\Dropbox\FAUSTO\SVILUPPI\MSX\CODE\C\MSXgl\projects\exsoccer/exsoccer_s3_b1.c
    0000045F DD 36 FE 00      [19] 1501 	ld	-2 (ix), #0x00
    00000463 06 00            [ 7] 1502 	ld	b, #0x00
    00000465                       1503 00106$:
    00000465 78               [ 4] 1504 	ld	a, b
    00000466 D6 0E            [ 7] 1505 	sub	a, #0x0e
    00000468 30 34            [12] 1506 	jr	NC, 00104$
                                   1507 ;E:\Dropbox\FAUSTO\SVILUPPI\MSX\CODE\C\MSXgl\projects\exsoccer/exsoccer_s3_b1.c:353: ERROR: no line number 353 in file E:\Dropbox\FAUSTO\SVILUPPI\MSX\CODE\C\MSXgl\projects\exsoccer/exsoccer_s3_b1.c
    0000046A 58               [ 4] 1508 	ld	e, b
    0000046B 16 00            [ 7] 1509 	ld	d, #0x00
    0000046D EB               [ 4] 1510 	ex	de, hl
    0000046E 29               [11] 1511 	add	hl, hl
    0000046F 29               [11] 1512 	add	hl, hl
    00000470 29               [11] 1513 	add	hl, hl
    00000471 29               [11] 1514 	add	hl, hl
    00000472 11r00r00         [10] 1515 	ld	de, #_g_Players
    00000475 19               [11] 1516 	add	hl, de
                                   1517 ;	spillPairReg hl
                                   1518 ;	spillPairReg hl
    00000476 5D               [ 4] 1519 	ld	e, l
    00000477 54               [ 4] 1520 	ld	d, h
                                   1521 ;	spillPairReg hl
                                   1522 ;	spillPairReg hl
    00000478 C5               [11] 1523 	push	bc
    00000479 01 09 00         [10] 1524 	ld	bc, #0x0009
    0000047C 09               [11] 1525 	add	hl, bc
    0000047D C1               [10] 1526 	pop	bc
    0000047E 6E               [ 7] 1527 	ld	l, (hl)
                                   1528 ;	spillPairReg hl
    0000047F DD 7E FF         [19] 1529 	ld	a, -1 (ix)
    00000482 95               [ 4] 1530 	sub	a, l
    00000483 20 12            [12] 1531 	jr	NZ, 00107$
    00000485 21 05 00         [10] 1532 	ld	hl, #5
    00000488 19               [11] 1533 	add	hl, de
    00000489 5E               [ 7] 1534 	ld	e, (hl)
    0000048A 79               [ 4] 1535 	ld	a, c
    0000048B 93               [ 4] 1536 	sub	a, e
    0000048C 20 09            [12] 1537 	jr	NZ, 00107$
                                   1538 ;E:\Dropbox\FAUSTO\SVILUPPI\MSX\CODE\C\MSXgl\projects\exsoccer/exsoccer_s3_b1.c:354: ERROR: no line number 354 in file E:\Dropbox\FAUSTO\SVILUPPI\MSX\CODE\C\MSXgl\projects\exsoccer/exsoccer_s3_b1.c
    0000048E DD 7E FE         [19] 1539 	ld	a, -2 (ix)
    00000491 DD 77 FD         [19] 1540 	ld	-3 (ix), a
                                   1541 ;E:\Dropbox\FAUSTO\SVILUPPI\MSX\CODE\C\MSXgl\projects\exsoccer/exsoccer_s3_b1.c:355: ERROR: no line number 355 in file E:\Dropbox\FAUSTO\SVILUPPI\MSX\CODE\C\MSXgl\projects\exsoccer/exsoccer_s3_b1.c
    00000494 C3r9Er04         [10] 1542 	jp	00104$
    00000497                       1543 00107$:
                                   1544 ;E:\Dropbox\FAUSTO\SVILUPPI\MSX\CODE\C\MSXgl\projects\exsoccer/exsoccer_s3_b1.c:352: ERROR: no line number 352 in file E:\Dropbox\FAUSTO\SVILUPPI\MSX\CODE\C\MSXgl\projects\exsoccer/exsoccer_s3_b1.c
    00000497 04               [ 4] 1545 	inc	b
    00000498 DD 70 FE         [19] 1546 	ld	-2 (ix), b
    0000049B C3r65r04         [10] 1547 	jp	00106$
    0000049E                       1548 00104$:
                                   1549 ;E:\Dropbox\FAUSTO\SVILUPPI\MSX\CODE\C\MSXgl\projects\exsoccer/exsoccer_s3_b1.c:358: ERROR: no line number 358 in file E:\Dropbox\FAUSTO\SVILUPPI\MSX\CODE\C\MSXgl\projects\exsoccer/exsoccer_s3_b1.c
    0000049E DD 7E FD         [19] 1550 	ld	a, -3 (ix)
                                   1551 ;E:\Dropbox\FAUSTO\SVILUPPI\MSX\CODE\C\MSXgl\projects\exsoccer/exsoccer_s3_b1.c:359: ERROR: no line number 359 in file E:\Dropbox\FAUSTO\SVILUPPI\MSX\CODE\C\MSXgl\projects\exsoccer/exsoccer_s3_b1.c
    000004A1 DD F9            [10] 1552 	ld	sp, ix
    000004A3 DD E1            [14] 1553 	pop	ix
    000004A5 C9               [10] 1554 	ret
                                   1555 ;E:\Dropbox\FAUSTO\SVILUPPI\MSX\CODE\C\MSXgl\projects\exsoccer/exsoccer_s3_b1.c:360: ERROR: no line number 360 in file E:\Dropbox\FAUSTO\SVILUPPI\MSX\CODE\C\MSXgl\projects\exsoccer/exsoccer_s3_b1.c
                                   1556 ;	---------------------------------
                                   1557 ; Function PutBallOnPlayerFeet
                                   1558 ; ---------------------------------
    000004A6                       1559 _PutBallOnPlayerFeet::
    000004A6 5F               [ 4] 1560 	ld	e, a
                                   1561 ;E:\Dropbox\FAUSTO\SVILUPPI\MSX\CODE\C\MSXgl\projects\exsoccer/exsoccer_s3_b1.c:361: ERROR: no line number 361 in file E:\Dropbox\FAUSTO\SVILUPPI\MSX\CODE\C\MSXgl\projects\exsoccer/exsoccer_s3_b1.c
    000004A7 21r06r00         [10] 1562 	ld	hl, #(_g_Ball + 6)
    000004AA 73               [ 7] 1563 	ld	(hl), e
                                   1564 ;E:\Dropbox\FAUSTO\SVILUPPI\MSX\CODE\C\MSXgl\projects\exsoccer/exsoccer_s3_b1.c:362: ERROR: no line number 362 in file E:\Dropbox\FAUSTO\SVILUPPI\MSX\CODE\C\MSXgl\projects\exsoccer/exsoccer_s3_b1.c
    000004AB 01r00r00         [10] 1565 	ld	bc, #_g_Players+0
    000004AE 6B               [ 4] 1566 	ld	l, e
                                   1567 ;	spillPairReg hl
                                   1568 ;	spillPairReg hl
    000004AF 26 00            [ 7] 1569 	ld	h, #0x00
                                   1570 ;	spillPairReg hl
                                   1571 ;	spillPairReg hl
    000004B1 29               [11] 1572 	add	hl, hl
    000004B2 29               [11] 1573 	add	hl, hl
    000004B3 29               [11] 1574 	add	hl, hl
    000004B4 29               [11] 1575 	add	hl, hl
    000004B5 09               [11] 1576 	add	hl, bc
    000004B6 EB               [ 4] 1577 	ex	de, hl
    000004B7 FD 21 06 00      [14] 1578 	ld	iy, #0x0006
    000004BB FD 19            [15] 1579 	add	iy, de
    000004BD FD 4E 00         [19] 1580 	ld	c, 0 (iy)
    000004C0 3E 08            [ 7] 1581 	ld	a, #0x08
    000004C2 91               [ 4] 1582 	sub	a, c
    000004C3 D8               [11] 1583 	ret	C
    000004C4 06 00            [ 7] 1584 	ld	b, #0x00
    000004C6 21rCDr04         [10] 1585 	ld	hl, #00117$
    000004C9 09               [11] 1586 	add	hl, bc
    000004CA 09               [11] 1587 	add	hl, bc
    000004CB 09               [11] 1588 	add	hl, bc
    000004CC E9               [ 4] 1589 	jp	(hl)
    000004CD                       1590 00117$:
    000004CD C3r30r06         [10] 1591 	jp	00110$
    000004D0 C3rE8r04         [10] 1592 	jp	00101$
    000004D3 C3rADr05         [10] 1593 	jp	00106$
    000004D6 C3r5Ar05         [10] 1594 	jp	00104$
    000004D9 C3r05r06         [10] 1595 	jp	00108$
    000004DC C3r0Fr05         [10] 1596 	jp	00102$
    000004DF C3rD9r05         [10] 1597 	jp	00107$
    000004E2 C3r33r05         [10] 1598 	jp	00103$
    000004E5 C3r7Er05         [10] 1599 	jp	00105$
                                   1600 ;E:\Dropbox\FAUSTO\SVILUPPI\MSX\CODE\C\MSXgl\projects\exsoccer/exsoccer_s3_b1.c:363: ERROR: no line number 363 in file E:\Dropbox\FAUSTO\SVILUPPI\MSX\CODE\C\MSXgl\projects\exsoccer/exsoccer_s3_b1.c
    000004E8                       1601 00101$:
                                   1602 ;E:\Dropbox\FAUSTO\SVILUPPI\MSX\CODE\C\MSXgl\projects\exsoccer/exsoccer_s3_b1.c:364: ERROR: no line number 364 in file E:\Dropbox\FAUSTO\SVILUPPI\MSX\CODE\C\MSXgl\projects\exsoccer/exsoccer_s3_b1.c
    000004E8 6B               [ 4] 1603 	ld	l, e
                                   1604 ;	spillPairReg hl
                                   1605 ;	spillPairReg hl
    000004E9 62               [ 4] 1606 	ld	h, d
                                   1607 ;	spillPairReg hl
                                   1608 ;	spillPairReg hl
    000004EA 23               [ 6] 1609 	inc	hl
    000004EB 23               [ 6] 1610 	inc	hl
    000004EC 4E               [ 7] 1611 	ld	c, (hl)
    000004ED 23               [ 6] 1612 	inc	hl
    000004EE 46               [ 7] 1613 	ld	b, (hl)
    000004EF ED 43r02r00      [20] 1614 	ld	((_g_Ball + 2)), bc
                                   1615 ;E:\Dropbox\FAUSTO\SVILUPPI\MSX\CODE\C\MSXgl\projects\exsoccer/exsoccer_s3_b1.c:365: ERROR: no line number 365 in file E:\Dropbox\FAUSTO\SVILUPPI\MSX\CODE\C\MSXgl\projects\exsoccer/exsoccer_s3_b1.c
    000004F3 EB               [ 4] 1616 	ex	de,hl
    000004F4 4E               [ 7] 1617 	ld	c, (hl)
    000004F5 23               [ 6] 1618 	inc	hl
    000004F6 46               [ 7] 1619 	ld	b, (hl)
    000004F7 79               [ 4] 1620 	ld	a, c
    000004F8 C6 FB            [ 7] 1621 	add	a, #0xfb
    000004FA 4F               [ 4] 1622 	ld	c, a
    000004FB 78               [ 4] 1623 	ld	a, b
    000004FC CE FF            [ 7] 1624 	adc	a, #0xff
    000004FE 47               [ 4] 1625 	ld	b, a
    000004FF ED 43r00r00      [20] 1626 	ld	(_g_Ball), bc
                                   1627 ;E:\Dropbox\FAUSTO\SVILUPPI\MSX\CODE\C\MSXgl\projects\exsoccer/exsoccer_s3_b1.c:366: ERROR: no line number 366 in file E:\Dropbox\FAUSTO\SVILUPPI\MSX\CODE\C\MSXgl\projects\exsoccer/exsoccer_s3_b1.c
    00000503 ED 43r07r00      [20] 1628 	ld	((_g_Ball + 7)), bc
                                   1629 ;E:\Dropbox\FAUSTO\SVILUPPI\MSX\CODE\C\MSXgl\projects\exsoccer/exsoccer_s3_b1.c:367: ERROR: no line number 367 in file E:\Dropbox\FAUSTO\SVILUPPI\MSX\CODE\C\MSXgl\projects\exsoccer/exsoccer_s3_b1.c
    00000507 01r05r00         [10] 1630 	ld	bc, #_g_Ball + 5
    0000050A FD 7E 00         [19] 1631 	ld	a, 0 (iy)
    0000050D 02               [ 7] 1632 	ld	(bc), a
                                   1633 ;E:\Dropbox\FAUSTO\SVILUPPI\MSX\CODE\C\MSXgl\projects\exsoccer/exsoccer_s3_b1.c:368: ERROR: no line number 368 in file E:\Dropbox\FAUSTO\SVILUPPI\MSX\CODE\C\MSXgl\projects\exsoccer/exsoccer_s3_b1.c
    0000050E C9               [10] 1634 	ret
                                   1635 ;E:\Dropbox\FAUSTO\SVILUPPI\MSX\CODE\C\MSXgl\projects\exsoccer/exsoccer_s3_b1.c:369: ERROR: no line number 369 in file E:\Dropbox\FAUSTO\SVILUPPI\MSX\CODE\C\MSXgl\projects\exsoccer/exsoccer_s3_b1.c
    0000050F                       1636 00102$:
                                   1637 ;E:\Dropbox\FAUSTO\SVILUPPI\MSX\CODE\C\MSXgl\projects\exsoccer/exsoccer_s3_b1.c:370: ERROR: no line number 370 in file E:\Dropbox\FAUSTO\SVILUPPI\MSX\CODE\C\MSXgl\projects\exsoccer/exsoccer_s3_b1.c
    0000050F 6B               [ 4] 1638 	ld	l, e
                                   1639 ;	spillPairReg hl
                                   1640 ;	spillPairReg hl
    00000510 62               [ 4] 1641 	ld	h, d
                                   1642 ;	spillPairReg hl
                                   1643 ;	spillPairReg hl
    00000511 23               [ 6] 1644 	inc	hl
    00000512 23               [ 6] 1645 	inc	hl
    00000513 4E               [ 7] 1646 	ld	c, (hl)
    00000514 23               [ 6] 1647 	inc	hl
    00000515 46               [ 7] 1648 	ld	b, (hl)
    00000516 ED 43r02r00      [20] 1649 	ld	((_g_Ball + 2)), bc
                                   1650 ;E:\Dropbox\FAUSTO\SVILUPPI\MSX\CODE\C\MSXgl\projects\exsoccer/exsoccer_s3_b1.c:371: ERROR: no line number 371 in file E:\Dropbox\FAUSTO\SVILUPPI\MSX\CODE\C\MSXgl\projects\exsoccer/exsoccer_s3_b1.c
    0000051A EB               [ 4] 1651 	ex	de,hl
    0000051B 4E               [ 7] 1652 	ld	c, (hl)
    0000051C 23               [ 6] 1653 	inc	hl
    0000051D 46               [ 7] 1654 	ld	b, (hl)
    0000051E 03               [ 6] 1655 	inc	bc
    0000051F 03               [ 6] 1656 	inc	bc
    00000520 03               [ 6] 1657 	inc	bc
    00000521 03               [ 6] 1658 	inc	bc
    00000522 03               [ 6] 1659 	inc	bc
    00000523 ED 43r00r00      [20] 1660 	ld	(_g_Ball), bc
                                   1661 ;E:\Dropbox\FAUSTO\SVILUPPI\MSX\CODE\C\MSXgl\projects\exsoccer/exsoccer_s3_b1.c:372: ERROR: no line number 372 in file E:\Dropbox\FAUSTO\SVILUPPI\MSX\CODE\C\MSXgl\projects\exsoccer/exsoccer_s3_b1.c
    00000527 ED 43r07r00      [20] 1662 	ld	((_g_Ball + 7)), bc
                                   1663 ;E:\Dropbox\FAUSTO\SVILUPPI\MSX\CODE\C\MSXgl\projects\exsoccer/exsoccer_s3_b1.c:373: ERROR: no line number 373 in file E:\Dropbox\FAUSTO\SVILUPPI\MSX\CODE\C\MSXgl\projects\exsoccer/exsoccer_s3_b1.c
    0000052B 01r05r00         [10] 1664 	ld	bc, #_g_Ball + 5
    0000052E FD 7E 00         [19] 1665 	ld	a, 0 (iy)
    00000531 02               [ 7] 1666 	ld	(bc), a
                                   1667 ;E:\Dropbox\FAUSTO\SVILUPPI\MSX\CODE\C\MSXgl\projects\exsoccer/exsoccer_s3_b1.c:374: ERROR: no line number 374 in file E:\Dropbox\FAUSTO\SVILUPPI\MSX\CODE\C\MSXgl\projects\exsoccer/exsoccer_s3_b1.c
    00000532 C9               [10] 1668 	ret
                                   1669 ;E:\Dropbox\FAUSTO\SVILUPPI\MSX\CODE\C\MSXgl\projects\exsoccer/exsoccer_s3_b1.c:375: ERROR: no line number 375 in file E:\Dropbox\FAUSTO\SVILUPPI\MSX\CODE\C\MSXgl\projects\exsoccer/exsoccer_s3_b1.c
    00000533                       1670 00103$:
                                   1671 ;E:\Dropbox\FAUSTO\SVILUPPI\MSX\CODE\C\MSXgl\projects\exsoccer/exsoccer_s3_b1.c:376: ERROR: no line number 376 in file E:\Dropbox\FAUSTO\SVILUPPI\MSX\CODE\C\MSXgl\projects\exsoccer/exsoccer_s3_b1.c
    00000533 6B               [ 4] 1672 	ld	l, e
                                   1673 ;	spillPairReg hl
                                   1674 ;	spillPairReg hl
    00000534 62               [ 4] 1675 	ld	h, d
                                   1676 ;	spillPairReg hl
                                   1677 ;	spillPairReg hl
    00000535 23               [ 6] 1678 	inc	hl
    00000536 23               [ 6] 1679 	inc	hl
    00000537 4E               [ 7] 1680 	ld	c, (hl)
    00000538 23               [ 6] 1681 	inc	hl
    00000539 46               [ 7] 1682 	ld	b, (hl)
    0000053A 79               [ 4] 1683 	ld	a, c
    0000053B C6 FB            [ 7] 1684 	add	a, #0xfb
    0000053D 4F               [ 4] 1685 	ld	c, a
    0000053E 78               [ 4] 1686 	ld	a, b
    0000053F CE FF            [ 7] 1687 	adc	a, #0xff
    00000541 47               [ 4] 1688 	ld	b, a
    00000542 ED 43r02r00      [20] 1689 	ld	((_g_Ball + 2)), bc
                                   1690 ;E:\Dropbox\FAUSTO\SVILUPPI\MSX\CODE\C\MSXgl\projects\exsoccer/exsoccer_s3_b1.c:377: ERROR: no line number 377 in file E:\Dropbox\FAUSTO\SVILUPPI\MSX\CODE\C\MSXgl\projects\exsoccer/exsoccer_s3_b1.c
    00000546 EB               [ 4] 1691 	ex	de,hl
    00000547 4E               [ 7] 1692 	ld	c, (hl)
    00000548 23               [ 6] 1693 	inc	hl
    00000549 46               [ 7] 1694 	ld	b, (hl)
    0000054A ED 43r00r00      [20] 1695 	ld	(_g_Ball), bc
                                   1696 ;E:\Dropbox\FAUSTO\SVILUPPI\MSX\CODE\C\MSXgl\projects\exsoccer/exsoccer_s3_b1.c:378: ERROR: no line number 378 in file E:\Dropbox\FAUSTO\SVILUPPI\MSX\CODE\C\MSXgl\projects\exsoccer/exsoccer_s3_b1.c
    0000054E ED 43r07r00      [20] 1697 	ld	((_g_Ball + 7)), bc
                                   1698 ;E:\Dropbox\FAUSTO\SVILUPPI\MSX\CODE\C\MSXgl\projects\exsoccer/exsoccer_s3_b1.c:379: ERROR: no line number 379 in file E:\Dropbox\FAUSTO\SVILUPPI\MSX\CODE\C\MSXgl\projects\exsoccer/exsoccer_s3_b1.c
    00000552 01r05r00         [10] 1699 	ld	bc, #_g_Ball + 5
    00000555 FD 7E 00         [19] 1700 	ld	a, 0 (iy)
    00000558 02               [ 7] 1701 	ld	(bc), a
                                   1702 ;E:\Dropbox\FAUSTO\SVILUPPI\MSX\CODE\C\MSXgl\projects\exsoccer/exsoccer_s3_b1.c:380: ERROR: no line number 380 in file E:\Dropbox\FAUSTO\SVILUPPI\MSX\CODE\C\MSXgl\projects\exsoccer/exsoccer_s3_b1.c
    00000559 C9               [10] 1703 	ret
                                   1704 ;E:\Dropbox\FAUSTO\SVILUPPI\MSX\CODE\C\MSXgl\projects\exsoccer/exsoccer_s3_b1.c:381: ERROR: no line number 381 in file E:\Dropbox\FAUSTO\SVILUPPI\MSX\CODE\C\MSXgl\projects\exsoccer/exsoccer_s3_b1.c
    0000055A                       1705 00104$:
                                   1706 ;E:\Dropbox\FAUSTO\SVILUPPI\MSX\CODE\C\MSXgl\projects\exsoccer/exsoccer_s3_b1.c:382: ERROR: no line number 382 in file E:\Dropbox\FAUSTO\SVILUPPI\MSX\CODE\C\MSXgl\projects\exsoccer/exsoccer_s3_b1.c
    0000055A 6B               [ 4] 1707 	ld	l, e
                                   1708 ;	spillPairReg hl
                                   1709 ;	spillPairReg hl
    0000055B 62               [ 4] 1710 	ld	h, d
                                   1711 ;	spillPairReg hl
                                   1712 ;	spillPairReg hl
    0000055C 23               [ 6] 1713 	inc	hl
    0000055D 23               [ 6] 1714 	inc	hl
    0000055E 4E               [ 7] 1715 	ld	c, (hl)
    0000055F 23               [ 6] 1716 	inc	hl
    00000560 46               [ 7] 1717 	ld	b, (hl)
    00000561 ED 43r02r00      [20] 1718 	ld	((_g_Ball + 2)), bc
                                   1719 ;E:\Dropbox\FAUSTO\SVILUPPI\MSX\CODE\C\MSXgl\projects\exsoccer/exsoccer_s3_b1.c:383: ERROR: no line number 383 in file E:\Dropbox\FAUSTO\SVILUPPI\MSX\CODE\C\MSXgl\projects\exsoccer/exsoccer_s3_b1.c
    00000565 EB               [ 4] 1720 	ex	de,hl
    00000566 4E               [ 7] 1721 	ld	c, (hl)
    00000567 23               [ 6] 1722 	inc	hl
    00000568 46               [ 7] 1723 	ld	b, (hl)
    00000569 03               [ 6] 1724 	inc	bc
    0000056A 03               [ 6] 1725 	inc	bc
    0000056B 03               [ 6] 1726 	inc	bc
    0000056C 03               [ 6] 1727 	inc	bc
    0000056D 03               [ 6] 1728 	inc	bc
    0000056E ED 43r00r00      [20] 1729 	ld	(_g_Ball), bc
                                   1730 ;E:\Dropbox\FAUSTO\SVILUPPI\MSX\CODE\C\MSXgl\projects\exsoccer/exsoccer_s3_b1.c:384: ERROR: no line number 384 in file E:\Dropbox\FAUSTO\SVILUPPI\MSX\CODE\C\MSXgl\projects\exsoccer/exsoccer_s3_b1.c
    00000572 ED 43r07r00      [20] 1731 	ld	((_g_Ball + 7)), bc
                                   1732 ;E:\Dropbox\FAUSTO\SVILUPPI\MSX\CODE\C\MSXgl\projects\exsoccer/exsoccer_s3_b1.c:385: ERROR: no line number 385 in file E:\Dropbox\FAUSTO\SVILUPPI\MSX\CODE\C\MSXgl\projects\exsoccer/exsoccer_s3_b1.c
    00000576 01r05r00         [10] 1733 	ld	bc, #_g_Ball + 5
    00000579 FD 7E 00         [19] 1734 	ld	a, 0 (iy)
    0000057C 02               [ 7] 1735 	ld	(bc), a
                                   1736 ;E:\Dropbox\FAUSTO\SVILUPPI\MSX\CODE\C\MSXgl\projects\exsoccer/exsoccer_s3_b1.c:386: ERROR: no line number 386 in file E:\Dropbox\FAUSTO\SVILUPPI\MSX\CODE\C\MSXgl\projects\exsoccer/exsoccer_s3_b1.c
    0000057D C9               [10] 1737 	ret
                                   1738 ;E:\Dropbox\FAUSTO\SVILUPPI\MSX\CODE\C\MSXgl\projects\exsoccer/exsoccer_s3_b1.c:387: ERROR: no line number 387 in file E:\Dropbox\FAUSTO\SVILUPPI\MSX\CODE\C\MSXgl\projects\exsoccer/exsoccer_s3_b1.c
    0000057E                       1739 00105$:
                                   1740 ;E:\Dropbox\FAUSTO\SVILUPPI\MSX\CODE\C\MSXgl\projects\exsoccer/exsoccer_s3_b1.c:388: ERROR: no line number 388 in file E:\Dropbox\FAUSTO\SVILUPPI\MSX\CODE\C\MSXgl\projects\exsoccer/exsoccer_s3_b1.c
    0000057E 6B               [ 4] 1741 	ld	l, e
                                   1742 ;	spillPairReg hl
                                   1743 ;	spillPairReg hl
    0000057F 62               [ 4] 1744 	ld	h, d
                                   1745 ;	spillPairReg hl
                                   1746 ;	spillPairReg hl
    00000580 23               [ 6] 1747 	inc	hl
    00000581 23               [ 6] 1748 	inc	hl
    00000582 4E               [ 7] 1749 	ld	c, (hl)
    00000583 23               [ 6] 1750 	inc	hl
    00000584 46               [ 7] 1751 	ld	b, (hl)
    00000585 79               [ 4] 1752 	ld	a, c
    00000586 C6 FB            [ 7] 1753 	add	a, #0xfb
    00000588 4F               [ 4] 1754 	ld	c, a
    00000589 78               [ 4] 1755 	ld	a, b
    0000058A CE FF            [ 7] 1756 	adc	a, #0xff
    0000058C 47               [ 4] 1757 	ld	b, a
    0000058D ED 43r02r00      [20] 1758 	ld	((_g_Ball + 2)), bc
                                   1759 ;E:\Dropbox\FAUSTO\SVILUPPI\MSX\CODE\C\MSXgl\projects\exsoccer/exsoccer_s3_b1.c:389: ERROR: no line number 389 in file E:\Dropbox\FAUSTO\SVILUPPI\MSX\CODE\C\MSXgl\projects\exsoccer/exsoccer_s3_b1.c
    00000591 EB               [ 4] 1760 	ex	de,hl
    00000592 4E               [ 7] 1761 	ld	c, (hl)
    00000593 23               [ 6] 1762 	inc	hl
    00000594 46               [ 7] 1763 	ld	b, (hl)
    00000595 79               [ 4] 1764 	ld	a, c
    00000596 C6 FB            [ 7] 1765 	add	a, #0xfb
    00000598 4F               [ 4] 1766 	ld	c, a
    00000599 78               [ 4] 1767 	ld	a, b
    0000059A CE FF            [ 7] 1768 	adc	a, #0xff
    0000059C 47               [ 4] 1769 	ld	b, a
    0000059D ED 43r00r00      [20] 1770 	ld	(_g_Ball), bc
                                   1771 ;E:\Dropbox\FAUSTO\SVILUPPI\MSX\CODE\C\MSXgl\projects\exsoccer/exsoccer_s3_b1.c:390: ERROR: no line number 390 in file E:\Dropbox\FAUSTO\SVILUPPI\MSX\CODE\C\MSXgl\projects\exsoccer/exsoccer_s3_b1.c
    000005A1 ED 43r07r00      [20] 1772 	ld	((_g_Ball + 7)), bc
                                   1773 ;E:\Dropbox\FAUSTO\SVILUPPI\MSX\CODE\C\MSXgl\projects\exsoccer/exsoccer_s3_b1.c:391: ERROR: no line number 391 in file E:\Dropbox\FAUSTO\SVILUPPI\MSX\CODE\C\MSXgl\projects\exsoccer/exsoccer_s3_b1.c
    000005A5 01r05r00         [10] 1774 	ld	bc, #_g_Ball + 5
    000005A8 FD 7E 00         [19] 1775 	ld	a, 0 (iy)
    000005AB 02               [ 7] 1776 	ld	(bc), a
                                   1777 ;E:\Dropbox\FAUSTO\SVILUPPI\MSX\CODE\C\MSXgl\projects\exsoccer/exsoccer_s3_b1.c:392: ERROR: no line number 392 in file E:\Dropbox\FAUSTO\SVILUPPI\MSX\CODE\C\MSXgl\projects\exsoccer/exsoccer_s3_b1.c
    000005AC C9               [10] 1778 	ret
                                   1779 ;E:\Dropbox\FAUSTO\SVILUPPI\MSX\CODE\C\MSXgl\projects\exsoccer/exsoccer_s3_b1.c:393: ERROR: no line number 393 in file E:\Dropbox\FAUSTO\SVILUPPI\MSX\CODE\C\MSXgl\projects\exsoccer/exsoccer_s3_b1.c
    000005AD                       1780 00106$:
                                   1781 ;E:\Dropbox\FAUSTO\SVILUPPI\MSX\CODE\C\MSXgl\projects\exsoccer/exsoccer_s3_b1.c:394: ERROR: no line number 394 in file E:\Dropbox\FAUSTO\SVILUPPI\MSX\CODE\C\MSXgl\projects\exsoccer/exsoccer_s3_b1.c
    000005AD 6B               [ 4] 1782 	ld	l, e
                                   1783 ;	spillPairReg hl
                                   1784 ;	spillPairReg hl
    000005AE 62               [ 4] 1785 	ld	h, d
                                   1786 ;	spillPairReg hl
                                   1787 ;	spillPairReg hl
    000005AF 23               [ 6] 1788 	inc	hl
    000005B0 23               [ 6] 1789 	inc	hl
    000005B1 4E               [ 7] 1790 	ld	c, (hl)
    000005B2 23               [ 6] 1791 	inc	hl
    000005B3 46               [ 7] 1792 	ld	b, (hl)
    000005B4 03               [ 6] 1793 	inc	bc
    000005B5 03               [ 6] 1794 	inc	bc
    000005B6 03               [ 6] 1795 	inc	bc
    000005B7 03               [ 6] 1796 	inc	bc
    000005B8 03               [ 6] 1797 	inc	bc
    000005B9 ED 43r02r00      [20] 1798 	ld	((_g_Ball + 2)), bc
                                   1799 ;E:\Dropbox\FAUSTO\SVILUPPI\MSX\CODE\C\MSXgl\projects\exsoccer/exsoccer_s3_b1.c:395: ERROR: no line number 395 in file E:\Dropbox\FAUSTO\SVILUPPI\MSX\CODE\C\MSXgl\projects\exsoccer/exsoccer_s3_b1.c
    000005BD EB               [ 4] 1800 	ex	de,hl
    000005BE 4E               [ 7] 1801 	ld	c, (hl)
    000005BF 23               [ 6] 1802 	inc	hl
    000005C0 46               [ 7] 1803 	ld	b, (hl)
    000005C1 79               [ 4] 1804 	ld	a, c
    000005C2 C6 FB            [ 7] 1805 	add	a, #0xfb
    000005C4 4F               [ 4] 1806 	ld	c, a
    000005C5 78               [ 4] 1807 	ld	a, b
    000005C6 CE FF            [ 7] 1808 	adc	a, #0xff
    000005C8 47               [ 4] 1809 	ld	b, a
    000005C9 ED 43r00r00      [20] 1810 	ld	(_g_Ball), bc
                                   1811 ;E:\Dropbox\FAUSTO\SVILUPPI\MSX\CODE\C\MSXgl\projects\exsoccer/exsoccer_s3_b1.c:396: ERROR: no line number 396 in file E:\Dropbox\FAUSTO\SVILUPPI\MSX\CODE\C\MSXgl\projects\exsoccer/exsoccer_s3_b1.c
    000005CD ED 43r07r00      [20] 1812 	ld	((_g_Ball + 7)), bc
                                   1813 ;E:\Dropbox\FAUSTO\SVILUPPI\MSX\CODE\C\MSXgl\projects\exsoccer/exsoccer_s3_b1.c:397: ERROR: no line number 397 in file E:\Dropbox\FAUSTO\SVILUPPI\MSX\CODE\C\MSXgl\projects\exsoccer/exsoccer_s3_b1.c
    000005D1 01r05r00         [10] 1814 	ld	bc, #_g_Ball + 5
    000005D4 FD 7E 00         [19] 1815 	ld	a, 0 (iy)
    000005D7 02               [ 7] 1816 	ld	(bc), a
                                   1817 ;E:\Dropbox\FAUSTO\SVILUPPI\MSX\CODE\C\MSXgl\projects\exsoccer/exsoccer_s3_b1.c:398: ERROR: no line number 398 in file E:\Dropbox\FAUSTO\SVILUPPI\MSX\CODE\C\MSXgl\projects\exsoccer/exsoccer_s3_b1.c
    000005D8 C9               [10] 1818 	ret
                                   1819 ;E:\Dropbox\FAUSTO\SVILUPPI\MSX\CODE\C\MSXgl\projects\exsoccer/exsoccer_s3_b1.c:399: ERROR: no line number 399 in file E:\Dropbox\FAUSTO\SVILUPPI\MSX\CODE\C\MSXgl\projects\exsoccer/exsoccer_s3_b1.c
    000005D9                       1820 00107$:
                                   1821 ;E:\Dropbox\FAUSTO\SVILUPPI\MSX\CODE\C\MSXgl\projects\exsoccer/exsoccer_s3_b1.c:400: ERROR: no line number 400 in file E:\Dropbox\FAUSTO\SVILUPPI\MSX\CODE\C\MSXgl\projects\exsoccer/exsoccer_s3_b1.c
    000005D9 6B               [ 4] 1822 	ld	l, e
                                   1823 ;	spillPairReg hl
                                   1824 ;	spillPairReg hl
    000005DA 62               [ 4] 1825 	ld	h, d
                                   1826 ;	spillPairReg hl
                                   1827 ;	spillPairReg hl
    000005DB 23               [ 6] 1828 	inc	hl
    000005DC 23               [ 6] 1829 	inc	hl
    000005DD 4E               [ 7] 1830 	ld	c, (hl)
    000005DE 23               [ 6] 1831 	inc	hl
    000005DF 46               [ 7] 1832 	ld	b, (hl)
    000005E0 79               [ 4] 1833 	ld	a, c
    000005E1 C6 FB            [ 7] 1834 	add	a, #0xfb
    000005E3 4F               [ 4] 1835 	ld	c, a
    000005E4 78               [ 4] 1836 	ld	a, b
    000005E5 CE FF            [ 7] 1837 	adc	a, #0xff
    000005E7 47               [ 4] 1838 	ld	b, a
    000005E8 ED 43r02r00      [20] 1839 	ld	((_g_Ball + 2)), bc
                                   1840 ;E:\Dropbox\FAUSTO\SVILUPPI\MSX\CODE\C\MSXgl\projects\exsoccer/exsoccer_s3_b1.c:401: ERROR: no line number 401 in file E:\Dropbox\FAUSTO\SVILUPPI\MSX\CODE\C\MSXgl\projects\exsoccer/exsoccer_s3_b1.c
    000005EC EB               [ 4] 1841 	ex	de,hl
    000005ED 4E               [ 7] 1842 	ld	c, (hl)
    000005EE 23               [ 6] 1843 	inc	hl
    000005EF 46               [ 7] 1844 	ld	b, (hl)
    000005F0 03               [ 6] 1845 	inc	bc
    000005F1 03               [ 6] 1846 	inc	bc
    000005F2 03               [ 6] 1847 	inc	bc
    000005F3 03               [ 6] 1848 	inc	bc
    000005F4 03               [ 6] 1849 	inc	bc
    000005F5 ED 43r00r00      [20] 1850 	ld	(_g_Ball), bc
                                   1851 ;E:\Dropbox\FAUSTO\SVILUPPI\MSX\CODE\C\MSXgl\projects\exsoccer/exsoccer_s3_b1.c:402: ERROR: no line number 402 in file E:\Dropbox\FAUSTO\SVILUPPI\MSX\CODE\C\MSXgl\projects\exsoccer/exsoccer_s3_b1.c
    000005F9 ED 43r07r00      [20] 1852 	ld	((_g_Ball + 7)), bc
                                   1853 ;E:\Dropbox\FAUSTO\SVILUPPI\MSX\CODE\C\MSXgl\projects\exsoccer/exsoccer_s3_b1.c:403: ERROR: no line number 403 in file E:\Dropbox\FAUSTO\SVILUPPI\MSX\CODE\C\MSXgl\projects\exsoccer/exsoccer_s3_b1.c
    000005FD 01r05r00         [10] 1854 	ld	bc, #_g_Ball + 5
    00000600 FD 7E 00         [19] 1855 	ld	a, 0 (iy)
    00000603 02               [ 7] 1856 	ld	(bc), a
                                   1857 ;E:\Dropbox\FAUSTO\SVILUPPI\MSX\CODE\C\MSXgl\projects\exsoccer/exsoccer_s3_b1.c:404: ERROR: no line number 404 in file E:\Dropbox\FAUSTO\SVILUPPI\MSX\CODE\C\MSXgl\projects\exsoccer/exsoccer_s3_b1.c
    00000604 C9               [10] 1858 	ret
                                   1859 ;E:\Dropbox\FAUSTO\SVILUPPI\MSX\CODE\C\MSXgl\projects\exsoccer/exsoccer_s3_b1.c:405: ERROR: no line number 405 in file E:\Dropbox\FAUSTO\SVILUPPI\MSX\CODE\C\MSXgl\projects\exsoccer/exsoccer_s3_b1.c
    00000605                       1860 00108$:
                                   1861 ;E:\Dropbox\FAUSTO\SVILUPPI\MSX\CODE\C\MSXgl\projects\exsoccer/exsoccer_s3_b1.c:406: ERROR: no line number 406 in file E:\Dropbox\FAUSTO\SVILUPPI\MSX\CODE\C\MSXgl\projects\exsoccer/exsoccer_s3_b1.c
    00000605 6B               [ 4] 1862 	ld	l, e
                                   1863 ;	spillPairReg hl
                                   1864 ;	spillPairReg hl
    00000606 62               [ 4] 1865 	ld	h, d
                                   1866 ;	spillPairReg hl
                                   1867 ;	spillPairReg hl
    00000607 23               [ 6] 1868 	inc	hl
    00000608 23               [ 6] 1869 	inc	hl
    00000609 4E               [ 7] 1870 	ld	c, (hl)
    0000060A 23               [ 6] 1871 	inc	hl
    0000060B 46               [ 7] 1872 	ld	b, (hl)
    0000060C 03               [ 6] 1873 	inc	bc
    0000060D 03               [ 6] 1874 	inc	bc
    0000060E 03               [ 6] 1875 	inc	bc
    0000060F 03               [ 6] 1876 	inc	bc
    00000610 03               [ 6] 1877 	inc	bc
    00000611 ED 43r02r00      [20] 1878 	ld	((_g_Ball + 2)), bc
                                   1879 ;E:\Dropbox\FAUSTO\SVILUPPI\MSX\CODE\C\MSXgl\projects\exsoccer/exsoccer_s3_b1.c:407: ERROR: no line number 407 in file E:\Dropbox\FAUSTO\SVILUPPI\MSX\CODE\C\MSXgl\projects\exsoccer/exsoccer_s3_b1.c
    00000615 EB               [ 4] 1880 	ex	de,hl
    00000616 4E               [ 7] 1881 	ld	c, (hl)
    00000617 23               [ 6] 1882 	inc	hl
    00000618 46               [ 7] 1883 	ld	b, (hl)
    00000619 79               [ 4] 1884 	ld	a, c
    0000061A C6 FB            [ 7] 1885 	add	a, #0xfb
    0000061C 4F               [ 4] 1886 	ld	c, a
    0000061D 78               [ 4] 1887 	ld	a, b
    0000061E CE FF            [ 7] 1888 	adc	a, #0xff
    00000620 47               [ 4] 1889 	ld	b, a
    00000621 ED 43r00r00      [20] 1890 	ld	(_g_Ball), bc
                                   1891 ;E:\Dropbox\FAUSTO\SVILUPPI\MSX\CODE\C\MSXgl\projects\exsoccer/exsoccer_s3_b1.c:408: ERROR: no line number 408 in file E:\Dropbox\FAUSTO\SVILUPPI\MSX\CODE\C\MSXgl\projects\exsoccer/exsoccer_s3_b1.c
    00000625 ED 43r07r00      [20] 1892 	ld	((_g_Ball + 7)), bc
                                   1893 ;E:\Dropbox\FAUSTO\SVILUPPI\MSX\CODE\C\MSXgl\projects\exsoccer/exsoccer_s3_b1.c:409: ERROR: no line number 409 in file E:\Dropbox\FAUSTO\SVILUPPI\MSX\CODE\C\MSXgl\projects\exsoccer/exsoccer_s3_b1.c
    00000629 01r05r00         [10] 1894 	ld	bc, #_g_Ball + 5
    0000062C FD 7E 00         [19] 1895 	ld	a, 0 (iy)
    0000062F 02               [ 7] 1896 	ld	(bc), a
                                   1897 ;E:\Dropbox\FAUSTO\SVILUPPI\MSX\CODE\C\MSXgl\projects\exsoccer/exsoccer_s3_b1.c:411: ERROR: no line number 411 in file E:\Dropbox\FAUSTO\SVILUPPI\MSX\CODE\C\MSXgl\projects\exsoccer/exsoccer_s3_b1.c
    00000630                       1898 00110$:
                                   1899 ;E:\Dropbox\FAUSTO\SVILUPPI\MSX\CODE\C\MSXgl\projects\exsoccer/exsoccer_s3_b1.c:412: ERROR: no line number 412 in file E:\Dropbox\FAUSTO\SVILUPPI\MSX\CODE\C\MSXgl\projects\exsoccer/exsoccer_s3_b1.c
    00000630 C9               [10] 1900 	ret
                                   1901 ;E:\Dropbox\FAUSTO\SVILUPPI\MSX\CODE\C\MSXgl\projects\exsoccer/exsoccer_s3_b1.c:413: ERROR: no line number 413 in file E:\Dropbox\FAUSTO\SVILUPPI\MSX\CODE\C\MSXgl\projects\exsoccer/exsoccer_s3_b1.c
                                   1902 ;	---------------------------------
                                   1903 ; Function SetPlayerTarget
                                   1904 ; ---------------------------------
    00000631                       1905 _SetPlayerTarget::
    00000631 DD E5            [15] 1906 	push	ix
    00000633 DD 21 00 00      [14] 1907 	ld	ix,#0
    00000637 DD 39            [15] 1908 	add	ix,sp
    00000639 F5               [11] 1909 	push	af
    0000063A 4F               [ 4] 1910 	ld	c, a
                                   1911 ;E:\Dropbox\FAUSTO\SVILUPPI\MSX\CODE\C\MSXgl\projects\exsoccer/exsoccer_s3_b1.c:414: ERROR: no line number 414 in file E:\Dropbox\FAUSTO\SVILUPPI\MSX\CODE\C\MSXgl\projects\exsoccer/exsoccer_s3_b1.c
    0000063B 3Ar00r00         [13] 1912 	ld	a, (_g_MatchStatus+0)
    0000063E 3D               [ 4] 1913 	dec	a
    0000063F C2r21r08         [10] 1914 	jp	NZ,00137$
                                   1915 ;E:\Dropbox\FAUSTO\SVILUPPI\MSX\CODE\C\MSXgl\projects\exsoccer/exsoccer_s3_b1.c:416: ERROR: no line number 416 in file E:\Dropbox\FAUSTO\SVILUPPI\MSX\CODE\C\MSXgl\projects\exsoccer/exsoccer_s3_b1.c
    00000642 11r00r00         [10] 1916 	ld	de, #_g_Players+0
    00000645 69               [ 4] 1917 	ld	l, c
                                   1918 ;	spillPairReg hl
                                   1919 ;	spillPairReg hl
    00000646 26 00            [ 7] 1920 	ld	h, #0x00
                                   1921 ;	spillPairReg hl
                                   1922 ;	spillPairReg hl
    00000648 29               [11] 1923 	add	hl, hl
    00000649 29               [11] 1924 	add	hl, hl
    0000064A 29               [11] 1925 	add	hl, hl
    0000064B 29               [11] 1926 	add	hl, hl
    0000064C 19               [11] 1927 	add	hl, de
    0000064D 4D               [ 4] 1928 	ld	c, l
    0000064E 44               [ 4] 1929 	ld	b, h
    0000064F C5               [11] 1930 	push	bc
    00000650 FD E1            [14] 1931 	pop	iy
    00000652 FD 5E 05         [19] 1932 	ld	e, 5 (iy)
    00000655 7B               [ 4] 1933 	ld	a, e
    00000656 D6 0E            [ 7] 1934 	sub	a, #0x0e
    00000658 20 23            [12] 1935 	jr	NZ, 00134$
                                   1936 ;E:\Dropbox\FAUSTO\SVILUPPI\MSX\CODE\C\MSXgl\projects\exsoccer/exsoccer_s3_b1.c:417: ERROR: no line number 417 in file E:\Dropbox\FAUSTO\SVILUPPI\MSX\CODE\C\MSXgl\projects\exsoccer/exsoccer_s3_b1.c
    0000065A 21 0C 00         [10] 1937 	ld	hl, #0x000c
    0000065D 09               [11] 1938 	add	hl, bc
    0000065E E3               [19] 1939 	ex	(sp), hl
    0000065F 69               [ 4] 1940 	ld	l, c
                                   1941 ;	spillPairReg hl
                                   1942 ;	spillPairReg hl
    00000660 60               [ 4] 1943 	ld	h, b
                                   1944 ;	spillPairReg hl
                                   1945 ;	spillPairReg hl
    00000661 23               [ 6] 1946 	inc	hl
    00000662 23               [ 6] 1947 	inc	hl
    00000663 5E               [ 7] 1948 	ld	e, (hl)
    00000664 23               [ 6] 1949 	inc	hl
    00000665 56               [ 7] 1950 	ld	d, (hl)
    00000666 E1               [10] 1951 	pop	hl
    00000667 E5               [11] 1952 	push	hl
    00000668 73               [ 7] 1953 	ld	(hl), e
    00000669 23               [ 6] 1954 	inc	hl
    0000066A 72               [ 7] 1955 	ld	(hl), d
                                   1956 ;E:\Dropbox\FAUSTO\SVILUPPI\MSX\CODE\C\MSXgl\projects\exsoccer/exsoccer_s3_b1.c:418: ERROR: no line number 418 in file E:\Dropbox\FAUSTO\SVILUPPI\MSX\CODE\C\MSXgl\projects\exsoccer/exsoccer_s3_b1.c
    0000066B 21 0A 00         [10] 1957 	ld	hl, #0x000a
    0000066E 09               [11] 1958 	add	hl, bc
    0000066F EB               [ 4] 1959 	ex	de, hl
    00000670 69               [ 4] 1960 	ld	l, c
    00000671 60               [ 4] 1961 	ld	h, b
    00000672 4E               [ 7] 1962 	ld	c, (hl)
    00000673 23               [ 6] 1963 	inc	hl
    00000674 46               [ 7] 1964 	ld	b, (hl)
    00000675 79               [ 4] 1965 	ld	a, c
    00000676 12               [ 7] 1966 	ld	(de), a
    00000677 13               [ 6] 1967 	inc	de
    00000678 78               [ 4] 1968 	ld	a, b
    00000679 12               [ 7] 1969 	ld	(de), a
    0000067A C3r21r08         [10] 1970 	jp	00137$
    0000067D                       1971 00134$:
                                   1972 ;E:\Dropbox\FAUSTO\SVILUPPI\MSX\CODE\C\MSXgl\projects\exsoccer/exsoccer_s3_b1.c:422: ERROR: no line number 422 in file E:\Dropbox\FAUSTO\SVILUPPI\MSX\CODE\C\MSXgl\projects\exsoccer/exsoccer_s3_b1.c
    0000067D C5               [11] 1973 	push	bc
    0000067E FD E1            [14] 1974 	pop	iy
    00000680 FD 7E 09         [19] 1975 	ld	a, 9 (iy)
    00000683 DD 77 FF         [19] 1976 	ld	-1 (ix), a
    00000686 3E 06            [ 7] 1977 	ld	a, #0x06
    00000688 DD 96 FF         [19] 1978 	sub	a, -1 (ix)
    0000068B 3E 00            [ 7] 1979 	ld	a, #0x00
    0000068D 17               [ 4] 1980 	rla
                                   1981 ;E:\Dropbox\FAUSTO\SVILUPPI\MSX\CODE\C\MSXgl\projects\exsoccer/exsoccer_s3_b1.c:421: ERROR: no line number 421 in file E:\Dropbox\FAUSTO\SVILUPPI\MSX\CODE\C\MSXgl\projects\exsoccer/exsoccer_s3_b1.c
    0000068E 1C               [ 4] 1982 	inc	e
    0000068F 1D               [ 4] 1983 	dec	e
    00000690 C2r5Fr07         [10] 1984 	jp	NZ, 00131$
                                   1985 ;E:\Dropbox\FAUSTO\SVILUPPI\MSX\CODE\C\MSXgl\projects\exsoccer/exsoccer_s3_b1.c:422: ERROR: no line number 422 in file E:\Dropbox\FAUSTO\SVILUPPI\MSX\CODE\C\MSXgl\projects\exsoccer/exsoccer_s3_b1.c
    00000693 B7               [ 4] 1986 	or	a, a
    00000694 C2r21r08         [10] 1987 	jp	NZ, 00137$
                                   1988 ;E:\Dropbox\FAUSTO\SVILUPPI\MSX\CODE\C\MSXgl\projects\exsoccer/exsoccer_s3_b1.c:417: ERROR: no line number 417 in file E:\Dropbox\FAUSTO\SVILUPPI\MSX\CODE\C\MSXgl\projects\exsoccer/exsoccer_s3_b1.c
    00000697 21 0C 00         [10] 1989 	ld	hl, #0x000c
    0000069A 09               [11] 1990 	add	hl, bc
    0000069B EB               [ 4] 1991 	ex	de, hl
                                   1992 ;E:\Dropbox\FAUSTO\SVILUPPI\MSX\CODE\C\MSXgl\projects\exsoccer/exsoccer_s3_b1.c:418: ERROR: no line number 418 in file E:\Dropbox\FAUSTO\SVILUPPI\MSX\CODE\C\MSXgl\projects\exsoccer/exsoccer_s3_b1.c
    0000069C 21 0A 00         [10] 1993 	ld	hl, #0x000a
    0000069F 09               [11] 1994 	add	hl, bc
    000006A0 4D               [ 4] 1995 	ld	c, l
    000006A1 44               [ 4] 1996 	ld	b, h
                                   1997 ;E:\Dropbox\FAUSTO\SVILUPPI\MSX\CODE\C\MSXgl\projects\exsoccer/exsoccer_s3_b1.c:422: ERROR: no line number 422 in file E:\Dropbox\FAUSTO\SVILUPPI\MSX\CODE\C\MSXgl\projects\exsoccer/exsoccer_s3_b1.c
    000006A2 D5               [11] 1998 	push	de
    000006A3 DD 5E FF         [19] 1999 	ld	e, -1 (ix)
    000006A6 16 00            [ 7] 2000 	ld	d, #0x00
    000006A8 21rB0r06         [10] 2001 	ld	hl, #00188$
    000006AB 19               [11] 2002 	add	hl, de
    000006AC 19               [11] 2003 	add	hl, de
    000006AD 19               [11] 2004 	add	hl, de
    000006AE D1               [10] 2005 	pop	de
    000006AF E9               [ 4] 2006 	jp	(hl)
    000006B0                       2007 00188$:
    000006B0 C3rC5r06         [10] 2008 	jp	00102$
    000006B3 C3rD5r06         [10] 2009 	jp	00103$
    000006B6 C3rE5r06         [10] 2010 	jp	00104$
    000006B9 C3rF5r06         [10] 2011 	jp	00105$
    000006BC C3r1Ar07         [10] 2012 	jp	00109$
    000006BF C3r3Fr07         [10] 2013 	jp	00113$
    000006C2 C3r4Fr07         [10] 2014 	jp	00114$
                                   2015 ;E:\Dropbox\FAUSTO\SVILUPPI\MSX\CODE\C\MSXgl\projects\exsoccer/exsoccer_s3_b1.c:424: ERROR: no line number 424 in file E:\Dropbox\FAUSTO\SVILUPPI\MSX\CODE\C\MSXgl\projects\exsoccer/exsoccer_s3_b1.c
    000006C5                       2016 00102$:
                                   2017 ;E:\Dropbox\FAUSTO\SVILUPPI\MSX\CODE\C\MSXgl\projects\exsoccer/exsoccer_s3_b1.c:425: ERROR: no line number 425 in file E:\Dropbox\FAUSTO\SVILUPPI\MSX\CODE\C\MSXgl\projects\exsoccer/exsoccer_s3_b1.c
    000006C5 3E 78            [ 7] 2018 	ld	a, #0x78
    000006C7 12               [ 7] 2019 	ld	(de), a
    000006C8 13               [ 6] 2020 	inc	de
    000006C9 AF               [ 4] 2021 	xor	a, a
    000006CA 12               [ 7] 2022 	ld	(de), a
                                   2023 ;E:\Dropbox\FAUSTO\SVILUPPI\MSX\CODE\C\MSXgl\projects\exsoccer/exsoccer_s3_b1.c:426: ERROR: no line number 426 in file E:\Dropbox\FAUSTO\SVILUPPI\MSX\CODE\C\MSXgl\projects\exsoccer/exsoccer_s3_b1.c
    000006CB 3E A8            [ 7] 2024 	ld	a, #0xa8
    000006CD 02               [ 7] 2025 	ld	(bc), a
    000006CE 03               [ 6] 2026 	inc	bc
    000006CF 3E 01            [ 7] 2027 	ld	a, #0x01
    000006D1 02               [ 7] 2028 	ld	(bc), a
                                   2029 ;E:\Dropbox\FAUSTO\SVILUPPI\MSX\CODE\C\MSXgl\projects\exsoccer/exsoccer_s3_b1.c:427: ERROR: no line number 427 in file E:\Dropbox\FAUSTO\SVILUPPI\MSX\CODE\C\MSXgl\projects\exsoccer/exsoccer_s3_b1.c
    000006D2 C3r21r08         [10] 2030 	jp	00137$
                                   2031 ;E:\Dropbox\FAUSTO\SVILUPPI\MSX\CODE\C\MSXgl\projects\exsoccer/exsoccer_s3_b1.c:428: ERROR: no line number 428 in file E:\Dropbox\FAUSTO\SVILUPPI\MSX\CODE\C\MSXgl\projects\exsoccer/exsoccer_s3_b1.c
    000006D5                       2032 00103$:
                                   2033 ;E:\Dropbox\FAUSTO\SVILUPPI\MSX\CODE\C\MSXgl\projects\exsoccer/exsoccer_s3_b1.c:429: ERROR: no line number 429 in file E:\Dropbox\FAUSTO\SVILUPPI\MSX\CODE\C\MSXgl\projects\exsoccer/exsoccer_s3_b1.c
    000006D5 3E 28            [ 7] 2034 	ld	a, #0x28
    000006D7 12               [ 7] 2035 	ld	(de), a
    000006D8 13               [ 6] 2036 	inc	de
    000006D9 AF               [ 4] 2037 	xor	a, a
    000006DA 12               [ 7] 2038 	ld	(de), a
                                   2039 ;E:\Dropbox\FAUSTO\SVILUPPI\MSX\CODE\C\MSXgl\projects\exsoccer/exsoccer_s3_b1.c:430: ERROR: no line number 430 in file E:\Dropbox\FAUSTO\SVILUPPI\MSX\CODE\C\MSXgl\projects\exsoccer/exsoccer_s3_b1.c
    000006DB 3E 76            [ 7] 2040 	ld	a, #0x76
    000006DD 02               [ 7] 2041 	ld	(bc), a
    000006DE 03               [ 6] 2042 	inc	bc
    000006DF 3E 01            [ 7] 2043 	ld	a, #0x01
    000006E1 02               [ 7] 2044 	ld	(bc), a
                                   2045 ;E:\Dropbox\FAUSTO\SVILUPPI\MSX\CODE\C\MSXgl\projects\exsoccer/exsoccer_s3_b1.c:431: ERROR: no line number 431 in file E:\Dropbox\FAUSTO\SVILUPPI\MSX\CODE\C\MSXgl\projects\exsoccer/exsoccer_s3_b1.c
    000006E2 C3r21r08         [10] 2046 	jp	00137$
                                   2047 ;E:\Dropbox\FAUSTO\SVILUPPI\MSX\CODE\C\MSXgl\projects\exsoccer/exsoccer_s3_b1.c:432: ERROR: no line number 432 in file E:\Dropbox\FAUSTO\SVILUPPI\MSX\CODE\C\MSXgl\projects\exsoccer/exsoccer_s3_b1.c
    000006E5                       2048 00104$:
                                   2049 ;E:\Dropbox\FAUSTO\SVILUPPI\MSX\CODE\C\MSXgl\projects\exsoccer/exsoccer_s3_b1.c:433: ERROR: no line number 433 in file E:\Dropbox\FAUSTO\SVILUPPI\MSX\CODE\C\MSXgl\projects\exsoccer/exsoccer_s3_b1.c
    000006E5 3E C6            [ 7] 2050 	ld	a, #0xc6
    000006E7 12               [ 7] 2051 	ld	(de), a
    000006E8 13               [ 6] 2052 	inc	de
    000006E9 AF               [ 4] 2053 	xor	a, a
    000006EA 12               [ 7] 2054 	ld	(de), a
                                   2055 ;E:\Dropbox\FAUSTO\SVILUPPI\MSX\CODE\C\MSXgl\projects\exsoccer/exsoccer_s3_b1.c:434: ERROR: no line number 434 in file E:\Dropbox\FAUSTO\SVILUPPI\MSX\CODE\C\MSXgl\projects\exsoccer/exsoccer_s3_b1.c
    000006EB 3E 76            [ 7] 2056 	ld	a, #0x76
    000006ED 02               [ 7] 2057 	ld	(bc), a
    000006EE 03               [ 6] 2058 	inc	bc
    000006EF 3E 01            [ 7] 2059 	ld	a, #0x01
    000006F1 02               [ 7] 2060 	ld	(bc), a
                                   2061 ;E:\Dropbox\FAUSTO\SVILUPPI\MSX\CODE\C\MSXgl\projects\exsoccer/exsoccer_s3_b1.c:435: ERROR: no line number 435 in file E:\Dropbox\FAUSTO\SVILUPPI\MSX\CODE\C\MSXgl\projects\exsoccer/exsoccer_s3_b1.c
    000006F2 C3r21r08         [10] 2062 	jp	00137$
                                   2063 ;E:\Dropbox\FAUSTO\SVILUPPI\MSX\CODE\C\MSXgl\projects\exsoccer/exsoccer_s3_b1.c:436: ERROR: no line number 436 in file E:\Dropbox\FAUSTO\SVILUPPI\MSX\CODE\C\MSXgl\projects\exsoccer/exsoccer_s3_b1.c
    000006F5                       2064 00105$:
                                   2065 ;E:\Dropbox\FAUSTO\SVILUPPI\MSX\CODE\C\MSXgl\projects\exsoccer/exsoccer_s3_b1.c:437: ERROR: no line number 437 in file E:\Dropbox\FAUSTO\SVILUPPI\MSX\CODE\C\MSXgl\projects\exsoccer/exsoccer_s3_b1.c
    000006F5 3Ar00r00         [13] 2066 	ld	a, (_g_RestartKickTeamId+0)
    000006F8 B7               [ 4] 2067 	or	a, a
    000006F9 28 10            [12] 2068 	jr	Z, 00107$
                                   2069 ;E:\Dropbox\FAUSTO\SVILUPPI\MSX\CODE\C\MSXgl\projects\exsoccer/exsoccer_s3_b1.c:438: ERROR: no line number 438 in file E:\Dropbox\FAUSTO\SVILUPPI\MSX\CODE\C\MSXgl\projects\exsoccer/exsoccer_s3_b1.c
    000006FB 3E 8C            [ 7] 2070 	ld	a, #0x8c
    000006FD 12               [ 7] 2071 	ld	(de), a
    000006FE 13               [ 6] 2072 	inc	de
    000006FF AF               [ 4] 2073 	xor	a, a
    00000700 12               [ 7] 2074 	ld	(de), a
                                   2075 ;E:\Dropbox\FAUSTO\SVILUPPI\MSX\CODE\C\MSXgl\projects\exsoccer/exsoccer_s3_b1.c:439: ERROR: no line number 439 in file E:\Dropbox\FAUSTO\SVILUPPI\MSX\CODE\C\MSXgl\projects\exsoccer/exsoccer_s3_b1.c
    00000701 3E 44            [ 7] 2076 	ld	a, #0x44
    00000703 02               [ 7] 2077 	ld	(bc), a
    00000704 03               [ 6] 2078 	inc	bc
    00000705 3E 01            [ 7] 2079 	ld	a, #0x01
    00000707 02               [ 7] 2080 	ld	(bc), a
    00000708 C3r21r08         [10] 2081 	jp	00137$
    0000070B                       2082 00107$:
                                   2083 ;E:\Dropbox\FAUSTO\SVILUPPI\MSX\CODE\C\MSXgl\projects\exsoccer/exsoccer_s3_b1.c:442: ERROR: no line number 442 in file E:\Dropbox\FAUSTO\SVILUPPI\MSX\CODE\C\MSXgl\projects\exsoccer/exsoccer_s3_b1.c
    0000070B 3E 71            [ 7] 2084 	ld	a, #0x71
    0000070D 12               [ 7] 2085 	ld	(de), a
    0000070E 13               [ 6] 2086 	inc	de
    0000070F AF               [ 4] 2087 	xor	a, a
    00000710 12               [ 7] 2088 	ld	(de), a
                                   2089 ;E:\Dropbox\FAUSTO\SVILUPPI\MSX\CODE\C\MSXgl\projects\exsoccer/exsoccer_s3_b1.c:443: ERROR: no line number 443 in file E:\Dropbox\FAUSTO\SVILUPPI\MSX\CODE\C\MSXgl\projects\exsoccer/exsoccer_s3_b1.c
    00000711 3E F3            [ 7] 2090 	ld	a, #0xf3
    00000713 02               [ 7] 2091 	ld	(bc), a
    00000714 03               [ 6] 2092 	inc	bc
    00000715 AF               [ 4] 2093 	xor	a, a
    00000716 02               [ 7] 2094 	ld	(bc), a
                                   2095 ;E:\Dropbox\FAUSTO\SVILUPPI\MSX\CODE\C\MSXgl\projects\exsoccer/exsoccer_s3_b1.c:445: ERROR: no line number 445 in file E:\Dropbox\FAUSTO\SVILUPPI\MSX\CODE\C\MSXgl\projects\exsoccer/exsoccer_s3_b1.c
    00000717 C3r21r08         [10] 2096 	jp	00137$
                                   2097 ;E:\Dropbox\FAUSTO\SVILUPPI\MSX\CODE\C\MSXgl\projects\exsoccer/exsoccer_s3_b1.c:446: ERROR: no line number 446 in file E:\Dropbox\FAUSTO\SVILUPPI\MSX\CODE\C\MSXgl\projects\exsoccer/exsoccer_s3_b1.c
    0000071A                       2098 00109$:
                                   2099 ;E:\Dropbox\FAUSTO\SVILUPPI\MSX\CODE\C\MSXgl\projects\exsoccer/exsoccer_s3_b1.c:447: ERROR: no line number 447 in file E:\Dropbox\FAUSTO\SVILUPPI\MSX\CODE\C\MSXgl\projects\exsoccer/exsoccer_s3_b1.c
    0000071A 3Ar00r00         [13] 2100 	ld	a, (_g_RestartKickTeamId+0)
    0000071D B7               [ 4] 2101 	or	a, a
    0000071E 28 10            [12] 2102 	jr	Z, 00111$
                                   2103 ;E:\Dropbox\FAUSTO\SVILUPPI\MSX\CODE\C\MSXgl\projects\exsoccer/exsoccer_s3_b1.c:448: ERROR: no line number 448 in file E:\Dropbox\FAUSTO\SVILUPPI\MSX\CODE\C\MSXgl\projects\exsoccer/exsoccer_s3_b1.c
    00000720 3E 62            [ 7] 2104 	ld	a, #0x62
    00000722 12               [ 7] 2105 	ld	(de), a
    00000723 13               [ 6] 2106 	inc	de
    00000724 AF               [ 4] 2107 	xor	a, a
    00000725 12               [ 7] 2108 	ld	(de), a
                                   2109 ;E:\Dropbox\FAUSTO\SVILUPPI\MSX\CODE\C\MSXgl\projects\exsoccer/exsoccer_s3_b1.c:449: ERROR: no line number 449 in file E:\Dropbox\FAUSTO\SVILUPPI\MSX\CODE\C\MSXgl\projects\exsoccer/exsoccer_s3_b1.c
    00000726 3E 44            [ 7] 2110 	ld	a, #0x44
    00000728 02               [ 7] 2111 	ld	(bc), a
    00000729 03               [ 6] 2112 	inc	bc
    0000072A 3E 01            [ 7] 2113 	ld	a, #0x01
    0000072C 02               [ 7] 2114 	ld	(bc), a
    0000072D C3r21r08         [10] 2115 	jp	00137$
    00000730                       2116 00111$:
                                   2117 ;E:\Dropbox\FAUSTO\SVILUPPI\MSX\CODE\C\MSXgl\projects\exsoccer/exsoccer_s3_b1.c:452: ERROR: no line number 452 in file E:\Dropbox\FAUSTO\SVILUPPI\MSX\CODE\C\MSXgl\projects\exsoccer/exsoccer_s3_b1.c
    00000730 3E 7F            [ 7] 2118 	ld	a, #0x7f
    00000732 12               [ 7] 2119 	ld	(de), a
    00000733 13               [ 6] 2120 	inc	de
    00000734 AF               [ 4] 2121 	xor	a, a
    00000735 12               [ 7] 2122 	ld	(de), a
                                   2123 ;E:\Dropbox\FAUSTO\SVILUPPI\MSX\CODE\C\MSXgl\projects\exsoccer/exsoccer_s3_b1.c:453: ERROR: no line number 453 in file E:\Dropbox\FAUSTO\SVILUPPI\MSX\CODE\C\MSXgl\projects\exsoccer/exsoccer_s3_b1.c
    00000736 3E F3            [ 7] 2124 	ld	a, #0xf3
    00000738 02               [ 7] 2125 	ld	(bc), a
    00000739 03               [ 6] 2126 	inc	bc
    0000073A AF               [ 4] 2127 	xor	a, a
    0000073B 02               [ 7] 2128 	ld	(bc), a
                                   2129 ;E:\Dropbox\FAUSTO\SVILUPPI\MSX\CODE\C\MSXgl\projects\exsoccer/exsoccer_s3_b1.c:455: ERROR: no line number 455 in file E:\Dropbox\FAUSTO\SVILUPPI\MSX\CODE\C\MSXgl\projects\exsoccer/exsoccer_s3_b1.c
    0000073C C3r21r08         [10] 2130 	jp	00137$
                                   2131 ;E:\Dropbox\FAUSTO\SVILUPPI\MSX\CODE\C\MSXgl\projects\exsoccer/exsoccer_s3_b1.c:456: ERROR: no line number 456 in file E:\Dropbox\FAUSTO\SVILUPPI\MSX\CODE\C\MSXgl\projects\exsoccer/exsoccer_s3_b1.c
    0000073F                       2132 00113$:
                                   2133 ;E:\Dropbox\FAUSTO\SVILUPPI\MSX\CODE\C\MSXgl\projects\exsoccer/exsoccer_s3_b1.c:457: ERROR: no line number 457 in file E:\Dropbox\FAUSTO\SVILUPPI\MSX\CODE\C\MSXgl\projects\exsoccer/exsoccer_s3_b1.c
    0000073F 3E 28            [ 7] 2134 	ld	a, #0x28
    00000741 12               [ 7] 2135 	ld	(de), a
    00000742 13               [ 6] 2136 	inc	de
    00000743 AF               [ 4] 2137 	xor	a, a
    00000744 12               [ 7] 2138 	ld	(de), a
                                   2139 ;E:\Dropbox\FAUSTO\SVILUPPI\MSX\CODE\C\MSXgl\projects\exsoccer/exsoccer_s3_b1.c:458: ERROR: no line number 458 in file E:\Dropbox\FAUSTO\SVILUPPI\MSX\CODE\C\MSXgl\projects\exsoccer/exsoccer_s3_b1.c
    00000745 3E 1C            [ 7] 2140 	ld	a, #0x1c
    00000747 02               [ 7] 2141 	ld	(bc), a
    00000748 03               [ 6] 2142 	inc	bc
    00000749 3E 01            [ 7] 2143 	ld	a, #0x01
    0000074B 02               [ 7] 2144 	ld	(bc), a
                                   2145 ;E:\Dropbox\FAUSTO\SVILUPPI\MSX\CODE\C\MSXgl\projects\exsoccer/exsoccer_s3_b1.c:459: ERROR: no line number 459 in file E:\Dropbox\FAUSTO\SVILUPPI\MSX\CODE\C\MSXgl\projects\exsoccer/exsoccer_s3_b1.c
    0000074C C3r21r08         [10] 2146 	jp	00137$
                                   2147 ;E:\Dropbox\FAUSTO\SVILUPPI\MSX\CODE\C\MSXgl\projects\exsoccer/exsoccer_s3_b1.c:460: ERROR: no line number 460 in file E:\Dropbox\FAUSTO\SVILUPPI\MSX\CODE\C\MSXgl\projects\exsoccer/exsoccer_s3_b1.c
    0000074F                       2148 00114$:
                                   2149 ;E:\Dropbox\FAUSTO\SVILUPPI\MSX\CODE\C\MSXgl\projects\exsoccer/exsoccer_s3_b1.c:461: ERROR: no line number 461 in file E:\Dropbox\FAUSTO\SVILUPPI\MSX\CODE\C\MSXgl\projects\exsoccer/exsoccer_s3_b1.c
    0000074F 3E C6            [ 7] 2150 	ld	a, #0xc6
    00000751 12               [ 7] 2151 	ld	(de), a
    00000752 13               [ 6] 2152 	inc	de
    00000753 AF               [ 4] 2153 	xor	a, a
    00000754 12               [ 7] 2154 	ld	(de), a
                                   2155 ;E:\Dropbox\FAUSTO\SVILUPPI\MSX\CODE\C\MSXgl\projects\exsoccer/exsoccer_s3_b1.c:462: ERROR: no line number 462 in file E:\Dropbox\FAUSTO\SVILUPPI\MSX\CODE\C\MSXgl\projects\exsoccer/exsoccer_s3_b1.c
    00000755 3E 1C            [ 7] 2156 	ld	a, #0x1c
    00000757 02               [ 7] 2157 	ld	(bc), a
    00000758 03               [ 6] 2158 	inc	bc
    00000759 3E 01            [ 7] 2159 	ld	a, #0x01
    0000075B 02               [ 7] 2160 	ld	(bc), a
                                   2161 ;E:\Dropbox\FAUSTO\SVILUPPI\MSX\CODE\C\MSXgl\projects\exsoccer/exsoccer_s3_b1.c:464: ERROR: no line number 464 in file E:\Dropbox\FAUSTO\SVILUPPI\MSX\CODE\C\MSXgl\projects\exsoccer/exsoccer_s3_b1.c
    0000075C C3r21r08         [10] 2162 	jp	00137$
    0000075F                       2163 00131$:
                                   2164 ;E:\Dropbox\FAUSTO\SVILUPPI\MSX\CODE\C\MSXgl\projects\exsoccer/exsoccer_s3_b1.c:467: ERROR: no line number 467 in file E:\Dropbox\FAUSTO\SVILUPPI\MSX\CODE\C\MSXgl\projects\exsoccer/exsoccer_s3_b1.c
    0000075F B7               [ 4] 2165 	or	a, a
    00000760 C2r21r08         [10] 2166 	jp	NZ, 00137$
                                   2167 ;E:\Dropbox\FAUSTO\SVILUPPI\MSX\CODE\C\MSXgl\projects\exsoccer/exsoccer_s3_b1.c:417: ERROR: no line number 417 in file E:\Dropbox\FAUSTO\SVILUPPI\MSX\CODE\C\MSXgl\projects\exsoccer/exsoccer_s3_b1.c
    00000763 21 0C 00         [10] 2168 	ld	hl, #0x000c
    00000766 09               [11] 2169 	add	hl, bc
    00000767 EB               [ 4] 2170 	ex	de, hl
                                   2171 ;E:\Dropbox\FAUSTO\SVILUPPI\MSX\CODE\C\MSXgl\projects\exsoccer/exsoccer_s3_b1.c:418: ERROR: no line number 418 in file E:\Dropbox\FAUSTO\SVILUPPI\MSX\CODE\C\MSXgl\projects\exsoccer/exsoccer_s3_b1.c
    00000768 21 0A 00         [10] 2172 	ld	hl, #0x000a
    0000076B 09               [11] 2173 	add	hl, bc
    0000076C 4D               [ 4] 2174 	ld	c, l
    0000076D 44               [ 4] 2175 	ld	b, h
                                   2176 ;E:\Dropbox\FAUSTO\SVILUPPI\MSX\CODE\C\MSXgl\projects\exsoccer/exsoccer_s3_b1.c:467: ERROR: no line number 467 in file E:\Dropbox\FAUSTO\SVILUPPI\MSX\CODE\C\MSXgl\projects\exsoccer/exsoccer_s3_b1.c
    0000076E D5               [11] 2177 	push	de
    0000076F DD 5E FF         [19] 2178 	ld	e, -1 (ix)
    00000772 16 00            [ 7] 2179 	ld	d, #0x00
    00000774 21r7Cr07         [10] 2180 	ld	hl, #00189$
    00000777 19               [11] 2181 	add	hl, de
    00000778 19               [11] 2182 	add	hl, de
    00000779 19               [11] 2183 	add	hl, de
    0000077A D1               [10] 2184 	pop	de
    0000077B E9               [ 4] 2185 	jp	(hl)
    0000077C                       2186 00189$:
    0000077C C3r91r07         [10] 2187 	jp	00116$
    0000077F C3rA0r07         [10] 2188 	jp	00117$
    00000782 C3rAFr07         [10] 2189 	jp	00118$
    00000785 C3rBEr07         [10] 2190 	jp	00119$
    00000788 C3rE2r07         [10] 2191 	jp	00123$
    0000078B C3r06r08         [10] 2192 	jp	00127$
    0000078E C3r15r08         [10] 2193 	jp	00128$
                                   2194 ;E:\Dropbox\FAUSTO\SVILUPPI\MSX\CODE\C\MSXgl\projects\exsoccer/exsoccer_s3_b1.c:469: ERROR: no line number 469 in file E:\Dropbox\FAUSTO\SVILUPPI\MSX\CODE\C\MSXgl\projects\exsoccer/exsoccer_s3_b1.c
    00000791                       2195 00116$:
                                   2196 ;E:\Dropbox\FAUSTO\SVILUPPI\MSX\CODE\C\MSXgl\projects\exsoccer/exsoccer_s3_b1.c:470: ERROR: no line number 470 in file E:\Dropbox\FAUSTO\SVILUPPI\MSX\CODE\C\MSXgl\projects\exsoccer/exsoccer_s3_b1.c
    00000791 3E 78            [ 7] 2197 	ld	a, #0x78
    00000793 12               [ 7] 2198 	ld	(de), a
    00000794 13               [ 6] 2199 	inc	de
    00000795 AF               [ 4] 2200 	xor	a, a
    00000796 12               [ 7] 2201 	ld	(de), a
                                   2202 ;E:\Dropbox\FAUSTO\SVILUPPI\MSX\CODE\C\MSXgl\projects\exsoccer/exsoccer_s3_b1.c:471: ERROR: no line number 471 in file E:\Dropbox\FAUSTO\SVILUPPI\MSX\CODE\C\MSXgl\projects\exsoccer/exsoccer_s3_b1.c
    00000797 3E 32            [ 7] 2203 	ld	a, #0x32
    00000799 02               [ 7] 2204 	ld	(bc), a
    0000079A 03               [ 6] 2205 	inc	bc
    0000079B AF               [ 4] 2206 	xor	a, a
    0000079C 02               [ 7] 2207 	ld	(bc), a
                                   2208 ;E:\Dropbox\FAUSTO\SVILUPPI\MSX\CODE\C\MSXgl\projects\exsoccer/exsoccer_s3_b1.c:472: ERROR: no line number 472 in file E:\Dropbox\FAUSTO\SVILUPPI\MSX\CODE\C\MSXgl\projects\exsoccer/exsoccer_s3_b1.c
    0000079D C3r21r08         [10] 2209 	jp	00137$
                                   2210 ;E:\Dropbox\FAUSTO\SVILUPPI\MSX\CODE\C\MSXgl\projects\exsoccer/exsoccer_s3_b1.c:473: ERROR: no line number 473 in file E:\Dropbox\FAUSTO\SVILUPPI\MSX\CODE\C\MSXgl\projects\exsoccer/exsoccer_s3_b1.c
    000007A0                       2211 00117$:
                                   2212 ;E:\Dropbox\FAUSTO\SVILUPPI\MSX\CODE\C\MSXgl\projects\exsoccer/exsoccer_s3_b1.c:474: ERROR: no line number 474 in file E:\Dropbox\FAUSTO\SVILUPPI\MSX\CODE\C\MSXgl\projects\exsoccer/exsoccer_s3_b1.c
    000007A0 3E 28            [ 7] 2213 	ld	a, #0x28
    000007A2 12               [ 7] 2214 	ld	(de), a
    000007A3 13               [ 6] 2215 	inc	de
    000007A4 AF               [ 4] 2216 	xor	a, a
    000007A5 12               [ 7] 2217 	ld	(de), a
                                   2218 ;E:\Dropbox\FAUSTO\SVILUPPI\MSX\CODE\C\MSXgl\projects\exsoccer/exsoccer_s3_b1.c:475: ERROR: no line number 475 in file E:\Dropbox\FAUSTO\SVILUPPI\MSX\CODE\C\MSXgl\projects\exsoccer/exsoccer_s3_b1.c
    000007A6 3E 82            [ 7] 2219 	ld	a, #0x82
    000007A8 02               [ 7] 2220 	ld	(bc), a
    000007A9 03               [ 6] 2221 	inc	bc
    000007AA AF               [ 4] 2222 	xor	a, a
    000007AB 02               [ 7] 2223 	ld	(bc), a
                                   2224 ;E:\Dropbox\FAUSTO\SVILUPPI\MSX\CODE\C\MSXgl\projects\exsoccer/exsoccer_s3_b1.c:476: ERROR: no line number 476 in file E:\Dropbox\FAUSTO\SVILUPPI\MSX\CODE\C\MSXgl\projects\exsoccer/exsoccer_s3_b1.c
    000007AC C3r21r08         [10] 2225 	jp	00137$
                                   2226 ;E:\Dropbox\FAUSTO\SVILUPPI\MSX\CODE\C\MSXgl\projects\exsoccer/exsoccer_s3_b1.c:477: ERROR: no line number 477 in file E:\Dropbox\FAUSTO\SVILUPPI\MSX\CODE\C\MSXgl\projects\exsoccer/exsoccer_s3_b1.c
    000007AF                       2227 00118$:
                                   2228 ;E:\Dropbox\FAUSTO\SVILUPPI\MSX\CODE\C\MSXgl\projects\exsoccer/exsoccer_s3_b1.c:478: ERROR: no line number 478 in file E:\Dropbox\FAUSTO\SVILUPPI\MSX\CODE\C\MSXgl\projects\exsoccer/exsoccer_s3_b1.c
    000007AF 3E C6            [ 7] 2229 	ld	a, #0xc6
    000007B1 12               [ 7] 2230 	ld	(de), a
    000007B2 13               [ 6] 2231 	inc	de
    000007B3 AF               [ 4] 2232 	xor	a, a
    000007B4 12               [ 7] 2233 	ld	(de), a
                                   2234 ;E:\Dropbox\FAUSTO\SVILUPPI\MSX\CODE\C\MSXgl\projects\exsoccer/exsoccer_s3_b1.c:479: ERROR: no line number 479 in file E:\Dropbox\FAUSTO\SVILUPPI\MSX\CODE\C\MSXgl\projects\exsoccer/exsoccer_s3_b1.c
    000007B5 3E 82            [ 7] 2235 	ld	a, #0x82
    000007B7 02               [ 7] 2236 	ld	(bc), a
    000007B8 03               [ 6] 2237 	inc	bc
    000007B9 AF               [ 4] 2238 	xor	a, a
    000007BA 02               [ 7] 2239 	ld	(bc), a
                                   2240 ;E:\Dropbox\FAUSTO\SVILUPPI\MSX\CODE\C\MSXgl\projects\exsoccer/exsoccer_s3_b1.c:480: ERROR: no line number 480 in file E:\Dropbox\FAUSTO\SVILUPPI\MSX\CODE\C\MSXgl\projects\exsoccer/exsoccer_s3_b1.c
    000007BB C3r21r08         [10] 2241 	jp	00137$
                                   2242 ;E:\Dropbox\FAUSTO\SVILUPPI\MSX\CODE\C\MSXgl\projects\exsoccer/exsoccer_s3_b1.c:481: ERROR: no line number 481 in file E:\Dropbox\FAUSTO\SVILUPPI\MSX\CODE\C\MSXgl\projects\exsoccer/exsoccer_s3_b1.c
    000007BE                       2243 00119$:
                                   2244 ;E:\Dropbox\FAUSTO\SVILUPPI\MSX\CODE\C\MSXgl\projects\exsoccer/exsoccer_s3_b1.c:482: ERROR: no line number 482 in file E:\Dropbox\FAUSTO\SVILUPPI\MSX\CODE\C\MSXgl\projects\exsoccer/exsoccer_s3_b1.c
    000007BE 3Ar00r00         [13] 2245 	ld	a, (_g_RestartKickTeamId+0)
    000007C1 3D               [ 4] 2246 	dec	a
    000007C2 28 0F            [12] 2247 	jr	Z, 00121$
                                   2248 ;E:\Dropbox\FAUSTO\SVILUPPI\MSX\CODE\C\MSXgl\projects\exsoccer/exsoccer_s3_b1.c:483: ERROR: no line number 483 in file E:\Dropbox\FAUSTO\SVILUPPI\MSX\CODE\C\MSXgl\projects\exsoccer/exsoccer_s3_b1.c
    000007C4 3E 8C            [ 7] 2249 	ld	a, #0x8c
    000007C6 12               [ 7] 2250 	ld	(de), a
    000007C7 13               [ 6] 2251 	inc	de
    000007C8 AF               [ 4] 2252 	xor	a, a
    000007C9 12               [ 7] 2253 	ld	(de), a
                                   2254 ;E:\Dropbox\FAUSTO\SVILUPPI\MSX\CODE\C\MSXgl\projects\exsoccer/exsoccer_s3_b1.c:484: ERROR: no line number 484 in file E:\Dropbox\FAUSTO\SVILUPPI\MSX\CODE\C\MSXgl\projects\exsoccer/exsoccer_s3_b1.c
    000007CA 3E B4            [ 7] 2255 	ld	a, #0xb4
    000007CC 02               [ 7] 2256 	ld	(bc), a
    000007CD 03               [ 6] 2257 	inc	bc
    000007CE AF               [ 4] 2258 	xor	a, a
    000007CF 02               [ 7] 2259 	ld	(bc), a
    000007D0 C3r21r08         [10] 2260 	jp	00137$
    000007D3                       2261 00121$:
                                   2262 ;E:\Dropbox\FAUSTO\SVILUPPI\MSX\CODE\C\MSXgl\projects\exsoccer/exsoccer_s3_b1.c:487: ERROR: no line number 487 in file E:\Dropbox\FAUSTO\SVILUPPI\MSX\CODE\C\MSXgl\projects\exsoccer/exsoccer_s3_b1.c
    000007D3 3E 71            [ 7] 2263 	ld	a, #0x71
    000007D5 12               [ 7] 2264 	ld	(de), a
    000007D6 13               [ 6] 2265 	inc	de
    000007D7 AF               [ 4] 2266 	xor	a, a
    000007D8 12               [ 7] 2267 	ld	(de), a
                                   2268 ;E:\Dropbox\FAUSTO\SVILUPPI\MSX\CODE\C\MSXgl\projects\exsoccer/exsoccer_s3_b1.c:488: ERROR: no line number 488 in file E:\Dropbox\FAUSTO\SVILUPPI\MSX\CODE\C\MSXgl\projects\exsoccer/exsoccer_s3_b1.c
    000007D9 3E E9            [ 7] 2269 	ld	a, #0xe9
    000007DB 02               [ 7] 2270 	ld	(bc), a
    000007DC 03               [ 6] 2271 	inc	bc
    000007DD AF               [ 4] 2272 	xor	a, a
    000007DE 02               [ 7] 2273 	ld	(bc), a
                                   2274 ;E:\Dropbox\FAUSTO\SVILUPPI\MSX\CODE\C\MSXgl\projects\exsoccer/exsoccer_s3_b1.c:490: ERROR: no line number 490 in file E:\Dropbox\FAUSTO\SVILUPPI\MSX\CODE\C\MSXgl\projects\exsoccer/exsoccer_s3_b1.c
    000007DF C3r21r08         [10] 2275 	jp	00137$
                                   2276 ;E:\Dropbox\FAUSTO\SVILUPPI\MSX\CODE\C\MSXgl\projects\exsoccer/exsoccer_s3_b1.c:491: ERROR: no line number 491 in file E:\Dropbox\FAUSTO\SVILUPPI\MSX\CODE\C\MSXgl\projects\exsoccer/exsoccer_s3_b1.c
    000007E2                       2277 00123$:
                                   2278 ;E:\Dropbox\FAUSTO\SVILUPPI\MSX\CODE\C\MSXgl\projects\exsoccer/exsoccer_s3_b1.c:492: ERROR: no line number 492 in file E:\Dropbox\FAUSTO\SVILUPPI\MSX\CODE\C\MSXgl\projects\exsoccer/exsoccer_s3_b1.c
    000007E2 3Ar00r00         [13] 2279 	ld	a, (_g_RestartKickTeamId+0)
    000007E5 3D               [ 4] 2280 	dec	a
    000007E6 28 0F            [12] 2281 	jr	Z, 00125$
                                   2282 ;E:\Dropbox\FAUSTO\SVILUPPI\MSX\CODE\C\MSXgl\projects\exsoccer/exsoccer_s3_b1.c:493: ERROR: no line number 493 in file E:\Dropbox\FAUSTO\SVILUPPI\MSX\CODE\C\MSXgl\projects\exsoccer/exsoccer_s3_b1.c
    000007E8 3E 52            [ 7] 2283 	ld	a, #0x52
    000007EA 12               [ 7] 2284 	ld	(de), a
    000007EB 13               [ 6] 2285 	inc	de
    000007EC AF               [ 4] 2286 	xor	a, a
    000007ED 12               [ 7] 2287 	ld	(de), a
                                   2288 ;E:\Dropbox\FAUSTO\SVILUPPI\MSX\CODE\C\MSXgl\projects\exsoccer/exsoccer_s3_b1.c:494: ERROR: no line number 494 in file E:\Dropbox\FAUSTO\SVILUPPI\MSX\CODE\C\MSXgl\projects\exsoccer/exsoccer_s3_b1.c
    000007EE 3E B4            [ 7] 2289 	ld	a, #0xb4
    000007F0 02               [ 7] 2290 	ld	(bc), a
    000007F1 03               [ 6] 2291 	inc	bc
    000007F2 AF               [ 4] 2292 	xor	a, a
    000007F3 02               [ 7] 2293 	ld	(bc), a
    000007F4 C3r21r08         [10] 2294 	jp	00137$
    000007F7                       2295 00125$:
                                   2296 ;E:\Dropbox\FAUSTO\SVILUPPI\MSX\CODE\C\MSXgl\projects\exsoccer/exsoccer_s3_b1.c:497: ERROR: no line number 497 in file E:\Dropbox\FAUSTO\SVILUPPI\MSX\CODE\C\MSXgl\projects\exsoccer/exsoccer_s3_b1.c
    000007F7 3E 7F            [ 7] 2297 	ld	a, #0x7f
    000007F9 12               [ 7] 2298 	ld	(de), a
    000007FA 13               [ 6] 2299 	inc	de
    000007FB AF               [ 4] 2300 	xor	a, a
    000007FC 12               [ 7] 2301 	ld	(de), a
                                   2302 ;E:\Dropbox\FAUSTO\SVILUPPI\MSX\CODE\C\MSXgl\projects\exsoccer/exsoccer_s3_b1.c:498: ERROR: no line number 498 in file E:\Dropbox\FAUSTO\SVILUPPI\MSX\CODE\C\MSXgl\projects\exsoccer/exsoccer_s3_b1.c
    000007FD 3E E9            [ 7] 2303 	ld	a, #0xe9
    000007FF 02               [ 7] 2304 	ld	(bc), a
    00000800 03               [ 6] 2305 	inc	bc
    00000801 AF               [ 4] 2306 	xor	a, a
    00000802 02               [ 7] 2307 	ld	(bc), a
                                   2308 ;E:\Dropbox\FAUSTO\SVILUPPI\MSX\CODE\C\MSXgl\projects\exsoccer/exsoccer_s3_b1.c:500: ERROR: no line number 500 in file E:\Dropbox\FAUSTO\SVILUPPI\MSX\CODE\C\MSXgl\projects\exsoccer/exsoccer_s3_b1.c
    00000803 C3r21r08         [10] 2309 	jp	00137$
                                   2310 ;E:\Dropbox\FAUSTO\SVILUPPI\MSX\CODE\C\MSXgl\projects\exsoccer/exsoccer_s3_b1.c:501: ERROR: no line number 501 in file E:\Dropbox\FAUSTO\SVILUPPI\MSX\CODE\C\MSXgl\projects\exsoccer/exsoccer_s3_b1.c
    00000806                       2311 00127$:
                                   2312 ;E:\Dropbox\FAUSTO\SVILUPPI\MSX\CODE\C\MSXgl\projects\exsoccer/exsoccer_s3_b1.c:502: ERROR: no line number 502 in file E:\Dropbox\FAUSTO\SVILUPPI\MSX\CODE\C\MSXgl\projects\exsoccer/exsoccer_s3_b1.c
    00000806 3E 28            [ 7] 2313 	ld	a, #0x28
    00000808 12               [ 7] 2314 	ld	(de), a
    00000809 13               [ 6] 2315 	inc	de
    0000080A AF               [ 4] 2316 	xor	a, a
    0000080B 12               [ 7] 2317 	ld	(de), a
                                   2318 ;E:\Dropbox\FAUSTO\SVILUPPI\MSX\CODE\C\MSXgl\projects\exsoccer/exsoccer_s3_b1.c:503: ERROR: no line number 503 in file E:\Dropbox\FAUSTO\SVILUPPI\MSX\CODE\C\MSXgl\projects\exsoccer/exsoccer_s3_b1.c
    0000080C 3E DC            [ 7] 2319 	ld	a, #0xdc
    0000080E 02               [ 7] 2320 	ld	(bc), a
    0000080F 03               [ 6] 2321 	inc	bc
    00000810 AF               [ 4] 2322 	xor	a, a
    00000811 02               [ 7] 2323 	ld	(bc), a
                                   2324 ;E:\Dropbox\FAUSTO\SVILUPPI\MSX\CODE\C\MSXgl\projects\exsoccer/exsoccer_s3_b1.c:504: ERROR: no line number 504 in file E:\Dropbox\FAUSTO\SVILUPPI\MSX\CODE\C\MSXgl\projects\exsoccer/exsoccer_s3_b1.c
    00000812 C3r21r08         [10] 2325 	jp	00137$
                                   2326 ;E:\Dropbox\FAUSTO\SVILUPPI\MSX\CODE\C\MSXgl\projects\exsoccer/exsoccer_s3_b1.c:505: ERROR: no line number 505 in file E:\Dropbox\FAUSTO\SVILUPPI\MSX\CODE\C\MSXgl\projects\exsoccer/exsoccer_s3_b1.c
    00000815                       2327 00128$:
                                   2328 ;E:\Dropbox\FAUSTO\SVILUPPI\MSX\CODE\C\MSXgl\projects\exsoccer/exsoccer_s3_b1.c:506: ERROR: no line number 506 in file E:\Dropbox\FAUSTO\SVILUPPI\MSX\CODE\C\MSXgl\projects\exsoccer/exsoccer_s3_b1.c
    00000815 3E C6            [ 7] 2329 	ld	a, #0xc6
    00000817 12               [ 7] 2330 	ld	(de), a
    00000818 13               [ 6] 2331 	inc	de
    00000819 AF               [ 4] 2332 	xor	a, a
    0000081A 12               [ 7] 2333 	ld	(de), a
                                   2334 ;E:\Dropbox\FAUSTO\SVILUPPI\MSX\CODE\C\MSXgl\projects\exsoccer/exsoccer_s3_b1.c:507: ERROR: no line number 507 in file E:\Dropbox\FAUSTO\SVILUPPI\MSX\CODE\C\MSXgl\projects\exsoccer/exsoccer_s3_b1.c
    0000081B 3E DC            [ 7] 2335 	ld	a, #0xdc
    0000081D 02               [ 7] 2336 	ld	(bc), a
    0000081E 03               [ 6] 2337 	inc	bc
    0000081F AF               [ 4] 2338 	xor	a, a
    00000820 02               [ 7] 2339 	ld	(bc), a
                                   2340 ;E:\Dropbox\FAUSTO\SVILUPPI\MSX\CODE\C\MSXgl\projects\exsoccer/exsoccer_s3_b1.c:514: ERROR: no line number 514 in file E:\Dropbox\FAUSTO\SVILUPPI\MSX\CODE\C\MSXgl\projects\exsoccer/exsoccer_s3_b1.c
    00000821                       2341 00137$:
                                   2342 ;E:\Dropbox\FAUSTO\SVILUPPI\MSX\CODE\C\MSXgl\projects\exsoccer/exsoccer_s3_b1.c:515: ERROR: no line number 515 in file E:\Dropbox\FAUSTO\SVILUPPI\MSX\CODE\C\MSXgl\projects\exsoccer/exsoccer_s3_b1.c
    00000821 DD F9            [10] 2343 	ld	sp, ix
    00000823 DD E1            [14] 2344 	pop	ix
    00000825 C9               [10] 2345 	ret
                                   2346 ;E:\Dropbox\FAUSTO\SVILUPPI\MSX\CODE\C\MSXgl\projects\exsoccer/exsoccer_s3_b1.c:516: ERROR: no line number 516 in file E:\Dropbox\FAUSTO\SVILUPPI\MSX\CODE\C\MSXgl\projects\exsoccer/exsoccer_s3_b1.c
                                   2347 ;	---------------------------------
                                   2348 ; Function UpdateSpritesPositions
                                   2349 ; ---------------------------------
    00000826                       2350 _UpdateSpritesPositions::
                                   2351 ;E:/Dropbox/FAUSTO/SVILUPPI/MSX/CODE/C/MSXgl/engine/src/rom_mapper.h:250: ERROR: no line number 250 in file E:/Dropbox/FAUSTO/SVILUPPI/MSX/CODE/C/MSXgl/engine/src/rom_mapper.h
    00000826 21r01r00         [10] 2352 	ld	hl, #(_g_Bank0Segment + 1)
    00000829 36 03            [10] 2353 	ld	(hl), #0x03
                                   2354 ;E:/Dropbox/FAUSTO/SVILUPPI/MSX/CODE/C/MSXgl/engine/src/system.h:101: ERROR: no line number 101 in file E:/Dropbox/FAUSTO/SVILUPPI/MSX/CODE/C/MSXgl/engine/src/system.h
    0000082B 21 FF 77         [10] 2355 	ld	hl, #0x77ff
    0000082E 36 03            [10] 2356 	ld	(hl), #0x03
                                   2357 ;E:\Dropbox\FAUSTO\SVILUPPI\MSX\CODE\C\MSXgl\projects\exsoccer/exsoccer_s3_b1.c:518: ERROR: no line number 518 in file E:\Dropbox\FAUSTO\SVILUPPI\MSX\CODE\C\MSXgl\projects\exsoccer/exsoccer_s3_b1.c
    00000830 0E 00            [ 7] 2358 	ld	c, #0x00
    00000832                       2359 00111$:
    00000832 79               [ 4] 2360 	ld	a, c
    00000833 D6 0F            [ 7] 2361 	sub	a, #0x0f
    00000835 D2r42r08         [10] 2362 	jp	NC,_PutBallSprite
                                   2363 ;E:\Dropbox\FAUSTO\SVILUPPI\MSX\CODE\C\MSXgl\projects\exsoccer/exsoccer_s3_b1.c:519: ERROR: no line number 519 in file E:\Dropbox\FAUSTO\SVILUPPI\MSX\CODE\C\MSXgl\projects\exsoccer/exsoccer_s3_b1.c
    00000838 C5               [11] 2364 	push	bc
    00000839 79               [ 4] 2365 	ld	a, c
    0000083A CDrDAr0B         [17] 2366 	call	_PutPlayerSprite
    0000083D C1               [10] 2367 	pop	bc
                                   2368 ;E:\Dropbox\FAUSTO\SVILUPPI\MSX\CODE\C\MSXgl\projects\exsoccer/exsoccer_s3_b1.c:518: ERROR: no line number 518 in file E:\Dropbox\FAUSTO\SVILUPPI\MSX\CODE\C\MSXgl\projects\exsoccer/exsoccer_s3_b1.c
    0000083E 0C               [ 4] 2369 	inc	c
                                   2370 ;E:\Dropbox\FAUSTO\SVILUPPI\MSX\CODE\C\MSXgl\projects\exsoccer/exsoccer_s3_b1.c:521: ERROR: no line number 521 in file E:\Dropbox\FAUSTO\SVILUPPI\MSX\CODE\C\MSXgl\projects\exsoccer/exsoccer_s3_b1.c
                                   2371 ;E:\Dropbox\FAUSTO\SVILUPPI\MSX\CODE\C\MSXgl\projects\exsoccer/exsoccer_s3_b1.c:522: ERROR: no line number 522 in file E:\Dropbox\FAUSTO\SVILUPPI\MSX\CODE\C\MSXgl\projects\exsoccer/exsoccer_s3_b1.c
    0000083F C3r32r08         [10] 2372 	jp	00111$
                                   2373 ;E:\Dropbox\FAUSTO\SVILUPPI\MSX\CODE\C\MSXgl\projects\exsoccer/exsoccer_s3_b1.c:523: ERROR: no line number 523 in file E:\Dropbox\FAUSTO\SVILUPPI\MSX\CODE\C\MSXgl\projects\exsoccer/exsoccer_s3_b1.c
                                   2374 ;	---------------------------------
                                   2375 ; Function PutBallSprite
                                   2376 ; ---------------------------------
    00000842                       2377 _PutBallSprite::
    00000842 DD E5            [15] 2378 	push	ix
    00000844 DD 21 00 00      [14] 2379 	ld	ix,#0
    00000848 DD 39            [15] 2380 	add	ix,sp
    0000084A F5               [11] 2381 	push	af
    0000084B F5               [11] 2382 	push	af
                                   2383 ;E:\Dropbox\FAUSTO\SVILUPPI\MSX\CODE\C\MSXgl\projects\exsoccer/exsoccer_s3_b1.c:525: ERROR: no line number 525 in file E:\Dropbox\FAUSTO\SVILUPPI\MSX\CODE\C\MSXgl\projects\exsoccer/exsoccer_s3_b1.c
    0000084C 21 03 00         [10] 2384 	ld	hl, #0+1+1+1
    0000084F 39               [11] 2385 	add	hl, sp
    00000850 EB               [ 4] 2386 	ex	de, hl
    00000851 1A               [ 7] 2387 	ld	a, (de)
    00000852 E6 EF            [ 7] 2388 	and	a, #0xef
    00000854 12               [ 7] 2389 	ld	(de), a
                                   2390 ;E:\Dropbox\FAUSTO\SVILUPPI\MSX\CODE\C\MSXgl\projects\exsoccer/exsoccer_s3_b1.c:526: ERROR: no line number 526 in file E:\Dropbox\FAUSTO\SVILUPPI\MSX\CODE\C\MSXgl\projects\exsoccer/exsoccer_s3_b1.c
    00000855 4B               [ 4] 2391 	ld	c, e
    00000856 42               [ 4] 2392 	ld	b, d
    00000857 0A               [ 7] 2393 	ld	a, (bc)
    00000858 E6 3F            [ 7] 2394 	and	a, #0x3f
    0000085A 02               [ 7] 2395 	ld	(bc), a
                                   2396 ;E:\Dropbox\FAUSTO\SVILUPPI\MSX\CODE\C\MSXgl\projects\exsoccer/exsoccer_s3_b1.c:527: ERROR: no line number 527 in file E:\Dropbox\FAUSTO\SVILUPPI\MSX\CODE\C\MSXgl\projects\exsoccer/exsoccer_s3_b1.c
    0000085B 21r00r00         [10] 2397 	ld	hl, #_g_Ball+0
    0000085E 6E               [ 7] 2398 	ld	l, (hl)
                                   2399 ;	spillPairReg hl
    0000085F 3Ar00r00         [13] 2400 	ld	a, (_g_FieldCurrentYPosition+0)
    00000862 4F               [ 4] 2401 	ld	c, a
    00000863 7D               [ 4] 2402 	ld	a, l
    00000864 91               [ 4] 2403 	sub	a, c
    00000865 DD 77 FC         [19] 2404 	ld	-4 (ix), a
                                   2405 ;E:\Dropbox\FAUSTO\SVILUPPI\MSX\CODE\C\MSXgl\projects\exsoccer/exsoccer_s3_b1.c:528: ERROR: no line number 528 in file E:\Dropbox\FAUSTO\SVILUPPI\MSX\CODE\C\MSXgl\projects\exsoccer/exsoccer_s3_b1.c
    00000868 21r04r00         [10] 2406 	ld	hl, #_g_Ball + 4
    0000086B 4E               [ 7] 2407 	ld	c, (hl)
    0000086C 3E 08            [ 7] 2408 	ld	a, #0x08
    0000086E 91               [ 4] 2409 	sub	a, c
    0000086F 38 59            [12] 2410 	jr	C, 00109$
    00000871 06 00            [ 7] 2411 	ld	b, #0x00
    00000873 21r7Ar08         [10] 2412 	ld	hl, #00119$
    00000876 09               [11] 2413 	add	hl, bc
    00000877 09               [11] 2414 	add	hl, bc
    00000878 09               [11] 2415 	add	hl, bc
    00000879 E9               [ 4] 2416 	jp	(hl)
    0000087A                       2417 00119$:
    0000087A C3rCAr08         [10] 2418 	jp	00109$
    0000087D C3r95r08         [10] 2419 	jp	00101$
    00000880 C3r9Cr08         [10] 2420 	jp	00102$
    00000883 C3rA3r08         [10] 2421 	jp	00103$
    00000886 C3rAAr08         [10] 2422 	jp	00104$
    00000889 C3rB1r08         [10] 2423 	jp	00105$
    0000088C C3rB8r08         [10] 2424 	jp	00106$
    0000088F C3rBFr08         [10] 2425 	jp	00107$
    00000892 C3rC6r08         [10] 2426 	jp	00108$
                                   2427 ;E:\Dropbox\FAUSTO\SVILUPPI\MSX\CODE\C\MSXgl\projects\exsoccer/exsoccer_s3_b1.c:529: ERROR: no line number 529 in file E:\Dropbox\FAUSTO\SVILUPPI\MSX\CODE\C\MSXgl\projects\exsoccer/exsoccer_s3_b1.c
    00000895                       2428 00101$:
                                   2429 ;E:\Dropbox\FAUSTO\SVILUPPI\MSX\CODE\C\MSXgl\projects\exsoccer/exsoccer_s3_b1.c:530: ERROR: no line number 530 in file E:\Dropbox\FAUSTO\SVILUPPI\MSX\CODE\C\MSXgl\projects\exsoccer/exsoccer_s3_b1.c
    00000895 DD 36 FD 39      [19] 2430 	ld	-3 (ix), #0x39
                                   2431 ;E:\Dropbox\FAUSTO\SVILUPPI\MSX\CODE\C\MSXgl\projects\exsoccer/exsoccer_s3_b1.c:531: ERROR: no line number 531 in file E:\Dropbox\FAUSTO\SVILUPPI\MSX\CODE\C\MSXgl\projects\exsoccer/exsoccer_s3_b1.c
    00000899 C3rCAr08         [10] 2432 	jp	00109$
                                   2433 ;E:\Dropbox\FAUSTO\SVILUPPI\MSX\CODE\C\MSXgl\projects\exsoccer/exsoccer_s3_b1.c:532: ERROR: no line number 532 in file E:\Dropbox\FAUSTO\SVILUPPI\MSX\CODE\C\MSXgl\projects\exsoccer/exsoccer_s3_b1.c
    0000089C                       2434 00102$:
                                   2435 ;E:\Dropbox\FAUSTO\SVILUPPI\MSX\CODE\C\MSXgl\projects\exsoccer/exsoccer_s3_b1.c:533: ERROR: no line number 533 in file E:\Dropbox\FAUSTO\SVILUPPI\MSX\CODE\C\MSXgl\projects\exsoccer/exsoccer_s3_b1.c
    0000089C DD 36 FD 3A      [19] 2436 	ld	-3 (ix), #0x3a
                                   2437 ;E:\Dropbox\FAUSTO\SVILUPPI\MSX\CODE\C\MSXgl\projects\exsoccer/exsoccer_s3_b1.c:534: ERROR: no line number 534 in file E:\Dropbox\FAUSTO\SVILUPPI\MSX\CODE\C\MSXgl\projects\exsoccer/exsoccer_s3_b1.c
    000008A0 C3rCAr08         [10] 2438 	jp	00109$
                                   2439 ;E:\Dropbox\FAUSTO\SVILUPPI\MSX\CODE\C\MSXgl\projects\exsoccer/exsoccer_s3_b1.c:535: ERROR: no line number 535 in file E:\Dropbox\FAUSTO\SVILUPPI\MSX\CODE\C\MSXgl\projects\exsoccer/exsoccer_s3_b1.c
    000008A3                       2440 00103$:
                                   2441 ;E:\Dropbox\FAUSTO\SVILUPPI\MSX\CODE\C\MSXgl\projects\exsoccer/exsoccer_s3_b1.c:536: ERROR: no line number 536 in file E:\Dropbox\FAUSTO\SVILUPPI\MSX\CODE\C\MSXgl\projects\exsoccer/exsoccer_s3_b1.c
    000008A3 DD 36 FD 3B      [19] 2442 	ld	-3 (ix), #0x3b
                                   2443 ;E:\Dropbox\FAUSTO\SVILUPPI\MSX\CODE\C\MSXgl\projects\exsoccer/exsoccer_s3_b1.c:537: ERROR: no line number 537 in file E:\Dropbox\FAUSTO\SVILUPPI\MSX\CODE\C\MSXgl\projects\exsoccer/exsoccer_s3_b1.c
    000008A7 C3rCAr08         [10] 2444 	jp	00109$
                                   2445 ;E:\Dropbox\FAUSTO\SVILUPPI\MSX\CODE\C\MSXgl\projects\exsoccer/exsoccer_s3_b1.c:538: ERROR: no line number 538 in file E:\Dropbox\FAUSTO\SVILUPPI\MSX\CODE\C\MSXgl\projects\exsoccer/exsoccer_s3_b1.c
    000008AA                       2446 00104$:
                                   2447 ;E:\Dropbox\FAUSTO\SVILUPPI\MSX\CODE\C\MSXgl\projects\exsoccer/exsoccer_s3_b1.c:539: ERROR: no line number 539 in file E:\Dropbox\FAUSTO\SVILUPPI\MSX\CODE\C\MSXgl\projects\exsoccer/exsoccer_s3_b1.c
    000008AA DD 36 FD 3C      [19] 2448 	ld	-3 (ix), #0x3c
                                   2449 ;E:\Dropbox\FAUSTO\SVILUPPI\MSX\CODE\C\MSXgl\projects\exsoccer/exsoccer_s3_b1.c:540: ERROR: no line number 540 in file E:\Dropbox\FAUSTO\SVILUPPI\MSX\CODE\C\MSXgl\projects\exsoccer/exsoccer_s3_b1.c
    000008AE C3rCAr08         [10] 2450 	jp	00109$
                                   2451 ;E:\Dropbox\FAUSTO\SVILUPPI\MSX\CODE\C\MSXgl\projects\exsoccer/exsoccer_s3_b1.c:541: ERROR: no line number 541 in file E:\Dropbox\FAUSTO\SVILUPPI\MSX\CODE\C\MSXgl\projects\exsoccer/exsoccer_s3_b1.c
    000008B1                       2452 00105$:
                                   2453 ;E:\Dropbox\FAUSTO\SVILUPPI\MSX\CODE\C\MSXgl\projects\exsoccer/exsoccer_s3_b1.c:542: ERROR: no line number 542 in file E:\Dropbox\FAUSTO\SVILUPPI\MSX\CODE\C\MSXgl\projects\exsoccer/exsoccer_s3_b1.c
    000008B1 DD 36 FD 3D      [19] 2454 	ld	-3 (ix), #0x3d
                                   2455 ;E:\Dropbox\FAUSTO\SVILUPPI\MSX\CODE\C\MSXgl\projects\exsoccer/exsoccer_s3_b1.c:543: ERROR: no line number 543 in file E:\Dropbox\FAUSTO\SVILUPPI\MSX\CODE\C\MSXgl\projects\exsoccer/exsoccer_s3_b1.c
    000008B5 C3rCAr08         [10] 2456 	jp	00109$
                                   2457 ;E:\Dropbox\FAUSTO\SVILUPPI\MSX\CODE\C\MSXgl\projects\exsoccer/exsoccer_s3_b1.c:544: ERROR: no line number 544 in file E:\Dropbox\FAUSTO\SVILUPPI\MSX\CODE\C\MSXgl\projects\exsoccer/exsoccer_s3_b1.c
    000008B8                       2458 00106$:
                                   2459 ;E:\Dropbox\FAUSTO\SVILUPPI\MSX\CODE\C\MSXgl\projects\exsoccer/exsoccer_s3_b1.c:545: ERROR: no line number 545 in file E:\Dropbox\FAUSTO\SVILUPPI\MSX\CODE\C\MSXgl\projects\exsoccer/exsoccer_s3_b1.c
    000008B8 DD 36 FD 3E      [19] 2460 	ld	-3 (ix), #0x3e
                                   2461 ;E:\Dropbox\FAUSTO\SVILUPPI\MSX\CODE\C\MSXgl\projects\exsoccer/exsoccer_s3_b1.c:546: ERROR: no line number 546 in file E:\Dropbox\FAUSTO\SVILUPPI\MSX\CODE\C\MSXgl\projects\exsoccer/exsoccer_s3_b1.c
    000008BC C3rCAr08         [10] 2462 	jp	00109$
                                   2463 ;E:\Dropbox\FAUSTO\SVILUPPI\MSX\CODE\C\MSXgl\projects\exsoccer/exsoccer_s3_b1.c:547: ERROR: no line number 547 in file E:\Dropbox\FAUSTO\SVILUPPI\MSX\CODE\C\MSXgl\projects\exsoccer/exsoccer_s3_b1.c
    000008BF                       2464 00107$:
                                   2465 ;E:\Dropbox\FAUSTO\SVILUPPI\MSX\CODE\C\MSXgl\projects\exsoccer/exsoccer_s3_b1.c:548: ERROR: no line number 548 in file E:\Dropbox\FAUSTO\SVILUPPI\MSX\CODE\C\MSXgl\projects\exsoccer/exsoccer_s3_b1.c
    000008BF DD 36 FD 3F      [19] 2466 	ld	-3 (ix), #0x3f
                                   2467 ;E:\Dropbox\FAUSTO\SVILUPPI\MSX\CODE\C\MSXgl\projects\exsoccer/exsoccer_s3_b1.c:549: ERROR: no line number 549 in file E:\Dropbox\FAUSTO\SVILUPPI\MSX\CODE\C\MSXgl\projects\exsoccer/exsoccer_s3_b1.c
    000008C3 C3rCAr08         [10] 2468 	jp	00109$
                                   2469 ;E:\Dropbox\FAUSTO\SVILUPPI\MSX\CODE\C\MSXgl\projects\exsoccer/exsoccer_s3_b1.c:550: ERROR: no line number 550 in file E:\Dropbox\FAUSTO\SVILUPPI\MSX\CODE\C\MSXgl\projects\exsoccer/exsoccer_s3_b1.c
    000008C6                       2470 00108$:
                                   2471 ;E:\Dropbox\FAUSTO\SVILUPPI\MSX\CODE\C\MSXgl\projects\exsoccer/exsoccer_s3_b1.c:551: ERROR: no line number 551 in file E:\Dropbox\FAUSTO\SVILUPPI\MSX\CODE\C\MSXgl\projects\exsoccer/exsoccer_s3_b1.c
    000008C6 DD 36 FD 74      [19] 2472 	ld	-3 (ix), #0x74
                                   2473 ;E:\Dropbox\FAUSTO\SVILUPPI\MSX\CODE\C\MSXgl\projects\exsoccer/exsoccer_s3_b1.c:553: ERROR: no line number 553 in file E:\Dropbox\FAUSTO\SVILUPPI\MSX\CODE\C\MSXgl\projects\exsoccer/exsoccer_s3_b1.c
    000008CA                       2474 00109$:
                                   2475 ;E:\Dropbox\FAUSTO\SVILUPPI\MSX\CODE\C\MSXgl\projects\exsoccer/exsoccer_s3_b1.c:554: ERROR: no line number 554 in file E:\Dropbox\FAUSTO\SVILUPPI\MSX\CODE\C\MSXgl\projects\exsoccer/exsoccer_s3_b1.c
    000008CA ED 4Br02r00      [20] 2476 	ld	bc, (#_g_Ball + 2)
    000008CE 21 02 00         [10] 2477 	ld	hl, #2
    000008D1 39               [11] 2478 	add	hl, sp
    000008D2 71               [ 7] 2479 	ld	(hl), c
    000008D3 23               [ 6] 2480 	inc	hl
    000008D4 78               [ 4] 2481 	ld	a, b
    000008D5 E6 03            [ 7] 2482 	and	a, #0x03
    000008D7 4F               [ 4] 2483 	ld	c,a
    000008D8 7E               [ 7] 2484 	ld	a, (hl)
    000008D9 E6 FC            [ 7] 2485 	and	a, #0xfc
    000008DB B1               [ 4] 2486 	or	a, c
    000008DC 77               [ 7] 2487 	ld	(hl), a
                                   2488 ;E:\Dropbox\FAUSTO\SVILUPPI\MSX\CODE\C\MSXgl\projects\exsoccer/exsoccer_s3_b1.c:555: ERROR: no line number 555 in file E:\Dropbox\FAUSTO\SVILUPPI\MSX\CODE\C\MSXgl\projects\exsoccer/exsoccer_s3_b1.c
    000008DD 4B               [ 4] 2489 	ld	c, e
    000008DE 42               [ 4] 2490 	ld	b, d
    000008DF EB               [ 4] 2491 	ex	de,hl
    000008E0 7E               [ 7] 2492 	ld	a, (hl)
    000008E1 07               [ 4] 2493 	rlca
    000008E2 07               [ 4] 2494 	rlca
    000008E3 07               [ 4] 2495 	rlca
    000008E4 07               [ 4] 2496 	rlca
    000008E5 E6 01            [ 7] 2497 	and	a, #0x01
    000008E7 0F               [ 4] 2498 	rrca
    000008E8 0F               [ 4] 2499 	rrca
    000008E9 0F               [ 4] 2500 	rrca
    000008EA E6 20            [ 7] 2501 	and	a, #0x20
    000008EC 5F               [ 4] 2502 	ld	e, a
    000008ED 0A               [ 7] 2503 	ld	a, (bc)
    000008EE E6 DF            [ 7] 2504 	and	a, #0xdf
    000008F0 B3               [ 4] 2505 	or	a, e
    000008F1 02               [ 7] 2506 	ld	(bc), a
                                   2507 ;E:\Dropbox\FAUSTO\SVILUPPI\MSX\CODE\C\MSXgl\projects\exsoccer/exsoccer_s3_b1.c:556: ERROR: no line number 556 in file E:\Dropbox\FAUSTO\SVILUPPI\MSX\CODE\C\MSXgl\projects\exsoccer/exsoccer_s3_b1.c
                                   2508 ;E:/Dropbox/FAUSTO/SVILUPPI/MSX/CODE/C/MSXgl/engine/src/v9990.h:781: ERROR: no line number 781 in file E:/Dropbox/FAUSTO/SVILUPPI/MSX/CODE/C/MSXgl/engine/src/v9990.h
                                   2509 ;E:/Dropbox/FAUSTO/SVILUPPI/MSX/CODE/C/MSXgl/engine/src/v9990.h:371: ERROR: no line number 371 in file E:/Dropbox/FAUSTO/SVILUPPI/MSX/CODE/C/MSXgl/engine/src/v9990.h
    000008F2 11 3C FE         [10] 2510 	ld	de, #0xfe3c
    000008F5 21 03 00         [10] 2511 	ld	hl, #0x0003
    000008F8 CDr00r00         [17] 2512 	call	_V9_SetWriteAddress
    000008FB 11 04 00         [10] 2513 	ld	de, #0x0004
    000008FE 21 00 00         [10] 2514 	ld	hl, #0
    00000901 39               [11] 2515 	add	hl, sp
    00000902 CDr00r00         [17] 2516 	call	_V9_WriteVRAM_CurrentAddr
                                   2517 ;E:\Dropbox\FAUSTO\SVILUPPI\MSX\CODE\C\MSXgl\projects\exsoccer/exsoccer_s3_b1.c:556: ERROR: no line number 556 in file E:\Dropbox\FAUSTO\SVILUPPI\MSX\CODE\C\MSXgl\projects\exsoccer/exsoccer_s3_b1.c
                                   2518 ;E:\Dropbox\FAUSTO\SVILUPPI\MSX\CODE\C\MSXgl\projects\exsoccer/exsoccer_s3_b1.c:557: ERROR: no line number 557 in file E:\Dropbox\FAUSTO\SVILUPPI\MSX\CODE\C\MSXgl\projects\exsoccer/exsoccer_s3_b1.c
    00000905 DD F9            [10] 2519 	ld	sp, ix
    00000907 DD E1            [14] 2520 	pop	ix
    00000909 C9               [10] 2521 	ret
                                   2522 ;E:\Dropbox\FAUSTO\SVILUPPI\MSX\CODE\C\MSXgl\projects\exsoccer/exsoccer_s3_b1.c:558: ERROR: no line number 558 in file E:\Dropbox\FAUSTO\SVILUPPI\MSX\CODE\C\MSXgl\projects\exsoccer/exsoccer_s3_b1.c
                                   2523 ;	---------------------------------
                                   2524 ; Function ShowHeaderInfo
                                   2525 ; ---------------------------------
    0000090A                       2526 _ShowHeaderInfo::
    0000090A DD E5            [15] 2527 	push	ix
    0000090C DD 21 00 00      [14] 2528 	ld	ix,#0
    00000910 DD 39            [15] 2529 	add	ix,sp
    00000912 F5               [11] 2530 	push	af
                                   2531 ;E:\Dropbox\FAUSTO\SVILUPPI\MSX\CODE\C\MSXgl\projects\exsoccer/exsoccer_s3_b1.c:559: ERROR: no line number 559 in file E:\Dropbox\FAUSTO\SVILUPPI\MSX\CODE\C\MSXgl\projects\exsoccer/exsoccer_s3_b1.c
    00000913 DD 36 FE 05      [19] 2532 	ld	-2 (ix), #0x05
                                   2533 ;E:\Dropbox\FAUSTO\SVILUPPI\MSX\CODE\C\MSXgl\projects\exsoccer/exsoccer_s3_b1.c:560: ERROR: no line number 560 in file E:\Dropbox\FAUSTO\SVILUPPI\MSX\CODE\C\MSXgl\projects\exsoccer/exsoccer_s3_b1.c
    00000917 DD 36 FF 0A      [19] 2534 	ld	-1 (ix), #0x0a
                                   2535 ;E:\Dropbox\FAUSTO\SVILUPPI\MSX\CODE\C\MSXgl\projects\exsoccer/exsoccer_s3_b1.c:561: ERROR: no line number 561 in file E:\Dropbox\FAUSTO\SVILUPPI\MSX\CODE\C\MSXgl\projects\exsoccer/exsoccer_s3_b1.c
    0000091B 3Ar00r00         [13] 2536 	ld	a, (_g_Team1Score+0)
    0000091E D6 0A            [ 7] 2537 	sub	a, #0x0a
    00000920 38 04            [12] 2538 	jr	C, 00102$
                                   2539 ;E:\Dropbox\FAUSTO\SVILUPPI\MSX\CODE\C\MSXgl\projects\exsoccer/exsoccer_s3_b1.c:562: ERROR: no line number 562 in file E:\Dropbox\FAUSTO\SVILUPPI\MSX\CODE\C\MSXgl\projects\exsoccer/exsoccer_s3_b1.c
    00000922 DD 36 FE 04      [19] 2540 	ld	-2 (ix), #0x04
    00000926                       2541 00102$:
                                   2542 ;E:\Dropbox\FAUSTO\SVILUPPI\MSX\CODE\C\MSXgl\projects\exsoccer/exsoccer_s3_b1.c:564: ERROR: no line number 564 in file E:\Dropbox\FAUSTO\SVILUPPI\MSX\CODE\C\MSXgl\projects\exsoccer/exsoccer_s3_b1.c
    00000926 3Ar00r00         [13] 2543 	ld	a, (_g_Team2Score+0)
    00000929 D6 0A            [ 7] 2544 	sub	a, #0x0a
    0000092B 38 04            [12] 2545 	jr	C, 00104$
                                   2546 ;E:\Dropbox\FAUSTO\SVILUPPI\MSX\CODE\C\MSXgl\projects\exsoccer/exsoccer_s3_b1.c:565: ERROR: no line number 565 in file E:\Dropbox\FAUSTO\SVILUPPI\MSX\CODE\C\MSXgl\projects\exsoccer/exsoccer_s3_b1.c
    0000092D DD 36 FF 09      [19] 2547 	ld	-1 (ix), #0x09
    00000931                       2548 00104$:
                                   2549 ;E:\Dropbox\FAUSTO\SVILUPPI\MSX\CODE\C\MSXgl\projects\exsoccer/exsoccer_s3_b1.c:567: ERROR: no line number 567 in file E:\Dropbox\FAUSTO\SVILUPPI\MSX\CODE\C\MSXgl\projects\exsoccer/exsoccer_s3_b1.c
    00000931 3E 05            [ 7] 2550 	ld	a, #0x05
    00000933 FD 21r00r00      [14] 2551 	ld	iy, #_g_Team1PaletteId
    00000937 FD 96 00         [19] 2552 	sub	a, 0 (iy)
    0000093A 38 63            [12] 2553 	jr	C, 00111$
    0000093C FD 4E 00         [19] 2554 	ld	c, 0 (iy)
    0000093F 06 00            [ 7] 2555 	ld	b, #0x00
    00000941 21r48r09         [10] 2556 	ld	hl, #00149$
    00000944 09               [11] 2557 	add	hl, bc
    00000945 09               [11] 2558 	add	hl, bc
    00000946 09               [11] 2559 	add	hl, bc
    00000947 E9               [ 4] 2560 	jp	(hl)
    00000948                       2561 00149$:
    00000948 C3r5Ar09         [10] 2562 	jp	00105$
    0000094B C3r66r09         [10] 2563 	jp	00106$
    0000094E C3r72r09         [10] 2564 	jp	00107$
    00000951 C3r96r09         [10] 2565 	jp	00110$
    00000954 C3r7Er09         [10] 2566 	jp	00108$
    00000957 C3r8Ar09         [10] 2567 	jp	00109$
                                   2568 ;E:\Dropbox\FAUSTO\SVILUPPI\MSX\CODE\C\MSXgl\projects\exsoccer/exsoccer_s3_b1.c:568: ERROR: no line number 568 in file E:\Dropbox\FAUSTO\SVILUPPI\MSX\CODE\C\MSXgl\projects\exsoccer/exsoccer_s3_b1.c
    0000095A                       2569 00105$:
                                   2570 ;E:\Dropbox\FAUSTO\SVILUPPI\MSX\CODE\C\MSXgl\projects\exsoccer/exsoccer_s3_b1.c:569: ERROR: no line number 569 in file E:\Dropbox\FAUSTO\SVILUPPI\MSX\CODE\C\MSXgl\projects\exsoccer/exsoccer_s3_b1.c
    0000095A 21rB1r0A         [10] 2571 	ld	hl, #___str_1
    0000095D E5               [11] 2572 	push	hl
                                   2573 ;	spillPairReg hl
                                   2574 ;	spillPairReg hl
    0000095E AF               [ 4] 2575 	xor	a, a
    0000095F 6F               [ 4] 2576 	ld	l, a
    00000960 CDr00r00         [17] 2577 	call	_V9_PrintLayerAStringAtPos
                                   2578 ;E:\Dropbox\FAUSTO\SVILUPPI\MSX\CODE\C\MSXgl\projects\exsoccer/exsoccer_s3_b1.c:570: ERROR: no line number 570 in file E:\Dropbox\FAUSTO\SVILUPPI\MSX\CODE\C\MSXgl\projects\exsoccer/exsoccer_s3_b1.c
    00000963 C3r9Fr09         [10] 2579 	jp	00111$
                                   2580 ;E:\Dropbox\FAUSTO\SVILUPPI\MSX\CODE\C\MSXgl\projects\exsoccer/exsoccer_s3_b1.c:571: ERROR: no line number 571 in file E:\Dropbox\FAUSTO\SVILUPPI\MSX\CODE\C\MSXgl\projects\exsoccer/exsoccer_s3_b1.c
    00000966                       2581 00106$:
                                   2582 ;E:\Dropbox\FAUSTO\SVILUPPI\MSX\CODE\C\MSXgl\projects\exsoccer/exsoccer_s3_b1.c:572: ERROR: no line number 572 in file E:\Dropbox\FAUSTO\SVILUPPI\MSX\CODE\C\MSXgl\projects\exsoccer/exsoccer_s3_b1.c
    00000966 21rB5r0A         [10] 2583 	ld	hl, #___str_2
    00000969 E5               [11] 2584 	push	hl
                                   2585 ;	spillPairReg hl
                                   2586 ;	spillPairReg hl
    0000096A AF               [ 4] 2587 	xor	a, a
    0000096B 6F               [ 4] 2588 	ld	l, a
    0000096C CDr00r00         [17] 2589 	call	_V9_PrintLayerAStringAtPos
                                   2590 ;E:\Dropbox\FAUSTO\SVILUPPI\MSX\CODE\C\MSXgl\projects\exsoccer/exsoccer_s3_b1.c:573: ERROR: no line number 573 in file E:\Dropbox\FAUSTO\SVILUPPI\MSX\CODE\C\MSXgl\projects\exsoccer/exsoccer_s3_b1.c
    0000096F C3r9Fr09         [10] 2591 	jp	00111$
                                   2592 ;E:\Dropbox\FAUSTO\SVILUPPI\MSX\CODE\C\MSXgl\projects\exsoccer/exsoccer_s3_b1.c:574: ERROR: no line number 574 in file E:\Dropbox\FAUSTO\SVILUPPI\MSX\CODE\C\MSXgl\projects\exsoccer/exsoccer_s3_b1.c
    00000972                       2593 00107$:
                                   2594 ;E:\Dropbox\FAUSTO\SVILUPPI\MSX\CODE\C\MSXgl\projects\exsoccer/exsoccer_s3_b1.c:575: ERROR: no line number 575 in file E:\Dropbox\FAUSTO\SVILUPPI\MSX\CODE\C\MSXgl\projects\exsoccer/exsoccer_s3_b1.c
    00000972 21rB9r0A         [10] 2595 	ld	hl, #___str_3
    00000975 E5               [11] 2596 	push	hl
                                   2597 ;	spillPairReg hl
                                   2598 ;	spillPairReg hl
    00000976 AF               [ 4] 2599 	xor	a, a
    00000977 6F               [ 4] 2600 	ld	l, a
    00000978 CDr00r00         [17] 2601 	call	_V9_PrintLayerAStringAtPos
                                   2602 ;E:\Dropbox\FAUSTO\SVILUPPI\MSX\CODE\C\MSXgl\projects\exsoccer/exsoccer_s3_b1.c:576: ERROR: no line number 576 in file E:\Dropbox\FAUSTO\SVILUPPI\MSX\CODE\C\MSXgl\projects\exsoccer/exsoccer_s3_b1.c
    0000097B C3r9Fr09         [10] 2603 	jp	00111$
                                   2604 ;E:\Dropbox\FAUSTO\SVILUPPI\MSX\CODE\C\MSXgl\projects\exsoccer/exsoccer_s3_b1.c:577: ERROR: no line number 577 in file E:\Dropbox\FAUSTO\SVILUPPI\MSX\CODE\C\MSXgl\projects\exsoccer/exsoccer_s3_b1.c
    0000097E                       2605 00108$:
                                   2606 ;E:\Dropbox\FAUSTO\SVILUPPI\MSX\CODE\C\MSXgl\projects\exsoccer/exsoccer_s3_b1.c:578: ERROR: no line number 578 in file E:\Dropbox\FAUSTO\SVILUPPI\MSX\CODE\C\MSXgl\projects\exsoccer/exsoccer_s3_b1.c
    0000097E 21rBDr0A         [10] 2607 	ld	hl, #___str_4
    00000981 E5               [11] 2608 	push	hl
                                   2609 ;	spillPairReg hl
                                   2610 ;	spillPairReg hl
    00000982 AF               [ 4] 2611 	xor	a, a
    00000983 6F               [ 4] 2612 	ld	l, a
    00000984 CDr00r00         [17] 2613 	call	_V9_PrintLayerAStringAtPos
                                   2614 ;E:\Dropbox\FAUSTO\SVILUPPI\MSX\CODE\C\MSXgl\projects\exsoccer/exsoccer_s3_b1.c:579: ERROR: no line number 579 in file E:\Dropbox\FAUSTO\SVILUPPI\MSX\CODE\C\MSXgl\projects\exsoccer/exsoccer_s3_b1.c
    00000987 C3r9Fr09         [10] 2615 	jp	00111$
                                   2616 ;E:\Dropbox\FAUSTO\SVILUPPI\MSX\CODE\C\MSXgl\projects\exsoccer/exsoccer_s3_b1.c:580: ERROR: no line number 580 in file E:\Dropbox\FAUSTO\SVILUPPI\MSX\CODE\C\MSXgl\projects\exsoccer/exsoccer_s3_b1.c
    0000098A                       2617 00109$:
                                   2618 ;E:\Dropbox\FAUSTO\SVILUPPI\MSX\CODE\C\MSXgl\projects\exsoccer/exsoccer_s3_b1.c:581: ERROR: no line number 581 in file E:\Dropbox\FAUSTO\SVILUPPI\MSX\CODE\C\MSXgl\projects\exsoccer/exsoccer_s3_b1.c
    0000098A 21rC1r0A         [10] 2619 	ld	hl, #___str_5
    0000098D E5               [11] 2620 	push	hl
                                   2621 ;	spillPairReg hl
                                   2622 ;	spillPairReg hl
    0000098E AF               [ 4] 2623 	xor	a, a
    0000098F 6F               [ 4] 2624 	ld	l, a
    00000990 CDr00r00         [17] 2625 	call	_V9_PrintLayerAStringAtPos
                                   2626 ;E:\Dropbox\FAUSTO\SVILUPPI\MSX\CODE\C\MSXgl\projects\exsoccer/exsoccer_s3_b1.c:582: ERROR: no line number 582 in file E:\Dropbox\FAUSTO\SVILUPPI\MSX\CODE\C\MSXgl\projects\exsoccer/exsoccer_s3_b1.c
    00000993 C3r9Fr09         [10] 2627 	jp	00111$
                                   2628 ;E:\Dropbox\FAUSTO\SVILUPPI\MSX\CODE\C\MSXgl\projects\exsoccer/exsoccer_s3_b1.c:583: ERROR: no line number 583 in file E:\Dropbox\FAUSTO\SVILUPPI\MSX\CODE\C\MSXgl\projects\exsoccer/exsoccer_s3_b1.c
    00000996                       2629 00110$:
                                   2630 ;E:\Dropbox\FAUSTO\SVILUPPI\MSX\CODE\C\MSXgl\projects\exsoccer/exsoccer_s3_b1.c:584: ERROR: no line number 584 in file E:\Dropbox\FAUSTO\SVILUPPI\MSX\CODE\C\MSXgl\projects\exsoccer/exsoccer_s3_b1.c
    00000996 21rC5r0A         [10] 2631 	ld	hl, #___str_6
    00000999 E5               [11] 2632 	push	hl
                                   2633 ;	spillPairReg hl
                                   2634 ;	spillPairReg hl
    0000099A AF               [ 4] 2635 	xor	a, a
    0000099B 6F               [ 4] 2636 	ld	l, a
    0000099C CDr00r00         [17] 2637 	call	_V9_PrintLayerAStringAtPos
                                   2638 ;E:\Dropbox\FAUSTO\SVILUPPI\MSX\CODE\C\MSXgl\projects\exsoccer/exsoccer_s3_b1.c:586: ERROR: no line number 586 in file E:\Dropbox\FAUSTO\SVILUPPI\MSX\CODE\C\MSXgl\projects\exsoccer/exsoccer_s3_b1.c
    0000099F                       2639 00111$:
                                   2640 ;E:\Dropbox\FAUSTO\SVILUPPI\MSX\CODE\C\MSXgl\projects\exsoccer/exsoccer_s3_b1.c:587: ERROR: no line number 587 in file E:\Dropbox\FAUSTO\SVILUPPI\MSX\CODE\C\MSXgl\projects\exsoccer/exsoccer_s3_b1.c
    0000099F 3Ar00r00         [13] 2641 	ld	a, (_g_Team1Score+0)
    000009A2 6F               [ 4] 2642 	ld	l, a
                                   2643 ;	spillPairReg hl
                                   2644 ;	spillPairReg hl
    000009A3 26 00            [ 7] 2645 	ld	h, #0x00
                                   2646 ;	spillPairReg hl
                                   2647 ;	spillPairReg hl
    000009A5 CDrAFr13         [17] 2648 	call	_GetNumberString
    000009A8 D5               [11] 2649 	push	de
    000009A9 2E 00            [ 7] 2650 	ld	l, #0x00
                                   2651 ;	spillPairReg hl
                                   2652 ;	spillPairReg hl
    000009AB DD 7E FE         [19] 2653 	ld	a, -2 (ix)
    000009AE CDr00r00         [17] 2654 	call	_V9_PrintLayerAStringAtPos
                                   2655 ;E:\Dropbox\FAUSTO\SVILUPPI\MSX\CODE\C\MSXgl\projects\exsoccer/exsoccer_s3_b1.c:588: ERROR: no line number 588 in file E:\Dropbox\FAUSTO\SVILUPPI\MSX\CODE\C\MSXgl\projects\exsoccer/exsoccer_s3_b1.c
    000009B1 21rC9r0A         [10] 2656 	ld	hl, #___str_7
    000009B4 E5               [11] 2657 	push	hl
    000009B5 2E 00            [ 7] 2658 	ld	l, #0x00
                                   2659 ;	spillPairReg hl
                                   2660 ;	spillPairReg hl
    000009B7 3E 07            [ 7] 2661 	ld	a, #0x07
    000009B9 CDr00r00         [17] 2662 	call	_V9_PrintLayerAStringAtPos
                                   2663 ;E:\Dropbox\FAUSTO\SVILUPPI\MSX\CODE\C\MSXgl\projects\exsoccer/exsoccer_s3_b1.c:589: ERROR: no line number 589 in file E:\Dropbox\FAUSTO\SVILUPPI\MSX\CODE\C\MSXgl\projects\exsoccer/exsoccer_s3_b1.c
    000009BC 3Ar00r00         [13] 2664 	ld	a, (_g_Team2Score+0)
    000009BF 6F               [ 4] 2665 	ld	l, a
                                   2666 ;	spillPairReg hl
                                   2667 ;	spillPairReg hl
    000009C0 26 00            [ 7] 2668 	ld	h, #0x00
                                   2669 ;	spillPairReg hl
                                   2670 ;	spillPairReg hl
    000009C2 CDrAFr13         [17] 2671 	call	_GetNumberString
    000009C5 D5               [11] 2672 	push	de
    000009C6 2E 00            [ 7] 2673 	ld	l, #0x00
                                   2674 ;	spillPairReg hl
                                   2675 ;	spillPairReg hl
    000009C8 DD 7E FF         [19] 2676 	ld	a, -1 (ix)
    000009CB CDr00r00         [17] 2677 	call	_V9_PrintLayerAStringAtPos
                                   2678 ;E:\Dropbox\FAUSTO\SVILUPPI\MSX\CODE\C\MSXgl\projects\exsoccer/exsoccer_s3_b1.c:590: ERROR: no line number 590 in file E:\Dropbox\FAUSTO\SVILUPPI\MSX\CODE\C\MSXgl\projects\exsoccer/exsoccer_s3_b1.c
    000009CE 3E 05            [ 7] 2679 	ld	a, #0x05
    000009D0 FD 21r00r00      [14] 2680 	ld	iy, #_g_Team2PaletteId
    000009D4 FD 96 00         [19] 2681 	sub	a, 0 (iy)
    000009D7 38 6F            [12] 2682 	jr	C, 00118$
    000009D9 FD 4E 00         [19] 2683 	ld	c, 0 (iy)
    000009DC 06 00            [ 7] 2684 	ld	b, #0x00
    000009DE 21rE5r09         [10] 2685 	ld	hl, #00150$
    000009E1 09               [11] 2686 	add	hl, bc
    000009E2 09               [11] 2687 	add	hl, bc
    000009E3 09               [11] 2688 	add	hl, bc
    000009E4 E9               [ 4] 2689 	jp	(hl)
    000009E5                       2690 00150$:
    000009E5 C3rF7r09         [10] 2691 	jp	00112$
    000009E8 C3r05r0A         [10] 2692 	jp	00113$
    000009EB C3r13r0A         [10] 2693 	jp	00114$
    000009EE C3r3Dr0A         [10] 2694 	jp	00117$
    000009F1 C3r21r0A         [10] 2695 	jp	00115$
    000009F4 C3r2Fr0A         [10] 2696 	jp	00116$
                                   2697 ;E:\Dropbox\FAUSTO\SVILUPPI\MSX\CODE\C\MSXgl\projects\exsoccer/exsoccer_s3_b1.c:591: ERROR: no line number 591 in file E:\Dropbox\FAUSTO\SVILUPPI\MSX\CODE\C\MSXgl\projects\exsoccer/exsoccer_s3_b1.c
    000009F7                       2698 00112$:
                                   2699 ;E:\Dropbox\FAUSTO\SVILUPPI\MSX\CODE\C\MSXgl\projects\exsoccer/exsoccer_s3_b1.c:592: ERROR: no line number 592 in file E:\Dropbox\FAUSTO\SVILUPPI\MSX\CODE\C\MSXgl\projects\exsoccer/exsoccer_s3_b1.c
    000009F7 21rB1r0A         [10] 2700 	ld	hl, #___str_1
    000009FA E5               [11] 2701 	push	hl
    000009FB 2E 00            [ 7] 2702 	ld	l, #0x00
                                   2703 ;	spillPairReg hl
                                   2704 ;	spillPairReg hl
    000009FD 3E 0C            [ 7] 2705 	ld	a, #0x0c
    000009FF CDr00r00         [17] 2706 	call	_V9_PrintLayerAStringAtPos
                                   2707 ;E:\Dropbox\FAUSTO\SVILUPPI\MSX\CODE\C\MSXgl\projects\exsoccer/exsoccer_s3_b1.c:593: ERROR: no line number 593 in file E:\Dropbox\FAUSTO\SVILUPPI\MSX\CODE\C\MSXgl\projects\exsoccer/exsoccer_s3_b1.c
    00000A02 C3r48r0A         [10] 2708 	jp	00118$
                                   2709 ;E:\Dropbox\FAUSTO\SVILUPPI\MSX\CODE\C\MSXgl\projects\exsoccer/exsoccer_s3_b1.c:594: ERROR: no line number 594 in file E:\Dropbox\FAUSTO\SVILUPPI\MSX\CODE\C\MSXgl\projects\exsoccer/exsoccer_s3_b1.c
    00000A05                       2710 00113$:
                                   2711 ;E:\Dropbox\FAUSTO\SVILUPPI\MSX\CODE\C\MSXgl\projects\exsoccer/exsoccer_s3_b1.c:595: ERROR: no line number 595 in file E:\Dropbox\FAUSTO\SVILUPPI\MSX\CODE\C\MSXgl\projects\exsoccer/exsoccer_s3_b1.c
    00000A05 21rB5r0A         [10] 2712 	ld	hl, #___str_2
    00000A08 E5               [11] 2713 	push	hl
    00000A09 2E 00            [ 7] 2714 	ld	l, #0x00
                                   2715 ;	spillPairReg hl
                                   2716 ;	spillPairReg hl
    00000A0B 3E 0C            [ 7] 2717 	ld	a, #0x0c
    00000A0D CDr00r00         [17] 2718 	call	_V9_PrintLayerAStringAtPos
                                   2719 ;E:\Dropbox\FAUSTO\SVILUPPI\MSX\CODE\C\MSXgl\projects\exsoccer/exsoccer_s3_b1.c:596: ERROR: no line number 596 in file E:\Dropbox\FAUSTO\SVILUPPI\MSX\CODE\C\MSXgl\projects\exsoccer/exsoccer_s3_b1.c
    00000A10 C3r48r0A         [10] 2720 	jp	00118$
                                   2721 ;E:\Dropbox\FAUSTO\SVILUPPI\MSX\CODE\C\MSXgl\projects\exsoccer/exsoccer_s3_b1.c:597: ERROR: no line number 597 in file E:\Dropbox\FAUSTO\SVILUPPI\MSX\CODE\C\MSXgl\projects\exsoccer/exsoccer_s3_b1.c
    00000A13                       2722 00114$:
                                   2723 ;E:\Dropbox\FAUSTO\SVILUPPI\MSX\CODE\C\MSXgl\projects\exsoccer/exsoccer_s3_b1.c:598: ERROR: no line number 598 in file E:\Dropbox\FAUSTO\SVILUPPI\MSX\CODE\C\MSXgl\projects\exsoccer/exsoccer_s3_b1.c
    00000A13 21rB9r0A         [10] 2724 	ld	hl, #___str_3
    00000A16 E5               [11] 2725 	push	hl
    00000A17 2E 00            [ 7] 2726 	ld	l, #0x00
                                   2727 ;	spillPairReg hl
                                   2728 ;	spillPairReg hl
    00000A19 3E 0C            [ 7] 2729 	ld	a, #0x0c
    00000A1B CDr00r00         [17] 2730 	call	_V9_PrintLayerAStringAtPos
                                   2731 ;E:\Dropbox\FAUSTO\SVILUPPI\MSX\CODE\C\MSXgl\projects\exsoccer/exsoccer_s3_b1.c:599: ERROR: no line number 599 in file E:\Dropbox\FAUSTO\SVILUPPI\MSX\CODE\C\MSXgl\projects\exsoccer/exsoccer_s3_b1.c
    00000A1E C3r48r0A         [10] 2732 	jp	00118$
                                   2733 ;E:\Dropbox\FAUSTO\SVILUPPI\MSX\CODE\C\MSXgl\projects\exsoccer/exsoccer_s3_b1.c:600: ERROR: no line number 600 in file E:\Dropbox\FAUSTO\SVILUPPI\MSX\CODE\C\MSXgl\projects\exsoccer/exsoccer_s3_b1.c
    00000A21                       2734 00115$:
                                   2735 ;E:\Dropbox\FAUSTO\SVILUPPI\MSX\CODE\C\MSXgl\projects\exsoccer/exsoccer_s3_b1.c:601: ERROR: no line number 601 in file E:\Dropbox\FAUSTO\SVILUPPI\MSX\CODE\C\MSXgl\projects\exsoccer/exsoccer_s3_b1.c
    00000A21 21rBDr0A         [10] 2736 	ld	hl, #___str_4
    00000A24 E5               [11] 2737 	push	hl
    00000A25 2E 00            [ 7] 2738 	ld	l, #0x00
                                   2739 ;	spillPairReg hl
                                   2740 ;	spillPairReg hl
    00000A27 3E 0C            [ 7] 2741 	ld	a, #0x0c
    00000A29 CDr00r00         [17] 2742 	call	_V9_PrintLayerAStringAtPos
                                   2743 ;E:\Dropbox\FAUSTO\SVILUPPI\MSX\CODE\C\MSXgl\projects\exsoccer/exsoccer_s3_b1.c:602: ERROR: no line number 602 in file E:\Dropbox\FAUSTO\SVILUPPI\MSX\CODE\C\MSXgl\projects\exsoccer/exsoccer_s3_b1.c
    00000A2C C3r48r0A         [10] 2744 	jp	00118$
                                   2745 ;E:\Dropbox\FAUSTO\SVILUPPI\MSX\CODE\C\MSXgl\projects\exsoccer/exsoccer_s3_b1.c:603: ERROR: no line number 603 in file E:\Dropbox\FAUSTO\SVILUPPI\MSX\CODE\C\MSXgl\projects\exsoccer/exsoccer_s3_b1.c
    00000A2F                       2746 00116$:
                                   2747 ;E:\Dropbox\FAUSTO\SVILUPPI\MSX\CODE\C\MSXgl\projects\exsoccer/exsoccer_s3_b1.c:604: ERROR: no line number 604 in file E:\Dropbox\FAUSTO\SVILUPPI\MSX\CODE\C\MSXgl\projects\exsoccer/exsoccer_s3_b1.c
    00000A2F 21rC1r0A         [10] 2748 	ld	hl, #___str_5
    00000A32 E5               [11] 2749 	push	hl
    00000A33 2E 00            [ 7] 2750 	ld	l, #0x00
                                   2751 ;	spillPairReg hl
                                   2752 ;	spillPairReg hl
    00000A35 3E 0C            [ 7] 2753 	ld	a, #0x0c
    00000A37 CDr00r00         [17] 2754 	call	_V9_PrintLayerAStringAtPos
                                   2755 ;E:\Dropbox\FAUSTO\SVILUPPI\MSX\CODE\C\MSXgl\projects\exsoccer/exsoccer_s3_b1.c:605: ERROR: no line number 605 in file E:\Dropbox\FAUSTO\SVILUPPI\MSX\CODE\C\MSXgl\projects\exsoccer/exsoccer_s3_b1.c
    00000A3A C3r48r0A         [10] 2756 	jp	00118$
                                   2757 ;E:\Dropbox\FAUSTO\SVILUPPI\MSX\CODE\C\MSXgl\projects\exsoccer/exsoccer_s3_b1.c:606: ERROR: no line number 606 in file E:\Dropbox\FAUSTO\SVILUPPI\MSX\CODE\C\MSXgl\projects\exsoccer/exsoccer_s3_b1.c
    00000A3D                       2758 00117$:
                                   2759 ;E:\Dropbox\FAUSTO\SVILUPPI\MSX\CODE\C\MSXgl\projects\exsoccer/exsoccer_s3_b1.c:607: ERROR: no line number 607 in file E:\Dropbox\FAUSTO\SVILUPPI\MSX\CODE\C\MSXgl\projects\exsoccer/exsoccer_s3_b1.c
    00000A3D 21rC5r0A         [10] 2760 	ld	hl, #___str_6
    00000A40 E5               [11] 2761 	push	hl
    00000A41 2E 00            [ 7] 2762 	ld	l, #0x00
                                   2763 ;	spillPairReg hl
                                   2764 ;	spillPairReg hl
    00000A43 3E 0C            [ 7] 2765 	ld	a, #0x0c
    00000A45 CDr00r00         [17] 2766 	call	_V9_PrintLayerAStringAtPos
                                   2767 ;E:\Dropbox\FAUSTO\SVILUPPI\MSX\CODE\C\MSXgl\projects\exsoccer/exsoccer_s3_b1.c:609: ERROR: no line number 609 in file E:\Dropbox\FAUSTO\SVILUPPI\MSX\CODE\C\MSXgl\projects\exsoccer/exsoccer_s3_b1.c
    00000A48                       2768 00118$:
                                   2769 ;E:\Dropbox\FAUSTO\SVILUPPI\MSX\CODE\C\MSXgl\projects\exsoccer/exsoccer_s3_b1.c:610: ERROR: no line number 610 in file E:\Dropbox\FAUSTO\SVILUPPI\MSX\CODE\C\MSXgl\projects\exsoccer/exsoccer_s3_b1.c
    00000A48 3Ar00r00         [13] 2770 	ld	a, (_g_SecondsToEndOfMatch+0)
    00000A4B 6F               [ 4] 2771 	ld	l, a
                                   2772 ;	spillPairReg hl
                                   2773 ;	spillPairReg hl
    00000A4C 26 00            [ 7] 2774 	ld	h, #0x00
                                   2775 ;	spillPairReg hl
                                   2776 ;	spillPairReg hl
    00000A4E 11 3C 00         [10] 2777 	ld	de, #0x003c
    00000A51 CDr00r00         [17] 2778 	call	__divsint
                                   2779 ;E:\Dropbox\FAUSTO\SVILUPPI\MSX\CODE\C\MSXgl\projects\exsoccer/exsoccer_s3_b1.c:611: ERROR: no line number 611 in file E:\Dropbox\FAUSTO\SVILUPPI\MSX\CODE\C\MSXgl\projects\exsoccer/exsoccer_s3_b1.c
    00000A54 7B               [ 4] 2780 	ld	a, e
    00000A55 4F               [ 4] 2781 	ld	c, a
    00000A56 87               [ 4] 2782 	add	a, a
    00000A57 87               [ 4] 2783 	add	a, a
    00000A58 87               [ 4] 2784 	add	a, a
    00000A59 87               [ 4] 2785 	add	a, a
    00000A5A 91               [ 4] 2786 	sub	a, c
    00000A5B 87               [ 4] 2787 	add	a, a
    00000A5C 87               [ 4] 2788 	add	a, a
    00000A5D 4F               [ 4] 2789 	ld	c, a
    00000A5E 3Ar00r00         [13] 2790 	ld	a, (_g_SecondsToEndOfMatch+0)
    00000A61 91               [ 4] 2791 	sub	a, c
    00000A62 4F               [ 4] 2792 	ld	c, a
                                   2793 ;E:\Dropbox\FAUSTO\SVILUPPI\MSX\CODE\C\MSXgl\projects\exsoccer/exsoccer_s3_b1.c:612: ERROR: no line number 612 in file E:\Dropbox\FAUSTO\SVILUPPI\MSX\CODE\C\MSXgl\projects\exsoccer/exsoccer_s3_b1.c
    00000A63 16 00            [ 7] 2794 	ld	d, #0x00
    00000A65 C5               [11] 2795 	push	bc
    00000A66 EB               [ 4] 2796 	ex	de, hl
    00000A67 CDrAFr13         [17] 2797 	call	_GetNumberString
    00000A6A D5               [11] 2798 	push	de
    00000A6B 2E 00            [ 7] 2799 	ld	l, #0x00
                                   2800 ;	spillPairReg hl
                                   2801 ;	spillPairReg hl
    00000A6D 3E 1C            [ 7] 2802 	ld	a, #0x1c
    00000A6F CDr00r00         [17] 2803 	call	_V9_PrintLayerAStringAtPos
    00000A72 21rCBr0A         [10] 2804 	ld	hl, #___str_8
    00000A75 E5               [11] 2805 	push	hl
    00000A76 2E 00            [ 7] 2806 	ld	l, #0x00
                                   2807 ;	spillPairReg hl
                                   2808 ;	spillPairReg hl
    00000A78 3E 1D            [ 7] 2809 	ld	a, #0x1d
    00000A7A CDr00r00         [17] 2810 	call	_V9_PrintLayerAStringAtPos
    00000A7D C1               [10] 2811 	pop	bc
                                   2812 ;E:\Dropbox\FAUSTO\SVILUPPI\MSX\CODE\C\MSXgl\projects\exsoccer/exsoccer_s3_b1.c:615: ERROR: no line number 615 in file E:\Dropbox\FAUSTO\SVILUPPI\MSX\CODE\C\MSXgl\projects\exsoccer/exsoccer_s3_b1.c
    00000A7E 69               [ 4] 2813 	ld	l, c
                                   2814 ;	spillPairReg hl
                                   2815 ;	spillPairReg hl
    00000A7F 26 00            [ 7] 2816 	ld	h, #0x00
                                   2817 ;	spillPairReg hl
                                   2818 ;	spillPairReg hl
                                   2819 ;E:\Dropbox\FAUSTO\SVILUPPI\MSX\CODE\C\MSXgl\projects\exsoccer/exsoccer_s3_b1.c:614: ERROR: no line number 614 in file E:\Dropbox\FAUSTO\SVILUPPI\MSX\CODE\C\MSXgl\projects\exsoccer/exsoccer_s3_b1.c
    00000A81 79               [ 4] 2820 	ld	a, c
    00000A82 D6 0A            [ 7] 2821 	sub	a, #0x0a
    00000A84 38 0E            [12] 2822 	jr	C, 00120$
                                   2823 ;E:\Dropbox\FAUSTO\SVILUPPI\MSX\CODE\C\MSXgl\projects\exsoccer/exsoccer_s3_b1.c:615: ERROR: no line number 615 in file E:\Dropbox\FAUSTO\SVILUPPI\MSX\CODE\C\MSXgl\projects\exsoccer/exsoccer_s3_b1.c
    00000A86 CDrAFr13         [17] 2824 	call	_GetNumberString
    00000A89 D5               [11] 2825 	push	de
    00000A8A 2E 00            [ 7] 2826 	ld	l, #0x00
                                   2827 ;	spillPairReg hl
                                   2828 ;	spillPairReg hl
    00000A8C 3E 1E            [ 7] 2829 	ld	a, #0x1e
    00000A8E CDr00r00         [17] 2830 	call	_V9_PrintLayerAStringAtPos
    00000A91 C3rACr0A         [10] 2831 	jp	00122$
    00000A94                       2832 00120$:
                                   2833 ;E:\Dropbox\FAUSTO\SVILUPPI\MSX\CODE\C\MSXgl\projects\exsoccer/exsoccer_s3_b1.c:618: ERROR: no line number 618 in file E:\Dropbox\FAUSTO\SVILUPPI\MSX\CODE\C\MSXgl\projects\exsoccer/exsoccer_s3_b1.c
    00000A94 01rCDr0A         [10] 2834 	ld	bc, #___str_9+0
    00000A97 E5               [11] 2835 	push	hl
    00000A98 C5               [11] 2836 	push	bc
    00000A99 2E 00            [ 7] 2837 	ld	l, #0x00
                                   2838 ;	spillPairReg hl
                                   2839 ;	spillPairReg hl
    00000A9B 3E 1E            [ 7] 2840 	ld	a, #0x1e
    00000A9D CDr00r00         [17] 2841 	call	_V9_PrintLayerAStringAtPos
    00000AA0 E1               [10] 2842 	pop	hl
                                   2843 ;E:\Dropbox\FAUSTO\SVILUPPI\MSX\CODE\C\MSXgl\projects\exsoccer/exsoccer_s3_b1.c:619: ERROR: no line number 619 in file E:\Dropbox\FAUSTO\SVILUPPI\MSX\CODE\C\MSXgl\projects\exsoccer/exsoccer_s3_b1.c
    00000AA1 CDrAFr13         [17] 2844 	call	_GetNumberString
    00000AA4 D5               [11] 2845 	push	de
    00000AA5 2E 00            [ 7] 2846 	ld	l, #0x00
                                   2847 ;	spillPairReg hl
                                   2848 ;	spillPairReg hl
    00000AA7 3E 1F            [ 7] 2849 	ld	a, #0x1f
    00000AA9 CDr00r00         [17] 2850 	call	_V9_PrintLayerAStringAtPos
    00000AAC                       2851 00122$:
                                   2852 ;E:\Dropbox\FAUSTO\SVILUPPI\MSX\CODE\C\MSXgl\projects\exsoccer/exsoccer_s3_b1.c:621: ERROR: no line number 621 in file E:\Dropbox\FAUSTO\SVILUPPI\MSX\CODE\C\MSXgl\projects\exsoccer/exsoccer_s3_b1.c
    00000AAC DD F9            [10] 2853 	ld	sp, ix
    00000AAE DD E1            [14] 2854 	pop	ix
    00000AB0 C9               [10] 2855 	ret
    00000AB1                       2856 ___str_1:
    00000AB1 41 55 53              2857 	.ascii "AUS"
    00000AB4 00                    2858 	.db 0x00
    00000AB5                       2859 ___str_2:
    00000AB5 42 52 41              2860 	.ascii "BRA"
    00000AB8 00                    2861 	.db 0x00
    00000AB9                       2862 ___str_3:
    00000AB9 49 54 41              2863 	.ascii "ITA"
    00000ABC 00                    2864 	.db 0x00
    00000ABD                       2865 ___str_4:
    00000ABD 47 42 52              2866 	.ascii "GBR"
    00000AC0 00                    2867 	.db 0x00
    00000AC1                       2868 ___str_5:
    00000AC1 47 45 52              2869 	.ascii "GER"
    00000AC4 00                    2870 	.db 0x00
    00000AC5                       2871 ___str_6:
    00000AC5 46 52 41              2872 	.ascii "FRA"
    00000AC8 00                    2873 	.db 0x00
    00000AC9                       2874 ___str_7:
    00000AC9 2D                    2875 	.ascii "-"
    00000ACA 00                    2876 	.db 0x00
    00000ACB                       2877 ___str_8:
    00000ACB 3A                    2878 	.ascii ":"
    00000ACC 00                    2879 	.db 0x00
    00000ACD                       2880 ___str_9:
    00000ACD 30                    2881 	.ascii "0"
    00000ACE 00                    2882 	.db 0x00
                                   2883 ;E:\Dropbox\FAUSTO\SVILUPPI\MSX\CODE\C\MSXgl\projects\exsoccer/exsoccer_s3_b1.c:622: ERROR: no line number 622 in file E:\Dropbox\FAUSTO\SVILUPPI\MSX\CODE\C\MSXgl\projects\exsoccer/exsoccer_s3_b1.c
                                   2884 ;	---------------------------------
                                   2885 ; Function SetTeam1Palette
                                   2886 ; ---------------------------------
    00000ACF                       2887 _SetTeam1Palette::
                                   2888 ;E:\Dropbox\FAUSTO\SVILUPPI\MSX\CODE\C\MSXgl\projects\exsoccer/exsoccer_s3_b1.c:623: ERROR: no line number 623 in file E:\Dropbox\FAUSTO\SVILUPPI\MSX\CODE\C\MSXgl\projects\exsoccer/exsoccer_s3_b1.c
    00000ACF 3Ar00r00         [13] 2889 	ld	a, (_g_Team1PaletteId+0)
    00000AD2 CDr29r0B         [17] 2890 	call	_GetTeamPaletteById
    00000AD5 EB               [ 4] 2891 	ex	de, hl
                                   2892 ;E:\Dropbox\FAUSTO\SVILUPPI\MSX\CODE\C\MSXgl\projects\exsoccer/exsoccer_s3_b1.c:1028: ERROR: no line number 1028 in file E:\Dropbox\FAUSTO\SVILUPPI\MSX\CODE\C\MSXgl\projects\exsoccer/exsoccer_s3_b1.c
    00000AD6 01 20 00         [10] 2893 	ld	bc, #0x20
    00000AD9                       2894 00104$:
    00000AD9 78               [ 4] 2895 	ld	a, b
    00000ADA D6 10            [ 7] 2896 	sub	a, #0x10
    00000ADC D0               [11] 2897 	ret	NC
    00000ADD FD E5            [15] 2898 	push	iy
    00000ADF E3               [19] 2899 	ex	(sp), hl
    00000AE0 69               [ 4] 2900 	ld	l, c
                                   2901 ;	spillPairReg hl
                                   2902 ;	spillPairReg hl
    00000AE1 E3               [19] 2903 	ex	(sp), hl
    00000AE2 FD E1            [14] 2904 	pop	iy
    00000AE4 0C               [ 4] 2905 	inc	c
    00000AE5 E5               [11] 2906 	push	hl
    00000AE6 C5               [11] 2907 	push	bc
    00000AE7 5D               [ 4] 2908 	ld	e, l
    00000AE8 54               [ 4] 2909 	ld	d, h
    00000AE9 FD E5            [15] 2910 	push	iy
    00000AEB E3               [19] 2911 	ex	(sp), hl
    00000AEC 7D               [ 4] 2912 	ld	a, l
    00000AED E3               [19] 2913 	ex	(sp), hl
    00000AEE FD E1            [14] 2914 	pop	iy
    00000AF0 CDr00r00         [17] 2915 	call	_V9_SetPaletteEntry
    00000AF3 C1               [10] 2916 	pop	bc
    00000AF4 E1               [10] 2917 	pop	hl
    00000AF5 23               [ 6] 2918 	inc	hl
    00000AF6 23               [ 6] 2919 	inc	hl
    00000AF7 23               [ 6] 2920 	inc	hl
    00000AF8 04               [ 4] 2921 	inc	b
                                   2922 ;E:\Dropbox\FAUSTO\SVILUPPI\MSX\CODE\C\MSXgl\projects\exsoccer/exsoccer_s3_b1.c:623: ERROR: no line number 623 in file E:\Dropbox\FAUSTO\SVILUPPI\MSX\CODE\C\MSXgl\projects\exsoccer/exsoccer_s3_b1.c
                                   2923 ;E:\Dropbox\FAUSTO\SVILUPPI\MSX\CODE\C\MSXgl\projects\exsoccer/exsoccer_s3_b1.c:624: ERROR: no line number 624 in file E:\Dropbox\FAUSTO\SVILUPPI\MSX\CODE\C\MSXgl\projects\exsoccer/exsoccer_s3_b1.c
    00000AF9 C3rD9r0A         [10] 2924 	jp	00104$
                                   2925 ;E:\Dropbox\FAUSTO\SVILUPPI\MSX\CODE\C\MSXgl\projects\exsoccer/exsoccer_s3_b1.c:625: ERROR: no line number 625 in file E:\Dropbox\FAUSTO\SVILUPPI\MSX\CODE\C\MSXgl\projects\exsoccer/exsoccer_s3_b1.c
                                   2926 ;	---------------------------------
                                   2927 ; Function SetTeam2Palette
                                   2928 ; ---------------------------------
    00000AFC                       2929 _SetTeam2Palette::
                                   2930 ;E:\Dropbox\FAUSTO\SVILUPPI\MSX\CODE\C\MSXgl\projects\exsoccer/exsoccer_s3_b1.c:626: ERROR: no line number 626 in file E:\Dropbox\FAUSTO\SVILUPPI\MSX\CODE\C\MSXgl\projects\exsoccer/exsoccer_s3_b1.c
    00000AFC 3Ar00r00         [13] 2931 	ld	a, (_g_Team2PaletteId+0)
    00000AFF CDr29r0B         [17] 2932 	call	_GetTeamPaletteById
    00000B02 EB               [ 4] 2933 	ex	de, hl
                                   2934 ;E:\Dropbox\FAUSTO\SVILUPPI\MSX\CODE\C\MSXgl\projects\exsoccer/exsoccer_s3_b1.c:1028: ERROR: no line number 1028 in file E:\Dropbox\FAUSTO\SVILUPPI\MSX\CODE\C\MSXgl\projects\exsoccer/exsoccer_s3_b1.c
    00000B03 01 30 00         [10] 2935 	ld	bc, #0x30
    00000B06                       2936 00104$:
    00000B06 78               [ 4] 2937 	ld	a, b
    00000B07 D6 10            [ 7] 2938 	sub	a, #0x10
    00000B09 D0               [11] 2939 	ret	NC
    00000B0A FD E5            [15] 2940 	push	iy
    00000B0C E3               [19] 2941 	ex	(sp), hl
    00000B0D 69               [ 4] 2942 	ld	l, c
                                   2943 ;	spillPairReg hl
                                   2944 ;	spillPairReg hl
    00000B0E E3               [19] 2945 	ex	(sp), hl
    00000B0F FD E1            [14] 2946 	pop	iy
    00000B11 0C               [ 4] 2947 	inc	c
    00000B12 E5               [11] 2948 	push	hl
    00000B13 C5               [11] 2949 	push	bc
    00000B14 5D               [ 4] 2950 	ld	e, l
    00000B15 54               [ 4] 2951 	ld	d, h
    00000B16 FD E5            [15] 2952 	push	iy
    00000B18 E3               [19] 2953 	ex	(sp), hl
    00000B19 7D               [ 4] 2954 	ld	a, l
    00000B1A E3               [19] 2955 	ex	(sp), hl
    00000B1B FD E1            [14] 2956 	pop	iy
    00000B1D CDr00r00         [17] 2957 	call	_V9_SetPaletteEntry
    00000B20 C1               [10] 2958 	pop	bc
    00000B21 E1               [10] 2959 	pop	hl
    00000B22 23               [ 6] 2960 	inc	hl
    00000B23 23               [ 6] 2961 	inc	hl
    00000B24 23               [ 6] 2962 	inc	hl
    00000B25 04               [ 4] 2963 	inc	b
                                   2964 ;E:\Dropbox\FAUSTO\SVILUPPI\MSX\CODE\C\MSXgl\projects\exsoccer/exsoccer_s3_b1.c:626: ERROR: no line number 626 in file E:\Dropbox\FAUSTO\SVILUPPI\MSX\CODE\C\MSXgl\projects\exsoccer/exsoccer_s3_b1.c
                                   2965 ;E:\Dropbox\FAUSTO\SVILUPPI\MSX\CODE\C\MSXgl\projects\exsoccer/exsoccer_s3_b1.c:627: ERROR: no line number 627 in file E:\Dropbox\FAUSTO\SVILUPPI\MSX\CODE\C\MSXgl\projects\exsoccer/exsoccer_s3_b1.c
    00000B26 C3r06r0B         [10] 2966 	jp	00104$
                                   2967 ;E:\Dropbox\FAUSTO\SVILUPPI\MSX\CODE\C\MSXgl\projects\exsoccer/exsoccer_s3_b1.c:628: ERROR: no line number 628 in file E:\Dropbox\FAUSTO\SVILUPPI\MSX\CODE\C\MSXgl\projects\exsoccer/exsoccer_s3_b1.c
                                   2968 ;	---------------------------------
                                   2969 ; Function GetTeamPaletteById
                                   2970 ; ---------------------------------
    00000B29                       2971 _GetTeamPaletteById::
    00000B29 4F               [ 4] 2972 	ld	c, a
                                   2973 ;E:\Dropbox\FAUSTO\SVILUPPI\MSX\CODE\C\MSXgl\projects\exsoccer/exsoccer_s3_b1.c:629: ERROR: no line number 629 in file E:\Dropbox\FAUSTO\SVILUPPI\MSX\CODE\C\MSXgl\projects\exsoccer/exsoccer_s3_b1.c
    00000B2A 11r8Br00         [10] 2974 	ld	de, #_g_Sprites1_palette_ita
                                   2975 ;E:\Dropbox\FAUSTO\SVILUPPI\MSX\CODE\C\MSXgl\projects\exsoccer/exsoccer_s3_b1.c:630: ERROR: no line number 630 in file E:\Dropbox\FAUSTO\SVILUPPI\MSX\CODE\C\MSXgl\projects\exsoccer/exsoccer_s3_b1.c
    00000B2D 3E 05            [ 7] 2976 	ld	a, #0x05
    00000B2F 91               [ 4] 2977 	sub	a, c
    00000B30 D8               [11] 2978 	ret	C
    00000B31 06 00            [ 7] 2979 	ld	b, #0x00
    00000B33 21r3Ar0B         [10] 2980 	ld	hl, #00115$
    00000B36 09               [11] 2981 	add	hl, bc
    00000B37 09               [11] 2982 	add	hl, bc
    00000B38 09               [11] 2983 	add	hl, bc
    00000B39 E9               [ 4] 2984 	jp	(hl)
    00000B3A                       2985 00115$:
    00000B3A C3r4Cr0B         [10] 2986 	jp	00101$
    00000B3D C3r50r0B         [10] 2987 	jp	00102$
    00000B40 C3r54r0B         [10] 2988 	jp	00103$
    00000B43 C3r60r0B         [10] 2989 	jp	00106$
    00000B46 C3r58r0B         [10] 2990 	jp	00104$
    00000B49 C3r5Cr0B         [10] 2991 	jp	00105$
                                   2992 ;E:\Dropbox\FAUSTO\SVILUPPI\MSX\CODE\C\MSXgl\projects\exsoccer/exsoccer_s3_b1.c:631: ERROR: no line number 631 in file E:\Dropbox\FAUSTO\SVILUPPI\MSX\CODE\C\MSXgl\projects\exsoccer/exsoccer_s3_b1.c
    00000B4C                       2993 00101$:
                                   2994 ;E:\Dropbox\FAUSTO\SVILUPPI\MSX\CODE\C\MSXgl\projects\exsoccer/exsoccer_s3_b1.c:632: ERROR: no line number 632 in file E:\Dropbox\FAUSTO\SVILUPPI\MSX\CODE\C\MSXgl\projects\exsoccer/exsoccer_s3_b1.c
    00000B4C 11rBBr00         [10] 2995 	ld	de, #_g_Sprites1_palette_aus
                                   2996 ;E:\Dropbox\FAUSTO\SVILUPPI\MSX\CODE\C\MSXgl\projects\exsoccer/exsoccer_s3_b1.c:633: ERROR: no line number 633 in file E:\Dropbox\FAUSTO\SVILUPPI\MSX\CODE\C\MSXgl\projects\exsoccer/exsoccer_s3_b1.c
    00000B4F C9               [10] 2997 	ret
                                   2998 ;E:\Dropbox\FAUSTO\SVILUPPI\MSX\CODE\C\MSXgl\projects\exsoccer/exsoccer_s3_b1.c:634: ERROR: no line number 634 in file E:\Dropbox\FAUSTO\SVILUPPI\MSX\CODE\C\MSXgl\projects\exsoccer/exsoccer_s3_b1.c
    00000B50                       2999 00102$:
                                   3000 ;E:\Dropbox\FAUSTO\SVILUPPI\MSX\CODE\C\MSXgl\projects\exsoccer/exsoccer_s3_b1.c:635: ERROR: no line number 635 in file E:\Dropbox\FAUSTO\SVILUPPI\MSX\CODE\C\MSXgl\projects\exsoccer/exsoccer_s3_b1.c
    00000B50 11r7Br01         [10] 3001 	ld	de, #_g_Sprites1_palette_bra
                                   3002 ;E:\Dropbox\FAUSTO\SVILUPPI\MSX\CODE\C\MSXgl\projects\exsoccer/exsoccer_s3_b1.c:636: ERROR: no line number 636 in file E:\Dropbox\FAUSTO\SVILUPPI\MSX\CODE\C\MSXgl\projects\exsoccer/exsoccer_s3_b1.c
    00000B53 C9               [10] 3003 	ret
                                   3004 ;E:\Dropbox\FAUSTO\SVILUPPI\MSX\CODE\C\MSXgl\projects\exsoccer/exsoccer_s3_b1.c:637: ERROR: no line number 637 in file E:\Dropbox\FAUSTO\SVILUPPI\MSX\CODE\C\MSXgl\projects\exsoccer/exsoccer_s3_b1.c
    00000B54                       3005 00103$:
                                   3006 ;E:\Dropbox\FAUSTO\SVILUPPI\MSX\CODE\C\MSXgl\projects\exsoccer/exsoccer_s3_b1.c:638: ERROR: no line number 638 in file E:\Dropbox\FAUSTO\SVILUPPI\MSX\CODE\C\MSXgl\projects\exsoccer/exsoccer_s3_b1.c
    00000B54 11r8Br00         [10] 3007 	ld	de, #_g_Sprites1_palette_ita
                                   3008 ;E:\Dropbox\FAUSTO\SVILUPPI\MSX\CODE\C\MSXgl\projects\exsoccer/exsoccer_s3_b1.c:639: ERROR: no line number 639 in file E:\Dropbox\FAUSTO\SVILUPPI\MSX\CODE\C\MSXgl\projects\exsoccer/exsoccer_s3_b1.c
    00000B57 C9               [10] 3009 	ret
                                   3010 ;E:\Dropbox\FAUSTO\SVILUPPI\MSX\CODE\C\MSXgl\projects\exsoccer/exsoccer_s3_b1.c:640: ERROR: no line number 640 in file E:\Dropbox\FAUSTO\SVILUPPI\MSX\CODE\C\MSXgl\projects\exsoccer/exsoccer_s3_b1.c
    00000B58                       3011 00104$:
                                   3012 ;E:\Dropbox\FAUSTO\SVILUPPI\MSX\CODE\C\MSXgl\projects\exsoccer/exsoccer_s3_b1.c:641: ERROR: no line number 641 in file E:\Dropbox\FAUSTO\SVILUPPI\MSX\CODE\C\MSXgl\projects\exsoccer/exsoccer_s3_b1.c
    00000B58 11r4Br01         [10] 3013 	ld	de, #_g_Sprites1_palette_gbr
                                   3014 ;E:\Dropbox\FAUSTO\SVILUPPI\MSX\CODE\C\MSXgl\projects\exsoccer/exsoccer_s3_b1.c:642: ERROR: no line number 642 in file E:\Dropbox\FAUSTO\SVILUPPI\MSX\CODE\C\MSXgl\projects\exsoccer/exsoccer_s3_b1.c
    00000B5B C9               [10] 3015 	ret
                                   3016 ;E:\Dropbox\FAUSTO\SVILUPPI\MSX\CODE\C\MSXgl\projects\exsoccer/exsoccer_s3_b1.c:643: ERROR: no line number 643 in file E:\Dropbox\FAUSTO\SVILUPPI\MSX\CODE\C\MSXgl\projects\exsoccer/exsoccer_s3_b1.c
    00000B5C                       3017 00105$:
                                   3018 ;E:\Dropbox\FAUSTO\SVILUPPI\MSX\CODE\C\MSXgl\projects\exsoccer/exsoccer_s3_b1.c:644: ERROR: no line number 644 in file E:\Dropbox\FAUSTO\SVILUPPI\MSX\CODE\C\MSXgl\projects\exsoccer/exsoccer_s3_b1.c
    00000B5C 11r1Br01         [10] 3019 	ld	de, #_g_Sprites1_palette_ger
                                   3020 ;E:\Dropbox\FAUSTO\SVILUPPI\MSX\CODE\C\MSXgl\projects\exsoccer/exsoccer_s3_b1.c:645: ERROR: no line number 645 in file E:\Dropbox\FAUSTO\SVILUPPI\MSX\CODE\C\MSXgl\projects\exsoccer/exsoccer_s3_b1.c
    00000B5F C9               [10] 3021 	ret
                                   3022 ;E:\Dropbox\FAUSTO\SVILUPPI\MSX\CODE\C\MSXgl\projects\exsoccer/exsoccer_s3_b1.c:646: ERROR: no line number 646 in file E:\Dropbox\FAUSTO\SVILUPPI\MSX\CODE\C\MSXgl\projects\exsoccer/exsoccer_s3_b1.c
    00000B60                       3023 00106$:
                                   3024 ;E:\Dropbox\FAUSTO\SVILUPPI\MSX\CODE\C\MSXgl\projects\exsoccer/exsoccer_s3_b1.c:647: ERROR: no line number 647 in file E:\Dropbox\FAUSTO\SVILUPPI\MSX\CODE\C\MSXgl\projects\exsoccer/exsoccer_s3_b1.c
    00000B60 11rEBr00         [10] 3025 	ld	de, #_g_Sprites1_palette_fra
                                   3026 ;E:\Dropbox\FAUSTO\SVILUPPI\MSX\CODE\C\MSXgl\projects\exsoccer/exsoccer_s3_b1.c:649: ERROR: no line number 649 in file E:\Dropbox\FAUSTO\SVILUPPI\MSX\CODE\C\MSXgl\projects\exsoccer/exsoccer_s3_b1.c
                                   3027 ;E:\Dropbox\FAUSTO\SVILUPPI\MSX\CODE\C\MSXgl\projects\exsoccer/exsoccer_s3_b1.c:650: ERROR: no line number 650 in file E:\Dropbox\FAUSTO\SVILUPPI\MSX\CODE\C\MSXgl\projects\exsoccer/exsoccer_s3_b1.c
                                   3028 ;E:\Dropbox\FAUSTO\SVILUPPI\MSX\CODE\C\MSXgl\projects\exsoccer/exsoccer_s3_b1.c:651: ERROR: no line number 651 in file E:\Dropbox\FAUSTO\SVILUPPI\MSX\CODE\C\MSXgl\projects\exsoccer/exsoccer_s3_b1.c
    00000B63 C9               [10] 3029 	ret
                                   3030 ;E:\Dropbox\FAUSTO\SVILUPPI\MSX\CODE\C\MSXgl\projects\exsoccer/exsoccer_s3_b1.c:653: ERROR: no line number 653 in file E:\Dropbox\FAUSTO\SVILUPPI\MSX\CODE\C\MSXgl\projects\exsoccer/exsoccer_s3_b1.c
                                   3031 ;	---------------------------------
                                   3032 ; Function V9_PutLayerATileAtPos
                                   3033 ; ---------------------------------
    00000B64                       3034 _V9_PutLayerATileAtPos::
    00000B64 DD E5            [15] 3035 	push	ix
    00000B66 DD 21 00 00      [14] 3036 	ld	ix,#0
    00000B6A DD 39            [15] 3037 	add	ix,sp
    00000B6C 5F               [ 4] 3038 	ld	e, a
                                   3039 ;E:\Dropbox\FAUSTO\SVILUPPI\MSX\CODE\C\MSXgl\projects\exsoccer/exsoccer_s3_b1.c:654: ERROR: no line number 654 in file E:\Dropbox\FAUSTO\SVILUPPI\MSX\CODE\C\MSXgl\projects\exsoccer/exsoccer_s3_b1.c
    00000B6D DD 4E 04         [19] 3040 	ld	c, 4 (ix)
    00000B70 DD 46 05         [19] 3041 	ld	b, 5 (ix)
                                   3042 ;E:/Dropbox/FAUSTO/SVILUPPI/MSX/CODE/C/MSXgl/engine/src/v9990.h:1426: ERROR: no line number 1426 in file E:/Dropbox/FAUSTO/SVILUPPI/MSX/CODE/C/MSXgl/engine/src/v9990.h
    00000B73 26 00            [ 7] 3043 	ld	h, #0x00
                                   3044 ;	spillPairReg hl
                                   3045 ;	spillPairReg hl
    00000B75 29               [11] 3046 	add	hl, hl
    00000B76 29               [11] 3047 	add	hl, hl
    00000B77 29               [11] 3048 	add	hl, hl
    00000B78 29               [11] 3049 	add	hl, hl
    00000B79 29               [11] 3050 	add	hl, hl
    00000B7A 29               [11] 3051 	add	hl, hl
    00000B7B 16 00            [ 7] 3052 	ld	d, #0x00
    00000B7D 19               [11] 3053 	add	hl, de
    00000B7E 29               [11] 3054 	add	hl, hl
    00000B7F 7C               [ 4] 3055 	ld	a, h
    00000B80 07               [ 4] 3056 	rlca
    00000B81 9F               [ 4] 3057 	sbc	a, a
    00000B82 5F               [ 4] 3058 	ld	e, a
    00000B83 57               [ 4] 3059 	ld	d, a
    00000B84 7C               [ 4] 3060 	ld	a, h
    00000B85 C6 C0            [ 7] 3061 	add	a, #0xc0
    00000B87 67               [ 4] 3062 	ld	h, a
                                   3063 ;	spillPairReg hl
                                   3064 ;	spillPairReg hl
    00000B88 7B               [ 4] 3065 	ld	a, e
    00000B89 CE 07            [ 7] 3066 	adc	a, #0x07
    00000B8B 5F               [ 4] 3067 	ld	e, a
    00000B8C 30 01            [12] 3068 	jr	NC, 00105$
    00000B8E 14               [ 4] 3069 	inc	d
    00000B8F                       3070 00105$:
                                   3071 ;E:/Dropbox/FAUSTO/SVILUPPI/MSX/CODE/C/MSXgl/engine/src/v9990.h:396: ERROR: no line number 396 in file E:/Dropbox/FAUSTO/SVILUPPI/MSX/CODE/C/MSXgl/engine/src/v9990.h
    00000B8F C5               [11] 3072 	push	bc
    00000B90 EB               [ 4] 3073 	ex	de, hl
    00000B91 CDr00r00         [17] 3074 	call	_V9_SetWriteAddress
    00000B94 C1               [10] 3075 	pop	bc
    00000B95 69               [ 4] 3076 	ld	l, c
                                   3077 ;	spillPairReg hl
                                   3078 ;	spillPairReg hl
    00000B96 60               [ 4] 3079 	ld	h, b
                                   3080 ;	spillPairReg hl
                                   3081 ;	spillPairReg hl
    00000B97 CDr00r00         [17] 3082 	call	_V9_Poke16_CurrentAddr
                                   3083 ;E:\Dropbox\FAUSTO\SVILUPPI\MSX\CODE\C\MSXgl\projects\exsoccer/exsoccer_s3_b1.c:654: ERROR: no line number 654 in file E:\Dropbox\FAUSTO\SVILUPPI\MSX\CODE\C\MSXgl\projects\exsoccer/exsoccer_s3_b1.c
                                   3084 ;E:\Dropbox\FAUSTO\SVILUPPI\MSX\CODE\C\MSXgl\projects\exsoccer/exsoccer_s3_b1.c:655: ERROR: no line number 655 in file E:\Dropbox\FAUSTO\SVILUPPI\MSX\CODE\C\MSXgl\projects\exsoccer/exsoccer_s3_b1.c
    00000B9A DD E1            [14] 3085 	pop	ix
    00000B9C E1               [10] 3086 	pop	hl
    00000B9D F1               [10] 3087 	pop	af
    00000B9E E9               [ 4] 3088 	jp	(hl)
                                   3089 ;E:\Dropbox\FAUSTO\SVILUPPI\MSX\CODE\C\MSXgl\projects\exsoccer/exsoccer_s3_b1.c:656: ERROR: no line number 656 in file E:\Dropbox\FAUSTO\SVILUPPI\MSX\CODE\C\MSXgl\projects\exsoccer/exsoccer_s3_b1.c
                                   3090 ;	---------------------------------
                                   3091 ; Function V9_PutLayerBTileAtPos
                                   3092 ; ---------------------------------
    00000B9F                       3093 _V9_PutLayerBTileAtPos::
    00000B9F DD E5            [15] 3094 	push	ix
    00000BA1 DD 21 00 00      [14] 3095 	ld	ix,#0
    00000BA5 DD 39            [15] 3096 	add	ix,sp
    00000BA7 5F               [ 4] 3097 	ld	e, a
                                   3098 ;E:\Dropbox\FAUSTO\SVILUPPI\MSX\CODE\C\MSXgl\projects\exsoccer/exsoccer_s3_b1.c:657: ERROR: no line number 657 in file E:\Dropbox\FAUSTO\SVILUPPI\MSX\CODE\C\MSXgl\projects\exsoccer/exsoccer_s3_b1.c
    00000BA8 DD 4E 04         [19] 3099 	ld	c, 4 (ix)
    00000BAB DD 46 05         [19] 3100 	ld	b, 5 (ix)
                                   3101 ;E:/Dropbox/FAUSTO/SVILUPPI/MSX/CODE/C/MSXgl/engine/src/v9990.h:1437: ERROR: no line number 1437 in file E:/Dropbox/FAUSTO/SVILUPPI/MSX/CODE/C/MSXgl/engine/src/v9990.h
    00000BAE 26 00            [ 7] 3102 	ld	h, #0x00
                                   3103 ;	spillPairReg hl
                                   3104 ;	spillPairReg hl
    00000BB0 29               [11] 3105 	add	hl, hl
    00000BB1 29               [11] 3106 	add	hl, hl
    00000BB2 29               [11] 3107 	add	hl, hl
    00000BB3 29               [11] 3108 	add	hl, hl
    00000BB4 29               [11] 3109 	add	hl, hl
    00000BB5 29               [11] 3110 	add	hl, hl
    00000BB6 16 00            [ 7] 3111 	ld	d, #0x00
    00000BB8 19               [11] 3112 	add	hl, de
    00000BB9 29               [11] 3113 	add	hl, hl
    00000BBA 7C               [ 4] 3114 	ld	a, h
    00000BBB 07               [ 4] 3115 	rlca
    00000BBC 9F               [ 4] 3116 	sbc	a, a
    00000BBD 5F               [ 4] 3117 	ld	e, a
    00000BBE 57               [ 4] 3118 	ld	d, a
    00000BBF 7C               [ 4] 3119 	ld	a, h
    00000BC0 C6 E0            [ 7] 3120 	add	a, #0xe0
    00000BC2 67               [ 4] 3121 	ld	h, a
                                   3122 ;	spillPairReg hl
                                   3123 ;	spillPairReg hl
    00000BC3 7B               [ 4] 3124 	ld	a, e
    00000BC4 CE 07            [ 7] 3125 	adc	a, #0x07
    00000BC6 5F               [ 4] 3126 	ld	e, a
    00000BC7 30 01            [12] 3127 	jr	NC, 00105$
    00000BC9 14               [ 4] 3128 	inc	d
    00000BCA                       3129 00105$:
                                   3130 ;E:/Dropbox/FAUSTO/SVILUPPI/MSX/CODE/C/MSXgl/engine/src/v9990.h:396: ERROR: no line number 396 in file E:/Dropbox/FAUSTO/SVILUPPI/MSX/CODE/C/MSXgl/engine/src/v9990.h
    00000BCA C5               [11] 3131 	push	bc
    00000BCB EB               [ 4] 3132 	ex	de, hl
    00000BCC CDr00r00         [17] 3133 	call	_V9_SetWriteAddress
    00000BCF C1               [10] 3134 	pop	bc
    00000BD0 69               [ 4] 3135 	ld	l, c
                                   3136 ;	spillPairReg hl
                                   3137 ;	spillPairReg hl
    00000BD1 60               [ 4] 3138 	ld	h, b
                                   3139 ;	spillPairReg hl
                                   3140 ;	spillPairReg hl
    00000BD2 CDr00r00         [17] 3141 	call	_V9_Poke16_CurrentAddr
                                   3142 ;E:\Dropbox\FAUSTO\SVILUPPI\MSX\CODE\C\MSXgl\projects\exsoccer/exsoccer_s3_b1.c:657: ERROR: no line number 657 in file E:\Dropbox\FAUSTO\SVILUPPI\MSX\CODE\C\MSXgl\projects\exsoccer/exsoccer_s3_b1.c
                                   3143 ;E:\Dropbox\FAUSTO\SVILUPPI\MSX\CODE\C\MSXgl\projects\exsoccer/exsoccer_s3_b1.c:658: ERROR: no line number 658 in file E:\Dropbox\FAUSTO\SVILUPPI\MSX\CODE\C\MSXgl\projects\exsoccer/exsoccer_s3_b1.c
    00000BD5 DD E1            [14] 3144 	pop	ix
    00000BD7 E1               [10] 3145 	pop	hl
    00000BD8 F1               [10] 3146 	pop	af
    00000BD9 E9               [ 4] 3147 	jp	(hl)
                                   3148 ;E:\Dropbox\FAUSTO\SVILUPPI\MSX\CODE\C\MSXgl\projects\exsoccer/exsoccer_s3_b1.c:659: ERROR: no line number 659 in file E:\Dropbox\FAUSTO\SVILUPPI\MSX\CODE\C\MSXgl\projects\exsoccer/exsoccer_s3_b1.c
                                   3149 ;	---------------------------------
                                   3150 ; Function PutPlayerSprite
                                   3151 ; ---------------------------------
    00000BDA                       3152 _PutPlayerSprite::
    00000BDA DD E5            [15] 3153 	push	ix
    00000BDC DD 21 00 00      [14] 3154 	ld	ix,#0
    00000BE0 DD 39            [15] 3155 	add	ix,sp
    00000BE2 21 F6 FF         [10] 3156 	ld	hl, #-10
    00000BE5 39               [11] 3157 	add	hl, sp
    00000BE6 F9               [ 6] 3158 	ld	sp, hl
    00000BE7 4F               [ 4] 3159 	ld	c, a
                                   3160 ;E:\Dropbox\FAUSTO\SVILUPPI\MSX\CODE\C\MSXgl\projects\exsoccer/exsoccer_s3_b1.c:661: ERROR: no line number 661 in file E:\Dropbox\FAUSTO\SVILUPPI\MSX\CODE\C\MSXgl\projects\exsoccer/exsoccer_s3_b1.c
    00000BE8 21 03 00         [10] 3161 	ld	hl, #3
    00000BEB 39               [11] 3162 	add	hl, sp
    00000BEC CB A6            [15] 3163 	res	4, (hl)
                                   3164 ;E:\Dropbox\FAUSTO\SVILUPPI\MSX\CODE\C\MSXgl\projects\exsoccer/exsoccer_s3_b1.c:662: ERROR: no line number 662 in file E:\Dropbox\FAUSTO\SVILUPPI\MSX\CODE\C\MSXgl\projects\exsoccer/exsoccer_s3_b1.c
    00000BEE 21 03 00         [10] 3165 	ld	hl, #3
    00000BF1 39               [11] 3166 	add	hl, sp
    00000BF2 7E               [ 7] 3167 	ld	a, (hl)
    00000BF3 E6 3F            [ 7] 3168 	and	a, #0x3f
    00000BF5 F6 80            [ 7] 3169 	or	a, #0x80
    00000BF7 77               [ 7] 3170 	ld	(hl), a
                                   3171 ;E:\Dropbox\FAUSTO\SVILUPPI\MSX\CODE\C\MSXgl\projects\exsoccer/exsoccer_s3_b1.c:663: ERROR: no line number 663 in file E:\Dropbox\FAUSTO\SVILUPPI\MSX\CODE\C\MSXgl\projects\exsoccer/exsoccer_s3_b1.c
    00000BF8 2Ar00r00         [16] 3172 	ld	hl, (_g_FieldCurrentYPosition)
    00000BFB 11 10 00         [10] 3173 	ld	de, #0x0010
    00000BFE 19               [11] 3174 	add	hl, de
    00000BFF DD 75 FA         [19] 3175 	ld	-6 (ix), l
    00000C02 DD 74 FB         [19] 3176 	ld	-5 (ix), h
                                   3177 ;E:\Dropbox\FAUSTO\SVILUPPI\MSX\CODE\C\MSXgl\projects\exsoccer/exsoccer_s3_b1.c:664: ERROR: no line number 664 in file E:\Dropbox\FAUSTO\SVILUPPI\MSX\CODE\C\MSXgl\projects\exsoccer/exsoccer_s3_b1.c
    00000C05 2Ar00r00         [16] 3178 	ld	hl, (_g_FieldCurrentYPosition)
    00000C08 11 EB 00         [10] 3179 	ld	de, #0x00eb
    00000C0B 19               [11] 3180 	add	hl, de
    00000C0C DD 75 FC         [19] 3181 	ld	-4 (ix), l
    00000C0F DD 74 FD         [19] 3182 	ld	-3 (ix), h
                                   3183 ;E:\Dropbox\FAUSTO\SVILUPPI\MSX\CODE\C\MSXgl\projects\exsoccer/exsoccer_s3_b1.c:666: ERROR: no line number 666 in file E:\Dropbox\FAUSTO\SVILUPPI\MSX\CODE\C\MSXgl\projects\exsoccer/exsoccer_s3_b1.c
    00000C12 11r00r00         [10] 3184 	ld	de, #_g_Players+0
    00000C15 DD 71 FE         [19] 3185 	ld	-2 (ix), c
    00000C18 DD 36 FF 00      [19] 3186 	ld	-1 (ix), #0x00
    00000C1C 69               [ 4] 3187 	ld	l, c
    00000C1D 26 00            [ 7] 3188 	ld	h, #0x00
    00000C1F 29               [11] 3189 	add	hl, hl
    00000C20 29               [11] 3190 	add	hl, hl
    00000C21 29               [11] 3191 	add	hl, hl
    00000C22 29               [11] 3192 	add	hl, hl
    00000C23 19               [11] 3193 	add	hl, de
    00000C24 EB               [ 4] 3194 	ex	de, hl
    00000C25 1A               [ 7] 3195 	ld	a, (de)
    00000C26 21r00r00         [10] 3196 	ld	hl, #_g_FieldCurrentYPosition
    00000C29 6E               [ 7] 3197 	ld	l, (hl)
                                   3198 ;	spillPairReg hl
                                   3199 ;	spillPairReg hl
    00000C2A 95               [ 4] 3200 	sub	a, l
    00000C2B DD 77 F6         [19] 3201 	ld	-10 (ix), a
                                   3202 ;E:\Dropbox\FAUSTO\SVILUPPI\MSX\CODE\C\MSXgl\projects\exsoccer/exsoccer_s3_b1.c:667: ERROR: no line number 667 in file E:\Dropbox\FAUSTO\SVILUPPI\MSX\CODE\C\MSXgl\projects\exsoccer/exsoccer_s3_b1.c
    00000C2E FD 21 05 00      [14] 3203 	ld	iy, #0x0005
    00000C32 FD 19            [15] 3204 	add	iy, de
    00000C34 FD 7E 00         [19] 3205 	ld	a, 0 (iy)
    00000C37 3D               [ 4] 3206 	dec	a
    00000C38 20 08            [12] 3207 	jr	NZ, 00102$
                                   3208 ;E:\Dropbox\FAUSTO\SVILUPPI\MSX\CODE\C\MSXgl\projects\exsoccer/exsoccer_s3_b1.c:668: ERROR: no line number 668 in file E:\Dropbox\FAUSTO\SVILUPPI\MSX\CODE\C\MSXgl\projects\exsoccer/exsoccer_s3_b1.c
    00000C3A 21 03 00         [10] 3209 	ld	hl, #3
    00000C3D 39               [11] 3210 	add	hl, sp
    00000C3E 7E               [ 7] 3211 	ld	a, (hl)
    00000C3F F6 C0            [ 7] 3212 	or	a, #0xc0
    00000C41 77               [ 7] 3213 	ld	(hl), a
    00000C42                       3214 00102$:
                                   3215 ;E:\Dropbox\FAUSTO\SVILUPPI\MSX\CODE\C\MSXgl\projects\exsoccer/exsoccer_s3_b1.c:670: ERROR: no line number 670 in file E:\Dropbox\FAUSTO\SVILUPPI\MSX\CODE\C\MSXgl\projects\exsoccer/exsoccer_s3_b1.c
    00000C42 6B               [ 4] 3216 	ld	l, e
                                   3217 ;	spillPairReg hl
                                   3218 ;	spillPairReg hl
    00000C43 62               [ 4] 3219 	ld	h, d
                                   3220 ;	spillPairReg hl
                                   3221 ;	spillPairReg hl
    00000C44 C5               [11] 3222 	push	bc
    00000C45 01 09 00         [10] 3223 	ld	bc, #0x0009
    00000C48 09               [11] 3224 	add	hl, bc
    00000C49 C1               [10] 3225 	pop	bc
    00000C4A 7E               [ 7] 3226 	ld	a, (hl)
    00000C4B B7               [ 4] 3227 	or	a, a
    00000C4C 20 08            [12] 3228 	jr	NZ, 00104$
                                   3229 ;E:\Dropbox\FAUSTO\SVILUPPI\MSX\CODE\C\MSXgl\projects\exsoccer/exsoccer_s3_b1.c:671: ERROR: no line number 671 in file E:\Dropbox\FAUSTO\SVILUPPI\MSX\CODE\C\MSXgl\projects\exsoccer/exsoccer_s3_b1.c
    00000C4E 21 03 00         [10] 3230 	ld	hl, #3
    00000C51 39               [11] 3231 	add	hl, sp
    00000C52 7E               [ 7] 3232 	ld	a, (hl)
    00000C53 E6 3F            [ 7] 3233 	and	a, #0x3f
    00000C55 77               [ 7] 3234 	ld	(hl), a
    00000C56                       3235 00104$:
                                   3236 ;E:\Dropbox\FAUSTO\SVILUPPI\MSX\CODE\C\MSXgl\projects\exsoccer/exsoccer_s3_b1.c:673: ERROR: no line number 673 in file E:\Dropbox\FAUSTO\SVILUPPI\MSX\CODE\C\MSXgl\projects\exsoccer/exsoccer_s3_b1.c
    00000C56 FD 7E 00         [19] 3237 	ld	a, 0 (iy)
    00000C59 D6 0E            [ 7] 3238 	sub	a, #0x0e
    00000C5B 20 0A            [12] 3239 	jr	NZ, 00106$
                                   3240 ;E:\Dropbox\FAUSTO\SVILUPPI\MSX\CODE\C\MSXgl\projects\exsoccer/exsoccer_s3_b1.c:674: ERROR: no line number 674 in file E:\Dropbox\FAUSTO\SVILUPPI\MSX\CODE\C\MSXgl\projects\exsoccer/exsoccer_s3_b1.c
    00000C5D 21 03 00         [10] 3241 	ld	hl, #3
    00000C60 39               [11] 3242 	add	hl, sp
    00000C61 7E               [ 7] 3243 	ld	a, (hl)
    00000C62 E6 3F            [ 7] 3244 	and	a, #0x3f
    00000C64 F6 40            [ 7] 3245 	or	a, #0x40
    00000C66 77               [ 7] 3246 	ld	(hl), a
    00000C67                       3247 00106$:
                                   3248 ;E:\Dropbox\FAUSTO\SVILUPPI\MSX\CODE\C\MSXgl\projects\exsoccer/exsoccer_s3_b1.c:677: ERROR: no line number 677 in file E:\Dropbox\FAUSTO\SVILUPPI\MSX\CODE\C\MSXgl\projects\exsoccer/exsoccer_s3_b1.c
    00000C67 6B               [ 4] 3249 	ld	l, e
    00000C68 62               [ 4] 3250 	ld	h, d
    00000C69 46               [ 7] 3251 	ld	b, (hl)
    00000C6A 23               [ 6] 3252 	inc	hl
    00000C6B 6E               [ 7] 3253 	ld	l, (hl)
                                   3254 ;	spillPairReg hl
    00000C6C DD 7E FC         [19] 3255 	ld	a, -4 (ix)
    00000C6F 90               [ 4] 3256 	sub	a, b
    00000C70 DD 7E FD         [19] 3257 	ld	a, -3 (ix)
    00000C73 9D               [ 4] 3258 	sbc	a, l
    00000C74 30 06            [12] 3259 	jr	NC, 00108$
                                   3260 ;E:\Dropbox\FAUSTO\SVILUPPI\MSX\CODE\C\MSXgl\projects\exsoccer/exsoccer_s3_b1.c:678: ERROR: no line number 678 in file E:\Dropbox\FAUSTO\SVILUPPI\MSX\CODE\C\MSXgl\projects\exsoccer/exsoccer_s3_b1.c
    00000C76 21 03 00         [10] 3261 	ld	hl, #3
    00000C79 39               [11] 3262 	add	hl, sp
    00000C7A CB E6            [15] 3263 	set	4, (hl)
    00000C7C                       3264 00108$:
                                   3265 ;E:\Dropbox\FAUSTO\SVILUPPI\MSX\CODE\C\MSXgl\projects\exsoccer/exsoccer_s3_b1.c:680: ERROR: no line number 680 in file E:\Dropbox\FAUSTO\SVILUPPI\MSX\CODE\C\MSXgl\projects\exsoccer/exsoccer_s3_b1.c
    00000C7C 6B               [ 4] 3266 	ld	l, e
    00000C7D 62               [ 4] 3267 	ld	h, d
    00000C7E 46               [ 7] 3268 	ld	b, (hl)
    00000C7F 23               [ 6] 3269 	inc	hl
    00000C80 6E               [ 7] 3270 	ld	l, (hl)
                                   3271 ;	spillPairReg hl
    00000C81 78               [ 4] 3272 	ld	a, b
    00000C82 DD 96 FA         [19] 3273 	sub	a, -6 (ix)
    00000C85 7D               [ 4] 3274 	ld	a, l
    00000C86 DD 9E FB         [19] 3275 	sbc	a, -5 (ix)
    00000C89 30 06            [12] 3276 	jr	NC, 00110$
                                   3277 ;E:\Dropbox\FAUSTO\SVILUPPI\MSX\CODE\C\MSXgl\projects\exsoccer/exsoccer_s3_b1.c:681: ERROR: no line number 681 in file E:\Dropbox\FAUSTO\SVILUPPI\MSX\CODE\C\MSXgl\projects\exsoccer/exsoccer_s3_b1.c
    00000C8B 21 03 00         [10] 3278 	ld	hl, #3
    00000C8E 39               [11] 3279 	add	hl, sp
    00000C8F CB E6            [15] 3280 	set	4, (hl)
    00000C91                       3281 00110$:
                                   3282 ;E:\Dropbox\FAUSTO\SVILUPPI\MSX\CODE\C\MSXgl\projects\exsoccer/exsoccer_s3_b1.c:683: ERROR: no line number 683 in file E:\Dropbox\FAUSTO\SVILUPPI\MSX\CODE\C\MSXgl\projects\exsoccer/exsoccer_s3_b1.c
    00000C91 3Ar00r00         [13] 3283 	ld	a, (_g_MatchStatus+0)
    00000C94 B7               [ 4] 3284 	or	a, a
    00000C95 28 0F            [12] 3285 	jr	Z, 00112$
    00000C97 3Ar00r00         [13] 3286 	ld	a, (_g_MatchStatus+0)
    00000C9A D6 07            [ 7] 3287 	sub	a, #0x07
    00000C9C 28 08            [12] 3288 	jr	Z, 00112$
                                   3289 ;E:\Dropbox\FAUSTO\SVILUPPI\MSX\CODE\C\MSXgl\projects\exsoccer/exsoccer_s3_b1.c:684: ERROR: no line number 684 in file E:\Dropbox\FAUSTO\SVILUPPI\MSX\CODE\C\MSXgl\projects\exsoccer/exsoccer_s3_b1.c
    00000C9E C5               [11] 3290 	push	bc
    00000C9F D5               [11] 3291 	push	de
    00000CA0 79               [ 4] 3292 	ld	a, c
    00000CA1 CDr03r0D         [17] 3293 	call	_UpdatePlayerPatternByDirection
    00000CA4 D1               [10] 3294 	pop	de
    00000CA5 C1               [10] 3295 	pop	bc
    00000CA6                       3296 00112$:
                                   3297 ;E:\Dropbox\FAUSTO\SVILUPPI\MSX\CODE\C\MSXgl\projects\exsoccer/exsoccer_s3_b1.c:686: ERROR: no line number 686 in file E:\Dropbox\FAUSTO\SVILUPPI\MSX\CODE\C\MSXgl\projects\exsoccer/exsoccer_s3_b1.c
    00000CA6 D5               [11] 3298 	push	de
    00000CA7 FD E1            [14] 3299 	pop	iy
    00000CA9 FD 7E 04         [19] 3300 	ld	a, 4 (iy)
    00000CAC DD 77 F7         [19] 3301 	ld	-9 (ix), a
                                   3302 ;E:\Dropbox\FAUSTO\SVILUPPI\MSX\CODE\C\MSXgl\projects\exsoccer/exsoccer_s3_b1.c:687: ERROR: no line number 687 in file E:\Dropbox\FAUSTO\SVILUPPI\MSX\CODE\C\MSXgl\projects\exsoccer/exsoccer_s3_b1.c
    00000CAF 3Ar06r00         [13] 3303 	ld	a, (#(_g_Ball + 6) + 0)
    00000CB2 91               [ 4] 3304 	sub	a, c
    00000CB3 20 08            [12] 3305 	jr	NZ, 00115$
                                   3306 ;E:\Dropbox\FAUSTO\SVILUPPI\MSX\CODE\C\MSXgl\projects\exsoccer/exsoccer_s3_b1.c:688: ERROR: no line number 688 in file E:\Dropbox\FAUSTO\SVILUPPI\MSX\CODE\C\MSXgl\projects\exsoccer/exsoccer_s3_b1.c
    00000CB5 DD 7E F7         [19] 3307 	ld	a, -9 (ix)
    00000CB8 C6 40            [ 7] 3308 	add	a, #0x40
    00000CBA DD 77 F7         [19] 3309 	ld	-9 (ix), a
    00000CBD                       3310 00115$:
                                   3311 ;E:\Dropbox\FAUSTO\SVILUPPI\MSX\CODE\C\MSXgl\projects\exsoccer/exsoccer_s3_b1.c:690: ERROR: no line number 690 in file E:\Dropbox\FAUSTO\SVILUPPI\MSX\CODE\C\MSXgl\projects\exsoccer/exsoccer_s3_b1.c
    00000CBD EB               [ 4] 3312 	ex	de, hl
    00000CBE 23               [ 6] 3313 	inc	hl
    00000CBF 23               [ 6] 3314 	inc	hl
    00000CC0 4E               [ 7] 3315 	ld	c, (hl)
    00000CC1 23               [ 6] 3316 	inc	hl
    00000CC2 46               [ 7] 3317 	ld	b, (hl)
    00000CC3 21 02 00         [10] 3318 	ld	hl, #2
    00000CC6 39               [11] 3319 	add	hl, sp
    00000CC7 71               [ 7] 3320 	ld	(hl), c
    00000CC8 23               [ 6] 3321 	inc	hl
    00000CC9 78               [ 4] 3322 	ld	a, b
    00000CCA E6 03            [ 7] 3323 	and	a, #0x03
    00000CCC 5F               [ 4] 3324 	ld	e,a
    00000CCD 7E               [ 7] 3325 	ld	a, (hl)
    00000CCE E6 FC            [ 7] 3326 	and	a, #0xfc
    00000CD0 B3               [ 4] 3327 	or	a, e
    00000CD1 77               [ 7] 3328 	ld	(hl), a
                                   3329 ;E:\Dropbox\FAUSTO\SVILUPPI\MSX\CODE\C\MSXgl\projects\exsoccer/exsoccer_s3_b1.c:691: ERROR: no line number 691 in file E:\Dropbox\FAUSTO\SVILUPPI\MSX\CODE\C\MSXgl\projects\exsoccer/exsoccer_s3_b1.c
    00000CD2 21 03 00         [10] 3330 	ld	hl, #3
    00000CD5 39               [11] 3331 	add	hl, sp
    00000CD6 CB EE            [15] 3332 	set	5, (hl)
                                   3333 ;E:\Dropbox\FAUSTO\SVILUPPI\MSX\CODE\C\MSXgl\projects\exsoccer/exsoccer_s3_b1.c:693: ERROR: no line number 693 in file E:\Dropbox\FAUSTO\SVILUPPI\MSX\CODE\C\MSXgl\projects\exsoccer/exsoccer_s3_b1.c
                                   3334 ;E:/Dropbox/FAUSTO/SVILUPPI/MSX/CODE/C/MSXgl/engine/src/v9990.h:781: ERROR: no line number 781 in file E:/Dropbox/FAUSTO/SVILUPPI/MSX/CODE/C/MSXgl/engine/src/v9990.h
    00000CD8 DD 6E FE         [19] 3335 	ld	l, -2 (ix)
    00000CDB DD 66 FF         [19] 3336 	ld	h, -1 (ix)
    00000CDE 29               [11] 3337 	add	hl, hl
    00000CDF 29               [11] 3338 	add	hl, hl
    00000CE0 7C               [ 4] 3339 	ld	a, h
    00000CE1 07               [ 4] 3340 	rlca
    00000CE2 9F               [ 4] 3341 	sbc	a, a
    00000CE3 5F               [ 4] 3342 	ld	e, a
    00000CE4 57               [ 4] 3343 	ld	d, a
    00000CE5 7C               [ 4] 3344 	ld	a, h
    00000CE6 C6 FE            [ 7] 3345 	add	a, #0xfe
    00000CE8 67               [ 4] 3346 	ld	h, a
                                   3347 ;	spillPairReg hl
                                   3348 ;	spillPairReg hl
    00000CE9 7B               [ 4] 3349 	ld	a, e
    00000CEA CE 03            [ 7] 3350 	adc	a, #0x03
    00000CEC 5F               [ 4] 3351 	ld	e, a
    00000CED 30 01            [12] 3352 	jr	NC, 00167$
    00000CEF 14               [ 4] 3353 	inc	d
    00000CF0                       3354 00167$:
                                   3355 ;E:/Dropbox/FAUSTO/SVILUPPI/MSX/CODE/C/MSXgl/engine/src/v9990.h:371: ERROR: no line number 371 in file E:/Dropbox/FAUSTO/SVILUPPI/MSX/CODE/C/MSXgl/engine/src/v9990.h
    00000CF0 EB               [ 4] 3356 	ex	de, hl
    00000CF1 CDr00r00         [17] 3357 	call	_V9_SetWriteAddress
    00000CF4 11 04 00         [10] 3358 	ld	de, #0x0004
    00000CF7 21 00 00         [10] 3359 	ld	hl, #0
    00000CFA 39               [11] 3360 	add	hl, sp
    00000CFB CDr00r00         [17] 3361 	call	_V9_WriteVRAM_CurrentAddr
                                   3362 ;E:\Dropbox\FAUSTO\SVILUPPI\MSX\CODE\C\MSXgl\projects\exsoccer/exsoccer_s3_b1.c:693: ERROR: no line number 693 in file E:\Dropbox\FAUSTO\SVILUPPI\MSX\CODE\C\MSXgl\projects\exsoccer/exsoccer_s3_b1.c
                                   3363 ;E:\Dropbox\FAUSTO\SVILUPPI\MSX\CODE\C\MSXgl\projects\exsoccer/exsoccer_s3_b1.c:695: ERROR: no line number 695 in file E:\Dropbox\FAUSTO\SVILUPPI\MSX\CODE\C\MSXgl\projects\exsoccer/exsoccer_s3_b1.c
    00000CFE DD F9            [10] 3364 	ld	sp, ix
    00000D00 DD E1            [14] 3365 	pop	ix
    00000D02 C9               [10] 3366 	ret
                                   3367 ;E:\Dropbox\FAUSTO\SVILUPPI\MSX\CODE\C\MSXgl\projects\exsoccer/exsoccer_s3_b1.c:696: ERROR: no line number 696 in file E:\Dropbox\FAUSTO\SVILUPPI\MSX\CODE\C\MSXgl\projects\exsoccer/exsoccer_s3_b1.c
                                   3368 ;	---------------------------------
                                   3369 ; Function UpdatePlayerPatternByDirection
                                   3370 ; ---------------------------------
    00000D03                       3371 _UpdatePlayerPatternByDirection::
    00000D03 DD E5            [15] 3372 	push	ix
    00000D05 DD 21 00 00      [14] 3373 	ld	ix,#0
    00000D09 DD 39            [15] 3374 	add	ix,sp
    00000D0B F5               [11] 3375 	push	af
    00000D0C F5               [11] 3376 	push	af
    00000D0D 5F               [ 4] 3377 	ld	e, a
                                   3378 ;E:\Dropbox\FAUSTO\SVILUPPI\MSX\CODE\C\MSXgl\projects\exsoccer/exsoccer_s3_b1.c:697: ERROR: no line number 697 in file E:\Dropbox\FAUSTO\SVILUPPI\MSX\CODE\C\MSXgl\projects\exsoccer/exsoccer_s3_b1.c
    00000D0E 01r00r00         [10] 3379 	ld	bc, #_g_Players+0
    00000D11 6B               [ 4] 3380 	ld	l, e
                                   3381 ;	spillPairReg hl
                                   3382 ;	spillPairReg hl
    00000D12 26 00            [ 7] 3383 	ld	h, #0x00
                                   3384 ;	spillPairReg hl
                                   3385 ;	spillPairReg hl
    00000D14 29               [11] 3386 	add	hl, hl
    00000D15 29               [11] 3387 	add	hl, hl
    00000D16 29               [11] 3388 	add	hl, hl
    00000D17 29               [11] 3389 	add	hl, hl
    00000D18 09               [11] 3390 	add	hl, bc
    00000D19 EB               [ 4] 3391 	ex	de, hl
    00000D1A 4B               [ 4] 3392 	ld	c, e
    00000D1B 42               [ 4] 3393 	ld	b, d
    00000D1C 21 0E 00         [10] 3394 	ld	hl, #14
    00000D1F 09               [11] 3395 	add	hl, bc
    00000D20 4E               [ 7] 3396 	ld	c, (hl)
    00000D21 23               [ 6] 3397 	inc	hl
    00000D22 46               [ 7] 3398 	ld	b, (hl)
    00000D23 79               [ 4] 3399 	ld	a, c
    00000D24 D6 04            [ 7] 3400 	sub	a, #0x04
    00000D26 B0               [ 4] 3401 	or	a, b
    00000D27 28 62            [12] 3402 	jr	Z, 00113$
                                   3403 ;E:\Dropbox\FAUSTO\SVILUPPI\MSX\CODE\C\MSXgl\projects\exsoccer/exsoccer_s3_b1.c:698: ERROR: no line number 698 in file E:\Dropbox\FAUSTO\SVILUPPI\MSX\CODE\C\MSXgl\projects\exsoccer/exsoccer_s3_b1.c
    00000D29 C3r2Cr0D         [10] 3404 	jp	00102$
    00000D2C                       3405 00102$:
                                   3406 ;E:\Dropbox\FAUSTO\SVILUPPI\MSX\CODE\C\MSXgl\projects\exsoccer/exsoccer_s3_b1.c:701: ERROR: no line number 701 in file E:\Dropbox\FAUSTO\SVILUPPI\MSX\CODE\C\MSXgl\projects\exsoccer/exsoccer_s3_b1.c
    00000D2C 21 06 00         [10] 3407 	ld	hl, #0x0006
    00000D2F 19               [11] 3408 	add	hl, de
    00000D30 E3               [19] 3409 	ex	(sp), hl
    00000D31 E1               [10] 3410 	pop	hl
    00000D32 E5               [11] 3411 	push	hl
    00000D33 4E               [ 7] 3412 	ld	c, (hl)
    00000D34 D5               [11] 3413 	push	de
    00000D35 FD E1            [14] 3414 	pop	iy
    00000D37 FD 7E 07         [19] 3415 	ld	a, 7 (iy)
    00000D3A 91               [ 4] 3416 	sub	a, c
    00000D3B 28 09            [12] 3417 	jr	Z, 00107$
                                   3418 ;E:\Dropbox\FAUSTO\SVILUPPI\MSX\CODE\C\MSXgl\projects\exsoccer/exsoccer_s3_b1.c:703: ERROR: no line number 703 in file E:\Dropbox\FAUSTO\SVILUPPI\MSX\CODE\C\MSXgl\projects\exsoccer/exsoccer_s3_b1.c
    00000D3D D5               [11] 3419 	push	de
    00000D3E 79               [ 4] 3420 	ld	a, c
    00000D3F CDrC3r12         [17] 3421 	call	_GetNewPoseByDirection
    00000D42 D1               [10] 3422 	pop	de
    00000D43 C3r54r0D         [10] 3423 	jp	00108$
    00000D46                       3424 00107$:
                                   3425 ;E:\Dropbox\FAUSTO\SVILUPPI\MSX\CODE\C\MSXgl\projects\exsoccer/exsoccer_s3_b1.c:706: ERROR: no line number 706 in file E:\Dropbox\FAUSTO\SVILUPPI\MSX\CODE\C\MSXgl\projects\exsoccer/exsoccer_s3_b1.c
    00000D46 21 08 00         [10] 3426 	ld	hl, #0x0008
    00000D49 19               [11] 3427 	add	hl, de
    00000D4A 7E               [ 7] 3428 	ld	a, (hl)
                                   3429 ;E:\Dropbox\FAUSTO\SVILUPPI\MSX\CODE\C\MSXgl\projects\exsoccer/exsoccer_s3_b1.c:707: ERROR: no line number 707 in file E:\Dropbox\FAUSTO\SVILUPPI\MSX\CODE\C\MSXgl\projects\exsoccer/exsoccer_s3_b1.c
    00000D4B 3D               [ 4] 3430 	dec	a
    00000D4C 20 04            [12] 3431 	jr	NZ, 00104$
    00000D4E 77               [ 7] 3432 	ld	(hl),a
    00000D4F C3r54r0D         [10] 3433 	jp	00108$
    00000D52                       3434 00104$:
                                   3435 ;E:\Dropbox\FAUSTO\SVILUPPI\MSX\CODE\C\MSXgl\projects\exsoccer/exsoccer_s3_b1.c:710: ERROR: no line number 710 in file E:\Dropbox\FAUSTO\SVILUPPI\MSX\CODE\C\MSXgl\projects\exsoccer/exsoccer_s3_b1.c
    00000D52 36 01            [10] 3436 	ld	(hl), #0x01
    00000D54                       3437 00108$:
                                   3438 ;E:\Dropbox\FAUSTO\SVILUPPI\MSX\CODE\C\MSXgl\projects\exsoccer/exsoccer_s3_b1.c:714: ERROR: no line number 714 in file E:\Dropbox\FAUSTO\SVILUPPI\MSX\CODE\C\MSXgl\projects\exsoccer/exsoccer_s3_b1.c
    00000D54 4B               [ 4] 3439 	ld	c, e
    00000D55 42               [ 4] 3440 	ld	b, d
    00000D56 21 05 00         [10] 3441 	ld	hl, #5
    00000D59 09               [11] 3442 	add	hl, bc
    00000D5A 4E               [ 7] 3443 	ld	c, (hl)
                                   3444 ;E:\Dropbox\FAUSTO\SVILUPPI\MSX\CODE\C\MSXgl\projects\exsoccer/exsoccer_s3_b1.c:715: ERROR: no line number 715 in file E:\Dropbox\FAUSTO\SVILUPPI\MSX\CODE\C\MSXgl\projects\exsoccer/exsoccer_s3_b1.c
    00000D5B 21 04 00         [10] 3445 	ld	hl, #0x0004
    00000D5E 19               [11] 3446 	add	hl, de
    00000D5F DD 75 FE         [19] 3447 	ld	-2 (ix), l
    00000D62 DD 74 FF         [19] 3448 	ld	-1 (ix), h
                                   3449 ;E:\Dropbox\FAUSTO\SVILUPPI\MSX\CODE\C\MSXgl\projects\exsoccer/exsoccer_s3_b1.c:714: ERROR: no line number 714 in file E:\Dropbox\FAUSTO\SVILUPPI\MSX\CODE\C\MSXgl\projects\exsoccer/exsoccer_s3_b1.c
    00000D65 79               [ 4] 3450 	ld	a, c
    00000D66 D6 0E            [ 7] 3451 	sub	a, #0x0e
    00000D68 20 0F            [12] 3452 	jr	NZ, 00110$
    00000D6A 3Ar00r00         [13] 3453 	ld	a, (_g_MatchStatus+0)
    00000D6D 3D               [ 4] 3454 	dec	a
    00000D6E 20 09            [12] 3455 	jr	NZ, 00110$
                                   3456 ;E:\Dropbox\FAUSTO\SVILUPPI\MSX\CODE\C\MSXgl\projects\exsoccer/exsoccer_s3_b1.c:715: ERROR: no line number 715 in file E:\Dropbox\FAUSTO\SVILUPPI\MSX\CODE\C\MSXgl\projects\exsoccer/exsoccer_s3_b1.c
    00000D70 C1               [10] 3457 	pop	bc
    00000D71 E1               [10] 3458 	pop	hl
    00000D72 E5               [11] 3459 	push	hl
    00000D73 C5               [11] 3460 	push	bc
    00000D74 36 9D            [10] 3461 	ld	(hl), #0x9d
    00000D76 C3r8Br0D         [10] 3462 	jp	00113$
    00000D79                       3463 00110$:
                                   3464 ;E:\Dropbox\FAUSTO\SVILUPPI\MSX\CODE\C\MSXgl\projects\exsoccer/exsoccer_s3_b1.c:718: ERROR: no line number 718 in file E:\Dropbox\FAUSTO\SVILUPPI\MSX\CODE\C\MSXgl\projects\exsoccer/exsoccer_s3_b1.c
    00000D79 21 08 00         [10] 3465 	ld	hl, #8
    00000D7C 19               [11] 3466 	add	hl, de
    00000D7D 4E               [ 7] 3467 	ld	c, (hl)
    00000D7E E1               [10] 3468 	pop	hl
    00000D7F E5               [11] 3469 	push	hl
    00000D80 46               [ 7] 3470 	ld	b, (hl)
    00000D81 69               [ 4] 3471 	ld	l, c
                                   3472 ;	spillPairReg hl
                                   3473 ;	spillPairReg hl
    00000D82 78               [ 4] 3474 	ld	a, b
    00000D83 CDr16r13         [17] 3475 	call	_GetPatternIdByPoseAndDirection
    00000D86 C1               [10] 3476 	pop	bc
    00000D87 E1               [10] 3477 	pop	hl
    00000D88 E5               [11] 3478 	push	hl
    00000D89 C5               [11] 3479 	push	bc
    00000D8A 77               [ 7] 3480 	ld	(hl), a
    00000D8B                       3481 00113$:
                                   3482 ;E:\Dropbox\FAUSTO\SVILUPPI\MSX\CODE\C\MSXgl\projects\exsoccer/exsoccer_s3_b1.c:722: ERROR: no line number 722 in file E:\Dropbox\FAUSTO\SVILUPPI\MSX\CODE\C\MSXgl\projects\exsoccer/exsoccer_s3_b1.c
    00000D8B DD F9            [10] 3483 	ld	sp, ix
    00000D8D DD E1            [14] 3484 	pop	ix
    00000D8F C9               [10] 3485 	ret
                                   3486 ;E:\Dropbox\FAUSTO\SVILUPPI\MSX\CODE\C\MSXgl\projects\exsoccer/exsoccer_s3_b1.c:723: ERROR: no line number 723 in file E:\Dropbox\FAUSTO\SVILUPPI\MSX\CODE\C\MSXgl\projects\exsoccer/exsoccer_s3_b1.c
                                   3487 ;	---------------------------------
                                   3488 ; Function SetTeamsPresentationSpritesPosition
                                   3489 ; ---------------------------------
    00000D90                       3490 _SetTeamsPresentationSpritesPosition::
    00000D90 DD E5            [15] 3491 	push	ix
    00000D92 DD 21 00 00      [14] 3492 	ld	ix,#0
    00000D96 DD 39            [15] 3493 	add	ix,sp
    00000D98 F5               [11] 3494 	push	af
    00000D99 F5               [11] 3495 	push	af
                                   3496 ;E:\Dropbox\FAUSTO\SVILUPPI\MSX\CODE\C\MSXgl\projects\exsoccer/exsoccer_s3_b1.c:724: ERROR: no line number 724 in file E:\Dropbox\FAUSTO\SVILUPPI\MSX\CODE\C\MSXgl\projects\exsoccer/exsoccer_s3_b1.c
    00000D9A 21r00r00         [10] 3497 	ld	hl, #_g_MatchStatus
                                   3498 ;E:\Dropbox\FAUSTO\SVILUPPI\MSX\CODE\C\MSXgl\projects\exsoccer/exsoccer_s3_b1.c:725: ERROR: no line number 725 in file E:\Dropbox\FAUSTO\SVILUPPI\MSX\CODE\C\MSXgl\projects\exsoccer/exsoccer_s3_b1.c
    00000D9D 36 00            [10] 3499 	ld	(hl), #0x00
    00000D9F 4E               [ 7] 3500 	ld	c, (hl)
    00000DA0                       3501 00120$:
    00000DA0 79               [ 4] 3502 	ld	a, c
    00000DA1 D6 07            [ 7] 3503 	sub	a, #0x07
    00000DA3 30 55            [12] 3504 	jr	NC, 00101$
                                   3505 ;E:\Dropbox\FAUSTO\SVILUPPI\MSX\CODE\C\MSXgl\projects\exsoccer/exsoccer_s3_b1.c:726: ERROR: no line number 726 in file E:\Dropbox\FAUSTO\SVILUPPI\MSX\CODE\C\MSXgl\projects\exsoccer/exsoccer_s3_b1.c
    00000DA5 59               [ 4] 3506 	ld	e, c
    00000DA6 16 00            [ 7] 3507 	ld	d, #0x00
    00000DA8 6B               [ 4] 3508 	ld	l, e
    00000DA9 62               [ 4] 3509 	ld	h, d
    00000DAA 29               [11] 3510 	add	hl, hl
    00000DAB 29               [11] 3511 	add	hl, hl
    00000DAC 29               [11] 3512 	add	hl, hl
    00000DAD 29               [11] 3513 	add	hl, hl
    00000DAE 3Er00            [ 7] 3514 	ld	a, #<(_g_Players)
    00000DB0 85               [ 4] 3515 	add	a, l
    00000DB1 DD 77 FC         [19] 3516 	ld	-4 (ix), a
    00000DB4 3Es00            [ 7] 3517 	ld	a, #>(_g_Players)
    00000DB6 8C               [ 4] 3518 	adc	a, h
    00000DB7 DD 77 FD         [19] 3519 	ld	-3 (ix), a
    00000DBA E1               [10] 3520 	pop	hl
    00000DBB E5               [11] 3521 	push	hl
    00000DBC 36 E6            [10] 3522 	ld	(hl), #0xe6
    00000DBE 23               [ 6] 3523 	inc	hl
    00000DBF 36 00            [10] 3524 	ld	(hl), #0x00
                                   3525 ;E:\Dropbox\FAUSTO\SVILUPPI\MSX\CODE\C\MSXgl\projects\exsoccer/exsoccer_s3_b1.c:727: ERROR: no line number 727 in file E:\Dropbox\FAUSTO\SVILUPPI\MSX\CODE\C\MSXgl\projects\exsoccer/exsoccer_s3_b1.c
    00000DC1 DD 7E FC         [19] 3526 	ld	a, -4 (ix)
    00000DC4 C6 02            [ 7] 3527 	add	a, #0x02
    00000DC6 DD 77 FE         [19] 3528 	ld	-2 (ix), a
    00000DC9 DD 7E FD         [19] 3529 	ld	a, -3 (ix)
    00000DCC CE 00            [ 7] 3530 	adc	a, #0x00
    00000DCE DD 77 FF         [19] 3531 	ld	-1 (ix), a
    00000DD1 6B               [ 4] 3532 	ld	l, e
    00000DD2 62               [ 4] 3533 	ld	h, d
    00000DD3 29               [11] 3534 	add	hl, hl
    00000DD4 29               [11] 3535 	add	hl, hl
    00000DD5 19               [11] 3536 	add	hl, de
    00000DD6 29               [11] 3537 	add	hl, hl
    00000DD7 29               [11] 3538 	add	hl, hl
    00000DD8 11 48 00         [10] 3539 	ld	de, #0x0048
    00000DDB 19               [11] 3540 	add	hl, de
    00000DDC EB               [ 4] 3541 	ex	de, hl
    00000DDD DD 6E FE         [19] 3542 	ld	l, -2 (ix)
    00000DE0 DD 66 FF         [19] 3543 	ld	h, -1 (ix)
    00000DE3 73               [ 7] 3544 	ld	(hl), e
    00000DE4 23               [ 6] 3545 	inc	hl
    00000DE5 72               [ 7] 3546 	ld	(hl), d
                                   3547 ;E:\Dropbox\FAUSTO\SVILUPPI\MSX\CODE\C\MSXgl\projects\exsoccer/exsoccer_s3_b1.c:728: ERROR: no line number 728 in file E:\Dropbox\FAUSTO\SVILUPPI\MSX\CODE\C\MSXgl\projects\exsoccer/exsoccer_s3_b1.c
    00000DE6 E1               [10] 3548 	pop	hl
    00000DE7 E5               [11] 3549 	push	hl
    00000DE8 11 04 00         [10] 3550 	ld	de, #0x0004
    00000DEB 19               [11] 3551 	add	hl, de
    00000DEC 36 10            [10] 3552 	ld	(hl), #0x10
                                   3553 ;E:\Dropbox\FAUSTO\SVILUPPI\MSX\CODE\C\MSXgl\projects\exsoccer/exsoccer_s3_b1.c:729: ERROR: no line number 729 in file E:\Dropbox\FAUSTO\SVILUPPI\MSX\CODE\C\MSXgl\projects\exsoccer/exsoccer_s3_b1.c
    00000DEE E1               [10] 3554 	pop	hl
    00000DEF E5               [11] 3555 	push	hl
    00000DF0 11 05 00         [10] 3556 	ld	de, #0x0005
    00000DF3 19               [11] 3557 	add	hl, de
    00000DF4 36 01            [10] 3558 	ld	(hl), #0x01
                                   3559 ;E:\Dropbox\FAUSTO\SVILUPPI\MSX\CODE\C\MSXgl\projects\exsoccer/exsoccer_s3_b1.c:725: ERROR: no line number 725 in file E:\Dropbox\FAUSTO\SVILUPPI\MSX\CODE\C\MSXgl\projects\exsoccer/exsoccer_s3_b1.c
    00000DF6 0C               [ 4] 3560 	inc	c
    00000DF7 C3rA0r0D         [10] 3561 	jp	00120$
    00000DFA                       3562 00101$:
                                   3563 ;E:\Dropbox\FAUSTO\SVILUPPI\MSX\CODE\C\MSXgl\projects\exsoccer/exsoccer_s3_b1.c:732: ERROR: no line number 732 in file E:\Dropbox\FAUSTO\SVILUPPI\MSX\CODE\C\MSXgl\projects\exsoccer/exsoccer_s3_b1.c
    00000DFA DD 36 FF 07      [19] 3564 	ld	-1 (ix), #0x07
    00000DFE                       3565 00123$:
    00000DFE DD 7E FF         [19] 3566 	ld	a, -1 (ix)
    00000E01 D6 0E            [ 7] 3567 	sub	a, #0x0e
    00000E03 30 50            [12] 3568 	jr	NC, 00102$
                                   3569 ;E:\Dropbox\FAUSTO\SVILUPPI\MSX\CODE\C\MSXgl\projects\exsoccer/exsoccer_s3_b1.c:733: ERROR: no line number 733 in file E:\Dropbox\FAUSTO\SVILUPPI\MSX\CODE\C\MSXgl\projects\exsoccer/exsoccer_s3_b1.c
    00000E05 DD 4E FF         [19] 3570 	ld	c, -1 (ix)
    00000E08 06 00            [ 7] 3571 	ld	b, #0x00
    00000E0A 69               [ 4] 3572 	ld	l, c
                                   3573 ;	spillPairReg hl
                                   3574 ;	spillPairReg hl
    00000E0B 60               [ 4] 3575 	ld	h, b
                                   3576 ;	spillPairReg hl
                                   3577 ;	spillPairReg hl
    00000E0C 29               [11] 3578 	add	hl, hl
    00000E0D 29               [11] 3579 	add	hl, hl
    00000E0E 29               [11] 3580 	add	hl, hl
    00000E0F 29               [11] 3581 	add	hl, hl
    00000E10 11r00r00         [10] 3582 	ld	de, #_g_Players
    00000E13 19               [11] 3583 	add	hl, de
    00000E14 5D               [ 4] 3584 	ld	e, l
    00000E15 54               [ 4] 3585 	ld	d, h
    00000E16 36 FA            [10] 3586 	ld	(hl), #0xfa
    00000E18 23               [ 6] 3587 	inc	hl
    00000E19 36 00            [10] 3588 	ld	(hl), #0x00
                                   3589 ;E:\Dropbox\FAUSTO\SVILUPPI\MSX\CODE\C\MSXgl\projects\exsoccer/exsoccer_s3_b1.c:734: ERROR: no line number 734 in file E:\Dropbox\FAUSTO\SVILUPPI\MSX\CODE\C\MSXgl\projects\exsoccer/exsoccer_s3_b1.c
    00000E1B 21 02 00         [10] 3590 	ld	hl, #0x0002
    00000E1E 19               [11] 3591 	add	hl, de
    00000E1F DD 75 FD         [19] 3592 	ld	-3 (ix), l
    00000E22 DD 74 FE         [19] 3593 	ld	-2 (ix), h
    00000E25 79               [ 4] 3594 	ld	a, c
    00000E26 C6 F9            [ 7] 3595 	add	a, #0xf9
    00000E28 4F               [ 4] 3596 	ld	c, a
    00000E29 78               [ 4] 3597 	ld	a, b
    00000E2A CE FF            [ 7] 3598 	adc	a, #0xff
    00000E2C 47               [ 4] 3599 	ld	b, a
    00000E2D 69               [ 4] 3600 	ld	l, c
    00000E2E 60               [ 4] 3601 	ld	h, b
    00000E2F 29               [11] 3602 	add	hl, hl
    00000E30 29               [11] 3603 	add	hl, hl
    00000E31 09               [11] 3604 	add	hl, bc
    00000E32 29               [11] 3605 	add	hl, hl
    00000E33 29               [11] 3606 	add	hl, hl
    00000E34 01 48 00         [10] 3607 	ld	bc, #0x0048
    00000E37 09               [11] 3608 	add	hl, bc
    00000E38 4D               [ 4] 3609 	ld	c, l
    00000E39 44               [ 4] 3610 	ld	b, h
    00000E3A DD 6E FD         [19] 3611 	ld	l, -3 (ix)
    00000E3D DD 66 FE         [19] 3612 	ld	h, -2 (ix)
    00000E40 71               [ 7] 3613 	ld	(hl), c
    00000E41 23               [ 6] 3614 	inc	hl
    00000E42 70               [ 7] 3615 	ld	(hl), b
                                   3616 ;E:\Dropbox\FAUSTO\SVILUPPI\MSX\CODE\C\MSXgl\projects\exsoccer/exsoccer_s3_b1.c:735: ERROR: no line number 735 in file E:\Dropbox\FAUSTO\SVILUPPI\MSX\CODE\C\MSXgl\projects\exsoccer/exsoccer_s3_b1.c
    00000E43 21 04 00         [10] 3617 	ld	hl, #0x0004
    00000E46 19               [11] 3618 	add	hl, de
    00000E47 36 11            [10] 3619 	ld	(hl), #0x11
                                   3620 ;E:\Dropbox\FAUSTO\SVILUPPI\MSX\CODE\C\MSXgl\projects\exsoccer/exsoccer_s3_b1.c:736: ERROR: no line number 736 in file E:\Dropbox\FAUSTO\SVILUPPI\MSX\CODE\C\MSXgl\projects\exsoccer/exsoccer_s3_b1.c
    00000E49 21 05 00         [10] 3621 	ld	hl, #0x0005
    00000E4C 19               [11] 3622 	add	hl, de
    00000E4D 36 00            [10] 3623 	ld	(hl), #0x00
                                   3624 ;E:\Dropbox\FAUSTO\SVILUPPI\MSX\CODE\C\MSXgl\projects\exsoccer/exsoccer_s3_b1.c:732: ERROR: no line number 732 in file E:\Dropbox\FAUSTO\SVILUPPI\MSX\CODE\C\MSXgl\projects\exsoccer/exsoccer_s3_b1.c
    00000E4F DD 34 FF         [23] 3625 	inc	-1 (ix)
    00000E52 C3rFEr0D         [10] 3626 	jp	00123$
    00000E55                       3627 00102$:
                                   3628 ;E:\Dropbox\FAUSTO\SVILUPPI\MSX\CODE\C\MSXgl\projects\exsoccer/exsoccer_s3_b1.c:738: ERROR: no line number 738 in file E:\Dropbox\FAUSTO\SVILUPPI\MSX\CODE\C\MSXgl\projects\exsoccer/exsoccer_s3_b1.c
    00000E55 01r00r00         [10] 3629 	ld	bc, #_g_Players
    00000E58 21 F3 00         [10] 3630 	ld	hl, #0x00f3
    00000E5B 22rE0r00         [16] 3631 	ld	((_g_Players + 224)), hl
                                   3632 ;E:\Dropbox\FAUSTO\SVILUPPI\MSX\CODE\C\MSXgl\projects\exsoccer/exsoccer_s3_b1.c:739: ERROR: no line number 739 in file E:\Dropbox\FAUSTO\SVILUPPI\MSX\CODE\C\MSXgl\projects\exsoccer/exsoccer_s3_b1.c
    00000E5E 2E 1E            [ 7] 3633 	ld	l, #0x1e
    00000E60 22rE2r00         [16] 3634 	ld	((_g_Players + 226)), hl
                                   3635 ;E:\Dropbox\FAUSTO\SVILUPPI\MSX\CODE\C\MSXgl\projects\exsoccer/exsoccer_s3_b1.c:740: ERROR: no line number 740 in file E:\Dropbox\FAUSTO\SVILUPPI\MSX\CODE\C\MSXgl\projects\exsoccer/exsoccer_s3_b1.c
    00000E63 21rE4r00         [10] 3636 	ld	hl, #(_g_Players + 228)
    00000E66 36 9D            [10] 3637 	ld	(hl), #0x9d
                                   3638 ;E:\Dropbox\FAUSTO\SVILUPPI\MSX\CODE\C\MSXgl\projects\exsoccer/exsoccer_s3_b1.c:741: ERROR: no line number 741 in file E:\Dropbox\FAUSTO\SVILUPPI\MSX\CODE\C\MSXgl\projects\exsoccer/exsoccer_s3_b1.c
    00000E68 21rE5r00         [10] 3639 	ld	hl, #(_g_Players + 229)
    00000E6B 36 0E            [10] 3640 	ld	(hl), #0x0e
                                   3641 ;E:\Dropbox\FAUSTO\SVILUPPI\MSX\CODE\C\MSXgl\projects\exsoccer/exsoccer_s3_b1.c:742: ERROR: no line number 742 in file E:\Dropbox\FAUSTO\SVILUPPI\MSX\CODE\C\MSXgl\projects\exsoccer/exsoccer_s3_b1.c
    00000E6D 21rE9r00         [10] 3642 	ld	hl, #(_g_Players + 233)
    00000E70 36 FF            [10] 3643 	ld	(hl), #0xff
                                   3644 ;E:\Dropbox\FAUSTO\SVILUPPI\MSX\CODE\C\MSXgl\projects\exsoccer/exsoccer_s3_b1.c:743: ERROR: no line number 743 in file E:\Dropbox\FAUSTO\SVILUPPI\MSX\CODE\C\MSXgl\projects\exsoccer/exsoccer_s3_b1.c
    00000E72 21 00 00         [10] 3645 	ld	hl, #0x0000
    00000E75 22rEEr00         [16] 3646 	ld	((_g_Players + 238)), hl
                                   3647 ;E:\Dropbox\FAUSTO\SVILUPPI\MSX\CODE\C\MSXgl\projects\exsoccer/exsoccer_s3_b1.c:744: ERROR: no line number 744 in file E:\Dropbox\FAUSTO\SVILUPPI\MSX\CODE\C\MSXgl\projects\exsoccer/exsoccer_s3_b1.c
    00000E78 C5               [11] 3648 	push	bc
    00000E79 CDr2Dr0F         [17] 3649 	call	_ResetPlayersInfo
    00000E7C 3E 0E            [ 7] 3650 	ld	a, #0x0e
    00000E7E CDr31r06         [17] 3651 	call	_SetPlayerTarget
    00000E81 C1               [10] 3652 	pop	bc
                                   3653 ;E:\Dropbox\FAUSTO\SVILUPPI\MSX\CODE\C\MSXgl\projects\exsoccer/exsoccer_s3_b1.c:747: ERROR: no line number 747 in file E:\Dropbox\FAUSTO\SVILUPPI\MSX\CODE\C\MSXgl\projects\exsoccer/exsoccer_s3_b1.c
    00000E82 DD 36 FF 00      [19] 3654 	ld	-1 (ix), #0x00
    00000E86                       3655 00126$:
    00000E86 DD 7E FF         [19] 3656 	ld	a, -1 (ix)
    00000E89 D6 0E            [ 7] 3657 	sub	a, #0x0e
    00000E8B 30 79            [12] 3658 	jr	NC, 00118$
                                   3659 ;E:\Dropbox\FAUSTO\SVILUPPI\MSX\CODE\C\MSXgl\projects\exsoccer/exsoccer_s3_b1.c:748: ERROR: no line number 748 in file E:\Dropbox\FAUSTO\SVILUPPI\MSX\CODE\C\MSXgl\projects\exsoccer/exsoccer_s3_b1.c
    00000E8D 3E 0D            [ 7] 3660 	ld	a, #0x0d
    00000E8F DD 96 FF         [19] 3661 	sub	a, -1 (ix)
    00000E92 38 6C            [12] 3662 	jr	C, 00127$
                                   3663 ;E:\Dropbox\FAUSTO\SVILUPPI\MSX\CODE\C\MSXgl\projects\exsoccer/exsoccer_s3_b1.c:751: ERROR: no line number 751 in file E:\Dropbox\FAUSTO\SVILUPPI\MSX\CODE\C\MSXgl\projects\exsoccer/exsoccer_s3_b1.c
    00000E94 DD 6E FF         [19] 3664 	ld	l, -1 (ix)
                                   3665 ;	spillPairReg hl
                                   3666 ;	spillPairReg hl
    00000E97 26 00            [ 7] 3667 	ld	h, #0x00
                                   3668 ;	spillPairReg hl
                                   3669 ;	spillPairReg hl
    00000E99 29               [11] 3670 	add	hl, hl
    00000E9A 29               [11] 3671 	add	hl, hl
    00000E9B 29               [11] 3672 	add	hl, hl
    00000E9C 29               [11] 3673 	add	hl, hl
    00000E9D 09               [11] 3674 	add	hl, bc
    00000E9E 11 09 00         [10] 3675 	ld	de, #0x0009
    00000EA1 19               [11] 3676 	add	hl, de
                                   3677 ;E:\Dropbox\FAUSTO\SVILUPPI\MSX\CODE\C\MSXgl\projects\exsoccer/exsoccer_s3_b1.c:748: ERROR: no line number 748 in file E:\Dropbox\FAUSTO\SVILUPPI\MSX\CODE\C\MSXgl\projects\exsoccer/exsoccer_s3_b1.c
    00000EA2 E5               [11] 3678 	push	hl
    00000EA3 DD 5E FF         [19] 3679 	ld	e, -1 (ix)
    00000EA6 16 00            [ 7] 3680 	ld	d, #0x00
    00000EA8 21rB0r0E         [10] 3681 	ld	hl, #00168$
    00000EAB 19               [11] 3682 	add	hl, de
    00000EAC 19               [11] 3683 	add	hl, de
    00000EAD 19               [11] 3684 	add	hl, de
    00000EAE D1               [10] 3685 	pop	de
    00000EAF E9               [ 4] 3686 	jp	(hl)
    00000EB0                       3687 00168$:
    00000EB0 C3rDAr0E         [10] 3688 	jp	00104$
    00000EB3 C3rDFr0E         [10] 3689 	jp	00106$
    00000EB6 C3rF1r0E         [10] 3690 	jp	00112$
    00000EB9 C3rEBr0E         [10] 3691 	jp	00110$
    00000EBC C3rE5r0E         [10] 3692 	jp	00108$
    00000EBF C3rF7r0E         [10] 3693 	jp	00114$
    00000EC2 C3rFDr0E         [10] 3694 	jp	00116$
    00000EC5 C3rDAr0E         [10] 3695 	jp	00104$
    00000EC8 C3rDFr0E         [10] 3696 	jp	00106$
    00000ECB C3rF1r0E         [10] 3697 	jp	00112$
    00000ECE C3rEBr0E         [10] 3698 	jp	00110$
    00000ED1 C3rE5r0E         [10] 3699 	jp	00108$
    00000ED4 C3rF7r0E         [10] 3700 	jp	00114$
    00000ED7 C3rFDr0E         [10] 3701 	jp	00116$
                                   3702 ;E:\Dropbox\FAUSTO\SVILUPPI\MSX\CODE\C\MSXgl\projects\exsoccer/exsoccer_s3_b1.c:750: ERROR: no line number 750 in file E:\Dropbox\FAUSTO\SVILUPPI\MSX\CODE\C\MSXgl\projects\exsoccer/exsoccer_s3_b1.c
    00000EDA                       3703 00104$:
                                   3704 ;E:\Dropbox\FAUSTO\SVILUPPI\MSX\CODE\C\MSXgl\projects\exsoccer/exsoccer_s3_b1.c:751: ERROR: no line number 751 in file E:\Dropbox\FAUSTO\SVILUPPI\MSX\CODE\C\MSXgl\projects\exsoccer/exsoccer_s3_b1.c
    00000EDA AF               [ 4] 3705 	xor	a, a
    00000EDB 12               [ 7] 3706 	ld	(de), a
                                   3707 ;E:\Dropbox\FAUSTO\SVILUPPI\MSX\CODE\C\MSXgl\projects\exsoccer/exsoccer_s3_b1.c:752: ERROR: no line number 752 in file E:\Dropbox\FAUSTO\SVILUPPI\MSX\CODE\C\MSXgl\projects\exsoccer/exsoccer_s3_b1.c
    00000EDC C3r00r0F         [10] 3708 	jp	00127$
                                   3709 ;E:\Dropbox\FAUSTO\SVILUPPI\MSX\CODE\C\MSXgl\projects\exsoccer/exsoccer_s3_b1.c:754: ERROR: no line number 754 in file E:\Dropbox\FAUSTO\SVILUPPI\MSX\CODE\C\MSXgl\projects\exsoccer/exsoccer_s3_b1.c
    00000EDF                       3710 00106$:
                                   3711 ;E:\Dropbox\FAUSTO\SVILUPPI\MSX\CODE\C\MSXgl\projects\exsoccer/exsoccer_s3_b1.c:755: ERROR: no line number 755 in file E:\Dropbox\FAUSTO\SVILUPPI\MSX\CODE\C\MSXgl\projects\exsoccer/exsoccer_s3_b1.c
    00000EDF 3E 01            [ 7] 3712 	ld	a, #0x01
    00000EE1 12               [ 7] 3713 	ld	(de), a
                                   3714 ;E:\Dropbox\FAUSTO\SVILUPPI\MSX\CODE\C\MSXgl\projects\exsoccer/exsoccer_s3_b1.c:756: ERROR: no line number 756 in file E:\Dropbox\FAUSTO\SVILUPPI\MSX\CODE\C\MSXgl\projects\exsoccer/exsoccer_s3_b1.c
    00000EE2 C3r00r0F         [10] 3715 	jp	00127$
                                   3716 ;E:\Dropbox\FAUSTO\SVILUPPI\MSX\CODE\C\MSXgl\projects\exsoccer/exsoccer_s3_b1.c:758: ERROR: no line number 758 in file E:\Dropbox\FAUSTO\SVILUPPI\MSX\CODE\C\MSXgl\projects\exsoccer/exsoccer_s3_b1.c
    00000EE5                       3717 00108$:
                                   3718 ;E:\Dropbox\FAUSTO\SVILUPPI\MSX\CODE\C\MSXgl\projects\exsoccer/exsoccer_s3_b1.c:759: ERROR: no line number 759 in file E:\Dropbox\FAUSTO\SVILUPPI\MSX\CODE\C\MSXgl\projects\exsoccer/exsoccer_s3_b1.c
    00000EE5 3E 02            [ 7] 3719 	ld	a, #0x02
    00000EE7 12               [ 7] 3720 	ld	(de), a
                                   3721 ;E:\Dropbox\FAUSTO\SVILUPPI\MSX\CODE\C\MSXgl\projects\exsoccer/exsoccer_s3_b1.c:760: ERROR: no line number 760 in file E:\Dropbox\FAUSTO\SVILUPPI\MSX\CODE\C\MSXgl\projects\exsoccer/exsoccer_s3_b1.c
    00000EE8 C3r00r0F         [10] 3722 	jp	00127$
                                   3723 ;E:\Dropbox\FAUSTO\SVILUPPI\MSX\CODE\C\MSXgl\projects\exsoccer/exsoccer_s3_b1.c:762: ERROR: no line number 762 in file E:\Dropbox\FAUSTO\SVILUPPI\MSX\CODE\C\MSXgl\projects\exsoccer/exsoccer_s3_b1.c
    00000EEB                       3724 00110$:
                                   3725 ;E:\Dropbox\FAUSTO\SVILUPPI\MSX\CODE\C\MSXgl\projects\exsoccer/exsoccer_s3_b1.c:763: ERROR: no line number 763 in file E:\Dropbox\FAUSTO\SVILUPPI\MSX\CODE\C\MSXgl\projects\exsoccer/exsoccer_s3_b1.c
    00000EEB 3E 03            [ 7] 3726 	ld	a, #0x03
    00000EED 12               [ 7] 3727 	ld	(de), a
                                   3728 ;E:\Dropbox\FAUSTO\SVILUPPI\MSX\CODE\C\MSXgl\projects\exsoccer/exsoccer_s3_b1.c:764: ERROR: no line number 764 in file E:\Dropbox\FAUSTO\SVILUPPI\MSX\CODE\C\MSXgl\projects\exsoccer/exsoccer_s3_b1.c
    00000EEE C3r00r0F         [10] 3729 	jp	00127$
                                   3730 ;E:\Dropbox\FAUSTO\SVILUPPI\MSX\CODE\C\MSXgl\projects\exsoccer/exsoccer_s3_b1.c:766: ERROR: no line number 766 in file E:\Dropbox\FAUSTO\SVILUPPI\MSX\CODE\C\MSXgl\projects\exsoccer/exsoccer_s3_b1.c
    00000EF1                       3731 00112$:
                                   3732 ;E:\Dropbox\FAUSTO\SVILUPPI\MSX\CODE\C\MSXgl\projects\exsoccer/exsoccer_s3_b1.c:767: ERROR: no line number 767 in file E:\Dropbox\FAUSTO\SVILUPPI\MSX\CODE\C\MSXgl\projects\exsoccer/exsoccer_s3_b1.c
    00000EF1 3E 04            [ 7] 3733 	ld	a, #0x04
    00000EF3 12               [ 7] 3734 	ld	(de), a
                                   3735 ;E:\Dropbox\FAUSTO\SVILUPPI\MSX\CODE\C\MSXgl\projects\exsoccer/exsoccer_s3_b1.c:768: ERROR: no line number 768 in file E:\Dropbox\FAUSTO\SVILUPPI\MSX\CODE\C\MSXgl\projects\exsoccer/exsoccer_s3_b1.c
    00000EF4 C3r00r0F         [10] 3736 	jp	00127$
                                   3737 ;E:\Dropbox\FAUSTO\SVILUPPI\MSX\CODE\C\MSXgl\projects\exsoccer/exsoccer_s3_b1.c:770: ERROR: no line number 770 in file E:\Dropbox\FAUSTO\SVILUPPI\MSX\CODE\C\MSXgl\projects\exsoccer/exsoccer_s3_b1.c
    00000EF7                       3738 00114$:
                                   3739 ;E:\Dropbox\FAUSTO\SVILUPPI\MSX\CODE\C\MSXgl\projects\exsoccer/exsoccer_s3_b1.c:771: ERROR: no line number 771 in file E:\Dropbox\FAUSTO\SVILUPPI\MSX\CODE\C\MSXgl\projects\exsoccer/exsoccer_s3_b1.c
    00000EF7 3E 05            [ 7] 3740 	ld	a, #0x05
    00000EF9 12               [ 7] 3741 	ld	(de), a
                                   3742 ;E:\Dropbox\FAUSTO\SVILUPPI\MSX\CODE\C\MSXgl\projects\exsoccer/exsoccer_s3_b1.c:772: ERROR: no line number 772 in file E:\Dropbox\FAUSTO\SVILUPPI\MSX\CODE\C\MSXgl\projects\exsoccer/exsoccer_s3_b1.c
    00000EFA C3r00r0F         [10] 3743 	jp	00127$
                                   3744 ;E:\Dropbox\FAUSTO\SVILUPPI\MSX\CODE\C\MSXgl\projects\exsoccer/exsoccer_s3_b1.c:774: ERROR: no line number 774 in file E:\Dropbox\FAUSTO\SVILUPPI\MSX\CODE\C\MSXgl\projects\exsoccer/exsoccer_s3_b1.c
    00000EFD                       3745 00116$:
                                   3746 ;E:\Dropbox\FAUSTO\SVILUPPI\MSX\CODE\C\MSXgl\projects\exsoccer/exsoccer_s3_b1.c:775: ERROR: no line number 775 in file E:\Dropbox\FAUSTO\SVILUPPI\MSX\CODE\C\MSXgl\projects\exsoccer/exsoccer_s3_b1.c
    00000EFD 3E 06            [ 7] 3747 	ld	a, #0x06
    00000EFF 12               [ 7] 3748 	ld	(de), a
                                   3749 ;E:\Dropbox\FAUSTO\SVILUPPI\MSX\CODE\C\MSXgl\projects\exsoccer/exsoccer_s3_b1.c:777: ERROR: no line number 777 in file E:\Dropbox\FAUSTO\SVILUPPI\MSX\CODE\C\MSXgl\projects\exsoccer/exsoccer_s3_b1.c
    00000F00                       3750 00127$:
                                   3751 ;E:\Dropbox\FAUSTO\SVILUPPI\MSX\CODE\C\MSXgl\projects\exsoccer/exsoccer_s3_b1.c:747: ERROR: no line number 747 in file E:\Dropbox\FAUSTO\SVILUPPI\MSX\CODE\C\MSXgl\projects\exsoccer/exsoccer_s3_b1.c
    00000F00 DD 34 FF         [23] 3752 	inc	-1 (ix)
    00000F03 C3r86r0E         [10] 3753 	jp	00126$
    00000F06                       3754 00118$:
                                   3755 ;E:\Dropbox\FAUSTO\SVILUPPI\MSX\CODE\C\MSXgl\projects\exsoccer/exsoccer_s3_b1.c:780: ERROR: no line number 780 in file E:\Dropbox\FAUSTO\SVILUPPI\MSX\CODE\C\MSXgl\projects\exsoccer/exsoccer_s3_b1.c
    00000F06 21 78 00         [10] 3756 	ld	hl, #0x0078
    00000F09 22r02r00         [16] 3757 	ld	((_g_Ball + 2)), hl
                                   3758 ;E:\Dropbox\FAUSTO\SVILUPPI\MSX\CODE\C\MSXgl\projects\exsoccer/exsoccer_s3_b1.c:781: ERROR: no line number 781 in file E:\Dropbox\FAUSTO\SVILUPPI\MSX\CODE\C\MSXgl\projects\exsoccer/exsoccer_s3_b1.c
    00000F0C 2E F3            [ 7] 3759 	ld	l, #0xf3
    00000F0E 22r00r00         [16] 3760 	ld	(_g_Ball), hl
                                   3761 ;E:\Dropbox\FAUSTO\SVILUPPI\MSX\CODE\C\MSXgl\projects\exsoccer/exsoccer_s3_b1.c:782: ERROR: no line number 782 in file E:\Dropbox\FAUSTO\SVILUPPI\MSX\CODE\C\MSXgl\projects\exsoccer/exsoccer_s3_b1.c
    00000F11 ED 4Br00r00      [20] 3762 	ld	bc, (#_g_Ball + 0)
    00000F15 ED 43r07r00      [20] 3763 	ld	((_g_Ball + 7)), bc
                                   3764 ;E:\Dropbox\FAUSTO\SVILUPPI\MSX\CODE\C\MSXgl\projects\exsoccer/exsoccer_s3_b1.c:783: ERROR: no line number 783 in file E:\Dropbox\FAUSTO\SVILUPPI\MSX\CODE\C\MSXgl\projects\exsoccer/exsoccer_s3_b1.c
    00000F19 21r04r00         [10] 3765 	ld	hl, #(_g_Ball + 4)
    00000F1C 36 01            [10] 3766 	ld	(hl), #0x01
                                   3767 ;E:\Dropbox\FAUSTO\SVILUPPI\MSX\CODE\C\MSXgl\projects\exsoccer/exsoccer_s3_b1.c:784: ERROR: no line number 784 in file E:\Dropbox\FAUSTO\SVILUPPI\MSX\CODE\C\MSXgl\projects\exsoccer/exsoccer_s3_b1.c
    00000F1E 21r05r00         [10] 3768 	ld	hl, #(_g_Ball + 5)
    00000F21 36 00            [10] 3769 	ld	(hl), #0x00
                                   3770 ;E:\Dropbox\FAUSTO\SVILUPPI\MSX\CODE\C\MSXgl\projects\exsoccer/exsoccer_s3_b1.c:785: ERROR: no line number 785 in file E:\Dropbox\FAUSTO\SVILUPPI\MSX\CODE\C\MSXgl\projects\exsoccer/exsoccer_s3_b1.c
    00000F23 21r06r00         [10] 3771 	ld	hl, #(_g_Ball + 6)
    00000F26 36 FF            [10] 3772 	ld	(hl), #0xff
                                   3773 ;E:\Dropbox\FAUSTO\SVILUPPI\MSX\CODE\C\MSXgl\projects\exsoccer/exsoccer_s3_b1.c:786: ERROR: no line number 786 in file E:\Dropbox\FAUSTO\SVILUPPI\MSX\CODE\C\MSXgl\projects\exsoccer/exsoccer_s3_b1.c
    00000F28 DD F9            [10] 3774 	ld	sp, ix
    00000F2A DD E1            [14] 3775 	pop	ix
    00000F2C C9               [10] 3776 	ret
                                   3777 ;E:\Dropbox\FAUSTO\SVILUPPI\MSX\CODE\C\MSXgl\projects\exsoccer/exsoccer_s3_b1.c:787: ERROR: no line number 787 in file E:\Dropbox\FAUSTO\SVILUPPI\MSX\CODE\C\MSXgl\projects\exsoccer/exsoccer_s3_b1.c
                                   3778 ;	---------------------------------
                                   3779 ; Function ResetPlayersInfo
                                   3780 ; ---------------------------------
    00000F2D                       3781 _ResetPlayersInfo::
    00000F2D DD E5            [15] 3782 	push	ix
    00000F2F DD 21 00 00      [14] 3783 	ld	ix,#0
    00000F33 DD 39            [15] 3784 	add	ix,sp
    00000F35 3B               [ 6] 3785 	dec	sp
                                   3786 ;E:\Dropbox\FAUSTO\SVILUPPI\MSX\CODE\C\MSXgl\projects\exsoccer/exsoccer_s3_b1.c:788: ERROR: no line number 788 in file E:\Dropbox\FAUSTO\SVILUPPI\MSX\CODE\C\MSXgl\projects\exsoccer/exsoccer_s3_b1.c
    00000F36 DD 36 FF 00      [19] 3787 	ld	-1 (ix), #0x00
    00000F3A                       3788 00103$:
    00000F3A DD 7E FF         [19] 3789 	ld	a, -1 (ix)
    00000F3D D6 0E            [ 7] 3790 	sub	a, #0x0e
    00000F3F 30 38            [12] 3791 	jr	NC, 00105$
                                   3792 ;E:\Dropbox\FAUSTO\SVILUPPI\MSX\CODE\C\MSXgl\projects\exsoccer/exsoccer_s3_b1.c:789: ERROR: no line number 789 in file E:\Dropbox\FAUSTO\SVILUPPI\MSX\CODE\C\MSXgl\projects\exsoccer/exsoccer_s3_b1.c
    00000F41 DD 5E FF         [19] 3793 	ld	e, -1 (ix)
    00000F44 16 00            [ 7] 3794 	ld	d, #0x00
    00000F46 EB               [ 4] 3795 	ex	de, hl
    00000F47 29               [11] 3796 	add	hl, hl
    00000F48 29               [11] 3797 	add	hl, hl
    00000F49 29               [11] 3798 	add	hl, hl
    00000F4A 29               [11] 3799 	add	hl, hl
    00000F4B EB               [ 4] 3800 	ex	de, hl
    00000F4C 21r00r00         [10] 3801 	ld	hl, #_g_Players
    00000F4F 19               [11] 3802 	add	hl, de
    00000F50 4D               [ 4] 3803 	ld	c, l
    00000F51 44               [ 4] 3804 	ld	b, h
    00000F52 21 06 00         [10] 3805 	ld	hl, #0x0006
    00000F55 09               [11] 3806 	add	hl, bc
    00000F56 EB               [ 4] 3807 	ex	de, hl
    00000F57 AF               [ 4] 3808 	xor	a, a
    00000F58 12               [ 7] 3809 	ld	(de), a
                                   3810 ;E:\Dropbox\FAUSTO\SVILUPPI\MSX\CODE\C\MSXgl\projects\exsoccer/exsoccer_s3_b1.c:790: ERROR: no line number 790 in file E:\Dropbox\FAUSTO\SVILUPPI\MSX\CODE\C\MSXgl\projects\exsoccer/exsoccer_s3_b1.c
    00000F59 21 07 00         [10] 3811 	ld	hl, #0x0007
    00000F5C 09               [11] 3812 	add	hl, bc
    00000F5D 1A               [ 7] 3813 	ld	a, (de)
    00000F5E 77               [ 7] 3814 	ld	(hl), a
                                   3815 ;E:\Dropbox\FAUSTO\SVILUPPI\MSX\CODE\C\MSXgl\projects\exsoccer/exsoccer_s3_b1.c:791: ERROR: no line number 791 in file E:\Dropbox\FAUSTO\SVILUPPI\MSX\CODE\C\MSXgl\projects\exsoccer/exsoccer_s3_b1.c
    00000F5F 21 08 00         [10] 3816 	ld	hl, #0x0008
    00000F62 09               [11] 3817 	add	hl, bc
    00000F63 36 00            [10] 3818 	ld	(hl), #0x00
                                   3819 ;E:\Dropbox\FAUSTO\SVILUPPI\MSX\CODE\C\MSXgl\projects\exsoccer/exsoccer_s3_b1.c:792: ERROR: no line number 792 in file E:\Dropbox\FAUSTO\SVILUPPI\MSX\CODE\C\MSXgl\projects\exsoccer/exsoccer_s3_b1.c
    00000F65 21 0E 00         [10] 3820 	ld	hl, #0x000e
    00000F68 09               [11] 3821 	add	hl, bc
    00000F69 36 00            [10] 3822 	ld	(hl), #0x00
    00000F6B 23               [ 6] 3823 	inc	hl
    00000F6C 36 00            [10] 3824 	ld	(hl), #0x00
    00000F6E 2B               [ 6] 3825 	dec	hl
                                   3826 ;E:\Dropbox\FAUSTO\SVILUPPI\MSX\CODE\C\MSXgl\projects\exsoccer/exsoccer_s3_b1.c:793: ERROR: no line number 793 in file E:\Dropbox\FAUSTO\SVILUPPI\MSX\CODE\C\MSXgl\projects\exsoccer/exsoccer_s3_b1.c
    00000F6F AF               [ 4] 3827 	xor	a, a
    00000F70 77               [ 7] 3828 	ld	(hl), a
    00000F71 23               [ 6] 3829 	inc	hl
    00000F72 77               [ 7] 3830 	ld	(hl), a
                                   3831 ;E:\Dropbox\FAUSTO\SVILUPPI\MSX\CODE\C\MSXgl\projects\exsoccer/exsoccer_s3_b1.c:788: ERROR: no line number 788 in file E:\Dropbox\FAUSTO\SVILUPPI\MSX\CODE\C\MSXgl\projects\exsoccer/exsoccer_s3_b1.c
    00000F73 DD 34 FF         [23] 3832 	inc	-1 (ix)
    00000F76 C3r3Ar0F         [10] 3833 	jp	00103$
    00000F79                       3834 00105$:
                                   3835 ;E:\Dropbox\FAUSTO\SVILUPPI\MSX\CODE\C\MSXgl\projects\exsoccer/exsoccer_s3_b1.c:795: ERROR: no line number 795 in file E:\Dropbox\FAUSTO\SVILUPPI\MSX\CODE\C\MSXgl\projects\exsoccer/exsoccer_s3_b1.c
    00000F79 33               [ 6] 3836 	inc	sp
    00000F7A DD E1            [14] 3837 	pop	ix
    00000F7C C9               [10] 3838 	ret
                                   3839 ;E:\Dropbox\FAUSTO\SVILUPPI\MSX\CODE\C\MSXgl\projects\exsoccer/exsoccer_s3_b1.c:796: ERROR: no line number 796 in file E:\Dropbox\FAUSTO\SVILUPPI\MSX\CODE\C\MSXgl\projects\exsoccer/exsoccer_s3_b1.c
                                   3840 ;	---------------------------------
                                   3841 ; Function ClearTextFromLayerA
                                   3842 ; ---------------------------------
    00000F7D                       3843 _ClearTextFromLayerA::
    00000F7D 4F               [ 4] 3844 	ld	c, a
    00000F7E 45               [ 4] 3845 	ld	b, l
                                   3846 ;E:\Dropbox\FAUSTO\SVILUPPI\MSX\CODE\C\MSXgl\projects\exsoccer/exsoccer_s3_b1.c:797: ERROR: no line number 797 in file E:\Dropbox\FAUSTO\SVILUPPI\MSX\CODE\C\MSXgl\projects\exsoccer/exsoccer_s3_b1.c
    00000F7F 1E 00            [ 7] 3847 	ld	e, #0x00
    00000F81                       3848 00103$:
    00000F81 21 02 00         [10] 3849 	ld	hl, #2
    00000F84 39               [11] 3850 	add	hl, sp
    00000F85 7B               [ 4] 3851 	ld	a, e
    00000F86 96               [ 7] 3852 	sub	a, (hl)
    00000F87 30 12            [12] 3853 	jr	NC, 00105$
                                   3854 ;E:\Dropbox\FAUSTO\SVILUPPI\MSX\CODE\C\MSXgl\projects\exsoccer/exsoccer_s3_b1.c:798: ERROR: no line number 798 in file E:\Dropbox\FAUSTO\SVILUPPI\MSX\CODE\C\MSXgl\projects\exsoccer/exsoccer_s3_b1.c
    00000F89 C5               [11] 3855 	push	bc
    00000F8A D5               [11] 3856 	push	de
    00000F8B 21 00 00         [10] 3857 	ld	hl, #0x0000
    00000F8E E5               [11] 3858 	push	hl
    00000F8F 68               [ 4] 3859 	ld	l, b
                                   3860 ;	spillPairReg hl
                                   3861 ;	spillPairReg hl
    00000F90 79               [ 4] 3862 	ld	a, c
    00000F91 CDr64r0B         [17] 3863 	call	_V9_PutLayerATileAtPos
    00000F94 D1               [10] 3864 	pop	de
    00000F95 C1               [10] 3865 	pop	bc
                                   3866 ;E:\Dropbox\FAUSTO\SVILUPPI\MSX\CODE\C\MSXgl\projects\exsoccer/exsoccer_s3_b1.c:799: ERROR: no line number 799 in file E:\Dropbox\FAUSTO\SVILUPPI\MSX\CODE\C\MSXgl\projects\exsoccer/exsoccer_s3_b1.c
    00000F96 0C               [ 4] 3867 	inc	c
                                   3868 ;E:\Dropbox\FAUSTO\SVILUPPI\MSX\CODE\C\MSXgl\projects\exsoccer/exsoccer_s3_b1.c:797: ERROR: no line number 797 in file E:\Dropbox\FAUSTO\SVILUPPI\MSX\CODE\C\MSXgl\projects\exsoccer/exsoccer_s3_b1.c
    00000F97 1C               [ 4] 3869 	inc	e
    00000F98 C3r81r0F         [10] 3870 	jp	00103$
    00000F9B                       3871 00105$:
                                   3872 ;E:\Dropbox\FAUSTO\SVILUPPI\MSX\CODE\C\MSXgl\projects\exsoccer/exsoccer_s3_b1.c:801: ERROR: no line number 801 in file E:\Dropbox\FAUSTO\SVILUPPI\MSX\CODE\C\MSXgl\projects\exsoccer/exsoccer_s3_b1.c
    00000F9B E1               [10] 3873 	pop	hl
    00000F9C 33               [ 6] 3874 	inc	sp
    00000F9D E9               [ 4] 3875 	jp	(hl)
                                   3876 ;E:\Dropbox\FAUSTO\SVILUPPI\MSX\CODE\C\MSXgl\projects\exsoccer/exsoccer_s3_b1.c:802: ERROR: no line number 802 in file E:\Dropbox\FAUSTO\SVILUPPI\MSX\CODE\C\MSXgl\projects\exsoccer/exsoccer_s3_b1.c
                                   3877 ;	---------------------------------
                                   3878 ; Function TickPlayerToOwnTarget
                                   3879 ; ---------------------------------
    00000F9E                       3880 _TickPlayerToOwnTarget::
    00000F9E DD E5            [15] 3881 	push	ix
    00000FA0 DD 21 00 00      [14] 3882 	ld	ix,#0
    00000FA4 DD 39            [15] 3883 	add	ix,sp
    00000FA6 21 F7 FF         [10] 3884 	ld	hl, #-9
    00000FA9 39               [11] 3885 	add	hl, sp
    00000FAA F9               [ 6] 3886 	ld	sp, hl
                                   3887 ;E:\Dropbox\FAUSTO\SVILUPPI\MSX\CODE\C\MSXgl\projects\exsoccer/exsoccer_s3_b1.c:803: ERROR: no line number 803 in file E:\Dropbox\FAUSTO\SVILUPPI\MSX\CODE\C\MSXgl\projects\exsoccer/exsoccer_s3_b1.c
    00000FAB 3Ar00r00         [13] 3888 	ld	a, (_g_MatchStatus+0)
    00000FAE B7               [ 4] 3889 	or	a, a
    00000FAF CArBEr12         [10] 3890 	jp	Z, 00148$
                                   3891 ;E:\Dropbox\FAUSTO\SVILUPPI\MSX\CODE\C\MSXgl\projects\exsoccer/exsoccer_s3_b1.c:804: ERROR: no line number 804 in file E:\Dropbox\FAUSTO\SVILUPPI\MSX\CODE\C\MSXgl\projects\exsoccer/exsoccer_s3_b1.c
    00000FB2 DD 36 FF 00      [19] 3892 	ld	-1 (ix), #0x00
    00000FB6                       3893 00146$:
    00000FB6 DD 7E FF         [19] 3894 	ld	a, -1 (ix)
    00000FB9 D6 0F            [ 7] 3895 	sub	a, #0x0f
    00000FBB D2rBEr12         [10] 3896 	jp	NC, 00148$
                                   3897 ;E:\Dropbox\FAUSTO\SVILUPPI\MSX\CODE\C\MSXgl\projects\exsoccer/exsoccer_s3_b1.c:806: ERROR: no line number 806 in file E:\Dropbox\FAUSTO\SVILUPPI\MSX\CODE\C\MSXgl\projects\exsoccer/exsoccer_s3_b1.c
    00000FBE DD 6E FF         [19] 3898 	ld	l, -1 (ix)
                                   3899 ;	spillPairReg hl
                                   3900 ;	spillPairReg hl
    00000FC1 26 00            [ 7] 3901 	ld	h, #0x00
                                   3902 ;	spillPairReg hl
                                   3903 ;	spillPairReg hl
    00000FC3 29               [11] 3904 	add	hl, hl
    00000FC4 29               [11] 3905 	add	hl, hl
    00000FC5 29               [11] 3906 	add	hl, hl
    00000FC6 29               [11] 3907 	add	hl, hl
    00000FC7 7D               [ 4] 3908 	ld	a, l
    00000FC8 C6r00            [ 7] 3909 	add	a, #<(_g_Players)
    00000FCA DD 77 F7         [19] 3910 	ld	-9 (ix), a
    00000FCD 7C               [ 4] 3911 	ld	a, h
    00000FCE CEs00            [ 7] 3912 	adc	a, #>(_g_Players)
    00000FD0 DD 77 F8         [19] 3913 	ld	-8 (ix), a
    00000FD3 C1               [10] 3914 	pop	bc
    00000FD4 C5               [11] 3915 	push	bc
    00000FD5 03               [ 6] 3916 	inc	bc
    00000FD6 03               [ 6] 3917 	inc	bc
                                   3918 ;E:\Dropbox\FAUSTO\SVILUPPI\MSX\CODE\C\MSXgl\projects\exsoccer/exsoccer_s3_b1.c:807: ERROR: no line number 807 in file E:\Dropbox\FAUSTO\SVILUPPI\MSX\CODE\C\MSXgl\projects\exsoccer/exsoccer_s3_b1.c
    00000FD7 0A               [ 7] 3919 	ld	a, (bc)
    00000FD8 DD 77 F9         [19] 3920 	ld	-7 (ix), a
    00000FDB 03               [ 6] 3921 	inc	bc
    00000FDC 0A               [ 7] 3922 	ld	a, (bc)
    00000FDD DD 77 FA         [19] 3923 	ld	-6 (ix), a
    00000FE0 0B               [ 6] 3924 	dec	bc
                                   3925 ;E:\Dropbox\FAUSTO\SVILUPPI\MSX\CODE\C\MSXgl\projects\exsoccer/exsoccer_s3_b1.c:806: ERROR: no line number 806 in file E:\Dropbox\FAUSTO\SVILUPPI\MSX\CODE\C\MSXgl\projects\exsoccer/exsoccer_s3_b1.c
    00000FE1 DD 7E F7         [19] 3926 	ld	a, -9 (ix)
    00000FE4 C6 0C            [ 7] 3927 	add	a, #0x0c
    00000FE6 DD 77 FB         [19] 3928 	ld	-5 (ix), a
    00000FE9 DD 7E F8         [19] 3929 	ld	a, -8 (ix)
    00000FEC CE 00            [ 7] 3930 	adc	a, #0x00
    00000FEE DD 77 FC         [19] 3931 	ld	-4 (ix), a
                                   3932 ;E:\Dropbox\FAUSTO\SVILUPPI\MSX\CODE\C\MSXgl\projects\exsoccer/exsoccer_s3_b1.c:807: ERROR: no line number 807 in file E:\Dropbox\FAUSTO\SVILUPPI\MSX\CODE\C\MSXgl\projects\exsoccer/exsoccer_s3_b1.c
    00000FF1 DD 6E FB         [19] 3933 	ld	l, -5 (ix)
    00000FF4 DD 66 FC         [19] 3934 	ld	h, -4 (ix)
    00000FF7 7E               [ 7] 3935 	ld	a, (hl)
    00000FF8 DD 77 FD         [19] 3936 	ld	-3 (ix), a
    00000FFB 23               [ 6] 3937 	inc	hl
    00000FFC 7E               [ 7] 3938 	ld	a, (hl)
    00000FFD DD 77 FE         [19] 3939 	ld	-2 (ix), a
                                   3940 ;E:\Dropbox\FAUSTO\SVILUPPI\MSX\CODE\C\MSXgl\projects\exsoccer/exsoccer_s3_b1.c:806: ERROR: no line number 806 in file E:\Dropbox\FAUSTO\SVILUPPI\MSX\CODE\C\MSXgl\projects\exsoccer/exsoccer_s3_b1.c
    00001000 DD 7E F9         [19] 3941 	ld	a, -7 (ix)
    00001003 DD 96 FD         [19] 3942 	sub	a, -3 (ix)
    00001006 20 1F            [12] 3943 	jr	NZ, 00138$
    00001008 DD 7E FA         [19] 3944 	ld	a, -6 (ix)
    0000100B DD 96 FE         [19] 3945 	sub	a, -2 (ix)
    0000100E 20 17            [12] 3946 	jr	NZ, 00138$
    00001010 E1               [10] 3947 	pop	hl
    00001011 E5               [11] 3948 	push	hl
    00001012 5E               [ 7] 3949 	ld	e, (hl)
    00001013 23               [ 6] 3950 	inc	hl
    00001014 56               [ 7] 3951 	ld	d, (hl)
    00001015 E1               [10] 3952 	pop	hl
    00001016 E5               [11] 3953 	push	hl
    00001017 C5               [11] 3954 	push	bc
    00001018 01 0A 00         [10] 3955 	ld	bc, #0x000a
    0000101B 09               [11] 3956 	add	hl, bc
    0000101C C1               [10] 3957 	pop	bc
    0000101D 7E               [ 7] 3958 	ld	a, (hl)
    0000101E 23               [ 6] 3959 	inc	hl
    0000101F 66               [ 7] 3960 	ld	h, (hl)
                                   3961 ;	spillPairReg hl
    00001020 6F               [ 4] 3962 	ld	l, a
                                   3963 ;	spillPairReg hl
                                   3964 ;	spillPairReg hl
    00001021 BF               [ 4] 3965 	cp	a, a
    00001022 ED 52            [15] 3966 	sbc	hl, de
    00001024 CAr4Br12         [10] 3967 	jp	Z,00139$
    00001027                       3968 00138$:
                                   3969 ;E:\Dropbox\FAUSTO\SVILUPPI\MSX\CODE\C\MSXgl\projects\exsoccer/exsoccer_s3_b1.c:807: ERROR: no line number 807 in file E:\Dropbox\FAUSTO\SVILUPPI\MSX\CODE\C\MSXgl\projects\exsoccer/exsoccer_s3_b1.c
    00001027 DD 7E F9         [19] 3970 	ld	a, -7 (ix)
    0000102A DD 96 FD         [19] 3971 	sub	a, -3 (ix)
    0000102D DD 7E FA         [19] 3972 	ld	a, -6 (ix)
    00001030 DD 9E FE         [19] 3973 	sbc	a, -2 (ix)
    00001033 30 34            [12] 3974 	jr	NC, 00102$
    00001035 E1               [10] 3975 	pop	hl
    00001036 E5               [11] 3976 	push	hl
    00001037 5E               [ 7] 3977 	ld	e, (hl)
    00001038 23               [ 6] 3978 	inc	hl
    00001039 56               [ 7] 3979 	ld	d, (hl)
    0000103A E1               [10] 3980 	pop	hl
    0000103B E5               [11] 3981 	push	hl
    0000103C C5               [11] 3982 	push	bc
    0000103D 01 0A 00         [10] 3983 	ld	bc, #0x000a
    00001040 09               [11] 3984 	add	hl, bc
    00001041 C1               [10] 3985 	pop	bc
    00001042 7E               [ 7] 3986 	ld	a, (hl)
    00001043 23               [ 6] 3987 	inc	hl
    00001044 66               [ 7] 3988 	ld	h, (hl)
                                   3989 ;	spillPairReg hl
    00001045 6F               [ 4] 3990 	ld	l, a
                                   3991 ;	spillPairReg hl
                                   3992 ;	spillPairReg hl
    00001046 AF               [ 4] 3993 	xor	a, a
    00001047 ED 52            [15] 3994 	sbc	hl, de
    00001049 30 1E            [12] 3995 	jr	NC, 00102$
                                   3996 ;E:\Dropbox\FAUSTO\SVILUPPI\MSX\CODE\C\MSXgl\projects\exsoccer/exsoccer_s3_b1.c:808: ERROR: no line number 808 in file E:\Dropbox\FAUSTO\SVILUPPI\MSX\CODE\C\MSXgl\projects\exsoccer/exsoccer_s3_b1.c
    0000104B E1               [10] 3997 	pop	hl
    0000104C E5               [11] 3998 	push	hl
    0000104D 11 06 00         [10] 3999 	ld	de, #0x0006
    00001050 19               [11] 4000 	add	hl, de
    00001051 36 02            [10] 4001 	ld	(hl), #0x02
                                   4002 ;E:\Dropbox\FAUSTO\SVILUPPI\MSX\CODE\C\MSXgl\projects\exsoccer/exsoccer_s3_b1.c:809: ERROR: no line number 809 in file E:\Dropbox\FAUSTO\SVILUPPI\MSX\CODE\C\MSXgl\projects\exsoccer/exsoccer_s3_b1.c
    00001053 69               [ 4] 4003 	ld	l, c
    00001054 60               [ 4] 4004 	ld	h, b
    00001055 5E               [ 7] 4005 	ld	e, (hl)
    00001056 23               [ 6] 4006 	inc	hl
    00001057 56               [ 7] 4007 	ld	d, (hl)
    00001058 13               [ 6] 4008 	inc	de
    00001059 69               [ 4] 4009 	ld	l, c
    0000105A 60               [ 4] 4010 	ld	h, b
    0000105B 73               [ 7] 4011 	ld	(hl), e
    0000105C 23               [ 6] 4012 	inc	hl
    0000105D 72               [ 7] 4013 	ld	(hl), d
                                   4014 ;E:\Dropbox\FAUSTO\SVILUPPI\MSX\CODE\C\MSXgl\projects\exsoccer/exsoccer_s3_b1.c:810: ERROR: no line number 810 in file E:\Dropbox\FAUSTO\SVILUPPI\MSX\CODE\C\MSXgl\projects\exsoccer/exsoccer_s3_b1.c
    0000105E E1               [10] 4015 	pop	hl
    0000105F E5               [11] 4016 	push	hl
    00001060 5E               [ 7] 4017 	ld	e, (hl)
    00001061 23               [ 6] 4018 	inc	hl
    00001062 56               [ 7] 4019 	ld	d, (hl)
    00001063 1B               [ 6] 4020 	dec	de
    00001064 E1               [10] 4021 	pop	hl
    00001065 E5               [11] 4022 	push	hl
    00001066 73               [ 7] 4023 	ld	(hl), e
    00001067 23               [ 6] 4024 	inc	hl
    00001068 72               [ 7] 4025 	ld	(hl), d
    00001069                       4026 00102$:
                                   4027 ;E:\Dropbox\FAUSTO\SVILUPPI\MSX\CODE\C\MSXgl\projects\exsoccer/exsoccer_s3_b1.c:812: ERROR: no line number 812 in file E:\Dropbox\FAUSTO\SVILUPPI\MSX\CODE\C\MSXgl\projects\exsoccer/exsoccer_s3_b1.c
    00001069 69               [ 4] 4028 	ld	l, c
    0000106A 60               [ 4] 4029 	ld	h, b
    0000106B 5E               [ 7] 4030 	ld	e, (hl)
    0000106C 23               [ 6] 4031 	inc	hl
    0000106D 56               [ 7] 4032 	ld	d, (hl)
    0000106E DD 6E FB         [19] 4033 	ld	l, -5 (ix)
    00001071 DD 66 FC         [19] 4034 	ld	h, -4 (ix)
    00001074 7E               [ 7] 4035 	ld	a, (hl)
    00001075 23               [ 6] 4036 	inc	hl
    00001076 66               [ 7] 4037 	ld	h, (hl)
                                   4038 ;	spillPairReg hl
    00001077 6F               [ 4] 4039 	ld	l, a
                                   4040 ;	spillPairReg hl
                                   4041 ;	spillPairReg hl
    00001078 AF               [ 4] 4042 	xor	a, a
    00001079 ED 52            [15] 4043 	sbc	hl, de
    0000107B 30 34            [12] 4044 	jr	NC, 00105$
    0000107D E1               [10] 4045 	pop	hl
    0000107E E5               [11] 4046 	push	hl
    0000107F 5E               [ 7] 4047 	ld	e, (hl)
    00001080 23               [ 6] 4048 	inc	hl
    00001081 56               [ 7] 4049 	ld	d, (hl)
    00001082 E1               [10] 4050 	pop	hl
    00001083 E5               [11] 4051 	push	hl
    00001084 C5               [11] 4052 	push	bc
    00001085 01 0A 00         [10] 4053 	ld	bc, #0x000a
    00001088 09               [11] 4054 	add	hl, bc
    00001089 C1               [10] 4055 	pop	bc
    0000108A 7E               [ 7] 4056 	ld	a, (hl)
    0000108B 23               [ 6] 4057 	inc	hl
    0000108C 66               [ 7] 4058 	ld	h, (hl)
                                   4059 ;	spillPairReg hl
    0000108D 6F               [ 4] 4060 	ld	l, a
                                   4061 ;	spillPairReg hl
                                   4062 ;	spillPairReg hl
    0000108E AF               [ 4] 4063 	xor	a, a
    0000108F ED 52            [15] 4064 	sbc	hl, de
    00001091 30 1E            [12] 4065 	jr	NC, 00105$
                                   4066 ;E:\Dropbox\FAUSTO\SVILUPPI\MSX\CODE\C\MSXgl\projects\exsoccer/exsoccer_s3_b1.c:813: ERROR: no line number 813 in file E:\Dropbox\FAUSTO\SVILUPPI\MSX\CODE\C\MSXgl\projects\exsoccer/exsoccer_s3_b1.c
    00001093 E1               [10] 4067 	pop	hl
    00001094 E5               [11] 4068 	push	hl
    00001095 11 06 00         [10] 4069 	ld	de, #0x0006
    00001098 19               [11] 4070 	add	hl, de
    00001099 36 08            [10] 4071 	ld	(hl), #0x08
                                   4072 ;E:\Dropbox\FAUSTO\SVILUPPI\MSX\CODE\C\MSXgl\projects\exsoccer/exsoccer_s3_b1.c:814: ERROR: no line number 814 in file E:\Dropbox\FAUSTO\SVILUPPI\MSX\CODE\C\MSXgl\projects\exsoccer/exsoccer_s3_b1.c
    0000109B 69               [ 4] 4073 	ld	l, c
    0000109C 60               [ 4] 4074 	ld	h, b
    0000109D 5E               [ 7] 4075 	ld	e, (hl)
    0000109E 23               [ 6] 4076 	inc	hl
    0000109F 56               [ 7] 4077 	ld	d, (hl)
    000010A0 1B               [ 6] 4078 	dec	de
    000010A1 69               [ 4] 4079 	ld	l, c
    000010A2 60               [ 4] 4080 	ld	h, b
    000010A3 73               [ 7] 4081 	ld	(hl), e
    000010A4 23               [ 6] 4082 	inc	hl
    000010A5 72               [ 7] 4083 	ld	(hl), d
                                   4084 ;E:\Dropbox\FAUSTO\SVILUPPI\MSX\CODE\C\MSXgl\projects\exsoccer/exsoccer_s3_b1.c:815: ERROR: no line number 815 in file E:\Dropbox\FAUSTO\SVILUPPI\MSX\CODE\C\MSXgl\projects\exsoccer/exsoccer_s3_b1.c
    000010A6 E1               [10] 4085 	pop	hl
    000010A7 E5               [11] 4086 	push	hl
    000010A8 5E               [ 7] 4087 	ld	e, (hl)
    000010A9 23               [ 6] 4088 	inc	hl
    000010AA 56               [ 7] 4089 	ld	d, (hl)
    000010AB 1B               [ 6] 4090 	dec	de
    000010AC E1               [10] 4091 	pop	hl
    000010AD E5               [11] 4092 	push	hl
    000010AE 73               [ 7] 4093 	ld	(hl), e
    000010AF 23               [ 6] 4094 	inc	hl
    000010B0 72               [ 7] 4095 	ld	(hl), d
    000010B1                       4096 00105$:
                                   4097 ;E:\Dropbox\FAUSTO\SVILUPPI\MSX\CODE\C\MSXgl\projects\exsoccer/exsoccer_s3_b1.c:817: ERROR: no line number 817 in file E:\Dropbox\FAUSTO\SVILUPPI\MSX\CODE\C\MSXgl\projects\exsoccer/exsoccer_s3_b1.c
    000010B1 69               [ 4] 4098 	ld	l, c
    000010B2 60               [ 4] 4099 	ld	h, b
    000010B3 5E               [ 7] 4100 	ld	e, (hl)
    000010B4 23               [ 6] 4101 	inc	hl
    000010B5 56               [ 7] 4102 	ld	d, (hl)
    000010B6 DD 6E FB         [19] 4103 	ld	l, -5 (ix)
    000010B9 DD 66 FC         [19] 4104 	ld	h, -4 (ix)
    000010BC 7E               [ 7] 4105 	ld	a, (hl)
    000010BD 23               [ 6] 4106 	inc	hl
    000010BE 66               [ 7] 4107 	ld	h, (hl)
                                   4108 ;	spillPairReg hl
    000010BF 6F               [ 4] 4109 	ld	l, a
                                   4110 ;	spillPairReg hl
                                   4111 ;	spillPairReg hl
    000010C0 AF               [ 4] 4112 	xor	a, a
    000010C1 ED 52            [15] 4113 	sbc	hl, de
    000010C3 30 35            [12] 4114 	jr	NC, 00108$
    000010C5 E1               [10] 4115 	pop	hl
    000010C6 E5               [11] 4116 	push	hl
    000010C7 5E               [ 7] 4117 	ld	e, (hl)
    000010C8 23               [ 6] 4118 	inc	hl
    000010C9 56               [ 7] 4119 	ld	d, (hl)
    000010CA E1               [10] 4120 	pop	hl
    000010CB E5               [11] 4121 	push	hl
    000010CC C5               [11] 4122 	push	bc
    000010CD 01 0A 00         [10] 4123 	ld	bc, #0x000a
    000010D0 09               [11] 4124 	add	hl, bc
    000010D1 C1               [10] 4125 	pop	bc
    000010D2 7E               [ 7] 4126 	ld	a, (hl)
    000010D3 23               [ 6] 4127 	inc	hl
    000010D4 66               [ 7] 4128 	ld	h, (hl)
                                   4129 ;	spillPairReg hl
    000010D5 6F               [ 4] 4130 	ld	l, a
                                   4131 ;	spillPairReg hl
                                   4132 ;	spillPairReg hl
    000010D6 7B               [ 4] 4133 	ld	a, e
    000010D7 95               [ 4] 4134 	sub	a, l
    000010D8 7A               [ 4] 4135 	ld	a, d
    000010D9 9C               [ 4] 4136 	sbc	a, h
    000010DA 30 1E            [12] 4137 	jr	NC, 00108$
                                   4138 ;E:\Dropbox\FAUSTO\SVILUPPI\MSX\CODE\C\MSXgl\projects\exsoccer/exsoccer_s3_b1.c:818: ERROR: no line number 818 in file E:\Dropbox\FAUSTO\SVILUPPI\MSX\CODE\C\MSXgl\projects\exsoccer/exsoccer_s3_b1.c
    000010DC E1               [10] 4139 	pop	hl
    000010DD E5               [11] 4140 	push	hl
    000010DE 11 06 00         [10] 4141 	ld	de, #0x0006
    000010E1 19               [11] 4142 	add	hl, de
    000010E2 36 06            [10] 4143 	ld	(hl), #0x06
                                   4144 ;E:\Dropbox\FAUSTO\SVILUPPI\MSX\CODE\C\MSXgl\projects\exsoccer/exsoccer_s3_b1.c:819: ERROR: no line number 819 in file E:\Dropbox\FAUSTO\SVILUPPI\MSX\CODE\C\MSXgl\projects\exsoccer/exsoccer_s3_b1.c
    000010E4 69               [ 4] 4145 	ld	l, c
    000010E5 60               [ 4] 4146 	ld	h, b
    000010E6 5E               [ 7] 4147 	ld	e, (hl)
    000010E7 23               [ 6] 4148 	inc	hl
    000010E8 56               [ 7] 4149 	ld	d, (hl)
    000010E9 1B               [ 6] 4150 	dec	de
    000010EA 69               [ 4] 4151 	ld	l, c
    000010EB 60               [ 4] 4152 	ld	h, b
    000010EC 73               [ 7] 4153 	ld	(hl), e
    000010ED 23               [ 6] 4154 	inc	hl
    000010EE 72               [ 7] 4155 	ld	(hl), d
                                   4156 ;E:\Dropbox\FAUSTO\SVILUPPI\MSX\CODE\C\MSXgl\projects\exsoccer/exsoccer_s3_b1.c:820: ERROR: no line number 820 in file E:\Dropbox\FAUSTO\SVILUPPI\MSX\CODE\C\MSXgl\projects\exsoccer/exsoccer_s3_b1.c
    000010EF E1               [10] 4157 	pop	hl
    000010F0 E5               [11] 4158 	push	hl
    000010F1 5E               [ 7] 4159 	ld	e, (hl)
    000010F2 23               [ 6] 4160 	inc	hl
    000010F3 56               [ 7] 4161 	ld	d, (hl)
    000010F4 13               [ 6] 4162 	inc	de
    000010F5 E1               [10] 4163 	pop	hl
    000010F6 E5               [11] 4164 	push	hl
    000010F7 73               [ 7] 4165 	ld	(hl), e
    000010F8 23               [ 6] 4166 	inc	hl
    000010F9 72               [ 7] 4167 	ld	(hl), d
    000010FA                       4168 00108$:
                                   4169 ;E:\Dropbox\FAUSTO\SVILUPPI\MSX\CODE\C\MSXgl\projects\exsoccer/exsoccer_s3_b1.c:823: ERROR: no line number 823 in file E:\Dropbox\FAUSTO\SVILUPPI\MSX\CODE\C\MSXgl\projects\exsoccer/exsoccer_s3_b1.c
    000010FA 69               [ 4] 4170 	ld	l, c
    000010FB 60               [ 4] 4171 	ld	h, b
    000010FC 5E               [ 7] 4172 	ld	e, (hl)
    000010FD 23               [ 6] 4173 	inc	hl
    000010FE 56               [ 7] 4174 	ld	d, (hl)
    000010FF DD 6E FB         [19] 4175 	ld	l, -5 (ix)
    00001102 DD 66 FC         [19] 4176 	ld	h, -4 (ix)
    00001105 7E               [ 7] 4177 	ld	a, (hl)
    00001106 23               [ 6] 4178 	inc	hl
    00001107 66               [ 7] 4179 	ld	h, (hl)
                                   4180 ;	spillPairReg hl
    00001108 6F               [ 4] 4181 	ld	l, a
                                   4182 ;	spillPairReg hl
                                   4183 ;	spillPairReg hl
    00001109 7B               [ 4] 4184 	ld	a, e
    0000110A 95               [ 4] 4185 	sub	a, l
    0000110B 7A               [ 4] 4186 	ld	a, d
    0000110C 9C               [ 4] 4187 	sbc	a, h
    0000110D 30 35            [12] 4188 	jr	NC, 00111$
    0000110F E1               [10] 4189 	pop	hl
    00001110 E5               [11] 4190 	push	hl
    00001111 5E               [ 7] 4191 	ld	e, (hl)
    00001112 23               [ 6] 4192 	inc	hl
    00001113 56               [ 7] 4193 	ld	d, (hl)
    00001114 E1               [10] 4194 	pop	hl
    00001115 E5               [11] 4195 	push	hl
    00001116 C5               [11] 4196 	push	bc
    00001117 01 0A 00         [10] 4197 	ld	bc, #0x000a
    0000111A 09               [11] 4198 	add	hl, bc
    0000111B C1               [10] 4199 	pop	bc
    0000111C 7E               [ 7] 4200 	ld	a, (hl)
    0000111D 23               [ 6] 4201 	inc	hl
    0000111E 66               [ 7] 4202 	ld	h, (hl)
                                   4203 ;	spillPairReg hl
    0000111F 6F               [ 4] 4204 	ld	l, a
                                   4205 ;	spillPairReg hl
                                   4206 ;	spillPairReg hl
    00001120 7B               [ 4] 4207 	ld	a, e
    00001121 95               [ 4] 4208 	sub	a, l
    00001122 7A               [ 4] 4209 	ld	a, d
    00001123 9C               [ 4] 4210 	sbc	a, h
    00001124 30 1E            [12] 4211 	jr	NC, 00111$
                                   4212 ;E:\Dropbox\FAUSTO\SVILUPPI\MSX\CODE\C\MSXgl\projects\exsoccer/exsoccer_s3_b1.c:824: ERROR: no line number 824 in file E:\Dropbox\FAUSTO\SVILUPPI\MSX\CODE\C\MSXgl\projects\exsoccer/exsoccer_s3_b1.c
    00001126 E1               [10] 4213 	pop	hl
    00001127 E5               [11] 4214 	push	hl
    00001128 11 06 00         [10] 4215 	ld	de, #0x0006
    0000112B 19               [11] 4216 	add	hl, de
    0000112C 36 04            [10] 4217 	ld	(hl), #0x04
                                   4218 ;E:\Dropbox\FAUSTO\SVILUPPI\MSX\CODE\C\MSXgl\projects\exsoccer/exsoccer_s3_b1.c:825: ERROR: no line number 825 in file E:\Dropbox\FAUSTO\SVILUPPI\MSX\CODE\C\MSXgl\projects\exsoccer/exsoccer_s3_b1.c
    0000112E 69               [ 4] 4219 	ld	l, c
    0000112F 60               [ 4] 4220 	ld	h, b
    00001130 5E               [ 7] 4221 	ld	e, (hl)
    00001131 23               [ 6] 4222 	inc	hl
    00001132 56               [ 7] 4223 	ld	d, (hl)
    00001133 13               [ 6] 4224 	inc	de
    00001134 69               [ 4] 4225 	ld	l, c
    00001135 60               [ 4] 4226 	ld	h, b
    00001136 73               [ 7] 4227 	ld	(hl), e
    00001137 23               [ 6] 4228 	inc	hl
    00001138 72               [ 7] 4229 	ld	(hl), d
                                   4230 ;E:\Dropbox\FAUSTO\SVILUPPI\MSX\CODE\C\MSXgl\projects\exsoccer/exsoccer_s3_b1.c:826: ERROR: no line number 826 in file E:\Dropbox\FAUSTO\SVILUPPI\MSX\CODE\C\MSXgl\projects\exsoccer/exsoccer_s3_b1.c
    00001139 E1               [10] 4231 	pop	hl
    0000113A E5               [11] 4232 	push	hl
    0000113B 5E               [ 7] 4233 	ld	e, (hl)
    0000113C 23               [ 6] 4234 	inc	hl
    0000113D 56               [ 7] 4235 	ld	d, (hl)
    0000113E 13               [ 6] 4236 	inc	de
    0000113F E1               [10] 4237 	pop	hl
    00001140 E5               [11] 4238 	push	hl
    00001141 73               [ 7] 4239 	ld	(hl), e
    00001142 23               [ 6] 4240 	inc	hl
    00001143 72               [ 7] 4241 	ld	(hl), d
    00001144                       4242 00111$:
                                   4243 ;E:\Dropbox\FAUSTO\SVILUPPI\MSX\CODE\C\MSXgl\projects\exsoccer/exsoccer_s3_b1.c:829: ERROR: no line number 829 in file E:\Dropbox\FAUSTO\SVILUPPI\MSX\CODE\C\MSXgl\projects\exsoccer/exsoccer_s3_b1.c
    00001144 69               [ 4] 4244 	ld	l, c
    00001145 60               [ 4] 4245 	ld	h, b
    00001146 5E               [ 7] 4246 	ld	e, (hl)
    00001147 23               [ 6] 4247 	inc	hl
    00001148 56               [ 7] 4248 	ld	d, (hl)
    00001149 DD 6E FB         [19] 4249 	ld	l, -5 (ix)
    0000114C DD 66 FC         [19] 4250 	ld	h, -4 (ix)
    0000114F 7E               [ 7] 4251 	ld	a, (hl)
    00001150 23               [ 6] 4252 	inc	hl
    00001151 66               [ 7] 4253 	ld	h, (hl)
                                   4254 ;	spillPairReg hl
    00001152 6F               [ 4] 4255 	ld	l, a
                                   4256 ;	spillPairReg hl
                                   4257 ;	spillPairReg hl
    00001153 7B               [ 4] 4258 	ld	a, e
    00001154 95               [ 4] 4259 	sub	a, l
    00001155 7A               [ 4] 4260 	ld	a, d
    00001156 9C               [ 4] 4261 	sbc	a, h
    00001157 30 29            [12] 4262 	jr	NC, 00114$
    00001159 E1               [10] 4263 	pop	hl
    0000115A E5               [11] 4264 	push	hl
    0000115B 5E               [ 7] 4265 	ld	e, (hl)
    0000115C 23               [ 6] 4266 	inc	hl
    0000115D 56               [ 7] 4267 	ld	d, (hl)
    0000115E E1               [10] 4268 	pop	hl
    0000115F E5               [11] 4269 	push	hl
    00001160 C5               [11] 4270 	push	bc
    00001161 01 0A 00         [10] 4271 	ld	bc, #0x000a
    00001164 09               [11] 4272 	add	hl, bc
    00001165 C1               [10] 4273 	pop	bc
    00001166 7E               [ 7] 4274 	ld	a, (hl)
    00001167 23               [ 6] 4275 	inc	hl
    00001168 66               [ 7] 4276 	ld	h, (hl)
                                   4277 ;	spillPairReg hl
    00001169 6F               [ 4] 4278 	ld	l, a
                                   4279 ;	spillPairReg hl
                                   4280 ;	spillPairReg hl
    0000116A BF               [ 4] 4281 	cp	a, a
    0000116B ED 52            [15] 4282 	sbc	hl, de
    0000116D 20 13            [12] 4283 	jr	NZ, 00114$
                                   4284 ;E:\Dropbox\FAUSTO\SVILUPPI\MSX\CODE\C\MSXgl\projects\exsoccer/exsoccer_s3_b1.c:830: ERROR: no line number 830 in file E:\Dropbox\FAUSTO\SVILUPPI\MSX\CODE\C\MSXgl\projects\exsoccer/exsoccer_s3_b1.c
    0000116F E1               [10] 4285 	pop	hl
    00001170 E5               [11] 4286 	push	hl
    00001171 11 06 00         [10] 4287 	ld	de, #0x0006
    00001174 19               [11] 4288 	add	hl, de
    00001175 36 03            [10] 4289 	ld	(hl), #0x03
                                   4290 ;E:\Dropbox\FAUSTO\SVILUPPI\MSX\CODE\C\MSXgl\projects\exsoccer/exsoccer_s3_b1.c:831: ERROR: no line number 831 in file E:\Dropbox\FAUSTO\SVILUPPI\MSX\CODE\C\MSXgl\projects\exsoccer/exsoccer_s3_b1.c
    00001177 69               [ 4] 4291 	ld	l, c
    00001178 60               [ 4] 4292 	ld	h, b
    00001179 5E               [ 7] 4293 	ld	e, (hl)
    0000117A 23               [ 6] 4294 	inc	hl
    0000117B 56               [ 7] 4295 	ld	d, (hl)
    0000117C 13               [ 6] 4296 	inc	de
    0000117D 69               [ 4] 4297 	ld	l, c
    0000117E 60               [ 4] 4298 	ld	h, b
    0000117F 73               [ 7] 4299 	ld	(hl), e
    00001180 23               [ 6] 4300 	inc	hl
    00001181 72               [ 7] 4301 	ld	(hl), d
    00001182                       4302 00114$:
                                   4303 ;E:\Dropbox\FAUSTO\SVILUPPI\MSX\CODE\C\MSXgl\projects\exsoccer/exsoccer_s3_b1.c:833: ERROR: no line number 833 in file E:\Dropbox\FAUSTO\SVILUPPI\MSX\CODE\C\MSXgl\projects\exsoccer/exsoccer_s3_b1.c
    00001182 69               [ 4] 4304 	ld	l, c
    00001183 60               [ 4] 4305 	ld	h, b
    00001184 5E               [ 7] 4306 	ld	e, (hl)
    00001185 23               [ 6] 4307 	inc	hl
    00001186 56               [ 7] 4308 	ld	d, (hl)
    00001187 DD 6E FB         [19] 4309 	ld	l, -5 (ix)
    0000118A DD 66 FC         [19] 4310 	ld	h, -4 (ix)
    0000118D 7E               [ 7] 4311 	ld	a, (hl)
    0000118E 23               [ 6] 4312 	inc	hl
    0000118F 66               [ 7] 4313 	ld	h, (hl)
                                   4314 ;	spillPairReg hl
    00001190 6F               [ 4] 4315 	ld	l, a
                                   4316 ;	spillPairReg hl
                                   4317 ;	spillPairReg hl
    00001191 AF               [ 4] 4318 	xor	a, a
    00001192 ED 52            [15] 4319 	sbc	hl, de
    00001194 30 29            [12] 4320 	jr	NC, 00117$
    00001196 E1               [10] 4321 	pop	hl
    00001197 E5               [11] 4322 	push	hl
    00001198 5E               [ 7] 4323 	ld	e, (hl)
    00001199 23               [ 6] 4324 	inc	hl
    0000119A 56               [ 7] 4325 	ld	d, (hl)
    0000119B E1               [10] 4326 	pop	hl
    0000119C E5               [11] 4327 	push	hl
    0000119D C5               [11] 4328 	push	bc
    0000119E 01 0A 00         [10] 4329 	ld	bc, #0x000a
    000011A1 09               [11] 4330 	add	hl, bc
    000011A2 C1               [10] 4331 	pop	bc
    000011A3 7E               [ 7] 4332 	ld	a, (hl)
    000011A4 23               [ 6] 4333 	inc	hl
    000011A5 66               [ 7] 4334 	ld	h, (hl)
                                   4335 ;	spillPairReg hl
    000011A6 6F               [ 4] 4336 	ld	l, a
                                   4337 ;	spillPairReg hl
                                   4338 ;	spillPairReg hl
    000011A7 BF               [ 4] 4339 	cp	a, a
    000011A8 ED 52            [15] 4340 	sbc	hl, de
    000011AA 20 13            [12] 4341 	jr	NZ, 00117$
                                   4342 ;E:\Dropbox\FAUSTO\SVILUPPI\MSX\CODE\C\MSXgl\projects\exsoccer/exsoccer_s3_b1.c:834: ERROR: no line number 834 in file E:\Dropbox\FAUSTO\SVILUPPI\MSX\CODE\C\MSXgl\projects\exsoccer/exsoccer_s3_b1.c
    000011AC E1               [10] 4343 	pop	hl
    000011AD E5               [11] 4344 	push	hl
    000011AE 11 06 00         [10] 4345 	ld	de, #0x0006
    000011B1 19               [11] 4346 	add	hl, de
    000011B2 36 07            [10] 4347 	ld	(hl), #0x07
                                   4348 ;E:\Dropbox\FAUSTO\SVILUPPI\MSX\CODE\C\MSXgl\projects\exsoccer/exsoccer_s3_b1.c:835: ERROR: no line number 835 in file E:\Dropbox\FAUSTO\SVILUPPI\MSX\CODE\C\MSXgl\projects\exsoccer/exsoccer_s3_b1.c
    000011B4 69               [ 4] 4349 	ld	l, c
    000011B5 60               [ 4] 4350 	ld	h, b
    000011B6 5E               [ 7] 4351 	ld	e, (hl)
    000011B7 23               [ 6] 4352 	inc	hl
    000011B8 56               [ 7] 4353 	ld	d, (hl)
    000011B9 1B               [ 6] 4354 	dec	de
    000011BA 69               [ 4] 4355 	ld	l, c
    000011BB 60               [ 4] 4356 	ld	h, b
    000011BC 73               [ 7] 4357 	ld	(hl), e
    000011BD 23               [ 6] 4358 	inc	hl
    000011BE 72               [ 7] 4359 	ld	(hl), d
    000011BF                       4360 00117$:
                                   4361 ;E:\Dropbox\FAUSTO\SVILUPPI\MSX\CODE\C\MSXgl\projects\exsoccer/exsoccer_s3_b1.c:837: ERROR: no line number 837 in file E:\Dropbox\FAUSTO\SVILUPPI\MSX\CODE\C\MSXgl\projects\exsoccer/exsoccer_s3_b1.c
    000011BF 69               [ 4] 4362 	ld	l, c
    000011C0 60               [ 4] 4363 	ld	h, b
    000011C1 5E               [ 7] 4364 	ld	e, (hl)
    000011C2 23               [ 6] 4365 	inc	hl
    000011C3 56               [ 7] 4366 	ld	d, (hl)
    000011C4 DD 6E FB         [19] 4367 	ld	l, -5 (ix)
    000011C7 DD 66 FC         [19] 4368 	ld	h, -4 (ix)
    000011CA 7E               [ 7] 4369 	ld	a, (hl)
    000011CB 23               [ 6] 4370 	inc	hl
    000011CC 66               [ 7] 4371 	ld	h, (hl)
                                   4372 ;	spillPairReg hl
    000011CD 6F               [ 4] 4373 	ld	l, a
                                   4374 ;	spillPairReg hl
                                   4375 ;	spillPairReg hl
    000011CE BF               [ 4] 4376 	cp	a, a
    000011CF ED 52            [15] 4377 	sbc	hl, de
    000011D1 20 29            [12] 4378 	jr	NZ, 00120$
    000011D3 E1               [10] 4379 	pop	hl
    000011D4 E5               [11] 4380 	push	hl
    000011D5 5E               [ 7] 4381 	ld	e, (hl)
    000011D6 23               [ 6] 4382 	inc	hl
    000011D7 56               [ 7] 4383 	ld	d, (hl)
    000011D8 E1               [10] 4384 	pop	hl
    000011D9 E5               [11] 4385 	push	hl
    000011DA C5               [11] 4386 	push	bc
    000011DB 01 0A 00         [10] 4387 	ld	bc, #0x000a
    000011DE 09               [11] 4388 	add	hl, bc
    000011DF C1               [10] 4389 	pop	bc
    000011E0 7E               [ 7] 4390 	ld	a, (hl)
    000011E1 23               [ 6] 4391 	inc	hl
    000011E2 66               [ 7] 4392 	ld	h, (hl)
                                   4393 ;	spillPairReg hl
    000011E3 6F               [ 4] 4394 	ld	l, a
                                   4395 ;	spillPairReg hl
                                   4396 ;	spillPairReg hl
    000011E4 AF               [ 4] 4397 	xor	a, a
    000011E5 ED 52            [15] 4398 	sbc	hl, de
    000011E7 30 13            [12] 4399 	jr	NC, 00120$
                                   4400 ;E:\Dropbox\FAUSTO\SVILUPPI\MSX\CODE\C\MSXgl\projects\exsoccer/exsoccer_s3_b1.c:838: ERROR: no line number 838 in file E:\Dropbox\FAUSTO\SVILUPPI\MSX\CODE\C\MSXgl\projects\exsoccer/exsoccer_s3_b1.c
    000011E9 E1               [10] 4401 	pop	hl
    000011EA E5               [11] 4402 	push	hl
    000011EB 11 06 00         [10] 4403 	ld	de, #0x0006
    000011EE 19               [11] 4404 	add	hl, de
    000011EF 36 01            [10] 4405 	ld	(hl), #0x01
                                   4406 ;E:\Dropbox\FAUSTO\SVILUPPI\MSX\CODE\C\MSXgl\projects\exsoccer/exsoccer_s3_b1.c:839: ERROR: no line number 839 in file E:\Dropbox\FAUSTO\SVILUPPI\MSX\CODE\C\MSXgl\projects\exsoccer/exsoccer_s3_b1.c
    000011F1 E1               [10] 4407 	pop	hl
    000011F2 E5               [11] 4408 	push	hl
    000011F3 5E               [ 7] 4409 	ld	e, (hl)
    000011F4 23               [ 6] 4410 	inc	hl
    000011F5 56               [ 7] 4411 	ld	d, (hl)
    000011F6 1B               [ 6] 4412 	dec	de
    000011F7 E1               [10] 4413 	pop	hl
    000011F8 E5               [11] 4414 	push	hl
    000011F9 73               [ 7] 4415 	ld	(hl), e
    000011FA 23               [ 6] 4416 	inc	hl
    000011FB 72               [ 7] 4417 	ld	(hl), d
    000011FC                       4418 00120$:
                                   4419 ;E:\Dropbox\FAUSTO\SVILUPPI\MSX\CODE\C\MSXgl\projects\exsoccer/exsoccer_s3_b1.c:841: ERROR: no line number 841 in file E:\Dropbox\FAUSTO\SVILUPPI\MSX\CODE\C\MSXgl\projects\exsoccer/exsoccer_s3_b1.c
    000011FC 69               [ 4] 4420 	ld	l, c
    000011FD 60               [ 4] 4421 	ld	h, b
    000011FE 4E               [ 7] 4422 	ld	c, (hl)
    000011FF 23               [ 6] 4423 	inc	hl
    00001200 46               [ 7] 4424 	ld	b, (hl)
    00001201 DD 6E FB         [19] 4425 	ld	l, -5 (ix)
    00001204 DD 66 FC         [19] 4426 	ld	h, -4 (ix)
    00001207 5E               [ 7] 4427 	ld	e, (hl)
    00001208 23               [ 6] 4428 	inc	hl
    00001209 66               [ 7] 4429 	ld	h, (hl)
                                   4430 ;	spillPairReg hl
    0000120A 6B               [ 4] 4431 	ld	l, e
    0000120B BF               [ 4] 4432 	cp	a, a
    0000120C ED 42            [15] 4433 	sbc	hl, bc
    0000120E 20 27            [12] 4434 	jr	NZ, 00123$
    00001210 E1               [10] 4435 	pop	hl
    00001211 E5               [11] 4436 	push	hl
    00001212 4E               [ 7] 4437 	ld	c, (hl)
    00001213 23               [ 6] 4438 	inc	hl
    00001214 46               [ 7] 4439 	ld	b, (hl)
    00001215 D1               [10] 4440 	pop	de
    00001216 D5               [11] 4441 	push	de
    00001217 21 0A 00         [10] 4442 	ld	hl, #10
    0000121A 19               [11] 4443 	add	hl, de
    0000121B 5E               [ 7] 4444 	ld	e, (hl)
    0000121C 23               [ 6] 4445 	inc	hl
    0000121D 56               [ 7] 4446 	ld	d, (hl)
    0000121E 79               [ 4] 4447 	ld	a, c
    0000121F 93               [ 4] 4448 	sub	a, e
    00001220 78               [ 4] 4449 	ld	a, b
    00001221 9A               [ 4] 4450 	sbc	a, d
    00001222 30 13            [12] 4451 	jr	NC, 00123$
                                   4452 ;E:\Dropbox\FAUSTO\SVILUPPI\MSX\CODE\C\MSXgl\projects\exsoccer/exsoccer_s3_b1.c:842: ERROR: no line number 842 in file E:\Dropbox\FAUSTO\SVILUPPI\MSX\CODE\C\MSXgl\projects\exsoccer/exsoccer_s3_b1.c
    00001224 E1               [10] 4453 	pop	hl
    00001225 E5               [11] 4454 	push	hl
    00001226 11 06 00         [10] 4455 	ld	de, #0x0006
    00001229 19               [11] 4456 	add	hl, de
    0000122A 36 05            [10] 4457 	ld	(hl), #0x05
                                   4458 ;E:\Dropbox\FAUSTO\SVILUPPI\MSX\CODE\C\MSXgl\projects\exsoccer/exsoccer_s3_b1.c:843: ERROR: no line number 843 in file E:\Dropbox\FAUSTO\SVILUPPI\MSX\CODE\C\MSXgl\projects\exsoccer/exsoccer_s3_b1.c
    0000122C E1               [10] 4459 	pop	hl
    0000122D E5               [11] 4460 	push	hl
    0000122E 4E               [ 7] 4461 	ld	c, (hl)
    0000122F 23               [ 6] 4462 	inc	hl
    00001230 46               [ 7] 4463 	ld	b, (hl)
    00001231 03               [ 6] 4464 	inc	bc
    00001232 E1               [10] 4465 	pop	hl
    00001233 E5               [11] 4466 	push	hl
    00001234 71               [ 7] 4467 	ld	(hl), c
    00001235 23               [ 6] 4468 	inc	hl
    00001236 70               [ 7] 4469 	ld	(hl), b
    00001237                       4470 00123$:
                                   4471 ;E:\Dropbox\FAUSTO\SVILUPPI\MSX\CODE\C\MSXgl\projects\exsoccer/exsoccer_s3_b1.c:845: ERROR: no line number 845 in file E:\Dropbox\FAUSTO\SVILUPPI\MSX\CODE\C\MSXgl\projects\exsoccer/exsoccer_s3_b1.c
    00001237 E1               [10] 4472 	pop	hl
    00001238 E5               [11] 4473 	push	hl
    00001239 11 08 00         [10] 4474 	ld	de, #0x0008
    0000123C 19               [11] 4475 	add	hl, de
    0000123D 7E               [ 7] 4476 	ld	a, (hl)
    0000123E B7               [ 4] 4477 	or	a, a
    0000123F 20 05            [12] 4478 	jr	NZ, 00126$
                                   4479 ;E:\Dropbox\FAUSTO\SVILUPPI\MSX\CODE\C\MSXgl\projects\exsoccer/exsoccer_s3_b1.c:846: ERROR: no line number 846 in file E:\Dropbox\FAUSTO\SVILUPPI\MSX\CODE\C\MSXgl\projects\exsoccer/exsoccer_s3_b1.c
    00001241 36 01            [10] 4480 	ld	(hl), #0x01
    00001243 C3rB8r12         [10] 4481 	jp	00147$
    00001246                       4482 00126$:
                                   4483 ;E:\Dropbox\FAUSTO\SVILUPPI\MSX\CODE\C\MSXgl\projects\exsoccer/exsoccer_s3_b1.c:849: ERROR: no line number 849 in file E:\Dropbox\FAUSTO\SVILUPPI\MSX\CODE\C\MSXgl\projects\exsoccer/exsoccer_s3_b1.c
    00001246 36 00            [10] 4484 	ld	(hl), #0x00
    00001248 C3rB8r12         [10] 4485 	jp	00147$
    0000124B                       4486 00139$:
                                   4487 ;E:\Dropbox\FAUSTO\SVILUPPI\MSX\CODE\C\MSXgl\projects\exsoccer/exsoccer_s3_b1.c:854: ERROR: no line number 854 in file E:\Dropbox\FAUSTO\SVILUPPI\MSX\CODE\C\MSXgl\projects\exsoccer/exsoccer_s3_b1.c
    0000124B 3Ar00r00         [13] 4488 	ld	a, (_g_MatchStatus+0)
    0000124E 3D               [ 4] 4489 	dec	a
    0000124F 20 67            [12] 4490 	jr	NZ, 00147$
                                   4491 ;E:\Dropbox\FAUSTO\SVILUPPI\MSX\CODE\C\MSXgl\projects\exsoccer/exsoccer_s3_b1.c:856: ERROR: no line number 856 in file E:\Dropbox\FAUSTO\SVILUPPI\MSX\CODE\C\MSXgl\projects\exsoccer/exsoccer_s3_b1.c
    00001251 DD 7E F7         [19] 4492 	ld	a, -9 (ix)
    00001254 C6 04            [ 7] 4493 	add	a, #0x04
    00001256 4F               [ 4] 4494 	ld	c, a
    00001257 DD 7E F8         [19] 4495 	ld	a, -8 (ix)
    0000125A CE 00            [ 7] 4496 	adc	a, #0x00
    0000125C 47               [ 4] 4497 	ld	b, a
    0000125D 0A               [ 7] 4498 	ld	a, (bc)
    0000125E DD 77 FE         [19] 4499 	ld	-2 (ix), a
    00001261 D6 11            [ 7] 4500 	sub	a, #0x11
    00001263 28 3E            [12] 4501 	jr	Z, 00132$
    00001265 DD 7E FE         [19] 4502 	ld	a, -2 (ix)
    00001268 D6 10            [ 7] 4503 	sub	a, #0x10
    0000126A 28 37            [12] 4504 	jr	Z, 00132$
                                   4505 ;E:\Dropbox\FAUSTO\SVILUPPI\MSX\CODE\C\MSXgl\projects\exsoccer/exsoccer_s3_b1.c:857: ERROR: no line number 857 in file E:\Dropbox\FAUSTO\SVILUPPI\MSX\CODE\C\MSXgl\projects\exsoccer/exsoccer_s3_b1.c
    0000126C E1               [10] 4506 	pop	hl
    0000126D E5               [11] 4507 	push	hl
    0000126E 11 0E 00         [10] 4508 	ld	de, #0x000e
    00001271 19               [11] 4509 	add	hl, de
    00001272 36 04            [10] 4510 	ld	(hl), #0x04
    00001274 23               [ 6] 4511 	inc	hl
    00001275 36 00            [10] 4512 	ld	(hl), #0x00
                                   4513 ;E:\Dropbox\FAUSTO\SVILUPPI\MSX\CODE\C\MSXgl\projects\exsoccer/exsoccer_s3_b1.c:858: ERROR: no line number 858 in file E:\Dropbox\FAUSTO\SVILUPPI\MSX\CODE\C\MSXgl\projects\exsoccer/exsoccer_s3_b1.c
    00001277 D1               [10] 4514 	pop	de
    00001278 D5               [11] 4515 	push	de
    00001279 21 05 00         [10] 4516 	ld	hl, #5
    0000127C 19               [11] 4517 	add	hl, de
    0000127D 6E               [ 7] 4518 	ld	l, (hl)
                                   4519 ;	spillPairReg hl
                                   4520 ;E:\Dropbox\FAUSTO\SVILUPPI\MSX\CODE\C\MSXgl\projects\exsoccer/exsoccer_s3_b1.c:860: ERROR: no line number 860 in file E:\Dropbox\FAUSTO\SVILUPPI\MSX\CODE\C\MSXgl\projects\exsoccer/exsoccer_s3_b1.c
    0000127E DD 7E F7         [19] 4521 	ld	a, -9 (ix)
    00001281 C6 06            [ 7] 4522 	add	a, #0x06
    00001283 5F               [ 4] 4523 	ld	e, a
    00001284 DD 7E F8         [19] 4524 	ld	a, -8 (ix)
    00001287 CE 00            [ 7] 4525 	adc	a, #0x00
    00001289 57               [ 4] 4526 	ld	d, a
                                   4527 ;E:\Dropbox\FAUSTO\SVILUPPI\MSX\CODE\C\MSXgl\projects\exsoccer/exsoccer_s3_b1.c:858: ERROR: no line number 858 in file E:\Dropbox\FAUSTO\SVILUPPI\MSX\CODE\C\MSXgl\projects\exsoccer/exsoccer_s3_b1.c
    0000128A 7D               [ 4] 4528 	ld	a, l
    0000128B B7               [ 4] 4529 	or	a, a
    0000128C 20 09            [12] 4530 	jr	NZ, 00129$
                                   4531 ;E:\Dropbox\FAUSTO\SVILUPPI\MSX\CODE\C\MSXgl\projects\exsoccer/exsoccer_s3_b1.c:859: ERROR: no line number 859 in file E:\Dropbox\FAUSTO\SVILUPPI\MSX\CODE\C\MSXgl\projects\exsoccer/exsoccer_s3_b1.c
    0000128E 3E 11            [ 7] 4532 	ld	a, #0x11
    00001290 02               [ 7] 4533 	ld	(bc), a
                                   4534 ;E:\Dropbox\FAUSTO\SVILUPPI\MSX\CODE\C\MSXgl\projects\exsoccer/exsoccer_s3_b1.c:860: ERROR: no line number 860 in file E:\Dropbox\FAUSTO\SVILUPPI\MSX\CODE\C\MSXgl\projects\exsoccer/exsoccer_s3_b1.c
    00001291 3E 01            [ 7] 4535 	ld	a, #0x01
    00001293 12               [ 7] 4536 	ld	(de), a
    00001294 C3r9Dr12         [10] 4537 	jp	00130$
    00001297                       4538 00129$:
                                   4539 ;E:\Dropbox\FAUSTO\SVILUPPI\MSX\CODE\C\MSXgl\projects\exsoccer/exsoccer_s3_b1.c:863: ERROR: no line number 863 in file E:\Dropbox\FAUSTO\SVILUPPI\MSX\CODE\C\MSXgl\projects\exsoccer/exsoccer_s3_b1.c
    00001297 3E 10            [ 7] 4540 	ld	a, #0x10
    00001299 02               [ 7] 4541 	ld	(bc), a
                                   4542 ;E:\Dropbox\FAUSTO\SVILUPPI\MSX\CODE\C\MSXgl\projects\exsoccer/exsoccer_s3_b1.c:864: ERROR: no line number 864 in file E:\Dropbox\FAUSTO\SVILUPPI\MSX\CODE\C\MSXgl\projects\exsoccer/exsoccer_s3_b1.c
    0000129A 3E 05            [ 7] 4543 	ld	a, #0x05
    0000129C 12               [ 7] 4544 	ld	(de), a
    0000129D                       4545 00130$:
                                   4546 ;E:\Dropbox\FAUSTO\SVILUPPI\MSX\CODE\C\MSXgl\projects\exsoccer/exsoccer_s3_b1.c:866: ERROR: no line number 866 in file E:\Dropbox\FAUSTO\SVILUPPI\MSX\CODE\C\MSXgl\projects\exsoccer/exsoccer_s3_b1.c
    0000129D DD 7E FF         [19] 4547 	ld	a, -1 (ix)
    000012A0 CDrDAr0B         [17] 4548 	call	_PutPlayerSprite
    000012A3                       4549 00132$:
                                   4550 ;E:\Dropbox\FAUSTO\SVILUPPI\MSX\CODE\C\MSXgl\projects\exsoccer/exsoccer_s3_b1.c:869: ERROR: no line number 869 in file E:\Dropbox\FAUSTO\SVILUPPI\MSX\CODE\C\MSXgl\projects\exsoccer/exsoccer_s3_b1.c
    000012A3 DD 7E FF         [19] 4551 	ld	a, -1 (ix)
    000012A6 B7               [ 4] 4552 	or	a, a
    000012A7 20 0F            [12] 4553 	jr	NZ, 00147$
                                   4554 ;E:\Dropbox\FAUSTO\SVILUPPI\MSX\CODE\C\MSXgl\projects\exsoccer/exsoccer_s3_b1.c:870: ERROR: no line number 870 in file E:\Dropbox\FAUSTO\SVILUPPI\MSX\CODE\C\MSXgl\projects\exsoccer/exsoccer_s3_b1.c
    000012A9 21r00r00         [10] 4555 	ld	hl, #_g_FieldScrollSpeed
    000012AC 36 05            [10] 4556 	ld	(hl), #0x05
                                   4557 ;E:\Dropbox\FAUSTO\SVILUPPI\MSX\CODE\C\MSXgl\projects\exsoccer/exsoccer_s3_b1.c:871: ERROR: no line number 871 in file E:\Dropbox\FAUSTO\SVILUPPI\MSX\CODE\C\MSXgl\projects\exsoccer/exsoccer_s3_b1.c
    000012AE 21r00r00         [10] 4558 	ld	hl, #_g_MatchStatus
    000012B1 36 07            [10] 4559 	ld	(hl), #0x07
                                   4560 ;E:\Dropbox\FAUSTO\SVILUPPI\MSX\CODE\C\MSXgl\projects\exsoccer/exsoccer_s3_b1.c:872: ERROR: no line number 872 in file E:\Dropbox\FAUSTO\SVILUPPI\MSX\CODE\C\MSXgl\projects\exsoccer/exsoccer_s3_b1.c
    000012B3 21r00r00         [10] 4561 	ld	hl, #_g_Timer
    000012B6 36 00            [10] 4562 	ld	(hl), #0x00
    000012B8                       4563 00147$:
                                   4564 ;E:\Dropbox\FAUSTO\SVILUPPI\MSX\CODE\C\MSXgl\projects\exsoccer/exsoccer_s3_b1.c:804: ERROR: no line number 804 in file E:\Dropbox\FAUSTO\SVILUPPI\MSX\CODE\C\MSXgl\projects\exsoccer/exsoccer_s3_b1.c
    000012B8 DD 34 FF         [23] 4565 	inc	-1 (ix)
    000012BB C3rB6r0F         [10] 4566 	jp	00146$
    000012BE                       4567 00148$:
                                   4568 ;E:\Dropbox\FAUSTO\SVILUPPI\MSX\CODE\C\MSXgl\projects\exsoccer/exsoccer_s3_b1.c:880: ERROR: no line number 880 in file E:\Dropbox\FAUSTO\SVILUPPI\MSX\CODE\C\MSXgl\projects\exsoccer/exsoccer_s3_b1.c
    000012BE DD F9            [10] 4569 	ld	sp, ix
    000012C0 DD E1            [14] 4570 	pop	ix
    000012C2 C9               [10] 4571 	ret
                                   4572 ;E:\Dropbox\FAUSTO\SVILUPPI\MSX\CODE\C\MSXgl\projects\exsoccer/exsoccer_s3_b1.c:881: ERROR: no line number 881 in file E:\Dropbox\FAUSTO\SVILUPPI\MSX\CODE\C\MSXgl\projects\exsoccer/exsoccer_s3_b1.c
                                   4573 ;	---------------------------------
                                   4574 ; Function GetNewPoseByDirection
                                   4575 ; ---------------------------------
    000012C3                       4576 _GetNewPoseByDirection::
    000012C3 5F               [ 4] 4577 	ld	e, a
                                   4578 ;E:\Dropbox\FAUSTO\SVILUPPI\MSX\CODE\C\MSXgl\projects\exsoccer/exsoccer_s3_b1.c:882: ERROR: no line number 882 in file E:\Dropbox\FAUSTO\SVILUPPI\MSX\CODE\C\MSXgl\projects\exsoccer/exsoccer_s3_b1.c
    000012C4 0E FF            [ 7] 4579 	ld	c, #0xff
                                   4580 ;E:\Dropbox\FAUSTO\SVILUPPI\MSX\CODE\C\MSXgl\projects\exsoccer/exsoccer_s3_b1.c:883: ERROR: no line number 883 in file E:\Dropbox\FAUSTO\SVILUPPI\MSX\CODE\C\MSXgl\projects\exsoccer/exsoccer_s3_b1.c
    000012C6 3E 08            [ 7] 4581 	ld	a, #0x08
    000012C8 93               [ 4] 4582 	sub	a, e
    000012C9 38 49            [12] 4583 	jr	C, 00109$
    000012CB 16 00            [ 7] 4584 	ld	d, #0x00
    000012CD 21rD4r12         [10] 4585 	ld	hl, #00117$
    000012D0 19               [11] 4586 	add	hl, de
    000012D1 19               [11] 4587 	add	hl, de
    000012D2 19               [11] 4588 	add	hl, de
    000012D3 E9               [ 4] 4589 	jp	(hl)
    000012D4                       4590 00117$:
    000012D4 C3r14r13         [10] 4591 	jp	00109$
    000012D7 C3rF4r12         [10] 4592 	jp	00102$
    000012DA C3r03r13         [10] 4593 	jp	00105$
    000012DD C3rFEr12         [10] 4594 	jp	00104$
    000012E0 C3r08r13         [10] 4595 	jp	00106$
    000012E3 C3rEFr12         [10] 4596 	jp	00101$
    000012E6 C3r12r13         [10] 4597 	jp	00108$
    000012E9 C3rF9r12         [10] 4598 	jp	00103$
    000012EC C3r0Dr13         [10] 4599 	jp	00107$
                                   4600 ;E:\Dropbox\FAUSTO\SVILUPPI\MSX\CODE\C\MSXgl\projects\exsoccer/exsoccer_s3_b1.c:885: ERROR: no line number 885 in file E:\Dropbox\FAUSTO\SVILUPPI\MSX\CODE\C\MSXgl\projects\exsoccer/exsoccer_s3_b1.c
    000012EF                       4601 00101$:
                                   4602 ;E:\Dropbox\FAUSTO\SVILUPPI\MSX\CODE\C\MSXgl\projects\exsoccer/exsoccer_s3_b1.c:886: ERROR: no line number 886 in file E:\Dropbox\FAUSTO\SVILUPPI\MSX\CODE\C\MSXgl\projects\exsoccer/exsoccer_s3_b1.c
    000012EF 0E 00            [ 7] 4603 	ld	c, #0x00
                                   4604 ;E:\Dropbox\FAUSTO\SVILUPPI\MSX\CODE\C\MSXgl\projects\exsoccer/exsoccer_s3_b1.c:887: ERROR: no line number 887 in file E:\Dropbox\FAUSTO\SVILUPPI\MSX\CODE\C\MSXgl\projects\exsoccer/exsoccer_s3_b1.c
    000012F1 C3r14r13         [10] 4605 	jp	00109$
                                   4606 ;E:\Dropbox\FAUSTO\SVILUPPI\MSX\CODE\C\MSXgl\projects\exsoccer/exsoccer_s3_b1.c:888: ERROR: no line number 888 in file E:\Dropbox\FAUSTO\SVILUPPI\MSX\CODE\C\MSXgl\projects\exsoccer/exsoccer_s3_b1.c
    000012F4                       4607 00102$:
                                   4608 ;E:\Dropbox\FAUSTO\SVILUPPI\MSX\CODE\C\MSXgl\projects\exsoccer/exsoccer_s3_b1.c:889: ERROR: no line number 889 in file E:\Dropbox\FAUSTO\SVILUPPI\MSX\CODE\C\MSXgl\projects\exsoccer/exsoccer_s3_b1.c
    000012F4 0E 02            [ 7] 4609 	ld	c, #0x02
                                   4610 ;E:\Dropbox\FAUSTO\SVILUPPI\MSX\CODE\C\MSXgl\projects\exsoccer/exsoccer_s3_b1.c:890: ERROR: no line number 890 in file E:\Dropbox\FAUSTO\SVILUPPI\MSX\CODE\C\MSXgl\projects\exsoccer/exsoccer_s3_b1.c
    000012F6 C3r14r13         [10] 4611 	jp	00109$
                                   4612 ;E:\Dropbox\FAUSTO\SVILUPPI\MSX\CODE\C\MSXgl\projects\exsoccer/exsoccer_s3_b1.c:891: ERROR: no line number 891 in file E:\Dropbox\FAUSTO\SVILUPPI\MSX\CODE\C\MSXgl\projects\exsoccer/exsoccer_s3_b1.c
    000012F9                       4613 00103$:
                                   4614 ;E:\Dropbox\FAUSTO\SVILUPPI\MSX\CODE\C\MSXgl\projects\exsoccer/exsoccer_s3_b1.c:892: ERROR: no line number 892 in file E:\Dropbox\FAUSTO\SVILUPPI\MSX\CODE\C\MSXgl\projects\exsoccer/exsoccer_s3_b1.c
    000012F9 0E 05            [ 7] 4615 	ld	c, #0x05
                                   4616 ;E:\Dropbox\FAUSTO\SVILUPPI\MSX\CODE\C\MSXgl\projects\exsoccer/exsoccer_s3_b1.c:893: ERROR: no line number 893 in file E:\Dropbox\FAUSTO\SVILUPPI\MSX\CODE\C\MSXgl\projects\exsoccer/exsoccer_s3_b1.c
    000012FB C3r14r13         [10] 4617 	jp	00109$
                                   4618 ;E:\Dropbox\FAUSTO\SVILUPPI\MSX\CODE\C\MSXgl\projects\exsoccer/exsoccer_s3_b1.c:894: ERROR: no line number 894 in file E:\Dropbox\FAUSTO\SVILUPPI\MSX\CODE\C\MSXgl\projects\exsoccer/exsoccer_s3_b1.c
    000012FE                       4619 00104$:
                                   4620 ;E:\Dropbox\FAUSTO\SVILUPPI\MSX\CODE\C\MSXgl\projects\exsoccer/exsoccer_s3_b1.c:895: ERROR: no line number 895 in file E:\Dropbox\FAUSTO\SVILUPPI\MSX\CODE\C\MSXgl\projects\exsoccer/exsoccer_s3_b1.c
    000012FE 0E 89            [ 7] 4621 	ld	c, #0x89
                                   4622 ;E:\Dropbox\FAUSTO\SVILUPPI\MSX\CODE\C\MSXgl\projects\exsoccer/exsoccer_s3_b1.c:896: ERROR: no line number 896 in file E:\Dropbox\FAUSTO\SVILUPPI\MSX\CODE\C\MSXgl\projects\exsoccer/exsoccer_s3_b1.c
    00001300 C3r14r13         [10] 4623 	jp	00109$
                                   4624 ;E:\Dropbox\FAUSTO\SVILUPPI\MSX\CODE\C\MSXgl\projects\exsoccer/exsoccer_s3_b1.c:897: ERROR: no line number 897 in file E:\Dropbox\FAUSTO\SVILUPPI\MSX\CODE\C\MSXgl\projects\exsoccer/exsoccer_s3_b1.c
    00001303                       4625 00105$:
                                   4626 ;E:\Dropbox\FAUSTO\SVILUPPI\MSX\CODE\C\MSXgl\projects\exsoccer/exsoccer_s3_b1.c:898: ERROR: no line number 898 in file E:\Dropbox\FAUSTO\SVILUPPI\MSX\CODE\C\MSXgl\projects\exsoccer/exsoccer_s3_b1.c
    00001303 0E 0D            [ 7] 4627 	ld	c, #0x0d
                                   4628 ;E:\Dropbox\FAUSTO\SVILUPPI\MSX\CODE\C\MSXgl\projects\exsoccer/exsoccer_s3_b1.c:899: ERROR: no line number 899 in file E:\Dropbox\FAUSTO\SVILUPPI\MSX\CODE\C\MSXgl\projects\exsoccer/exsoccer_s3_b1.c
    00001305 C3r14r13         [10] 4629 	jp	00109$
                                   4630 ;E:\Dropbox\FAUSTO\SVILUPPI\MSX\CODE\C\MSXgl\projects\exsoccer/exsoccer_s3_b1.c:900: ERROR: no line number 900 in file E:\Dropbox\FAUSTO\SVILUPPI\MSX\CODE\C\MSXgl\projects\exsoccer/exsoccer_s3_b1.c
    00001308                       4631 00106$:
                                   4632 ;E:\Dropbox\FAUSTO\SVILUPPI\MSX\CODE\C\MSXgl\projects\exsoccer/exsoccer_s3_b1.c:901: ERROR: no line number 901 in file E:\Dropbox\FAUSTO\SVILUPPI\MSX\CODE\C\MSXgl\projects\exsoccer/exsoccer_s3_b1.c
    00001308 0E 85            [ 7] 4633 	ld	c, #0x85
                                   4634 ;E:\Dropbox\FAUSTO\SVILUPPI\MSX\CODE\C\MSXgl\projects\exsoccer/exsoccer_s3_b1.c:902: ERROR: no line number 902 in file E:\Dropbox\FAUSTO\SVILUPPI\MSX\CODE\C\MSXgl\projects\exsoccer/exsoccer_s3_b1.c
    0000130A C3r14r13         [10] 4635 	jp	00109$
                                   4636 ;E:\Dropbox\FAUSTO\SVILUPPI\MSX\CODE\C\MSXgl\projects\exsoccer/exsoccer_s3_b1.c:903: ERROR: no line number 903 in file E:\Dropbox\FAUSTO\SVILUPPI\MSX\CODE\C\MSXgl\projects\exsoccer/exsoccer_s3_b1.c
    0000130D                       4637 00107$:
                                   4638 ;E:\Dropbox\FAUSTO\SVILUPPI\MSX\CODE\C\MSXgl\projects\exsoccer/exsoccer_s3_b1.c:904: ERROR: no line number 904 in file E:\Dropbox\FAUSTO\SVILUPPI\MSX\CODE\C\MSXgl\projects\exsoccer/exsoccer_s3_b1.c
    0000130D 0E 83            [ 7] 4639 	ld	c, #0x83
                                   4640 ;E:\Dropbox\FAUSTO\SVILUPPI\MSX\CODE\C\MSXgl\projects\exsoccer/exsoccer_s3_b1.c:905: ERROR: no line number 905 in file E:\Dropbox\FAUSTO\SVILUPPI\MSX\CODE\C\MSXgl\projects\exsoccer/exsoccer_s3_b1.c
    0000130F C3r14r13         [10] 4641 	jp	00109$
                                   4642 ;E:\Dropbox\FAUSTO\SVILUPPI\MSX\CODE\C\MSXgl\projects\exsoccer/exsoccer_s3_b1.c:906: ERROR: no line number 906 in file E:\Dropbox\FAUSTO\SVILUPPI\MSX\CODE\C\MSXgl\projects\exsoccer/exsoccer_s3_b1.c
    00001312                       4643 00108$:
                                   4644 ;E:\Dropbox\FAUSTO\SVILUPPI\MSX\CODE\C\MSXgl\projects\exsoccer/exsoccer_s3_b1.c:907: ERROR: no line number 907 in file E:\Dropbox\FAUSTO\SVILUPPI\MSX\CODE\C\MSXgl\projects\exsoccer/exsoccer_s3_b1.c
    00001312 0E 09            [ 7] 4645 	ld	c, #0x09
                                   4646 ;E:\Dropbox\FAUSTO\SVILUPPI\MSX\CODE\C\MSXgl\projects\exsoccer/exsoccer_s3_b1.c:909: ERROR: no line number 909 in file E:\Dropbox\FAUSTO\SVILUPPI\MSX\CODE\C\MSXgl\projects\exsoccer/exsoccer_s3_b1.c
    00001314                       4647 00109$:
                                   4648 ;E:\Dropbox\FAUSTO\SVILUPPI\MSX\CODE\C\MSXgl\projects\exsoccer/exsoccer_s3_b1.c:910: ERROR: no line number 910 in file E:\Dropbox\FAUSTO\SVILUPPI\MSX\CODE\C\MSXgl\projects\exsoccer/exsoccer_s3_b1.c
    00001314 79               [ 4] 4649 	ld	a, c
                                   4650 ;E:\Dropbox\FAUSTO\SVILUPPI\MSX\CODE\C\MSXgl\projects\exsoccer/exsoccer_s3_b1.c:911: ERROR: no line number 911 in file E:\Dropbox\FAUSTO\SVILUPPI\MSX\CODE\C\MSXgl\projects\exsoccer/exsoccer_s3_b1.c
    00001315 C9               [10] 4651 	ret
                                   4652 ;E:\Dropbox\FAUSTO\SVILUPPI\MSX\CODE\C\MSXgl\projects\exsoccer/exsoccer_s3_b1.c:912: ERROR: no line number 912 in file E:\Dropbox\FAUSTO\SVILUPPI\MSX\CODE\C\MSXgl\projects\exsoccer/exsoccer_s3_b1.c
                                   4653 ;	---------------------------------
                                   4654 ; Function GetPatternIdByPoseAndDirection
                                   4655 ; ---------------------------------
    00001316                       4656 _GetPatternIdByPoseAndDirection::
    00001316 5F               [ 4] 4657 	ld	e, a
    00001317 45               [ 4] 4658 	ld	b, l
                                   4659 ;E:\Dropbox\FAUSTO\SVILUPPI\MSX\CODE\C\MSXgl\projects\exsoccer/exsoccer_s3_b1.c:913: ERROR: no line number 913 in file E:\Dropbox\FAUSTO\SVILUPPI\MSX\CODE\C\MSXgl\projects\exsoccer/exsoccer_s3_b1.c
    00001318 0E FF            [ 7] 4660 	ld	c, #0xff
                                   4661 ;E:\Dropbox\FAUSTO\SVILUPPI\MSX\CODE\C\MSXgl\projects\exsoccer/exsoccer_s3_b1.c:914: ERROR: no line number 914 in file E:\Dropbox\FAUSTO\SVILUPPI\MSX\CODE\C\MSXgl\projects\exsoccer/exsoccer_s3_b1.c
    0000131A 3E 08            [ 7] 4662 	ld	a, #0x08
    0000131C 93               [ 4] 4663 	sub	a, e
    0000131D DArADr13         [10] 4664 	jp	C, 00133$
    00001320 16 00            [ 7] 4665 	ld	d, #0x00
    00001322 21r29r13         [10] 4666 	ld	hl, #00181$
    00001325 19               [11] 4667 	add	hl, de
    00001326 19               [11] 4668 	add	hl, de
    00001327 19               [11] 4669 	add	hl, de
    00001328 E9               [ 4] 4670 	jp	(hl)
    00001329                       4671 00181$:
    00001329 C3rADr13         [10] 4672 	jp	00133$
    0000132C C3r44r13         [10] 4673 	jp	00101$
    0000132F C3r97r13         [10] 4674 	jp	00125$
    00001332 C3r6Dr13         [10] 4675 	jp	00113$
    00001335 C3rA5r13         [10] 4676 	jp	00129$
    00001338 C3r52r13         [10] 4677 	jp	00105$
    0000133B C3r89r13         [10] 4678 	jp	00121$
    0000133E C3r5Fr13         [10] 4679 	jp	00109$
    00001341 C3r7Br13         [10] 4680 	jp	00117$
                                   4681 ;E:\Dropbox\FAUSTO\SVILUPPI\MSX\CODE\C\MSXgl\projects\exsoccer/exsoccer_s3_b1.c:915: ERROR: no line number 915 in file E:\Dropbox\FAUSTO\SVILUPPI\MSX\CODE\C\MSXgl\projects\exsoccer/exsoccer_s3_b1.c
    00001344                       4682 00101$:
                                   4683 ;E:\Dropbox\FAUSTO\SVILUPPI\MSX\CODE\C\MSXgl\projects\exsoccer/exsoccer_s3_b1.c:916: ERROR: no line number 916 in file E:\Dropbox\FAUSTO\SVILUPPI\MSX\CODE\C\MSXgl\projects\exsoccer/exsoccer_s3_b1.c
    00001344 78               [ 4] 4684 	ld	a, b
    00001345 B7               [ 4] 4685 	or	a, a
    00001346 20 05            [12] 4686 	jr	NZ, 00103$
                                   4687 ;E:\Dropbox\FAUSTO\SVILUPPI\MSX\CODE\C\MSXgl\projects\exsoccer/exsoccer_s3_b1.c:917: ERROR: no line number 917 in file E:\Dropbox\FAUSTO\SVILUPPI\MSX\CODE\C\MSXgl\projects\exsoccer/exsoccer_s3_b1.c
    00001348 0E 02            [ 7] 4688 	ld	c, #0x02
    0000134A C3rADr13         [10] 4689 	jp	00133$
    0000134D                       4690 00103$:
                                   4691 ;E:\Dropbox\FAUSTO\SVILUPPI\MSX\CODE\C\MSXgl\projects\exsoccer/exsoccer_s3_b1.c:920: ERROR: no line number 920 in file E:\Dropbox\FAUSTO\SVILUPPI\MSX\CODE\C\MSXgl\projects\exsoccer/exsoccer_s3_b1.c
    0000134D 0E 03            [ 7] 4692 	ld	c, #0x03
                                   4693 ;E:\Dropbox\FAUSTO\SVILUPPI\MSX\CODE\C\MSXgl\projects\exsoccer/exsoccer_s3_b1.c:922: ERROR: no line number 922 in file E:\Dropbox\FAUSTO\SVILUPPI\MSX\CODE\C\MSXgl\projects\exsoccer/exsoccer_s3_b1.c
    0000134F C3rADr13         [10] 4694 	jp	00133$
                                   4695 ;E:\Dropbox\FAUSTO\SVILUPPI\MSX\CODE\C\MSXgl\projects\exsoccer/exsoccer_s3_b1.c:923: ERROR: no line number 923 in file E:\Dropbox\FAUSTO\SVILUPPI\MSX\CODE\C\MSXgl\projects\exsoccer/exsoccer_s3_b1.c
    00001352                       4696 00105$:
                                   4697 ;E:\Dropbox\FAUSTO\SVILUPPI\MSX\CODE\C\MSXgl\projects\exsoccer/exsoccer_s3_b1.c:924: ERROR: no line number 924 in file E:\Dropbox\FAUSTO\SVILUPPI\MSX\CODE\C\MSXgl\projects\exsoccer/exsoccer_s3_b1.c
    00001352 78               [ 4] 4698 	ld	a, b
                                   4699 ;E:\Dropbox\FAUSTO\SVILUPPI\MSX\CODE\C\MSXgl\projects\exsoccer/exsoccer_s3_b1.c:925: ERROR: no line number 925 in file E:\Dropbox\FAUSTO\SVILUPPI\MSX\CODE\C\MSXgl\projects\exsoccer/exsoccer_s3_b1.c
    00001353 B7               [ 4] 4700 	or	a,a
    00001354 20 04            [12] 4701 	jr	NZ, 00107$
    00001356 4F               [ 4] 4702 	ld	c,a
    00001357 C3rADr13         [10] 4703 	jp	00133$
    0000135A                       4704 00107$:
                                   4705 ;E:\Dropbox\FAUSTO\SVILUPPI\MSX\CODE\C\MSXgl\projects\exsoccer/exsoccer_s3_b1.c:928: ERROR: no line number 928 in file E:\Dropbox\FAUSTO\SVILUPPI\MSX\CODE\C\MSXgl\projects\exsoccer/exsoccer_s3_b1.c
    0000135A 0E 01            [ 7] 4706 	ld	c, #0x01
                                   4707 ;E:\Dropbox\FAUSTO\SVILUPPI\MSX\CODE\C\MSXgl\projects\exsoccer/exsoccer_s3_b1.c:930: ERROR: no line number 930 in file E:\Dropbox\FAUSTO\SVILUPPI\MSX\CODE\C\MSXgl\projects\exsoccer/exsoccer_s3_b1.c
    0000135C C3rADr13         [10] 4708 	jp	00133$
                                   4709 ;E:\Dropbox\FAUSTO\SVILUPPI\MSX\CODE\C\MSXgl\projects\exsoccer/exsoccer_s3_b1.c:931: ERROR: no line number 931 in file E:\Dropbox\FAUSTO\SVILUPPI\MSX\CODE\C\MSXgl\projects\exsoccer/exsoccer_s3_b1.c
    0000135F                       4710 00109$:
                                   4711 ;E:\Dropbox\FAUSTO\SVILUPPI\MSX\CODE\C\MSXgl\projects\exsoccer/exsoccer_s3_b1.c:932: ERROR: no line number 932 in file E:\Dropbox\FAUSTO\SVILUPPI\MSX\CODE\C\MSXgl\projects\exsoccer/exsoccer_s3_b1.c
    0000135F 78               [ 4] 4712 	ld	a, b
    00001360 B7               [ 4] 4713 	or	a, a
    00001361 20 05            [12] 4714 	jr	NZ, 00111$
                                   4715 ;E:\Dropbox\FAUSTO\SVILUPPI\MSX\CODE\C\MSXgl\projects\exsoccer/exsoccer_s3_b1.c:933: ERROR: no line number 933 in file E:\Dropbox\FAUSTO\SVILUPPI\MSX\CODE\C\MSXgl\projects\exsoccer/exsoccer_s3_b1.c
    00001363 0E 05            [ 7] 4716 	ld	c, #0x05
    00001365 C3rADr13         [10] 4717 	jp	00133$
    00001368                       4718 00111$:
                                   4719 ;E:\Dropbox\FAUSTO\SVILUPPI\MSX\CODE\C\MSXgl\projects\exsoccer/exsoccer_s3_b1.c:936: ERROR: no line number 936 in file E:\Dropbox\FAUSTO\SVILUPPI\MSX\CODE\C\MSXgl\projects\exsoccer/exsoccer_s3_b1.c
    00001368 0E 06            [ 7] 4720 	ld	c, #0x06
                                   4721 ;E:\Dropbox\FAUSTO\SVILUPPI\MSX\CODE\C\MSXgl\projects\exsoccer/exsoccer_s3_b1.c:938: ERROR: no line number 938 in file E:\Dropbox\FAUSTO\SVILUPPI\MSX\CODE\C\MSXgl\projects\exsoccer/exsoccer_s3_b1.c
    0000136A C3rADr13         [10] 4722 	jp	00133$
                                   4723 ;E:\Dropbox\FAUSTO\SVILUPPI\MSX\CODE\C\MSXgl\projects\exsoccer/exsoccer_s3_b1.c:939: ERROR: no line number 939 in file E:\Dropbox\FAUSTO\SVILUPPI\MSX\CODE\C\MSXgl\projects\exsoccer/exsoccer_s3_b1.c
    0000136D                       4724 00113$:
                                   4725 ;E:\Dropbox\FAUSTO\SVILUPPI\MSX\CODE\C\MSXgl\projects\exsoccer/exsoccer_s3_b1.c:940: ERROR: no line number 940 in file E:\Dropbox\FAUSTO\SVILUPPI\MSX\CODE\C\MSXgl\projects\exsoccer/exsoccer_s3_b1.c
    0000136D 78               [ 4] 4726 	ld	a, b
    0000136E B7               [ 4] 4727 	or	a, a
    0000136F 20 05            [12] 4728 	jr	NZ, 00115$
                                   4729 ;E:\Dropbox\FAUSTO\SVILUPPI\MSX\CODE\C\MSXgl\projects\exsoccer/exsoccer_s3_b1.c:941: ERROR: no line number 941 in file E:\Dropbox\FAUSTO\SVILUPPI\MSX\CODE\C\MSXgl\projects\exsoccer/exsoccer_s3_b1.c
    00001371 0E 89            [ 7] 4730 	ld	c, #0x89
    00001373 C3rADr13         [10] 4731 	jp	00133$
    00001376                       4732 00115$:
                                   4733 ;E:\Dropbox\FAUSTO\SVILUPPI\MSX\CODE\C\MSXgl\projects\exsoccer/exsoccer_s3_b1.c:944: ERROR: no line number 944 in file E:\Dropbox\FAUSTO\SVILUPPI\MSX\CODE\C\MSXgl\projects\exsoccer/exsoccer_s3_b1.c
    00001376 0E 8A            [ 7] 4734 	ld	c, #0x8a
                                   4735 ;E:\Dropbox\FAUSTO\SVILUPPI\MSX\CODE\C\MSXgl\projects\exsoccer/exsoccer_s3_b1.c:946: ERROR: no line number 946 in file E:\Dropbox\FAUSTO\SVILUPPI\MSX\CODE\C\MSXgl\projects\exsoccer/exsoccer_s3_b1.c
    00001378 C3rADr13         [10] 4736 	jp	00133$
                                   4737 ;E:\Dropbox\FAUSTO\SVILUPPI\MSX\CODE\C\MSXgl\projects\exsoccer/exsoccer_s3_b1.c:947: ERROR: no line number 947 in file E:\Dropbox\FAUSTO\SVILUPPI\MSX\CODE\C\MSXgl\projects\exsoccer/exsoccer_s3_b1.c
    0000137B                       4738 00117$:
                                   4739 ;E:\Dropbox\FAUSTO\SVILUPPI\MSX\CODE\C\MSXgl\projects\exsoccer/exsoccer_s3_b1.c:948: ERROR: no line number 948 in file E:\Dropbox\FAUSTO\SVILUPPI\MSX\CODE\C\MSXgl\projects\exsoccer/exsoccer_s3_b1.c
    0000137B 78               [ 4] 4740 	ld	a, b
    0000137C B7               [ 4] 4741 	or	a, a
    0000137D 20 05            [12] 4742 	jr	NZ, 00119$
                                   4743 ;E:\Dropbox\FAUSTO\SVILUPPI\MSX\CODE\C\MSXgl\projects\exsoccer/exsoccer_s3_b1.c:949: ERROR: no line number 949 in file E:\Dropbox\FAUSTO\SVILUPPI\MSX\CODE\C\MSXgl\projects\exsoccer/exsoccer_s3_b1.c
    0000137F 0E 83            [ 7] 4744 	ld	c, #0x83
    00001381 C3rADr13         [10] 4745 	jp	00133$
    00001384                       4746 00119$:
                                   4747 ;E:\Dropbox\FAUSTO\SVILUPPI\MSX\CODE\C\MSXgl\projects\exsoccer/exsoccer_s3_b1.c:952: ERROR: no line number 952 in file E:\Dropbox\FAUSTO\SVILUPPI\MSX\CODE\C\MSXgl\projects\exsoccer/exsoccer_s3_b1.c
    00001384 0E 82            [ 7] 4748 	ld	c, #0x82
                                   4749 ;E:\Dropbox\FAUSTO\SVILUPPI\MSX\CODE\C\MSXgl\projects\exsoccer/exsoccer_s3_b1.c:954: ERROR: no line number 954 in file E:\Dropbox\FAUSTO\SVILUPPI\MSX\CODE\C\MSXgl\projects\exsoccer/exsoccer_s3_b1.c
    00001386 C3rADr13         [10] 4750 	jp	00133$
                                   4751 ;E:\Dropbox\FAUSTO\SVILUPPI\MSX\CODE\C\MSXgl\projects\exsoccer/exsoccer_s3_b1.c:955: ERROR: no line number 955 in file E:\Dropbox\FAUSTO\SVILUPPI\MSX\CODE\C\MSXgl\projects\exsoccer/exsoccer_s3_b1.c
    00001389                       4752 00121$:
                                   4753 ;E:\Dropbox\FAUSTO\SVILUPPI\MSX\CODE\C\MSXgl\projects\exsoccer/exsoccer_s3_b1.c:956: ERROR: no line number 956 in file E:\Dropbox\FAUSTO\SVILUPPI\MSX\CODE\C\MSXgl\projects\exsoccer/exsoccer_s3_b1.c
    00001389 78               [ 4] 4754 	ld	a, b
    0000138A B7               [ 4] 4755 	or	a, a
    0000138B 20 05            [12] 4756 	jr	NZ, 00123$
                                   4757 ;E:\Dropbox\FAUSTO\SVILUPPI\MSX\CODE\C\MSXgl\projects\exsoccer/exsoccer_s3_b1.c:957: ERROR: no line number 957 in file E:\Dropbox\FAUSTO\SVILUPPI\MSX\CODE\C\MSXgl\projects\exsoccer/exsoccer_s3_b1.c
    0000138D 0E 09            [ 7] 4758 	ld	c, #0x09
    0000138F C3rADr13         [10] 4759 	jp	00133$
    00001392                       4760 00123$:
                                   4761 ;E:\Dropbox\FAUSTO\SVILUPPI\MSX\CODE\C\MSXgl\projects\exsoccer/exsoccer_s3_b1.c:960: ERROR: no line number 960 in file E:\Dropbox\FAUSTO\SVILUPPI\MSX\CODE\C\MSXgl\projects\exsoccer/exsoccer_s3_b1.c
    00001392 0E 0A            [ 7] 4762 	ld	c, #0x0a
                                   4763 ;E:\Dropbox\FAUSTO\SVILUPPI\MSX\CODE\C\MSXgl\projects\exsoccer/exsoccer_s3_b1.c:962: ERROR: no line number 962 in file E:\Dropbox\FAUSTO\SVILUPPI\MSX\CODE\C\MSXgl\projects\exsoccer/exsoccer_s3_b1.c
    00001394 C3rADr13         [10] 4764 	jp	00133$
                                   4765 ;E:\Dropbox\FAUSTO\SVILUPPI\MSX\CODE\C\MSXgl\projects\exsoccer/exsoccer_s3_b1.c:963: ERROR: no line number 963 in file E:\Dropbox\FAUSTO\SVILUPPI\MSX\CODE\C\MSXgl\projects\exsoccer/exsoccer_s3_b1.c
    00001397                       4766 00125$:
                                   4767 ;E:\Dropbox\FAUSTO\SVILUPPI\MSX\CODE\C\MSXgl\projects\exsoccer/exsoccer_s3_b1.c:964: ERROR: no line number 964 in file E:\Dropbox\FAUSTO\SVILUPPI\MSX\CODE\C\MSXgl\projects\exsoccer/exsoccer_s3_b1.c
    00001397 78               [ 4] 4768 	ld	a, b
    00001398 B7               [ 4] 4769 	or	a, a
    00001399 20 05            [12] 4770 	jr	NZ, 00127$
                                   4771 ;E:\Dropbox\FAUSTO\SVILUPPI\MSX\CODE\C\MSXgl\projects\exsoccer/exsoccer_s3_b1.c:965: ERROR: no line number 965 in file E:\Dropbox\FAUSTO\SVILUPPI\MSX\CODE\C\MSXgl\projects\exsoccer/exsoccer_s3_b1.c
    0000139B 0E 0D            [ 7] 4772 	ld	c, #0x0d
    0000139D C3rADr13         [10] 4773 	jp	00133$
    000013A0                       4774 00127$:
                                   4775 ;E:\Dropbox\FAUSTO\SVILUPPI\MSX\CODE\C\MSXgl\projects\exsoccer/exsoccer_s3_b1.c:968: ERROR: no line number 968 in file E:\Dropbox\FAUSTO\SVILUPPI\MSX\CODE\C\MSXgl\projects\exsoccer/exsoccer_s3_b1.c
    000013A0 0E 0E            [ 7] 4776 	ld	c, #0x0e
                                   4777 ;E:\Dropbox\FAUSTO\SVILUPPI\MSX\CODE\C\MSXgl\projects\exsoccer/exsoccer_s3_b1.c:970: ERROR: no line number 970 in file E:\Dropbox\FAUSTO\SVILUPPI\MSX\CODE\C\MSXgl\projects\exsoccer/exsoccer_s3_b1.c
    000013A2 C3rADr13         [10] 4778 	jp	00133$
                                   4779 ;E:\Dropbox\FAUSTO\SVILUPPI\MSX\CODE\C\MSXgl\projects\exsoccer/exsoccer_s3_b1.c:971: ERROR: no line number 971 in file E:\Dropbox\FAUSTO\SVILUPPI\MSX\CODE\C\MSXgl\projects\exsoccer/exsoccer_s3_b1.c
    000013A5                       4780 00129$:
                                   4781 ;E:\Dropbox\FAUSTO\SVILUPPI\MSX\CODE\C\MSXgl\projects\exsoccer/exsoccer_s3_b1.c:972: ERROR: no line number 972 in file E:\Dropbox\FAUSTO\SVILUPPI\MSX\CODE\C\MSXgl\projects\exsoccer/exsoccer_s3_b1.c
    000013A5 78               [ 4] 4782 	ld	a, b
    000013A6 B7               [ 4] 4783 	or	a, a
                                   4784 ;E:\Dropbox\FAUSTO\SVILUPPI\MSX\CODE\C\MSXgl\projects\exsoccer/exsoccer_s3_b1.c:973: ERROR: no line number 973 in file E:\Dropbox\FAUSTO\SVILUPPI\MSX\CODE\C\MSXgl\projects\exsoccer/exsoccer_s3_b1.c
                                   4785 ;E:\Dropbox\FAUSTO\SVILUPPI\MSX\CODE\C\MSXgl\projects\exsoccer/exsoccer_s3_b1.c:976: ERROR: no line number 976 in file E:\Dropbox\FAUSTO\SVILUPPI\MSX\CODE\C\MSXgl\projects\exsoccer/exsoccer_s3_b1.c
                                   4786 ;E:\Dropbox\FAUSTO\SVILUPPI\MSX\CODE\C\MSXgl\projects\exsoccer/exsoccer_s3_b1.c:979: ERROR: no line number 979 in file E:\Dropbox\FAUSTO\SVILUPPI\MSX\CODE\C\MSXgl\projects\exsoccer/exsoccer_s3_b1.c
    000013A7 0E 85            [ 7] 4787 	ld	c, #0x85
    000013A9 28 02            [12] 4788 	jr	Z, 00133$
    000013AB 0E 86            [ 7] 4789 	ld	c, #0x86
    000013AD                       4790 00133$:
                                   4791 ;E:\Dropbox\FAUSTO\SVILUPPI\MSX\CODE\C\MSXgl\projects\exsoccer/exsoccer_s3_b1.c:980: ERROR: no line number 980 in file E:\Dropbox\FAUSTO\SVILUPPI\MSX\CODE\C\MSXgl\projects\exsoccer/exsoccer_s3_b1.c
    000013AD 79               [ 4] 4792 	ld	a, c
                                   4793 ;E:\Dropbox\FAUSTO\SVILUPPI\MSX\CODE\C\MSXgl\projects\exsoccer/exsoccer_s3_b1.c:981: ERROR: no line number 981 in file E:\Dropbox\FAUSTO\SVILUPPI\MSX\CODE\C\MSXgl\projects\exsoccer/exsoccer_s3_b1.c
    000013AE C9               [10] 4794 	ret
                                   4795 ;E:\Dropbox\FAUSTO\SVILUPPI\MSX\CODE\C\MSXgl\projects\exsoccer/exsoccer_s3_b1.c:982: ERROR: no line number 982 in file E:\Dropbox\FAUSTO\SVILUPPI\MSX\CODE\C\MSXgl\projects\exsoccer/exsoccer_s3_b1.c
                                   4796 ;	---------------------------------
                                   4797 ; Function GetNumberString
                                   4798 ; ---------------------------------
    000013AF                       4799 _GetNumberString::
    000013AF EB               [ 4] 4800 	ex	de, hl
                                   4801 ;E:\Dropbox\FAUSTO\SVILUPPI\MSX\CODE\C\MSXgl\projects\exsoccer/exsoccer_s3_b1.c:986: ERROR: no line number 986 in file E:\Dropbox\FAUSTO\SVILUPPI\MSX\CODE\C\MSXgl\projects\exsoccer/exsoccer_s3_b1.c
    000013B0 4B               [ 4] 4802 	ld	c, e
    000013B1 42               [ 4] 4803 	ld	b, d
    000013B2 79               [ 4] 4804 	ld	a, c
    000013B3 D6 0A            [ 7] 4805 	sub	a, #0x0a
    000013B5 78               [ 4] 4806 	ld	a, b
    000013B6 DE 00            [ 7] 4807 	sbc	a, #0x00
    000013B8 30 0D            [12] 4808 	jr	NC, 00102$
                                   4809 ;E:\Dropbox\FAUSTO\SVILUPPI\MSX\CODE\C\MSXgl\projects\exsoccer/exsoccer_s3_b1.c:987: ERROR: no line number 987 in file E:\Dropbox\FAUSTO\SVILUPPI\MSX\CODE\C\MSXgl\projects\exsoccer/exsoccer_s3_b1.c
    000013BA 01r00r00         [10] 4810 	ld	bc, #_GetNumberString_str_65536_1318+0
    000013BD 7B               [ 4] 4811 	ld	a, e
    000013BE C6 30            [ 7] 4812 	add	a, #0x30
    000013C0 02               [ 7] 4813 	ld	(bc), a
                                   4814 ;E:\Dropbox\FAUSTO\SVILUPPI\MSX\CODE\C\MSXgl\projects\exsoccer/exsoccer_s3_b1.c:988: ERROR: no line number 988 in file E:\Dropbox\FAUSTO\SVILUPPI\MSX\CODE\C\MSXgl\projects\exsoccer/exsoccer_s3_b1.c
    000013C1 03               [ 6] 4815 	inc	bc
    000013C2 AF               [ 4] 4816 	xor	a, a
    000013C3 02               [ 7] 4817 	ld	(bc), a
    000013C4 C3rEAr13         [10] 4818 	jp	00103$
    000013C7                       4819 00102$:
                                   4820 ;E:\Dropbox\FAUSTO\SVILUPPI\MSX\CODE\C\MSXgl\projects\exsoccer/exsoccer_s3_b1.c:990: ERROR: no line number 990 in file E:\Dropbox\FAUSTO\SVILUPPI\MSX\CODE\C\MSXgl\projects\exsoccer/exsoccer_s3_b1.c
    000013C7 C5               [11] 4821 	push	bc
    000013C8 11 0A 00         [10] 4822 	ld	de, #0x000a
    000013CB 69               [ 4] 4823 	ld	l, c
                                   4824 ;	spillPairReg hl
                                   4825 ;	spillPairReg hl
    000013CC 60               [ 4] 4826 	ld	h, b
                                   4827 ;	spillPairReg hl
                                   4828 ;	spillPairReg hl
    000013CD CDr00r00         [17] 4829 	call	__divuint
    000013D0 C1               [10] 4830 	pop	bc
    000013D1 7B               [ 4] 4831 	ld	a, e
    000013D2 C6 30            [ 7] 4832 	add	a, #0x30
    000013D4 32r00r00         [13] 4833 	ld	(#_GetNumberString_str_65536_1318),a
                                   4834 ;E:\Dropbox\FAUSTO\SVILUPPI\MSX\CODE\C\MSXgl\projects\exsoccer/exsoccer_s3_b1.c:991: ERROR: no line number 991 in file E:\Dropbox\FAUSTO\SVILUPPI\MSX\CODE\C\MSXgl\projects\exsoccer/exsoccer_s3_b1.c
    000013D7 11 0A 00         [10] 4835 	ld	de, #0x000a
    000013DA 69               [ 4] 4836 	ld	l, c
                                   4837 ;	spillPairReg hl
                                   4838 ;	spillPairReg hl
    000013DB 60               [ 4] 4839 	ld	h, b
                                   4840 ;	spillPairReg hl
                                   4841 ;	spillPairReg hl
    000013DC CDr00r00         [17] 4842 	call	__moduint
    000013DF 7B               [ 4] 4843 	ld	a, e
    000013E0 C6 30            [ 7] 4844 	add	a, #0x30
    000013E2 32r01r00         [13] 4845 	ld	(#(_GetNumberString_str_65536_1318 + 1)),a
                                   4846 ;E:\Dropbox\FAUSTO\SVILUPPI\MSX\CODE\C\MSXgl\projects\exsoccer/exsoccer_s3_b1.c:992: ERROR: no line number 992 in file E:\Dropbox\FAUSTO\SVILUPPI\MSX\CODE\C\MSXgl\projects\exsoccer/exsoccer_s3_b1.c
    000013E5 21r02r00         [10] 4847 	ld	hl, #(_GetNumberString_str_65536_1318 + 2)
    000013E8 36 00            [10] 4848 	ld	(hl), #0x00
    000013EA                       4849 00103$:
                                   4850 ;E:\Dropbox\FAUSTO\SVILUPPI\MSX\CODE\C\MSXgl\projects\exsoccer/exsoccer_s3_b1.c:995: ERROR: no line number 995 in file E:\Dropbox\FAUSTO\SVILUPPI\MSX\CODE\C\MSXgl\projects\exsoccer/exsoccer_s3_b1.c
    000013EA 11r00r00         [10] 4851 	ld	de, #_GetNumberString_str_65536_1318
                                   4852 ;E:\Dropbox\FAUSTO\SVILUPPI\MSX\CODE\C\MSXgl\projects\exsoccer/exsoccer_s3_b1.c:996: ERROR: no line number 996 in file E:\Dropbox\FAUSTO\SVILUPPI\MSX\CODE\C\MSXgl\projects\exsoccer/exsoccer_s3_b1.c
    000013ED C9               [10] 4853 	ret
                                   4854 ;E:\Dropbox\FAUSTO\SVILUPPI\MSX\CODE\C\MSXgl\projects\exsoccer/exsoccer_s3_b1.c:998: ERROR: no line number 998 in file E:\Dropbox\FAUSTO\SVILUPPI\MSX\CODE\C\MSXgl\projects\exsoccer/exsoccer_s3_b1.c
                                   4855 ;	---------------------------------
                                   4856 ; Function CheckJoystickTriggerButtonPressed
                                   4857 ; ---------------------------------
    000013EE                       4858 _CheckJoystickTriggerButtonPressed::
                                   4859 ;E:/Dropbox/FAUSTO/SVILUPPI/MSX/CODE/C/MSXgl/engine/src/bios.h:398: ERROR: no line number 398 in file E:/Dropbox/FAUSTO/SVILUPPI/MSX/CODE/C/MSXgl/engine/src/bios.h
    000013EE AF               [ 4] 4860 	xor	a, a
    000013EF CD D8 00         [17] 4861 	call	0x00d8
                                   4862 ;E:\Dropbox\FAUSTO\SVILUPPI\MSX\CODE\C\MSXgl\projects\exsoccer/exsoccer_s3_b1.c:999: ERROR: no line number 999 in file E:\Dropbox\FAUSTO\SVILUPPI\MSX\CODE\C\MSXgl\projects\exsoccer/exsoccer_s3_b1.c
    000013F2 B7               [ 4] 4863 	or	a, a
    000013F3 20 08            [12] 4864 	jr	NZ, 00101$
                                   4865 ;E:/Dropbox/FAUSTO/SVILUPPI/MSX/CODE/C/MSXgl/engine/src/bios.h:398: ERROR: no line number 398 in file E:/Dropbox/FAUSTO/SVILUPPI/MSX/CODE/C/MSXgl/engine/src/bios.h
    000013F5 3E 01            [ 7] 4866 	ld	a, #0x01
    000013F7 CD D8 00         [17] 4867 	call	0x00d8
                                   4868 ;E:\Dropbox\FAUSTO\SVILUPPI\MSX\CODE\C\MSXgl\projects\exsoccer/exsoccer_s3_b1.c:999: ERROR: no line number 999 in file E:\Dropbox\FAUSTO\SVILUPPI\MSX\CODE\C\MSXgl\projects\exsoccer/exsoccer_s3_b1.c
    000013FA B7               [ 4] 4869 	or	a, a
    000013FB 28 03            [12] 4870 	jr	Z, 00102$
    000013FD                       4871 00101$:
                                   4872 ;E:\Dropbox\FAUSTO\SVILUPPI\MSX\CODE\C\MSXgl\projects\exsoccer/exsoccer_s3_b1.c:1000: ERROR: no line number 1000 in file E:\Dropbox\FAUSTO\SVILUPPI\MSX\CODE\C\MSXgl\projects\exsoccer/exsoccer_s3_b1.c
    000013FD 3E 01            [ 7] 4873 	ld	a, #0x01
    000013FF C9               [10] 4874 	ret
    00001400                       4875 00102$:
                                   4876 ;E:/Dropbox/FAUSTO/SVILUPPI/MSX/CODE/C/MSXgl/engine/src/bios.h:398: ERROR: no line number 398 in file E:/Dropbox/FAUSTO/SVILUPPI/MSX/CODE/C/MSXgl/engine/src/bios.h
    00001400 3E 02            [ 7] 4877 	ld	a, #0x02
    00001402 CD D8 00         [17] 4878 	call	0x00d8
                                   4879 ;E:\Dropbox\FAUSTO\SVILUPPI\MSX\CODE\C\MSXgl\projects\exsoccer/exsoccer_s3_b1.c:1002: ERROR: no line number 1002 in file E:\Dropbox\FAUSTO\SVILUPPI\MSX\CODE\C\MSXgl\projects\exsoccer/exsoccer_s3_b1.c
    00001405 B7               [ 4] 4880 	or	a, a
                                   4881 ;E:\Dropbox\FAUSTO\SVILUPPI\MSX\CODE\C\MSXgl\projects\exsoccer/exsoccer_s3_b1.c:1003: ERROR: no line number 1003 in file E:\Dropbox\FAUSTO\SVILUPPI\MSX\CODE\C\MSXgl\projects\exsoccer/exsoccer_s3_b1.c
                                   4882 ;E:\Dropbox\FAUSTO\SVILUPPI\MSX\CODE\C\MSXgl\projects\exsoccer/exsoccer_s3_b1.c:1005: ERROR: no line number 1005 in file E:\Dropbox\FAUSTO\SVILUPPI\MSX\CODE\C\MSXgl\projects\exsoccer/exsoccer_s3_b1.c
    00001406 3E 02            [ 7] 4883 	ld	a, #0x02
    00001408 C0               [11] 4884 	ret	NZ
    00001409 3E FF            [ 7] 4885 	ld	a, #0xff
                                   4886 ;E:\Dropbox\FAUSTO\SVILUPPI\MSX\CODE\C\MSXgl\projects\exsoccer/exsoccer_s3_b1.c:1006: ERROR: no line number 1006 in file E:\Dropbox\FAUSTO\SVILUPPI\MSX\CODE\C\MSXgl\projects\exsoccer/exsoccer_s3_b1.c
    0000140B C9               [10] 4887 	ret
                                   4888 ;E:\Dropbox\FAUSTO\SVILUPPI\MSX\CODE\C\MSXgl\projects\exsoccer/exsoccer_s3_b1.c:1007: ERROR: no line number 1007 in file E:\Dropbox\FAUSTO\SVILUPPI\MSX\CODE\C\MSXgl\projects\exsoccer/exsoccer_s3_b1.c
                                   4889 ;	---------------------------------
                                   4890 ; Function GetJoystick1Direction
                                   4891 ; ---------------------------------
    0000140C                       4892 _GetJoystick1Direction::
                                   4893 ;E:\Dropbox\FAUSTO\SVILUPPI\MSX\CODE\C\MSXgl\projects\exsoccer/exsoccer_s3_b1.c:1008: ERROR: no line number 1008 in file E:\Dropbox\FAUSTO\SVILUPPI\MSX\CODE\C\MSXgl\projects\exsoccer/exsoccer_s3_b1.c
    0000140C AF               [ 4] 4894 	xor	a, a
    0000140D CD D5 00         [17] 4895 	call	0x00d5
    00001410 4F               [ 4] 4896 	ld	c, a
                                   4897 ;E:\Dropbox\FAUSTO\SVILUPPI\MSX\CODE\C\MSXgl\projects\exsoccer/exsoccer_s3_b1.c:1009: ERROR: no line number 1009 in file E:\Dropbox\FAUSTO\SVILUPPI\MSX\CODE\C\MSXgl\projects\exsoccer/exsoccer_s3_b1.c
    00001411 B7               [ 4] 4898 	or	a, a
    00001412 20 06            [12] 4899 	jr	NZ, 00102$
                                   4900 ;E:/Dropbox/FAUSTO/SVILUPPI/MSX/CODE/C/MSXgl/engine/src/bios.h:382: ERROR: no line number 382 in file E:/Dropbox/FAUSTO/SVILUPPI/MSX/CODE/C/MSXgl/engine/src/bios.h
    00001414 3E 01            [ 7] 4901 	ld	a, #0x01
    00001416 CD D5 00         [17] 4902 	call	0x00d5
                                   4903 ;E:\Dropbox\FAUSTO\SVILUPPI\MSX\CODE\C\MSXgl\projects\exsoccer/exsoccer_s3_b1.c:1010: ERROR: no line number 1010 in file E:\Dropbox\FAUSTO\SVILUPPI\MSX\CODE\C\MSXgl\projects\exsoccer/exsoccer_s3_b1.c
    00001419 4F               [ 4] 4904 	ld	c, a
    0000141A                       4905 00102$:
                                   4906 ;E:\Dropbox\FAUSTO\SVILUPPI\MSX\CODE\C\MSXgl\projects\exsoccer/exsoccer_s3_b1.c:1012: ERROR: no line number 1012 in file E:\Dropbox\FAUSTO\SVILUPPI\MSX\CODE\C\MSXgl\projects\exsoccer/exsoccer_s3_b1.c
    0000141A 79               [ 4] 4907 	ld	a, c
                                   4908 ;E:\Dropbox\FAUSTO\SVILUPPI\MSX\CODE\C\MSXgl\projects\exsoccer/exsoccer_s3_b1.c:1013: ERROR: no line number 1013 in file E:\Dropbox\FAUSTO\SVILUPPI\MSX\CODE\C\MSXgl\projects\exsoccer/exsoccer_s3_b1.c
    0000141B C9               [10] 4909 	ret
                                   4910 ;E:\Dropbox\FAUSTO\SVILUPPI\MSX\CODE\C\MSXgl\projects\exsoccer/exsoccer_s3_b1.c:1014: ERROR: no line number 1014 in file E:\Dropbox\FAUSTO\SVILUPPI\MSX\CODE\C\MSXgl\projects\exsoccer/exsoccer_s3_b1.c
                                   4911 ;	---------------------------------
                                   4912 ; Function GetJoystick2Direction
                                   4913 ; ---------------------------------
    0000141C                       4914 _GetJoystick2Direction::
                                   4915 ;E:/Dropbox/FAUSTO/SVILUPPI/MSX/CODE/C/MSXgl/engine/src/bios.h:382: ERROR: no line number 382 in file E:/Dropbox/FAUSTO/SVILUPPI/MSX/CODE/C/MSXgl/engine/src/bios.h
    0000141C 3E 02            [ 7] 4916 	ld	a, #0x02
                                   4917 ;E:\Dropbox\FAUSTO\SVILUPPI\MSX\CODE\C\MSXgl\projects\exsoccer/exsoccer_s3_b1.c:1015: ERROR: no line number 1015 in file E:\Dropbox\FAUSTO\SVILUPPI\MSX\CODE\C\MSXgl\projects\exsoccer/exsoccer_s3_b1.c
                                   4918 ;E:\Dropbox\FAUSTO\SVILUPPI\MSX\CODE\C\MSXgl\projects\exsoccer/exsoccer_s3_b1.c:1016: ERROR: no line number 1016 in file E:\Dropbox\FAUSTO\SVILUPPI\MSX\CODE\C\MSXgl\projects\exsoccer/exsoccer_s3_b1.c
    0000141E C3 D5 00         [10] 4919 	jp  0x00d5
                                   4920 ;E:\Dropbox\FAUSTO\SVILUPPI\MSX\CODE\C\MSXgl\projects\exsoccer/exsoccer_s3_b1.c:1018: ERROR: no line number 1018 in file E:\Dropbox\FAUSTO\SVILUPPI\MSX\CODE\C\MSXgl\projects\exsoccer/exsoccer_s3_b1.c
                                   4921 ;	---------------------------------
                                   4922 ; Function ShowFieldZone
                                   4923 ; ---------------------------------
    00001421                       4924 _ShowFieldZone::
    00001421 32r00r00         [13] 4925 	ld	(_g_FieldScrollingActionInProgress+0), a
                                   4926 ;E:\Dropbox\FAUSTO\SVILUPPI\MSX\CODE\C\MSXgl\projects\exsoccer/exsoccer_s3_b1.c:1019: ERROR: no line number 1019 in file E:\Dropbox\FAUSTO\SVILUPPI\MSX\CODE\C\MSXgl\projects\exsoccer/exsoccer_s3_b1.c
                                   4927 ;E:\Dropbox\FAUSTO\SVILUPPI\MSX\CODE\C\MSXgl\projects\exsoccer/exsoccer_s3_b1.c:1020: ERROR: no line number 1020 in file E:\Dropbox\FAUSTO\SVILUPPI\MSX\CODE\C\MSXgl\projects\exsoccer/exsoccer_s3_b1.c
    00001424 C9               [10] 4928 	ret
                                   4929 ;E:\Dropbox\FAUSTO\SVILUPPI\MSX\CODE\C\MSXgl\projects\exsoccer/exsoccer_s3_b1.c:1021: ERROR: no line number 1021 in file E:\Dropbox\FAUSTO\SVILUPPI\MSX\CODE\C\MSXgl\projects\exsoccer/exsoccer_s3_b1.c
                                   4930 ;	---------------------------------
                                   4931 ; Function TimeUp
                                   4932 ; ---------------------------------
    00001425                       4933 _TimeUp::
                                   4934 ;E:\Dropbox\FAUSTO\SVILUPPI\MSX\CODE\C\MSXgl\projects\exsoccer/exsoccer_s3_b1.c:1023: ERROR: no line number 1023 in file E:\Dropbox\FAUSTO\SVILUPPI\MSX\CODE\C\MSXgl\projects\exsoccer/exsoccer_s3_b1.c
    00001425 C9               [10] 4935 	ret
                                   4936 	.area _SEG3
                                   4937 	.area _INITIALIZER
                                   4938 	.area _CABS (ABS)
