                                      1 ;--------------------------------------------------------
                                      2 ; File Created by SDCC : free open source ANSI-C Compiler
                                      3 ; Version 4.2.0 #13081 (MINGW64)
                                      4 ;--------------------------------------------------------
                                      5 	.module exsoccer_s2_b0
                                      6 	.optsdcc -mz80
                                      7 	
                                      8 ;--------------------------------------------------------
                                      9 ; Public variables in this module
                                     10 ;--------------------------------------------------------
                                     11 	.globl _SelectTeam
                                     12 	.globl _ayFX_Mute
                                     13 	.globl _ayFX_PlayBank
                                     14 	.globl _ayFX_InitBank
                                     15 	.globl _SpriteBlinking
                                     16 	.globl _PenaltyShots
                                     17 	.globl _TeamVictory
                                     18 	.globl _ShowField
                                     19 	.globl _PerformPass
                                     20 	.globl _CornerKick
                                     21 	.globl _GoalKick
                                     22 	.globl _BallThrowIn
                                     23 	.globl _BallInGoal
                                     24 	.globl _SetPlayerBallPossession
                                     25 	.globl _PutBallOnPlayerFeet
                                     26 	.globl _UpdatePlayerPatternByDirection
                                     27 	.globl _GameStart
                                     28 	.globl _LoadSprites
                                     29 	.globl _V9_PrintLayerAStringAtPos
                                     30 	.globl _LoadP1LayerB
                                     31 	.globl _LoadP1LayerA
                                     32 	.globl _InitPalette
                                     33 	.globl _UpdateV9990
                                     34 	.globl _V9_SetPaletteEntry
                                     35 	.globl _V9_SetScrollingBY
                                     36 	.globl _V9_SetColorMode
                                     37 	.globl _V9_SetScreenMode
                                     38 	.globl _V9_Poke16_CurrentAddr
                                     39 	.globl _V9_WriteVRAM_CurrentAddr
                                     40 	.globl _V9_FillVRAM16_CurrentAddr
                                     41 	.globl _V9_FillVRAM_CurrentAddr
                                     42 	.globl _V9_SetWriteAddress
                                     43 	.globl _V9_GetRegister
                                     44 	.globl _V9_SetRegister
                                     45 	.globl _Keyboard_IsKeyPressed
                                     46 	.globl _Joystick_Read
                                     47 	.globl _g_ShowButtonsInfo
                                     48 	.globl _g_FioBreText
                                     49 	.globl _g_SLTSL
                                     50 	.globl _g_GRPACY
                                     51 	.globl _g_GRPACX
                                     52 	.globl _g_LOGOPR
                                     53 	.globl _g_CMASK
                                     54 	.globl _g_CLOC
                                     55 	.globl _g_FNKSTR
                                     56 	.globl _g_ATRBYT
                                     57 	.globl _g_BDRCLR
                                     58 	.globl _g_BAKCLR
                                     59 	.globl _g_FORCLR
                                     60 	.globl _g_CSRX
                                     61 	.globl _g_CSRY
                                     62 	.globl _g_CLIKSW
                                     63 	.globl _g_MLTPAT
                                     64 	.globl _g_MLTATR
                                     65 	.globl _g_MLTCGP
                                     66 	.globl _g_MLTCOL
                                     67 	.globl _g_MLTNAM
                                     68 	.globl _g_GRPPAT
                                     69 	.globl _g_GRPATR
                                     70 	.globl _g_GRPCGP
                                     71 	.globl _g_GRPCOL
                                     72 	.globl _g_GRPNAM
                                     73 	.globl _g_T32PAT
                                     74 	.globl _g_T32ATR
                                     75 	.globl _g_T32CGP
                                     76 	.globl _g_T32COL
                                     77 	.globl _g_T32NAM
                                     78 	.globl _g_TXTPAT
                                     79 	.globl _g_TXTATR
                                     80 	.globl _g_TXTCGP
                                     81 	.globl _g_TXTCOL
                                     82 	.globl _g_TXTNAM
                                     83 	.globl _g_CLMLST
                                     84 	.globl _g_CRTCNT
                                     85 	.globl _g_LINLEN
                                     86 	.globl _g_LINL32
                                     87 	.globl _g_LINL40
                                     88 	.globl _g_EffectStadium
                                     89 	.globl _g_EffectBall
                                     90 	.globl _g_BDOS
                                     91 	.globl _g_MASTER
                                     92 	.globl _g_RAMAD3
                                     93 	.globl _g_RAMAD2
                                     94 	.globl _g_RAMAD1
                                     95 	.globl _g_RAMAD0
                                     96 	.globl _g_BREAKV
                                     97 	.globl _g_DISKVE
                                     98 	.globl _g_KANJTABLE
                                     99 	.globl _g_STRSRC
                                    100 	.globl _g_SUBRID
                                    101 	.globl _g_CHAR_16
                                    102 	.globl _g_MSXMID
                                    103 	.globl _g_MSXVER
                                    104 	.globl _g_ROMVersion
                                    105 	.globl _g_BASRVN
                                    106 	.globl _g_VDP_DW
                                    107 	.globl _g_VDP_DR
                                    108 	.globl _g_CGTABL
                                    109 	.globl _g_SVFFFD
                                    110 	.globl _g_RG27SAV
                                    111 	.globl _g_RG26SAV
                                    112 	.globl _g_RG25SAV
                                    113 	.globl _g_SVFFF8
                                    114 	.globl _g_MINROM
                                    115 	.globl _g_RG23SAV
                                    116 	.globl _g_RG22SAV
                                    117 	.globl _g_RG21SAV
                                    118 	.globl _g_RG20SAV
                                    119 	.globl _g_RG19SAV
                                    120 	.globl _g_RG18SAV
                                    121 	.globl _g_RG17SAV
                                    122 	.globl _g_RG16SAV
                                    123 	.globl _g_RG15SAV
                                    124 	.globl _g_RG14SAV
                                    125 	.globl _g_RG13SAV
                                    126 	.globl _g_RG12SAV
                                    127 	.globl _g_RG11SAV
                                    128 	.globl _g_RG10SAV
                                    129 	.globl _g_RG09SAV
                                    130 	.globl _g_RG08SAV
                                    131 	.globl _g_PROCNM
                                    132 	.globl _g_SLTWRK
                                    133 	.globl _g_SLTATR
                                    134 	.globl _g_SLTTBL
                                    135 	.globl _g_EXPTBL
                                    136 	.globl _g_MNROM
                                    137 	.globl _g_DRWANG
                                    138 	.globl _g_DRWSCL
                                    139 	.globl _g_DRWFLG
                                    140 	.globl _g_GYPOS
                                    141 	.globl _g_GXPOS
                                    142 	.globl _g_BRDATR
                                    143 	.globl _g_CASPRV
                                    144 	.globl _g_OLDSCR
                                    145 	.globl _g_SCRMOD
                                    146 	.globl _g_FLBMEM
                                    147 	.globl _g_KANAMD
                                    148 	.globl _g_KANAST
                                    149 	.globl _g_CAPST
                                    150 	.globl _g_CSTYLE
                                    151 	.globl _g_CSRSW
                                    152 	.globl _g_INSFLG
                                    153 	.globl _g_ESCCNT
                                    154 	.globl _g_GRPHED
                                    155 	.globl _g_WINWID
                                    156 	.globl _g_LOWLIM
                                    157 	.globl _g_INTCNT
                                    158 	.globl _g_INTVAL
                                    159 	.globl _g_JIFFY
                                    160 	.globl _g_PADX
                                    161 	.globl _g_PADY
                                    162 	.globl _g_INTFLG
                                    163 	.globl _g_RTYCNT
                                    164 	.globl _g_TRPTBL
                                    165 	.globl _g_HIMEM
                                    166 	.globl _g_BOTTOM
                                    167 	.globl _g_PATWRK
                                    168 	.globl _g_LINWRK
                                    169 	.globl _g_KEYBUF
                                    170 	.globl _g_NEWKEY
                                    171 	.globl _g_OLDKEY
                                    172 	.globl _g_CLIKFL
                                    173 	.globl _g_ONGSBF
                                    174 	.globl _g_FNKFLG
                                    175 	.globl _g_FNKSWI
                                    176 	.globl _g_CODSAV
                                    177 	.globl _g_FSTPOS
                                    178 	.globl _g_LINTTB
                                    179 	.globl _g_BASROM
                                    180 	.globl _g_ENSTOP
                                    181 	.globl _g_VCBC
                                    182 	.globl _g_VCBB
                                    183 	.globl _g_VCBA
                                    184 	.globl _g_PLYCNT
                                    185 	.globl _g_MUSICF
                                    186 	.globl _g_QUEUEN
                                    187 	.globl _g_MCLPTR
                                    188 	.globl _g_MCLLEN
                                    189 	.globl _g_SAVVOL
                                    190 	.globl _g_VOICEN
                                    191 	.globl _g_SAVSP
                                    192 	.globl _g_PRSCNT
                                    193 	.globl _g_LSTMOD
                                    194 	.globl _g_LSTCOM
                                    195 	.globl _g_COMMSK
                                    196 	.globl _g_ESTBLS
                                    197 	.globl _g_FLAGS
                                    198 	.globl _g_ERRORS
                                    199 	.globl _g_DATCNT
                                    200 	.globl _g_DEVNUM
                                    201 	.globl _g_OLDINT
                                    202 	.globl _g_OLDSTT
                                    203 	.globl _g_MEXBIh
                                    204 	.globl _g_RSIQLN
                                    205 	.globl _g_RSFCB
                                    206 	.globl _g_TOCNT
                                    207 	.globl _g_RSTMP
                                    208 	.globl _g_YSAVE
                                    209 	.globl _g_XSAVE
                                    210 	.globl _g_NORUSE
                                    211 	.globl _g_MODE
                                    212 	.globl _g_ROMA
                                    213 	.globl _g_CHRCNT
                                    214 	.globl _g_EXBRSA
                                    215 	.globl _g_AVCSAV
                                    216 	.globl _g_ACPAGE
                                    217 	.globl _g_DPPAGE
                                    218 	.globl _g_RS2IQ
                                    219 	.globl _g_VOICCQ
                                    220 	.globl _g_VOICBQ
                                    221 	.globl _g_VOICAQ
                                    222 	.globl _g_QUEBAK
                                    223 	.globl _g_QUETAB
                                    224 	.globl _g_ASPCT2
                                    225 	.globl _g_ASPCT1
                                    226 	.globl _g_HEADER
                                    227 	.globl _g_HIGH
                                    228 	.globl _g_LOW
                                    229 	.globl _g_CS240
                                    230 	.globl _g_CS120
                                    231 	.globl _g_GETPNT
                                    232 	.globl _g_PUTPNT
                                    233 	.globl _g_REPCNT
                                    234 	.globl _g_SCNCNT
                                    235 	.globl _g_FRCNEW
                                    236 	.globl _g_QUEUES
                                    237 	.globl _g_MINUPD
                                    238 	.globl _g_MAXUPD
                                    239 	.globl _g_TRGFLG
                                    240 	.globl _g_STATFL
                                    241 	.globl _g_RG7SAV
                                    242 	.globl _g_RG6SAV
                                    243 	.globl _g_RG5SAV
                                    244 	.globl _g_RG4SAV
                                    245 	.globl _g_RG3SAV
                                    246 	.globl _g_RG2SAV
                                    247 	.globl _g_RG1SAV
                                    248 	.globl _g_RG0SAV
                                    249 	.globl _g_CNSDFG
                                    250 	.globl _g_USRTAB
                                    251 	.globl _g_CLPRIM
                                    252 	.globl _g_WRPRIM
                                    253 	.globl _g_RDPRIM
                                    254 	.globl _EffectPlay
                                    255 	.globl _StopStadiumSound
                                    256 	.globl _StadiumSoundEffectLoopFinished
                                    257 	.globl _GetPlayerIdByRole
                                    258 	.globl _UpdateSpritesPositions
                                    259 	.globl _PutBallSprite
                                    260 	.globl _PrintTeamName
                                    261 	.globl _ShowHeaderInfo
                                    262 	.globl _V9_PutLayerATileAtPos
                                    263 	.globl _V9_PutLayerBTileAtPos
                                    264 	.globl _PutPlayerSprite
                                    265 	.globl _ResetPlayersInfo
                                    266 	.globl _ClearTextFromLayerA
                                    267 	.globl _GetNumberString
                                    268 	.globl _IsTeamJoystickTriggerPressed
                                    269 	.globl _GetJoystick1Direction
                                    270 	.globl _GetJoystick2Direction
                                    271 	.globl _ShowFieldZone
                                    272 	.globl _TickCheckBallBoundaries
                                    273 	.globl _TimeUp
                                    274 	.globl _GetClosestPlayerToBall
                                    275 	.globl _Math_Abs32
                                    276 	.globl _ShowMenu
                                    277 	.globl _LoadPresentation
                                    278 	.globl _PerformShot
                                    279 	.globl _TickBallFlying
                                    280 	.globl _TickThrowIn
                                    281 ;--------------------------------------------------------
                                    282 ; special function registers
                                    283 ;--------------------------------------------------------
                         000000A8   284 _g_PortPrimarySlot	=	0x00a8
                         000000A9   285 _g_PortReadKeyboard	=	0x00a9
                         000000AA   286 _g_PortAccessKeyboard	=	0x00aa
                         000000AB   287 _g_PortControl	=	0x00ab
                         00000098   288 _g_VDP_DataPort	=	0x0098
                         00000099   289 _g_VDP_RegPort	=	0x0099
                         00000099   290 _g_VDP_AddrPort	=	0x0099
                         00000099   291 _g_VDP_StatPort	=	0x0099
                         000000A0   292 _g_PSG_RegPort	=	0x00a0
                         000000A1   293 _g_PSG_DataPort	=	0x00a1
                         000000A2   294 _g_PSG_StatPort	=	0x00a2
                         00000010   295 _g_PSG_Ext_RegPort	=	0x0010
                         00000011   296 _g_PSG_Ext_DataPort	=	0x0011
                         00000012   297 _g_PSG_Ext_StatPort	=	0x0012
                         0000007C   298 _g_MSXMusic_IndexPort	=	0x007c
                         0000007D   299 _g_MSXMusic_DataPort	=	0x007d
                         000000C0   300 _g_MSXAudio_IndexPort	=	0x00c0
                         000000C1   301 _g_MSXAudio_DataPort	=	0x00c1
                         000000C2   302 _g_MSXAudio_IndexPort2	=	0x00c2
                         000000C3   303 _g_MSXAudio_DataPort2	=	0x00c3
                         000000B4   304 _g_RTC_AddrPort	=	0x00b4
                         000000B5   305 _g_RTC_DataPort	=	0x00b5
                         00000060   306 _g_V9_VRAMPort	=	0x0060
                         00000061   307 _g_V9_PalettePort	=	0x0061
                         00000062   308 _g_V9_CmdDataPort	=	0x0062
                         00000063   309 _g_V9_RegDataPort	=	0x0063
                         00000064   310 _g_V9_RegSelectPort	=	0x0064
                         00000065   311 _g_V9_SatusPort	=	0x0065
                         00000066   312 _g_V9_IntFlagPort	=	0x0066
                         00000067   313 _g_V9_SysCtrlPort	=	0x0067
                         00000068   314 _g_V9_KanjiAddrLPort	=	0x0068
                         00000069   315 _g_V9_KanjiAddrHPort	=	0x0069
                         00000069   316 _g_V9_KanjiDataPort	=	0x0069
                         0000006A   317 _g_V9_Kanji2AddrLPort	=	0x006a
                         0000006B   318 _g_V9_Kanji2AddrHPort	=	0x006b
                         0000006B   319 _g_V9_Kanji2DataPort	=	0x006b
                         0000006F   320 _g_V9_OutputCtrPort	=	0x006f
                                    321 ;--------------------------------------------------------
                                    322 ; ram data
                                    323 ;--------------------------------------------------------
                                    324 	.area _DATA
                         0000F3AE   325 _g_LINL40	=	0xf3ae
                         0000F3AF   326 _g_LINL32	=	0xf3af
                         0000F3B0   327 _g_LINLEN	=	0xf3b0
                         0000F3B1   328 _g_CRTCNT	=	0xf3b1
                         0000F3B2   329 _g_CLMLST	=	0xf3b2
                         0000F3B3   330 _g_TXTNAM	=	0xf3b3
                         0000F3B5   331 _g_TXTCOL	=	0xf3b5
                         0000F3B7   332 _g_TXTCGP	=	0xf3b7
                         0000F3B9   333 _g_TXTATR	=	0xf3b9
                         0000F3BB   334 _g_TXTPAT	=	0xf3bb
                         0000F3BD   335 _g_T32NAM	=	0xf3bd
                         0000F3BF   336 _g_T32COL	=	0xf3bf
                         0000F3C1   337 _g_T32CGP	=	0xf3c1
                         0000F3C3   338 _g_T32ATR	=	0xf3c3
                         0000F3C5   339 _g_T32PAT	=	0xf3c5
                         0000F3C7   340 _g_GRPNAM	=	0xf3c7
                         0000F3C9   341 _g_GRPCOL	=	0xf3c9
                         0000F3CB   342 _g_GRPCGP	=	0xf3cb
                         0000F3CD   343 _g_GRPATR	=	0xf3cd
                         0000F3CF   344 _g_GRPPAT	=	0xf3cf
                         0000F3D1   345 _g_MLTNAM	=	0xf3d1
                         0000F3D3   346 _g_MLTCOL	=	0xf3d3
                         0000F3D5   347 _g_MLTCGP	=	0xf3d5
                         0000F3D7   348 _g_MLTATR	=	0xf3d7
                         0000F3D9   349 _g_MLTPAT	=	0xf3d9
                         0000F3DB   350 _g_CLIKSW	=	0xf3db
                         0000F3DC   351 _g_CSRY	=	0xf3dc
                         0000F3DD   352 _g_CSRX	=	0xf3dd
                         0000F3E9   353 _g_FORCLR	=	0xf3e9
                         0000F3EA   354 _g_BAKCLR	=	0xf3ea
                         0000F3EB   355 _g_BDRCLR	=	0xf3eb
                         0000F3F2   356 _g_ATRBYT	=	0xf3f2
                         0000F87F   357 _g_FNKSTR	=	0xf87f
                         0000F92A   358 _g_CLOC	=	0xf92a
                         0000F92C   359 _g_CMASK	=	0xf92c
                         0000FB02   360 _g_LOGOPR	=	0xfb02
                         0000FCB7   361 _g_GRPACX	=	0xfcb7
                         0000FCB9   362 _g_GRPACY	=	0xfcb9
                         0000FFFF   363 _g_SLTSL	=	0xffff
    00000000                        364 _g_FioBreText::
    00000000                        365 	.ds 6
    00000006                        366 _PutBallSprite_s_StopCooldown_65538_1244:
    00000006                        367 	.ds 1
    00000007                        368 _GetNumberString_str_65536_1315:
    00000007                        369 	.ds 5
    0000000C                        370 _TickThrowIn_s_ThrowTargetId_65537_1814:
    0000000C                        371 	.ds 1
    0000000D                        372 _TickThrowIn_s_JoyMoved_65537_1814:
    0000000D                        373 	.ds 1
    0000000E                        374 _TickThrowIn_s_ForceThrowTimer_65537_1814:
    0000000E                        375 	.ds 2
                                    376 ;--------------------------------------------------------
                                    377 ; ram data
                                    378 ;--------------------------------------------------------
                                    379 	.area _INITIALIZED
    00000000                        380 _g_ShowButtonsInfo::
    00000000                        381 	.ds 1
                                    382 ;--------------------------------------------------------
                                    383 ; absolute external ram data
                                    384 ;--------------------------------------------------------
                                    385 	.area _DABS (ABS)
                                    386 ;--------------------------------------------------------
                                    387 ; global & static initialisations
                                    388 ;--------------------------------------------------------
                                    389 	.area _HOME
                                    390 	.area _GSINIT
                                    391 	.area _GSFINAL
                                    392 	.area _GSINIT
                                    393 ;E:\Dropbox\FAUSTO\SVILUPPI\MSX\CODE\C\MSXgl\projects\exsoccer/exsoccer_s2_b0.c:158: static u8 s_StopCooldown = 0;
    00000000 FD 21r06r00      [14]  394 	ld	iy, #_PutBallSprite_s_StopCooldown_65538_1244
    00000004 FD 36 00 00      [19]  395 	ld	0 (iy), #0x00
                                    396 ;E:\Dropbox\FAUSTO\SVILUPPI\MSX\CODE\C\MSXgl\projects\exsoccer/exsoccer_s2_b0.c:1142: static u8 s_ThrowTargetId = NO_VALUE;
    00000008 21r0Cr00         [10]  397 	ld	hl, #_TickThrowIn_s_ThrowTargetId_65537_1814
    0000000B 36 FF            [10]  398 	ld	(hl), #0xff
                                    399 ;E:\Dropbox\FAUSTO\SVILUPPI\MSX\CODE\C\MSXgl\projects\exsoccer/exsoccer_s2_b0.c:1143: static bool s_JoyMoved = false;
    0000000D FD 21r0Dr00      [14]  400 	ld	iy, #_TickThrowIn_s_JoyMoved_65537_1814
    00000011 FD 36 00 00      [19]  401 	ld	0 (iy), #0x00
                                    402 ;E:\Dropbox\FAUSTO\SVILUPPI\MSX\CODE\C\MSXgl\projects\exsoccer/exsoccer_s2_b0.c:1144: static u16 s_ForceThrowTimer = 0;
    00000015 21 00 00         [10]  403 	ld	hl, #0x0000
    00000018 22r0Er00         [16]  404 	ld	(_TickThrowIn_s_ForceThrowTimer_65537_1814), hl
                                    405 ;--------------------------------------------------------
                                    406 ; Home
                                    407 ;--------------------------------------------------------
                                    408 	.area _HOME
                                    409 	.area _HOME
                                    410 ;--------------------------------------------------------
                                    411 ; code
                                    412 ;--------------------------------------------------------
                                    413 	.area _SEG2
                                    414 ;E:\Dropbox\FAUSTO\SVILUPPI\MSX\CODE\C\MSXgl\projects\exsoccer/exsoccer_s2_b0.c:90: void EffectPlay(u8 id)
                                    415 ;	---------------------------------
                                    416 ; Function EffectPlay
                                    417 ; ---------------------------------
    00000000                        418 _EffectPlay::
    00000000 4F               [ 4]  419 	ld	c, a
                                    420 ;E:\Dropbox\FAUSTO\SVILUPPI\MSX\CODE\C\MSXgl\projects\exsoccer/exsoccer_s2_b0.c:92: ayFX_Mute();
    00000001 C5               [11]  421 	push	bc
    00000002 CDr00r00         [17]  422 	call	_ayFX_Mute
    00000005 C1               [10]  423 	pop	bc
                                    424 ;E:/Dropbox/FAUSTO/SVILUPPI/MSX/CODE/C/MSXgl/engine/src/ayfx/ayfx_player.h:124: inline void ayFX_SetMode(u8 mode) { ayFX_Mode = mode; }
    00000006 FD 21r00r00      [14]  425 	ld	iy, #_ayFX_Mode
    0000000A FD 36 00 00      [19]  426 	ld	0 (iy), #0x00
                                    427 ;E:\Dropbox\FAUSTO\SVILUPPI\MSX\CODE\C\MSXgl\projects\exsoccer/exsoccer_s2_b0.c:95: switch(id){
    0000000E 79               [ 4]  428 	ld	a,c
    0000000F FE 0E            [ 7]  429 	cp	a,#0x0e
    00000011 28 07            [12]  430 	jr	Z, 00101$
    00000013 D6 0F            [ 7]  431 	sub	a, #0x0f
    00000015 28 11            [12]  432 	jr	Z, 00102$
    00000017 C3r54r00         [10]  433 	jp	00103$
                                    434 ;E:\Dropbox\FAUSTO\SVILUPPI\MSX\CODE\C\MSXgl\projects\exsoccer/exsoccer_s2_b0.c:96: case SOUND_BALL:
    0000001A                        435 00101$:
                                    436 ;E:/Dropbox/FAUSTO/SVILUPPI/MSX/CODE/C/MSXgl/engine/src/ayfx/ayfx_player.h:131: inline void ayFX_SetChannel(u8 chan) { ayFX_Channel = 3 - chan; }
    0000001A 21r00r00         [10]  437 	ld	hl, #_ayFX_Channel
    0000001D 36 01            [10]  438 	ld	(hl), #0x01
                                    439 ;E:\Dropbox\FAUSTO\SVILUPPI\MSX\CODE\C\MSXgl\projects\exsoccer/exsoccer_s2_b0.c:98: ayFX_InitBank(g_EffectBall);
    0000001F 21r59r00         [10]  440 	ld	hl, #_g_EffectBall
    00000022 CDr00r00         [17]  441 	call	_ayFX_InitBank
                                    442 ;E:\Dropbox\FAUSTO\SVILUPPI\MSX\CODE\C\MSXgl\projects\exsoccer/exsoccer_s2_b0.c:99: break;
    00000025 C3r54r00         [10]  443 	jp	00103$
                                    444 ;E:\Dropbox\FAUSTO\SVILUPPI\MSX\CODE\C\MSXgl\projects\exsoccer/exsoccer_s2_b0.c:100: case SOUND_STADIUM:
    00000028                        445 00102$:
                                    446 ;E:/Dropbox/FAUSTO/SVILUPPI/MSX/CODE/C/MSXgl/engine/src/pt3/pt3_player.h:301: PT3_State |= 1 << (chan + 1);
    00000028 3Ar00r00         [13]  447 	ld	a, (_PT3_State+0)
    0000002B F6 04            [ 7]  448 	or	a, #0x04
    0000002D 32r00r00         [13]  449 	ld	(_PT3_State+0), a
    00000030 F6 08            [ 7]  450 	or	a, #0x08
    00000032 32r00r00         [13]  451 	ld	(_PT3_State+0), a
                                    452 ;E:\Dropbox\FAUSTO\SVILUPPI\MSX\CODE\C\MSXgl\projects\exsoccer/exsoccer_s2_b0.c:104: g_SoundEffectLoopIsActive=true;
    00000035 FD 21r00r00      [14]  453 	ld	iy, #_g_SoundEffectLoopIsActive
    00000039 FD 36 00 01      [19]  454 	ld	0 (iy), #0x01
                                    455 ;E:\Dropbox\FAUSTO\SVILUPPI\MSX\CODE\C\MSXgl\projects\exsoccer/exsoccer_s2_b0.c:105: ayFX_SetFinishCB(StadiumSoundEffectLoopFinished);
    0000003D FD 21r00r00      [14]  456 	ld	iy, #_ayFX_Finish
    00000041 FD 36 00rD7      [19]  457 	ld	0 (iy), #<(_StadiumSoundEffectLoopFinished)
    00000045 FD 36 01s00      [19]  458 	ld	1 (iy), #>(_StadiumSoundEffectLoopFinished)
                                    459 ;E:/Dropbox/FAUSTO/SVILUPPI/MSX/CODE/C/MSXgl/engine/src/ayfx/ayfx_player.h:131: inline void ayFX_SetChannel(u8 chan) { ayFX_Channel = 3 - chan; }
    00000049 21r00r00         [10]  460 	ld	hl, #_ayFX_Channel
    0000004C 36 03            [10]  461 	ld	(hl), #0x03
                                    462 ;E:\Dropbox\FAUSTO\SVILUPPI\MSX\CODE\C\MSXgl\projects\exsoccer/exsoccer_s2_b0.c:107: ayFX_InitBank(g_EffectStadium);
    0000004E 21r63r00         [10]  463 	ld	hl, #_g_EffectStadium
    00000051 CDr00r00         [17]  464 	call	_ayFX_InitBank
                                    465 ;E:\Dropbox\FAUSTO\SVILUPPI\MSX\CODE\C\MSXgl\projects\exsoccer/exsoccer_s2_b0.c:109: }
    00000054                        466 00103$:
                                    467 ;E:\Dropbox\FAUSTO\SVILUPPI\MSX\CODE\C\MSXgl\projects\exsoccer/exsoccer_s2_b0.c:110: ayFX_PlayBank(0, 0); 
                                    468 ;	spillPairReg hl
                                    469 ;	spillPairReg hl
    00000054 AF               [ 4]  470 	xor	a, a
    00000055 6F               [ 4]  471 	ld	l, a
                                    472 ;E:\Dropbox\FAUSTO\SVILUPPI\MSX\CODE\C\MSXgl\projects\exsoccer/exsoccer_s2_b0.c:111: }
    00000056 C3r00r00         [10]  473 	jp	_ayFX_PlayBank
                         0000F380   474 _g_RDPRIM	=	0xf380
                         0000F385   475 _g_WRPRIM	=	0xf385
                         0000F38C   476 _g_CLPRIM	=	0xf38c
                         0000F39A   477 _g_USRTAB	=	0xf39a
                         0000F3DE   478 _g_CNSDFG	=	0xf3de
                         0000F3DF   479 _g_RG0SAV	=	0xf3df
                         0000F3E0   480 _g_RG1SAV	=	0xf3e0
                         0000F3E1   481 _g_RG2SAV	=	0xf3e1
                         0000F3E2   482 _g_RG3SAV	=	0xf3e2
                         0000F3E3   483 _g_RG4SAV	=	0xf3e3
                         0000F3E4   484 _g_RG5SAV	=	0xf3e4
                         0000F3E5   485 _g_RG6SAV	=	0xf3e5
                         0000F3E6   486 _g_RG7SAV	=	0xf3e6
                         0000F3E7   487 _g_STATFL	=	0xf3e7
                         0000F3E8   488 _g_TRGFLG	=	0xf3e8
                         0000F3EC   489 _g_MAXUPD	=	0xf3ec
                         0000F3EF   490 _g_MINUPD	=	0xf3ef
                         0000F3F3   491 _g_QUEUES	=	0xf3f3
                         0000F3F5   492 _g_FRCNEW	=	0xf3f5
                         0000F3F6   493 _g_SCNCNT	=	0xf3f6
                         0000F3F7   494 _g_REPCNT	=	0xf3f7
                         0000F3F8   495 _g_PUTPNT	=	0xf3f8
                         0000F3FA   496 _g_GETPNT	=	0xf3fa
                         0000F3FC   497 _g_CS120	=	0xf3fc
                         0000F401   498 _g_CS240	=	0xf401
                         0000F406   499 _g_LOW	=	0xf406
                         0000F408   500 _g_HIGH	=	0xf408
                         0000F40A   501 _g_HEADER	=	0xf40a
                         0000F40B   502 _g_ASPCT1	=	0xf40b
                         0000F40D   503 _g_ASPCT2	=	0xf40d
                         0000F959   504 _g_QUETAB	=	0xf959
                         0000F971   505 _g_QUEBAK	=	0xf971
                         0000F975   506 _g_VOICAQ	=	0xf975
                         0000F9F5   507 _g_VOICBQ	=	0xf9f5
                         0000FA75   508 _g_VOICCQ	=	0xfa75
                         0000FAF5   509 _g_RS2IQ	=	0xfaf5
                         0000FAF5   510 _g_DPPAGE	=	0xfaf5
                         0000FAF6   511 _g_ACPAGE	=	0xfaf6
                         0000FAF7   512 _g_AVCSAV	=	0xfaf7
                         0000FAF8   513 _g_EXBRSA	=	0xfaf8
                         0000FAF9   514 _g_CHRCNT	=	0xfaf9
                         0000FAFA   515 _g_ROMA	=	0xfafa
                         0000FAFC   516 _g_MODE	=	0xfafc
                         0000FAFD   517 _g_NORUSE	=	0xfafd
                         0000FAFE   518 _g_XSAVE	=	0xfafe
                         0000FB00   519 _g_YSAVE	=	0xfb00
                         0000FB03   520 _g_RSTMP	=	0xfb03
                         0000FB03   521 _g_TOCNT	=	0xfb03
                         0000FB04   522 _g_RSFCB	=	0xfb04
                         0000FB06   523 _g_RSIQLN	=	0xfb06
                         0000FB07   524 _g_MEXBIh	=	0xfb07
                         0000FB0C   525 _g_OLDSTT	=	0xfb0c
                         0000FB0C   526 _g_OLDINT	=	0xfb0c
                         0000FB16   527 _g_DEVNUM	=	0xfb16
                         0000FB17   528 _g_DATCNT	=	0xfb17
                         0000FB1A   529 _g_ERRORS	=	0xfb1a
                         0000FB1B   530 _g_FLAGS	=	0xfb1b
                         0000FB1C   531 _g_ESTBLS	=	0xfb1c
                         0000FB1D   532 _g_COMMSK	=	0xfb1d
                         0000FB1E   533 _g_LSTCOM	=	0xfb1e
                         0000FB1F   534 _g_LSTMOD	=	0xfb1f
                         0000FB35   535 _g_PRSCNT	=	0xfb35
                         0000FB36   536 _g_SAVSP	=	0xfb36
                         0000FB38   537 _g_VOICEN	=	0xfb38
                         0000FB39   538 _g_SAVVOL	=	0xfb39
                         0000FB3B   539 _g_MCLLEN	=	0xfb3b
                         0000FB3C   540 _g_MCLPTR	=	0xfb3c
                         0000FB3E   541 _g_QUEUEN	=	0xfb3e
                         0000FB3F   542 _g_MUSICF	=	0xfb3f
                         0000FB40   543 _g_PLYCNT	=	0xfb40
                         0000FB41   544 _g_VCBA	=	0xfb41
                         0000FB66   545 _g_VCBB	=	0xfb66
                         0000FB8B   546 _g_VCBC	=	0xfb8b
                         0000FBB0   547 _g_ENSTOP	=	0xfbb0
                         0000FBB1   548 _g_BASROM	=	0xfbb1
                         0000FBB2   549 _g_LINTTB	=	0xfbb2
                         0000FBCA   550 _g_FSTPOS	=	0xfbca
                         0000FBCC   551 _g_CODSAV	=	0xfbcc
                         0000FBCD   552 _g_FNKSWI	=	0xfbcd
                         0000FBCE   553 _g_FNKFLG	=	0xfbce
                         0000FBD8   554 _g_ONGSBF	=	0xfbd8
                         0000FBD9   555 _g_CLIKFL	=	0xfbd9
                         0000FBDA   556 _g_OLDKEY	=	0xfbda
                         0000FBE5   557 _g_NEWKEY	=	0xfbe5
                         0000FBF0   558 _g_KEYBUF	=	0xfbf0
                         0000FC18   559 _g_LINWRK	=	0xfc18
                         0000FC40   560 _g_PATWRK	=	0xfc40
                         0000FC48   561 _g_BOTTOM	=	0xfc48
                         0000FC4A   562 _g_HIMEM	=	0xfc4a
                         0000FC4C   563 _g_TRPTBL	=	0xfc4c
                         0000FC9A   564 _g_RTYCNT	=	0xfc9a
                         0000FC9B   565 _g_INTFLG	=	0xfc9b
                         0000FC9C   566 _g_PADY	=	0xfc9c
                         0000FC9D   567 _g_PADX	=	0xfc9d
                         0000FC9E   568 _g_JIFFY	=	0xfc9e
                         0000FCA0   569 _g_INTVAL	=	0xfca0
                         0000FCA2   570 _g_INTCNT	=	0xfca2
                         0000FCA4   571 _g_LOWLIM	=	0xfca4
                         0000FCA5   572 _g_WINWID	=	0xfca5
                         0000FCA6   573 _g_GRPHED	=	0xfca6
                         0000FCA7   574 _g_ESCCNT	=	0xfca7
                         0000FCA8   575 _g_INSFLG	=	0xfca8
                         0000FCA9   576 _g_CSRSW	=	0xfca9
                         0000FCAA   577 _g_CSTYLE	=	0xfcaa
                         0000FCAB   578 _g_CAPST	=	0xfcab
                         0000FCAC   579 _g_KANAST	=	0xfcac
                         0000FCAD   580 _g_KANAMD	=	0xfcad
                         0000FCAE   581 _g_FLBMEM	=	0xfcae
                         0000FCAF   582 _g_SCRMOD	=	0xfcaf
                         0000FCB0   583 _g_OLDSCR	=	0xfcb0
                         0000FCB1   584 _g_CASPRV	=	0xfcb1
                         0000FCB2   585 _g_BRDATR	=	0xfcb2
                         0000FCB3   586 _g_GXPOS	=	0xfcb3
                         0000FCB5   587 _g_GYPOS	=	0xfcb5
                         0000FCBB   588 _g_DRWFLG	=	0xfcbb
                         0000FCBC   589 _g_DRWSCL	=	0xfcbc
                         0000FCBD   590 _g_DRWANG	=	0xfcbd
                         0000FCC1   591 _g_MNROM	=	0xfcc1
                         0000FCC1   592 _g_EXPTBL	=	0xfcc1
                         0000FCC5   593 _g_SLTTBL	=	0xfcc5
                         0000FCC9   594 _g_SLTATR	=	0xfcc9
                         0000FD09   595 _g_SLTWRK	=	0xfd09
                         0000FD89   596 _g_PROCNM	=	0xfd89
                         0000FFE7   597 _g_RG08SAV	=	0xffe7
                         0000FFE8   598 _g_RG09SAV	=	0xffe8
                         0000FFE9   599 _g_RG10SAV	=	0xffe9
                         0000FFEA   600 _g_RG11SAV	=	0xffea
                         0000FFEB   601 _g_RG12SAV	=	0xffeb
                         0000FFEC   602 _g_RG13SAV	=	0xffec
                         0000FFED   603 _g_RG14SAV	=	0xffed
                         0000FFEE   604 _g_RG15SAV	=	0xffee
                         0000FFEF   605 _g_RG16SAV	=	0xffef
                         0000FFF0   606 _g_RG17SAV	=	0xfff0
                         0000FFF1   607 _g_RG18SAV	=	0xfff1
                         0000FFF2   608 _g_RG19SAV	=	0xfff2
                         0000FFF3   609 _g_RG20SAV	=	0xfff3
                         0000FFF4   610 _g_RG21SAV	=	0xfff4
                         0000FFF5   611 _g_RG22SAV	=	0xfff5
                         0000FFF6   612 _g_RG23SAV	=	0xfff6
                         0000FFF7   613 _g_MINROM	=	0xfff7
                         0000FFF8   614 _g_SVFFF8	=	0xfff8
                         0000FFFA   615 _g_RG25SAV	=	0xfffa
                         0000FFFB   616 _g_RG26SAV	=	0xfffb
                         0000FFFC   617 _g_RG27SAV	=	0xfffc
                         0000FFFD   618 _g_SVFFFD	=	0xfffd
                         00000004   619 _g_CGTABL	=	0x0004
                         00000006   620 _g_VDP_DR	=	0x0006
                         00000007   621 _g_VDP_DW	=	0x0007
                         0000002B   622 _g_BASRVN	=	0x002b
                         0000002B   623 _g_ROMVersion	=	0x002b
                         0000002D   624 _g_MSXVER	=	0x002d
                         0000002E   625 _g_MSXMID	=	0x002e
                         00000034   626 _g_CHAR_16	=	0x0034
                         00000000   627 _g_SUBRID	=	0x0000
                         00000002   628 _g_STRSRC	=	0x0002
                         0000F30F   629 _g_KANJTABLE	=	0xf30f
                         0000F323   630 _g_DISKVE	=	0xf323
                         0000F325   631 _g_BREAKV	=	0xf325
                         0000F341   632 _g_RAMAD0	=	0xf341
                         0000F342   633 _g_RAMAD1	=	0xf342
                         0000F343   634 _g_RAMAD2	=	0xf343
                         0000F344   635 _g_RAMAD3	=	0xf344
                         0000F348   636 _g_MASTER	=	0xf348
                         0000F37D   637 _g_BDOS	=	0xf37d
    00000059                        638 _g_EffectBall:
    00000059 6C                     639 	.db #0x6c	; 108	'l'
    0000005A 00                     640 	.db #0x00	; 0
    0000005B 04                     641 	.db #0x04	; 4
    0000005C 18                     642 	.db #0x18	; 24
    0000005D 09                     643 	.db #0x09	; 9
    0000005E 06                     644 	.db #0x06	; 6
    0000005F 03                     645 	.db #0x03	; 3
    00000060 01                     646 	.db #0x01	; 1
    00000061 D0                     647 	.db #0xd0	; 208
    00000062 20                     648 	.db #0x20	; 32
    00000063                        649 _g_EffectStadium:
    00000063 5A                     650 	.db #0x5a	; 90	'Z'
    00000064 0C                     651 	.db #0x0c	; 12
    00000065 5B                     652 	.db #0x5b	; 91
    00000066 00                     653 	.db #0x00	; 0
    00000067 1C                     654 	.db #0x1c	; 28
    00000068 1D                     655 	.db #0x1d	; 29
    00000069 1F                     656 	.db #0x1f	; 31
    0000006A 1E                     657 	.db #0x1e	; 30
    0000006B 1C                     658 	.db #0x1c	; 28
    0000006C 1B                     659 	.db #0x1b	; 27
    0000006D 19                     660 	.db #0x19	; 25
    0000006E 1A                     661 	.db #0x1a	; 26
    0000006F 1C                     662 	.db #0x1c	; 28
    00000070 1E                     663 	.db #0x1e	; 30
    00000071 1F                     664 	.db #0x1f	; 31
    00000072 1D                     665 	.db #0x1d	; 29
    00000073 1B                     666 	.db #0x1b	; 27
    00000074 19                     667 	.db #0x19	; 25
    00000075 1A                     668 	.db #0x1a	; 26
    00000076 1C                     669 	.db #0x1c	; 28
    00000077 1D                     670 	.db #0x1d	; 29
    00000078 1F                     671 	.db #0x1f	; 31
    00000079 1F                     672 	.db #0x1f	; 31
    0000007A 1E                     673 	.db #0x1e	; 30
    0000007B 1C                     674 	.db #0x1c	; 28
    0000007C 1A                     675 	.db #0x1a	; 26
    0000007D 19                     676 	.db #0x19	; 25
    0000007E 18                     677 	.db #0x18	; 24
    0000007F 1D                     678 	.db #0x1d	; 29
    00000080 1F                     679 	.db #0x1f	; 31
    00000081 1E                     680 	.db #0x1e	; 30
    00000082 1C                     681 	.db #0x1c	; 28
    00000083 1A                     682 	.db #0x1a	; 26
    00000084 18                     683 	.db #0x18	; 24
    00000085 D0                     684 	.db #0xd0	; 208
    00000086 20                     685 	.db #0x20	; 32
    00000087                        686 _g_TeamPos:
    00000087 21 00                  687 	.dw #0x0021
    00000089 6D 00                  688 	.dw #0x006d
    0000008B 72 00                  689 	.dw #0x0072
    0000008D 6D 00                  690 	.dw #0x006d
    0000008F C5 00                  691 	.dw #0x00c5
    00000091 6D 00                  692 	.dw #0x006d
    00000093 21 00                  693 	.dw #0x0021
    00000095 C0 00                  694 	.dw #0x00c0
    00000097 72 00                  695 	.dw #0x0072
    00000099 C0 00                  696 	.dw #0x00c0
    0000009B C5 00                  697 	.dw #0x00c5
    0000009D C0 00                  698 	.dw #0x00c0
    0000009F                        699 _g_TeamGrayPos:
    0000009F 01 00                  700 	.dw #0x0001
    000000A1 05 00                  701 	.dw #0x0005
    000000A3 0B 00                  702 	.dw #0x000b
    000000A5 05 00                  703 	.dw #0x0005
    000000A7 15 00                  704 	.dw #0x0015
    000000A9 05 00                  705 	.dw #0x0005
    000000AB 01 00                  706 	.dw #0x0001
    000000AD 0F 00                  707 	.dw #0x000f
    000000AF 0B 00                  708 	.dw #0x000b
    000000B1 0F 00                  709 	.dw #0x000f
    000000B3 15 00                  710 	.dw #0x0015
    000000B5 0F 00                  711 	.dw #0x000f
                                    712 ;E:\Dropbox\FAUSTO\SVILUPPI\MSX\CODE\C\MSXgl\projects\exsoccer/exsoccer_s2_b0.c:112: void StopStadiumSound(){
                                    713 ;	---------------------------------
                                    714 ; Function StopStadiumSound
                                    715 ; ---------------------------------
    000000B7                        716 _StopStadiumSound::
                                    717 ;E:\Dropbox\FAUSTO\SVILUPPI\MSX\CODE\C\MSXgl\projects\exsoccer/exsoccer_s2_b0.c:113: if(g_SoundEffectLoopIsActive){
    000000B7 3Ar00r00         [13]  718 	ld	a, (_g_SoundEffectLoopIsActive+0)
    000000BA B7               [ 4]  719 	or	a, a
    000000BB C8               [11]  720 	ret	Z
                                    721 ;E:\Dropbox\FAUSTO\SVILUPPI\MSX\CODE\C\MSXgl\projects\exsoccer/exsoccer_s2_b0.c:114: g_SoundEffectLoopIsActive=false;
    000000BC 21r00r00         [10]  722 	ld	hl, #_g_SoundEffectLoopIsActive
    000000BF 36 00            [10]  723 	ld	(hl), #0x00
                                    724 ;E:\Dropbox\FAUSTO\SVILUPPI\MSX\CODE\C\MSXgl\projects\exsoccer/exsoccer_s2_b0.c:115: ayFX_Mute();
    000000C1 CDr00r00         [17]  725 	call	_ayFX_Mute
                                    726 ;E:/Dropbox/FAUSTO/SVILUPPI/MSX/CODE/C/MSXgl/engine/src/pt3/pt3_player.h:303: PT3_State &= ~(1 << (chan + 1));
    000000C4 3Ar00r00         [13]  727 	ld	a, (_PT3_State+0)
    000000C7 E6 FD            [ 7]  728 	and	a, #0xfd
    000000C9 32r00r00         [13]  729 	ld	(_PT3_State+0), a
    000000CC E6 FB            [ 7]  730 	and	a, #0xfb
    000000CE 32r00r00         [13]  731 	ld	(_PT3_State+0), a
    000000D1 E6 F7            [ 7]  732 	and	a, #0xf7
    000000D3 32r00r00         [13]  733 	ld	(_PT3_State+0), a
                                    734 ;E:\Dropbox\FAUSTO\SVILUPPI\MSX\CODE\C\MSXgl\projects\exsoccer/exsoccer_s2_b0.c:118: PT3_Mute(PSG_CHANNEL_C, false);
                                    735 ;E:\Dropbox\FAUSTO\SVILUPPI\MSX\CODE\C\MSXgl\projects\exsoccer/exsoccer_s2_b0.c:120: }
    000000D6 C9               [10]  736 	ret
                                    737 ;E:\Dropbox\FAUSTO\SVILUPPI\MSX\CODE\C\MSXgl\projects\exsoccer/exsoccer_s2_b0.c:121: void StadiumSoundEffectLoopFinished(){
                                    738 ;	---------------------------------
                                    739 ; Function StadiumSoundEffectLoopFinished
                                    740 ; ---------------------------------
    000000D7                        741 _StadiumSoundEffectLoopFinished::
                                    742 ;E:\Dropbox\FAUSTO\SVILUPPI\MSX\CODE\C\MSXgl\projects\exsoccer/exsoccer_s2_b0.c:122: if(g_SoundEffectLoopIsActive){
    000000D7 3Ar00r00         [13]  743 	ld	a, (_g_SoundEffectLoopIsActive+0)
    000000DA B7               [ 4]  744 	or	a, a
    000000DB C8               [11]  745 	ret	Z
                                    746 ;E:\Dropbox\FAUSTO\SVILUPPI\MSX\CODE\C\MSXgl\projects\exsoccer/exsoccer_s2_b0.c:123: EffectPlay(SOUND_STADIUM);
    000000DC 3E 0F            [ 7]  747 	ld	a, #0x0f
                                    748 ;E:\Dropbox\FAUSTO\SVILUPPI\MSX\CODE\C\MSXgl\projects\exsoccer/exsoccer_s2_b0.c:125: }
    000000DE C3r00r00         [10]  749 	jp	_EffectPlay
                                    750 ;E:\Dropbox\FAUSTO\SVILUPPI\MSX\CODE\C\MSXgl\projects\exsoccer/exsoccer_s2_b0.c:126: u8 GetPlayerIdByRole(u8 teamId, u8 role){
                                    751 ;	---------------------------------
                                    752 ; Function GetPlayerIdByRole
                                    753 ; ---------------------------------
    000000E1                        754 _GetPlayerIdByRole::
    000000E1 DD E5            [15]  755 	push	ix
    000000E3 DD 21 00 00      [14]  756 	ld	ix,#0
    000000E7 DD 39            [15]  757 	add	ix,sp
    000000E9 F5               [11]  758 	push	af
    000000EA 3B               [ 6]  759 	dec	sp
    000000EB 4F               [ 4]  760 	ld	c, a
    000000EC DD 75 FF         [19]  761 	ld	-1 (ix), l
                                    762 ;E:\Dropbox\FAUSTO\SVILUPPI\MSX\CODE\C\MSXgl\projects\exsoccer/exsoccer_s2_b0.c:127: u8 playerId=NO_VALUE;
    000000EF DD 36 FD FF      [19]  763 	ld	-3 (ix), #0xff
                                    764 ;E:\Dropbox\FAUSTO\SVILUPPI\MSX\CODE\C\MSXgl\projects\exsoccer/exsoccer_s2_b0.c:128: for(u8 i=0;i<14;i++){
    000000F3 DD 36 FE 00      [19]  765 	ld	-2 (ix), #0x00
    000000F7 06 00            [ 7]  766 	ld	b, #0x00
    000000F9                        767 00106$:
    000000F9 78               [ 4]  768 	ld	a, b
    000000FA D6 0E            [ 7]  769 	sub	a, #0x0e
    000000FC 30 36            [12]  770 	jr	NC, 00104$
                                    771 ;E:\Dropbox\FAUSTO\SVILUPPI\MSX\CODE\C\MSXgl\projects\exsoccer/exsoccer_s2_b0.c:129: if(g_Players[i].Role==role && g_Players[i].TeamId==teamId){
    000000FE 58               [ 4]  772 	ld	e, b
    000000FF 16 00            [ 7]  773 	ld	d, #0x00
    00000101 6B               [ 4]  774 	ld	l, e
    00000102 62               [ 4]  775 	ld	h, d
    00000103 29               [11]  776 	add	hl, hl
    00000104 29               [11]  777 	add	hl, hl
    00000105 19               [11]  778 	add	hl, de
    00000106 29               [11]  779 	add	hl, hl
    00000107 29               [11]  780 	add	hl, hl
    00000108 19               [11]  781 	add	hl, de
    00000109 11r00r00         [10]  782 	ld	de, #_g_Players
    0000010C 19               [11]  783 	add	hl, de
                                    784 ;	spillPairReg hl
                                    785 ;	spillPairReg hl
    0000010D 5D               [ 4]  786 	ld	e, l
    0000010E 54               [ 4]  787 	ld	d, h
                                    788 ;	spillPairReg hl
                                    789 ;	spillPairReg hl
    0000010F C5               [11]  790 	push	bc
    00000110 01 0D 00         [10]  791 	ld	bc, #0x000d
    00000113 09               [11]  792 	add	hl, bc
    00000114 C1               [10]  793 	pop	bc
                                    794 ;	spillPairReg hl
    00000115 DD 7E FF         [19]  795 	ld	a,-1 (ix)
    00000118 96               [ 7]  796 	sub	a,(hl)
    00000119 20 12            [12]  797 	jr	NZ, 00107$
    0000011B 21 09 00         [10]  798 	ld	hl, #9
    0000011E 19               [11]  799 	add	hl, de
    0000011F 5E               [ 7]  800 	ld	e, (hl)
    00000120 79               [ 4]  801 	ld	a, c
    00000121 93               [ 4]  802 	sub	a, e
    00000122 20 09            [12]  803 	jr	NZ, 00107$
                                    804 ;E:\Dropbox\FAUSTO\SVILUPPI\MSX\CODE\C\MSXgl\projects\exsoccer/exsoccer_s2_b0.c:130: playerId=i;
    00000124 DD 7E FE         [19]  805 	ld	a, -2 (ix)
    00000127 DD 77 FD         [19]  806 	ld	-3 (ix), a
                                    807 ;E:\Dropbox\FAUSTO\SVILUPPI\MSX\CODE\C\MSXgl\projects\exsoccer/exsoccer_s2_b0.c:131: break;
    0000012A C3r34r01         [10]  808 	jp	00104$
    0000012D                        809 00107$:
                                    810 ;E:\Dropbox\FAUSTO\SVILUPPI\MSX\CODE\C\MSXgl\projects\exsoccer/exsoccer_s2_b0.c:128: for(u8 i=0;i<14;i++){
    0000012D 04               [ 4]  811 	inc	b
    0000012E DD 70 FE         [19]  812 	ld	-2 (ix), b
    00000131 C3rF9r00         [10]  813 	jp	00106$
    00000134                        814 00104$:
                                    815 ;E:\Dropbox\FAUSTO\SVILUPPI\MSX\CODE\C\MSXgl\projects\exsoccer/exsoccer_s2_b0.c:134: return playerId;
    00000134 DD 7E FD         [19]  816 	ld	a, -3 (ix)
                                    817 ;E:\Dropbox\FAUSTO\SVILUPPI\MSX\CODE\C\MSXgl\projects\exsoccer/exsoccer_s2_b0.c:135: }
    00000137 DD F9            [10]  818 	ld	sp, ix
    00000139 DD E1            [14]  819 	pop	ix
    0000013B C9               [10]  820 	ret
                                    821 ;E:\Dropbox\FAUSTO\SVILUPPI\MSX\CODE\C\MSXgl\projects\exsoccer/exsoccer_s2_b0.c:136: void UpdateSpritesPositions(){
                                    822 ;	---------------------------------
                                    823 ; Function UpdateSpritesPositions
                                    824 ; ---------------------------------
    0000013C                        825 _UpdateSpritesPositions::
                                    826 ;E:\Dropbox\FAUSTO\SVILUPPI\MSX\CODE\C\MSXgl\projects\exsoccer/exsoccer_s2_b0.c:137: for (u8 i=0;i<15;i++){
    0000013C 0E 00            [ 7]  827 	ld	c, #0x00
    0000013E                        828 00103$:
    0000013E 79               [ 4]  829 	ld	a, c
    0000013F D6 0F            [ 7]  830 	sub	a, #0x0f
    00000141 D2r4Er01         [10]  831 	jp	NC,_PutBallSprite
                                    832 ;E:\Dropbox\FAUSTO\SVILUPPI\MSX\CODE\C\MSXgl\projects\exsoccer/exsoccer_s2_b0.c:138: PutPlayerSprite(i);
    00000144 C5               [11]  833 	push	bc
    00000145 79               [ 4]  834 	ld	a, c
    00000146 CDrF3r04         [17]  835 	call	_PutPlayerSprite
    00000149 C1               [10]  836 	pop	bc
                                    837 ;E:\Dropbox\FAUSTO\SVILUPPI\MSX\CODE\C\MSXgl\projects\exsoccer/exsoccer_s2_b0.c:137: for (u8 i=0;i<15;i++){
    0000014A 0C               [ 4]  838 	inc	c
                                    839 ;E:\Dropbox\FAUSTO\SVILUPPI\MSX\CODE\C\MSXgl\projects\exsoccer/exsoccer_s2_b0.c:140: PutBallSprite();
                                    840 ;E:\Dropbox\FAUSTO\SVILUPPI\MSX\CODE\C\MSXgl\projects\exsoccer/exsoccer_s2_b0.c:141: }
    0000014B C3r3Er01         [10]  841 	jp	00103$
                                    842 ;E:\Dropbox\FAUSTO\SVILUPPI\MSX\CODE\C\MSXgl\projects\exsoccer/exsoccer_s2_b0.c:142: void PutBallSprite(){
                                    843 ;	---------------------------------
                                    844 ; Function PutBallSprite
                                    845 ; ---------------------------------
    0000014E                        846 _PutBallSprite::
    0000014E DD E5            [15]  847 	push	ix
    00000150 DD 21 00 00      [14]  848 	ld	ix,#0
    00000154 DD 39            [15]  849 	add	ix,sp
    00000156 21 F8 FF         [10]  850 	ld	hl, #-8
    00000159 39               [11]  851 	add	hl, sp
    0000015A F9               [ 6]  852 	ld	sp, hl
                                    853 ;E:\Dropbox\FAUSTO\SVILUPPI\MSX\CODE\C\MSXgl\projects\exsoccer/exsoccer_s2_b0.c:144: attr.D=0;
    0000015B 21 00 00         [10]  854 	ld	hl, #0
    0000015E 39               [11]  855 	add	hl, sp
    0000015F 4D               [ 4]  856 	ld	c, l
    00000160 44               [ 4]  857 	ld	b, h
    00000161 21 03 00         [10]  858 	ld	hl, #3
    00000164 39               [11]  859 	add	hl, sp
    00000165 CB A6            [15]  860 	res	4, (hl)
                                    861 ;E:\Dropbox\FAUSTO\SVILUPPI\MSX\CODE\C\MSXgl\projects\exsoccer/exsoccer_s2_b0.c:145: attr.SC=0;
    00000167 21 03 00         [10]  862 	ld	hl, #3
    0000016A 39               [11]  863 	add	hl, sp
    0000016B 7E               [ 7]  864 	ld	a, (hl)
    0000016C E6 3F            [ 7]  865 	and	a, #0x3f
    0000016E 77               [ 7]  866 	ld	(hl), a
                                    867 ;E:\Dropbox\FAUSTO\SVILUPPI\MSX\CODE\C\MSXgl\projects\exsoccer/exsoccer_s2_b0.c:146: attr.Y = g_Ball.Y-g_FieldCurrentYPosition;
    0000016F 21r00r00         [10]  868 	ld	hl, #_g_Ball+0
    00000172 56               [ 7]  869 	ld	d, (hl)
    00000173 3Ar00r00         [13]  870 	ld	a, (_g_FieldCurrentYPosition+0)
    00000176 5F               [ 4]  871 	ld	e, a
    00000177 7A               [ 4]  872 	ld	a, d
    00000178 93               [ 4]  873 	sub	a, e
    00000179 02               [ 7]  874 	ld	(bc), a
                                    875 ;E:\Dropbox\FAUSTO\SVILUPPI\MSX\CODE\C\MSXgl\projects\exsoccer/exsoccer_s2_b0.c:149: u8 logicalSize = g_Ball.Size;
    0000017A 21r04r00         [10]  876 	ld	hl, #_g_Ball + 4
    0000017D 5E               [ 7]  877 	ld	e, (hl)
                                    878 ;E:\Dropbox\FAUSTO\SVILUPPI\MSX\CODE\C\MSXgl\projects\exsoccer/exsoccer_s2_b0.c:151: if (g_Ball.PossessionPlayerId != NO_VALUE) logicalSize = 1;
    0000017E 3Ar06r00         [13]  879 	ld	a, (#_g_Ball + 6)
    00000181 3C               [ 4]  880 	inc	a
    00000182 28 02            [12]  881 	jr	Z, 00102$
    00000184 1E 01            [ 7]  882 	ld	e, #0x01
    00000186                        883 00102$:
                                    884 ;E:\Dropbox\FAUSTO\SVILUPPI\MSX\CODE\C\MSXgl\projects\exsoccer/exsoccer_s2_b0.c:153: if (logicalSize == 0) logicalSize = 1;
    00000186 7B               [ 4]  885 	ld	a, e
    00000187 B7               [ 4]  886 	or	a, a
    00000188 20 02            [12]  887 	jr	NZ, 00104$
    0000018A 1E 01            [ 7]  888 	ld	e, #0x01
    0000018C                        889 00104$:
                                    890 ;E:\Dropbox\FAUSTO\SVILUPPI\MSX\CODE\C\MSXgl\projects\exsoccer/exsoccer_s2_b0.c:154: if (logicalSize > 4) logicalSize = 4;
    0000018C 3E 04            [ 7]  891 	ld	a, #0x04
    0000018E 93               [ 4]  892 	sub	a, e
    0000018F 30 02            [12]  893 	jr	NC, 00106$
    00000191 1E 04            [ 7]  894 	ld	e, #0x04
    00000193                        895 00106$:
                                    896 ;E:\Dropbox\FAUSTO\SVILUPPI\MSX\CODE\C\MSXgl\projects\exsoccer/exsoccer_s2_b0.c:159: bool rawMovement = (g_Ball.OldX != g_Ball.X || g_Ball.OldY != g_Ball.Y);
    00000193 21r09r00         [10]  897 	ld	hl, #(_g_Ball + 9)
    00000196 7E               [ 7]  898 	ld	a, (hl)
    00000197 DD 77 FE         [19]  899 	ld	-2 (ix), a
    0000019A 23               [ 6]  900 	inc	hl
    0000019B 7E               [ 7]  901 	ld	a, (hl)
    0000019C DD 77 FF         [19]  902 	ld	-1 (ix), a
    0000019F 21r02r00         [10]  903 	ld	hl, #(_g_Ball + 2)
    000001A2 7E               [ 7]  904 	ld	a, (hl)
    000001A3 DD 77 FC         [19]  905 	ld	-4 (ix), a
    000001A6 23               [ 6]  906 	inc	hl
    000001A7 7E               [ 7]  907 	ld	a, (hl)
    000001A8 DD 77 FD         [19]  908 	ld	-3 (ix), a
    000001AB DD 7E FE         [19]  909 	ld	a, -2 (ix)
    000001AE DD 96 FC         [19]  910 	sub	a, -4 (ix)
    000001B1 20 28            [12]  911 	jr	NZ, 00117$
    000001B3 DD 7E FF         [19]  912 	ld	a, -1 (ix)
    000001B6 DD 96 FD         [19]  913 	sub	a, -3 (ix)
    000001B9 20 20            [12]  914 	jr	NZ, 00117$
    000001BB 21r0Br00         [10]  915 	ld	hl, #(_g_Ball + 11)
    000001BE 7E               [ 7]  916 	ld	a, (hl)
    000001BF DD 77 FE         [19]  917 	ld	-2 (ix), a
    000001C2 23               [ 6]  918 	inc	hl
    000001C3 7E               [ 7]  919 	ld	a, (hl)
    000001C4 DD 77 FF         [19]  920 	ld	-1 (ix), a
    000001C7 2Ar00r00         [16]  921 	ld	hl, (#_g_Ball + 0)
    000001CA 7D               [ 4]  922 	ld	a, l
    000001CB DD 96 FE         [19]  923 	sub	a, -2 (ix)
    000001CE 20 0B            [12]  924 	jr	NZ, 00117$
    000001D0 7C               [ 4]  925 	ld	a, h
    000001D1 DD 96 FF         [19]  926 	sub	a, -1 (ix)
    000001D4 20 05            [12]  927 	jr	NZ, 00117$
    000001D6 16 00            [ 7]  928 	ld	d, #0x00
    000001D8 C3rDDr01         [10]  929 	jp	00118$
    000001DB                        930 00117$:
    000001DB 16 01            [ 7]  931 	ld	d, #0x01
    000001DD                        932 00118$:
                                    933 ;E:\Dropbox\FAUSTO\SVILUPPI\MSX\CODE\C\MSXgl\projects\exsoccer/exsoccer_s2_b0.c:162: g_Ball.OldX = g_Ball.X;
    000001DD 21r09r00         [10]  934 	ld	hl, #(_g_Ball + 9)
    000001E0 DD 7E FC         [19]  935 	ld	a, -4 (ix)
    000001E3 77               [ 7]  936 	ld	(hl), a
    000001E4 23               [ 6]  937 	inc	hl
    000001E5 DD 7E FD         [19]  938 	ld	a, -3 (ix)
    000001E8 77               [ 7]  939 	ld	(hl), a
                                    940 ;E:\Dropbox\FAUSTO\SVILUPPI\MSX\CODE\C\MSXgl\projects\exsoccer/exsoccer_s2_b0.c:163: g_Ball.OldY = g_Ball.Y;
    000001E9 21r00r00         [10]  941 	ld	hl, #_g_Ball
    000001EC 7E               [ 7]  942 	ld	a, (hl)
    000001ED DD 77 FE         [19]  943 	ld	-2 (ix), a
    000001F0 23               [ 6]  944 	inc	hl
    000001F1 7E               [ 7]  945 	ld	a, (hl)
    000001F2 DD 77 FF         [19]  946 	ld	-1 (ix), a
    000001F5 21r0Br00         [10]  947 	ld	hl, #(_g_Ball + 11)
    000001F8 DD 7E FE         [19]  948 	ld	a, -2 (ix)
    000001FB 77               [ 7]  949 	ld	(hl), a
    000001FC 23               [ 6]  950 	inc	hl
    000001FD DD 7E FF         [19]  951 	ld	a, -1 (ix)
    00000200 77               [ 7]  952 	ld	(hl), a
                                    953 ;E:\Dropbox\FAUSTO\SVILUPPI\MSX\CODE\C\MSXgl\projects\exsoccer/exsoccer_s2_b0.c:165: if (rawMovement) {
    00000201 7A               [ 4]  954 	ld	a, d
    00000202 B7               [ 4]  955 	or	a, a
    00000203 28 08            [12]  956 	jr	Z, 00110$
                                    957 ;E:\Dropbox\FAUSTO\SVILUPPI\MSX\CODE\C\MSXgl\projects\exsoccer/exsoccer_s2_b0.c:166: s_StopCooldown = 15; // Keep animation active for ~1/4 sec after last move
    00000205 3E 0F            [ 7]  958 	ld	a, #0x0f
    00000207 32r06r00         [13]  959 	ld	(#_PutBallSprite_s_StopCooldown_65538_1244), a
    0000020A C3r1Ar02         [10]  960 	jp	00111$
    0000020D                        961 00110$:
                                    962 ;E:\Dropbox\FAUSTO\SVILUPPI\MSX\CODE\C\MSXgl\projects\exsoccer/exsoccer_s2_b0.c:168: if (s_StopCooldown > 0) s_StopCooldown--;
    0000020D 3Ar06r00         [13]  963 	ld	a, (_PutBallSprite_s_StopCooldown_65538_1244+0)
    00000210 B7               [ 4]  964 	or	a, a
    00000211 28 07            [12]  965 	jr	Z, 00111$
    00000213 FD 21r06r00      [14]  966 	ld	iy, #_PutBallSprite_s_StopCooldown_65538_1244
    00000217 FD 35 00         [23]  967 	dec	0 (iy)
    0000021A                        968 00111$:
                                    969 ;E:\Dropbox\FAUSTO\SVILUPPI\MSX\CODE\C\MSXgl\projects\exsoccer/exsoccer_s2_b0.c:171: bool isAnimating = (s_StopCooldown > 0);
    0000021A 3Ar06r00         [13]  970 	ld	a, (_PutBallSprite_s_StopCooldown_65538_1244+0)
    0000021D B7               [ 4]  971 	or	a, a
    0000021E 3E 01            [ 7]  972 	ld	a, #0x01
    00000220 20 01            [12]  973 	jr	NZ, 00120$
    00000222 AF               [ 4]  974 	xor	a, a
    00000223                        975 00120$:
                                    976 ;E:\Dropbox\FAUSTO\SVILUPPI\MSX\CODE\C\MSXgl\projects\exsoccer/exsoccer_s2_b0.c:175: bool useAlt = isAnimating && ((g_FrameCounter & 8) != 0);
    00000223 B7               [ 4]  977 	or	a, a
    00000224 28 07            [12]  978 	jr	Z, 00121$
    00000226 2Ar00r00         [16]  979 	ld	hl, (_g_FrameCounter)
    00000229 CB 5D            [ 8]  980 	bit	3, l
    0000022B 20 04            [12]  981 	jr	NZ, 00122$
    0000022D                        982 00121$:
    0000022D AF               [ 4]  983 	xor	a, a
    0000022E C3r33r02         [10]  984 	jp	00123$
    00000231                        985 00122$:
    00000231 3E 01            [ 7]  986 	ld	a, #0x01
    00000233                        987 00123$:
                                    988 ;E:\Dropbox\FAUSTO\SVILUPPI\MSX\CODE\C\MSXgl\projects\exsoccer/exsoccer_s2_b0.c:182: u8 idx = (logicalSize - 1) * 2 + (useAlt ? 1 : 0);
    00000233 6B               [ 4]  989 	ld	l, e
                                    990 ;	spillPairReg hl
                                    991 ;	spillPairReg hl
    00000234 2D               [ 4]  992 	dec	l
    00000235 CB 25            [ 8]  993 	sla	l
    00000237 B7               [ 4]  994 	or	a, a
    00000238 28 06            [12]  995 	jr	Z, 00124$
    0000023A 11 01 00         [10]  996 	ld	de, #0x0001
    0000023D C3r43r02         [10]  997 	jp	00125$
    00000240                        998 00124$:
    00000240 11 00 00         [10]  999 	ld	de, #0x0000
    00000243                       1000 00125$:
    00000243 19               [11] 1001 	add	hl, de
                                   1002 ;E:\Dropbox\FAUSTO\SVILUPPI\MSX\CODE\C\MSXgl\projects\exsoccer/exsoccer_s2_b0.c:183: attr.Pattern = k_BallPatterns[idx & 7];
    00000244 11r99r02         [10] 1003 	ld	de, #_PutBallSprite_k_BallPatterns_65539_1247+0
    00000247 7D               [ 4] 1004 	ld	a, l
                                   1005 ;	spillPairReg hl
                                   1006 ;	spillPairReg hl
    00000248 E6 07            [ 7] 1007 	and	a, #0x07
    0000024A 26 00            [ 7] 1008 	ld	h, #0x00
                                   1009 ;	spillPairReg hl
                                   1010 ;	spillPairReg hl
    0000024C 6F               [ 4] 1011 	ld	l, a
    0000024D 19               [11] 1012 	add	hl, de
    0000024E 7E               [ 7] 1013 	ld	a, (hl)
    0000024F DD 77 F9         [19] 1014 	ld	-7 (ix), a
                                   1015 ;E:\Dropbox\FAUSTO\SVILUPPI\MSX\CODE\C\MSXgl\projects\exsoccer/exsoccer_s2_b0.c:185: attr.X = g_Ball.X;
    00000252 ED 5Br02r00      [20] 1016 	ld	de, (#(_g_Ball + 2) + 0)
    00000256 21 02 00         [10] 1017 	ld	hl, #2
    00000259 39               [11] 1018 	add	hl, sp
    0000025A 73               [ 7] 1019 	ld	(hl), e
    0000025B 23               [ 6] 1020 	inc	hl
    0000025C 7A               [ 4] 1021 	ld	a, d
    0000025D E6 03            [ 7] 1022 	and	a, #0x03
    0000025F C5               [11] 1023 	push	bc
    00000260 4F               [ 4] 1024 	ld	c,a
    00000261 7E               [ 7] 1025 	ld	a, (hl)
    00000262 E6 FC            [ 7] 1026 	and	a, #0xfc
    00000264 B1               [ 4] 1027 	or	a, c
    00000265 C1               [10] 1028 	pop	bc
    00000266 77               [ 7] 1029 	ld	(hl), a
                                   1030 ;E:\Dropbox\FAUSTO\SVILUPPI\MSX\CODE\C\MSXgl\projects\exsoccer/exsoccer_s2_b0.c:186: attr.P = attr.D;
    00000267 21 03 00         [10] 1031 	ld	hl, #3
    0000026A 39               [11] 1032 	add	hl, sp
    0000026B 7E               [ 7] 1033 	ld	a, (hl)
    0000026C 07               [ 4] 1034 	rlca
    0000026D 07               [ 4] 1035 	rlca
    0000026E 07               [ 4] 1036 	rlca
    0000026F 07               [ 4] 1037 	rlca
    00000270 E6 01            [ 7] 1038 	and	a, #0x01
    00000272 21 03 00         [10] 1039 	ld	hl, #3
    00000275 39               [11] 1040 	add	hl, sp
    00000276 0F               [ 4] 1041 	rrca
    00000277 0F               [ 4] 1042 	rrca
    00000278 0F               [ 4] 1043 	rrca
    00000279 E6 20            [ 7] 1044 	and	a, #0x20
    0000027B 5F               [ 4] 1045 	ld	e, a
    0000027C 7E               [ 7] 1046 	ld	a, (hl)
    0000027D E6 DF            [ 7] 1047 	and	a, #0xdf
    0000027F B3               [ 4] 1048 	or	a, e
    00000280 77               [ 7] 1049 	ld	(hl), a
                                   1050 ;E:\Dropbox\FAUSTO\SVILUPPI\MSX\CODE\C\MSXgl\projects\exsoccer/exsoccer_s2_b0.c:187: V9_SetSpriteP1(15, &attr);
                                   1051 ;E:/Dropbox/FAUSTO/SVILUPPI/MSX/CODE/C/MSXgl/engine/src/v9990.h:781: inline void V9_SetSpriteP1(u8 id, const V9_Sprite* attr) { V9_WriteVRAM(V9_P1_SPAT + (id * 4), (const u8*)attr, 4); }
                                   1052 ;E:/Dropbox/FAUSTO/SVILUPPI/MSX/CODE/C/MSXgl/engine/src/v9990.h:371: inline void V9_WriteVRAM(u32 addr, const u8* src, u16 count) { V9_SetWriteAddress(addr); V9_WriteVRAM_CurrentAddr(src, count); }
    00000281 11 3C FE         [10] 1053 	ld	de, #0xfe3c
    00000284 21 03 00         [10] 1054 	ld	hl, #0x0003
    00000287 CDr00r00         [17] 1055 	call	_V9_SetWriteAddress
    0000028A 11 04 00         [10] 1056 	ld	de, #0x0004
    0000028D 21 00 00         [10] 1057 	ld	hl, #0
    00000290 39               [11] 1058 	add	hl, sp
    00000291 CDr00r00         [17] 1059 	call	_V9_WriteVRAM_CurrentAddr
                                   1060 ;E:\Dropbox\FAUSTO\SVILUPPI\MSX\CODE\C\MSXgl\projects\exsoccer/exsoccer_s2_b0.c:187: V9_SetSpriteP1(15, &attr);
                                   1061 ;E:\Dropbox\FAUSTO\SVILUPPI\MSX\CODE\C\MSXgl\projects\exsoccer/exsoccer_s2_b0.c:188: }
    00000294 DD F9            [10] 1062 	ld	sp, ix
    00000296 DD E1            [14] 1063 	pop	ix
    00000298 C9               [10] 1064 	ret
    00000299                       1065 _PutBallSprite_k_BallPatterns_65539_1247:
    00000299 39                    1066 	.db #0x39	; 57	'9'
    0000029A 3A                    1067 	.db #0x3a	; 58
    0000029B 3B                    1068 	.db #0x3b	; 59
    0000029C 3C                    1069 	.db #0x3c	; 60
    0000029D 3D                    1070 	.db #0x3d	; 61
    0000029E 3E                    1071 	.db #0x3e	; 62
    0000029F 3F                    1072 	.db #0x3f	; 63
    000002A0 74                    1073 	.db #0x74	; 116	't'
                                   1074 ;E:\Dropbox\FAUSTO\SVILUPPI\MSX\CODE\C\MSXgl\projects\exsoccer/exsoccer_s2_b0.c:190: void PrintTeamName(u8 x, u8 teamPaletteId) {
                                   1075 ;	---------------------------------
                                   1076 ; Function PrintTeamName
                                   1077 ; ---------------------------------
    000002A1                       1078 _PrintTeamName::
    000002A1 DD E5            [15] 1079 	push	ix
    000002A3 DD 21 00 00      [14] 1080 	ld	ix,#0
    000002A7 DD 39            [15] 1081 	add	ix,sp
    000002A9 F5               [11] 1082 	push	af
    000002AA DD 77 FF         [19] 1083 	ld	-1 (ix), a
    000002AD 4D               [ 4] 1084 	ld	c, l
                                   1085 ;E:\Dropbox\FAUSTO\SVILUPPI\MSX\CODE\C\MSXgl\projects\exsoccer/exsoccer_s2_b0.c:200: switch (teamPaletteId) {
    000002AE 3E 05            [ 7] 1086 	ld	a, #0x05
    000002B0 91               [ 4] 1087 	sub	a, c
    000002B1 38 3F            [12] 1088 	jr	C, 00107$
    000002B3 06 00            [ 7] 1089 	ld	b, #0x00
    000002B5 21rBCr02         [10] 1090 	ld	hl, #00127$
    000002B8 09               [11] 1091 	add	hl, bc
    000002B9 09               [11] 1092 	add	hl, bc
    000002BA 09               [11] 1093 	add	hl, bc
    000002BB E9               [ 4] 1094 	jp	(hl)
    000002BC                       1095 00127$:
    000002BC C3rCEr02         [10] 1096 	jp	00101$
    000002BF C3rECr02         [10] 1097 	jp	00106$
    000002C2 C3rDAr02         [10] 1098 	jp	00103$
    000002C5 C3rD4r02         [10] 1099 	jp	00102$
    000002C8 C3rE0r02         [10] 1100 	jp	00104$
    000002CB C3rE6r02         [10] 1101 	jp	00105$
                                   1102 ;E:\Dropbox\FAUSTO\SVILUPPI\MSX\CODE\C\MSXgl\projects\exsoccer/exsoccer_s2_b0.c:202: case TEAM_AUS: pName = "AUS"; break;
    000002CE                       1103 00101$:
    000002CE 11r85r03         [10] 1104 	ld	de, #___str_0
    000002D1 C3rF5r02         [10] 1105 	jp	00110$
                                   1106 ;E:\Dropbox\FAUSTO\SVILUPPI\MSX\CODE\C\MSXgl\projects\exsoccer/exsoccer_s2_b0.c:203: case TEAM_BRA: pName = "BRA"; break;
    000002D4                       1107 00102$:
    000002D4 11r89r03         [10] 1108 	ld	de, #___str_1
    000002D7 C3rF5r02         [10] 1109 	jp	00110$
                                   1110 ;E:\Dropbox\FAUSTO\SVILUPPI\MSX\CODE\C\MSXgl\projects\exsoccer/exsoccer_s2_b0.c:204: case TEAM_ITA: pName = "ITA"; break;
    000002DA                       1111 00103$:
    000002DA 11r8Dr03         [10] 1112 	ld	de, #___str_2
    000002DD C3rF5r02         [10] 1113 	jp	00110$
                                   1114 ;E:\Dropbox\FAUSTO\SVILUPPI\MSX\CODE\C\MSXgl\projects\exsoccer/exsoccer_s2_b0.c:205: case TEAM_FRA: pName = "FRA"; break;
    000002E0                       1115 00104$:
    000002E0 11r91r03         [10] 1116 	ld	de, #___str_3
    000002E3 C3rF5r02         [10] 1117 	jp	00110$
                                   1118 ;E:\Dropbox\FAUSTO\SVILUPPI\MSX\CODE\C\MSXgl\projects\exsoccer/exsoccer_s2_b0.c:206: case TEAM_GBR: pName = "GBR"; break;
    000002E6                       1119 00105$:
    000002E6 11r95r03         [10] 1120 	ld	de, #___str_4
    000002E9 C3rF5r02         [10] 1121 	jp	00110$
                                   1122 ;E:\Dropbox\FAUSTO\SVILUPPI\MSX\CODE\C\MSXgl\projects\exsoccer/exsoccer_s2_b0.c:207: case TEAM_GER: pName = "GER"; break;
    000002EC                       1123 00106$:
    000002EC 11r99r03         [10] 1124 	ld	de, #___str_5
    000002EF C3rF5r02         [10] 1125 	jp	00110$
                                   1126 ;E:\Dropbox\FAUSTO\SVILUPPI\MSX\CODE\C\MSXgl\projects\exsoccer/exsoccer_s2_b0.c:208: default:       pName = "   "; break;
    000002F2                       1127 00107$:
    000002F2 11r9Dr03         [10] 1128 	ld	de, #___str_6
                                   1129 ;E:\Dropbox\FAUSTO\SVILUPPI\MSX\CODE\C\MSXgl\projects\exsoccer/exsoccer_s2_b0.c:209: }
    000002F5                       1130 00110$:
                                   1131 ;E:\Dropbox\FAUSTO\SVILUPPI\MSX\CODE\C\MSXgl\projects\exsoccer/exsoccer_s2_b0.c:211: V9_PrintLayerAStringAtPos(x, 0, pName);
    000002F5 D5               [11] 1132 	push	de
    000002F6 D5               [11] 1133 	push	de
    000002F7 2E 00            [ 7] 1134 	ld	l, #0x00
                                   1135 ;	spillPairReg hl
                                   1136 ;	spillPairReg hl
    000002F9 DD 7E FF         [19] 1137 	ld	a, -1 (ix)
    000002FC CDr00r00         [17] 1138 	call	_V9_PrintLayerAStringAtPos
    000002FF D1               [10] 1139 	pop	de
                                   1140 ;E:\Dropbox\FAUSTO\SVILUPPI\MSX\CODE\C\MSXgl\projects\exsoccer/exsoccer_s2_b0.c:213: g_History1[0] = pName[0];
    00000300 1A               [ 7] 1141 	ld	a, (de)
    00000301 DD 77 FE         [19] 1142 	ld	-2 (ix), a
                                   1143 ;E:\Dropbox\FAUSTO\SVILUPPI\MSX\CODE\C\MSXgl\projects\exsoccer/exsoccer_s2_b0.c:214: g_History1[1] = pName[1];
    00000304 4B               [ 4] 1144 	ld	c, e
    00000305 42               [ 4] 1145 	ld	b, d
    00000306 03               [ 6] 1146 	inc	bc
                                   1147 ;E:\Dropbox\FAUSTO\SVILUPPI\MSX\CODE\C\MSXgl\projects\exsoccer/exsoccer_s2_b0.c:215: g_History1[2] = pName[2];
    00000307 13               [ 6] 1148 	inc	de
    00000308 13               [ 6] 1149 	inc	de
                                   1150 ;E:\Dropbox\FAUSTO\SVILUPPI\MSX\CODE\C\MSXgl\projects\exsoccer/exsoccer_s2_b0.c:212: if(x==0){
    00000309 DD 7E FF         [19] 1151 	ld	a, -1 (ix)
    0000030C B7               [ 4] 1152 	or	a, a
    0000030D 20 3A            [12] 1153 	jr	NZ, 00112$
                                   1154 ;E:\Dropbox\FAUSTO\SVILUPPI\MSX\CODE\C\MSXgl\projects\exsoccer/exsoccer_s2_b0.c:213: g_History1[0] = pName[0];
    0000030F 21r00r00         [10] 1155 	ld	hl, #_g_History1
    00000312 DD 7E FE         [19] 1156 	ld	a, -2 (ix)
    00000315 77               [ 7] 1157 	ld	(hl), a
                                   1158 ;E:\Dropbox\FAUSTO\SVILUPPI\MSX\CODE\C\MSXgl\projects\exsoccer/exsoccer_s2_b0.c:214: g_History1[1] = pName[1];
    00000316 23               [ 6] 1159 	inc	hl
    00000317 0A               [ 7] 1160 	ld	a, (bc)
    00000318 77               [ 7] 1161 	ld	(hl), a
                                   1162 ;E:\Dropbox\FAUSTO\SVILUPPI\MSX\CODE\C\MSXgl\projects\exsoccer/exsoccer_s2_b0.c:215: g_History1[2] = pName[2];
    00000319 01r02r00         [10] 1163 	ld	bc, #_g_History1 + 2
    0000031C 1A               [ 7] 1164 	ld	a, (de)
    0000031D 02               [ 7] 1165 	ld	(bc), a
                                   1166 ;E:\Dropbox\FAUSTO\SVILUPPI\MSX\CODE\C\MSXgl\projects\exsoccer/exsoccer_s2_b0.c:216: g_History1[3] = ':';
    0000031E 21r03r00         [10] 1167 	ld	hl, #(_g_History1 + 3)
    00000321 36 3A            [10] 1168 	ld	(hl), #0x3a
                                   1169 ;E:\Dropbox\FAUSTO\SVILUPPI\MSX\CODE\C\MSXgl\projects\exsoccer/exsoccer_s2_b0.c:217: g_History1[4] = ' ';
    00000323 21r04r00         [10] 1170 	ld	hl, #(_g_History1 + 4)
    00000326 36 20            [10] 1171 	ld	(hl), #0x20
                                   1172 ;E:\Dropbox\FAUSTO\SVILUPPI\MSX\CODE\C\MSXgl\projects\exsoccer/exsoccer_s2_b0.c:218: g_History1[5] = ' ';
    00000328 21r05r00         [10] 1173 	ld	hl, #(_g_History1 + 5)
    0000032B 36 20            [10] 1174 	ld	(hl), #0x20
                                   1175 ;E:\Dropbox\FAUSTO\SVILUPPI\MSX\CODE\C\MSXgl\projects\exsoccer/exsoccer_s2_b0.c:219: g_History1[6] = ' ';
    0000032D 21r06r00         [10] 1176 	ld	hl, #(_g_History1 + 6)
    00000330 36 20            [10] 1177 	ld	(hl), #0x20
                                   1178 ;E:\Dropbox\FAUSTO\SVILUPPI\MSX\CODE\C\MSXgl\projects\exsoccer/exsoccer_s2_b0.c:220: g_History1[7] = ' ';
    00000332 21r07r00         [10] 1179 	ld	hl, #(_g_History1 + 7)
    00000335 36 20            [10] 1180 	ld	(hl), #0x20
                                   1181 ;E:\Dropbox\FAUSTO\SVILUPPI\MSX\CODE\C\MSXgl\projects\exsoccer/exsoccer_s2_b0.c:221: g_History1[8] = ' ';
    00000337 21r08r00         [10] 1182 	ld	hl, #(_g_History1 + 8)
    0000033A 36 20            [10] 1183 	ld	(hl), #0x20
                                   1184 ;E:\Dropbox\FAUSTO\SVILUPPI\MSX\CODE\C\MSXgl\projects\exsoccer/exsoccer_s2_b0.c:222: g_History1[9] = ' ';
    0000033C 21r09r00         [10] 1185 	ld	hl, #(_g_History1 + 9)
    0000033F 36 20            [10] 1186 	ld	(hl), #0x20
                                   1187 ;E:\Dropbox\FAUSTO\SVILUPPI\MSX\CODE\C\MSXgl\projects\exsoccer/exsoccer_s2_b0.c:223: g_History1[10] = '\0';
    00000341 21r0Ar00         [10] 1188 	ld	hl, #(_g_History1 + 10)
    00000344 36 00            [10] 1189 	ld	(hl), #0x00
    00000346 C3r80r03         [10] 1190 	jp	00114$
    00000349                       1191 00112$:
                                   1192 ;E:\Dropbox\FAUSTO\SVILUPPI\MSX\CODE\C\MSXgl\projects\exsoccer/exsoccer_s2_b0.c:226: g_History2[0] = pName[0];
    00000349 21r00r00         [10] 1193 	ld	hl, #_g_History2
    0000034C DD 7E FE         [19] 1194 	ld	a, -2 (ix)
    0000034F 77               [ 7] 1195 	ld	(hl), a
                                   1196 ;E:\Dropbox\FAUSTO\SVILUPPI\MSX\CODE\C\MSXgl\projects\exsoccer/exsoccer_s2_b0.c:227: g_History2[1] = pName[1];
    00000350 0A               [ 7] 1197 	ld	a, (bc)
    00000351 32r01r00         [13] 1198 	ld	(#(_g_History2 + 1)),a
                                   1199 ;E:\Dropbox\FAUSTO\SVILUPPI\MSX\CODE\C\MSXgl\projects\exsoccer/exsoccer_s2_b0.c:228: g_History2[2] = pName[2];
    00000354 1A               [ 7] 1200 	ld	a, (de)
    00000355 32r02r00         [13] 1201 	ld	(#(_g_History2 + 2)),a
                                   1202 ;E:\Dropbox\FAUSTO\SVILUPPI\MSX\CODE\C\MSXgl\projects\exsoccer/exsoccer_s2_b0.c:229: g_History2[3] = ':';
    00000358 21r03r00         [10] 1203 	ld	hl, #(_g_History2 + 3)
    0000035B 36 3A            [10] 1204 	ld	(hl), #0x3a
                                   1205 ;E:\Dropbox\FAUSTO\SVILUPPI\MSX\CODE\C\MSXgl\projects\exsoccer/exsoccer_s2_b0.c:230: g_History2[4] = ' ';
    0000035D 21r04r00         [10] 1206 	ld	hl, #(_g_History2 + 4)
    00000360 36 20            [10] 1207 	ld	(hl), #0x20
                                   1208 ;E:\Dropbox\FAUSTO\SVILUPPI\MSX\CODE\C\MSXgl\projects\exsoccer/exsoccer_s2_b0.c:231: g_History2[5] = ' ';
    00000362 21r05r00         [10] 1209 	ld	hl, #(_g_History2 + 5)
    00000365 36 20            [10] 1210 	ld	(hl), #0x20
                                   1211 ;E:\Dropbox\FAUSTO\SVILUPPI\MSX\CODE\C\MSXgl\projects\exsoccer/exsoccer_s2_b0.c:232: g_History2[6] = ' ';
    00000367 21r06r00         [10] 1212 	ld	hl, #(_g_History2 + 6)
    0000036A 36 20            [10] 1213 	ld	(hl), #0x20
                                   1214 ;E:\Dropbox\FAUSTO\SVILUPPI\MSX\CODE\C\MSXgl\projects\exsoccer/exsoccer_s2_b0.c:233: g_History2[7] = ' ';
    0000036C 21r07r00         [10] 1215 	ld	hl, #(_g_History2 + 7)
    0000036F 36 20            [10] 1216 	ld	(hl), #0x20
                                   1217 ;E:\Dropbox\FAUSTO\SVILUPPI\MSX\CODE\C\MSXgl\projects\exsoccer/exsoccer_s2_b0.c:234: g_History2[8] = ' ';
    00000371 21r08r00         [10] 1218 	ld	hl, #(_g_History2 + 8)
    00000374 36 20            [10] 1219 	ld	(hl), #0x20
                                   1220 ;E:\Dropbox\FAUSTO\SVILUPPI\MSX\CODE\C\MSXgl\projects\exsoccer/exsoccer_s2_b0.c:235: g_History2[9] = ' ';
    00000376 21r09r00         [10] 1221 	ld	hl, #(_g_History2 + 9)
    00000379 36 20            [10] 1222 	ld	(hl), #0x20
                                   1223 ;E:\Dropbox\FAUSTO\SVILUPPI\MSX\CODE\C\MSXgl\projects\exsoccer/exsoccer_s2_b0.c:236: g_History2[10] = '\0';
    0000037B 21r0Ar00         [10] 1224 	ld	hl, #(_g_History2 + 10)
    0000037E 36 00            [10] 1225 	ld	(hl), #0x00
    00000380                       1226 00114$:
                                   1227 ;E:\Dropbox\FAUSTO\SVILUPPI\MSX\CODE\C\MSXgl\projects\exsoccer/exsoccer_s2_b0.c:238: }
    00000380 DD F9            [10] 1228 	ld	sp, ix
    00000382 DD E1            [14] 1229 	pop	ix
    00000384 C9               [10] 1230 	ret
    00000385                       1231 ___str_0:
    00000385 41 55 53              1232 	.ascii "AUS"
    00000388 00                    1233 	.db 0x00
    00000389                       1234 ___str_1:
    00000389 42 52 41              1235 	.ascii "BRA"
    0000038C 00                    1236 	.db 0x00
    0000038D                       1237 ___str_2:
    0000038D 49 54 41              1238 	.ascii "ITA"
    00000390 00                    1239 	.db 0x00
    00000391                       1240 ___str_3:
    00000391 46 52 41              1241 	.ascii "FRA"
    00000394 00                    1242 	.db 0x00
    00000395                       1243 ___str_4:
    00000395 47 42 52              1244 	.ascii "GBR"
    00000398 00                    1245 	.db 0x00
    00000399                       1246 ___str_5:
    00000399 47 45 52              1247 	.ascii "GER"
    0000039C 00                    1248 	.db 0x00
    0000039D                       1249 ___str_6:
    0000039D 20 20 20              1250 	.ascii "   "
    000003A0 00                    1251 	.db 0x00
                                   1252 ;E:\Dropbox\FAUSTO\SVILUPPI\MSX\CODE\C\MSXgl\projects\exsoccer/exsoccer_s2_b0.c:240: void ShowHeaderInfo(){
                                   1253 ;	---------------------------------
                                   1254 ; Function ShowHeaderInfo
                                   1255 ; ---------------------------------
    000003A1                       1256 _ShowHeaderInfo::
    000003A1 DD E5            [15] 1257 	push	ix
    000003A3 DD 21 00 00      [14] 1258 	ld	ix,#0
    000003A7 DD 39            [15] 1259 	add	ix,sp
    000003A9 3B               [ 6] 1260 	dec	sp
                                   1261 ;E:\Dropbox\FAUSTO\SVILUPPI\MSX\CODE\C\MSXgl\projects\exsoccer/exsoccer_s2_b0.c:241: u8 pos1 = (g_Team1Score >= 10) ? 4 : 5;
    000003AA 3Ar00r00         [13] 1262 	ld	a, (_g_Team1Score+0)
    000003AD D6 0A            [ 7] 1263 	sub	a, #0x0a
    000003AF 38 06            [12] 1264 	jr	C, 00106$
    000003B1 01 04 00         [10] 1265 	ld	bc, #0x0004
    000003B4 C3rBAr03         [10] 1266 	jp	00107$
    000003B7                       1267 00106$:
    000003B7 01 05 00         [10] 1268 	ld	bc, #0x0005
    000003BA                       1269 00107$:
                                   1270 ;E:\Dropbox\FAUSTO\SVILUPPI\MSX\CODE\C\MSXgl\projects\exsoccer/exsoccer_s2_b0.c:242: u8 pos2 = (g_Team2Score >= 10) ? 9 : 10;
    000003BA 3Ar00r00         [13] 1271 	ld	a, (_g_Team2Score+0)
    000003BD D6 0A            [ 7] 1272 	sub	a, #0x0a
    000003BF 38 06            [12] 1273 	jr	C, 00108$
    000003C1 11 09 00         [10] 1274 	ld	de, #0x0009
    000003C4 C3rCAr03         [10] 1275 	jp	00109$
    000003C7                       1276 00108$:
    000003C7 11 0A 00         [10] 1277 	ld	de, #0x000a
    000003CA                       1278 00109$:
    000003CA DD 73 FF         [19] 1279 	ld	-1 (ix), e
                                   1280 ;E:\Dropbox\FAUSTO\SVILUPPI\MSX\CODE\C\MSXgl\projects\exsoccer/exsoccer_s2_b0.c:244: PrintTeamName(0, g_Team1PaletteId);
    000003CD C5               [11] 1281 	push	bc
    000003CE 3Ar00r00         [13] 1282 	ld	a, (_g_Team1PaletteId+0)
    000003D1 6F               [ 4] 1283 	ld	l, a
                                   1284 ;	spillPairReg hl
                                   1285 ;	spillPairReg hl
    000003D2 AF               [ 4] 1286 	xor	a, a
    000003D3 CDrA1r02         [17] 1287 	call	_PrintTeamName
    000003D6 C1               [10] 1288 	pop	bc
                                   1289 ;E:\Dropbox\FAUSTO\SVILUPPI\MSX\CODE\C\MSXgl\projects\exsoccer/exsoccer_s2_b0.c:246: V9_PrintLayerAStringAtPos(pos1, 0, GetNumberString(g_Team1Score));
    000003D7 3Ar00r00         [13] 1290 	ld	a, (_g_Team1Score+0)
    000003DA 6F               [ 4] 1291 	ld	l, a
                                   1292 ;	spillPairReg hl
                                   1293 ;	spillPairReg hl
    000003DB 26 00            [ 7] 1294 	ld	h, #0x00
                                   1295 ;	spillPairReg hl
                                   1296 ;	spillPairReg hl
    000003DD C5               [11] 1297 	push	bc
    000003DE CDr4Er08         [17] 1298 	call	_GetNumberString
    000003E1 C1               [10] 1299 	pop	bc
    000003E2 D5               [11] 1300 	push	de
    000003E3 2E 00            [ 7] 1301 	ld	l, #0x00
                                   1302 ;	spillPairReg hl
                                   1303 ;	spillPairReg hl
    000003E5 79               [ 4] 1304 	ld	a, c
    000003E6 CDr00r00         [17] 1305 	call	_V9_PrintLayerAStringAtPos
                                   1306 ;E:\Dropbox\FAUSTO\SVILUPPI\MSX\CODE\C\MSXgl\projects\exsoccer/exsoccer_s2_b0.c:247: V9_PrintLayerAStringAtPos(7, 0, "-");
    000003E9 21r77r04         [10] 1307 	ld	hl, #___str_7
    000003EC E5               [11] 1308 	push	hl
    000003ED 2E 00            [ 7] 1309 	ld	l, #0x00
                                   1310 ;	spillPairReg hl
                                   1311 ;	spillPairReg hl
    000003EF 3E 07            [ 7] 1312 	ld	a, #0x07
    000003F1 CDr00r00         [17] 1313 	call	_V9_PrintLayerAStringAtPos
                                   1314 ;E:\Dropbox\FAUSTO\SVILUPPI\MSX\CODE\C\MSXgl\projects\exsoccer/exsoccer_s2_b0.c:248: V9_PrintLayerAStringAtPos(pos2, 0, GetNumberString(g_Team2Score));
    000003F4 3Ar00r00         [13] 1315 	ld	a, (_g_Team2Score+0)
    000003F7 6F               [ 4] 1316 	ld	l, a
                                   1317 ;	spillPairReg hl
                                   1318 ;	spillPairReg hl
    000003F8 26 00            [ 7] 1319 	ld	h, #0x00
                                   1320 ;	spillPairReg hl
                                   1321 ;	spillPairReg hl
    000003FA CDr4Er08         [17] 1322 	call	_GetNumberString
    000003FD D5               [11] 1323 	push	de
    000003FE 2E 00            [ 7] 1324 	ld	l, #0x00
                                   1325 ;	spillPairReg hl
                                   1326 ;	spillPairReg hl
    00000400 DD 7E FF         [19] 1327 	ld	a, -1 (ix)
    00000403 CDr00r00         [17] 1328 	call	_V9_PrintLayerAStringAtPos
                                   1329 ;E:\Dropbox\FAUSTO\SVILUPPI\MSX\CODE\C\MSXgl\projects\exsoccer/exsoccer_s2_b0.c:250: PrintTeamName(12, g_Team2PaletteId);
    00000406 3Ar00r00         [13] 1330 	ld	a, (_g_Team2PaletteId+0)
    00000409 6F               [ 4] 1331 	ld	l, a
                                   1332 ;	spillPairReg hl
                                   1333 ;	spillPairReg hl
    0000040A 3E 0C            [ 7] 1334 	ld	a, #0x0c
    0000040C CDrA1r02         [17] 1335 	call	_PrintTeamName
                                   1336 ;E:\Dropbox\FAUSTO\SVILUPPI\MSX\CODE\C\MSXgl\projects\exsoccer/exsoccer_s2_b0.c:251: u8 minutes=g_SecondsToEndOfMatch / 60;
    0000040F 3Ar00r00         [13] 1337 	ld	a, (_g_SecondsToEndOfMatch+0)
    00000412 6F               [ 4] 1338 	ld	l, a
                                   1339 ;	spillPairReg hl
                                   1340 ;	spillPairReg hl
    00000413 26 00            [ 7] 1341 	ld	h, #0x00
                                   1342 ;	spillPairReg hl
                                   1343 ;	spillPairReg hl
    00000415 11 3C 00         [10] 1344 	ld	de, #0x003c
    00000418 CDr00r00         [17] 1345 	call	__divsint
                                   1346 ;E:\Dropbox\FAUSTO\SVILUPPI\MSX\CODE\C\MSXgl\projects\exsoccer/exsoccer_s2_b0.c:252: u8 seconds=g_SecondsToEndOfMatch - minutes*60;
    0000041B 7B               [ 4] 1347 	ld	a, e
    0000041C 4F               [ 4] 1348 	ld	c, a
    0000041D 87               [ 4] 1349 	add	a, a
    0000041E 87               [ 4] 1350 	add	a, a
    0000041F 87               [ 4] 1351 	add	a, a
    00000420 87               [ 4] 1352 	add	a, a
    00000421 91               [ 4] 1353 	sub	a, c
    00000422 87               [ 4] 1354 	add	a, a
    00000423 87               [ 4] 1355 	add	a, a
    00000424 4F               [ 4] 1356 	ld	c, a
    00000425 3Ar00r00         [13] 1357 	ld	a, (_g_SecondsToEndOfMatch+0)
    00000428 91               [ 4] 1358 	sub	a, c
    00000429 4F               [ 4] 1359 	ld	c, a
                                   1360 ;E:\Dropbox\FAUSTO\SVILUPPI\MSX\CODE\C\MSXgl\projects\exsoccer/exsoccer_s2_b0.c:253: V9_PrintLayerAStringAtPos(28,0,GetNumberString(minutes));
    0000042A 16 00            [ 7] 1361 	ld	d, #0x00
    0000042C C5               [11] 1362 	push	bc
    0000042D EB               [ 4] 1363 	ex	de, hl
    0000042E CDr4Er08         [17] 1364 	call	_GetNumberString
    00000431 D5               [11] 1365 	push	de
    00000432 2E 00            [ 7] 1366 	ld	l, #0x00
                                   1367 ;	spillPairReg hl
                                   1368 ;	spillPairReg hl
    00000434 3E 1C            [ 7] 1369 	ld	a, #0x1c
    00000436 CDr00r00         [17] 1370 	call	_V9_PrintLayerAStringAtPos
    00000439 21r79r04         [10] 1371 	ld	hl, #___str_8
    0000043C E5               [11] 1372 	push	hl
    0000043D 2E 00            [ 7] 1373 	ld	l, #0x00
                                   1374 ;	spillPairReg hl
                                   1375 ;	spillPairReg hl
    0000043F 3E 1D            [ 7] 1376 	ld	a, #0x1d
    00000441 CDr00r00         [17] 1377 	call	_V9_PrintLayerAStringAtPos
    00000444 C1               [10] 1378 	pop	bc
                                   1379 ;E:\Dropbox\FAUSTO\SVILUPPI\MSX\CODE\C\MSXgl\projects\exsoccer/exsoccer_s2_b0.c:256: V9_PrintLayerAStringAtPos(30,0,GetNumberString(seconds));
    00000445 69               [ 4] 1380 	ld	l, c
                                   1381 ;	spillPairReg hl
                                   1382 ;	spillPairReg hl
    00000446 26 00            [ 7] 1383 	ld	h, #0x00
                                   1384 ;	spillPairReg hl
                                   1385 ;	spillPairReg hl
                                   1386 ;E:\Dropbox\FAUSTO\SVILUPPI\MSX\CODE\C\MSXgl\projects\exsoccer/exsoccer_s2_b0.c:255: if(seconds>=10){
    00000448 79               [ 4] 1387 	ld	a, c
    00000449 D6 0A            [ 7] 1388 	sub	a, #0x0a
    0000044B 38 0E            [12] 1389 	jr	C, 00102$
                                   1390 ;E:\Dropbox\FAUSTO\SVILUPPI\MSX\CODE\C\MSXgl\projects\exsoccer/exsoccer_s2_b0.c:256: V9_PrintLayerAStringAtPos(30,0,GetNumberString(seconds));
    0000044D CDr4Er08         [17] 1391 	call	_GetNumberString
    00000450 D5               [11] 1392 	push	de
    00000451 2E 00            [ 7] 1393 	ld	l, #0x00
                                   1394 ;	spillPairReg hl
                                   1395 ;	spillPairReg hl
    00000453 3E 1E            [ 7] 1396 	ld	a, #0x1e
    00000455 CDr00r00         [17] 1397 	call	_V9_PrintLayerAStringAtPos
    00000458 C3r73r04         [10] 1398 	jp	00104$
    0000045B                       1399 00102$:
                                   1400 ;E:\Dropbox\FAUSTO\SVILUPPI\MSX\CODE\C\MSXgl\projects\exsoccer/exsoccer_s2_b0.c:259: V9_PrintLayerAStringAtPos(30,0,"0");
    0000045B 01r7Br04         [10] 1401 	ld	bc, #___str_9+0
    0000045E E5               [11] 1402 	push	hl
    0000045F C5               [11] 1403 	push	bc
    00000460 2E 00            [ 7] 1404 	ld	l, #0x00
                                   1405 ;	spillPairReg hl
                                   1406 ;	spillPairReg hl
    00000462 3E 1E            [ 7] 1407 	ld	a, #0x1e
    00000464 CDr00r00         [17] 1408 	call	_V9_PrintLayerAStringAtPos
    00000467 E1               [10] 1409 	pop	hl
                                   1410 ;E:\Dropbox\FAUSTO\SVILUPPI\MSX\CODE\C\MSXgl\projects\exsoccer/exsoccer_s2_b0.c:260: V9_PrintLayerAStringAtPos(31,0,GetNumberString(seconds));
    00000468 CDr4Er08         [17] 1411 	call	_GetNumberString
    0000046B D5               [11] 1412 	push	de
    0000046C 2E 00            [ 7] 1413 	ld	l, #0x00
                                   1414 ;	spillPairReg hl
                                   1415 ;	spillPairReg hl
    0000046E 3E 1F            [ 7] 1416 	ld	a, #0x1f
    00000470 CDr00r00         [17] 1417 	call	_V9_PrintLayerAStringAtPos
    00000473                       1418 00104$:
                                   1419 ;E:\Dropbox\FAUSTO\SVILUPPI\MSX\CODE\C\MSXgl\projects\exsoccer/exsoccer_s2_b0.c:262: }
    00000473 33               [ 6] 1420 	inc	sp
    00000474 DD E1            [14] 1421 	pop	ix
    00000476 C9               [10] 1422 	ret
    00000477                       1423 ___str_7:
    00000477 2D                    1424 	.ascii "-"
    00000478 00                    1425 	.db 0x00
    00000479                       1426 ___str_8:
    00000479 3A                    1427 	.ascii ":"
    0000047A 00                    1428 	.db 0x00
    0000047B                       1429 ___str_9:
    0000047B 30                    1430 	.ascii "0"
    0000047C 00                    1431 	.db 0x00
                                   1432 ;E:\Dropbox\FAUSTO\SVILUPPI\MSX\CODE\C\MSXgl\projects\exsoccer/exsoccer_s2_b0.c:265: void V9_PutLayerATileAtPos(u8 x, u8 y, u16 tileId) {
                                   1433 ;	---------------------------------
                                   1434 ; Function V9_PutLayerATileAtPos
                                   1435 ; ---------------------------------
    0000047D                       1436 _V9_PutLayerATileAtPos::
    0000047D DD E5            [15] 1437 	push	ix
    0000047F DD 21 00 00      [14] 1438 	ld	ix,#0
    00000483 DD 39            [15] 1439 	add	ix,sp
    00000485 5F               [ 4] 1440 	ld	e, a
                                   1441 ;E:\Dropbox\FAUSTO\SVILUPPI\MSX\CODE\C\MSXgl\projects\exsoccer/exsoccer_s2_b0.c:266: V9_Poke16(V9_CellAddrP1A(x,y), tileId);
    00000486 DD 4E 04         [19] 1442 	ld	c, 4 (ix)
    00000489 DD 46 05         [19] 1443 	ld	b, 5 (ix)
                                   1444 ;E:/Dropbox/FAUSTO/SVILUPPI/MSX/CODE/C/MSXgl/engine/src/v9990.h:1426: inline u32 V9_CellAddrP1A(u8 x, u8 y) { return V9_P1_PNT_A + (((64 * y) + x) * 2); }
    0000048C 26 00            [ 7] 1445 	ld	h, #0x00
                                   1446 ;	spillPairReg hl
                                   1447 ;	spillPairReg hl
    0000048E 29               [11] 1448 	add	hl, hl
    0000048F 29               [11] 1449 	add	hl, hl
    00000490 29               [11] 1450 	add	hl, hl
    00000491 29               [11] 1451 	add	hl, hl
    00000492 29               [11] 1452 	add	hl, hl
    00000493 29               [11] 1453 	add	hl, hl
    00000494 16 00            [ 7] 1454 	ld	d, #0x00
    00000496 19               [11] 1455 	add	hl, de
    00000497 29               [11] 1456 	add	hl, hl
    00000498 7C               [ 4] 1457 	ld	a, h
    00000499 07               [ 4] 1458 	rlca
    0000049A 9F               [ 4] 1459 	sbc	a, a
    0000049B 5F               [ 4] 1460 	ld	e, a
    0000049C 57               [ 4] 1461 	ld	d, a
    0000049D 7C               [ 4] 1462 	ld	a, h
    0000049E C6 C0            [ 7] 1463 	add	a, #0xc0
    000004A0 67               [ 4] 1464 	ld	h, a
                                   1465 ;	spillPairReg hl
                                   1466 ;	spillPairReg hl
    000004A1 7B               [ 4] 1467 	ld	a, e
    000004A2 CE 07            [ 7] 1468 	adc	a, #0x07
    000004A4 5F               [ 4] 1469 	ld	e, a
    000004A5 30 01            [12] 1470 	jr	NC, 00105$
    000004A7 14               [ 4] 1471 	inc	d
    000004A8                       1472 00105$:
                                   1473 ;E:/Dropbox/FAUSTO/SVILUPPI/MSX/CODE/C/MSXgl/engine/src/v9990.h:396: inline void V9_Poke16(u32 addr, u16 val) { V9_SetWriteAddress(addr); V9_Poke16_CurrentAddr(val); }
    000004A8 C5               [11] 1474 	push	bc
    000004A9 EB               [ 4] 1475 	ex	de, hl
    000004AA CDr00r00         [17] 1476 	call	_V9_SetWriteAddress
    000004AD C1               [10] 1477 	pop	bc
    000004AE 69               [ 4] 1478 	ld	l, c
                                   1479 ;	spillPairReg hl
                                   1480 ;	spillPairReg hl
    000004AF 60               [ 4] 1481 	ld	h, b
                                   1482 ;	spillPairReg hl
                                   1483 ;	spillPairReg hl
    000004B0 CDr00r00         [17] 1484 	call	_V9_Poke16_CurrentAddr
                                   1485 ;E:\Dropbox\FAUSTO\SVILUPPI\MSX\CODE\C\MSXgl\projects\exsoccer/exsoccer_s2_b0.c:266: V9_Poke16(V9_CellAddrP1A(x,y), tileId);
                                   1486 ;E:\Dropbox\FAUSTO\SVILUPPI\MSX\CODE\C\MSXgl\projects\exsoccer/exsoccer_s2_b0.c:267: }
    000004B3 DD E1            [14] 1487 	pop	ix
    000004B5 E1               [10] 1488 	pop	hl
    000004B6 F1               [10] 1489 	pop	af
    000004B7 E9               [ 4] 1490 	jp	(hl)
                                   1491 ;E:\Dropbox\FAUSTO\SVILUPPI\MSX\CODE\C\MSXgl\projects\exsoccer/exsoccer_s2_b0.c:268: void V9_PutLayerBTileAtPos(u8 x, u8 y, u16 tileId) {
                                   1492 ;	---------------------------------
                                   1493 ; Function V9_PutLayerBTileAtPos
                                   1494 ; ---------------------------------
    000004B8                       1495 _V9_PutLayerBTileAtPos::
    000004B8 DD E5            [15] 1496 	push	ix
    000004BA DD 21 00 00      [14] 1497 	ld	ix,#0
    000004BE DD 39            [15] 1498 	add	ix,sp
    000004C0 5F               [ 4] 1499 	ld	e, a
                                   1500 ;E:\Dropbox\FAUSTO\SVILUPPI\MSX\CODE\C\MSXgl\projects\exsoccer/exsoccer_s2_b0.c:269: V9_Poke16(V9_CellAddrP1B(x,y), tileId);
    000004C1 DD 4E 04         [19] 1501 	ld	c, 4 (ix)
    000004C4 DD 46 05         [19] 1502 	ld	b, 5 (ix)
                                   1503 ;E:/Dropbox/FAUSTO/SVILUPPI/MSX/CODE/C/MSXgl/engine/src/v9990.h:1437: inline u32 V9_CellAddrP1B(u8 x, u8 y) { return V9_P1_PNT_B + (((64 * y) + x) * 2); }
    000004C7 26 00            [ 7] 1504 	ld	h, #0x00
                                   1505 ;	spillPairReg hl
                                   1506 ;	spillPairReg hl
    000004C9 29               [11] 1507 	add	hl, hl
    000004CA 29               [11] 1508 	add	hl, hl
    000004CB 29               [11] 1509 	add	hl, hl
    000004CC 29               [11] 1510 	add	hl, hl
    000004CD 29               [11] 1511 	add	hl, hl
    000004CE 29               [11] 1512 	add	hl, hl
    000004CF 16 00            [ 7] 1513 	ld	d, #0x00
    000004D1 19               [11] 1514 	add	hl, de
    000004D2 29               [11] 1515 	add	hl, hl
    000004D3 7C               [ 4] 1516 	ld	a, h
    000004D4 07               [ 4] 1517 	rlca
    000004D5 9F               [ 4] 1518 	sbc	a, a
    000004D6 5F               [ 4] 1519 	ld	e, a
    000004D7 57               [ 4] 1520 	ld	d, a
    000004D8 7C               [ 4] 1521 	ld	a, h
    000004D9 C6 E0            [ 7] 1522 	add	a, #0xe0
    000004DB 67               [ 4] 1523 	ld	h, a
                                   1524 ;	spillPairReg hl
                                   1525 ;	spillPairReg hl
    000004DC 7B               [ 4] 1526 	ld	a, e
    000004DD CE 07            [ 7] 1527 	adc	a, #0x07
    000004DF 5F               [ 4] 1528 	ld	e, a
    000004E0 30 01            [12] 1529 	jr	NC, 00105$
    000004E2 14               [ 4] 1530 	inc	d
    000004E3                       1531 00105$:
                                   1532 ;E:/Dropbox/FAUSTO/SVILUPPI/MSX/CODE/C/MSXgl/engine/src/v9990.h:396: inline void V9_Poke16(u32 addr, u16 val) { V9_SetWriteAddress(addr); V9_Poke16_CurrentAddr(val); }
    000004E3 C5               [11] 1533 	push	bc
    000004E4 EB               [ 4] 1534 	ex	de, hl
    000004E5 CDr00r00         [17] 1535 	call	_V9_SetWriteAddress
    000004E8 C1               [10] 1536 	pop	bc
    000004E9 69               [ 4] 1537 	ld	l, c
                                   1538 ;	spillPairReg hl
                                   1539 ;	spillPairReg hl
    000004EA 60               [ 4] 1540 	ld	h, b
                                   1541 ;	spillPairReg hl
                                   1542 ;	spillPairReg hl
    000004EB CDr00r00         [17] 1543 	call	_V9_Poke16_CurrentAddr
                                   1544 ;E:\Dropbox\FAUSTO\SVILUPPI\MSX\CODE\C\MSXgl\projects\exsoccer/exsoccer_s2_b0.c:269: V9_Poke16(V9_CellAddrP1B(x,y), tileId);
                                   1545 ;E:\Dropbox\FAUSTO\SVILUPPI\MSX\CODE\C\MSXgl\projects\exsoccer/exsoccer_s2_b0.c:270: }
    000004EE DD E1            [14] 1546 	pop	ix
    000004F0 E1               [10] 1547 	pop	hl
    000004F1 F1               [10] 1548 	pop	af
    000004F2 E9               [ 4] 1549 	jp	(hl)
                                   1550 ;E:\Dropbox\FAUSTO\SVILUPPI\MSX\CODE\C\MSXgl\projects\exsoccer/exsoccer_s2_b0.c:271: void PutPlayerSprite(u8 playerId){
                                   1551 ;	---------------------------------
                                   1552 ; Function PutPlayerSprite
                                   1553 ; ---------------------------------
    000004F3                       1554 _PutPlayerSprite::
    000004F3 DD E5            [15] 1555 	push	ix
    000004F5 DD 21 00 00      [14] 1556 	ld	ix,#0
    000004F9 DD 39            [15] 1557 	add	ix,sp
    000004FB 21 E9 FF         [10] 1558 	ld	hl, #-23
    000004FE 39               [11] 1559 	add	hl, sp
    000004FF F9               [ 6] 1560 	ld	sp, hl
    00000500 DD 77 FF         [19] 1561 	ld	-1 (ix), a
                                   1562 ;E:\Dropbox\FAUSTO\SVILUPPI\MSX\CODE\C\MSXgl\projects\exsoccer/exsoccer_s2_b0.c:273: attr.D=0;
    00000503 21 03 00         [10] 1563 	ld	hl, #3
    00000506 39               [11] 1564 	add	hl, sp
    00000507 CB A6            [15] 1565 	res	4, (hl)
                                   1566 ;E:\Dropbox\FAUSTO\SVILUPPI\MSX\CODE\C\MSXgl\projects\exsoccer/exsoccer_s2_b0.c:274: attr.SC=2;
    00000509 21 03 00         [10] 1567 	ld	hl, #3
    0000050C 39               [11] 1568 	add	hl, sp
    0000050D 7E               [ 7] 1569 	ld	a, (hl)
    0000050E E6 3F            [ 7] 1570 	and	a, #0x3f
    00000510 F6 80            [ 7] 1571 	or	a, #0x80
    00000512 77               [ 7] 1572 	ld	(hl), a
                                   1573 ;E:\Dropbox\FAUSTO\SVILUPPI\MSX\CODE\C\MSXgl\projects\exsoccer/exsoccer_s2_b0.c:275: u16 minY=g_FieldCurrentYPosition+16;
    00000513 2Ar00r00         [16] 1574 	ld	hl, (_g_FieldCurrentYPosition)
    00000516 11 10 00         [10] 1575 	ld	de, #0x0010
    00000519 19               [11] 1576 	add	hl, de
    0000051A 4D               [ 4] 1577 	ld	c, l
    0000051B 44               [ 4] 1578 	ld	b, h
                                   1579 ;E:\Dropbox\FAUSTO\SVILUPPI\MSX\CODE\C\MSXgl\projects\exsoccer/exsoccer_s2_b0.c:276: u16 maxY=g_FieldCurrentYPosition+235;
    0000051C 2Ar00r00         [16] 1580 	ld	hl, (_g_FieldCurrentYPosition)
    0000051F 11 EB 00         [10] 1581 	ld	de, #0x00eb
    00000522 19               [11] 1582 	add	hl, de
                                   1583 ;E:\Dropbox\FAUSTO\SVILUPPI\MSX\CODE\C\MSXgl\projects\exsoccer/exsoccer_s2_b0.c:278: attr.Y = g_Players[playerId].Y-g_FieldCurrentYPosition;
    00000523 E5               [11] 1584 	push	hl
    00000524 DD 5E FF         [19] 1585 	ld	e, -1 (ix)
    00000527 16 00            [ 7] 1586 	ld	d, #0x00
    00000529 6B               [ 4] 1587 	ld	l, e
    0000052A 62               [ 4] 1588 	ld	h, d
    0000052B 29               [11] 1589 	add	hl, hl
    0000052C 29               [11] 1590 	add	hl, hl
    0000052D 19               [11] 1591 	add	hl, de
    0000052E 29               [11] 1592 	add	hl, hl
    0000052F 29               [11] 1593 	add	hl, hl
    00000530 19               [11] 1594 	add	hl, de
    00000531 D1               [10] 1595 	pop	de
    00000532 3Er00            [ 7] 1596 	ld	a, #<(_g_Players)
    00000534 85               [ 4] 1597 	add	a, l
    00000535 DD 77 ED         [19] 1598 	ld	-19 (ix), a
    00000538 3Es00            [ 7] 1599 	ld	a, #>(_g_Players)
    0000053A 8C               [ 4] 1600 	adc	a, h
    0000053B DD 77 EE         [19] 1601 	ld	-18 (ix), a
    0000053E DD 6E ED         [19] 1602 	ld	l, -19 (ix)
    00000541 DD 66 EE         [19] 1603 	ld	h, -18 (ix)
    00000544 66               [ 7] 1604 	ld	h, (hl)
                                   1605 ;	spillPairReg hl
    00000545 3Ar00r00         [13] 1606 	ld	a, (_g_FieldCurrentYPosition+0)
    00000548 6F               [ 4] 1607 	ld	l, a
                                   1608 ;	spillPairReg hl
                                   1609 ;	spillPairReg hl
    00000549 7C               [ 4] 1610 	ld	a, h
    0000054A 95               [ 4] 1611 	sub	a, l
    0000054B DD 77 E9         [19] 1612 	ld	-23 (ix), a
                                   1613 ;E:\Dropbox\FAUSTO\SVILUPPI\MSX\CODE\C\MSXgl\projects\exsoccer/exsoccer_s2_b0.c:279: if(g_Players[playerId].TeamId==TEAM_2){
    0000054E DD 7E ED         [19] 1614 	ld	a, -19 (ix)
    00000551 C6 09            [ 7] 1615 	add	a, #0x09
    00000553 DD 77 EF         [19] 1616 	ld	-17 (ix), a
    00000556 DD 7E EE         [19] 1617 	ld	a, -18 (ix)
    00000559 CE 00            [ 7] 1618 	adc	a, #0x00
    0000055B DD 77 F0         [19] 1619 	ld	-16 (ix), a
    0000055E DD 6E EF         [19] 1620 	ld	l, -17 (ix)
    00000561 DD 66 F0         [19] 1621 	ld	h, -16 (ix)
    00000564 7E               [ 7] 1622 	ld	a, (hl)
    00000565 D6 02            [ 7] 1623 	sub	a, #0x02
    00000567 20 08            [12] 1624 	jr	NZ, 00102$
                                   1625 ;E:\Dropbox\FAUSTO\SVILUPPI\MSX\CODE\C\MSXgl\projects\exsoccer/exsoccer_s2_b0.c:280: attr.SC=3;
    00000569 21 03 00         [10] 1626 	ld	hl, #3
    0000056C 39               [11] 1627 	add	hl, sp
    0000056D 7E               [ 7] 1628 	ld	a, (hl)
    0000056E F6 C0            [ 7] 1629 	or	a, #0xc0
    00000570 77               [ 7] 1630 	ld	(hl), a
    00000571                       1631 00102$:
                                   1632 ;E:\Dropbox\FAUSTO\SVILUPPI\MSX\CODE\C\MSXgl\projects\exsoccer/exsoccer_s2_b0.c:283: if(g_Players[playerId].TeamId==REFEREE){
    00000571 DD 6E EF         [19] 1633 	ld	l, -17 (ix)
    00000574 DD 66 F0         [19] 1634 	ld	h, -16 (ix)
    00000577 7E               [ 7] 1635 	ld	a, (hl)
    00000578 D6 0E            [ 7] 1636 	sub	a, #0x0e
    0000057A 20 0A            [12] 1637 	jr	NZ, 00104$
                                   1638 ;E:\Dropbox\FAUSTO\SVILUPPI\MSX\CODE\C\MSXgl\projects\exsoccer/exsoccer_s2_b0.c:284: attr.SC=1;
    0000057C 21 03 00         [10] 1639 	ld	hl, #3
    0000057F 39               [11] 1640 	add	hl, sp
    00000580 7E               [ 7] 1641 	ld	a, (hl)
    00000581 E6 3F            [ 7] 1642 	and	a, #0x3f
    00000583 F6 40            [ 7] 1643 	or	a, #0x40
    00000585 77               [ 7] 1644 	ld	(hl), a
    00000586                       1645 00104$:
                                   1646 ;E:\Dropbox\FAUSTO\SVILUPPI\MSX\CODE\C\MSXgl\projects\exsoccer/exsoccer_s2_b0.c:287: if(g_Players[playerId].Y>maxY){
    00000586 DD 6E ED         [19] 1647 	ld	l, -19 (ix)
    00000589 DD 66 EE         [19] 1648 	ld	h, -18 (ix)
    0000058C 7E               [ 7] 1649 	ld	a, (hl)
    0000058D 23               [ 6] 1650 	inc	hl
    0000058E 66               [ 7] 1651 	ld	h, (hl)
                                   1652 ;	spillPairReg hl
    0000058F 6F               [ 4] 1653 	ld	l, a
                                   1654 ;	spillPairReg hl
                                   1655 ;	spillPairReg hl
    00000590 7B               [ 4] 1656 	ld	a, e
    00000591 95               [ 4] 1657 	sub	a, l
    00000592 7A               [ 4] 1658 	ld	a, d
    00000593 9C               [ 4] 1659 	sbc	a, h
    00000594 30 06            [12] 1660 	jr	NC, 00106$
                                   1661 ;E:\Dropbox\FAUSTO\SVILUPPI\MSX\CODE\C\MSXgl\projects\exsoccer/exsoccer_s2_b0.c:288: attr.D=1;
    00000596 21 03 00         [10] 1662 	ld	hl, #3
    00000599 39               [11] 1663 	add	hl, sp
    0000059A CB E6            [15] 1664 	set	4, (hl)
    0000059C                       1665 00106$:
                                   1666 ;E:\Dropbox\FAUSTO\SVILUPPI\MSX\CODE\C\MSXgl\projects\exsoccer/exsoccer_s2_b0.c:290: if(g_Players[playerId].Y<minY){
    0000059C DD 6E ED         [19] 1667 	ld	l, -19 (ix)
    0000059F DD 66 EE         [19] 1668 	ld	h, -18 (ix)
    000005A2 5E               [ 7] 1669 	ld	e, (hl)
    000005A3 23               [ 6] 1670 	inc	hl
    000005A4 56               [ 7] 1671 	ld	d, (hl)
    000005A5 7B               [ 4] 1672 	ld	a, e
    000005A6 91               [ 4] 1673 	sub	a, c
    000005A7 7A               [ 4] 1674 	ld	a, d
    000005A8 98               [ 4] 1675 	sbc	a, b
    000005A9 30 06            [12] 1676 	jr	NC, 00108$
                                   1677 ;E:\Dropbox\FAUSTO\SVILUPPI\MSX\CODE\C\MSXgl\projects\exsoccer/exsoccer_s2_b0.c:291: attr.D=1;
    000005AB 21 03 00         [10] 1678 	ld	hl, #3
    000005AE 39               [11] 1679 	add	hl, sp
    000005AF CB E6            [15] 1680 	set	4, (hl)
    000005B1                       1681 00108$:
                                   1682 ;E:\Dropbox\FAUSTO\SVILUPPI\MSX\CODE\C\MSXgl\projects\exsoccer/exsoccer_s2_b0.c:294: if(g_Players[playerId].Role!=PLAYER_ROLE_GOALKEEPER){
    000005B1 DD 7E ED         [19] 1683 	ld	a, -19 (ix)
    000005B4 C6 0D            [ 7] 1684 	add	a, #0x0d
    000005B6 DD 77 F1         [19] 1685 	ld	-15 (ix), a
    000005B9 DD 7E EE         [19] 1686 	ld	a, -18 (ix)
    000005BC CE 00            [ 7] 1687 	adc	a, #0x00
    000005BE DD 77 F2         [19] 1688 	ld	-14 (ix), a
                                   1689 ;E:\Dropbox\FAUSTO\SVILUPPI\MSX\CODE\C\MSXgl\projects\exsoccer/exsoccer_s2_b0.c:293: if(g_MatchStatus!=MATCH_NOT_STARTED && g_MatchStatus!=MATCH_KICK_OFF){
    000005C1 3Ar00r00         [13] 1690 	ld	a, (_g_MatchStatus+0)
    000005C4 B7               [ 4] 1691 	or	a, a
    000005C5 28 17            [12] 1692 	jr	Z, 00112$
    000005C7 3Ar00r00         [13] 1693 	ld	a, (_g_MatchStatus+0)
    000005CA D6 07            [ 7] 1694 	sub	a, #0x07
    000005CC 28 10            [12] 1695 	jr	Z, 00112$
                                   1696 ;E:\Dropbox\FAUSTO\SVILUPPI\MSX\CODE\C\MSXgl\projects\exsoccer/exsoccer_s2_b0.c:294: if(g_Players[playerId].Role!=PLAYER_ROLE_GOALKEEPER){
    000005CE DD 6E F1         [19] 1697 	ld	l, -15 (ix)
    000005D1 DD 66 F2         [19] 1698 	ld	h, -14 (ix)
    000005D4 7E               [ 7] 1699 	ld	a, (hl)
    000005D5 B7               [ 4] 1700 	or	a, a
    000005D6 28 06            [12] 1701 	jr	Z, 00112$
                                   1702 ;E:\Dropbox\FAUSTO\SVILUPPI\MSX\CODE\C\MSXgl\projects\exsoccer/exsoccer_s2_b0.c:295: UpdatePlayerPatternByDirection(playerId);
    000005D8 DD 7E FF         [19] 1703 	ld	a, -1 (ix)
    000005DB CDr00r00         [17] 1704 	call	_UpdatePlayerPatternByDirection
    000005DE                       1705 00112$:
                                   1706 ;E:\Dropbox\FAUSTO\SVILUPPI\MSX\CODE\C\MSXgl\projects\exsoccer/exsoccer_s2_b0.c:298: if(g_Players[playerId].Role==PLAYER_ROLE_GOALKEEPER){
    000005DE DD 6E F1         [19] 1707 	ld	l, -15 (ix)
    000005E1 DD 66 F2         [19] 1708 	ld	h, -14 (ix)
    000005E4 4E               [ 7] 1709 	ld	c, (hl)
                                   1710 ;E:\Dropbox\FAUSTO\SVILUPPI\MSX\CODE\C\MSXgl\projects\exsoccer/exsoccer_s2_b0.c:306: if(g_Players[playerId].OldX!=g_Players[playerId].X || g_Players[playerId].OldY!=g_Players[playerId].Y){
    000005E5 DD 7E ED         [19] 1711 	ld	a, -19 (ix)
    000005E8 C6 02            [ 7] 1712 	add	a, #0x02
    000005EA DD 77 F3         [19] 1713 	ld	-13 (ix), a
    000005ED DD 7E EE         [19] 1714 	ld	a, -18 (ix)
    000005F0 CE 00            [ 7] 1715 	adc	a, #0x00
    000005F2 DD 77 F4         [19] 1716 	ld	-12 (ix), a
                                   1717 ;E:\Dropbox\FAUSTO\SVILUPPI\MSX\CODE\C\MSXgl\projects\exsoccer/exsoccer_s2_b0.c:308: g_Players[playerId].PatternId = (team == TEAM_1) ? PLAYER_POSE_GK_H_MOVE_BACK_1 : PLAYER_POSE_GK_H_MOVE_FRONT_1;
    000005F5 DD 7E ED         [19] 1718 	ld	a, -19 (ix)
    000005F8 C6 08            [ 7] 1719 	add	a, #0x08
    000005FA DD 77 F5         [19] 1720 	ld	-11 (ix), a
    000005FD DD 7E EE         [19] 1721 	ld	a, -18 (ix)
    00000600 CE 00            [ 7] 1722 	adc	a, #0x00
    00000602 DD 77 F6         [19] 1723 	ld	-10 (ix), a
                                   1724 ;E:\Dropbox\FAUSTO\SVILUPPI\MSX\CODE\C\MSXgl\projects\exsoccer/exsoccer_s2_b0.c:298: if(g_Players[playerId].Role==PLAYER_ROLE_GOALKEEPER){
    00000605 79               [ 4] 1725 	ld	a, c
    00000606 B7               [ 4] 1726 	or	a, a
    00000607 C2r19r07         [10] 1727 	jp	NZ, 00125$
                                   1728 ;E:\Dropbox\FAUSTO\SVILUPPI\MSX\CODE\C\MSXgl\projects\exsoccer/exsoccer_s2_b0.c:299: attr.SC=0;
    0000060A 21 03 00         [10] 1729 	ld	hl, #3
    0000060D 39               [11] 1730 	add	hl, sp
    0000060E 7E               [ 7] 1731 	ld	a, (hl)
    0000060F E6 3F            [ 7] 1732 	and	a, #0x3f
    00000611 77               [ 7] 1733 	ld	(hl), a
                                   1734 ;E:\Dropbox\FAUSTO\SVILUPPI\MSX\CODE\C\MSXgl\projects\exsoccer/exsoccer_s2_b0.c:302: if (g_MatchStatus == MATCH_IN_ACTION || g_MatchStatus == MATCH_BALL_ON_GOALKEEPER) {
    00000612 3Ar00r00         [13] 1735 	ld	a,(_g_MatchStatus+0)
    00000615 FE 0C            [ 7] 1736 	cp	a,#0x0c
    00000617 28 05            [12] 1737 	jr	Z, 00120$
    00000619 D6 0D            [ 7] 1738 	sub	a, #0x0d
    0000061B C2r13r07         [10] 1739 	jp	NZ,00121$
    0000061E                       1740 00120$:
                                   1741 ;E:\Dropbox\FAUSTO\SVILUPPI\MSX\CODE\C\MSXgl\projects\exsoccer/exsoccer_s2_b0.c:303: g_Players[playerId].Status=PLAYER_STATUS_POSITIONED;
    0000061E DD 6E ED         [19] 1742 	ld	l, -19 (ix)
    00000621 DD 66 EE         [19] 1743 	ld	h, -18 (ix)
    00000624 11 12 00         [10] 1744 	ld	de, #0x0012
    00000627 19               [11] 1745 	add	hl, de
    00000628 36 04            [10] 1746 	ld	(hl), #0x04
    0000062A 23               [ 6] 1747 	inc	hl
    0000062B 36 00            [10] 1748 	ld	(hl), #0x00
                                   1749 ;E:\Dropbox\FAUSTO\SVILUPPI\MSX\CODE\C\MSXgl\projects\exsoccer/exsoccer_s2_b0.c:304: u8 team = g_Players[playerId].TeamId;
    0000062D DD 6E EF         [19] 1750 	ld	l, -17 (ix)
    00000630 DD 66 F0         [19] 1751 	ld	h, -16 (ix)
    00000633 46               [ 7] 1752 	ld	b, (hl)
                                   1753 ;E:\Dropbox\FAUSTO\SVILUPPI\MSX\CODE\C\MSXgl\projects\exsoccer/exsoccer_s2_b0.c:306: if(g_Players[playerId].OldX!=g_Players[playerId].X || g_Players[playerId].OldY!=g_Players[playerId].Y){
    00000634 DD 7E ED         [19] 1754 	ld	a, -19 (ix)
    00000637 C6 04            [ 7] 1755 	add	a, #0x04
    00000639 DD 77 F7         [19] 1756 	ld	-9 (ix), a
    0000063C DD 7E EE         [19] 1757 	ld	a, -18 (ix)
    0000063F CE 00            [ 7] 1758 	adc	a, #0x00
    00000641 DD 77 F8         [19] 1759 	ld	-8 (ix), a
    00000644 DD 6E F7         [19] 1760 	ld	l, -9 (ix)
    00000647 DD 66 F8         [19] 1761 	ld	h, -8 (ix)
    0000064A 5E               [ 7] 1762 	ld	e, (hl)
    0000064B 23               [ 6] 1763 	inc	hl
    0000064C 56               [ 7] 1764 	ld	d, (hl)
    0000064D DD 6E F3         [19] 1765 	ld	l, -13 (ix)
    00000650 DD 66 F4         [19] 1766 	ld	h, -12 (ix)
    00000653 4E               [ 7] 1767 	ld	c, (hl)
    00000654 23               [ 6] 1768 	inc	hl
    00000655 66               [ 7] 1769 	ld	h, (hl)
                                   1770 ;	spillPairReg hl
    00000656 DD 7E ED         [19] 1771 	ld	a, -19 (ix)
    00000659 C6 06            [ 7] 1772 	add	a, #0x06
    0000065B DD 77 F9         [19] 1773 	ld	-7 (ix), a
    0000065E DD 7E EE         [19] 1774 	ld	a, -18 (ix)
    00000661 CE 00            [ 7] 1775 	adc	a, #0x00
    00000663 DD 77 FA         [19] 1776 	ld	-6 (ix), a
    00000666 69               [ 4] 1777 	ld	l, c
    00000667 BF               [ 4] 1778 	cp	a, a
    00000668 ED 52            [15] 1779 	sbc	hl, de
    0000066A 20 19            [12] 1780 	jr	NZ, 00117$
    0000066C DD 6E F9         [19] 1781 	ld	l, -7 (ix)
    0000066F DD 66 FA         [19] 1782 	ld	h, -6 (ix)
    00000672 5E               [ 7] 1783 	ld	e, (hl)
    00000673 23               [ 6] 1784 	inc	hl
    00000674 56               [ 7] 1785 	ld	d, (hl)
    00000675 DD 6E ED         [19] 1786 	ld	l, -19 (ix)
    00000678 DD 66 EE         [19] 1787 	ld	h, -18 (ix)
    0000067B 4E               [ 7] 1788 	ld	c, (hl)
    0000067C 23               [ 6] 1789 	inc	hl
    0000067D 66               [ 7] 1790 	ld	h, (hl)
                                   1791 ;	spillPairReg hl
    0000067E 69               [ 4] 1792 	ld	l, c
    0000067F BF               [ 4] 1793 	cp	a, a
    00000680 ED 52            [15] 1794 	sbc	hl, de
    00000682 CAr19r07         [10] 1795 	jp	Z,00125$
    00000685                       1796 00117$:
                                   1797 ;E:\Dropbox\FAUSTO\SVILUPPI\MSX\CODE\C\MSXgl\projects\exsoccer/exsoccer_s2_b0.c:307: if(g_Players[playerId].LastPose==0){
    00000685 DD 7E ED         [19] 1798 	ld	a, -19 (ix)
    00000688 C6 0C            [ 7] 1799 	add	a, #0x0c
    0000068A DD 77 FB         [19] 1800 	ld	-5 (ix), a
    0000068D DD 7E EE         [19] 1801 	ld	a, -18 (ix)
    00000690 CE 00            [ 7] 1802 	adc	a, #0x00
    00000692 DD 77 FC         [19] 1803 	ld	-4 (ix), a
    00000695 DD 6E FB         [19] 1804 	ld	l, -5 (ix)
    00000698 DD 66 FC         [19] 1805 	ld	h, -4 (ix)
    0000069B 4E               [ 7] 1806 	ld	c, (hl)
                                   1807 ;E:\Dropbox\FAUSTO\SVILUPPI\MSX\CODE\C\MSXgl\projects\exsoccer/exsoccer_s2_b0.c:308: g_Players[playerId].PatternId = (team == TEAM_1) ? PLAYER_POSE_GK_H_MOVE_BACK_1 : PLAYER_POSE_GK_H_MOVE_FRONT_1;
    0000069C 05               [ 4] 1808 	dec	b
    0000069D 3E 01            [ 7] 1809 	ld	a, #0x01
    0000069F 28 01            [12] 1810 	jr	Z, 00287$
    000006A1 AF               [ 4] 1811 	xor	a, a
    000006A2                       1812 00287$:
                                   1813 ;E:\Dropbox\FAUSTO\SVILUPPI\MSX\CODE\C\MSXgl\projects\exsoccer/exsoccer_s2_b0.c:307: if(g_Players[playerId].LastPose==0){
    000006A2 0C               [ 4] 1814 	inc	c
    000006A3 0D               [ 4] 1815 	dec	c
    000006A4 20 2B            [12] 1816 	jr	NZ, 00115$
                                   1817 ;E:\Dropbox\FAUSTO\SVILUPPI\MSX\CODE\C\MSXgl\projects\exsoccer/exsoccer_s2_b0.c:308: g_Players[playerId].PatternId = (team == TEAM_1) ? PLAYER_POSE_GK_H_MOVE_BACK_1 : PLAYER_POSE_GK_H_MOVE_FRONT_1;
    000006A6 B7               [ 4] 1818 	or	a, a
    000006A7 28 0B            [12] 1819 	jr	Z, 00145$
    000006A9 DD 36 FD A4      [19] 1820 	ld	-3 (ix), #0xa4
    000006AD DD 36 FE 00      [19] 1821 	ld	-2 (ix), #0
    000006B1 C3rBCr06         [10] 1822 	jp	00146$
    000006B4                       1823 00145$:
    000006B4 DD 36 FD 2B      [19] 1824 	ld	-3 (ix), #0x2b
    000006B8 DD 36 FE 00      [19] 1825 	ld	-2 (ix), #0
    000006BC                       1826 00146$:
    000006BC DD 7E FD         [19] 1827 	ld	a, -3 (ix)
    000006BF DD 6E F5         [19] 1828 	ld	l, -11 (ix)
    000006C2 DD 66 F6         [19] 1829 	ld	h, -10 (ix)
    000006C5 77               [ 7] 1830 	ld	(hl), a
                                   1831 ;E:\Dropbox\FAUSTO\SVILUPPI\MSX\CODE\C\MSXgl\projects\exsoccer/exsoccer_s2_b0.c:309: g_Players[playerId].LastPose=1;
    000006C6 DD 6E FB         [19] 1832 	ld	l, -5 (ix)
    000006C9 DD 66 FC         [19] 1833 	ld	h, -4 (ix)
    000006CC 36 01            [10] 1834 	ld	(hl), #0x01
    000006CE C3rECr06         [10] 1835 	jp	00116$
    000006D1                       1836 00115$:
                                   1837 ;E:\Dropbox\FAUSTO\SVILUPPI\MSX\CODE\C\MSXgl\projects\exsoccer/exsoccer_s2_b0.c:312: g_Players[playerId].PatternId = (team == TEAM_1) ? PLAYER_POSE_GK_H_MOVE_BACK_2 : PLAYER_POSE_GK_H_MOVE_FRONT_2;
    000006D1 B7               [ 4] 1838 	or	a, a
    000006D2 28 06            [12] 1839 	jr	Z, 00147$
    000006D4 01 A3 00         [10] 1840 	ld	bc, #0x00a3
    000006D7 C3rDDr06         [10] 1841 	jp	00148$
    000006DA                       1842 00147$:
    000006DA 01 2C 00         [10] 1843 	ld	bc, #0x002c
    000006DD                       1844 00148$:
    000006DD DD 6E F5         [19] 1845 	ld	l, -11 (ix)
    000006E0 DD 66 F6         [19] 1846 	ld	h, -10 (ix)
    000006E3 71               [ 7] 1847 	ld	(hl), c
                                   1848 ;E:\Dropbox\FAUSTO\SVILUPPI\MSX\CODE\C\MSXgl\projects\exsoccer/exsoccer_s2_b0.c:313: g_Players[playerId].LastPose=0;
    000006E4 DD 6E FB         [19] 1849 	ld	l, -5 (ix)
    000006E7 DD 66 FC         [19] 1850 	ld	h, -4 (ix)
    000006EA 36 00            [10] 1851 	ld	(hl), #0x00
    000006EC                       1852 00116$:
                                   1853 ;E:\Dropbox\FAUSTO\SVILUPPI\MSX\CODE\C\MSXgl\projects\exsoccer/exsoccer_s2_b0.c:315: g_Players[playerId].OldX=g_Players[playerId].X;
    000006EC DD 6E F3         [19] 1854 	ld	l, -13 (ix)
    000006EF DD 66 F4         [19] 1855 	ld	h, -12 (ix)
    000006F2 4E               [ 7] 1856 	ld	c, (hl)
    000006F3 23               [ 6] 1857 	inc	hl
    000006F4 46               [ 7] 1858 	ld	b, (hl)
    000006F5 DD 6E F7         [19] 1859 	ld	l, -9 (ix)
    000006F8 DD 66 F8         [19] 1860 	ld	h, -8 (ix)
    000006FB 71               [ 7] 1861 	ld	(hl), c
    000006FC 23               [ 6] 1862 	inc	hl
    000006FD 70               [ 7] 1863 	ld	(hl), b
                                   1864 ;E:\Dropbox\FAUSTO\SVILUPPI\MSX\CODE\C\MSXgl\projects\exsoccer/exsoccer_s2_b0.c:316: g_Players[playerId].OldY=g_Players[playerId].Y;	
    000006FE DD 6E ED         [19] 1865 	ld	l, -19 (ix)
    00000701 DD 66 EE         [19] 1866 	ld	h, -18 (ix)
    00000704 4E               [ 7] 1867 	ld	c, (hl)
    00000705 23               [ 6] 1868 	inc	hl
    00000706 46               [ 7] 1869 	ld	b, (hl)
    00000707 DD 6E F9         [19] 1870 	ld	l, -7 (ix)
    0000070A DD 66 FA         [19] 1871 	ld	h, -6 (ix)
    0000070D 71               [ 7] 1872 	ld	(hl), c
    0000070E 23               [ 6] 1873 	inc	hl
    0000070F 70               [ 7] 1874 	ld	(hl), b
    00000710 C3r19r07         [10] 1875 	jp	00125$
    00000713                       1876 00121$:
                                   1877 ;E:\Dropbox\FAUSTO\SVILUPPI\MSX\CODE\C\MSXgl\projects\exsoccer/exsoccer_s2_b0.c:321: UpdatePlayerPatternByDirection(playerId);
    00000713 DD 7E FF         [19] 1878 	ld	a, -1 (ix)
    00000716 CDr00r00         [17] 1879 	call	_UpdatePlayerPatternByDirection
    00000719                       1880 00125$:
                                   1881 ;E:\Dropbox\FAUSTO\SVILUPPI\MSX\CODE\C\MSXgl\projects\exsoccer/exsoccer_s2_b0.c:324: attr.Pattern = g_Players[playerId].PatternId;
    00000719 21 01 00         [10] 1882 	ld	hl,#0x1
    0000071C 39               [11] 1883 	add	hl,sp
    0000071D 4D               [ 4] 1884 	ld	c, l
    0000071E 44               [ 4] 1885 	ld	b, h
    0000071F DD 6E F5         [19] 1886 	ld	l, -11 (ix)
    00000722 DD 66 F6         [19] 1887 	ld	h, -10 (ix)
    00000725 7E               [ 7] 1888 	ld	a, (hl)
    00000726 02               [ 7] 1889 	ld	(bc), a
                                   1890 ;E:\Dropbox\FAUSTO\SVILUPPI\MSX\CODE\C\MSXgl\projects\exsoccer/exsoccer_s2_b0.c:327: if(g_Players[playerId].TeamId != REFEREE && g_MatchStatus != MATCH_PENALTY_SHOOTOUT && g_MatchStatus != MATCH_PENALTY_SETUP && g_MatchStatus != MATCH_VICTORY_LAP)
    00000727 DD 6E EF         [19] 1891 	ld	l, -17 (ix)
    0000072A DD 66 F0         [19] 1892 	ld	h, -16 (ix)
    0000072D 5E               [ 7] 1893 	ld	e, (hl)
    0000072E 7B               [ 4] 1894 	ld	a, e
    0000072F D6 0E            [ 7] 1895 	sub	a, #0x0e
    00000731 28 58            [12] 1896 	jr	Z, 00137$
    00000733 3Ar00r00         [13] 1897 	ld	a,(_g_MatchStatus+0)
    00000736 FE 11            [ 7] 1898 	cp	a,#0x11
    00000738 28 51            [12] 1899 	jr	Z, 00137$
    0000073A FE 12            [ 7] 1900 	cp	a,#0x12
    0000073C 28 4D            [12] 1901 	jr	Z, 00137$
    0000073E D6 10            [ 7] 1902 	sub	a, #0x10
    00000740 28 49            [12] 1903 	jr	Z, 00137$
                                   1904 ;E:\Dropbox\FAUSTO\SVILUPPI\MSX\CODE\C\MSXgl\projects\exsoccer/exsoccer_s2_b0.c:329: bool isHumanTeam = (g_Players[playerId].TeamId == TEAM_1) || (g_GameWith2Players && g_Players[playerId].TeamId == TEAM_2);
    00000742 7B               [ 4] 1905 	ld	a, e
    00000743 3D               [ 4] 1906 	dec	a
    00000744 28 0F            [12] 1907 	jr	Z, 00150$
    00000746 3Ar00r00         [13] 1908 	ld	a, (_g_GameWith2Players+0)
    00000749 B7               [ 4] 1909 	or	a, a
    0000074A 28 05            [12] 1910 	jr	Z, 00149$
    0000074C 7B               [ 4] 1911 	ld	a, e
    0000074D D6 02            [ 7] 1912 	sub	a, #0x02
    0000074F 28 04            [12] 1913 	jr	Z, 00150$
    00000751                       1914 00149$:
    00000751 AF               [ 4] 1915 	xor	a, a
    00000752 C3r57r07         [10] 1916 	jp	00151$
    00000755                       1917 00150$:
    00000755 3E 01            [ 7] 1918 	ld	a, #0x01
    00000757                       1919 00151$:
                                   1920 ;E:\Dropbox\FAUSTO\SVILUPPI\MSX\CODE\C\MSXgl\projects\exsoccer/exsoccer_s2_b0.c:331: if (isHumanTeam) {
    00000757 B7               [ 4] 1921 	or	a, a
    00000758 28 31            [12] 1922 	jr	Z, 00137$
                                   1923 ;E:\Dropbox\FAUSTO\SVILUPPI\MSX\CODE\C\MSXgl\projects\exsoccer/exsoccer_s2_b0.c:333: if (g_Players[playerId].Role != PLAYER_ROLE_GOALKEEPER) {
    0000075A DD 6E F1         [19] 1924 	ld	l, -15 (ix)
    0000075D DD 66 F2         [19] 1925 	ld	h, -14 (ix)
    00000760 7E               [ 7] 1926 	ld	a, (hl)
    00000761 B7               [ 4] 1927 	or	a, a
    00000762 28 1A            [12] 1928 	jr	Z, 00131$
                                   1929 ;E:\Dropbox\FAUSTO\SVILUPPI\MSX\CODE\C\MSXgl\projects\exsoccer/exsoccer_s2_b0.c:334: if (playerId==g_Team1ActivePlayer || (g_GameWith2Players && playerId==g_Team2ActivePlayer)) {
    00000764 3Ar00r00         [13] 1930 	ld	a, (_g_Team1ActivePlayer+0)
    00000767 DD 96 FF         [19] 1931 	sub	a, -1 (ix)
    0000076A 28 0E            [12] 1932 	jr	Z, 00126$
    0000076C 3Ar00r00         [13] 1933 	ld	a, (_g_GameWith2Players+0)
    0000076F B7               [ 4] 1934 	or	a, a
    00000770 28 0C            [12] 1935 	jr	Z, 00131$
    00000772 3Ar00r00         [13] 1936 	ld	a, (_g_Team2ActivePlayer+0)
    00000775 DD 96 FF         [19] 1937 	sub	a, -1 (ix)
    00000778 20 04            [12] 1938 	jr	NZ, 00131$
    0000077A                       1939 00126$:
                                   1940 ;E:\Dropbox\FAUSTO\SVILUPPI\MSX\CODE\C\MSXgl\projects\exsoccer/exsoccer_s2_b0.c:336: attr.Pattern=(u8)(attr.Pattern+64);
    0000077A 0A               [ 7] 1941 	ld	a, (bc)
    0000077B C6 40            [ 7] 1942 	add	a, #0x40
    0000077D 02               [ 7] 1943 	ld	(bc), a
    0000077E                       1944 00131$:
                                   1945 ;E:\Dropbox\FAUSTO\SVILUPPI\MSX\CODE\C\MSXgl\projects\exsoccer/exsoccer_s2_b0.c:341: if (playerId == g_PassTargetPlayer) {
    0000077E DD 7E FF         [19] 1946 	ld	a, -1 (ix)
    00000781 21r00r00         [10] 1947 	ld	hl, #_g_PassTargetPlayer
    00000784 96               [ 7] 1948 	sub	a, (hl)
    00000785 20 04            [12] 1949 	jr	NZ, 00137$
                                   1950 ;E:\Dropbox\FAUSTO\SVILUPPI\MSX\CODE\C\MSXgl\projects\exsoccer/exsoccer_s2_b0.c:342: attr.Pattern=(u8)(attr.Pattern+64);
    00000787 0A               [ 7] 1951 	ld	a, (bc)
    00000788 C6 40            [ 7] 1952 	add	a, #0x40
    0000078A 02               [ 7] 1953 	ld	(bc), a
    0000078B                       1954 00137$:
                                   1955 ;E:\Dropbox\FAUSTO\SVILUPPI\MSX\CODE\C\MSXgl\projects\exsoccer/exsoccer_s2_b0.c:348: attr.X = g_Players[playerId].X;
    0000078B DD 6E F3         [19] 1956 	ld	l, -13 (ix)
    0000078E DD 66 F4         [19] 1957 	ld	h, -12 (ix)
    00000791 4E               [ 7] 1958 	ld	c, (hl)
    00000792 23               [ 6] 1959 	inc	hl
    00000793 46               [ 7] 1960 	ld	b, (hl)
    00000794 21 02 00         [10] 1961 	ld	hl, #2
    00000797 39               [11] 1962 	add	hl, sp
    00000798 71               [ 7] 1963 	ld	(hl), c
    00000799 23               [ 6] 1964 	inc	hl
    0000079A 78               [ 4] 1965 	ld	a, b
    0000079B E6 03            [ 7] 1966 	and	a, #0x03
    0000079D 5F               [ 4] 1967 	ld	e,a
    0000079E 7E               [ 7] 1968 	ld	a, (hl)
    0000079F E6 FC            [ 7] 1969 	and	a, #0xfc
    000007A1 B3               [ 4] 1970 	or	a, e
    000007A2 77               [ 7] 1971 	ld	(hl), a
                                   1972 ;E:\Dropbox\FAUSTO\SVILUPPI\MSX\CODE\C\MSXgl\projects\exsoccer/exsoccer_s2_b0.c:349: attr.P = 1;
    000007A3 21 03 00         [10] 1973 	ld	hl, #3
    000007A6 39               [11] 1974 	add	hl, sp
    000007A7 CB EE            [15] 1975 	set	5, (hl)
                                   1976 ;E:\Dropbox\FAUSTO\SVILUPPI\MSX\CODE\C\MSXgl\projects\exsoccer/exsoccer_s2_b0.c:350: V9_SetSpriteP1(playerId, &attr);
                                   1977 ;E:/Dropbox/FAUSTO/SVILUPPI/MSX/CODE/C/MSXgl/engine/src/v9990.h:781: inline void V9_SetSpriteP1(u8 id, const V9_Sprite* attr) { V9_WriteVRAM(V9_P1_SPAT + (id * 4), (const u8*)attr, 4); }
    000007A9 DD 6E FF         [19] 1978 	ld	l, -1 (ix)
                                   1979 ;	spillPairReg hl
                                   1980 ;	spillPairReg hl
    000007AC 26 00            [ 7] 1981 	ld	h, #0x00
                                   1982 ;	spillPairReg hl
                                   1983 ;	spillPairReg hl
    000007AE 29               [11] 1984 	add	hl, hl
    000007AF 29               [11] 1985 	add	hl, hl
    000007B0 7C               [ 4] 1986 	ld	a, h
    000007B1 07               [ 4] 1987 	rlca
    000007B2 9F               [ 4] 1988 	sbc	a, a
    000007B3 5F               [ 4] 1989 	ld	e, a
    000007B4 57               [ 4] 1990 	ld	d, a
    000007B5 7C               [ 4] 1991 	ld	a, h
    000007B6 C6 FE            [ 7] 1992 	add	a, #0xfe
    000007B8 67               [ 4] 1993 	ld	h, a
                                   1994 ;	spillPairReg hl
                                   1995 ;	spillPairReg hl
    000007B9 7B               [ 4] 1996 	ld	a, e
    000007BA CE 03            [ 7] 1997 	adc	a, #0x03
    000007BC 5F               [ 4] 1998 	ld	e, a
    000007BD 30 01            [12] 1999 	jr	NC, 00299$
    000007BF 14               [ 4] 2000 	inc	d
    000007C0                       2001 00299$:
                                   2002 ;E:/Dropbox/FAUSTO/SVILUPPI/MSX/CODE/C/MSXgl/engine/src/v9990.h:371: inline void V9_WriteVRAM(u32 addr, const u8* src, u16 count) { V9_SetWriteAddress(addr); V9_WriteVRAM_CurrentAddr(src, count); }
    000007C0 EB               [ 4] 2003 	ex	de, hl
    000007C1 CDr00r00         [17] 2004 	call	_V9_SetWriteAddress
    000007C4 11 04 00         [10] 2005 	ld	de, #0x0004
    000007C7 21 00 00         [10] 2006 	ld	hl, #0
    000007CA 39               [11] 2007 	add	hl, sp
    000007CB CDr00r00         [17] 2008 	call	_V9_WriteVRAM_CurrentAddr
                                   2009 ;E:\Dropbox\FAUSTO\SVILUPPI\MSX\CODE\C\MSXgl\projects\exsoccer/exsoccer_s2_b0.c:350: V9_SetSpriteP1(playerId, &attr);
                                   2010 ;E:\Dropbox\FAUSTO\SVILUPPI\MSX\CODE\C\MSXgl\projects\exsoccer/exsoccer_s2_b0.c:352: }
    000007CE DD F9            [10] 2011 	ld	sp, ix
    000007D0 DD E1            [14] 2012 	pop	ix
    000007D2 C9               [10] 2013 	ret
                                   2014 ;E:\Dropbox\FAUSTO\SVILUPPI\MSX\CODE\C\MSXgl\projects\exsoccer/exsoccer_s2_b0.c:353: void ResetPlayersInfo(){
                                   2015 ;	---------------------------------
                                   2016 ; Function ResetPlayersInfo
                                   2017 ; ---------------------------------
    000007D3                       2018 _ResetPlayersInfo::
    000007D3 DD E5            [15] 2019 	push	ix
    000007D5 DD 21 00 00      [14] 2020 	ld	ix,#0
    000007D9 DD 39            [15] 2021 	add	ix,sp
    000007DB 3B               [ 6] 2022 	dec	sp
                                   2023 ;E:\Dropbox\FAUSTO\SVILUPPI\MSX\CODE\C\MSXgl\projects\exsoccer/exsoccer_s2_b0.c:354: SetPlayerBallPossession(NO_VALUE);
    000007DC 3E FF            [ 7] 2024 	ld	a, #0xff
    000007DE CDr00r00         [17] 2025 	call	_SetPlayerBallPossession
                                   2026 ;E:\Dropbox\FAUSTO\SVILUPPI\MSX\CODE\C\MSXgl\projects\exsoccer/exsoccer_s2_b0.c:355: for(u8 i=0;i<14;i++){
    000007E1 0E 00            [ 7] 2027 	ld	c, #0x00
    000007E3                       2028 00103$:
    000007E3 79               [ 4] 2029 	ld	a, c
    000007E4 D6 0E            [ 7] 2030 	sub	a, #0x0e
    000007E6 30 41            [12] 2031 	jr	NC, 00105$
                                   2032 ;E:\Dropbox\FAUSTO\SVILUPPI\MSX\CODE\C\MSXgl\projects\exsoccer/exsoccer_s2_b0.c:356: g_Players[i].Direction=DIRECTION_NONE;
    000007E8 06 00            [ 7] 2033 	ld	b, #0x00
    000007EA 69               [ 4] 2034 	ld	l, c
    000007EB 60               [ 4] 2035 	ld	h, b
    000007EC 29               [11] 2036 	add	hl, hl
    000007ED 29               [11] 2037 	add	hl, hl
    000007EE 09               [11] 2038 	add	hl, bc
    000007EF 29               [11] 2039 	add	hl, hl
    000007F0 29               [11] 2040 	add	hl, hl
    000007F1 09               [11] 2041 	add	hl, bc
    000007F2 EB               [ 4] 2042 	ex	de, hl
    000007F3 21r00r00         [10] 2043 	ld	hl, #_g_Players
    000007F6 19               [11] 2044 	add	hl, de
    000007F7 EB               [ 4] 2045 	ex	de, hl
    000007F8 21 0A 00         [10] 2046 	ld	hl, #0x000a
    000007FB 19               [11] 2047 	add	hl, de
    000007FC 36 00            [10] 2048 	ld	(hl), #0x00
                                   2049 ;E:\Dropbox\FAUSTO\SVILUPPI\MSX\CODE\C\MSXgl\projects\exsoccer/exsoccer_s2_b0.c:357: g_Players[i].PreviousDirection=g_Players[i].Direction;
    000007FE 7B               [ 4] 2050 	ld	a, e
    000007FF C6 0B            [ 7] 2051 	add	a, #0x0b
    00000801 47               [ 4] 2052 	ld	b, a
    00000802 7A               [ 4] 2053 	ld	a, d
    00000803 CE 00            [ 7] 2054 	adc	a, #0x00
    00000805 F5               [11] 2055 	push	af
    00000806 7E               [ 7] 2056 	ld	a, (hl)
    00000807 DD 77 FF         [19] 2057 	ld	-1 (ix), a
    0000080A F1               [10] 2058 	pop	af
    0000080B 68               [ 4] 2059 	ld	l, b
    0000080C 67               [ 4] 2060 	ld	h, a
    0000080D DD 7E FF         [19] 2061 	ld	a, -1 (ix)
    00000810 77               [ 7] 2062 	ld	(hl), a
                                   2063 ;E:\Dropbox\FAUSTO\SVILUPPI\MSX\CODE\C\MSXgl\projects\exsoccer/exsoccer_s2_b0.c:358: g_Players[i].LastPose=0;
    00000811 21 0C 00         [10] 2064 	ld	hl, #0x000c
    00000814 19               [11] 2065 	add	hl, de
    00000815 36 00            [10] 2066 	ld	(hl), #0x00
                                   2067 ;E:\Dropbox\FAUSTO\SVILUPPI\MSX\CODE\C\MSXgl\projects\exsoccer/exsoccer_s2_b0.c:359: g_Players[i].Status=PLAYER_STATUS_NONE;
    00000817 21 12 00         [10] 2068 	ld	hl, #0x0012
    0000081A 19               [11] 2069 	add	hl, de
    0000081B 36 00            [10] 2070 	ld	(hl), #0x00
    0000081D 23               [ 6] 2071 	inc	hl
    0000081E 36 00            [10] 2072 	ld	(hl), #0x00
    00000820 2B               [ 6] 2073 	dec	hl
                                   2074 ;E:\Dropbox\FAUSTO\SVILUPPI\MSX\CODE\C\MSXgl\projects\exsoccer/exsoccer_s2_b0.c:360: g_Players[i].Status=PLAYER_STATUS_NONE;
    00000821 AF               [ 4] 2075 	xor	a, a
    00000822 77               [ 7] 2076 	ld	(hl), a
    00000823 23               [ 6] 2077 	inc	hl
    00000824 77               [ 7] 2078 	ld	(hl), a
                                   2079 ;E:\Dropbox\FAUSTO\SVILUPPI\MSX\CODE\C\MSXgl\projects\exsoccer/exsoccer_s2_b0.c:355: for(u8 i=0;i<14;i++){
    00000825 0C               [ 4] 2080 	inc	c
    00000826 C3rE3r07         [10] 2081 	jp	00103$
    00000829                       2082 00105$:
                                   2083 ;E:\Dropbox\FAUSTO\SVILUPPI\MSX\CODE\C\MSXgl\projects\exsoccer/exsoccer_s2_b0.c:362: }
    00000829 33               [ 6] 2084 	inc	sp
    0000082A DD E1            [14] 2085 	pop	ix
    0000082C C9               [10] 2086 	ret
                                   2087 ;E:\Dropbox\FAUSTO\SVILUPPI\MSX\CODE\C\MSXgl\projects\exsoccer/exsoccer_s2_b0.c:363: void ClearTextFromLayerA(u8 x, u8 y, u8 length){
                                   2088 ;	---------------------------------
                                   2089 ; Function ClearTextFromLayerA
                                   2090 ; ---------------------------------
    0000082D                       2091 _ClearTextFromLayerA::
    0000082D 4F               [ 4] 2092 	ld	c, a
    0000082E 45               [ 4] 2093 	ld	b, l
                                   2094 ;E:\Dropbox\FAUSTO\SVILUPPI\MSX\CODE\C\MSXgl\projects\exsoccer/exsoccer_s2_b0.c:364: for(u8 i=0;i<length;i++){
    0000082F 1E 00            [ 7] 2095 	ld	e, #0x00
    00000831                       2096 00103$:
    00000831 21 02 00         [10] 2097 	ld	hl, #2
    00000834 39               [11] 2098 	add	hl, sp
    00000835 7B               [ 4] 2099 	ld	a, e
    00000836 96               [ 7] 2100 	sub	a, (hl)
    00000837 30 12            [12] 2101 	jr	NC, 00105$
                                   2102 ;E:\Dropbox\FAUSTO\SVILUPPI\MSX\CODE\C\MSXgl\projects\exsoccer/exsoccer_s2_b0.c:365: V9_PutLayerATileAtPos(x,y,0);
    00000839 C5               [11] 2103 	push	bc
    0000083A D5               [11] 2104 	push	de
    0000083B 21 00 00         [10] 2105 	ld	hl, #0x0000
    0000083E E5               [11] 2106 	push	hl
    0000083F 68               [ 4] 2107 	ld	l, b
                                   2108 ;	spillPairReg hl
                                   2109 ;	spillPairReg hl
    00000840 79               [ 4] 2110 	ld	a, c
    00000841 CDr7Dr04         [17] 2111 	call	_V9_PutLayerATileAtPos
    00000844 D1               [10] 2112 	pop	de
    00000845 C1               [10] 2113 	pop	bc
                                   2114 ;E:\Dropbox\FAUSTO\SVILUPPI\MSX\CODE\C\MSXgl\projects\exsoccer/exsoccer_s2_b0.c:366: x++;
    00000846 0C               [ 4] 2115 	inc	c
                                   2116 ;E:\Dropbox\FAUSTO\SVILUPPI\MSX\CODE\C\MSXgl\projects\exsoccer/exsoccer_s2_b0.c:364: for(u8 i=0;i<length;i++){
    00000847 1C               [ 4] 2117 	inc	e
    00000848 C3r31r08         [10] 2118 	jp	00103$
    0000084B                       2119 00105$:
                                   2120 ;E:\Dropbox\FAUSTO\SVILUPPI\MSX\CODE\C\MSXgl\projects\exsoccer/exsoccer_s2_b0.c:368: }
    0000084B E1               [10] 2121 	pop	hl
    0000084C 33               [ 6] 2122 	inc	sp
    0000084D E9               [ 4] 2123 	jp	(hl)
                                   2124 ;E:\Dropbox\FAUSTO\SVILUPPI\MSX\CODE\C\MSXgl\projects\exsoccer/exsoccer_s2_b0.c:370: char *GetNumberString(u16 value)
                                   2125 ;	---------------------------------
                                   2126 ; Function GetNumberString
                                   2127 ; ---------------------------------
    0000084E                       2128 _GetNumberString::
    0000084E EB               [ 4] 2129 	ex	de, hl
                                   2130 ;E:\Dropbox\FAUSTO\SVILUPPI\MSX\CODE\C\MSXgl\projects\exsoccer/exsoccer_s2_b0.c:374: if (value < 10) {
    0000084F 4B               [ 4] 2131 	ld	c, e
    00000850 42               [ 4] 2132 	ld	b, d
    00000851 79               [ 4] 2133 	ld	a, c
    00000852 D6 0A            [ 7] 2134 	sub	a, #0x0a
    00000854 78               [ 4] 2135 	ld	a, b
    00000855 DE 00            [ 7] 2136 	sbc	a, #0x00
    00000857 30 0D            [12] 2137 	jr	NC, 00102$
                                   2138 ;E:\Dropbox\FAUSTO\SVILUPPI\MSX\CODE\C\MSXgl\projects\exsoccer/exsoccer_s2_b0.c:375: str[0] = '0' + value;
    00000859 01r07r00         [10] 2139 	ld	bc, #_GetNumberString_str_65536_1315+0
    0000085C 7B               [ 4] 2140 	ld	a, e
    0000085D C6 30            [ 7] 2141 	add	a, #0x30
    0000085F 02               [ 7] 2142 	ld	(bc), a
                                   2143 ;E:\Dropbox\FAUSTO\SVILUPPI\MSX\CODE\C\MSXgl\projects\exsoccer/exsoccer_s2_b0.c:376: str[1] = '\0';
    00000860 03               [ 6] 2144 	inc	bc
    00000861 AF               [ 4] 2145 	xor	a, a
    00000862 02               [ 7] 2146 	ld	(bc), a
    00000863 C3r89r08         [10] 2147 	jp	00103$
    00000866                       2148 00102$:
                                   2149 ;E:\Dropbox\FAUSTO\SVILUPPI\MSX\CODE\C\MSXgl\projects\exsoccer/exsoccer_s2_b0.c:378: str[0] = '0' + (value / 10);
    00000866 C5               [11] 2150 	push	bc
    00000867 11 0A 00         [10] 2151 	ld	de, #0x000a
    0000086A 69               [ 4] 2152 	ld	l, c
                                   2153 ;	spillPairReg hl
                                   2154 ;	spillPairReg hl
    0000086B 60               [ 4] 2155 	ld	h, b
                                   2156 ;	spillPairReg hl
                                   2157 ;	spillPairReg hl
    0000086C CDr00r00         [17] 2158 	call	__divuint
    0000086F C1               [10] 2159 	pop	bc
    00000870 7B               [ 4] 2160 	ld	a, e
    00000871 C6 30            [ 7] 2161 	add	a, #0x30
    00000873 32r07r00         [13] 2162 	ld	(#_GetNumberString_str_65536_1315),a
                                   2163 ;E:\Dropbox\FAUSTO\SVILUPPI\MSX\CODE\C\MSXgl\projects\exsoccer/exsoccer_s2_b0.c:379: str[1] = '0' + (value % 10);
    00000876 11 0A 00         [10] 2164 	ld	de, #0x000a
    00000879 69               [ 4] 2165 	ld	l, c
                                   2166 ;	spillPairReg hl
                                   2167 ;	spillPairReg hl
    0000087A 60               [ 4] 2168 	ld	h, b
                                   2169 ;	spillPairReg hl
                                   2170 ;	spillPairReg hl
    0000087B CDr00r00         [17] 2171 	call	__moduint
    0000087E 7B               [ 4] 2172 	ld	a, e
    0000087F C6 30            [ 7] 2173 	add	a, #0x30
    00000881 32r08r00         [13] 2174 	ld	(#(_GetNumberString_str_65536_1315 + 1)),a
                                   2175 ;E:\Dropbox\FAUSTO\SVILUPPI\MSX\CODE\C\MSXgl\projects\exsoccer/exsoccer_s2_b0.c:380: str[2] = '\0';
    00000884 21r09r00         [10] 2176 	ld	hl, #(_GetNumberString_str_65536_1315 + 2)
    00000887 36 00            [10] 2177 	ld	(hl), #0x00
    00000889                       2178 00103$:
                                   2179 ;E:\Dropbox\FAUSTO\SVILUPPI\MSX\CODE\C\MSXgl\projects\exsoccer/exsoccer_s2_b0.c:383: return str;
    00000889 11r07r00         [10] 2180 	ld	de, #_GetNumberString_str_65536_1315
                                   2181 ;E:\Dropbox\FAUSTO\SVILUPPI\MSX\CODE\C\MSXgl\projects\exsoccer/exsoccer_s2_b0.c:384: }
    0000088C C9               [10] 2182 	ret
                                   2183 ;E:\Dropbox\FAUSTO\SVILUPPI\MSX\CODE\C\MSXgl\projects\exsoccer/exsoccer_s2_b0.c:386: bool IsTeamJoystickTriggerPressed(u8 teamId){
                                   2184 ;	---------------------------------
                                   2185 ; Function IsTeamJoystickTriggerPressed
                                   2186 ; ---------------------------------
    0000088D                       2187 _IsTeamJoystickTriggerPressed::
    0000088D 4F               [ 4] 2188 	ld	c, a
                                   2189 ;E:\Dropbox\FAUSTO\SVILUPPI\MSX\CODE\C\MSXgl\projects\exsoccer/exsoccer_s2_b0.c:387: if(teamId==TEAM_1){
    0000088E 0D               [ 4] 2190 	dec	c
    0000088F 20 60            [12] 2191 	jr	NZ, 00118$
                                   2192 ;E:\Dropbox\FAUSTO\SVILUPPI\MSX\CODE\C\MSXgl\projects\exsoccer/exsoccer_s2_b0.c:389: u8 joyStat = Joystick_Read(JOY_PORT_1);
    00000891 2E 0F            [ 7] 2193 	ld	l, #0x0f
                                   2194 ;	spillPairReg hl
                                   2195 ;	spillPairReg hl
    00000893 CDr00r00         [17] 2196 	call	_Joystick_Read
                                   2197 ;E:\Dropbox\FAUSTO\SVILUPPI\MSX\CODE\C\MSXgl\projects\exsoccer/exsoccer_s2_b0.c:390: if (IS_JOY_PRESSED(joyStat, JOY_INPUT_TRIGGER_A))
    00000896 CB 65            [ 8] 2198 	bit	4, l
    00000898 20 03            [12] 2199 	jr	NZ, 00102$
                                   2200 ;E:\Dropbox\FAUSTO\SVILUPPI\MSX\CODE\C\MSXgl\projects\exsoccer/exsoccer_s2_b0.c:392: return true;
    0000089A 3E 01            [ 7] 2201 	ld	a, #0x01
    0000089C C9               [10] 2202 	ret
    0000089D                       2203 00102$:
                                   2204 ;E:\Dropbox\FAUSTO\SVILUPPI\MSX\CODE\C\MSXgl\projects\exsoccer/exsoccer_s2_b0.c:395: if(Keyboard_IsKeyPressed(KEY_SPACE))
    0000089D 3E 08            [ 7] 2205 	ld	a, #0x08
    0000089F CDr00r00         [17] 2206 	call	_Keyboard_IsKeyPressed
    000008A2 B7               [ 4] 2207 	or	a, a
    000008A3 28 03            [12] 2208 	jr	Z, 00104$
                                   2209 ;E:\Dropbox\FAUSTO\SVILUPPI\MSX\CODE\C\MSXgl\projects\exsoccer/exsoccer_s2_b0.c:397: return true;
    000008A5 3E 01            [ 7] 2210 	ld	a, #0x01
    000008A7 C9               [10] 2211 	ret
    000008A8                       2212 00104$:
                                   2213 ;E:\Dropbox\FAUSTO\SVILUPPI\MSX\CODE\C\MSXgl\projects\exsoccer/exsoccer_s2_b0.c:399: if(Keyboard_IsKeyPressed(KEY_R)){
    000008A8 3E 74            [ 7] 2214 	ld	a, #0x74
    000008AA CDr00r00         [17] 2215 	call	_Keyboard_IsKeyPressed
    000008AD B7               [ 4] 2216 	or	a, a
    000008AE 28 05            [12] 2217 	jr	Z, 00106$
                                   2218 ;E:\Dropbox\FAUSTO\SVILUPPI\MSX\CODE\C\MSXgl\projects\exsoccer/exsoccer_s2_b0.c:400: g_FioBreText[0]='R';
    000008B0 21r00r00         [10] 2219 	ld	hl, #_g_FioBreText
    000008B3 36 52            [10] 2220 	ld	(hl), #0x52
    000008B5                       2221 00106$:
                                   2222 ;E:\Dropbox\FAUSTO\SVILUPPI\MSX\CODE\C\MSXgl\projects\exsoccer/exsoccer_s2_b0.c:402: if(Keyboard_IsKeyPressed(KEY_E)){
    000008B5 3E 23            [ 7] 2223 	ld	a, #0x23
    000008B7 CDr00r00         [17] 2224 	call	_Keyboard_IsKeyPressed
    000008BA B7               [ 4] 2225 	or	a, a
    000008BB 28 05            [12] 2226 	jr	Z, 00108$
                                   2227 ;E:\Dropbox\FAUSTO\SVILUPPI\MSX\CODE\C\MSXgl\projects\exsoccer/exsoccer_s2_b0.c:403: g_FioBreText[1]='E';
    000008BD 21r01r00         [10] 2228 	ld	hl, #(_g_FioBreText + 1)
    000008C0 36 45            [10] 2229 	ld	(hl), #0x45
    000008C2                       2230 00108$:
                                   2231 ;E:\Dropbox\FAUSTO\SVILUPPI\MSX\CODE\C\MSXgl\projects\exsoccer/exsoccer_s2_b0.c:405: if(Keyboard_IsKeyPressed(KEY_N)){
    000008C2 3E 34            [ 7] 2232 	ld	a, #0x34
    000008C4 CDr00r00         [17] 2233 	call	_Keyboard_IsKeyPressed
    000008C7 B7               [ 4] 2234 	or	a, a
    000008C8 28 05            [12] 2235 	jr	Z, 00110$
                                   2236 ;E:\Dropbox\FAUSTO\SVILUPPI\MSX\CODE\C\MSXgl\projects\exsoccer/exsoccer_s2_b0.c:406: g_FioBreText[2]='N';
    000008CA 21r02r00         [10] 2237 	ld	hl, #(_g_FioBreText + 2)
    000008CD 36 4E            [10] 2238 	ld	(hl), #0x4e
    000008CF                       2239 00110$:
                                   2240 ;E:\Dropbox\FAUSTO\SVILUPPI\MSX\CODE\C\MSXgl\projects\exsoccer/exsoccer_s2_b0.c:408: if(Keyboard_IsKeyPressed(KEY_Z)){
    000008CF 3E 75            [ 7] 2241 	ld	a, #0x75
    000008D1 CDr00r00         [17] 2242 	call	_Keyboard_IsKeyPressed
    000008D4 B7               [ 4] 2243 	or	a, a
    000008D5 28 05            [12] 2244 	jr	Z, 00112$
                                   2245 ;E:\Dropbox\FAUSTO\SVILUPPI\MSX\CODE\C\MSXgl\projects\exsoccer/exsoccer_s2_b0.c:409: g_FioBreText[3]='Z';
    000008D7 21r03r00         [10] 2246 	ld	hl, #(_g_FioBreText + 3)
    000008DA 36 5A            [10] 2247 	ld	(hl), #0x5a
    000008DC                       2248 00112$:
                                   2249 ;E:\Dropbox\FAUSTO\SVILUPPI\MSX\CODE\C\MSXgl\projects\exsoccer/exsoccer_s2_b0.c:411: if(Keyboard_IsKeyPressed(KEY_O)){
    000008DC 3E 44            [ 7] 2250 	ld	a, #0x44
    000008DE CDr00r00         [17] 2251 	call	_Keyboard_IsKeyPressed
    000008E1 B7               [ 4] 2252 	or	a, a
    000008E2 28 05            [12] 2253 	jr	Z, 00114$
                                   2254 ;E:\Dropbox\FAUSTO\SVILUPPI\MSX\CODE\C\MSXgl\projects\exsoccer/exsoccer_s2_b0.c:412: g_FioBreText[4]='O';
    000008E4 21r04r00         [10] 2255 	ld	hl, #(_g_FioBreText + 4)
    000008E7 36 4F            [10] 2256 	ld	(hl), #0x4f
    000008E9                       2257 00114$:
                                   2258 ;E:\Dropbox\FAUSTO\SVILUPPI\MSX\CODE\C\MSXgl\projects\exsoccer/exsoccer_s2_b0.c:414: g_FioBreText[5]='\0';
    000008E9 21r05r00         [10] 2259 	ld	hl, #(_g_FioBreText + 5)
    000008EC 36 00            [10] 2260 	ld	(hl), #0x00
    000008EE C3rFBr08         [10] 2261 	jp	00119$
    000008F1                       2262 00118$:
                                   2263 ;E:\Dropbox\FAUSTO\SVILUPPI\MSX\CODE\C\MSXgl\projects\exsoccer/exsoccer_s2_b0.c:418: u8 joyStat = Joystick_Read(JOY_PORT_2);
    000008F1 2E 4F            [ 7] 2264 	ld	l, #0x4f
                                   2265 ;	spillPairReg hl
                                   2266 ;	spillPairReg hl
    000008F3 CDr00r00         [17] 2267 	call	_Joystick_Read
                                   2268 ;E:\Dropbox\FAUSTO\SVILUPPI\MSX\CODE\C\MSXgl\projects\exsoccer/exsoccer_s2_b0.c:419: if (IS_JOY_PRESSED(joyStat, JOY_INPUT_TRIGGER_A))
    000008F6 CB 65            [ 8] 2269 	bit	4, l
                                   2270 ;E:\Dropbox\FAUSTO\SVILUPPI\MSX\CODE\C\MSXgl\projects\exsoccer/exsoccer_s2_b0.c:421: return true;
                                   2271 ;E:\Dropbox\FAUSTO\SVILUPPI\MSX\CODE\C\MSXgl\projects\exsoccer/exsoccer_s2_b0.c:424: return FALSE;
    000008F8 3E 01            [ 7] 2272 	ld	a, #0x01
    000008FA C8               [11] 2273 	ret	Z
    000008FB                       2274 00119$:
    000008FB AF               [ 4] 2275 	xor	a, a
                                   2276 ;E:\Dropbox\FAUSTO\SVILUPPI\MSX\CODE\C\MSXgl\projects\exsoccer/exsoccer_s2_b0.c:425: }
    000008FC C9               [10] 2277 	ret
                                   2278 ;E:\Dropbox\FAUSTO\SVILUPPI\MSX\CODE\C\MSXgl\projects\exsoccer/exsoccer_s2_b0.c:426: u8 GetJoystick1Direction(){
                                   2279 ;	---------------------------------
                                   2280 ; Function GetJoystick1Direction
                                   2281 ; ---------------------------------
    000008FD                       2282 _GetJoystick1Direction::
                                   2283 ;E:/Dropbox/FAUSTO/SVILUPPI/MSX/CODE/C/MSXgl/engine/src/input.h:182: u8 in = ~Joystick_Read(port);
    000008FD 2E 0F            [ 7] 2284 	ld	l, #0x0f
                                   2285 ;	spillPairReg hl
                                   2286 ;	spillPairReg hl
    000008FF CDr00r00         [17] 2287 	call	_Joystick_Read
    00000902 7D               [ 4] 2288 	ld	a, l
    00000903 2F               [ 4] 2289 	cpl
                                   2290 ;E:\Dropbox\FAUSTO\SVILUPPI\MSX\CODE\C\MSXgl\projects\exsoccer/exsoccer_s2_b0.c:427: u8 dir = Joystick_GetDirection(JOY_PORT_1);
    00000904 E6 0F            [ 7] 2291 	and	a, #0x0f
    00000906 47               [ 4] 2292 	ld	b, a
    00000907 58               [ 4] 2293 	ld	e, b
                                   2294 ;E:\Dropbox\FAUSTO\SVILUPPI\MSX\CODE\C\MSXgl\projects\exsoccer/exsoccer_s2_b0.c:428: u8 retValue=DIRECTION_NONE;
    00000908 0E 00            [ 7] 2295 	ld	c, #0x00
                                   2296 ;E:\Dropbox\FAUSTO\SVILUPPI\MSX\CODE\C\MSXgl\projects\exsoccer/exsoccer_s2_b0.c:429: switch (dir){
    0000090A 3E 0A            [ 7] 2297 	ld	a, #0x0a
    0000090C 90               [ 4] 2298 	sub	a, b
    0000090D 38 4F            [12] 2299 	jr	C, 00109$
    0000090F 16 00            [ 7] 2300 	ld	d, #0x00
    00000911 21r18r09         [10] 2301 	ld	hl, #00229$
    00000914 19               [11] 2302 	add	hl, de
    00000915 19               [11] 2303 	add	hl, de
    00000916 19               [11] 2304 	add	hl, de
    00000917 E9               [ 4] 2305 	jp	(hl)
    00000918                       2306 00229$:
    00000918 C3r5Er09         [10] 2307 	jp	00109$
    0000091B C3r39r09         [10] 2308 	jp	00101$
    0000091E C3r3Er09         [10] 2309 	jp	00102$
    00000921 C3r5Er09         [10] 2310 	jp	00109$
    00000924 C3r43r09         [10] 2311 	jp	00103$
    00000927 C3r52r09         [10] 2312 	jp	00106$
    0000092A C3r5Cr09         [10] 2313 	jp	00108$
    0000092D C3r5Er09         [10] 2314 	jp	00109$
    00000930 C3r48r09         [10] 2315 	jp	00104$
    00000933 C3r4Dr09         [10] 2316 	jp	00105$
    00000936 C3r57r09         [10] 2317 	jp	00107$
                                   2318 ;E:\Dropbox\FAUSTO\SVILUPPI\MSX\CODE\C\MSXgl\projects\exsoccer/exsoccer_s2_b0.c:430: case JOY_INPUT_DIR_UP:
    00000939                       2319 00101$:
                                   2320 ;E:\Dropbox\FAUSTO\SVILUPPI\MSX\CODE\C\MSXgl\projects\exsoccer/exsoccer_s2_b0.c:431: retValue=DIRECTION_UP;
    00000939 0E 01            [ 7] 2321 	ld	c, #0x01
                                   2322 ;E:\Dropbox\FAUSTO\SVILUPPI\MSX\CODE\C\MSXgl\projects\exsoccer/exsoccer_s2_b0.c:432: break;
    0000093B C3r5Er09         [10] 2323 	jp	00109$
                                   2324 ;E:\Dropbox\FAUSTO\SVILUPPI\MSX\CODE\C\MSXgl\projects\exsoccer/exsoccer_s2_b0.c:433: case JOY_INPUT_DIR_DOWN:
    0000093E                       2325 00102$:
                                   2326 ;E:\Dropbox\FAUSTO\SVILUPPI\MSX\CODE\C\MSXgl\projects\exsoccer/exsoccer_s2_b0.c:434: retValue=DIRECTION_DOWN;
    0000093E 0E 05            [ 7] 2327 	ld	c, #0x05
                                   2328 ;E:\Dropbox\FAUSTO\SVILUPPI\MSX\CODE\C\MSXgl\projects\exsoccer/exsoccer_s2_b0.c:435: break;
    00000940 C3r5Er09         [10] 2329 	jp	00109$
                                   2330 ;E:\Dropbox\FAUSTO\SVILUPPI\MSX\CODE\C\MSXgl\projects\exsoccer/exsoccer_s2_b0.c:436: case JOY_INPUT_DIR_LEFT:
    00000943                       2331 00103$:
                                   2332 ;E:\Dropbox\FAUSTO\SVILUPPI\MSX\CODE\C\MSXgl\projects\exsoccer/exsoccer_s2_b0.c:437: retValue=DIRECTION_LEFT;
    00000943 0E 07            [ 7] 2333 	ld	c, #0x07
                                   2334 ;E:\Dropbox\FAUSTO\SVILUPPI\MSX\CODE\C\MSXgl\projects\exsoccer/exsoccer_s2_b0.c:438: break;
    00000945 C3r5Er09         [10] 2335 	jp	00109$
                                   2336 ;E:\Dropbox\FAUSTO\SVILUPPI\MSX\CODE\C\MSXgl\projects\exsoccer/exsoccer_s2_b0.c:439: case JOY_INPUT_DIR_RIGHT:
    00000948                       2337 00104$:
                                   2338 ;E:\Dropbox\FAUSTO\SVILUPPI\MSX\CODE\C\MSXgl\projects\exsoccer/exsoccer_s2_b0.c:440: retValue=DIRECTION_RIGHT;
    00000948 0E 03            [ 7] 2339 	ld	c, #0x03
                                   2340 ;E:\Dropbox\FAUSTO\SVILUPPI\MSX\CODE\C\MSXgl\projects\exsoccer/exsoccer_s2_b0.c:441: break;
    0000094A C3r5Er09         [10] 2341 	jp	00109$
                                   2342 ;E:\Dropbox\FAUSTO\SVILUPPI\MSX\CODE\C\MSXgl\projects\exsoccer/exsoccer_s2_b0.c:442: case JOY_INPUT_DIR_UP_RIGHT:
    0000094D                       2343 00105$:
                                   2344 ;E:\Dropbox\FAUSTO\SVILUPPI\MSX\CODE\C\MSXgl\projects\exsoccer/exsoccer_s2_b0.c:443: retValue=DIRECTION_UP_RIGHT;
    0000094D 0E 02            [ 7] 2345 	ld	c, #0x02
                                   2346 ;E:\Dropbox\FAUSTO\SVILUPPI\MSX\CODE\C\MSXgl\projects\exsoccer/exsoccer_s2_b0.c:444: break;
    0000094F C3r5Er09         [10] 2347 	jp	00109$
                                   2348 ;E:\Dropbox\FAUSTO\SVILUPPI\MSX\CODE\C\MSXgl\projects\exsoccer/exsoccer_s2_b0.c:445: case JOY_INPUT_DIR_UP_LEFT:
    00000952                       2349 00106$:
                                   2350 ;E:\Dropbox\FAUSTO\SVILUPPI\MSX\CODE\C\MSXgl\projects\exsoccer/exsoccer_s2_b0.c:446: retValue=DIRECTION_UP_LEFT;
    00000952 0E 08            [ 7] 2351 	ld	c, #0x08
                                   2352 ;E:\Dropbox\FAUSTO\SVILUPPI\MSX\CODE\C\MSXgl\projects\exsoccer/exsoccer_s2_b0.c:447: break;
    00000954 C3r5Er09         [10] 2353 	jp	00109$
                                   2354 ;E:\Dropbox\FAUSTO\SVILUPPI\MSX\CODE\C\MSXgl\projects\exsoccer/exsoccer_s2_b0.c:448: case JOY_INPUT_DIR_DOWN_RIGHT:
    00000957                       2355 00107$:
                                   2356 ;E:\Dropbox\FAUSTO\SVILUPPI\MSX\CODE\C\MSXgl\projects\exsoccer/exsoccer_s2_b0.c:449: retValue=DIRECTION_DOWN_RIGHT;
    00000957 0E 04            [ 7] 2357 	ld	c, #0x04
                                   2358 ;E:\Dropbox\FAUSTO\SVILUPPI\MSX\CODE\C\MSXgl\projects\exsoccer/exsoccer_s2_b0.c:450: break;
    00000959 C3r5Er09         [10] 2359 	jp	00109$
                                   2360 ;E:\Dropbox\FAUSTO\SVILUPPI\MSX\CODE\C\MSXgl\projects\exsoccer/exsoccer_s2_b0.c:451: case JOY_INPUT_DIR_DOWN_LEFT:
    0000095C                       2361 00108$:
                                   2362 ;E:\Dropbox\FAUSTO\SVILUPPI\MSX\CODE\C\MSXgl\projects\exsoccer/exsoccer_s2_b0.c:452: retValue=DIRECTION_DOWN_LEFT;
    0000095C 0E 06            [ 7] 2363 	ld	c, #0x06
                                   2364 ;E:\Dropbox\FAUSTO\SVILUPPI\MSX\CODE\C\MSXgl\projects\exsoccer/exsoccer_s2_b0.c:454: }
    0000095E                       2365 00109$:
                                   2366 ;E:\Dropbox\FAUSTO\SVILUPPI\MSX\CODE\C\MSXgl\projects\exsoccer/exsoccer_s2_b0.c:455: if(retValue==DIRECTION_NONE){
    0000095E 79               [ 4] 2367 	ld	a, c
    0000095F B7               [ 4] 2368 	or	a, a
    00000960 C2rFBr09         [10] 2369 	jp	NZ, 00135$
                                   2370 ;E:\Dropbox\FAUSTO\SVILUPPI\MSX\CODE\C\MSXgl\projects\exsoccer/exsoccer_s2_b0.c:456: if(Keyboard_IsKeyPressed(KEY_LEFT) && Keyboard_IsKeyPressed(KEY_UP))
    00000963 C5               [11] 2371 	push	bc
    00000964 3E 48            [ 7] 2372 	ld	a, #0x48
    00000966 CDr00r00         [17] 2373 	call	_Keyboard_IsKeyPressed
    00000969 C1               [10] 2374 	pop	bc
    0000096A B7               [ 4] 2375 	or	a, a
    0000096B 28 0C            [12] 2376 	jr	Z, 00111$
    0000096D C5               [11] 2377 	push	bc
    0000096E 3E 58            [ 7] 2378 	ld	a, #0x58
    00000970 CDr00r00         [17] 2379 	call	_Keyboard_IsKeyPressed
    00000973 C1               [10] 2380 	pop	bc
    00000974 B7               [ 4] 2381 	or	a, a
    00000975 28 02            [12] 2382 	jr	Z, 00111$
                                   2383 ;E:\Dropbox\FAUSTO\SVILUPPI\MSX\CODE\C\MSXgl\projects\exsoccer/exsoccer_s2_b0.c:458: retValue=DIRECTION_UP_LEFT;
    00000977 0E 08            [ 7] 2384 	ld	c, #0x08
    00000979                       2385 00111$:
                                   2386 ;E:\Dropbox\FAUSTO\SVILUPPI\MSX\CODE\C\MSXgl\projects\exsoccer/exsoccer_s2_b0.c:460: if(Keyboard_IsKeyPressed(KEY_LEFT) && Keyboard_IsKeyPressed(KEY_DOWN))
    00000979 C5               [11] 2387 	push	bc
    0000097A 3E 48            [ 7] 2388 	ld	a, #0x48
    0000097C CDr00r00         [17] 2389 	call	_Keyboard_IsKeyPressed
    0000097F C1               [10] 2390 	pop	bc
    00000980 B7               [ 4] 2391 	or	a, a
    00000981 28 0C            [12] 2392 	jr	Z, 00114$
    00000983 C5               [11] 2393 	push	bc
    00000984 3E 68            [ 7] 2394 	ld	a, #0x68
    00000986 CDr00r00         [17] 2395 	call	_Keyboard_IsKeyPressed
    00000989 C1               [10] 2396 	pop	bc
    0000098A B7               [ 4] 2397 	or	a, a
    0000098B 28 02            [12] 2398 	jr	Z, 00114$
                                   2399 ;E:\Dropbox\FAUSTO\SVILUPPI\MSX\CODE\C\MSXgl\projects\exsoccer/exsoccer_s2_b0.c:462: retValue=DIRECTION_DOWN_LEFT;
    0000098D 0E 06            [ 7] 2400 	ld	c, #0x06
    0000098F                       2401 00114$:
                                   2402 ;E:\Dropbox\FAUSTO\SVILUPPI\MSX\CODE\C\MSXgl\projects\exsoccer/exsoccer_s2_b0.c:464: if(Keyboard_IsKeyPressed(KEY_RIGHT) && Keyboard_IsKeyPressed(KEY_DOWN))
    0000098F C5               [11] 2403 	push	bc
    00000990 3E 78            [ 7] 2404 	ld	a, #0x78
    00000992 CDr00r00         [17] 2405 	call	_Keyboard_IsKeyPressed
    00000995 C1               [10] 2406 	pop	bc
    00000996 B7               [ 4] 2407 	or	a, a
    00000997 28 0C            [12] 2408 	jr	Z, 00117$
    00000999 C5               [11] 2409 	push	bc
    0000099A 3E 68            [ 7] 2410 	ld	a, #0x68
    0000099C CDr00r00         [17] 2411 	call	_Keyboard_IsKeyPressed
    0000099F C1               [10] 2412 	pop	bc
    000009A0 B7               [ 4] 2413 	or	a, a
    000009A1 28 02            [12] 2414 	jr	Z, 00117$
                                   2415 ;E:\Dropbox\FAUSTO\SVILUPPI\MSX\CODE\C\MSXgl\projects\exsoccer/exsoccer_s2_b0.c:466: retValue=DIRECTION_DOWN_RIGHT;
    000009A3 0E 04            [ 7] 2416 	ld	c, #0x04
    000009A5                       2417 00117$:
                                   2418 ;E:\Dropbox\FAUSTO\SVILUPPI\MSX\CODE\C\MSXgl\projects\exsoccer/exsoccer_s2_b0.c:468: if(Keyboard_IsKeyPressed(KEY_RIGHT) && Keyboard_IsKeyPressed(KEY_UP))
    000009A5 C5               [11] 2419 	push	bc
    000009A6 3E 78            [ 7] 2420 	ld	a, #0x78
    000009A8 CDr00r00         [17] 2421 	call	_Keyboard_IsKeyPressed
    000009AB C1               [10] 2422 	pop	bc
    000009AC B7               [ 4] 2423 	or	a, a
    000009AD 28 0C            [12] 2424 	jr	Z, 00120$
    000009AF C5               [11] 2425 	push	bc
    000009B0 3E 58            [ 7] 2426 	ld	a, #0x58
    000009B2 CDr00r00         [17] 2427 	call	_Keyboard_IsKeyPressed
    000009B5 C1               [10] 2428 	pop	bc
    000009B6 B7               [ 4] 2429 	or	a, a
    000009B7 28 02            [12] 2430 	jr	Z, 00120$
                                   2431 ;E:\Dropbox\FAUSTO\SVILUPPI\MSX\CODE\C\MSXgl\projects\exsoccer/exsoccer_s2_b0.c:470: retValue=DIRECTION_UP_RIGHT;
    000009B9 0E 02            [ 7] 2432 	ld	c, #0x02
    000009BB                       2433 00120$:
                                   2434 ;E:\Dropbox\FAUSTO\SVILUPPI\MSX\CODE\C\MSXgl\projects\exsoccer/exsoccer_s2_b0.c:472: if(retValue==DIRECTION_NONE && Keyboard_IsKeyPressed(KEY_LEFT))
    000009BB 79               [ 4] 2435 	ld	a, c
    000009BC B7               [ 4] 2436 	or	a, a
    000009BD 20 0C            [12] 2437 	jr	NZ, 00123$
    000009BF C5               [11] 2438 	push	bc
    000009C0 3E 48            [ 7] 2439 	ld	a, #0x48
    000009C2 CDr00r00         [17] 2440 	call	_Keyboard_IsKeyPressed
    000009C5 C1               [10] 2441 	pop	bc
    000009C6 B7               [ 4] 2442 	or	a, a
    000009C7 28 02            [12] 2443 	jr	Z, 00123$
                                   2444 ;E:\Dropbox\FAUSTO\SVILUPPI\MSX\CODE\C\MSXgl\projects\exsoccer/exsoccer_s2_b0.c:474: retValue=DIRECTION_LEFT;
    000009C9 0E 07            [ 7] 2445 	ld	c, #0x07
    000009CB                       2446 00123$:
                                   2447 ;E:\Dropbox\FAUSTO\SVILUPPI\MSX\CODE\C\MSXgl\projects\exsoccer/exsoccer_s2_b0.c:476: if(retValue==DIRECTION_NONE && Keyboard_IsKeyPressed(KEY_RIGHT))
    000009CB 79               [ 4] 2448 	ld	a, c
    000009CC B7               [ 4] 2449 	or	a, a
    000009CD 20 0C            [12] 2450 	jr	NZ, 00126$
    000009CF C5               [11] 2451 	push	bc
    000009D0 3E 78            [ 7] 2452 	ld	a, #0x78
    000009D2 CDr00r00         [17] 2453 	call	_Keyboard_IsKeyPressed
    000009D5 C1               [10] 2454 	pop	bc
    000009D6 B7               [ 4] 2455 	or	a, a
    000009D7 28 02            [12] 2456 	jr	Z, 00126$
                                   2457 ;E:\Dropbox\FAUSTO\SVILUPPI\MSX\CODE\C\MSXgl\projects\exsoccer/exsoccer_s2_b0.c:478: retValue=DIRECTION_RIGHT;
    000009D9 0E 03            [ 7] 2458 	ld	c, #0x03
    000009DB                       2459 00126$:
                                   2460 ;E:\Dropbox\FAUSTO\SVILUPPI\MSX\CODE\C\MSXgl\projects\exsoccer/exsoccer_s2_b0.c:480: if(retValue==DIRECTION_NONE && Keyboard_IsKeyPressed(KEY_UP))
    000009DB 79               [ 4] 2461 	ld	a, c
    000009DC B7               [ 4] 2462 	or	a, a
    000009DD 20 0C            [12] 2463 	jr	NZ, 00129$
    000009DF C5               [11] 2464 	push	bc
    000009E0 3E 58            [ 7] 2465 	ld	a, #0x58
    000009E2 CDr00r00         [17] 2466 	call	_Keyboard_IsKeyPressed
    000009E5 C1               [10] 2467 	pop	bc
    000009E6 B7               [ 4] 2468 	or	a, a
    000009E7 28 02            [12] 2469 	jr	Z, 00129$
                                   2470 ;E:\Dropbox\FAUSTO\SVILUPPI\MSX\CODE\C\MSXgl\projects\exsoccer/exsoccer_s2_b0.c:482: retValue=DIRECTION_UP;
    000009E9 0E 01            [ 7] 2471 	ld	c, #0x01
    000009EB                       2472 00129$:
                                   2473 ;E:\Dropbox\FAUSTO\SVILUPPI\MSX\CODE\C\MSXgl\projects\exsoccer/exsoccer_s2_b0.c:484: if(retValue==DIRECTION_NONE && Keyboard_IsKeyPressed(KEY_DOWN))
    000009EB 79               [ 4] 2474 	ld	a, c
    000009EC B7               [ 4] 2475 	or	a, a
    000009ED 20 0C            [12] 2476 	jr	NZ, 00135$
    000009EF C5               [11] 2477 	push	bc
    000009F0 3E 68            [ 7] 2478 	ld	a, #0x68
    000009F2 CDr00r00         [17] 2479 	call	_Keyboard_IsKeyPressed
    000009F5 C1               [10] 2480 	pop	bc
    000009F6 B7               [ 4] 2481 	or	a, a
    000009F7 28 02            [12] 2482 	jr	Z, 00135$
                                   2483 ;E:\Dropbox\FAUSTO\SVILUPPI\MSX\CODE\C\MSXgl\projects\exsoccer/exsoccer_s2_b0.c:486: retValue=DIRECTION_DOWN;
    000009F9 0E 05            [ 7] 2484 	ld	c, #0x05
    000009FB                       2485 00135$:
                                   2486 ;E:\Dropbox\FAUSTO\SVILUPPI\MSX\CODE\C\MSXgl\projects\exsoccer/exsoccer_s2_b0.c:489: return retValue;
    000009FB 79               [ 4] 2487 	ld	a, c
                                   2488 ;E:\Dropbox\FAUSTO\SVILUPPI\MSX\CODE\C\MSXgl\projects\exsoccer/exsoccer_s2_b0.c:490: }
    000009FC C9               [10] 2489 	ret
                                   2490 ;E:\Dropbox\FAUSTO\SVILUPPI\MSX\CODE\C\MSXgl\projects\exsoccer/exsoccer_s2_b0.c:491: u8 GetJoystick2Direction(){
                                   2491 ;	---------------------------------
                                   2492 ; Function GetJoystick2Direction
                                   2493 ; ---------------------------------
    000009FD                       2494 _GetJoystick2Direction::
                                   2495 ;E:/Dropbox/FAUSTO/SVILUPPI/MSX/CODE/C/MSXgl/engine/src/bios.h:382: inline u8 Bios_GetJoystickDirection(u8 port) { return ((u8(*)(u8))R_GTSTCK)(port); }
    000009FD 3E 02            [ 7] 2496 	ld	a, #0x02
                                   2497 ;E:\Dropbox\FAUSTO\SVILUPPI\MSX\CODE\C\MSXgl\projects\exsoccer/exsoccer_s2_b0.c:492: return Bios_GetJoystickDirection(2);
                                   2498 ;E:\Dropbox\FAUSTO\SVILUPPI\MSX\CODE\C\MSXgl\projects\exsoccer/exsoccer_s2_b0.c:493: }
    000009FF C3 D5 00         [10] 2499 	jp  0x00d5
                                   2500 ;E:\Dropbox\FAUSTO\SVILUPPI\MSX\CODE\C\MSXgl\projects\exsoccer/exsoccer_s2_b0.c:494: void ShowFieldZone(u8 zone){
                                   2501 ;	---------------------------------
                                   2502 ; Function ShowFieldZone
                                   2503 ; ---------------------------------
    00000A02                       2504 _ShowFieldZone::
    00000A02 32r00r00         [13] 2505 	ld	(_g_FieldScrollingActionInProgress+0), a
                                   2506 ;E:\Dropbox\FAUSTO\SVILUPPI\MSX\CODE\C\MSXgl\projects\exsoccer/exsoccer_s2_b0.c:495: g_FieldScrollingActionInProgress=zone;
                                   2507 ;E:\Dropbox\FAUSTO\SVILUPPI\MSX\CODE\C\MSXgl\projects\exsoccer/exsoccer_s2_b0.c:496: }
    00000A05 C9               [10] 2508 	ret
                                   2509 ;E:\Dropbox\FAUSTO\SVILUPPI\MSX\CODE\C\MSXgl\projects\exsoccer/exsoccer_s2_b0.c:497: void TickCheckBallBoundaries(){
                                   2510 ;	---------------------------------
                                   2511 ; Function TickCheckBallBoundaries
                                   2512 ; ---------------------------------
    00000A06                       2513 _TickCheckBallBoundaries::
    00000A06 DD E5            [15] 2514 	push	ix
    00000A08 DD 21 00 00      [14] 2515 	ld	ix,#0
    00000A0C DD 39            [15] 2516 	add	ix,sp
    00000A0E 21 FA FF         [10] 2517 	ld	hl, #-6
    00000A11 39               [11] 2518 	add	hl, sp
    00000A12 F9               [ 6] 2519 	ld	sp, hl
                                   2520 ;E:\Dropbox\FAUSTO\SVILUPPI\MSX\CODE\C\MSXgl\projects\exsoccer/exsoccer_s2_b0.c:498: if(g_MatchStatus!=MATCH_IN_ACTION){
                                   2521 ;E:\Dropbox\FAUSTO\SVILUPPI\MSX\CODE\C\MSXgl\projects\exsoccer/exsoccer_s2_b0.c:499: return;
                                   2522 ;E:\Dropbox\FAUSTO\SVILUPPI\MSX\CODE\C\MSXgl\projects\exsoccer/exsoccer_s2_b0.c:503: if(g_MatchStatus == MATCH_BALL_ON_GOALKEEPER || g_Ball.PossessionPlayerId != NO_VALUE) {
    00000A13 3Ar00r00         [13] 2523 	ld	a,(_g_MatchStatus+0)
    00000A16 FE 0C            [ 7] 2524 	cp	a,#0x0c
    00000A18 C2rAEr0B         [10] 2525 	jp	NZ,00160$
    00000A1B D6 0D            [ 7] 2526 	sub	a, #0x0d
    00000A1D 28 06            [12] 2527 	jr	Z, 00107$
    00000A1F 3Ar06r00         [13] 2528 	ld	a, (#(_g_Ball + 6) + 0)
    00000A22 3C               [ 4] 2529 	inc	a
    00000A23 28 1F            [12] 2530 	jr	Z, 00108$
    00000A25                       2531 00107$:
                                   2532 ;E:\Dropbox\FAUSTO\SVILUPPI\MSX\CODE\C\MSXgl\projects\exsoccer/exsoccer_s2_b0.c:504: if(g_Ball.PossessionPlayerId != NO_VALUE) {
    00000A25 21r06r00         [10] 2533 	ld	hl, #_g_Ball+6
    00000A28 5E               [ 7] 2534 	ld	e, (hl)
    00000A29 7B               [ 4] 2535 	ld	a, e
    00000A2A 3C               [ 4] 2536 	inc	a
    00000A2B 28 17            [12] 2537 	jr	Z, 00108$
                                   2538 ;E:\Dropbox\FAUSTO\SVILUPPI\MSX\CODE\C\MSXgl\projects\exsoccer/exsoccer_s2_b0.c:505: if(g_Players[g_Ball.PossessionPlayerId].Role == PLAYER_ROLE_GOALKEEPER) return;
    00000A2D 01r00r00         [10] 2539 	ld	bc, #_g_Players+0
    00000A30 16 00            [ 7] 2540 	ld	d, #0x00
    00000A32 6B               [ 4] 2541 	ld	l, e
    00000A33 62               [ 4] 2542 	ld	h, d
    00000A34 29               [11] 2543 	add	hl, hl
    00000A35 29               [11] 2544 	add	hl, hl
    00000A36 19               [11] 2545 	add	hl, de
    00000A37 29               [11] 2546 	add	hl, hl
    00000A38 29               [11] 2547 	add	hl, hl
    00000A39 19               [11] 2548 	add	hl, de
    00000A3A 09               [11] 2549 	add	hl, bc
    00000A3B 11 0D 00         [10] 2550 	ld	de, #0x000d
    00000A3E 19               [11] 2551 	add	hl, de
    00000A3F 7E               [ 7] 2552 	ld	a, (hl)
    00000A40 B7               [ 4] 2553 	or	a, a
    00000A41 CArAEr0B         [10] 2554 	jp	Z,00160$
    00000A44                       2555 00108$:
                                   2556 ;E:\Dropbox\FAUSTO\SVILUPPI\MSX\CODE\C\MSXgl\projects\exsoccer/exsoccer_s2_b0.c:510: if (g_Ball.ShotActive != 0 || g_Ball.PassTargetPlayerId != NO_VALUE) {
    00000A44 3Ar1Br00         [13] 2557 	ld	a, (#_g_Ball + 27)
    00000A47 DD 77 FF         [19] 2558 	ld	-1 (ix), a
                                   2559 ;E:\Dropbox\FAUSTO\SVILUPPI\MSX\CODE\C\MSXgl\projects\exsoccer/exsoccer_s2_b0.c:518: if (g_Ball.Y < FIELD_BOUND_Y_TOP) {
    00000A4A ED 4Br00r00      [20] 2560 	ld	bc, (#_g_Ball + 0)
                                   2561 ;E:\Dropbox\FAUSTO\SVILUPPI\MSX\CODE\C\MSXgl\projects\exsoccer/exsoccer_s2_b0.c:510: if (g_Ball.ShotActive != 0 || g_Ball.PassTargetPlayerId != NO_VALUE) {
    00000A4E 3Ar10r00         [13] 2562 	ld	a, (#_g_Ball + 16)
    00000A51 DD 77 FD         [19] 2563 	ld	-3 (ix), a
                                   2564 ;E:\Dropbox\FAUSTO\SVILUPPI\MSX\CODE\C\MSXgl\projects\exsoccer/exsoccer_s2_b0.c:518: if (g_Ball.Y < FIELD_BOUND_Y_TOP) {
    00000A54 59               [ 4] 2565 	ld	e, c
    00000A55 50               [ 4] 2566 	ld	d, b
                                   2567 ;E:\Dropbox\FAUSTO\SVILUPPI\MSX\CODE\C\MSXgl\projects\exsoccer/exsoccer_s2_b0.c:510: if (g_Ball.ShotActive != 0 || g_Ball.PassTargetPlayerId != NO_VALUE) {
    00000A56 DD 7E FD         [19] 2568 	ld	a, -3 (ix)
    00000A59 3C               [ 4] 2569 	inc	a
    00000A5A 3E 01            [ 7] 2570 	ld	a, #0x01
    00000A5C 28 01            [12] 2571 	jr	Z, 00314$
    00000A5E AF               [ 4] 2572 	xor	a, a
    00000A5F                       2573 00314$:
    00000A5F DD 77 FE         [19] 2574 	ld	-2 (ix), a
                                   2575 ;E:\Dropbox\FAUSTO\SVILUPPI\MSX\CODE\C\MSXgl\projects\exsoccer/exsoccer_s2_b0.c:518: if (g_Ball.Y < FIELD_BOUND_Y_TOP) {
    00000A62 7B               [ 4] 2576 	ld	a, e
    00000A63 D6 32            [ 7] 2577 	sub	a, #0x32
    00000A65 7A               [ 4] 2578 	ld	a, d
    00000A66 DE 00            [ 7] 2579 	sbc	a, #0x00
    00000A68 3E 00            [ 7] 2580 	ld	a, #0x00
    00000A6A 17               [ 4] 2581 	rla
    00000A6B DD 77 FA         [19] 2582 	ld	-6 (ix), a
                                   2583 ;E:\Dropbox\FAUSTO\SVILUPPI\MSX\CODE\C\MSXgl\projects\exsoccer/exsoccer_s2_b0.c:510: if (g_Ball.ShotActive != 0 || g_Ball.PassTargetPlayerId != NO_VALUE) {
    00000A6E DD 7E FF         [19] 2584 	ld	a, -1 (ix)
    00000A71 B7               [ 4] 2585 	or	a, a
    00000A72 20 06            [12] 2586 	jr	NZ, 00120$
    00000A74 DD CB FE 46      [20] 2587 	bit	0, -2 (ix)
    00000A78 20 3B            [12] 2588 	jr	NZ, 00121$
    00000A7A                       2589 00120$:
                                   2590 ;E:\Dropbox\FAUSTO\SVILUPPI\MSX\CODE\C\MSXgl\projects\exsoccer/exsoccer_s2_b0.c:512: u16 destY = g_Ball.TargetY;
    00000A7A 2Ar19r00         [16] 2591 	ld	hl, (#_g_Ball + 25)
                                   2592 ;E:\Dropbox\FAUSTO\SVILUPPI\MSX\CODE\C\MSXgl\projects\exsoccer/exsoccer_s2_b0.c:513: if (g_Ball.PassTargetPlayerId != NO_VALUE) {
    00000A7D DD CB FE 46      [20] 2593 	bit	0, -2 (ix)
    00000A81 20 17            [12] 2594 	jr	NZ, 00111$
                                   2595 ;E:\Dropbox\FAUSTO\SVILUPPI\MSX\CODE\C\MSXgl\projects\exsoccer/exsoccer_s2_b0.c:514: destY = g_Players[g_Ball.PassTargetPlayerId].Y;
    00000A83 D5               [11] 2596 	push	de
    00000A84 DD 5E FD         [19] 2597 	ld	e, -3 (ix)
    00000A87 16 00            [ 7] 2598 	ld	d, #0x00
    00000A89 6B               [ 4] 2599 	ld	l, e
    00000A8A 62               [ 4] 2600 	ld	h, d
    00000A8B 29               [11] 2601 	add	hl, hl
    00000A8C 29               [11] 2602 	add	hl, hl
    00000A8D 19               [11] 2603 	add	hl, de
    00000A8E 29               [11] 2604 	add	hl, hl
    00000A8F 29               [11] 2605 	add	hl, hl
    00000A90 19               [11] 2606 	add	hl, de
    00000A91 11r00r00         [10] 2607 	ld	de, #_g_Players
    00000A94 19               [11] 2608 	add	hl, de
    00000A95 D1               [10] 2609 	pop	de
    00000A96 7E               [ 7] 2610 	ld	a, (hl)
    00000A97 23               [ 6] 2611 	inc	hl
    00000A98 66               [ 7] 2612 	ld	h, (hl)
                                   2613 ;	spillPairReg hl
    00000A99 6F               [ 4] 2614 	ld	l, a
                                   2615 ;	spillPairReg hl
                                   2616 ;	spillPairReg hl
    00000A9A                       2617 00111$:
                                   2618 ;E:\Dropbox\FAUSTO\SVILUPPI\MSX\CODE\C\MSXgl\projects\exsoccer/exsoccer_s2_b0.c:518: if (g_Ball.Y < FIELD_BOUND_Y_TOP) {
    00000A9A DD 7E FA         [19] 2619 	ld	a, -6 (ix)
    00000A9D B7               [ 4] 2620 	or	a, a
    00000A9E 28 07            [12] 2621 	jr	Z, 00115$
                                   2622 ;E:\Dropbox\FAUSTO\SVILUPPI\MSX\CODE\C\MSXgl\projects\exsoccer/exsoccer_s2_b0.c:520: if(destY > g_Ball.Y) return;
    00000AA0 79               [ 4] 2623 	ld	a, c
    00000AA1 95               [ 4] 2624 	sub	a, l
    00000AA2 78               [ 4] 2625 	ld	a, b
    00000AA3 9C               [ 4] 2626 	sbc	a, h
    00000AA4 DArAEr0B         [10] 2627 	jp	C,00160$
    00000AA7                       2628 00115$:
                                   2629 ;E:\Dropbox\FAUSTO\SVILUPPI\MSX\CODE\C\MSXgl\projects\exsoccer/exsoccer_s2_b0.c:524: if (g_Ball.Y > FIELD_BOUND_Y_BOTTOM) {
    00000AA7 3E AE            [ 7] 2630 	ld	a, #0xae
    00000AA9 BB               [ 4] 2631 	cp	a, e
    00000AAA 3E 01            [ 7] 2632 	ld	a, #0x01
    00000AAC 9A               [ 4] 2633 	sbc	a, d
    00000AAD 30 06            [12] 2634 	jr	NC, 00121$
                                   2635 ;E:\Dropbox\FAUSTO\SVILUPPI\MSX\CODE\C\MSXgl\projects\exsoccer/exsoccer_s2_b0.c:526: if(destY < g_Ball.Y) return;
    00000AAF AF               [ 4] 2636 	xor	a, a
    00000AB0 ED 42            [15] 2637 	sbc	hl, bc
    00000AB2 DArAEr0B         [10] 2638 	jp	C,00160$
    00000AB5                       2639 00121$:
                                   2640 ;E:\Dropbox\FAUSTO\SVILUPPI\MSX\CODE\C\MSXgl\projects\exsoccer/exsoccer_s2_b0.c:542: if (g_Ball.Y < FIELD_BOUND_Y_TOP) {
    00000AB5 DD 7E FA         [19] 2641 	ld	a, -6 (ix)
    00000AB8 B7               [ 4] 2642 	or	a, a
    00000AB9 28 18            [12] 2643 	jr	Z, 00129$
                                   2644 ;E:\Dropbox\FAUSTO\SVILUPPI\MSX\CODE\C\MSXgl\projects\exsoccer/exsoccer_s2_b0.c:544: if (g_Ball.ShotActive && (g_Ball.Direction == DIRECTION_DOWN || g_Ball.Direction == DIRECTION_DOWN_LEFT || g_Ball.Direction == DIRECTION_DOWN_RIGHT)) {
    00000ABB DD 7E FF         [19] 2645 	ld	a, -1 (ix)
    00000ABE B7               [ 4] 2646 	or	a, a
    00000ABF 28 12            [12] 2647 	jr	Z, 00129$
    00000AC1 3Ar05r00         [13] 2648 	ld	a, (#_g_Ball + 5)
    00000AC4 FE 05            [ 7] 2649 	cp	a, #0x05
    00000AC6 CArAEr0B         [10] 2650 	jp	Z,00160$
    00000AC9 FE 06            [ 7] 2651 	cp	a, #0x06
    00000ACB CArAEr0B         [10] 2652 	jp	Z,00160$
    00000ACE D6 04            [ 7] 2653 	sub	a, #0x04
                                   2654 ;E:\Dropbox\FAUSTO\SVILUPPI\MSX\CODE\C\MSXgl\projects\exsoccer/exsoccer_s2_b0.c:545: return; 
    00000AD0 CArAEr0B         [10] 2655 	jp	Z,00160$
    00000AD3                       2656 00129$:
                                   2657 ;E:\Dropbox\FAUSTO\SVILUPPI\MSX\CODE\C\MSXgl\projects\exsoccer/exsoccer_s2_b0.c:550: if (g_Ball.Y > FIELD_BOUND_Y_BOTTOM) {
    00000AD3 3E AE            [ 7] 2658 	ld	a, #0xae
    00000AD5 BB               [ 4] 2659 	cp	a, e
    00000AD6 3E 01            [ 7] 2660 	ld	a, #0x01
    00000AD8 9A               [ 4] 2661 	sbc	a, d
    00000AD9 3E 00            [ 7] 2662 	ld	a, #0x00
    00000ADB 17               [ 4] 2663 	rla
    00000ADC DD 77 FB         [19] 2664 	ld	-5 (ix), a
    00000ADF B7               [ 4] 2665 	or	a, a
    00000AE0 28 18            [12] 2666 	jr	Z, 00136$
                                   2667 ;E:\Dropbox\FAUSTO\SVILUPPI\MSX\CODE\C\MSXgl\projects\exsoccer/exsoccer_s2_b0.c:552: if (g_Ball.ShotActive && (g_Ball.Direction == DIRECTION_UP || g_Ball.Direction == DIRECTION_UP_LEFT || g_Ball.Direction == DIRECTION_UP_RIGHT)) {
    00000AE2 DD 7E FF         [19] 2668 	ld	a, -1 (ix)
    00000AE5 B7               [ 4] 2669 	or	a, a
    00000AE6 28 12            [12] 2670 	jr	Z, 00136$
    00000AE8 3Ar05r00         [13] 2671 	ld	a, (#_g_Ball + 5)
    00000AEB FE 01            [ 7] 2672 	cp	a, #0x01
    00000AED CArAEr0B         [10] 2673 	jp	Z,00160$
    00000AF0 FE 08            [ 7] 2674 	cp	a, #0x08
    00000AF2 CArAEr0B         [10] 2675 	jp	Z,00160$
    00000AF5 D6 02            [ 7] 2676 	sub	a, #0x02
                                   2677 ;E:\Dropbox\FAUSTO\SVILUPPI\MSX\CODE\C\MSXgl\projects\exsoccer/exsoccer_s2_b0.c:553: return;
    00000AF7 CArAEr0B         [10] 2678 	jp	Z,00160$
    00000AFA                       2679 00136$:
                                   2680 ;E:\Dropbox\FAUSTO\SVILUPPI\MSX\CODE\C\MSXgl\projects\exsoccer/exsoccer_s2_b0.c:557: u8 teamId = g_Ball.LastTouchTeamId;
    00000AFA 3Ar0Er00         [13] 2681 	ld	a, (#_g_Ball + 14)
                                   2682 ;E:\Dropbox\FAUSTO\SVILUPPI\MSX\CODE\C\MSXgl\projects\exsoccer/exsoccer_s2_b0.c:558: if(teamId==NO_VALUE){
    00000AFD DD 77 FC         [19] 2683 	ld	-4 (ix), a
    00000B00 3C               [ 4] 2684 	inc	a
    00000B01 20 04            [12] 2685 	jr	NZ, 00138$
                                   2686 ;E:\Dropbox\FAUSTO\SVILUPPI\MSX\CODE\C\MSXgl\projects\exsoccer/exsoccer_s2_b0.c:559: teamId=TEAM_1; // Default
    00000B03 DD 36 FC 01      [19] 2687 	ld	-4 (ix), #0x01
    00000B07                       2688 00138$:
                                   2689 ;E:\Dropbox\FAUSTO\SVILUPPI\MSX\CODE\C\MSXgl\projects\exsoccer/exsoccer_s2_b0.c:561: u8 opponentTeamId = (teamId == TEAM_1) ? TEAM_2 : TEAM_1;
    00000B07 DD 7E FC         [19] 2690 	ld	a, -4 (ix)
    00000B0A 3D               [ 4] 2691 	dec	a
    00000B0B 3E 01            [ 7] 2692 	ld	a, #0x01
    00000B0D 28 01            [12] 2693 	jr	Z, 00326$
    00000B0F AF               [ 4] 2694 	xor	a, a
    00000B10                       2695 00326$:
    00000B10 DD 77 FD         [19] 2696 	ld	-3 (ix), a
    00000B13 B7               [ 4] 2697 	or	a, a
    00000B14 28 0B            [12] 2698 	jr	Z, 00162$
    00000B16 DD 36 FE 02      [19] 2699 	ld	-2 (ix), #0x02
    00000B1A DD 36 FF 00      [19] 2700 	ld	-1 (ix), #0
    00000B1E C3r29r0B         [10] 2701 	jp	00163$
    00000B21                       2702 00162$:
    00000B21 DD 36 FE 01      [19] 2703 	ld	-2 (ix), #0x01
    00000B25 DD 36 FF 00      [19] 2704 	ld	-1 (ix), #0
    00000B29                       2705 00163$:
    00000B29 DD 4E FE         [19] 2706 	ld	c, -2 (ix)
                                   2707 ;E:\Dropbox\FAUSTO\SVILUPPI\MSX\CODE\C\MSXgl\projects\exsoccer/exsoccer_s2_b0.c:569: if(g_Ball.X < FIELD_BOUND_X_LEFT || g_Ball.X > FIELD_BOUND_X_RIGHT){
    00000B2C 2Ar02r00         [16] 2708 	ld	hl, (#_g_Ball + 2)
    00000B2F 5D               [ 4] 2709 	ld	e, l
    00000B30 54               [ 4] 2710 	ld	d, h
    00000B31 7B               [ 4] 2711 	ld	a, e
    00000B32 D6 0A            [ 7] 2712 	sub	a, #0x0a
    00000B34 7A               [ 4] 2713 	ld	a, d
    00000B35 DE 00            [ 7] 2714 	sbc	a, #0x00
    00000B37 38 08            [12] 2715 	jr	C, 00139$
    00000B39 3E EC            [ 7] 2716 	ld	a, #0xec
    00000B3B BB               [ 4] 2717 	cp	a, e
    00000B3C 3E 00            [ 7] 2718 	ld	a, #0x00
    00000B3E 9A               [ 4] 2719 	sbc	a, d
    00000B3F 30 07            [12] 2720 	jr	NC, 00140$
    00000B41                       2721 00139$:
                                   2722 ;E:\Dropbox\FAUSTO\SVILUPPI\MSX\CODE\C\MSXgl\projects\exsoccer/exsoccer_s2_b0.c:570: BallThrowIn(opponentTeamId); //GP_USER
    00000B41 79               [ 4] 2723 	ld	a, c
    00000B42 CDr00r00         [17] 2724 	call	_BallThrowIn
                                   2725 ;E:\Dropbox\FAUSTO\SVILUPPI\MSX\CODE\C\MSXgl\projects\exsoccer/exsoccer_s2_b0.c:572: return;
    00000B45 C3rAEr0B         [10] 2726 	jp	00160$
    00000B48                       2727 00140$:
                                   2728 ;E:\Dropbox\FAUSTO\SVILUPPI\MSX\CODE\C\MSXgl\projects\exsoccer/exsoccer_s2_b0.c:576: if(g_Ball.Y < FIELD_BOUND_Y_TOP){
    00000B48 DD 7E FA         [19] 2729 	ld	a, -6 (ix)
    00000B4B B7               [ 4] 2730 	or	a, a
    00000B4C 28 2E            [12] 2731 	jr	Z, 00150$
                                   2732 ;E:\Dropbox\FAUSTO\SVILUPPI\MSX\CODE\C\MSXgl\projects\exsoccer/exsoccer_s2_b0.c:579: if(g_Ball.X > (GOAL_X_MIN - 8) && g_Ball.X < (GOAL_X_MAX + 8)){
    00000B4E 3E 58            [ 7] 2733 	ld	a, #0x58
    00000B50 BD               [ 4] 2734 	cp	a, l
    00000B51 3E 00            [ 7] 2735 	ld	a, #0x00
    00000B53 9C               [ 4] 2736 	sbc	a, h
    00000B54 30 10            [12] 2737 	jr	NC, 00146$
    00000B56 11 98 00         [10] 2738 	ld	de, #0x0098
    00000B59 BF               [ 4] 2739 	cp	a, a
    00000B5A ED 52            [15] 2740 	sbc	hl, de
    00000B5C 30 08            [12] 2741 	jr	NC, 00146$
                                   2742 ;E:\Dropbox\FAUSTO\SVILUPPI\MSX\CODE\C\MSXgl\projects\exsoccer/exsoccer_s2_b0.c:580: BallInGoal(TEAM_1); // Team 1 attacked up and scored
    00000B5E 3E 01            [ 7] 2743 	ld	a, #0x01
    00000B60 CDr00r00         [17] 2744 	call	_BallInGoal
    00000B63 C3rAEr0B         [10] 2745 	jp	00160$
    00000B66                       2746 00146$:
                                   2747 ;E:\Dropbox\FAUSTO\SVILUPPI\MSX\CODE\C\MSXgl\projects\exsoccer/exsoccer_s2_b0.c:583: if(teamId == TEAM_1){ // Attacker touched last
    00000B66 DD 7E FD         [19] 2748 	ld	a, -3 (ix)
    00000B69 B7               [ 4] 2749 	or	a, a
    00000B6A 28 08            [12] 2750 	jr	Z, 00143$
                                   2751 ;E:\Dropbox\FAUSTO\SVILUPPI\MSX\CODE\C\MSXgl\projects\exsoccer/exsoccer_s2_b0.c:584: GoalKick(TEAM_2);
    00000B6C 3E 02            [ 7] 2752 	ld	a, #0x02
    00000B6E CDr00r00         [17] 2753 	call	_GoalKick
    00000B71 C3rAEr0B         [10] 2754 	jp	00160$
    00000B74                       2755 00143$:
                                   2756 ;E:\Dropbox\FAUSTO\SVILUPPI\MSX\CODE\C\MSXgl\projects\exsoccer/exsoccer_s2_b0.c:587: CornerKick(TEAM_1);
    00000B74 3E 01            [ 7] 2757 	ld	a, #0x01
    00000B76 CDr00r00         [17] 2758 	call	_CornerKick
                                   2759 ;E:\Dropbox\FAUSTO\SVILUPPI\MSX\CODE\C\MSXgl\projects\exsoccer/exsoccer_s2_b0.c:590: return;
    00000B79 C3rAEr0B         [10] 2760 	jp	00160$
    00000B7C                       2761 00150$:
                                   2762 ;E:\Dropbox\FAUSTO\SVILUPPI\MSX\CODE\C\MSXgl\projects\exsoccer/exsoccer_s2_b0.c:594: if(g_Ball.Y > FIELD_BOUND_Y_BOTTOM){
    00000B7C DD 7E FB         [19] 2763 	ld	a, -5 (ix)
    00000B7F B7               [ 4] 2764 	or	a, a
    00000B80 28 2C            [12] 2765 	jr	Z, 00160$
                                   2766 ;E:\Dropbox\FAUSTO\SVILUPPI\MSX\CODE\C\MSXgl\projects\exsoccer/exsoccer_s2_b0.c:596: if(g_Ball.X > (GOAL_X_MIN - 8) && g_Ball.X < (GOAL_X_MAX + 8)){
    00000B82 3E 58            [ 7] 2767 	ld	a, #0x58
    00000B84 BD               [ 4] 2768 	cp	a, l
    00000B85 3E 00            [ 7] 2769 	ld	a, #0x00
    00000B87 9C               [ 4] 2770 	sbc	a, h
    00000B88 30 10            [12] 2771 	jr	NC, 00155$
    00000B8A 11 98 00         [10] 2772 	ld	de, #0x0098
    00000B8D BF               [ 4] 2773 	cp	a, a
    00000B8E ED 52            [15] 2774 	sbc	hl, de
    00000B90 30 08            [12] 2775 	jr	NC, 00155$
                                   2776 ;E:\Dropbox\FAUSTO\SVILUPPI\MSX\CODE\C\MSXgl\projects\exsoccer/exsoccer_s2_b0.c:597: BallInGoal(TEAM_2); // Team 2 attacked down and scored
    00000B92 3E 02            [ 7] 2777 	ld	a, #0x02
    00000B94 CDr00r00         [17] 2778 	call	_BallInGoal
    00000B97 C3rAEr0B         [10] 2779 	jp	00156$
    00000B9A                       2780 00155$:
                                   2781 ;E:\Dropbox\FAUSTO\SVILUPPI\MSX\CODE\C\MSXgl\projects\exsoccer/exsoccer_s2_b0.c:600: if(teamId == TEAM_2){ // Attacker touched last (Team 2 attacking down)
    00000B9A DD 7E FC         [19] 2782 	ld	a, -4 (ix)
    00000B9D D6 02            [ 7] 2783 	sub	a, #0x02
    00000B9F 20 08            [12] 2784 	jr	NZ, 00152$
                                   2785 ;E:\Dropbox\FAUSTO\SVILUPPI\MSX\CODE\C\MSXgl\projects\exsoccer/exsoccer_s2_b0.c:601: GoalKick(TEAM_1);
    00000BA1 3E 01            [ 7] 2786 	ld	a, #0x01
    00000BA3 CDr00r00         [17] 2787 	call	_GoalKick
    00000BA6 C3rAEr0B         [10] 2788 	jp	00156$
    00000BA9                       2789 00152$:
                                   2790 ;E:\Dropbox\FAUSTO\SVILUPPI\MSX\CODE\C\MSXgl\projects\exsoccer/exsoccer_s2_b0.c:604: CornerKick(TEAM_2);
    00000BA9 3E 02            [ 7] 2791 	ld	a, #0x02
    00000BAB CDr00r00         [17] 2792 	call	_CornerKick
    00000BAE                       2793 00156$:
                                   2794 ;E:\Dropbox\FAUSTO\SVILUPPI\MSX\CODE\C\MSXgl\projects\exsoccer/exsoccer_s2_b0.c:607: return;
    00000BAE                       2795 00160$:
                                   2796 ;E:\Dropbox\FAUSTO\SVILUPPI\MSX\CODE\C\MSXgl\projects\exsoccer/exsoccer_s2_b0.c:609: }
    00000BAE DD F9            [10] 2797 	ld	sp, ix
    00000BB0 DD E1            [14] 2798 	pop	ix
    00000BB2 C9               [10] 2799 	ret
                                   2800 ;E:\Dropbox\FAUSTO\SVILUPPI\MSX\CODE\C\MSXgl\projects\exsoccer/exsoccer_s2_b0.c:610: void TimeUp(){
                                   2801 ;	---------------------------------
                                   2802 ; Function TimeUp
                                   2803 ; ---------------------------------
    00000BB3                       2804 _TimeUp::
                                   2805 ;E:/Dropbox/FAUSTO/SVILUPPI/MSX/CODE/C/MSXgl/engine/src/v9990.h:480: inline void V9_SetBackgroundColor(u8 color) { V9_SetRegister(15, color); }
    00000BB3 2E 01            [ 7] 2806 	ld	l, #0x01
                                   2807 ;	spillPairReg hl
                                   2808 ;	spillPairReg hl
    00000BB5 3E 0F            [ 7] 2809 	ld	a, #0x0f
    00000BB7 CDr00r00         [17] 2810 	call	_V9_SetRegister
                                   2811 ;E:/Dropbox/FAUSTO/SVILUPPI/MSX/CODE/C/MSXgl/engine/src/rom_mapper.h:112: g_Bank0Segment[b] = s;
    00000BBA 21 16 00         [10] 2812 	ld	hl, #0x0016
    00000BBD 22r04r00         [16] 2813 	ld	((_g_Bank0Segment + 4)), hl
                                   2814 ;E:/Dropbox/FAUSTO/SVILUPPI/MSX/CODE/C/MSXgl/engine/src/system.h:109: inline void Poke16(u16 addr, u16 val) { *(u16*)addr = val; }
    00000BC0 22 00 70         [16] 2815 	ld	(0x7000), hl
                                   2816 ;E:\Dropbox\FAUSTO\SVILUPPI\MSX\CODE\C\MSXgl\projects\exsoccer/exsoccer_s2_b0.c:613: if (g_Team1Score == g_Team2Score) {
    00000BC3 3Ar00r00         [13] 2817 	ld	a, (_g_Team1Score+0)
    00000BC6 21r00r00         [10] 2818 	ld	hl, #_g_Team2Score
    00000BC9 96               [ 7] 2819 	sub	a, (hl)
    00000BCA 20 06            [12] 2820 	jr	NZ, 00102$
                                   2821 ;E:\Dropbox\FAUSTO\SVILUPPI\MSX\CODE\C\MSXgl\projects\exsoccer/exsoccer_s2_b0.c:614: PenaltyShots();
    00000BCC CDr00r00         [17] 2822 	call	_PenaltyShots
    00000BCF C3rE8r0B         [10] 2823 	jp	00103$
    00000BD2                       2824 00102$:
                                   2825 ;E:\Dropbox\FAUSTO\SVILUPPI\MSX\CODE\C\MSXgl\projects\exsoccer/exsoccer_s2_b0.c:616: u8 winner = (g_Team1Score > g_Team2Score) ? TEAM_1 : TEAM_2;
    00000BD2 3Ar00r00         [13] 2826 	ld	a, (#_g_Team2Score)
    00000BD5 21r00r00         [10] 2827 	ld	hl, #_g_Team1Score
    00000BD8 96               [ 7] 2828 	sub	a, (hl)
    00000BD9 30 06            [12] 2829 	jr	NC, 00131$
    00000BDB 01 01 00         [10] 2830 	ld	bc, #0x0001
    00000BDE C3rE4r0B         [10] 2831 	jp	00132$
    00000BE1                       2832 00131$:
    00000BE1 01 02 00         [10] 2833 	ld	bc, #0x0002
    00000BE4                       2834 00132$:
                                   2835 ;E:\Dropbox\FAUSTO\SVILUPPI\MSX\CODE\C\MSXgl\projects\exsoccer/exsoccer_s2_b0.c:617: TeamVictory(winner);
    00000BE4 79               [ 4] 2836 	ld	a, c
    00000BE5 CDr00r00         [17] 2837 	call	_TeamVictory
    00000BE8                       2838 00103$:
                                   2839 ;E:/Dropbox/FAUSTO/SVILUPPI/MSX/CODE/C/MSXgl/engine/src/rom_mapper.h:112: g_Bank0Segment[b] = s;
    00000BE8 21 01 00         [10] 2840 	ld	hl, #0x0001
    00000BEB 22r04r00         [16] 2841 	ld	((_g_Bank0Segment + 4)), hl
                                   2842 ;E:/Dropbox/FAUSTO/SVILUPPI/MSX/CODE/C/MSXgl/engine/src/system.h:109: inline void Poke16(u16 addr, u16 val) { *(u16*)addr = val; }
    00000BEE 22 00 70         [16] 2843 	ld	(0x7000), hl
                                   2844 ;E:\Dropbox\FAUSTO\SVILUPPI\MSX\CODE\C\MSXgl\projects\exsoccer/exsoccer_s2_b0.c:619: SET_BANK_SEGMENT(2, 1); // Restore Segment 1
                                   2845 ;E:\Dropbox\FAUSTO\SVILUPPI\MSX\CODE\C\MSXgl\projects\exsoccer/exsoccer_s2_b0.c:620: }
    00000BF1 C9               [10] 2846 	ret
                                   2847 ;E:\Dropbox\FAUSTO\SVILUPPI\MSX\CODE\C\MSXgl\projects\exsoccer/exsoccer_s2_b0.c:621: u8 GetClosestPlayerToBall(u8 teamId, u8 excludePlayerId){
                                   2848 ;	---------------------------------
                                   2849 ; Function GetClosestPlayerToBall
                                   2850 ; ---------------------------------
    00000BF2                       2851 _GetClosestPlayerToBall::
    00000BF2 DD E5            [15] 2852 	push	ix
    00000BF4 DD 21 00 00      [14] 2853 	ld	ix,#0
    00000BF8 DD 39            [15] 2854 	add	ix,sp
    00000BFA FD 21 F2 FF      [14] 2855 	ld	iy, #-14
    00000BFE FD 39            [15] 2856 	add	iy, sp
    00000C00 FD F9            [10] 2857 	ld	sp, iy
    00000C02 DD 77 FE         [19] 2858 	ld	-2 (ix), a
    00000C05 DD 75 FD         [19] 2859 	ld	-3 (ix), l
                                   2860 ;E:\Dropbox\FAUSTO\SVILUPPI\MSX\CODE\C\MSXgl\projects\exsoccer/exsoccer_s2_b0.c:622: u8 closestId = NO_VALUE;
    00000C08 DD 36 F4 FF      [19] 2861 	ld	-12 (ix), #0xff
                                   2862 ;E:\Dropbox\FAUSTO\SVILUPPI\MSX\CODE\C\MSXgl\projects\exsoccer/exsoccer_s2_b0.c:623: u16 minDist = 0xFFFF;
    00000C0C DD 36 F5 FF      [19] 2863 	ld	-11 (ix), #0xff
    00000C10 DD 36 F6 FF      [19] 2864 	ld	-10 (ix), #0xff
                                   2865 ;E:\Dropbox\FAUSTO\SVILUPPI\MSX\CODE\C\MSXgl\projects\exsoccer/exsoccer_s2_b0.c:625: for(u8 i=0;i<14;i++){
    00000C14 21r02r00         [10] 2866 	ld	hl, #_g_Ball + 2
    00000C17 7E               [ 7] 2867 	ld	a, (hl)
    00000C18 DD 77 F7         [19] 2868 	ld	-9 (ix), a
    00000C1B 23               [ 6] 2869 	inc	hl
    00000C1C 7E               [ 7] 2870 	ld	a, (hl)
    00000C1D DD 77 F8         [19] 2871 	ld	-8 (ix), a
    00000C20 DD 36 FF 00      [19] 2872 	ld	-1 (ix), #0x00
    00000C24                       2873 00110$:
    00000C24 DD 7E FF         [19] 2874 	ld	a, -1 (ix)
    00000C27 D6 0E            [ 7] 2875 	sub	a, #0x0e
    00000C29 D2r0Dr0D         [10] 2876 	jp	NC, 00108$
                                   2877 ;E:\Dropbox\FAUSTO\SVILUPPI\MSX\CODE\C\MSXgl\projects\exsoccer/exsoccer_s2_b0.c:626: if(g_Players[i].TeamId != teamId) continue;
    00000C2C DD 4E FF         [19] 2878 	ld	c, -1 (ix)
    00000C2F 06 00            [ 7] 2879 	ld	b, #0x00
    00000C31 69               [ 4] 2880 	ld	l, c
    00000C32 60               [ 4] 2881 	ld	h, b
    00000C33 29               [11] 2882 	add	hl, hl
    00000C34 29               [11] 2883 	add	hl, hl
    00000C35 09               [11] 2884 	add	hl, bc
    00000C36 29               [11] 2885 	add	hl, hl
    00000C37 29               [11] 2886 	add	hl, hl
    00000C38 09               [11] 2887 	add	hl, bc
    00000C39 DD 75 FB         [19] 2888 	ld	-5 (ix), l
    00000C3C DD 74 FC         [19] 2889 	ld	-4 (ix), h
    00000C3F DD 7E FB         [19] 2890 	ld	a, -5 (ix)
    00000C42 C6r00            [ 7] 2891 	add	a, #<(_g_Players)
    00000C44 DD 77 F9         [19] 2892 	ld	-7 (ix), a
    00000C47 DD 7E FC         [19] 2893 	ld	a, -4 (ix)
    00000C4A CEs00            [ 7] 2894 	adc	a, #>(_g_Players)
    00000C4C DD 77 FA         [19] 2895 	ld	-6 (ix), a
    00000C4F DD 7E F9         [19] 2896 	ld	a, -7 (ix)
    00000C52 DD 77 FB         [19] 2897 	ld	-5 (ix), a
    00000C55 DD 7E FA         [19] 2898 	ld	a, -6 (ix)
    00000C58 DD 77 FC         [19] 2899 	ld	-4 (ix), a
    00000C5B DD 6E FB         [19] 2900 	ld	l, -5 (ix)
    00000C5E DD 66 FC         [19] 2901 	ld	h, -4 (ix)
    00000C61 11 09 00         [10] 2902 	ld	de, #0x0009
    00000C64 19               [11] 2903 	add	hl, de
    00000C65 DD 7E FE         [19] 2904 	ld	a,-2 (ix)
    00000C68 96               [ 7] 2905 	sub	a,(hl)
    00000C69 C2r07r0D         [10] 2906 	jp	NZ,00107$
                                   2907 ;E:\Dropbox\FAUSTO\SVILUPPI\MSX\CODE\C\MSXgl\projects\exsoccer/exsoccer_s2_b0.c:627: if(i == excludePlayerId) continue;
    00000C6C DD 7E FD         [19] 2908 	ld	a, -3 (ix)
    00000C6F DD 96 FF         [19] 2909 	sub	a, -1 (ix)
    00000C72 CAr07r0D         [10] 2910 	jp	Z,00107$
                                   2911 ;E:\Dropbox\FAUSTO\SVILUPPI\MSX\CODE\C\MSXgl\projects\exsoccer/exsoccer_s2_b0.c:629: u16 distX = (g_Players[i].X > g_Ball.X) ? (g_Players[i].X - g_Ball.X) : (g_Ball.X - g_Players[i].X);
    00000C75 DD 6E F9         [19] 2912 	ld	l, -7 (ix)
                                   2913 ;	spillPairReg hl
                                   2914 ;	spillPairReg hl
    00000C78 DD 66 FA         [19] 2915 	ld	h, -6 (ix)
                                   2916 ;	spillPairReg hl
                                   2917 ;	spillPairReg hl
    00000C7B 23               [ 6] 2918 	inc	hl
    00000C7C 23               [ 6] 2919 	inc	hl
    00000C7D 7E               [ 7] 2920 	ld	a, (hl)
    00000C7E DD 77 F2         [19] 2921 	ld	-14 (ix), a
    00000C81 23               [ 6] 2922 	inc	hl
    00000C82 7E               [ 7] 2923 	ld	a, (hl)
    00000C83 DD 77 F3         [19] 2924 	ld	-13 (ix), a
    00000C86 DD 7E F7         [19] 2925 	ld	a, -9 (ix)
    00000C89 DD 96 F2         [19] 2926 	sub	a, -14 (ix)
    00000C8C DD 7E F8         [19] 2927 	ld	a, -8 (ix)
    00000C8F DD 9E F3         [19] 2928 	sbc	a, -13 (ix)
    00000C92 30 15            [12] 2929 	jr	NC, 00113$
    00000C94 DD 7E F2         [19] 2930 	ld	a, -14 (ix)
    00000C97 DD 96 F7         [19] 2931 	sub	a, -9 (ix)
    00000C9A DD 77 FB         [19] 2932 	ld	-5 (ix), a
    00000C9D DD 7E F3         [19] 2933 	ld	a, -13 (ix)
    00000CA0 DD 9E F8         [19] 2934 	sbc	a, -8 (ix)
    00000CA3 DD 77 FC         [19] 2935 	ld	-4 (ix), a
    00000CA6 C3rBBr0C         [10] 2936 	jp	00114$
    00000CA9                       2937 00113$:
    00000CA9 DD 7E F7         [19] 2938 	ld	a, -9 (ix)
    00000CAC DD 96 F2         [19] 2939 	sub	a, -14 (ix)
    00000CAF DD 77 FB         [19] 2940 	ld	-5 (ix), a
    00000CB2 DD 7E F8         [19] 2941 	ld	a, -8 (ix)
    00000CB5 DD 9E F3         [19] 2942 	sbc	a, -13 (ix)
    00000CB8 DD 77 FC         [19] 2943 	ld	-4 (ix), a
    00000CBB                       2944 00114$:
                                   2945 ;E:\Dropbox\FAUSTO\SVILUPPI\MSX\CODE\C\MSXgl\projects\exsoccer/exsoccer_s2_b0.c:630: u16 distY = (g_Players[i].Y > g_Ball.Y) ? (g_Players[i].Y - g_Ball.Y) : (g_Ball.Y - g_Players[i].Y);
    00000CBB DD 6E F9         [19] 2946 	ld	l, -7 (ix)
    00000CBE DD 66 FA         [19] 2947 	ld	h, -6 (ix)
    00000CC1 4E               [ 7] 2948 	ld	c, (hl)
    00000CC2 23               [ 6] 2949 	inc	hl
    00000CC3 46               [ 7] 2950 	ld	b, (hl)
    00000CC4 2Ar00r00         [16] 2951 	ld	hl, (#_g_Ball + 0)
    00000CC7 7D               [ 4] 2952 	ld	a, l
    00000CC8 91               [ 4] 2953 	sub	a, c
    00000CC9 7C               [ 4] 2954 	ld	a, h
    00000CCA 98               [ 4] 2955 	sbc	a, b
    00000CCB 30 0D            [12] 2956 	jr	NC, 00115$
    00000CCD 79               [ 4] 2957 	ld	a, c
    00000CCE 95               [ 4] 2958 	sub	a, l
    00000CCF DD 77 F9         [19] 2959 	ld	-7 (ix), a
    00000CD2 78               [ 4] 2960 	ld	a, b
    00000CD3 9C               [ 4] 2961 	sbc	a, h
    00000CD4 DD 77 FA         [19] 2962 	ld	-6 (ix), a
    00000CD7 C3rE4r0C         [10] 2963 	jp	00116$
    00000CDA                       2964 00115$:
    00000CDA 7D               [ 4] 2965 	ld	a, l
    00000CDB 91               [ 4] 2966 	sub	a, c
    00000CDC DD 77 F9         [19] 2967 	ld	-7 (ix), a
    00000CDF 7C               [ 4] 2968 	ld	a, h
    00000CE0 98               [ 4] 2969 	sbc	a, b
    00000CE1 DD 77 FA         [19] 2970 	ld	-6 (ix), a
    00000CE4                       2971 00116$:
    00000CE4 DD 4E F9         [19] 2972 	ld	c, -7 (ix)
    00000CE7 DD 46 FA         [19] 2973 	ld	b, -6 (ix)
                                   2974 ;E:\Dropbox\FAUSTO\SVILUPPI\MSX\CODE\C\MSXgl\projects\exsoccer/exsoccer_s2_b0.c:633: u16 totalDist = distX + distY;
    00000CEA DD 6E FB         [19] 2975 	ld	l, -5 (ix)
    00000CED DD 66 FC         [19] 2976 	ld	h, -4 (ix)
    00000CF0 09               [11] 2977 	add	hl, bc
                                   2978 ;E:\Dropbox\FAUSTO\SVILUPPI\MSX\CODE\C\MSXgl\projects\exsoccer/exsoccer_s2_b0.c:635: if(totalDist < minDist){
    00000CF1 7D               [ 4] 2979 	ld	a, l
    00000CF2 DD 96 F5         [19] 2980 	sub	a, -11 (ix)
    00000CF5 7C               [ 4] 2981 	ld	a, h
    00000CF6 DD 9E F6         [19] 2982 	sbc	a, -10 (ix)
    00000CF9 30 0C            [12] 2983 	jr	NC, 00107$
                                   2984 ;E:\Dropbox\FAUSTO\SVILUPPI\MSX\CODE\C\MSXgl\projects\exsoccer/exsoccer_s2_b0.c:636: minDist = totalDist;
    00000CFB DD 75 F5         [19] 2985 	ld	-11 (ix), l
    00000CFE DD 74 F6         [19] 2986 	ld	-10 (ix), h
                                   2987 ;E:\Dropbox\FAUSTO\SVILUPPI\MSX\CODE\C\MSXgl\projects\exsoccer/exsoccer_s2_b0.c:637: closestId = i;
    00000D01 DD 7E FF         [19] 2988 	ld	a, -1 (ix)
    00000D04 DD 77 F4         [19] 2989 	ld	-12 (ix), a
    00000D07                       2990 00107$:
                                   2991 ;E:\Dropbox\FAUSTO\SVILUPPI\MSX\CODE\C\MSXgl\projects\exsoccer/exsoccer_s2_b0.c:625: for(u8 i=0;i<14;i++){
    00000D07 DD 34 FF         [23] 2992 	inc	-1 (ix)
    00000D0A C3r24r0C         [10] 2993 	jp	00110$
    00000D0D                       2994 00108$:
                                   2995 ;E:\Dropbox\FAUSTO\SVILUPPI\MSX\CODE\C\MSXgl\projects\exsoccer/exsoccer_s2_b0.c:640: return closestId;
    00000D0D DD 7E F4         [19] 2996 	ld	a, -12 (ix)
                                   2997 ;E:\Dropbox\FAUSTO\SVILUPPI\MSX\CODE\C\MSXgl\projects\exsoccer/exsoccer_s2_b0.c:641: }
    00000D10 DD F9            [10] 2998 	ld	sp, ix
    00000D12 DD E1            [14] 2999 	pop	ix
    00000D14 C9               [10] 3000 	ret
                                   3001 ;E:\Dropbox\FAUSTO\SVILUPPI\MSX\CODE\C\MSXgl\projects\exsoccer/exsoccer_s2_b0.c:642: i32 Math_Abs32(i32 v) { return (v < 0) ? -v : v; }
                                   3002 ;	---------------------------------
                                   3003 ; Function Math_Abs32
                                   3004 ; ---------------------------------
    00000D15                       3005 _Math_Abs32::
    00000D15 4D               [ 4] 3006 	ld	c, l
    00000D16 44               [ 4] 3007 	ld	b, h
    00000D17 CB 78            [ 8] 3008 	bit	7, b
    00000D19 28 0D            [12] 3009 	jr	Z, 00103$
    00000D1B 21 00 00         [10] 3010 	ld	hl, #0x0000
    00000D1E BF               [ 4] 3011 	cp	a, a
    00000D1F ED 52            [15] 3012 	sbc	hl, de
    00000D21 EB               [ 4] 3013 	ex	de, hl
    00000D22 21 00 00         [10] 3014 	ld	hl, #0x0000
    00000D25 ED 42            [15] 3015 	sbc	hl, bc
    00000D27 C9               [10] 3016 	ret
    00000D28                       3017 00103$:
    00000D28 69               [ 4] 3018 	ld	l, c
                                   3019 ;	spillPairReg hl
                                   3020 ;	spillPairReg hl
    00000D29 60               [ 4] 3021 	ld	h, b
                                   3022 ;	spillPairReg hl
                                   3023 ;	spillPairReg hl
    00000D2A C9               [10] 3024 	ret
                                   3025 ;E:\Dropbox\FAUSTO\SVILUPPI\MSX\CODE\C\MSXgl\projects\exsoccer/exsoccer_s2_b0.c:654: u8 SelectTeam(u8 cursorPatternId, u8 excludeIndex) {
                                   3026 ;	---------------------------------
                                   3027 ; Function SelectTeam
                                   3028 ; ---------------------------------
    00000D2B                       3029 _SelectTeam::
    00000D2B DD E5            [15] 3030 	push	ix
    00000D2D DD 21 00 00      [14] 3031 	ld	ix,#0
    00000D31 DD 39            [15] 3032 	add	ix,sp
    00000D33 FD 21 F6 FF      [14] 3033 	ld	iy, #-10
    00000D37 FD 39            [15] 3034 	add	iy, sp
    00000D39 FD F9            [10] 3035 	ld	sp, iy
    00000D3B DD 77 FF         [19] 3036 	ld	-1 (ix), a
    00000D3E DD 75 FE         [19] 3037 	ld	-2 (ix), l
                                   3038 ;E:\Dropbox\FAUSTO\SVILUPPI\MSX\CODE\C\MSXgl\projects\exsoccer/exsoccer_s2_b0.c:656: u8 currentIdx = 0;
    00000D41 DD 36 FA 00      [19] 3039 	ld	-6 (ix), #0x00
                                   3040 ;E:\Dropbox\FAUSTO\SVILUPPI\MSX\CODE\C\MSXgl\projects\exsoccer/exsoccer_s2_b0.c:657: if (currentIdx == excludeIndex) currentIdx++;
    00000D45 DD 7E FE         [19] 3041 	ld	a, -2 (ix)
    00000D48 B7               [ 4] 3042 	or	a, a
    00000D49 20 04            [12] 3043 	jr	NZ, 00102$
    00000D4B DD 36 FA 01      [19] 3044 	ld	-6 (ix), #0x01
    00000D4F                       3045 00102$:
                                   3046 ;E:\Dropbox\FAUSTO\SVILUPPI\MSX\CODE\C\MSXgl\projects\exsoccer/exsoccer_s2_b0.c:660: u8 oldDir = DIRECTION_NONE;
    00000D4F DD 36 FD 00      [19] 3047 	ld	-3 (ix), #0x00
                                   3048 ;E:\Dropbox\FAUSTO\SVILUPPI\MSX\CODE\C\MSXgl\projects\exsoccer/exsoccer_s2_b0.c:662: bool oldTrigger = true; // Force release first
    00000D53 DD 36 FB 01      [19] 3049 	ld	-5 (ix), #0x01
                                   3050 ;E:\Dropbox\FAUSTO\SVILUPPI\MSX\CODE\C\MSXgl\projects\exsoccer/exsoccer_s2_b0.c:664: while (true) {
    00000D57                       3051 00143$:
                                   3052 ;E:\Dropbox\FAUSTO\SVILUPPI\MSX\CODE\C\MSXgl\projects\exsoccer/exsoccer_s2_b0.c:665: UpdateV9990();
    00000D57 CDr00r00         [17] 3053 	call	_UpdateV9990
                                   3054 ;E:\Dropbox\FAUSTO\SVILUPPI\MSX\CODE\C\MSXgl\projects\exsoccer/exsoccer_s2_b0.c:667: dir = GetJoystick1Direction();
    00000D5A CDrFDr08         [17] 3055 	call	_GetJoystick1Direction
    00000D5D 4F               [ 4] 3056 	ld	c, a
                                   3057 ;E:\Dropbox\FAUSTO\SVILUPPI\MSX\CODE\C\MSXgl\projects\exsoccer/exsoccer_s2_b0.c:668: trigger = IsTeamJoystickTriggerPressed(TEAM_1);
    00000D5E C5               [11] 3058 	push	bc
    00000D5F 3E 01            [ 7] 3059 	ld	a, #0x01
    00000D61 CDr8Dr08         [17] 3060 	call	_IsTeamJoystickTriggerPressed
    00000D64 C1               [10] 3061 	pop	bc
    00000D65 DD 77 FC         [19] 3062 	ld	-4 (ix), a
                                   3063 ;E:\Dropbox\FAUSTO\SVILUPPI\MSX\CODE\C\MSXgl\projects\exsoccer/exsoccer_s2_b0.c:670: if (dir != DIRECTION_NONE && dir != oldDir) {
    00000D68 79               [ 4] 3064 	ld	a, c
    00000D69 B7               [ 4] 3065 	or	a, a
    00000D6A CAr45r0E         [10] 3066 	jp	Z, 00137$
    00000D6D 79               [ 4] 3067 	ld	a, c
    00000D6E DD 96 FD         [19] 3068 	sub	a, -3 (ix)
    00000D71 CAr45r0E         [10] 3069 	jp	Z,00137$
                                   3070 ;E:\Dropbox\FAUSTO\SVILUPPI\MSX\CODE\C\MSXgl\projects\exsoccer/exsoccer_s2_b0.c:671: u8 nextIdx = currentIdx;
    00000D74 DD 46 FA         [19] 3071 	ld	b, -6 (ix)
                                   3072 ;E:\Dropbox\FAUSTO\SVILUPPI\MSX\CODE\C\MSXgl\projects\exsoccer/exsoccer_s2_b0.c:673: if (dir == DIRECTION_RIGHT) {
    00000D77 79               [ 4] 3073 	ld	a, c
    00000D78 D6 03            [ 7] 3074 	sub	a, #0x03
    00000D7A 3E 01            [ 7] 3075 	ld	a, #0x01
    00000D7C 28 01            [12] 3076 	jr	Z, 00248$
    00000D7E AF               [ 4] 3077 	xor	a, a
    00000D7F                       3078 00248$:
    00000D7F DD 77 FD         [19] 3079 	ld	-3 (ix), a
    00000D82 B7               [ 4] 3080 	or	a, a
    00000D83 28 1F            [12] 3081 	jr	Z, 00120$
                                   3082 ;E:\Dropbox\FAUSTO\SVILUPPI\MSX\CODE\C\MSXgl\projects\exsoccer/exsoccer_s2_b0.c:674: if ((currentIdx % 3) < 2) nextIdx++;
    00000D85 DD 6E FA         [19] 3083 	ld	l, -6 (ix)
                                   3084 ;	spillPairReg hl
                                   3085 ;	spillPairReg hl
    00000D88 26 00            [ 7] 3086 	ld	h, #0x00
                                   3087 ;	spillPairReg hl
                                   3088 ;	spillPairReg hl
    00000D8A C5               [11] 3089 	push	bc
    00000D8B 11 03 00         [10] 3090 	ld	de, #0x0003
    00000D8E CDr00r00         [17] 3091 	call	__modsint
    00000D91 C1               [10] 3092 	pop	bc
    00000D92 7B               [ 4] 3093 	ld	a, e
    00000D93 D6 02            [ 7] 3094 	sub	a, #0x02
    00000D95 7A               [ 4] 3095 	ld	a, d
    00000D96 17               [ 4] 3096 	rla
    00000D97 3F               [ 4] 3097 	ccf
    00000D98 1F               [ 4] 3098 	rra
    00000D99 DE 80            [ 7] 3099 	sbc	a, #0x80
    00000D9B 30 51            [12] 3100 	jr	NC, 00121$
    00000D9D DD 46 FA         [19] 3101 	ld	b, -6 (ix)
    00000DA0 04               [ 4] 3102 	inc	b
    00000DA1 C3rEEr0D         [10] 3103 	jp	00121$
    00000DA4                       3104 00120$:
                                   3105 ;E:\Dropbox\FAUSTO\SVILUPPI\MSX\CODE\C\MSXgl\projects\exsoccer/exsoccer_s2_b0.c:675: } else if (dir == DIRECTION_LEFT) {
    00000DA4 79               [ 4] 3106 	ld	a, c
    00000DA5 D6 07            [ 7] 3107 	sub	a, #0x07
    00000DA7 20 1F            [12] 3108 	jr	NZ, 00117$
                                   3109 ;E:\Dropbox\FAUSTO\SVILUPPI\MSX\CODE\C\MSXgl\projects\exsoccer/exsoccer_s2_b0.c:676: if ((currentIdx % 3) > 0) nextIdx--;
    00000DA9 DD 6E FA         [19] 3110 	ld	l, -6 (ix)
                                   3111 ;	spillPairReg hl
                                   3112 ;	spillPairReg hl
    00000DAC 26 00            [ 7] 3113 	ld	h, #0x00
                                   3114 ;	spillPairReg hl
                                   3115 ;	spillPairReg hl
    00000DAE C5               [11] 3116 	push	bc
    00000DAF 11 03 00         [10] 3117 	ld	de, #0x0003
    00000DB2 CDr00r00         [17] 3118 	call	__modsint
    00000DB5 C1               [10] 3119 	pop	bc
    00000DB6 AF               [ 4] 3120 	xor	a, a
    00000DB7 BB               [ 4] 3121 	cp	a, e
    00000DB8 9A               [ 4] 3122 	sbc	a, d
    00000DB9 E2rBEr0D         [10] 3123 	jp	PO, 00251$
    00000DBC EE 80            [ 7] 3124 	xor	a, #0x80
    00000DBE                       3125 00251$:
    00000DBE F2rEEr0D         [10] 3126 	jp	P, 00121$
    00000DC1 DD 46 FA         [19] 3127 	ld	b, -6 (ix)
    00000DC4 05               [ 4] 3128 	dec	b
    00000DC5 C3rEEr0D         [10] 3129 	jp	00121$
    00000DC8                       3130 00117$:
                                   3131 ;E:\Dropbox\FAUSTO\SVILUPPI\MSX\CODE\C\MSXgl\projects\exsoccer/exsoccer_s2_b0.c:677: } else if (dir == DIRECTION_UP) {
    00000DC8 79               [ 4] 3132 	ld	a, c
    00000DC9 3D               [ 4] 3133 	dec	a
    00000DCA 20 10            [12] 3134 	jr	NZ, 00114$
                                   3135 ;E:\Dropbox\FAUSTO\SVILUPPI\MSX\CODE\C\MSXgl\projects\exsoccer/exsoccer_s2_b0.c:678: if (currentIdx >= 3) nextIdx -= 3;
    00000DCC DD 7E FA         [19] 3136 	ld	a, -6 (ix)
    00000DCF D6 03            [ 7] 3137 	sub	a, #0x03
    00000DD1 38 1B            [12] 3138 	jr	C, 00121$
    00000DD3 DD 7E FA         [19] 3139 	ld	a, -6 (ix)
    00000DD6 C6 FD            [ 7] 3140 	add	a, #0xfd
    00000DD8 47               [ 4] 3141 	ld	b, a
    00000DD9 C3rEEr0D         [10] 3142 	jp	00121$
    00000DDC                       3143 00114$:
                                   3144 ;E:\Dropbox\FAUSTO\SVILUPPI\MSX\CODE\C\MSXgl\projects\exsoccer/exsoccer_s2_b0.c:679: } else if (dir == DIRECTION_DOWN) {
    00000DDC 79               [ 4] 3145 	ld	a, c
    00000DDD D6 05            [ 7] 3146 	sub	a, #0x05
    00000DDF 20 0D            [12] 3147 	jr	NZ, 00121$
                                   3148 ;E:\Dropbox\FAUSTO\SVILUPPI\MSX\CODE\C\MSXgl\projects\exsoccer/exsoccer_s2_b0.c:680: if (currentIdx < 3) nextIdx += 3;
    00000DE1 DD 7E FA         [19] 3149 	ld	a, -6 (ix)
    00000DE4 D6 03            [ 7] 3150 	sub	a, #0x03
    00000DE6 30 06            [12] 3151 	jr	NC, 00121$
    00000DE8 DD 7E FA         [19] 3152 	ld	a, -6 (ix)
    00000DEB C6 03            [ 7] 3153 	add	a, #0x03
    00000DED 47               [ 4] 3154 	ld	b, a
    00000DEE                       3155 00121$:
                                   3156 ;E:\Dropbox\FAUSTO\SVILUPPI\MSX\CODE\C\MSXgl\projects\exsoccer/exsoccer_s2_b0.c:683: if (nextIdx == excludeIndex) {
    00000DEE DD 7E FE         [19] 3157 	ld	a, -2 (ix)
    00000DF1 90               [ 4] 3158 	sub	a, b
    00000DF2 20 4E            [12] 3159 	jr	NZ, 00135$
                                   3160 ;E:\Dropbox\FAUSTO\SVILUPPI\MSX\CODE\C\MSXgl\projects\exsoccer/exsoccer_s2_b0.c:685: if (dir == DIRECTION_RIGHT) {
    00000DF4 DD 7E FD         [19] 3161 	ld	a, -3 (ix)
    00000DF7 B7               [ 4] 3162 	or	a, a
    00000DF8 28 20            [12] 3163 	jr	Z, 00132$
                                   3164 ;E:\Dropbox\FAUSTO\SVILUPPI\MSX\CODE\C\MSXgl\projects\exsoccer/exsoccer_s2_b0.c:686: if ((nextIdx % 3) < 2) nextIdx++; else nextIdx = currentIdx;
    00000DFA 68               [ 4] 3165 	ld	l, b
                                   3166 ;	spillPairReg hl
                                   3167 ;	spillPairReg hl
    00000DFB 26 00            [ 7] 3168 	ld	h, #0x00
                                   3169 ;	spillPairReg hl
                                   3170 ;	spillPairReg hl
    00000DFD C5               [11] 3171 	push	bc
    00000DFE 11 03 00         [10] 3172 	ld	de, #0x0003
    00000E01 CDr00r00         [17] 3173 	call	__modsint
    00000E04 C1               [10] 3174 	pop	bc
    00000E05 7B               [ 4] 3175 	ld	a, e
    00000E06 D6 02            [ 7] 3176 	sub	a, #0x02
    00000E08 7A               [ 4] 3177 	ld	a, d
    00000E09 17               [ 4] 3178 	rla
    00000E0A 3F               [ 4] 3179 	ccf
    00000E0B 1F               [ 4] 3180 	rra
    00000E0C DE 80            [ 7] 3181 	sbc	a, #0x80
    00000E0E 30 04            [12] 3182 	jr	NC, 00123$
    00000E10 04               [ 4] 3183 	inc	b
    00000E11 C3r42r0E         [10] 3184 	jp	00135$
    00000E14                       3185 00123$:
    00000E14 DD 46 FA         [19] 3186 	ld	b, -6 (ix)
    00000E17 C3r42r0E         [10] 3187 	jp	00135$
    00000E1A                       3188 00132$:
                                   3189 ;E:\Dropbox\FAUSTO\SVILUPPI\MSX\CODE\C\MSXgl\projects\exsoccer/exsoccer_s2_b0.c:687: } else if (dir == DIRECTION_LEFT) {
    00000E1A 79               [ 4] 3190 	ld	a, c
    00000E1B D6 07            [ 7] 3191 	sub	a, #0x07
    00000E1D 20 20            [12] 3192 	jr	NZ, 00129$
                                   3193 ;E:\Dropbox\FAUSTO\SVILUPPI\MSX\CODE\C\MSXgl\projects\exsoccer/exsoccer_s2_b0.c:688: if ((nextIdx % 3) > 0) nextIdx--; else nextIdx = currentIdx;
    00000E1F 68               [ 4] 3194 	ld	l, b
                                   3195 ;	spillPairReg hl
                                   3196 ;	spillPairReg hl
    00000E20 26 00            [ 7] 3197 	ld	h, #0x00
                                   3198 ;	spillPairReg hl
                                   3199 ;	spillPairReg hl
    00000E22 C5               [11] 3200 	push	bc
    00000E23 11 03 00         [10] 3201 	ld	de, #0x0003
    00000E26 CDr00r00         [17] 3202 	call	__modsint
    00000E29 C1               [10] 3203 	pop	bc
    00000E2A AF               [ 4] 3204 	xor	a, a
    00000E2B BB               [ 4] 3205 	cp	a, e
    00000E2C 9A               [ 4] 3206 	sbc	a, d
    00000E2D E2r32r0E         [10] 3207 	jp	PO, 00260$
    00000E30 EE 80            [ 7] 3208 	xor	a, #0x80
    00000E32                       3209 00260$:
    00000E32 F2r39r0E         [10] 3210 	jp	P, 00126$
    00000E35 05               [ 4] 3211 	dec	b
    00000E36 C3r42r0E         [10] 3212 	jp	00135$
    00000E39                       3213 00126$:
    00000E39 DD 46 FA         [19] 3214 	ld	b, -6 (ix)
    00000E3C C3r42r0E         [10] 3215 	jp	00135$
    00000E3F                       3216 00129$:
                                   3217 ;E:\Dropbox\FAUSTO\SVILUPPI\MSX\CODE\C\MSXgl\projects\exsoccer/exsoccer_s2_b0.c:690: nextIdx = currentIdx; // Vertical skip blocked
    00000E3F DD 46 FA         [19] 3218 	ld	b, -6 (ix)
    00000E42                       3219 00135$:
                                   3220 ;E:\Dropbox\FAUSTO\SVILUPPI\MSX\CODE\C\MSXgl\projects\exsoccer/exsoccer_s2_b0.c:693: currentIdx = nextIdx;
    00000E42 DD 70 FA         [19] 3221 	ld	-6 (ix), b
    00000E45                       3222 00137$:
                                   3223 ;E:\Dropbox\FAUSTO\SVILUPPI\MSX\CODE\C\MSXgl\projects\exsoccer/exsoccer_s2_b0.c:695: oldDir = dir;
    00000E45 DD 71 FD         [19] 3224 	ld	-3 (ix), c
                                   3225 ;E:\Dropbox\FAUSTO\SVILUPPI\MSX\CODE\C\MSXgl\projects\exsoccer/exsoccer_s2_b0.c:697: if (trigger && !oldTrigger) {
    00000E48 DD 7E FC         [19] 3226 	ld	a, -4 (ix)
    00000E4B B7               [ 4] 3227 	or	a, a
    00000E4C 28 0C            [12] 3228 	jr	Z, 00140$
    00000E4E DD 7E FB         [19] 3229 	ld	a, -5 (ix)
    00000E51 B7               [ 4] 3230 	or	a, a
    00000E52 20 06            [12] 3231 	jr	NZ, 00140$
                                   3232 ;E:\Dropbox\FAUSTO\SVILUPPI\MSX\CODE\C\MSXgl\projects\exsoccer/exsoccer_s2_b0.c:699: return currentIdx;
    00000E54 DD 7E FA         [19] 3233 	ld	a, -6 (ix)
    00000E57 C3rB7r0E         [10] 3234 	jp	00147$
    00000E5A                       3235 00140$:
                                   3236 ;E:\Dropbox\FAUSTO\SVILUPPI\MSX\CODE\C\MSXgl\projects\exsoccer/exsoccer_s2_b0.c:701: oldTrigger = trigger;
    00000E5A DD 7E FC         [19] 3237 	ld	a, -4 (ix)
    00000E5D DD 77 FB         [19] 3238 	ld	-5 (ix), a
                                   3239 ;E:\Dropbox\FAUSTO\SVILUPPI\MSX\CODE\C\MSXgl\projects\exsoccer/exsoccer_s2_b0.c:704: attr.Y = g_TeamPos[currentIdx].y;
    00000E60 DD 6E FA         [19] 3240 	ld	l, -6 (ix)
                                   3241 ;	spillPairReg hl
                                   3242 ;	spillPairReg hl
    00000E63 26 00            [ 7] 3243 	ld	h, #0x00
                                   3244 ;	spillPairReg hl
                                   3245 ;	spillPairReg hl
    00000E65 29               [11] 3246 	add	hl, hl
    00000E66 29               [11] 3247 	add	hl, hl
    00000E67 01r87r00         [10] 3248 	ld	bc,#_g_TeamPos
    00000E6A 09               [11] 3249 	add	hl,bc
    00000E6B EB               [ 4] 3250 	ex	de, hl
    00000E6C 4B               [ 4] 3251 	ld	c, e
    00000E6D 42               [ 4] 3252 	ld	b, d
    00000E6E 03               [ 6] 3253 	inc	bc
    00000E6F 03               [ 6] 3254 	inc	bc
    00000E70 0A               [ 7] 3255 	ld	a, (bc)
    00000E71 DD 77 F6         [19] 3256 	ld	-10 (ix), a
                                   3257 ;E:\Dropbox\FAUSTO\SVILUPPI\MSX\CODE\C\MSXgl\projects\exsoccer/exsoccer_s2_b0.c:705: attr.X = g_TeamPos[currentIdx].x;
    00000E74 EB               [ 4] 3258 	ex	de,hl
    00000E75 4E               [ 7] 3259 	ld	c, (hl)
    00000E76 23               [ 6] 3260 	inc	hl
    00000E77 46               [ 7] 3261 	ld	b, (hl)
    00000E78 21 02 00         [10] 3262 	ld	hl, #2
    00000E7B 39               [11] 3263 	add	hl, sp
    00000E7C 71               [ 7] 3264 	ld	(hl), c
    00000E7D 23               [ 6] 3265 	inc	hl
    00000E7E 78               [ 4] 3266 	ld	a, b
    00000E7F E6 03            [ 7] 3267 	and	a, #0x03
    00000E81 5F               [ 4] 3268 	ld	e,a
    00000E82 7E               [ 7] 3269 	ld	a, (hl)
    00000E83 E6 FC            [ 7] 3270 	and	a, #0xfc
    00000E85 B3               [ 4] 3271 	or	a, e
    00000E86 77               [ 7] 3272 	ld	(hl), a
                                   3273 ;E:\Dropbox\FAUSTO\SVILUPPI\MSX\CODE\C\MSXgl\projects\exsoccer/exsoccer_s2_b0.c:706: attr.Pattern = cursorPatternId;
    00000E87 DD 7E FF         [19] 3274 	ld	a, -1 (ix)
    00000E8A DD 77 F7         [19] 3275 	ld	-9 (ix), a
                                   3276 ;E:\Dropbox\FAUSTO\SVILUPPI\MSX\CODE\C\MSXgl\projects\exsoccer/exsoccer_s2_b0.c:707: attr.P = 0; 
    00000E8D 21 03 00         [10] 3277 	ld	hl, #3
    00000E90 39               [11] 3278 	add	hl, sp
    00000E91 CB AE            [15] 3279 	res	5, (hl)
                                   3280 ;E:\Dropbox\FAUSTO\SVILUPPI\MSX\CODE\C\MSXgl\projects\exsoccer/exsoccer_s2_b0.c:708: attr.SC = 0;
    00000E93 21 03 00         [10] 3281 	ld	hl, #3
    00000E96 39               [11] 3282 	add	hl, sp
    00000E97 7E               [ 7] 3283 	ld	a, (hl)
    00000E98 E6 3F            [ 7] 3284 	and	a, #0x3f
    00000E9A 77               [ 7] 3285 	ld	(hl), a
                                   3286 ;E:\Dropbox\FAUSTO\SVILUPPI\MSX\CODE\C\MSXgl\projects\exsoccer/exsoccer_s2_b0.c:709: attr.D = 0;
    00000E9B 21 03 00         [10] 3287 	ld	hl, #3
    00000E9E 39               [11] 3288 	add	hl, sp
    00000E9F CB A6            [15] 3289 	res	4, (hl)
                                   3290 ;E:\Dropbox\FAUSTO\SVILUPPI\MSX\CODE\C\MSXgl\projects\exsoccer/exsoccer_s2_b0.c:710: V9_SetSpriteP1(0, &attr);
                                   3291 ;E:/Dropbox/FAUSTO/SVILUPPI/MSX/CODE/C/MSXgl/engine/src/v9990.h:781: inline void V9_SetSpriteP1(u8 id, const V9_Sprite* attr) { V9_WriteVRAM(V9_P1_SPAT + (id * 4), (const u8*)attr, 4); }
                                   3292 ;E:/Dropbox/FAUSTO/SVILUPPI/MSX/CODE/C/MSXgl/engine/src/v9990.h:371: inline void V9_WriteVRAM(u32 addr, const u8* src, u16 count) { V9_SetWriteAddress(addr); V9_WriteVRAM_CurrentAddr(src, count); }
    00000EA1 11 00 FE         [10] 3293 	ld	de, #0xfe00
    00000EA4 21 03 00         [10] 3294 	ld	hl, #0x0003
    00000EA7 CDr00r00         [17] 3295 	call	_V9_SetWriteAddress
    00000EAA 11 04 00         [10] 3296 	ld	de, #0x0004
    00000EAD 21 00 00         [10] 3297 	ld	hl, #0
    00000EB0 39               [11] 3298 	add	hl, sp
    00000EB1 CDr00r00         [17] 3299 	call	_V9_WriteVRAM_CurrentAddr
                                   3300 ;E:\Dropbox\FAUSTO\SVILUPPI\MSX\CODE\C\MSXgl\projects\exsoccer/exsoccer_s2_b0.c:710: V9_SetSpriteP1(0, &attr);
    00000EB4 C3r57r0D         [10] 3301 	jp	00143$
    00000EB7                       3302 00147$:
                                   3303 ;E:\Dropbox\FAUSTO\SVILUPPI\MSX\CODE\C\MSXgl\projects\exsoccer/exsoccer_s2_b0.c:712: }
    00000EB7 DD F9            [10] 3304 	ld	sp, ix
    00000EB9 DD E1            [14] 3305 	pop	ix
    00000EBB C9               [10] 3306 	ret
                                   3307 ;E:\Dropbox\FAUSTO\SVILUPPI\MSX\CODE\C\MSXgl\projects\exsoccer/exsoccer_s2_b0.c:713: void ShowMenu(){
                                   3308 ;	---------------------------------
                                   3309 ; Function ShowMenu
                                   3310 ; ---------------------------------
    00000EBC                       3311 _ShowMenu::
    00000EBC DD E5            [15] 3312 	push	ix
    00000EBE DD 21 00 00      [14] 3313 	ld	ix,#0
    00000EC2 DD 39            [15] 3314 	add	ix,sp
    00000EC4 21 F9 FF         [10] 3315 	ld	hl, #-7
    00000EC7 39               [11] 3316 	add	hl, sp
    00000EC8 F9               [ 6] 3317 	ld	sp, hl
                                   3318 ;E:/Dropbox/FAUSTO/SVILUPPI/MSX/CODE/C/MSXgl/engine/src/rom_mapper.h:112: g_Bank0Segment[b] = s;
    00000EC9 21 01 00         [10] 3319 	ld	hl, #0x0001
    00000ECC 22r04r00         [16] 3320 	ld	((_g_Bank0Segment + 4)), hl
                                   3321 ;E:/Dropbox/FAUSTO/SVILUPPI/MSX/CODE/C/MSXgl/engine/src/system.h:109: inline void Poke16(u16 addr, u16 val) { *(u16*)addr = val; }
    00000ECF 22 00 70         [16] 3322 	ld	(0x7000), hl
                                   3323 ;E:\Dropbox\FAUSTO\SVILUPPI\MSX\CODE\C\MSXgl\projects\exsoccer/exsoccer_s2_b0.c:717: for(u8 i=0;i<32;i++){
    00000ED2 0E 00            [ 7] 3324 	ld	c, #0x00
    00000ED4                       3325 00268$:
    00000ED4 79               [ 4] 3326 	ld	a, c
    00000ED5 D6 20            [ 7] 3327 	sub	a, #0x20
    00000ED7 30 2F            [12] 3328 	jr	NC, 00101$
                                   3329 ;E:\Dropbox\FAUSTO\SVILUPPI\MSX\CODE\C\MSXgl\projects\exsoccer/exsoccer_s2_b0.c:719: attr.D = 1;
    00000ED9 21 03 00         [10] 3330 	ld	hl, #3
    00000EDC 39               [11] 3331 	add	hl, sp
    00000EDD CB E6            [15] 3332 	set	4, (hl)
                                   3333 ;E:\Dropbox\FAUSTO\SVILUPPI\MSX\CODE\C\MSXgl\projects\exsoccer/exsoccer_s2_b0.c:720: V9_SetSpriteP1(i, &attr);
                                   3334 ;E:/Dropbox/FAUSTO/SVILUPPI/MSX/CODE/C/MSXgl/engine/src/v9990.h:781: inline void V9_SetSpriteP1(u8 id, const V9_Sprite* attr) { V9_WriteVRAM(V9_P1_SPAT + (id * 4), (const u8*)attr, 4); }
    00000EDF 69               [ 4] 3335 	ld	l, c
                                   3336 ;	spillPairReg hl
                                   3337 ;	spillPairReg hl
    00000EE0 26 00            [ 7] 3338 	ld	h, #0x00
                                   3339 ;	spillPairReg hl
                                   3340 ;	spillPairReg hl
    00000EE2 29               [11] 3341 	add	hl, hl
    00000EE3 29               [11] 3342 	add	hl, hl
    00000EE4 7C               [ 4] 3343 	ld	a, h
    00000EE5 07               [ 4] 3344 	rlca
    00000EE6 9F               [ 4] 3345 	sbc	a, a
    00000EE7 5F               [ 4] 3346 	ld	e, a
    00000EE8 57               [ 4] 3347 	ld	d, a
    00000EE9 7C               [ 4] 3348 	ld	a, h
    00000EEA C6 FE            [ 7] 3349 	add	a, #0xfe
    00000EEC 67               [ 4] 3350 	ld	h, a
                                   3351 ;	spillPairReg hl
                                   3352 ;	spillPairReg hl
    00000EED 7B               [ 4] 3353 	ld	a, e
    00000EEE CE 03            [ 7] 3354 	adc	a, #0x03
    00000EF0 5F               [ 4] 3355 	ld	e, a
    00000EF1 30 01            [12] 3356 	jr	NC, 00589$
    00000EF3 14               [ 4] 3357 	inc	d
    00000EF4                       3358 00589$:
                                   3359 ;E:/Dropbox/FAUSTO/SVILUPPI/MSX/CODE/C/MSXgl/engine/src/v9990.h:371: inline void V9_WriteVRAM(u32 addr, const u8* src, u16 count) { V9_SetWriteAddress(addr); V9_WriteVRAM_CurrentAddr(src, count); }
    00000EF4 C5               [11] 3360 	push	bc
    00000EF5 EB               [ 4] 3361 	ex	de, hl
    00000EF6 CDr00r00         [17] 3362 	call	_V9_SetWriteAddress
    00000EF9 11 04 00         [10] 3363 	ld	de, #0x0004
    00000EFC 21 02 00         [10] 3364 	ld	hl, #2
    00000EFF 39               [11] 3365 	add	hl, sp
    00000F00 CDr00r00         [17] 3366 	call	_V9_WriteVRAM_CurrentAddr
    00000F03 C1               [10] 3367 	pop	bc
                                   3368 ;E:\Dropbox\FAUSTO\SVILUPPI\MSX\CODE\C\MSXgl\projects\exsoccer/exsoccer_s2_b0.c:717: for(u8 i=0;i<32;i++){
    00000F04 0C               [ 4] 3369 	inc	c
    00000F05 C3rD4r0E         [10] 3370 	jp	00268$
    00000F08                       3371 00101$:
                                   3372 ;E:\Dropbox\FAUSTO\SVILUPPI\MSX\CODE\C\MSXgl\projects\exsoccer/exsoccer_s2_b0.c:722: V9_SetScrollingBY(1);
    00000F08 21 01 00         [10] 3373 	ld	hl, #0x0001
    00000F0B CDr00r00         [17] 3374 	call	_V9_SetScrollingBY
                                   3375 ;E:/Dropbox/FAUSTO/SVILUPPI/MSX/CODE/C/MSXgl/engine/src/v9990.h:258: inline void V9_SetFlag(u8 reg, u8 mask, u8 flag) { V9_SetRegister(reg, V9_GetRegister(reg) & (~mask) | flag); }
    00000F0E 3E 08            [ 7] 3376 	ld	a, #0x08
    00000F10 CDr00r00         [17] 3377 	call	_V9_GetRegister
    00000F13 6F               [ 4] 3378 	ld	l, a
                                   3379 ;	spillPairReg hl
                                   3380 ;	spillPairReg hl
    00000F14 CB BD            [ 8] 3381 	res	7, l
    00000F16 3E 08            [ 7] 3382 	ld	a, #0x08
    00000F18 CDr00r00         [17] 3383 	call	_V9_SetRegister
                                   3384 ;E:/Dropbox/FAUSTO/SVILUPPI/MSX/CODE/C/MSXgl/engine/src/v9990.h:353: inline void V9_FillVRAM(u32 addr, u8 value, u16 count) { V9_SetWriteAddress(addr); V9_FillVRAM_CurrentAddr(value, count); }
    00000F1B 11 00 00         [10] 3385 	ld	de, #0x0000
    00000F1E 21 04 00         [10] 3386 	ld	hl, #0x0004
    00000F21 CDr00r00         [17] 3387 	call	_V9_SetWriteAddress
    00000F24 11 00 6A         [10] 3388 	ld	de, #0x6a00
    00000F27 AF               [ 4] 3389 	xor	a, a
    00000F28 CDr00r00         [17] 3390 	call	_V9_FillVRAM_CurrentAddr
                                   3391 ;E:/Dropbox/FAUSTO/SVILUPPI/MSX/CODE/C/MSXgl/engine/src/rom_mapper.h:112: g_Bank0Segment[b] = s;
    00000F2B 21 12 00         [10] 3392 	ld	hl, #0x0012
    00000F2E 22r04r00         [16] 3393 	ld	((_g_Bank0Segment + 4)), hl
                                   3394 ;E:/Dropbox/FAUSTO/SVILUPPI/MSX/CODE/C/MSXgl/engine/src/system.h:109: inline void Poke16(u16 addr, u16 val) { *(u16*)addr = val; }
    00000F31 22 00 70         [16] 3395 	ld	(0x7000), hl
                                   3396 ;E:\Dropbox\FAUSTO\SVILUPPI\MSX\CODE\C\MSXgl\projects\exsoccer/exsoccer_s2_b0.c:727: V9_WriteVRAM(V9_P1_PGT_B + 8192L, g_Teams_Gray_part1, sizeof(g_Teams_Gray_part1));
                                   3397 ;E:/Dropbox/FAUSTO/SVILUPPI/MSX/CODE/C/MSXgl/engine/src/v9990.h:371: inline void V9_WriteVRAM(u32 addr, const u8* src, u16 count) { V9_SetWriteAddress(addr); V9_WriteVRAM_CurrentAddr(src, count); }
    00000F34 11 00 20         [10] 3398 	ld	de, #0x2000
    00000F37 2E 04            [ 7] 3399 	ld	l, #0x04
    00000F39 CDr00r00         [17] 3400 	call	_V9_SetWriteAddress
    00000F3C 11 00 40         [10] 3401 	ld	de, #0x4000
    00000F3F 21r00r00         [10] 3402 	ld	hl, #_g_Teams_Gray_part1
    00000F42 CDr00r00         [17] 3403 	call	_V9_WriteVRAM_CurrentAddr
                                   3404 ;E:/Dropbox/FAUSTO/SVILUPPI/MSX/CODE/C/MSXgl/engine/src/rom_mapper.h:112: g_Bank0Segment[b] = s;
    00000F45 21 13 00         [10] 3405 	ld	hl, #0x0013
    00000F48 22r04r00         [16] 3406 	ld	((_g_Bank0Segment + 4)), hl
                                   3407 ;E:/Dropbox/FAUSTO/SVILUPPI/MSX/CODE/C/MSXgl/engine/src/system.h:109: inline void Poke16(u16 addr, u16 val) { *(u16*)addr = val; }
    00000F4B 22 00 70         [16] 3408 	ld	(0x7000), hl
                                   3409 ;E:\Dropbox\FAUSTO\SVILUPPI\MSX\CODE\C\MSXgl\projects\exsoccer/exsoccer_s2_b0.c:729: V9_WriteVRAM(V9_P1_PGT_B + 8192L + 16384L, g_Teams_Gray_part2, sizeof(g_Teams_Gray_part2));
                                   3410 ;E:/Dropbox/FAUSTO/SVILUPPI/MSX/CODE/C/MSXgl/engine/src/v9990.h:371: inline void V9_WriteVRAM(u32 addr, const u8* src, u16 count) { V9_SetWriteAddress(addr); V9_WriteVRAM_CurrentAddr(src, count); }
    00000F4E 11 00 60         [10] 3411 	ld	de, #0x6000
    00000F51 2E 04            [ 7] 3412 	ld	l, #0x04
    00000F53 CDr00r00         [17] 3413 	call	_V9_SetWriteAddress
    00000F56 11 00 10         [10] 3414 	ld	de, #0x1000
    00000F59 21r00r00         [10] 3415 	ld	hl, #_g_Teams_Gray_part2
    00000F5C CDr00r00         [17] 3416 	call	_V9_WriteVRAM_CurrentAddr
                                   3417 ;E:/Dropbox/FAUSTO/SVILUPPI/MSX/CODE/C/MSXgl/engine/src/v9990.h:362: inline void V9_FillVRAM16(u32 addr, u16 value, u16 count) { V9_SetWriteAddress(addr); V9_FillVRAM16_CurrentAddr(value, count); }
    00000F5F 11 00 E0         [10] 3418 	ld	de, #0xe000
    00000F62 21 07 00         [10] 3419 	ld	hl, #0x0007
    00000F65 CDr00r00         [17] 3420 	call	_V9_SetWriteAddress
    00000F68 11 00 10         [10] 3421 	ld	de, #0x1000
    00000F6B 21 00 00         [10] 3422 	ld	hl, #0x0000
    00000F6E CDr00r00         [17] 3423 	call	_V9_FillVRAM16_CurrentAddr
                                   3424 ;E:\Dropbox\FAUSTO\SVILUPPI\MSX\CODE\C\MSXgl\projects\exsoccer/exsoccer_s2_b0.c:732: V9_SetPalette(16, 16, g_Teams_Gray_palette);
    00000F71 01r00r00         [10] 3425 	ld	bc, #_g_Teams_Gray_palette+0
                                   3426 ;E:\Dropbox\FAUSTO\SVILUPPI\MSX\CODE\C\MSXgl\projects\exsoccer/exsoccer_s2_b0.c:1028: return; 
                                   3427 ;	spillPairReg hl
                                   3428 ;	spillPairReg hl
    00000F74 21 10 00         [10] 3429 	ld	hl, #0x10
                                   3430 ;	spillPairReg hl
                                   3431 ;	spillPairReg hl
    00000F77                       3432 00271$:
    00000F77 7C               [ 4] 3433 	ld	a, h
    00000F78 D6 10            [ 7] 3434 	sub	a, #0x10
    00000F7A 30 17            [12] 3435 	jr	NC, 00168$
    00000F7C DD 75 FF         [19] 3436 	ld	-1 (ix), l
    00000F7F 2C               [ 4] 3437 	inc	l
    00000F80 E5               [11] 3438 	push	hl
    00000F81 C5               [11] 3439 	push	bc
    00000F82 59               [ 4] 3440 	ld	e, c
    00000F83 50               [ 4] 3441 	ld	d, b
    00000F84 DD 7E FF         [19] 3442 	ld	a, -1 (ix)
    00000F87 CDr00r00         [17] 3443 	call	_V9_SetPaletteEntry
    00000F8A C1               [10] 3444 	pop	bc
    00000F8B E1               [10] 3445 	pop	hl
    00000F8C 03               [ 6] 3446 	inc	bc
    00000F8D 03               [ 6] 3447 	inc	bc
    00000F8E 03               [ 6] 3448 	inc	bc
    00000F8F 24               [ 4] 3449 	inc	h
    00000F90 C3r77r0F         [10] 3450 	jp	00271$
                                   3451 ;E:\Dropbox\FAUSTO\SVILUPPI\MSX\CODE\C\MSXgl\projects\exsoccer/exsoccer_s2_b0.c:732: V9_SetPalette(16, 16, g_Teams_Gray_palette);
    00000F93                       3452 00168$:
                                   3453 ;E:/Dropbox/FAUSTO/SVILUPPI/MSX/CODE/C/MSXgl/engine/src/rom_mapper.h:112: g_Bank0Segment[b] = s;
    00000F93 21 11 00         [10] 3454 	ld	hl, #0x0011
    00000F96 22r04r00         [16] 3455 	ld	((_g_Bank0Segment + 4)), hl
                                   3456 ;E:/Dropbox/FAUSTO/SVILUPPI/MSX/CODE/C/MSXgl/engine/src/system.h:109: inline void Poke16(u16 addr, u16 val) { *(u16*)addr = val; }
    00000F99 22 00 70         [16] 3457 	ld	(0x7000), hl
                                   3458 ;E:\Dropbox\FAUSTO\SVILUPPI\MSX\CODE\C\MSXgl\projects\exsoccer/exsoccer_s2_b0.c:737: V9_SetPalette(0, 16, g_Teams_palette);
    00000F9C 01r00r00         [10] 3459 	ld	bc, #_g_Teams_palette+0
                                   3460 ;E:\Dropbox\FAUSTO\SVILUPPI\MSX\CODE\C\MSXgl\projects\exsoccer/exsoccer_s2_b0.c:1028: return; 
                                   3461 ;	spillPairReg hl
                                   3462 ;	spillPairReg hl
    00000F9F 21 00 00         [10] 3463 	ld	hl, #0x0
                                   3464 ;	spillPairReg hl
                                   3465 ;	spillPairReg hl
    00000FA2                       3466 00274$:
    00000FA2 7C               [ 4] 3467 	ld	a, h
    00000FA3 D6 10            [ 7] 3468 	sub	a, #0x10
    00000FA5 30 17            [12] 3469 	jr	NC, 00182$
    00000FA7 DD 75 FF         [19] 3470 	ld	-1 (ix), l
    00000FAA 2C               [ 4] 3471 	inc	l
    00000FAB E5               [11] 3472 	push	hl
    00000FAC C5               [11] 3473 	push	bc
    00000FAD 59               [ 4] 3474 	ld	e, c
    00000FAE 50               [ 4] 3475 	ld	d, b
    00000FAF DD 7E FF         [19] 3476 	ld	a, -1 (ix)
    00000FB2 CDr00r00         [17] 3477 	call	_V9_SetPaletteEntry
    00000FB5 C1               [10] 3478 	pop	bc
    00000FB6 E1               [10] 3479 	pop	hl
    00000FB7 03               [ 6] 3480 	inc	bc
    00000FB8 03               [ 6] 3481 	inc	bc
    00000FB9 03               [ 6] 3482 	inc	bc
    00000FBA 24               [ 4] 3483 	inc	h
    00000FBB C3rA2r0F         [10] 3484 	jp	00274$
                                   3485 ;E:\Dropbox\FAUSTO\SVILUPPI\MSX\CODE\C\MSXgl\projects\exsoccer/exsoccer_s2_b0.c:737: V9_SetPalette(0, 16, g_Teams_palette);
    00000FBE                       3486 00182$:
                                   3487 ;E:/Dropbox/FAUSTO/SVILUPPI/MSX/CODE/C/MSXgl/engine/src/rom_mapper.h:112: g_Bank0Segment[b] = s;
    00000FBE 21 01 00         [10] 3488 	ld	hl, #0x0001
    00000FC1 22r04r00         [16] 3489 	ld	((_g_Bank0Segment + 4)), hl
                                   3490 ;E:/Dropbox/FAUSTO/SVILUPPI/MSX/CODE/C/MSXgl/engine/src/system.h:109: inline void Poke16(u16 addr, u16 val) { *(u16*)addr = val; }
    00000FC4 22 00 70         [16] 3491 	ld	(0x7000), hl
                                   3492 ;E:/Dropbox/FAUSTO/SVILUPPI/MSX/CODE/C/MSXgl/engine/src/v9990.h:1047: inline void V9_SelectPaletteP1(u8 a, u8 b) { V9_SetRegister(13, ((b & 0x3) << 2) + (a & 0x3)); }
    00000FC7 3E 01            [ 7] 3493 	ld	a, #0x01
    00000FC9 E6 03            [ 7] 3494 	and	a, #0x03
    00000FCB 87               [ 4] 3495 	add	a, a
    00000FCC 87               [ 4] 3496 	add	a, a
    00000FCD 4F               [ 4] 3497 	ld	c, a
    00000FCE AF               [ 4] 3498 	xor	a, a
    00000FCF E6 03            [ 7] 3499 	and	a, #0x03
    00000FD1 81               [ 4] 3500 	add	a, c
    00000FD2 6F               [ 4] 3501 	ld	l, a
                                   3502 ;	spillPairReg hl
                                   3503 ;	spillPairReg hl
    00000FD3 3E 0D            [ 7] 3504 	ld	a, #0x0d
    00000FD5 CDr00r00         [17] 3505 	call	_V9_SetRegister
                                   3506 ;E:\Dropbox\FAUSTO\SVILUPPI\MSX\CODE\C\MSXgl\projects\exsoccer/exsoccer_s2_b0.c:740: for (u8 y=0;y<64;y++){
    00000FD8 0E 00            [ 7] 3507 	ld	c, #0x00
    00000FDA                       3508 00280$:
    00000FDA 79               [ 4] 3509 	ld	a, c
    00000FDB D6 40            [ 7] 3510 	sub	a, #0x40
    00000FDD 30 1A            [12] 3511 	jr	NC, 00103$
                                   3512 ;E:\Dropbox\FAUSTO\SVILUPPI\MSX\CODE\C\MSXgl\projects\exsoccer/exsoccer_s2_b0.c:741: for (u8 x=0;x<64;x++){
    00000FDF 06 00            [ 7] 3513 	ld	b, #0x00
    00000FE1                       3514 00277$:
    00000FE1 78               [ 4] 3515 	ld	a, b
    00000FE2 D6 40            [ 7] 3516 	sub	a, #0x40
    00000FE4 30 0F            [12] 3517 	jr	NC, 00281$
                                   3518 ;E:\Dropbox\FAUSTO\SVILUPPI\MSX\CODE\C\MSXgl\projects\exsoccer/exsoccer_s2_b0.c:742: V9_PutLayerATileAtPos(x,y,32);
    00000FE6 C5               [11] 3519 	push	bc
    00000FE7 21 20 00         [10] 3520 	ld	hl, #0x0020
    00000FEA E5               [11] 3521 	push	hl
    00000FEB 69               [ 4] 3522 	ld	l, c
                                   3523 ;	spillPairReg hl
                                   3524 ;	spillPairReg hl
    00000FEC 78               [ 4] 3525 	ld	a, b
    00000FED CDr7Dr04         [17] 3526 	call	_V9_PutLayerATileAtPos
    00000FF0 C1               [10] 3527 	pop	bc
                                   3528 ;E:\Dropbox\FAUSTO\SVILUPPI\MSX\CODE\C\MSXgl\projects\exsoccer/exsoccer_s2_b0.c:741: for (u8 x=0;x<64;x++){
    00000FF1 04               [ 4] 3529 	inc	b
    00000FF2 C3rE1r0F         [10] 3530 	jp	00277$
    00000FF5                       3531 00281$:
                                   3532 ;E:\Dropbox\FAUSTO\SVILUPPI\MSX\CODE\C\MSXgl\projects\exsoccer/exsoccer_s2_b0.c:740: for (u8 y=0;y<64;y++){
    00000FF5 0C               [ 4] 3533 	inc	c
    00000FF6 C3rDAr0F         [10] 3534 	jp	00280$
    00000FF9                       3535 00103$:
                                   3536 ;E:\Dropbox\FAUSTO\SVILUPPI\MSX\CODE\C\MSXgl\projects\exsoccer/exsoccer_s2_b0.c:745: for (u8 y=5;y<25;y++){
    00000FF9 0E 05            [ 7] 3537 	ld	c, #0x05
    00000FFB                       3538 00286$:
                                   3539 ;E:\Dropbox\FAUSTO\SVILUPPI\MSX\CODE\C\MSXgl\projects\exsoccer/exsoccer_s2_b0.c:746: u16 tileId=256+32*(y-5);
    00000FFB 79               [ 4] 3540 	ld	a,c
    00000FFC FE 19            [ 7] 3541 	cp	a,#0x19
    00000FFE 30 36            [12] 3542 	jr	NC, 00105$
    00001000 06 00            [ 7] 3543 	ld	b, #0x00
    00001002 C6 FB            [ 7] 3544 	add	a, #0xfb
    00001004 6F               [ 4] 3545 	ld	l, a
                                   3546 ;	spillPairReg hl
                                   3547 ;	spillPairReg hl
    00001005 78               [ 4] 3548 	ld	a, b
    00001006 CE FF            [ 7] 3549 	adc	a, #0xff
    00001008 67               [ 4] 3550 	ld	h, a
                                   3551 ;	spillPairReg hl
                                   3552 ;	spillPairReg hl
    00001009 29               [11] 3553 	add	hl, hl
    0000100A 29               [11] 3554 	add	hl, hl
    0000100B 29               [11] 3555 	add	hl, hl
    0000100C 29               [11] 3556 	add	hl, hl
    0000100D 29               [11] 3557 	add	hl, hl
    0000100E 5D               [ 4] 3558 	ld	e, l
    0000100F 7C               [ 4] 3559 	ld	a, h
    00001010 3C               [ 4] 3560 	inc	a
    00001011 57               [ 4] 3561 	ld	d, a
                                   3562 ;E:\Dropbox\FAUSTO\SVILUPPI\MSX\CODE\C\MSXgl\projects\exsoccer/exsoccer_s2_b0.c:747: for (u8 x=1;x<31;x++){
    00001012 06 01            [ 7] 3563 	ld	b, #0x01
    00001014                       3564 00283$:
    00001014 78               [ 4] 3565 	ld	a, b
    00001015 D6 1F            [ 7] 3566 	sub	a, #0x1f
    00001017 30 19            [12] 3567 	jr	NC, 00287$
                                   3568 ;E:\Dropbox\FAUSTO\SVILUPPI\MSX\CODE\C\MSXgl\projects\exsoccer/exsoccer_s2_b0.c:748: V9_PutLayerATileAtPos(x,y,tileId);
    00001019 C5               [11] 3569 	push	bc
    0000101A D5               [11] 3570 	push	de
    0000101B D5               [11] 3571 	push	de
    0000101C 69               [ 4] 3572 	ld	l, c
                                   3573 ;	spillPairReg hl
                                   3574 ;	spillPairReg hl
    0000101D 78               [ 4] 3575 	ld	a, b
    0000101E CDr7Dr04         [17] 3576 	call	_V9_PutLayerATileAtPos
    00001021 D1               [10] 3577 	pop	de
    00001022 C1               [10] 3578 	pop	bc
                                   3579 ;E:\Dropbox\FAUSTO\SVILUPPI\MSX\CODE\C\MSXgl\projects\exsoccer/exsoccer_s2_b0.c:749: V9_PutLayerBTileAtPos(x,y,tileId);
    00001023 C5               [11] 3580 	push	bc
    00001024 D5               [11] 3581 	push	de
    00001025 D5               [11] 3582 	push	de
    00001026 69               [ 4] 3583 	ld	l, c
                                   3584 ;	spillPairReg hl
                                   3585 ;	spillPairReg hl
    00001027 78               [ 4] 3586 	ld	a, b
    00001028 CDrB8r04         [17] 3587 	call	_V9_PutLayerBTileAtPos
    0000102B D1               [10] 3588 	pop	de
    0000102C C1               [10] 3589 	pop	bc
                                   3590 ;E:\Dropbox\FAUSTO\SVILUPPI\MSX\CODE\C\MSXgl\projects\exsoccer/exsoccer_s2_b0.c:750: tileId++;
    0000102D 13               [ 6] 3591 	inc	de
                                   3592 ;E:\Dropbox\FAUSTO\SVILUPPI\MSX\CODE\C\MSXgl\projects\exsoccer/exsoccer_s2_b0.c:747: for (u8 x=1;x<31;x++){
    0000102E 04               [ 4] 3593 	inc	b
    0000102F C3r14r10         [10] 3594 	jp	00283$
    00001032                       3595 00287$:
                                   3596 ;E:\Dropbox\FAUSTO\SVILUPPI\MSX\CODE\C\MSXgl\projects\exsoccer/exsoccer_s2_b0.c:745: for (u8 y=5;y<25;y++){
    00001032 0C               [ 4] 3597 	inc	c
    00001033 C3rFBr0F         [10] 3598 	jp	00286$
    00001036                       3599 00105$:
                                   3600 ;E:\Dropbox\FAUSTO\SVILUPPI\MSX\CODE\C\MSXgl\projects\exsoccer/exsoccer_s2_b0.c:753: LoadSprites();
    00001036 CDr00r00         [17] 3601 	call	_LoadSprites
                                   3602 ;E:/Dropbox/FAUSTO/SVILUPPI/MSX/CODE/C/MSXgl/engine/src/v9990.h:574: inline void V9_SetInterrupt(u8 flags) { V9_SetRegister(9, flags); }
    00001039 2E 01            [ 7] 3603 	ld	l, #0x01
                                   3604 ;	spillPairReg hl
                                   3605 ;	spillPairReg hl
    0000103B 3E 09            [ 7] 3606 	ld	a, #0x09
    0000103D CDr00r00         [17] 3607 	call	_V9_SetRegister
                                   3608 ;E:/Dropbox/FAUSTO/SVILUPPI/MSX/CODE/C/MSXgl/engine/src/v9990.h:258: inline void V9_SetFlag(u8 reg, u8 mask, u8 flag) { V9_SetRegister(reg, V9_GetRegister(reg) & (~mask) | flag); }
    00001040 3E 08            [ 7] 3609 	ld	a, #0x08
    00001042 CDr00r00         [17] 3610 	call	_V9_GetRegister
    00001045 CB BF            [ 8] 3611 	res	7, a
    00001047 6F               [ 4] 3612 	ld	l, a
                                   3613 ;	spillPairReg hl
                                   3614 ;	spillPairReg hl
    00001048 CB FD            [ 8] 3615 	set	7, l
    0000104A 3E 08            [ 7] 3616 	ld	a, #0x08
    0000104C CDr00r00         [17] 3617 	call	_V9_SetRegister
                                   3618 ;E:\Dropbox\FAUSTO\SVILUPPI\MSX\CODE\C\MSXgl\projects\exsoccer/exsoccer_s2_b0.c:763: V9_PrintLayerAStringAtPos(4,0,"    PLAYER TEAM SELECT");
    0000104F 21rE8r12         [10] 3619 	ld	hl, #___str_10
    00001052 E5               [11] 3620 	push	hl
    00001053 2E 00            [ 7] 3621 	ld	l, #0x00
                                   3622 ;	spillPairReg hl
                                   3623 ;	spillPairReg hl
    00001055 3E 04            [ 7] 3624 	ld	a, #0x04
    00001057 CDr00r00         [17] 3625 	call	_V9_PrintLayerAStringAtPos
                                   3626 ;E:\Dropbox\FAUSTO\SVILUPPI\MSX\CODE\C\MSXgl\projects\exsoccer/exsoccer_s2_b0.c:764: g_Team1PaletteId = SelectTeam(SPRITE_PLAYER, NO_VALUE);
    0000105A 2E FF            [ 7] 3627 	ld	l, #0xff
                                   3628 ;	spillPairReg hl
                                   3629 ;	spillPairReg hl
    0000105C 3E F5            [ 7] 3630 	ld	a, #0xf5
    0000105E CDr2Br0D         [17] 3631 	call	_SelectTeam
                                   3632 ;E:\Dropbox\FAUSTO\SVILUPPI\MSX\CODE\C\MSXgl\projects\exsoccer/exsoccer_s2_b0.c:767: for(u8 y=g_TeamGrayPos[g_Team1PaletteId].y;y<g_TeamGrayPos[g_Team1PaletteId].y+9;y++){
    00001061 32r00r00         [13] 3633 	ld	(_g_Team1PaletteId+0), a
    00001064 6F               [ 4] 3634 	ld	l, a
                                   3635 ;	spillPairReg hl
                                   3636 ;	spillPairReg hl
    00001065 26 00            [ 7] 3637 	ld	h, #0x00
                                   3638 ;	spillPairReg hl
                                   3639 ;	spillPairReg hl
    00001067 29               [11] 3640 	add	hl, hl
    00001068 29               [11] 3641 	add	hl, hl
    00001069 7D               [ 4] 3642 	ld	a, l
    0000106A C6r9F            [ 7] 3643 	add	a, #<(_g_TeamGrayPos)
    0000106C DD 77 FE         [19] 3644 	ld	-2 (ix), a
    0000106F 7C               [ 4] 3645 	ld	a, h
    00001070 CEs00            [ 7] 3646 	adc	a, #>(_g_TeamGrayPos)
    00001072 DD 77 FF         [19] 3647 	ld	-1 (ix), a
    00001075 DD 6E FE         [19] 3648 	ld	l, -2 (ix)
                                   3649 ;	spillPairReg hl
                                   3650 ;	spillPairReg hl
    00001078 DD 66 FF         [19] 3651 	ld	h, -1 (ix)
                                   3652 ;	spillPairReg hl
                                   3653 ;	spillPairReg hl
    0000107B 23               [ 6] 3654 	inc	hl
    0000107C 23               [ 6] 3655 	inc	hl
    0000107D 4E               [ 7] 3656 	ld	c, (hl)
    0000107E                       3657 00292$:
    0000107E DD 6E FE         [19] 3658 	ld	l, -2 (ix)
                                   3659 ;	spillPairReg hl
                                   3660 ;	spillPairReg hl
    00001081 DD 66 FF         [19] 3661 	ld	h, -1 (ix)
                                   3662 ;	spillPairReg hl
                                   3663 ;	spillPairReg hl
    00001084 23               [ 6] 3664 	inc	hl
    00001085 23               [ 6] 3665 	inc	hl
    00001086 5E               [ 7] 3666 	ld	e, (hl)
    00001087 23               [ 6] 3667 	inc	hl
    00001088 56               [ 7] 3668 	ld	d, (hl)
    00001089 21 09 00         [10] 3669 	ld	hl, #0x0009
    0000108C 19               [11] 3670 	add	hl, de
    0000108D EB               [ 4] 3671 	ex	de, hl
    0000108E 69               [ 4] 3672 	ld	l, c
                                   3673 ;	spillPairReg hl
                                   3674 ;	spillPairReg hl
                                   3675 ;	spillPairReg hl
                                   3676 ;	spillPairReg hl
    0000108F AF               [ 4] 3677 	xor	a, a
    00001090 67               [ 4] 3678 	ld	h, a
    00001091 ED 52            [15] 3679 	sbc	hl, de
    00001093 30 43            [12] 3680 	jr	NC, 00107$
                                   3681 ;E:\Dropbox\FAUSTO\SVILUPPI\MSX\CODE\C\MSXgl\projects\exsoccer/exsoccer_s2_b0.c:768: for(u8 x=g_TeamGrayPos[g_Team1PaletteId].x;x<g_TeamGrayPos[g_Team1PaletteId].x+10;x++){
    00001095 DD 6E FE         [19] 3682 	ld	l, -2 (ix)
    00001098 DD 66 FF         [19] 3683 	ld	h, -1 (ix)
    0000109B 46               [ 7] 3684 	ld	b, (hl)
    0000109C                       3685 00289$:
                                   3686 ;E:\Dropbox\FAUSTO\SVILUPPI\MSX\CODE\C\MSXgl\projects\exsoccer/exsoccer_s2_b0.c:767: for(u8 y=g_TeamGrayPos[g_Team1PaletteId].y;y<g_TeamGrayPos[g_Team1PaletteId].y+9;y++){
    0000109C 3Ar00r00         [13] 3687 	ld	a, (_g_Team1PaletteId+0)
    0000109F 6F               [ 4] 3688 	ld	l, a
                                   3689 ;	spillPairReg hl
                                   3690 ;	spillPairReg hl
    000010A0 26 00            [ 7] 3691 	ld	h, #0x00
                                   3692 ;	spillPairReg hl
                                   3693 ;	spillPairReg hl
    000010A2 29               [11] 3694 	add	hl, hl
    000010A3 29               [11] 3695 	add	hl, hl
    000010A4 7D               [ 4] 3696 	ld	a, l
    000010A5 C6r9F            [ 7] 3697 	add	a, #<(_g_TeamGrayPos)
    000010A7 DD 77 FE         [19] 3698 	ld	-2 (ix), a
    000010AA 7C               [ 4] 3699 	ld	a, h
    000010AB CEs00            [ 7] 3700 	adc	a, #>(_g_TeamGrayPos)
    000010AD DD 77 FF         [19] 3701 	ld	-1 (ix), a
                                   3702 ;E:\Dropbox\FAUSTO\SVILUPPI\MSX\CODE\C\MSXgl\projects\exsoccer/exsoccer_s2_b0.c:768: for(u8 x=g_TeamGrayPos[g_Team1PaletteId].x;x<g_TeamGrayPos[g_Team1PaletteId].x+10;x++){
    000010B0 DD 6E FE         [19] 3703 	ld	l, -2 (ix)
    000010B3 DD 66 FF         [19] 3704 	ld	h, -1 (ix)
    000010B6 5E               [ 7] 3705 	ld	e, (hl)
    000010B7 23               [ 6] 3706 	inc	hl
    000010B8 56               [ 7] 3707 	ld	d, (hl)
    000010B9 21 0A 00         [10] 3708 	ld	hl, #0x000a
    000010BC 19               [11] 3709 	add	hl, de
    000010BD EB               [ 4] 3710 	ex	de, hl
    000010BE 68               [ 4] 3711 	ld	l, b
                                   3712 ;	spillPairReg hl
                                   3713 ;	spillPairReg hl
                                   3714 ;	spillPairReg hl
                                   3715 ;	spillPairReg hl
    000010BF AF               [ 4] 3716 	xor	a, a
    000010C0 67               [ 4] 3717 	ld	h, a
    000010C1 ED 52            [15] 3718 	sbc	hl, de
    000010C3 30 0F            [12] 3719 	jr	NC, 00293$
                                   3720 ;E:\Dropbox\FAUSTO\SVILUPPI\MSX\CODE\C\MSXgl\projects\exsoccer/exsoccer_s2_b0.c:769: V9_PutLayerATileAtPos(x,y,0);
    000010C5 C5               [11] 3721 	push	bc
    000010C6 21 00 00         [10] 3722 	ld	hl, #0x0000
    000010C9 E5               [11] 3723 	push	hl
    000010CA 69               [ 4] 3724 	ld	l, c
                                   3725 ;	spillPairReg hl
                                   3726 ;	spillPairReg hl
    000010CB 78               [ 4] 3727 	ld	a, b
    000010CC CDr7Dr04         [17] 3728 	call	_V9_PutLayerATileAtPos
    000010CF C1               [10] 3729 	pop	bc
                                   3730 ;E:\Dropbox\FAUSTO\SVILUPPI\MSX\CODE\C\MSXgl\projects\exsoccer/exsoccer_s2_b0.c:768: for(u8 x=g_TeamGrayPos[g_Team1PaletteId].x;x<g_TeamGrayPos[g_Team1PaletteId].x+10;x++){
    000010D0 04               [ 4] 3731 	inc	b
    000010D1 C3r9Cr10         [10] 3732 	jp	00289$
    000010D4                       3733 00293$:
                                   3734 ;E:\Dropbox\FAUSTO\SVILUPPI\MSX\CODE\C\MSXgl\projects\exsoccer/exsoccer_s2_b0.c:767: for(u8 y=g_TeamGrayPos[g_Team1PaletteId].y;y<g_TeamGrayPos[g_Team1PaletteId].y+9;y++){
    000010D4 0C               [ 4] 3735 	inc	c
    000010D5 C3r7Er10         [10] 3736 	jp	00292$
    000010D8                       3737 00107$:
                                   3738 ;E:\Dropbox\FAUSTO\SVILUPPI\MSX\CODE\C\MSXgl\projects\exsoccer/exsoccer_s2_b0.c:773: SpriteBlinking();
    000010D8 CDr00r00         [17] 3739 	call	_SpriteBlinking
                                   3740 ;E:\Dropbox\FAUSTO\SVILUPPI\MSX\CODE\C\MSXgl\projects\exsoccer/exsoccer_s2_b0.c:777: V9_PrintLayerAStringAtPos(4,0,"     CPU TEAM SELECT   ");
    000010DB 21rFFr12         [10] 3741 	ld	hl, #___str_11
    000010DE E5               [11] 3742 	push	hl
    000010DF 2E 00            [ 7] 3743 	ld	l, #0x00
                                   3744 ;	spillPairReg hl
                                   3745 ;	spillPairReg hl
    000010E1 3E 04            [ 7] 3746 	ld	a, #0x04
    000010E3 CDr00r00         [17] 3747 	call	_V9_PrintLayerAStringAtPos
                                   3748 ;E:\Dropbox\FAUSTO\SVILUPPI\MSX\CODE\C\MSXgl\projects\exsoccer/exsoccer_s2_b0.c:779: g_Team2PaletteId = SelectTeam(SPRITE_CPU, g_Team1PaletteId);
    000010E6 3Ar00r00         [13] 3749 	ld	a, (_g_Team1PaletteId+0)
    000010E9 6F               [ 4] 3750 	ld	l, a
                                   3751 ;	spillPairReg hl
                                   3752 ;	spillPairReg hl
    000010EA 3E F5            [ 7] 3753 	ld	a, #0xf5
    000010EC CDr2Br0D         [17] 3754 	call	_SelectTeam
                                   3755 ;E:\Dropbox\FAUSTO\SVILUPPI\MSX\CODE\C\MSXgl\projects\exsoccer/exsoccer_s2_b0.c:782: for(u8 y=g_TeamGrayPos[g_Team2PaletteId].y;y<g_TeamGrayPos[g_Team2PaletteId].y+9;y++){
    000010EF 32r00r00         [13] 3756 	ld	(_g_Team2PaletteId+0), a
    000010F2 6F               [ 4] 3757 	ld	l, a
                                   3758 ;	spillPairReg hl
                                   3759 ;	spillPairReg hl
    000010F3 26 00            [ 7] 3760 	ld	h, #0x00
                                   3761 ;	spillPairReg hl
                                   3762 ;	spillPairReg hl
    000010F5 29               [11] 3763 	add	hl, hl
    000010F6 29               [11] 3764 	add	hl, hl
    000010F7 01r9Fr00         [10] 3765 	ld	bc,#_g_TeamGrayPos
    000010FA 09               [11] 3766 	add	hl,bc
    000010FB EB               [ 4] 3767 	ex	de, hl
    000010FC 4B               [ 4] 3768 	ld	c, e
    000010FD 42               [ 4] 3769 	ld	b, d
    000010FE 03               [ 6] 3770 	inc	bc
    000010FF 03               [ 6] 3771 	inc	bc
    00001100 0A               [ 7] 3772 	ld	a, (bc)
    00001101 DD 77 FE         [19] 3773 	ld	-2 (ix), a
    00001104                       3774 00298$:
    00001104 6B               [ 4] 3775 	ld	l, e
                                   3776 ;	spillPairReg hl
                                   3777 ;	spillPairReg hl
    00001105 62               [ 4] 3778 	ld	h, d
                                   3779 ;	spillPairReg hl
                                   3780 ;	spillPairReg hl
    00001106 23               [ 6] 3781 	inc	hl
    00001107 23               [ 6] 3782 	inc	hl
    00001108 4E               [ 7] 3783 	ld	c, (hl)
    00001109 23               [ 6] 3784 	inc	hl
    0000110A 46               [ 7] 3785 	ld	b, (hl)
    0000110B 21 09 00         [10] 3786 	ld	hl, #0x0009
    0000110E 09               [11] 3787 	add	hl, bc
    0000110F DD 7E FE         [19] 3788 	ld	a, -2 (ix)
    00001112 06 00            [ 7] 3789 	ld	b, #0x00
    00001114 95               [ 4] 3790 	sub	a, l
    00001115 78               [ 4] 3791 	ld	a, b
    00001116 9C               [ 4] 3792 	sbc	a, h
    00001117 30 3C            [12] 3793 	jr	NC, 00109$
                                   3794 ;E:\Dropbox\FAUSTO\SVILUPPI\MSX\CODE\C\MSXgl\projects\exsoccer/exsoccer_s2_b0.c:783: for(u8 x=g_TeamGrayPos[g_Team2PaletteId].x;x<g_TeamGrayPos[g_Team2PaletteId].x+10;x++){
    00001119 1A               [ 7] 3795 	ld	a, (de)
    0000111A DD 77 FF         [19] 3796 	ld	-1 (ix), a
    0000111D                       3797 00295$:
                                   3798 ;E:\Dropbox\FAUSTO\SVILUPPI\MSX\CODE\C\MSXgl\projects\exsoccer/exsoccer_s2_b0.c:782: for(u8 y=g_TeamGrayPos[g_Team2PaletteId].y;y<g_TeamGrayPos[g_Team2PaletteId].y+9;y++){
    0000111D 3Ar00r00         [13] 3799 	ld	a, (_g_Team2PaletteId+0)
    00001120 26 00            [ 7] 3800 	ld	h, #0x00
                                   3801 ;	spillPairReg hl
                                   3802 ;	spillPairReg hl
    00001122 6F               [ 4] 3803 	ld	l, a
                                   3804 ;	spillPairReg hl
                                   3805 ;	spillPairReg hl
    00001123 29               [11] 3806 	add	hl, hl
    00001124 29               [11] 3807 	add	hl, hl
    00001125 11r9Fr00         [10] 3808 	ld	de, #_g_TeamGrayPos
    00001128 19               [11] 3809 	add	hl, de
                                   3810 ;E:\Dropbox\FAUSTO\SVILUPPI\MSX\CODE\C\MSXgl\projects\exsoccer/exsoccer_s2_b0.c:783: for(u8 x=g_TeamGrayPos[g_Team2PaletteId].x;x<g_TeamGrayPos[g_Team2PaletteId].x+10;x++){
    00001129 5D               [ 4] 3811 	ld	e, l
    0000112A 54               [ 4] 3812 	ld	d, h
    0000112B 4E               [ 7] 3813 	ld	c, (hl)
    0000112C 23               [ 6] 3814 	inc	hl
    0000112D 46               [ 7] 3815 	ld	b, (hl)
    0000112E 21 0A 00         [10] 3816 	ld	hl, #0x000a
    00001131 09               [11] 3817 	add	hl, bc
    00001132 DD 7E FF         [19] 3818 	ld	a, -1 (ix)
    00001135 06 00            [ 7] 3819 	ld	b, #0x00
    00001137 95               [ 4] 3820 	sub	a, l
    00001138 78               [ 4] 3821 	ld	a, b
    00001139 9C               [ 4] 3822 	sbc	a, h
    0000113A 30 13            [12] 3823 	jr	NC, 00299$
                                   3824 ;E:\Dropbox\FAUSTO\SVILUPPI\MSX\CODE\C\MSXgl\projects\exsoccer/exsoccer_s2_b0.c:784: V9_PutLayerATileAtPos(x,y,0);
    0000113C 21 00 00         [10] 3825 	ld	hl, #0x0000
    0000113F E5               [11] 3826 	push	hl
    00001140 DD 6E FE         [19] 3827 	ld	l, -2 (ix)
                                   3828 ;	spillPairReg hl
                                   3829 ;	spillPairReg hl
    00001143 DD 7E FF         [19] 3830 	ld	a, -1 (ix)
    00001146 CDr7Dr04         [17] 3831 	call	_V9_PutLayerATileAtPos
                                   3832 ;E:\Dropbox\FAUSTO\SVILUPPI\MSX\CODE\C\MSXgl\projects\exsoccer/exsoccer_s2_b0.c:783: for(u8 x=g_TeamGrayPos[g_Team2PaletteId].x;x<g_TeamGrayPos[g_Team2PaletteId].x+10;x++){
    00001149 DD 34 FF         [23] 3833 	inc	-1 (ix)
    0000114C C3r1Dr11         [10] 3834 	jp	00295$
    0000114F                       3835 00299$:
                                   3836 ;E:\Dropbox\FAUSTO\SVILUPPI\MSX\CODE\C\MSXgl\projects\exsoccer/exsoccer_s2_b0.c:782: for(u8 y=g_TeamGrayPos[g_Team2PaletteId].y;y<g_TeamGrayPos[g_Team2PaletteId].y+9;y++){
    0000114F DD 34 FE         [23] 3837 	inc	-2 (ix)
    00001152 C3r04r11         [10] 3838 	jp	00298$
    00001155                       3839 00109$:
                                   3840 ;E:\Dropbox\FAUSTO\SVILUPPI\MSX\CODE\C\MSXgl\projects\exsoccer/exsoccer_s2_b0.c:789: SpriteBlinking();
    00001155 CDr00r00         [17] 3841 	call	_SpriteBlinking
                                   3842 ;E:\Dropbox\FAUSTO\SVILUPPI\MSX\CODE\C\MSXgl\projects\exsoccer/exsoccer_s2_b0.c:791: attr.D = 1; 
    00001158 21 03 00         [10] 3843 	ld	hl, #3
    0000115B 39               [11] 3844 	add	hl, sp
    0000115C CB E6            [15] 3845 	set	4, (hl)
                                   3846 ;E:\Dropbox\FAUSTO\SVILUPPI\MSX\CODE\C\MSXgl\projects\exsoccer/exsoccer_s2_b0.c:792: V9_SetSpriteP1(0, &attr);
                                   3847 ;E:/Dropbox/FAUSTO/SVILUPPI/MSX/CODE/C/MSXgl/engine/src/v9990.h:781: inline void V9_SetSpriteP1(u8 id, const V9_Sprite* attr) { V9_WriteVRAM(V9_P1_SPAT + (id * 4), (const u8*)attr, 4); }
                                   3848 ;E:/Dropbox/FAUSTO/SVILUPPI/MSX/CODE/C/MSXgl/engine/src/v9990.h:371: inline void V9_WriteVRAM(u32 addr, const u8* src, u16 count) { V9_SetWriteAddress(addr); V9_WriteVRAM_CurrentAddr(src, count); }
    0000115E 11 00 FE         [10] 3849 	ld	de, #0xfe00
    00001161 21 03 00         [10] 3850 	ld	hl, #0x0003
    00001164 CDr00r00         [17] 3851 	call	_V9_SetWriteAddress
    00001167 11 04 00         [10] 3852 	ld	de, #0x0004
    0000116A 21 00 00         [10] 3853 	ld	hl, #0
    0000116D 39               [11] 3854 	add	hl, sp
    0000116E CDr00r00         [17] 3855 	call	_V9_WriteVRAM_CurrentAddr
                                   3856 ;E:/Dropbox/FAUSTO/SVILUPPI/MSX/CODE/C/MSXgl/engine/src/v9990.h:258: inline void V9_SetFlag(u8 reg, u8 mask, u8 flag) { V9_SetRegister(reg, V9_GetRegister(reg) & (~mask) | flag); }
    00001171 3E 08            [ 7] 3857 	ld	a, #0x08
    00001173 CDr00r00         [17] 3858 	call	_V9_GetRegister
    00001176 6F               [ 4] 3859 	ld	l, a
                                   3860 ;	spillPairReg hl
                                   3861 ;	spillPairReg hl
    00001177 CB B5            [ 8] 3862 	res	6, l
    00001179 3E 08            [ 7] 3863 	ld	a, #0x08
    0000117B CDr00r00         [17] 3864 	call	_V9_SetRegister
    0000117E 3E 08            [ 7] 3865 	ld	a, #0x08
    00001180 CDr00r00         [17] 3866 	call	_V9_GetRegister
    00001183 6F               [ 4] 3867 	ld	l, a
                                   3868 ;	spillPairReg hl
                                   3869 ;	spillPairReg hl
    00001184 CB BD            [ 8] 3870 	res	7, l
    00001186 3E 08            [ 7] 3871 	ld	a, #0x08
    00001188 CDr00r00         [17] 3872 	call	_V9_SetRegister
                                   3873 ;E:\Dropbox\FAUSTO\SVILUPPI\MSX\CODE\C\MSXgl\projects\exsoccer/exsoccer_s2_b0.c:799: if(g_ShowButtonsInfo){
    0000118B 3Ar00r00         [13] 3874 	ld	a, (_g_ShowButtonsInfo+0)
    0000118E B7               [ 4] 3875 	or	a, a
    0000118F CAr87r12         [10] 3876 	jp	Z, 00116$
                                   3877 ;E:\Dropbox\FAUSTO\SVILUPPI\MSX\CODE\C\MSXgl\projects\exsoccer/exsoccer_s2_b0.c:800: g_ShowButtonsInfo=false;
    00001192 21r00r00         [10] 3878 	ld	hl, #_g_ShowButtonsInfo
                                   3879 ;E:/Dropbox/FAUSTO/SVILUPPI/MSX/CODE/C/MSXgl/engine/src/v9990.h:353: inline void V9_FillVRAM(u32 addr, u8 value, u16 count) { V9_SetWriteAddress(addr); V9_FillVRAM_CurrentAddr(value, count); }
    00001195 11 00 00         [10] 3880 	ld	de, #0x0000
    00001198 73               [ 7] 3881 	ld	(hl), e
    00001199 21 00 00         [10] 3882 	ld	hl, #0x0000
    0000119C CDr00r00         [17] 3883 	call	_V9_SetWriteAddress
    0000119F 11 00 6A         [10] 3884 	ld	de, #0x6a00
    000011A2 AF               [ 4] 3885 	xor	a, a
    000011A3 CDr00r00         [17] 3886 	call	_V9_FillVRAM_CurrentAddr
                                   3887 ;E:/Dropbox/FAUSTO/SVILUPPI/MSX/CODE/C/MSXgl/engine/src/rom_mapper.h:112: g_Bank0Segment[b] = s;
    000011A6 21 14 00         [10] 3888 	ld	hl, #0x0014
    000011A9 22r04r00         [16] 3889 	ld	((_g_Bank0Segment + 4)), hl
                                   3890 ;E:/Dropbox/FAUSTO/SVILUPPI/MSX/CODE/C/MSXgl/engine/src/system.h:109: inline void Poke16(u16 addr, u16 val) { *(u16*)addr = val; }
    000011AC 22 00 70         [16] 3891 	ld	(0x7000), hl
                                   3892 ;E:\Dropbox\FAUSTO\SVILUPPI\MSX\CODE\C\MSXgl\projects\exsoccer/exsoccer_s2_b0.c:803: V9_WriteVRAM(V9_P1_PGT_A, g_Buttons_part1, sizeof(g_Buttons_part1)); // Load tiles (part 1)
                                   3893 ;E:/Dropbox/FAUSTO/SVILUPPI/MSX/CODE/C/MSXgl/engine/src/v9990.h:371: inline void V9_WriteVRAM(u32 addr, const u8* src, u16 count) { V9_SetWriteAddress(addr); V9_WriteVRAM_CurrentAddr(src, count); }
    000011AF 11 00 00         [10] 3894 	ld	de, #0x0000
    000011B2 6C               [ 4] 3895 	ld	l, h
    000011B3 CDr00r00         [17] 3896 	call	_V9_SetWriteAddress
    000011B6 11 00 40         [10] 3897 	ld	de, #0x4000
    000011B9 21r00r00         [10] 3898 	ld	hl, #_g_Buttons_part1
    000011BC CDr00r00         [17] 3899 	call	_V9_WriteVRAM_CurrentAddr
                                   3900 ;E:/Dropbox/FAUSTO/SVILUPPI/MSX/CODE/C/MSXgl/engine/src/rom_mapper.h:112: g_Bank0Segment[b] = s;
    000011BF 21 15 00         [10] 3901 	ld	hl, #0x0015
    000011C2 22r04r00         [16] 3902 	ld	((_g_Bank0Segment + 4)), hl
                                   3903 ;E:/Dropbox/FAUSTO/SVILUPPI/MSX/CODE/C/MSXgl/engine/src/system.h:109: inline void Poke16(u16 addr, u16 val) { *(u16*)addr = val; }
    000011C5 22 00 70         [16] 3904 	ld	(0x7000), hl
                                   3905 ;E:\Dropbox\FAUSTO\SVILUPPI\MSX\CODE\C\MSXgl\projects\exsoccer/exsoccer_s2_b0.c:805: V9_WriteVRAM(V9_P1_PGT_A + 16384, g_Buttons_part2, sizeof(g_Buttons_part2)); // Load tiles (part 2)
                                   3906 ;E:/Dropbox/FAUSTO/SVILUPPI/MSX/CODE/C/MSXgl/engine/src/v9990.h:371: inline void V9_WriteVRAM(u32 addr, const u8* src, u16 count) { V9_SetWriteAddress(addr); V9_WriteVRAM_CurrentAddr(src, count); }
    000011C8 11 00 40         [10] 3907 	ld	de, #0x4000
    000011CB 6C               [ 4] 3908 	ld	l, h
    000011CC CDr00r00         [17] 3909 	call	_V9_SetWriteAddress
    000011CF 11 00 40         [10] 3910 	ld	de, #0x4000
    000011D2 21r00r00         [10] 3911 	ld	hl, #_g_Buttons_part2
    000011D5 CDr00r00         [17] 3912 	call	_V9_WriteVRAM_CurrentAddr
                                   3913 ;E:/Dropbox/FAUSTO/SVILUPPI/MSX/CODE/C/MSXgl/engine/src/rom_mapper.h:112: g_Bank0Segment[b] = s;
    000011D8 21 01 00         [10] 3914 	ld	hl, #0x0001
    000011DB 22r04r00         [16] 3915 	ld	((_g_Bank0Segment + 4)), hl
                                   3916 ;E:/Dropbox/FAUSTO/SVILUPPI/MSX/CODE/C/MSXgl/engine/src/system.h:109: inline void Poke16(u16 addr, u16 val) { *(u16*)addr = val; }
    000011DE 22 00 70         [16] 3917 	ld	(0x7000), hl
                                   3918 ;E:/Dropbox/FAUSTO/SVILUPPI/MSX/CODE/C/MSXgl/engine/src/rom_mapper.h:112: g_Bank0Segment[b] = s;
    000011E1 2E 13            [ 7] 3919 	ld	l, #0x13
    000011E3 22r04r00         [16] 3920 	ld	((_g_Bank0Segment + 4)), hl
                                   3921 ;E:/Dropbox/FAUSTO/SVILUPPI/MSX/CODE/C/MSXgl/engine/src/system.h:109: inline void Poke16(u16 addr, u16 val) { *(u16*)addr = val; }
    000011E6 22 00 70         [16] 3922 	ld	(0x7000), hl
                                   3923 ;E:\Dropbox\FAUSTO\SVILUPPI\MSX\CODE\C\MSXgl\projects\exsoccer/exsoccer_s2_b0.c:810: V9_SetPalette(0, 16, g_Buttons_palette);
    000011E9 01r00r00         [10] 3924 	ld	bc, #_g_Buttons_palette
                                   3925 ;E:\Dropbox\FAUSTO\SVILUPPI\MSX\CODE\C\MSXgl\projects\exsoccer/exsoccer_s2_b0.c:1028: return; 
    000011EC DD 36 FE 00      [19] 3926 	ld	-2 (ix), #0x00
    000011F0 DD 36 FF 00      [19] 3927 	ld	-1 (ix), #0x00
    000011F4                       3928 00301$:
    000011F4 DD 7E FF         [19] 3929 	ld	a, -1 (ix)
    000011F7 D6 10            [ 7] 3930 	sub	a, #0x10
    000011F9 30 1C            [12] 3931 	jr	NC, 00257$
    000011FB DD 7E FE         [19] 3932 	ld	a, -2 (ix)
    000011FE DD 77 FD         [19] 3933 	ld	-3 (ix), a
    00001201 DD 34 FE         [23] 3934 	inc	-2 (ix)
    00001204 C5               [11] 3935 	push	bc
    00001205 59               [ 4] 3936 	ld	e, c
    00001206 50               [ 4] 3937 	ld	d, b
    00001207 DD 7E FD         [19] 3938 	ld	a, -3 (ix)
    0000120A CDr00r00         [17] 3939 	call	_V9_SetPaletteEntry
    0000120D C1               [10] 3940 	pop	bc
    0000120E 03               [ 6] 3941 	inc	bc
    0000120F 03               [ 6] 3942 	inc	bc
    00001210 03               [ 6] 3943 	inc	bc
    00001211 DD 34 FF         [23] 3944 	inc	-1 (ix)
    00001214 C3rF4r11         [10] 3945 	jp	00301$
                                   3946 ;E:\Dropbox\FAUSTO\SVILUPPI\MSX\CODE\C\MSXgl\projects\exsoccer/exsoccer_s2_b0.c:810: V9_SetPalette(0, 16, g_Buttons_palette);
    00001217                       3947 00257$:
                                   3948 ;E:/Dropbox/FAUSTO/SVILUPPI/MSX/CODE/C/MSXgl/engine/src/v9990.h:1047: inline void V9_SelectPaletteP1(u8 a, u8 b) { V9_SetRegister(13, ((b & 0x3) << 2) + (a & 0x3)); }
    00001217 3E 01            [ 7] 3949 	ld	a, #0x01
    00001219 E6 03            [ 7] 3950 	and	a, #0x03
    0000121B 87               [ 4] 3951 	add	a, a
    0000121C 87               [ 4] 3952 	add	a, a
    0000121D 4F               [ 4] 3953 	ld	c, a
    0000121E AF               [ 4] 3954 	xor	a, a
    0000121F E6 03            [ 7] 3955 	and	a, #0x03
    00001221 81               [ 4] 3956 	add	a, c
    00001222 6F               [ 4] 3957 	ld	l, a
                                   3958 ;	spillPairReg hl
                                   3959 ;	spillPairReg hl
    00001223 3E 0D            [ 7] 3960 	ld	a, #0x0d
    00001225 CDr00r00         [17] 3961 	call	_V9_SetRegister
                                   3962 ;E:\Dropbox\FAUSTO\SVILUPPI\MSX\CODE\C\MSXgl\projects\exsoccer/exsoccer_s2_b0.c:812: u16 tileId=0;
    00001228 01 00 00         [10] 3963 	ld	bc, #0x0000
                                   3964 ;E:\Dropbox\FAUSTO\SVILUPPI\MSX\CODE\C\MSXgl\projects\exsoccer/exsoccer_s2_b0.c:814: for (u8 y=0;y<64;y++){
    0000122B DD 36 FF 00      [19] 3965 	ld	-1 (ix), #0x00
    0000122F                       3966 00307$:
    0000122F DD 7E FF         [19] 3967 	ld	a, -1 (ix)
    00001232 D6 40            [ 7] 3968 	sub	a, #0x40
    00001234 30 20            [12] 3969 	jr	NC, 00111$
                                   3970 ;E:\Dropbox\FAUSTO\SVILUPPI\MSX\CODE\C\MSXgl\projects\exsoccer/exsoccer_s2_b0.c:815: for (u8 x=0;x<32;x++){
    00001236 1E 00            [ 7] 3971 	ld	e, #0x00
    00001238                       3972 00304$:
    00001238 7B               [ 4] 3973 	ld	a, e
    00001239 D6 20            [ 7] 3974 	sub	a, #0x20
    0000123B 30 13            [12] 3975 	jr	NC, 00403$
                                   3976 ;E:\Dropbox\FAUSTO\SVILUPPI\MSX\CODE\C\MSXgl\projects\exsoccer/exsoccer_s2_b0.c:816: V9_PutLayerATileAtPos(x,y,tileId++);
    0000123D 69               [ 4] 3977 	ld	l, c
                                   3978 ;	spillPairReg hl
                                   3979 ;	spillPairReg hl
    0000123E 60               [ 4] 3980 	ld	h, b
                                   3981 ;	spillPairReg hl
                                   3982 ;	spillPairReg hl
    0000123F 03               [ 6] 3983 	inc	bc
    00001240 C5               [11] 3984 	push	bc
    00001241 D5               [11] 3985 	push	de
    00001242 E5               [11] 3986 	push	hl
    00001243 DD 6E FF         [19] 3987 	ld	l, -1 (ix)
                                   3988 ;	spillPairReg hl
                                   3989 ;	spillPairReg hl
    00001246 7B               [ 4] 3990 	ld	a, e
    00001247 CDr7Dr04         [17] 3991 	call	_V9_PutLayerATileAtPos
    0000124A D1               [10] 3992 	pop	de
    0000124B C1               [10] 3993 	pop	bc
                                   3994 ;E:\Dropbox\FAUSTO\SVILUPPI\MSX\CODE\C\MSXgl\projects\exsoccer/exsoccer_s2_b0.c:815: for (u8 x=0;x<32;x++){
    0000124C 1C               [ 4] 3995 	inc	e
    0000124D C3r38r12         [10] 3996 	jp	00304$
    00001250                       3997 00403$:
                                   3998 ;E:\Dropbox\FAUSTO\SVILUPPI\MSX\CODE\C\MSXgl\projects\exsoccer/exsoccer_s2_b0.c:814: for (u8 y=0;y<64;y++){
    00001250 DD 34 FF         [23] 3999 	inc	-1 (ix)
    00001253 C3r2Fr12         [10] 4000 	jp	00307$
    00001256                       4001 00111$:
                                   4002 ;E:/Dropbox/FAUSTO/SVILUPPI/MSX/CODE/C/MSXgl/engine/src/v9990.h:574: inline void V9_SetInterrupt(u8 flags) { V9_SetRegister(9, flags); }
    00001256 2E 01            [ 7] 4003 	ld	l, #0x01
                                   4004 ;	spillPairReg hl
                                   4005 ;	spillPairReg hl
    00001258 3E 09            [ 7] 4006 	ld	a, #0x09
    0000125A CDr00r00         [17] 4007 	call	_V9_SetRegister
                                   4008 ;E:/Dropbox/FAUSTO/SVILUPPI/MSX/CODE/C/MSXgl/engine/src/v9990.h:258: inline void V9_SetFlag(u8 reg, u8 mask, u8 flag) { V9_SetRegister(reg, V9_GetRegister(reg) & (~mask) | flag); }
    0000125D 3E 08            [ 7] 4009 	ld	a, #0x08
    0000125F CDr00r00         [17] 4010 	call	_V9_GetRegister
    00001262 CB BF            [ 8] 4011 	res	7, a
    00001264 6F               [ 4] 4012 	ld	l, a
                                   4013 ;	spillPairReg hl
                                   4014 ;	spillPairReg hl
    00001265 CB FD            [ 8] 4015 	set	7, l
    00001267 3E 08            [ 7] 4016 	ld	a, #0x08
    00001269 CDr00r00         [17] 4017 	call	_V9_SetRegister
                                   4018 ;E:\Dropbox\FAUSTO\SVILUPPI\MSX\CODE\C\MSXgl\projects\exsoccer/exsoccer_s2_b0.c:821: while(!IsTeamJoystickTriggerPressed(TEAM_1)){
    0000126C                       4019 00112$:
    0000126C 3E 01            [ 7] 4020 	ld	a, #0x01
    0000126E CDr8Dr08         [17] 4021 	call	_IsTeamJoystickTriggerPressed
    00001271 B7               [ 4] 4022 	or	a, a
    00001272 20 06            [12] 4023 	jr	NZ, 00321$
                                   4024 ;E:\Dropbox\FAUSTO\SVILUPPI\MSX\CODE\C\MSXgl\projects\exsoccer/exsoccer_s2_b0.c:822: UpdateV9990();
    00001274 CDr00r00         [17] 4025 	call	_UpdateV9990
    00001277 C3r6Cr12         [10] 4026 	jp	00112$
                                   4027 ;E:/Dropbox/FAUSTO/SVILUPPI/MSX/CODE/C/MSXgl/engine/src/v9990.h:473: inline void V9_SetDisplayEnable(bool enable) { V9_SetFlag(8, V9_R08_DISP_ON, enable ? V9_R08_DISP_ON : 0); }
    0000127A                       4028 00321$:
                                   4029 ;E:/Dropbox/FAUSTO/SVILUPPI/MSX/CODE/C/MSXgl/engine/src/v9990.h:258: inline void V9_SetFlag(u8 reg, u8 mask, u8 flag) { V9_SetRegister(reg, V9_GetRegister(reg) & (~mask) | flag); }
    0000127A 3E 08            [ 7] 4030 	ld	a, #0x08
    0000127C CDr00r00         [17] 4031 	call	_V9_GetRegister
    0000127F 6F               [ 4] 4032 	ld	l, a
                                   4033 ;	spillPairReg hl
                                   4034 ;	spillPairReg hl
    00001280 CB BD            [ 8] 4035 	res	7, l
    00001282 3E 08            [ 7] 4036 	ld	a, #0x08
    00001284 CDr00r00         [17] 4037 	call	_V9_SetRegister
                                   4038 ;E:\Dropbox\FAUSTO\SVILUPPI\MSX\CODE\C\MSXgl\projects\exsoccer/exsoccer_s2_b0.c:825: V9_SetDisplayEnable(FALSE);
    00001287                       4039 00116$:
                                   4040 ;E:\Dropbox\FAUSTO\SVILUPPI\MSX\CODE\C\MSXgl\projects\exsoccer/exsoccer_s2_b0.c:827: g_MatchStatus=MATCH_NOT_STARTED;
    00001287 21r00r00         [10] 4041 	ld	hl, #_g_MatchStatus
    0000128A 36 00            [10] 4042 	ld	(hl), #0x00
                                   4043 ;E:\Dropbox\FAUSTO\SVILUPPI\MSX\CODE\C\MSXgl\projects\exsoccer/exsoccer_s2_b0.c:828: LoadP1LayerA();
    0000128C CDr00r00         [17] 4044 	call	_LoadP1LayerA
                                   4045 ;E:\Dropbox\FAUSTO\SVILUPPI\MSX\CODE\C\MSXgl\projects\exsoccer/exsoccer_s2_b0.c:829: LoadP1LayerB();
    0000128F CDr00r00         [17] 4046 	call	_LoadP1LayerB
                                   4047 ;E:\Dropbox\FAUSTO\SVILUPPI\MSX\CODE\C\MSXgl\projects\exsoccer/exsoccer_s2_b0.c:831: InitPalette();
    00001292 CDr00r00         [17] 4048 	call	_InitPalette
                                   4049 ;E:\Dropbox\FAUSTO\SVILUPPI\MSX\CODE\C\MSXgl\projects\exsoccer/exsoccer_s2_b0.c:833: if(g_FioBreText[0]=='R' && g_FioBreText[1]=='E' && g_FioBreText[2]=='N' && g_FioBreText[3]=='Z' && g_FioBreText[4]=='O'){
    00001295 3Ar00r00         [13] 4050 	ld	a, (#_g_FioBreText + 0)
    00001298 D6 52            [ 7] 4051 	sub	a, #0x52
    0000129A 20 2B            [12] 4052 	jr	NZ, 00118$
    0000129C 3Ar01r00         [13] 4053 	ld	a, (#_g_FioBreText + 1)
    0000129F D6 45            [ 7] 4054 	sub	a, #0x45
    000012A1 20 24            [12] 4055 	jr	NZ, 00118$
    000012A3 3Ar02r00         [13] 4056 	ld	a, (#_g_FioBreText + 2)
    000012A6 D6 4E            [ 7] 4057 	sub	a, #0x4e
    000012A8 20 1D            [12] 4058 	jr	NZ, 00118$
    000012AA 3Ar03r00         [13] 4059 	ld	a, (#_g_FioBreText + 3)
    000012AD D6 5A            [ 7] 4060 	sub	a, #0x5a
    000012AF 20 16            [12] 4061 	jr	NZ, 00118$
    000012B1 3Ar04r00         [13] 4062 	ld	a, (#_g_FioBreText + 4)
    000012B4 D6 4F            [ 7] 4063 	sub	a, #0x4f
    000012B6 20 0F            [12] 4064 	jr	NZ, 00118$
                                   4065 ;E:\Dropbox\FAUSTO\SVILUPPI\MSX\CODE\C\MSXgl\projects\exsoccer/exsoccer_s2_b0.c:834: g_FioBre=true;
    000012B8 21r00r00         [10] 4066 	ld	hl, #_g_FioBre
    000012BB 36 01            [10] 4067 	ld	(hl), #0x01
                                   4068 ;E:\Dropbox\FAUSTO\SVILUPPI\MSX\CODE\C\MSXgl\projects\exsoccer/exsoccer_s2_b0.c:835: g_Team2PaletteId=TEAM_AUS;
    000012BD 21r00r00         [10] 4069 	ld	hl, #_g_Team2PaletteId
    000012C0 36 00            [10] 4070 	ld	(hl), #0x00
                                   4071 ;E:\Dropbox\FAUSTO\SVILUPPI\MSX\CODE\C\MSXgl\projects\exsoccer/exsoccer_s2_b0.c:836: g_Team1PaletteId=TEAM_ITA;
    000012C2 21r00r00         [10] 4072 	ld	hl, #_g_Team1PaletteId
    000012C5 36 02            [10] 4073 	ld	(hl), #0x02
    000012C7                       4074 00118$:
                                   4075 ;E:\Dropbox\FAUSTO\SVILUPPI\MSX\CODE\C\MSXgl\projects\exsoccer/exsoccer_s2_b0.c:838: ShowField();
    000012C7 CDr00r00         [17] 4076 	call	_ShowField
                                   4077 ;E:/Dropbox/FAUSTO/SVILUPPI/MSX/CODE/C/MSXgl/engine/src/v9990.h:258: inline void V9_SetFlag(u8 reg, u8 mask, u8 flag) { V9_SetRegister(reg, V9_GetRegister(reg) & (~mask) | flag); }
    000012CA 3E 08            [ 7] 4078 	ld	a, #0x08
    000012CC CDr00r00         [17] 4079 	call	_V9_GetRegister
    000012CF CB BF            [ 8] 4080 	res	7, a
    000012D1 6F               [ 4] 4081 	ld	l, a
                                   4082 ;	spillPairReg hl
                                   4083 ;	spillPairReg hl
    000012D2 CB FD            [ 8] 4084 	set	7, l
    000012D4 3E 08            [ 7] 4085 	ld	a, #0x08
    000012D6 CDr00r00         [17] 4086 	call	_V9_SetRegister
                                   4087 ;E:/Dropbox/FAUSTO/SVILUPPI/MSX/CODE/C/MSXgl/engine/src/v9990.h:574: inline void V9_SetInterrupt(u8 flags) { V9_SetRegister(9, flags); }
    000012D9 2E 01            [ 7] 4088 	ld	l, #0x01
                                   4089 ;	spillPairReg hl
                                   4090 ;	spillPairReg hl
    000012DB 3E 09            [ 7] 4091 	ld	a, #0x09
    000012DD CDr00r00         [17] 4092 	call	_V9_SetRegister
                                   4093 ;E:\Dropbox\FAUSTO\SVILUPPI\MSX\CODE\C\MSXgl\projects\exsoccer/exsoccer_s2_b0.c:843: GameStart();
    000012E0 CDr00r00         [17] 4094 	call	_GameStart
                                   4095 ;E:\Dropbox\FAUSTO\SVILUPPI\MSX\CODE\C\MSXgl\projects\exsoccer/exsoccer_s2_b0.c:844: }
    000012E3 DD F9            [10] 4096 	ld	sp, ix
    000012E5 DD E1            [14] 4097 	pop	ix
    000012E7 C9               [10] 4098 	ret
    000012E8                       4099 ___str_10:
    000012E8 20 20 20 20 50 4C 41  4100 	.ascii "    PLAYER TEAM SELECT"
             59 45 52 20 54 45 41
             4D 20 53 45 4C 45 43
             54
    000012FE 00                    4101 	.db 0x00
    000012FF                       4102 ___str_11:
    000012FF 20 20 20 20 20 43 50  4103 	.ascii "     CPU TEAM SELECT   "
             55 20 54 45 41 4D 20
             53 45 4C 45 43 54 20
             20 20
    00001316 00                    4104 	.db 0x00
                                   4105 ;E:\Dropbox\FAUSTO\SVILUPPI\MSX\CODE\C\MSXgl\projects\exsoccer/exsoccer_s2_b0.c:845: void LoadPresentation(){
                                   4106 ;	---------------------------------
                                   4107 ; Function LoadPresentation
                                   4108 ; ---------------------------------
    00001317                       4109 _LoadPresentation::
    00001317 DD E5            [15] 4110 	push	ix
    00001319 DD 21 00 00      [14] 4111 	ld	ix,#0
    0000131D DD 39            [15] 4112 	add	ix,sp
    0000131F F5               [11] 4113 	push	af
    00001320 3B               [ 6] 4114 	dec	sp
                                   4115 ;E:\Dropbox\FAUSTO\SVILUPPI\MSX\CODE\C\MSXgl\projects\exsoccer/exsoccer_s2_b0.c:846: V9_SetScreenMode(V9_MODE_B1);
    00001321 3E 03            [ 7] 4116 	ld	a, #0x03
    00001323 CDr00r00         [17] 4117 	call	_V9_SetScreenMode
                                   4118 ;E:/Dropbox/FAUSTO/SVILUPPI/MSX/CODE/C/MSXgl/engine/src/v9990.h:258: inline void V9_SetFlag(u8 reg, u8 mask, u8 flag) { V9_SetRegister(reg, V9_GetRegister(reg) & (~mask) | flag); }
    00001326 3E 08            [ 7] 4119 	ld	a, #0x08
    00001328 CDr00r00         [17] 4120 	call	_V9_GetRegister
    0000132B 6F               [ 4] 4121 	ld	l, a
                                   4122 ;	spillPairReg hl
                                   4123 ;	spillPairReg hl
    0000132C CB BD            [ 8] 4124 	res	7, l
    0000132E 3E 08            [ 7] 4125 	ld	a, #0x08
    00001330 CDr00r00         [17] 4126 	call	_V9_SetRegister
                                   4127 ;E:\Dropbox\FAUSTO\SVILUPPI\MSX\CODE\C\MSXgl\projects\exsoccer/exsoccer_s2_b0.c:848: V9_SetColorMode(V9_COLOR_BD8);
    00001333 3E 03            [ 7] 4128 	ld	a, #0x03
    00001335 CDr00r00         [17] 4129 	call	_V9_SetColorMode
                                   4130 ;E:\Dropbox\FAUSTO\SVILUPPI\MSX\CODE\C\MSXgl\projects\exsoccer/exsoccer_s2_b0.c:849: const u8 colorBlack[3] = { 0, 0, 0 };
    00001338 21 00 00         [10] 4131 	ld	hl, #0
    0000133B 39               [11] 4132 	add	hl, sp
    0000133C EB               [ 4] 4133 	ex	de, hl
    0000133D AF               [ 4] 4134 	xor	a, a
    0000133E 12               [ 7] 4135 	ld	(de), a
    0000133F DD 36 FE 00      [19] 4136 	ld	-2 (ix), #0x00
    00001343 DD 36 FF 00      [19] 4137 	ld	-1 (ix), #0x00
                                   4138 ;E:\Dropbox\FAUSTO\SVILUPPI\MSX\CODE\C\MSXgl\projects\exsoccer/exsoccer_s2_b0.c:850: V9_SetPaletteEntry(0, colorBlack);    
    00001347 AF               [ 4] 4139 	xor	a, a
    00001348 CDr00r00         [17] 4140 	call	_V9_SetPaletteEntry
                                   4141 ;E:/Dropbox/FAUSTO/SVILUPPI/MSX/CODE/C/MSXgl/engine/src/v9990.h:480: inline void V9_SetBackgroundColor(u8 color) { V9_SetRegister(15, color); }
    0000134B 2E 00            [ 7] 4142 	ld	l, #0x00
                                   4143 ;	spillPairReg hl
                                   4144 ;	spillPairReg hl
    0000134D 3E 0F            [ 7] 4145 	ld	a, #0x0f
    0000134F CDr00r00         [17] 4146 	call	_V9_SetRegister
                                   4147 ;E:/Dropbox/FAUSTO/SVILUPPI/MSX/CODE/C/MSXgl/engine/src/rom_mapper.h:112: g_Bank0Segment[b] = s;
    00001352 21 0C 00         [10] 4148 	ld	hl, #0x000c
    00001355 22r04r00         [16] 4149 	ld	((_g_Bank0Segment + 4)), hl
                                   4150 ;E:/Dropbox/FAUSTO/SVILUPPI/MSX/CODE/C/MSXgl/engine/src/system.h:109: inline void Poke16(u16 addr, u16 val) { *(u16*)addr = val; }
    00001358 22 00 70         [16] 4151 	ld	(0x7000), hl
                                   4152 ;E:\Dropbox\FAUSTO\SVILUPPI\MSX\CODE\C\MSXgl\projects\exsoccer/exsoccer_s2_b0.c:853: V9_WriteVRAM(V9_BMP_PGT, g_Presentation_part1, sizeof(g_Presentation_part1)); 
                                   4153 ;E:/Dropbox/FAUSTO/SVILUPPI/MSX/CODE/C/MSXgl/engine/src/v9990.h:371: inline void V9_WriteVRAM(u32 addr, const u8* src, u16 count) { V9_SetWriteAddress(addr); V9_WriteVRAM_CurrentAddr(src, count); }
    0000135B 11 00 00         [10] 4154 	ld	de, #0x0000
    0000135E 6C               [ 4] 4155 	ld	l, h
    0000135F CDr00r00         [17] 4156 	call	_V9_SetWriteAddress
    00001362 11 00 40         [10] 4157 	ld	de, #0x4000
    00001365 21r00r00         [10] 4158 	ld	hl, #_g_Presentation_part1
    00001368 CDr00r00         [17] 4159 	call	_V9_WriteVRAM_CurrentAddr
                                   4160 ;E:/Dropbox/FAUSTO/SVILUPPI/MSX/CODE/C/MSXgl/engine/src/rom_mapper.h:112: g_Bank0Segment[b] = s;
    0000136B 21 0D 00         [10] 4161 	ld	hl, #0x000d
    0000136E 22r04r00         [16] 4162 	ld	((_g_Bank0Segment + 4)), hl
                                   4163 ;E:/Dropbox/FAUSTO/SVILUPPI/MSX/CODE/C/MSXgl/engine/src/system.h:109: inline void Poke16(u16 addr, u16 val) { *(u16*)addr = val; }
    00001371 22 00 70         [16] 4164 	ld	(0x7000), hl
                                   4165 ;E:\Dropbox\FAUSTO\SVILUPPI\MSX\CODE\C\MSXgl\projects\exsoccer/exsoccer_s2_b0.c:855: V9_WriteVRAM(V9_BMP_PGT + 16384L, g_Presentation_part2, sizeof(g_Presentation_part2)); 
                                   4166 ;E:/Dropbox/FAUSTO/SVILUPPI/MSX/CODE/C/MSXgl/engine/src/v9990.h:371: inline void V9_WriteVRAM(u32 addr, const u8* src, u16 count) { V9_SetWriteAddress(addr); V9_WriteVRAM_CurrentAddr(src, count); }
    00001374 11 00 40         [10] 4167 	ld	de, #0x4000
    00001377 6C               [ 4] 4168 	ld	l, h
    00001378 CDr00r00         [17] 4169 	call	_V9_SetWriteAddress
    0000137B 11 00 40         [10] 4170 	ld	de, #0x4000
    0000137E 21r00r00         [10] 4171 	ld	hl, #_g_Presentation_part2
    00001381 CDr00r00         [17] 4172 	call	_V9_WriteVRAM_CurrentAddr
                                   4173 ;E:/Dropbox/FAUSTO/SVILUPPI/MSX/CODE/C/MSXgl/engine/src/rom_mapper.h:112: g_Bank0Segment[b] = s;
    00001384 21 0E 00         [10] 4174 	ld	hl, #0x000e
    00001387 22r04r00         [16] 4175 	ld	((_g_Bank0Segment + 4)), hl
                                   4176 ;E:/Dropbox/FAUSTO/SVILUPPI/MSX/CODE/C/MSXgl/engine/src/system.h:109: inline void Poke16(u16 addr, u16 val) { *(u16*)addr = val; }
    0000138A 22 00 70         [16] 4177 	ld	(0x7000), hl
                                   4178 ;E:\Dropbox\FAUSTO\SVILUPPI\MSX\CODE\C\MSXgl\projects\exsoccer/exsoccer_s2_b0.c:857: V9_WriteVRAM(V9_BMP_PGT + 16384L+16384L, g_Presentation_part3, sizeof(g_Presentation_part3)); 
                                   4179 ;E:/Dropbox/FAUSTO/SVILUPPI/MSX/CODE/C/MSXgl/engine/src/v9990.h:371: inline void V9_WriteVRAM(u32 addr, const u8* src, u16 count) { V9_SetWriteAddress(addr); V9_WriteVRAM_CurrentAddr(src, count); }
    0000138D 11 00 80         [10] 4180 	ld	de, #0x8000
    00001390 6C               [ 4] 4181 	ld	l, h
    00001391 CDr00r00         [17] 4182 	call	_V9_SetWriteAddress
    00001394 11 00 40         [10] 4183 	ld	de, #0x4000
    00001397 21r00r00         [10] 4184 	ld	hl, #_g_Presentation_part3
    0000139A CDr00r00         [17] 4185 	call	_V9_WriteVRAM_CurrentAddr
                                   4186 ;E:/Dropbox/FAUSTO/SVILUPPI/MSX/CODE/C/MSXgl/engine/src/rom_mapper.h:112: g_Bank0Segment[b] = s;
    0000139D 21 0F 00         [10] 4187 	ld	hl, #0x000f
    000013A0 22r04r00         [16] 4188 	ld	((_g_Bank0Segment + 4)), hl
                                   4189 ;E:/Dropbox/FAUSTO/SVILUPPI/MSX/CODE/C/MSXgl/engine/src/system.h:109: inline void Poke16(u16 addr, u16 val) { *(u16*)addr = val; }
    000013A3 22 00 70         [16] 4190 	ld	(0x7000), hl
                                   4191 ;E:\Dropbox\FAUSTO\SVILUPPI\MSX\CODE\C\MSXgl\projects\exsoccer/exsoccer_s2_b0.c:859: V9_WriteVRAM(V9_BMP_PGT + 16384L+16384L+16384L, g_Presentation_part4, sizeof(g_Presentation_part4)); 
                                   4192 ;E:/Dropbox/FAUSTO/SVILUPPI/MSX/CODE/C/MSXgl/engine/src/v9990.h:371: inline void V9_WriteVRAM(u32 addr, const u8* src, u16 count) { V9_SetWriteAddress(addr); V9_WriteVRAM_CurrentAddr(src, count); }
    000013A6 11 00 C0         [10] 4193 	ld	de, #0xc000
    000013A9 6C               [ 4] 4194 	ld	l, h
    000013AA CDr00r00         [17] 4195 	call	_V9_SetWriteAddress
    000013AD 11 00 14         [10] 4196 	ld	de, #0x1400
    000013B0 21r00r00         [10] 4197 	ld	hl, #_g_Presentation_part4
    000013B3 CDr00r00         [17] 4198 	call	_V9_WriteVRAM_CurrentAddr
                                   4199 ;E:/Dropbox/FAUSTO/SVILUPPI/MSX/CODE/C/MSXgl/engine/src/rom_mapper.h:112: g_Bank0Segment[b] = s;
    000013B6 21 01 00         [10] 4200 	ld	hl, #0x0001
    000013B9 22r04r00         [16] 4201 	ld	((_g_Bank0Segment + 4)), hl
                                   4202 ;E:/Dropbox/FAUSTO/SVILUPPI/MSX/CODE/C/MSXgl/engine/src/system.h:109: inline void Poke16(u16 addr, u16 val) { *(u16*)addr = val; }
    000013BC 22 00 70         [16] 4203 	ld	(0x7000), hl
                                   4204 ;E:\Dropbox\FAUSTO\SVILUPPI\MSX\CODE\C\MSXgl\projects\exsoccer/exsoccer_s2_b0.c:862: g_MatchStatus=MATCH_PRESENTATION;
    000013BF 21r00r00         [10] 4205 	ld	hl, #_g_MatchStatus
    000013C2 36 0F            [10] 4206 	ld	(hl), #0x0f
                                   4207 ;E:\Dropbox\FAUSTO\SVILUPPI\MSX\CODE\C\MSXgl\projects\exsoccer/exsoccer_s2_b0.c:863: g_Timer=0;
    000013C4 21r00r00         [10] 4208 	ld	hl, #_g_Timer
    000013C7 36 00            [10] 4209 	ld	(hl), #0x00
                                   4210 ;E:/Dropbox/FAUSTO/SVILUPPI/MSX/CODE/C/MSXgl/engine/src/v9990.h:258: inline void V9_SetFlag(u8 reg, u8 mask, u8 flag) { V9_SetRegister(reg, V9_GetRegister(reg) & (~mask) | flag); }
    000013C9 3E 08            [ 7] 4211 	ld	a, #0x08
    000013CB CDr00r00         [17] 4212 	call	_V9_GetRegister
    000013CE CB BF            [ 8] 4213 	res	7, a
    000013D0 6F               [ 4] 4214 	ld	l, a
                                   4215 ;	spillPairReg hl
                                   4216 ;	spillPairReg hl
    000013D1 CB FD            [ 8] 4217 	set	7, l
    000013D3 3E 08            [ 7] 4218 	ld	a, #0x08
    000013D5 CDr00r00         [17] 4219 	call	_V9_SetRegister
                                   4220 ;E:/Dropbox/FAUSTO/SVILUPPI/MSX/CODE/C/MSXgl/engine/src/v9990.h:574: inline void V9_SetInterrupt(u8 flags) { V9_SetRegister(9, flags); }
    000013D8 2E 01            [ 7] 4221 	ld	l, #0x01
                                   4222 ;	spillPairReg hl
                                   4223 ;	spillPairReg hl
    000013DA 3E 09            [ 7] 4224 	ld	a, #0x09
    000013DC CDr00r00         [17] 4225 	call	_V9_SetRegister
                                   4226 ;E:\Dropbox\FAUSTO\SVILUPPI\MSX\CODE\C\MSXgl\projects\exsoccer/exsoccer_s2_b0.c:867: while (g_Timer!=200)
    000013DF                       4227 00101$:
    000013DF 3Ar00r00         [13] 4228 	ld	a, (_g_Timer+0)
    000013E2 D6 C8            [ 7] 4229 	sub	a, #0xc8
    000013E4 20 F9            [12] 4230 	jr	NZ, 00101$
                                   4231 ;E:\Dropbox\FAUSTO\SVILUPPI\MSX\CODE\C\MSXgl\projects\exsoccer/exsoccer_s2_b0.c:872: g_MatchStatus=MATCH_NOT_STARTED;
    000013E6 21r00r00         [10] 4232 	ld	hl, #_g_MatchStatus
    000013E9 36 00            [10] 4233 	ld	(hl), #0x00
                                   4234 ;E:/Dropbox/FAUSTO/SVILUPPI/MSX/CODE/C/MSXgl/engine/src/v9990.h:258: inline void V9_SetFlag(u8 reg, u8 mask, u8 flag) { V9_SetRegister(reg, V9_GetRegister(reg) & (~mask) | flag); }
    000013EB 3E 08            [ 7] 4235 	ld	a, #0x08
    000013ED CDr00r00         [17] 4236 	call	_V9_GetRegister
    000013F0 6F               [ 4] 4237 	ld	l, a
                                   4238 ;	spillPairReg hl
                                   4239 ;	spillPairReg hl
    000013F1 CB BD            [ 8] 4240 	res	7, l
    000013F3 3E 08            [ 7] 4241 	ld	a, #0x08
    000013F5 CDr00r00         [17] 4242 	call	_V9_SetRegister
                                   4243 ;E:\Dropbox\FAUSTO\SVILUPPI\MSX\CODE\C\MSXgl\projects\exsoccer/exsoccer_s2_b0.c:874: V9_SetDisplayEnable(FALSE);
                                   4244 ;E:\Dropbox\FAUSTO\SVILUPPI\MSX\CODE\C\MSXgl\projects\exsoccer/exsoccer_s2_b0.c:876: }
    000013F8 DD F9            [10] 4245 	ld	sp, ix
    000013FA DD E1            [14] 4246 	pop	ix
    000013FC C9               [10] 4247 	ret
                                   4248 ;E:\Dropbox\FAUSTO\SVILUPPI\MSX\CODE\C\MSXgl\projects\exsoccer/exsoccer_s2_b0.c:879: void PerformShot(u16 targetX, u16 targetY) {
                                   4249 ;	---------------------------------
                                   4250 ; Function PerformShot
                                   4251 ; ---------------------------------
    000013FD                       4252 _PerformShot::
    000013FD DD E5            [15] 4253 	push	ix
    000013FF DD 21 00 00      [14] 4254 	ld	ix,#0
    00001403 DD 39            [15] 4255 	add	ix,sp
    00001405 FD 21 EC FF      [14] 4256 	ld	iy, #-20
    00001409 FD 39            [15] 4257 	add	iy, sp
    0000140B FD F9            [10] 4258 	ld	sp, iy
    0000140D DD 75 FE         [19] 4259 	ld	-2 (ix), l
    00001410 DD 74 FF         [19] 4260 	ld	-1 (ix), h
    00001413 DD 73 FC         [19] 4261 	ld	-4 (ix), e
    00001416 DD 72 FD         [19] 4262 	ld	-3 (ix), d
                                   4263 ;E:\Dropbox\FAUSTO\SVILUPPI\MSX\CODE\C\MSXgl\projects\exsoccer/exsoccer_s2_b0.c:880: u8 fromId = g_Ball.PossessionPlayerId;
    00001419 3Ar06r00         [13] 4264 	ld	a, (#(_g_Ball + 6) + 0)
                                   4265 ;E:\Dropbox\FAUSTO\SVILUPPI\MSX\CODE\C\MSXgl\projects\exsoccer/exsoccer_s2_b0.c:881: if (fromId == NO_VALUE) return;
    0000141C DD 77 FB         [19] 4266 	ld	-5 (ix), a
    0000141F 3C               [ 4] 4267 	inc	a
    00001420 CArD5r16         [10] 4268 	jp	Z,00132$
    00001423 C3r26r14         [10] 4269 	jp	00102$
    00001426                       4270 00102$:
                                   4271 ;E:\Dropbox\FAUSTO\SVILUPPI\MSX\CODE\C\MSXgl\projects\exsoccer/exsoccer_s2_b0.c:887: dx = (i16)targetX - (i16)g_Players[fromId].X;
    00001426 DD 4E FE         [19] 4272 	ld	c, -2 (ix)
    00001429 DD 46 FF         [19] 4273 	ld	b, -1 (ix)
    0000142C DD 5E FB         [19] 4274 	ld	e, -5 (ix)
    0000142F 16 00            [ 7] 4275 	ld	d, #0x00
    00001431 6B               [ 4] 4276 	ld	l, e
    00001432 62               [ 4] 4277 	ld	h, d
    00001433 29               [11] 4278 	add	hl, hl
    00001434 29               [11] 4279 	add	hl, hl
    00001435 19               [11] 4280 	add	hl, de
    00001436 29               [11] 4281 	add	hl, hl
    00001437 29               [11] 4282 	add	hl, hl
    00001438 19               [11] 4283 	add	hl, de
    00001439 11r00r00         [10] 4284 	ld	de, #_g_Players
    0000143C 19               [11] 4285 	add	hl, de
    0000143D E3               [19] 4286 	ex	(sp), hl
    0000143E DD 7E EC         [19] 4287 	ld	a, -20 (ix)
    00001441 C6 02            [ 7] 4288 	add	a, #0x02
    00001443 DD 77 EE         [19] 4289 	ld	-18 (ix), a
    00001446 DD 7E ED         [19] 4290 	ld	a, -19 (ix)
    00001449 CE 00            [ 7] 4291 	adc	a, #0x00
    0000144B DD 77 EF         [19] 4292 	ld	-17 (ix), a
    0000144E DD 6E EE         [19] 4293 	ld	l, -18 (ix)
    00001451 DD 66 EF         [19] 4294 	ld	h, -17 (ix)
    00001454 5E               [ 7] 4295 	ld	e, (hl)
    00001455 23               [ 6] 4296 	inc	hl
    00001456 56               [ 7] 4297 	ld	d, (hl)
    00001457 79               [ 4] 4298 	ld	a, c
    00001458 93               [ 4] 4299 	sub	a, e
    00001459 4F               [ 4] 4300 	ld	c, a
    0000145A 78               [ 4] 4301 	ld	a, b
    0000145B 9A               [ 4] 4302 	sbc	a, d
    0000145C DD 71 F0         [19] 4303 	ld	-16 (ix), c
    0000145F DD 77 F1         [19] 4304 	ld	-15 (ix), a
                                   4305 ;E:\Dropbox\FAUSTO\SVILUPPI\MSX\CODE\C\MSXgl\projects\exsoccer/exsoccer_s2_b0.c:888: dy = (i16)targetY - (i16)g_Players[fromId].Y;
    00001462 DD 4E FC         [19] 4306 	ld	c, -4 (ix)
    00001465 DD 46 FD         [19] 4307 	ld	b, -3 (ix)
    00001468 E1               [10] 4308 	pop	hl
    00001469 E5               [11] 4309 	push	hl
    0000146A 5E               [ 7] 4310 	ld	e, (hl)
    0000146B 23               [ 6] 4311 	inc	hl
    0000146C 56               [ 7] 4312 	ld	d, (hl)
    0000146D 79               [ 4] 4313 	ld	a, c
    0000146E 93               [ 4] 4314 	sub	a, e
    0000146F 4F               [ 4] 4315 	ld	c, a
    00001470 78               [ 4] 4316 	ld	a, b
    00001471 9A               [ 4] 4317 	sbc	a, d
    00001472 DD 71 F2         [19] 4318 	ld	-14 (ix), c
    00001475 DD 77 F3         [19] 4319 	ld	-13 (ix), a
                                   4320 ;E:\Dropbox\FAUSTO\SVILUPPI\MSX\CODE\C\MSXgl\projects\exsoccer/exsoccer_s2_b0.c:889: adx = (dx < 0) ? -dx : dx;
    00001478 DD 7E F0         [19] 4321 	ld	a, -16 (ix)
    0000147B DD 77 F4         [19] 4322 	ld	-12 (ix), a
    0000147E DD 7E F1         [19] 4323 	ld	a, -15 (ix)
    00001481 DD 77 F5         [19] 4324 	ld	-11 (ix), a
    00001484 DD CB F5 7E      [20] 4325 	bit	7, -11 (ix)
    00001488 28 0C            [12] 4326 	jr	Z, 00134$
    0000148A AF               [ 4] 4327 	xor	a, a
    0000148B DD 96 F0         [19] 4328 	sub	a, -16 (ix)
    0000148E 4F               [ 4] 4329 	ld	c, a
    0000148F 9F               [ 4] 4330 	sbc	a, a
    00001490 DD 96 F1         [19] 4331 	sub	a, -15 (ix)
    00001493 C3r9Cr14         [10] 4332 	jp	00135$
    00001496                       4333 00134$:
    00001496 DD 4E F0         [19] 4334 	ld	c, -16 (ix)
    00001499 DD 7E F1         [19] 4335 	ld	a, -15 (ix)
    0000149C                       4336 00135$:
    0000149C DD 71 F6         [19] 4337 	ld	-10 (ix), c
    0000149F DD 77 F7         [19] 4338 	ld	-9 (ix), a
                                   4339 ;E:\Dropbox\FAUSTO\SVILUPPI\MSX\CODE\C\MSXgl\projects\exsoccer/exsoccer_s2_b0.c:890: ady = (dy < 0) ? -dy : dy;
    000014A2 DD 7E F2         [19] 4340 	ld	a, -14 (ix)
    000014A5 DD 77 F8         [19] 4341 	ld	-8 (ix), a
    000014A8 DD 7E F3         [19] 4342 	ld	a, -13 (ix)
    000014AB DD 77 F9         [19] 4343 	ld	-7 (ix), a
    000014AE DD CB F9 7E      [20] 4344 	bit	7, -7 (ix)
    000014B2 28 11            [12] 4345 	jr	Z, 00136$
    000014B4 AF               [ 4] 4346 	xor	a, a
    000014B5 DD 96 F2         [19] 4347 	sub	a, -14 (ix)
    000014B8 DD 77 FA         [19] 4348 	ld	-6 (ix), a
    000014BB 9F               [ 4] 4349 	sbc	a, a
    000014BC DD 96 F3         [19] 4350 	sub	a, -13 (ix)
    000014BF DD 77 FB         [19] 4351 	ld	-5 (ix), a
    000014C2 C3rD1r14         [10] 4352 	jp	00137$
    000014C5                       4353 00136$:
    000014C5 DD 7E F2         [19] 4354 	ld	a, -14 (ix)
    000014C8 DD 77 FA         [19] 4355 	ld	-6 (ix), a
    000014CB DD 7E F3         [19] 4356 	ld	a, -13 (ix)
    000014CE DD 77 FB         [19] 4357 	ld	-5 (ix), a
    000014D1                       4358 00137$:
    000014D1 DD 4E FA         [19] 4359 	ld	c, -6 (ix)
    000014D4 DD 46 FB         [19] 4360 	ld	b, -5 (ix)
                                   4361 ;E:\Dropbox\FAUSTO\SVILUPPI\MSX\CODE\C\MSXgl\projects\exsoccer/exsoccer_s2_b0.c:892: if (adx > ady * 2) {
    000014D7 69               [ 4] 4362 	ld	l, c
    000014D8 60               [ 4] 4363 	ld	h, b
    000014D9 29               [11] 4364 	add	hl, hl
    000014DA DD 5E F6         [19] 4365 	ld	e, -10 (ix)
    000014DD DD 56 F7         [19] 4366 	ld	d, -9 (ix)
    000014E0 7D               [ 4] 4367 	ld	a, l
    000014E1 93               [ 4] 4368 	sub	a, e
    000014E2 7C               [ 4] 4369 	ld	a, h
    000014E3 9A               [ 4] 4370 	sbc	a, d
    000014E4 E2rE9r14         [10] 4371 	jp	PO, 00238$
    000014E7 EE 80            [ 7] 4372 	xor	a, #0x80
    000014E9                       4373 00238$:
    000014E9 F2r0Ar15         [10] 4374 	jp	P, 00110$
                                   4375 ;E:\Dropbox\FAUSTO\SVILUPPI\MSX\CODE\C\MSXgl\projects\exsoccer/exsoccer_s2_b0.c:893: newDir = (dx > 0) ? DIRECTION_RIGHT : DIRECTION_LEFT;
    000014EC AF               [ 4] 4376 	xor	a, a
    000014ED DD BE F4         [19] 4377 	cp	a, -12 (ix)
    000014F0 DD 9E F5         [19] 4378 	sbc	a, -11 (ix)
    000014F3 E2rF8r14         [10] 4379 	jp	PO, 00239$
    000014F6 EE 80            [ 7] 4380 	xor	a, #0x80
    000014F8                       4381 00239$:
    000014F8 F2r01r15         [10] 4382 	jp	P, 00138$
    000014FB 01 03 00         [10] 4383 	ld	bc, #0x0003
    000014FE C3r04r15         [10] 4384 	jp	00139$
    00001501                       4385 00138$:
    00001501 01 07 00         [10] 4386 	ld	bc, #0x0007
    00001504                       4387 00139$:
    00001504 DD 71 FB         [19] 4388 	ld	-5 (ix), c
    00001507 C3r6Er15         [10] 4389 	jp	00111$
    0000150A                       4390 00110$:
                                   4391 ;E:\Dropbox\FAUSTO\SVILUPPI\MSX\CODE\C\MSXgl\projects\exsoccer/exsoccer_s2_b0.c:894: } else if (ady > adx * 2) {
    0000150A EB               [ 4] 4392 	ex	de, hl
    0000150B 29               [11] 4393 	add	hl, hl
    0000150C EB               [ 4] 4394 	ex	de, hl
                                   4395 ;E:\Dropbox\FAUSTO\SVILUPPI\MSX\CODE\C\MSXgl\projects\exsoccer/exsoccer_s2_b0.c:895: newDir = (dy > 0) ? DIRECTION_DOWN : DIRECTION_UP;
    0000150D AF               [ 4] 4396 	xor	a, a
    0000150E DD BE F8         [19] 4397 	cp	a, -8 (ix)
    00001511 DD 9E F9         [19] 4398 	sbc	a, -7 (ix)
    00001514 E2r19r15         [10] 4399 	jp	PO, 00240$
    00001517 EE 80            [ 7] 4400 	xor	a, #0x80
    00001519                       4401 00240$:
    00001519 07               [ 4] 4402 	rlca
    0000151A E6 01            [ 7] 4403 	and	a,#0x01
    0000151C 6F               [ 4] 4404 	ld	l, a
                                   4405 ;	spillPairReg hl
                                   4406 ;	spillPairReg hl
                                   4407 ;E:\Dropbox\FAUSTO\SVILUPPI\MSX\CODE\C\MSXgl\projects\exsoccer/exsoccer_s2_b0.c:894: } else if (ady > adx * 2) {
    0000151D 7B               [ 4] 4408 	ld	a, e
    0000151E 91               [ 4] 4409 	sub	a, c
    0000151F 7A               [ 4] 4410 	ld	a, d
    00001520 98               [ 4] 4411 	sbc	a, b
    00001521 E2r26r15         [10] 4412 	jp	PO, 00241$
    00001524 EE 80            [ 7] 4413 	xor	a, #0x80
    00001526                       4414 00241$:
    00001526 F2r3Cr15         [10] 4415 	jp	P, 00107$
                                   4416 ;E:\Dropbox\FAUSTO\SVILUPPI\MSX\CODE\C\MSXgl\projects\exsoccer/exsoccer_s2_b0.c:895: newDir = (dy > 0) ? DIRECTION_DOWN : DIRECTION_UP;
    00001529 7D               [ 4] 4417 	ld	a, l
    0000152A B7               [ 4] 4418 	or	a, a
    0000152B 28 06            [12] 4419 	jr	Z, 00140$
    0000152D 01 05 00         [10] 4420 	ld	bc, #0x0005
    00001530 C3r36r15         [10] 4421 	jp	00141$
    00001533                       4422 00140$:
    00001533 01 01 00         [10] 4423 	ld	bc, #0x0001
    00001536                       4424 00141$:
    00001536 DD 71 FB         [19] 4425 	ld	-5 (ix), c
    00001539 C3r6Er15         [10] 4426 	jp	00111$
    0000153C                       4427 00107$:
                                   4428 ;E:\Dropbox\FAUSTO\SVILUPPI\MSX\CODE\C\MSXgl\projects\exsoccer/exsoccer_s2_b0.c:897: if (dx > 0) newDir = (dy > 0) ? DIRECTION_DOWN_RIGHT : DIRECTION_UP_RIGHT;
    0000153C AF               [ 4] 4429 	xor	a, a
    0000153D DD BE F4         [19] 4430 	cp	a, -12 (ix)
    00001540 DD 9E F5         [19] 4431 	sbc	a, -11 (ix)
    00001543 E2r48r15         [10] 4432 	jp	PO, 00242$
    00001546 EE 80            [ 7] 4433 	xor	a, #0x80
    00001548                       4434 00242$:
    00001548 F2r5Er15         [10] 4435 	jp	P, 00104$
    0000154B 7D               [ 4] 4436 	ld	a, l
    0000154C B7               [ 4] 4437 	or	a, a
    0000154D 28 06            [12] 4438 	jr	Z, 00142$
    0000154F 01 04 00         [10] 4439 	ld	bc, #0x0004
    00001552 C3r58r15         [10] 4440 	jp	00143$
    00001555                       4441 00142$:
    00001555 01 02 00         [10] 4442 	ld	bc, #0x0002
    00001558                       4443 00143$:
    00001558 DD 71 FB         [19] 4444 	ld	-5 (ix), c
    0000155B C3r6Er15         [10] 4445 	jp	00111$
    0000155E                       4446 00104$:
                                   4447 ;E:\Dropbox\FAUSTO\SVILUPPI\MSX\CODE\C\MSXgl\projects\exsoccer/exsoccer_s2_b0.c:898: else newDir = (dy > 0) ? DIRECTION_DOWN_LEFT : DIRECTION_UP_LEFT;
    0000155E 7D               [ 4] 4448 	ld	a, l
    0000155F B7               [ 4] 4449 	or	a, a
    00001560 28 06            [12] 4450 	jr	Z, 00144$
    00001562 01 06 00         [10] 4451 	ld	bc, #0x0006
    00001565 C3r6Br15         [10] 4452 	jp	00145$
    00001568                       4453 00144$:
    00001568 01 08 00         [10] 4454 	ld	bc, #0x0008
    0000156B                       4455 00145$:
    0000156B DD 71 FB         [19] 4456 	ld	-5 (ix), c
    0000156E                       4457 00111$:
                                   4458 ;E:\Dropbox\FAUSTO\SVILUPPI\MSX\CODE\C\MSXgl\projects\exsoccer/exsoccer_s2_b0.c:900: g_Players[fromId].Direction = newDir;
    0000156E E1               [10] 4459 	pop	hl
    0000156F E5               [11] 4460 	push	hl
    00001570 11 0A 00         [10] 4461 	ld	de, #0x000a
    00001573 19               [11] 4462 	add	hl, de
    00001574 DD 7E FB         [19] 4463 	ld	a, -5 (ix)
    00001577 77               [ 7] 4464 	ld	(hl), a
                                   4465 ;E:\Dropbox\FAUSTO\SVILUPPI\MSX\CODE\C\MSXgl\projects\exsoccer/exsoccer_s2_b0.c:903: if (newDir == DIRECTION_UP || newDir == DIRECTION_UP_LEFT || newDir == DIRECTION_UP_RIGHT) g_Players[fromId].PatternId = PLAYER_POSE_SHOT_FRONT;
    00001578 DD 7E FB         [19] 4466 	ld	a, -5 (ix)
    0000157B 3D               [ 4] 4467 	dec	a
    0000157C 28 0E            [12] 4468 	jr	Z, 00122$
    0000157E DD 7E FB         [19] 4469 	ld	a, -5 (ix)
    00001581 D6 08            [ 7] 4470 	sub	a, #0x08
    00001583 28 07            [12] 4471 	jr	Z, 00122$
    00001585 DD 7E FB         [19] 4472 	ld	a, -5 (ix)
    00001588 D6 02            [ 7] 4473 	sub	a, #0x02
    0000158A 20 1B            [12] 4474 	jr	NZ, 00123$
    0000158C                       4475 00122$:
    0000158C DD 7E EC         [19] 4476 	ld	a, -20 (ix)
    0000158F C6 08            [ 7] 4477 	add	a, #0x08
    00001591 DD 77 FA         [19] 4478 	ld	-6 (ix), a
    00001594 DD 7E ED         [19] 4479 	ld	a, -19 (ix)
    00001597 CE 00            [ 7] 4480 	adc	a, #0x00
    00001599 DD 77 FB         [19] 4481 	ld	-5 (ix), a
    0000159C DD 6E FA         [19] 4482 	ld	l, -6 (ix)
    0000159F DD 66 FB         [19] 4483 	ld	h, -5 (ix)
    000015A2 36 18            [10] 4484 	ld	(hl), #0x18
    000015A4 C3rE8r15         [10] 4485 	jp	00124$
    000015A7                       4486 00123$:
                                   4487 ;E:\Dropbox\FAUSTO\SVILUPPI\MSX\CODE\C\MSXgl\projects\exsoccer/exsoccer_s2_b0.c:904: else if (newDir == DIRECTION_DOWN || newDir == DIRECTION_DOWN_LEFT || newDir == DIRECTION_DOWN_RIGHT) g_Players[fromId].PatternId = PLAYER_POSE_SHOT_BACK;
    000015A7 DD 7E FB         [19] 4488 	ld	a, -5 (ix)
    000015AA D6 05            [ 7] 4489 	sub	a, #0x05
    000015AC 28 0E            [12] 4490 	jr	Z, 00117$
    000015AE DD 7E FB         [19] 4491 	ld	a, -5 (ix)
    000015B1 D6 06            [ 7] 4492 	sub	a, #0x06
    000015B3 28 07            [12] 4493 	jr	Z, 00117$
    000015B5 DD 7E FB         [19] 4494 	ld	a, -5 (ix)
    000015B8 D6 04            [ 7] 4495 	sub	a, #0x04
    000015BA 20 0B            [12] 4496 	jr	NZ, 00118$
    000015BC                       4497 00117$:
    000015BC E1               [10] 4498 	pop	hl
    000015BD E5               [11] 4499 	push	hl
    000015BE 11 08 00         [10] 4500 	ld	de, #0x0008
    000015C1 19               [11] 4501 	add	hl, de
    000015C2 36 15            [10] 4502 	ld	(hl), #0x15
    000015C4 C3rE8r15         [10] 4503 	jp	00124$
    000015C7                       4504 00118$:
                                   4505 ;E:\Dropbox\FAUSTO\SVILUPPI\MSX\CODE\C\MSXgl\projects\exsoccer/exsoccer_s2_b0.c:905: else if (newDir == DIRECTION_LEFT) g_Players[fromId].PatternId = PLAYER_POSE_SHOT_LEFT;
    000015C7 DD 7E FB         [19] 4506 	ld	a, -5 (ix)
    000015CA D6 07            [ 7] 4507 	sub	a, #0x07
    000015CC 20 0B            [12] 4508 	jr	NZ, 00115$
    000015CE E1               [10] 4509 	pop	hl
    000015CF E5               [11] 4510 	push	hl
    000015D0 11 08 00         [10] 4511 	ld	de, #0x0008
    000015D3 19               [11] 4512 	add	hl, de
    000015D4 36 A4            [10] 4513 	ld	(hl), #0xa4
    000015D6 C3rE8r15         [10] 4514 	jp	00124$
    000015D9                       4515 00115$:
                                   4516 ;E:\Dropbox\FAUSTO\SVILUPPI\MSX\CODE\C\MSXgl\projects\exsoccer/exsoccer_s2_b0.c:906: else if (newDir == DIRECTION_RIGHT) g_Players[fromId].PatternId = PLAYER_POSE_SHOT_RIGHT;
    000015D9 DD 7E FB         [19] 4517 	ld	a, -5 (ix)
    000015DC D6 03            [ 7] 4518 	sub	a, #0x03
    000015DE 20 08            [12] 4519 	jr	NZ, 00124$
    000015E0 E1               [10] 4520 	pop	hl
    000015E1 E5               [11] 4521 	push	hl
    000015E2 11 08 00         [10] 4522 	ld	de, #0x0008
    000015E5 19               [11] 4523 	add	hl, de
    000015E6 36 1B            [10] 4524 	ld	(hl), #0x1b
    000015E8                       4525 00124$:
                                   4526 ;E:\Dropbox\FAUSTO\SVILUPPI\MSX\CODE\C\MSXgl\projects\exsoccer/exsoccer_s2_b0.c:908: g_Players[fromId].Status = PLAYER_STATUS_POSITIONED; // Lock pose
    000015E8 E1               [10] 4527 	pop	hl
    000015E9 E5               [11] 4528 	push	hl
    000015EA 11 12 00         [10] 4529 	ld	de, #0x0012
    000015ED 19               [11] 4530 	add	hl, de
    000015EE 36 04            [10] 4531 	ld	(hl), #0x04
    000015F0 23               [ 6] 4532 	inc	hl
    000015F1 36 00            [10] 4533 	ld	(hl), #0x00
                                   4534 ;E:\Dropbox\FAUSTO\SVILUPPI\MSX\CODE\C\MSXgl\projects\exsoccer/exsoccer_s2_b0.c:911: g_Players[fromId].TargetX = g_Players[fromId].X;
    000015F3 DD 7E EC         [19] 4535 	ld	a, -20 (ix)
    000015F6 C6 10            [ 7] 4536 	add	a, #0x10
    000015F8 4F               [ 4] 4537 	ld	c, a
    000015F9 DD 7E ED         [19] 4538 	ld	a, -19 (ix)
    000015FC CE 00            [ 7] 4539 	adc	a, #0x00
    000015FE 47               [ 4] 4540 	ld	b, a
    000015FF DD 6E EE         [19] 4541 	ld	l, -18 (ix)
    00001602 DD 66 EF         [19] 4542 	ld	h, -17 (ix)
    00001605 5E               [ 7] 4543 	ld	e, (hl)
    00001606 23               [ 6] 4544 	inc	hl
    00001607 56               [ 7] 4545 	ld	d, (hl)
    00001608 7B               [ 4] 4546 	ld	a, e
    00001609 02               [ 7] 4547 	ld	(bc), a
    0000160A 03               [ 6] 4548 	inc	bc
    0000160B 7A               [ 4] 4549 	ld	a, d
    0000160C 02               [ 7] 4550 	ld	(bc), a
                                   4551 ;E:\Dropbox\FAUSTO\SVILUPPI\MSX\CODE\C\MSXgl\projects\exsoccer/exsoccer_s2_b0.c:912: g_Players[fromId].TargetY = g_Players[fromId].Y;
    0000160D DD 7E EC         [19] 4552 	ld	a, -20 (ix)
    00001610 C6 0E            [ 7] 4553 	add	a, #0x0e
    00001612 4F               [ 4] 4554 	ld	c, a
    00001613 DD 7E ED         [19] 4555 	ld	a, -19 (ix)
    00001616 CE 00            [ 7] 4556 	adc	a, #0x00
    00001618 47               [ 4] 4557 	ld	b, a
    00001619 E1               [10] 4558 	pop	hl
    0000161A E5               [11] 4559 	push	hl
    0000161B 5E               [ 7] 4560 	ld	e, (hl)
    0000161C 23               [ 6] 4561 	inc	hl
    0000161D 56               [ 7] 4562 	ld	d, (hl)
    0000161E 7B               [ 4] 4563 	ld	a, e
    0000161F 02               [ 7] 4564 	ld	(bc), a
    00001620 03               [ 6] 4565 	inc	bc
    00001621 7A               [ 4] 4566 	ld	a, d
    00001622 02               [ 7] 4567 	ld	(bc), a
                                   4568 ;E:\Dropbox\FAUSTO\SVILUPPI\MSX\CODE\C\MSXgl\projects\exsoccer/exsoccer_s2_b0.c:914: SetPlayerBallPossession(NO_VALUE);
    00001623 3E FF            [ 7] 4569 	ld	a, #0xff
    00001625 CDr00r00         [17] 4570 	call	_SetPlayerBallPossession
                                   4571 ;E:\Dropbox\FAUSTO\SVILUPPI\MSX\CODE\C\MSXgl\projects\exsoccer/exsoccer_s2_b0.c:915: g_Ball.PossessionPlayerId = NO_VALUE;
    00001628 21r06r00         [10] 4572 	ld	hl, #(_g_Ball + 6)
    0000162B 36 FF            [10] 4573 	ld	(hl), #0xff
                                   4574 ;E:\Dropbox\FAUSTO\SVILUPPI\MSX\CODE\C\MSXgl\projects\exsoccer/exsoccer_s2_b0.c:916: g_Ball.PassTargetPlayerId = NO_VALUE;
    0000162D 21r10r00         [10] 4575 	ld	hl, #(_g_Ball + 16)
    00001630 36 FF            [10] 4576 	ld	(hl), #0xff
                                   4577 ;E:\Dropbox\FAUSTO\SVILUPPI\MSX\CODE\C\MSXgl\projects\exsoccer/exsoccer_s2_b0.c:917: g_Ball.ShotActive = 1;
    00001632 21r1Br00         [10] 4578 	ld	hl, #(_g_Ball + 27)
    00001635 36 01            [10] 4579 	ld	(hl), #0x01
                                   4580 ;E:\Dropbox\FAUSTO\SVILUPPI\MSX\CODE\C\MSXgl\projects\exsoccer/exsoccer_s2_b0.c:918: g_Ball.TargetX = targetX;
    00001637 21r17r00         [10] 4581 	ld	hl, #(_g_Ball + 23)
    0000163A DD 7E FE         [19] 4582 	ld	a, -2 (ix)
    0000163D 77               [ 7] 4583 	ld	(hl), a
    0000163E 23               [ 6] 4584 	inc	hl
    0000163F DD 7E FF         [19] 4585 	ld	a, -1 (ix)
    00001642 77               [ 7] 4586 	ld	(hl), a
                                   4587 ;E:\Dropbox\FAUSTO\SVILUPPI\MSX\CODE\C\MSXgl\projects\exsoccer/exsoccer_s2_b0.c:919: g_Ball.TargetY = targetY;
    00001643 21r19r00         [10] 4588 	ld	hl, #(_g_Ball + 25)
    00001646 DD 7E FC         [19] 4589 	ld	a, -4 (ix)
    00001649 77               [ 7] 4590 	ld	(hl), a
    0000164A 23               [ 6] 4591 	inc	hl
    0000164B DD 7E FD         [19] 4592 	ld	a, -3 (ix)
    0000164E 77               [ 7] 4593 	ld	(hl), a
                                   4594 ;E:\Dropbox\FAUSTO\SVILUPPI\MSX\CODE\C\MSXgl\projects\exsoccer/exsoccer_s2_b0.c:920: g_Ball.PassStartX = g_Ball.X;
    0000164F ED 4Br02r00      [20] 4595 	ld	bc, (#_g_Ball + 2)
    00001653 ED 43r11r00      [20] 4596 	ld	((_g_Ball + 17)), bc
                                   4597 ;E:\Dropbox\FAUSTO\SVILUPPI\MSX\CODE\C\MSXgl\projects\exsoccer/exsoccer_s2_b0.c:921: g_Ball.PassStartY = g_Ball.Y;
    00001657 ED 4Br00r00      [20] 4598 	ld	bc, (#_g_Ball + 0)
    0000165B ED 43r13r00      [20] 4599 	ld	((_g_Ball + 19)), bc
                                   4600 ;E:\Dropbox\FAUSTO\SVILUPPI\MSX\CODE\C\MSXgl\projects\exsoccer/exsoccer_s2_b0.c:924: i16 arcDy = dy;
    0000165F DD 4E F2         [19] 4601 	ld	c, -14 (ix)
    00001662 DD 46 F3         [19] 4602 	ld	b, -13 (ix)
                                   4603 ;E:\Dropbox\FAUSTO\SVILUPPI\MSX\CODE\C\MSXgl\projects\exsoccer/exsoccer_s2_b0.c:925: if (targetY < FIELD_BOUND_Y_TOP) { // Shooting UP
    00001665 DD 5E FC         [19] 4604 	ld	e, -4 (ix)
    00001668 DD 56 FD         [19] 4605 	ld	d, -3 (ix)
    0000166B 7B               [ 4] 4606 	ld	a, e
    0000166C D6 32            [ 7] 4607 	sub	a, #0x32
    0000166E 7A               [ 4] 4608 	ld	a, d
    0000166F DE 00            [ 7] 4609 	sbc	a, #0x00
    00001671 30 0F            [12] 4610 	jr	NC, 00130$
                                   4611 ;E:\Dropbox\FAUSTO\SVILUPPI\MSX\CODE\C\MSXgl\projects\exsoccer/exsoccer_s2_b0.c:926: arcDy = (i16)FIELD_BOUND_Y_TOP - (i16)g_Players[fromId].Y;
    00001673 E1               [10] 4612 	pop	hl
    00001674 E5               [11] 4613 	push	hl
    00001675 4E               [ 7] 4614 	ld	c, (hl)
    00001676 23               [ 6] 4615 	inc	hl
    00001677 46               [ 7] 4616 	ld	b, (hl)
    00001678 3E 32            [ 7] 4617 	ld	a, #0x32
    0000167A 91               [ 4] 4618 	sub	a, c
    0000167B 4F               [ 4] 4619 	ld	c, a
    0000167C 9F               [ 4] 4620 	sbc	a, a
    0000167D 90               [ 4] 4621 	sub	a, b
    0000167E 47               [ 4] 4622 	ld	b, a
    0000167F C3r97r16         [10] 4623 	jp	00131$
    00001682                       4624 00130$:
                                   4625 ;E:\Dropbox\FAUSTO\SVILUPPI\MSX\CODE\C\MSXgl\projects\exsoccer/exsoccer_s2_b0.c:927: } else if (targetY > FIELD_BOUND_Y_BOTTOM) { // Shooting DOWN
    00001682 3E AE            [ 7] 4626 	ld	a, #0xae
    00001684 BB               [ 4] 4627 	cp	a, e
    00001685 3E 01            [ 7] 4628 	ld	a, #0x01
    00001687 9A               [ 4] 4629 	sbc	a, d
    00001688 30 0D            [12] 4630 	jr	NC, 00131$
                                   4631 ;E:\Dropbox\FAUSTO\SVILUPPI\MSX\CODE\C\MSXgl\projects\exsoccer/exsoccer_s2_b0.c:928: arcDy = (i16)FIELD_BOUND_Y_BOTTOM - (i16)g_Players[fromId].Y;
    0000168A E1               [10] 4632 	pop	hl
    0000168B E5               [11] 4633 	push	hl
    0000168C 4E               [ 7] 4634 	ld	c, (hl)
    0000168D 23               [ 6] 4635 	inc	hl
    0000168E 46               [ 7] 4636 	ld	b, (hl)
    0000168F 3E AE            [ 7] 4637 	ld	a, #0xae
    00001691 91               [ 4] 4638 	sub	a, c
    00001692 4F               [ 4] 4639 	ld	c, a
    00001693 3E 01            [ 7] 4640 	ld	a, #0x01
    00001695 98               [ 4] 4641 	sbc	a, b
    00001696 47               [ 4] 4642 	ld	b, a
    00001697                       4643 00131$:
                                   4644 ;E:\Dropbox\FAUSTO\SVILUPPI\MSX\CODE\C\MSXgl\projects\exsoccer/exsoccer_s2_b0.c:930: g_Ball.PassTotalDist = (u16)(Math_Abs32(dx) + Math_Abs32(arcDy));
    00001697 DD 5E F0         [19] 4645 	ld	e, -16 (ix)
    0000169A DD 7E F1         [19] 4646 	ld	a, -15 (ix)
    0000169D 57               [ 4] 4647 	ld	d, a
    0000169E 07               [ 4] 4648 	rlca
    0000169F ED 62            [15] 4649 	sbc	hl, hl
    000016A1 C5               [11] 4650 	push	bc
    000016A2 CDr15r0D         [17] 4651 	call	_Math_Abs32
    000016A5 DD 73 F8         [19] 4652 	ld	-8 (ix), e
    000016A8 DD 72 F9         [19] 4653 	ld	-7 (ix), d
    000016AB DD 75 FA         [19] 4654 	ld	-6 (ix), l
    000016AE DD 74 FB         [19] 4655 	ld	-5 (ix), h
    000016B1 C1               [10] 4656 	pop	bc
    000016B2 78               [ 4] 4657 	ld	a, b
    000016B3 07               [ 4] 4658 	rlca
    000016B4 ED 62            [15] 4659 	sbc	hl, hl
    000016B6 59               [ 4] 4660 	ld	e, c
    000016B7 50               [ 4] 4661 	ld	d, b
    000016B8 CDr15r0D         [17] 4662 	call	_Math_Abs32
    000016BB DD 4E F8         [19] 4663 	ld	c, -8 (ix)
    000016BE DD 46 F9         [19] 4664 	ld	b, -7 (ix)
    000016C1 EB               [ 4] 4665 	ex	de, hl
    000016C2 09               [11] 4666 	add	hl, bc
    000016C3 DD 75 FA         [19] 4667 	ld	-6 (ix), l
    000016C6 DD 74 FB         [19] 4668 	ld	-5 (ix), h
    000016C9 21r15r00         [10] 4669 	ld	hl, #(_g_Ball + 21)
    000016CC DD 7E FA         [19] 4670 	ld	a, -6 (ix)
    000016CF 77               [ 7] 4671 	ld	(hl), a
    000016D0 23               [ 6] 4672 	inc	hl
    000016D1 DD 7E FB         [19] 4673 	ld	a, -5 (ix)
    000016D4 77               [ 7] 4674 	ld	(hl), a
    000016D5                       4675 00132$:
                                   4676 ;E:\Dropbox\FAUSTO\SVILUPPI\MSX\CODE\C\MSXgl\projects\exsoccer/exsoccer_s2_b0.c:931: }
    000016D5 DD F9            [10] 4677 	ld	sp, ix
    000016D7 DD E1            [14] 4678 	pop	ix
    000016D9 C9               [10] 4679 	ret
                                   4680 ;E:\Dropbox\FAUSTO\SVILUPPI\MSX\CODE\C\MSXgl\projects\exsoccer/exsoccer_s2_b0.c:933: void TickBallFlying() {
                                   4681 ;	---------------------------------
                                   4682 ; Function TickBallFlying
                                   4683 ; ---------------------------------
    000016DA                       4684 _TickBallFlying::
    000016DA DD E5            [15] 4685 	push	ix
    000016DC DD 21 00 00      [14] 4686 	ld	ix,#0
    000016E0 DD 39            [15] 4687 	add	ix,sp
    000016E2 21 E8 FF         [10] 4688 	ld	hl, #-24
    000016E5 39               [11] 4689 	add	hl, sp
    000016E6 F9               [ 6] 4690 	ld	sp, hl
                                   4691 ;E:\Dropbox\FAUSTO\SVILUPPI\MSX\CODE\C\MSXgl\projects\exsoccer/exsoccer_s2_b0.c:935: if(g_MatchStatus == MATCH_BEFORE_THROW_IN || g_MatchStatus == MATCH_THROW_IN || 
    000016E7 3Ar00r00         [13] 4692 	ld	a,(_g_MatchStatus+0)
    000016EA FE 03            [ 7] 4693 	cp	a,#0x03
    000016EC CArE6r1F         [10] 4694 	jp	Z,00198$
                                   4695 ;E:\Dropbox\FAUSTO\SVILUPPI\MSX\CODE\C\MSXgl\projects\exsoccer/exsoccer_s2_b0.c:936: g_MatchStatus == MATCH_BEFORE_GOAL_KICK || g_MatchStatus == MATCH_GOAL_KICK ||
    000016EF FE 08            [ 7] 4696 	cp	a,#0x08
    000016F1 CArE6r1F         [10] 4697 	jp	Z,00198$
    000016F4 FE 05            [ 7] 4698 	cp	a,#0x05
    000016F6 CArE6r1F         [10] 4699 	jp	Z,00198$
                                   4700 ;E:\Dropbox\FAUSTO\SVILUPPI\MSX\CODE\C\MSXgl\projects\exsoccer/exsoccer_s2_b0.c:937: g_MatchStatus == MATCH_BEFORE_CORNER_KICK || g_MatchStatus == MATCH_CORNER_KICK ||
    000016F9 FE 0A            [ 7] 4701 	cp	a,#0x0a
    000016FB CArE6r1F         [10] 4702 	jp	Z,00198$
    000016FE FE 02            [ 7] 4703 	cp	a,#0x02
    00001700 CArE6r1F         [10] 4704 	jp	Z,00198$
                                   4705 ;E:\Dropbox\FAUSTO\SVILUPPI\MSX\CODE\C\MSXgl\projects\exsoccer/exsoccer_s2_b0.c:938: g_MatchStatus == MATCH_BEFORE_KICK_OFF) {
    00001703 FE 09            [ 7] 4706 	cp	a,#0x09
    00001705 CArE6r1F         [10] 4707 	jp	Z,00198$
    00001708 3D               [ 4] 4708 	dec	a
                                   4709 ;E:\Dropbox\FAUSTO\SVILUPPI\MSX\CODE\C\MSXgl\projects\exsoccer/exsoccer_s2_b0.c:939: return;
    00001709 CArE6r1F         [10] 4710 	jp	Z,00198$
                                   4711 ;E:\Dropbox\FAUSTO\SVILUPPI\MSX\CODE\C\MSXgl\projects\exsoccer/exsoccer_s2_b0.c:943: if (g_Ball.PossessionPlayerId != NO_VALUE) return;
    0000170C 3Ar06r00         [13] 4712 	ld	a, (#(_g_Ball + 6) + 0)
    0000170F 3C               [ 4] 4713 	inc	a
    00001710 C2rE6r1F         [10] 4714 	jp	NZ,00198$
                                   4715 ;E:\Dropbox\FAUSTO\SVILUPPI\MSX\CODE\C\MSXgl\projects\exsoccer/exsoccer_s2_b0.c:946: bool isMovingToPlayer = (g_Ball.PassTargetPlayerId != NO_VALUE);
    00001713 21r10r00         [10] 4716 	ld	hl, #(_g_Ball + 16)
    00001716 4E               [ 7] 4717 	ld	c, (hl)
    00001717 79               [ 4] 4718 	ld	a, c
    00001718 3C               [ 4] 4719 	inc	a
    00001719 3E 01            [ 7] 4720 	ld	a, #0x01
    0000171B 28 01            [12] 4721 	jr	Z, 00483$
    0000171D AF               [ 4] 4722 	xor	a, a
    0000171E                       4723 00483$:
    0000171E EE 01            [ 7] 4724 	xor	a, #0x01
    00001720 DD 77 EA         [19] 4725 	ld	-22 (ix), a
                                   4726 ;E:\Dropbox\FAUSTO\SVILUPPI\MSX\CODE\C\MSXgl\projects\exsoccer/exsoccer_s2_b0.c:947: bool isFreeMoving = (g_Ball.ShotActive != 0);
    00001723 3Ar1Br00         [13] 4727 	ld	a, (#(_g_Ball + 27) + 0)
    00001726 DD 77 EB         [19] 4728 	ld	-21 (ix), a
    00001729 D6 01            [ 7] 4729 	sub	a,#0x01
    0000172B 3E 00            [ 7] 4730 	ld	a, #0x00
    0000172D 17               [ 4] 4731 	rla
    0000172E EE 01            [ 7] 4732 	xor	a, #0x01
    00001730 47               [ 4] 4733 	ld	b, a
                                   4734 ;E:\Dropbox\FAUSTO\SVILUPPI\MSX\CODE\C\MSXgl\projects\exsoccer/exsoccer_s2_b0.c:949: if (!isMovingToPlayer && !isFreeMoving) return;
    00001731 DD 7E EA         [19] 4735 	ld	a, -22 (ix)
    00001734 B7               [ 4] 4736 	or	a,a
    00001735 20 04            [12] 4737 	jr	NZ, 00112$
    00001737 B0               [ 4] 4738 	or	a,b
    00001738 CArE6r1F         [10] 4739 	jp	Z,00198$
    0000173B                       4740 00112$:
                                   4741 ;E:\Dropbox\FAUSTO\SVILUPPI\MSX\CODE\C\MSXgl\projects\exsoccer/exsoccer_s2_b0.c:953: if (isMovingToPlayer) {
    0000173B DD 7E EA         [19] 4742 	ld	a, -22 (ix)
    0000173E B7               [ 4] 4743 	or	a, a
    0000173F 28 21            [12] 4744 	jr	Z, 00115$
                                   4745 ;E:\Dropbox\FAUSTO\SVILUPPI\MSX\CODE\C\MSXgl\projects\exsoccer/exsoccer_s2_b0.c:954: tx = g_Players[g_Ball.PassTargetPlayerId].X;
    00001741 11r00r00         [10] 4746 	ld	de, #_g_Players+0
    00001744 06 00            [ 7] 4747 	ld	b, #0x00
    00001746 69               [ 4] 4748 	ld	l, c
    00001747 60               [ 4] 4749 	ld	h, b
    00001748 29               [11] 4750 	add	hl, hl
    00001749 29               [11] 4751 	add	hl, hl
    0000174A 09               [11] 4752 	add	hl, bc
    0000174B 29               [11] 4753 	add	hl, hl
    0000174C 29               [11] 4754 	add	hl, hl
    0000174D 09               [11] 4755 	add	hl, bc
    0000174E 19               [11] 4756 	add	hl, de
                                   4757 ;	spillPairReg hl
                                   4758 ;	spillPairReg hl
    0000174F 5D               [ 4] 4759 	ld	e, l
    00001750 54               [ 4] 4760 	ld	d, h
                                   4761 ;	spillPairReg hl
                                   4762 ;	spillPairReg hl
    00001751 23               [ 6] 4763 	inc	hl
    00001752 23               [ 6] 4764 	inc	hl
    00001753 4E               [ 7] 4765 	ld	c, (hl)
    00001754 23               [ 6] 4766 	inc	hl
    00001755 46               [ 7] 4767 	ld	b, (hl)
                                   4768 ;E:\Dropbox\FAUSTO\SVILUPPI\MSX\CODE\C\MSXgl\projects\exsoccer/exsoccer_s2_b0.c:955: ty = g_Players[g_Ball.PassTargetPlayerId].Y;
    00001756 1A               [ 7] 4769 	ld	a, (de)
    00001757 DD 77 EC         [19] 4770 	ld	-20 (ix), a
    0000175A 13               [ 6] 4771 	inc	de
    0000175B 1A               [ 7] 4772 	ld	a, (de)
    0000175C DD 77 ED         [19] 4773 	ld	-19 (ix), a
    0000175F C3r72r17         [10] 4774 	jp	00116$
    00001762                       4775 00115$:
                                   4776 ;E:\Dropbox\FAUSTO\SVILUPPI\MSX\CODE\C\MSXgl\projects\exsoccer/exsoccer_s2_b0.c:957: tx = g_Ball.TargetX;
    00001762 ED 4Br17r00      [20] 4777 	ld	bc, (#_g_Ball + 23)
                                   4778 ;E:\Dropbox\FAUSTO\SVILUPPI\MSX\CODE\C\MSXgl\projects\exsoccer/exsoccer_s2_b0.c:958: ty = g_Ball.TargetY;
    00001766 21r19r00         [10] 4779 	ld	hl, #_g_Ball + 25
    00001769 7E               [ 7] 4780 	ld	a, (hl)
    0000176A DD 77 EC         [19] 4781 	ld	-20 (ix), a
    0000176D 23               [ 6] 4782 	inc	hl
    0000176E 7E               [ 7] 4783 	ld	a, (hl)
    0000176F DD 77 ED         [19] 4784 	ld	-19 (ix), a
    00001772                       4785 00116$:
                                   4786 ;E:\Dropbox\FAUSTO\SVILUPPI\MSX\CODE\C\MSXgl\projects\exsoccer/exsoccer_s2_b0.c:962: i16 dx = tx - (i16)g_Ball.X;
    00001772 21r02r00         [10] 4787 	ld	hl, #(_g_Ball + 2)
    00001775 7E               [ 7] 4788 	ld	a, (hl)
    00001776 DD 77 EE         [19] 4789 	ld	-18 (ix), a
    00001779 23               [ 6] 4790 	inc	hl
    0000177A 7E               [ 7] 4791 	ld	a, (hl)
    0000177B DD 77 EF         [19] 4792 	ld	-17 (ix), a
    0000177E DD 5E EE         [19] 4793 	ld	e, -18 (ix)
    00001781 DD 56 EF         [19] 4794 	ld	d, -17 (ix)
    00001784 79               [ 4] 4795 	ld	a, c
    00001785 93               [ 4] 4796 	sub	a, e
    00001786 4F               [ 4] 4797 	ld	c, a
    00001787 78               [ 4] 4798 	ld	a, b
    00001788 9A               [ 4] 4799 	sbc	a, d
    00001789 DD 71 F0         [19] 4800 	ld	-16 (ix), c
    0000178C DD 77 F1         [19] 4801 	ld	-15 (ix), a
                                   4802 ;E:\Dropbox\FAUSTO\SVILUPPI\MSX\CODE\C\MSXgl\projects\exsoccer/exsoccer_s2_b0.c:963: i16 dy = ty - (i16)g_Ball.Y;
    0000178F 2Ar00r00         [16] 4803 	ld	hl, (#_g_Ball + 0)
    00001792 DD 7E EC         [19] 4804 	ld	a, -20 (ix)
    00001795 95               [ 4] 4805 	sub	a, l
    00001796 4F               [ 4] 4806 	ld	c, a
    00001797 DD 7E ED         [19] 4807 	ld	a, -19 (ix)
    0000179A 9C               [ 4] 4808 	sbc	a, h
    0000179B DD 71 F2         [19] 4809 	ld	-14 (ix), c
    0000179E DD 77 F3         [19] 4810 	ld	-13 (ix), a
                                   4811 ;E:\Dropbox\FAUSTO\SVILUPPI\MSX\CODE\C\MSXgl\projects\exsoccer/exsoccer_s2_b0.c:966: u8 speed = 3; 
    000017A1 DD 36 F4 03      [19] 4812 	ld	-12 (ix), #0x03
                                   4813 ;E:\Dropbox\FAUSTO\SVILUPPI\MSX\CODE\C\MSXgl\projects\exsoccer/exsoccer_s2_b0.c:967: if (g_Ball.ShotActive == 1) speed = 5; // Fast High Shot/Kick
    000017A5 DD 7E EB         [19] 4814 	ld	a, -21 (ix)
    000017A8 3D               [ 4] 4815 	dec	a
    000017A9 3E 01            [ 7] 4816 	ld	a, #0x01
    000017AB 28 01            [12] 4817 	jr	Z, 00485$
    000017AD AF               [ 4] 4818 	xor	a, a
    000017AE                       4819 00485$:
    000017AE DD 77 F5         [19] 4820 	ld	-11 (ix), a
    000017B1 B7               [ 4] 4821 	or	a, a
    000017B2 28 07            [12] 4822 	jr	Z, 00123$
    000017B4 DD 36 F4 05      [19] 4823 	ld	-12 (ix), #0x05
    000017B8 C3rD4r17         [10] 4824 	jp	00124$
    000017BB                       4825 00123$:
                                   4826 ;E:\Dropbox\FAUSTO\SVILUPPI\MSX\CODE\C\MSXgl\projects\exsoccer/exsoccer_s2_b0.c:968: else if (g_Ball.ShotActive == 2) speed = 3; // Slower Bounce
    000017BB DD 7E EB         [19] 4827 	ld	a, -21 (ix)
    000017BE D6 02            [ 7] 4828 	sub	a, #0x02
    000017C0 20 07            [12] 4829 	jr	NZ, 00120$
    000017C2 DD 36 F4 03      [19] 4830 	ld	-12 (ix), #0x03
    000017C6 C3rD4r17         [10] 4831 	jp	00124$
    000017C9                       4832 00120$:
                                   4833 ;E:\Dropbox\FAUSTO\SVILUPPI\MSX\CODE\C\MSXgl\projects\exsoccer/exsoccer_s2_b0.c:969: else if (g_Ball.ShotActive == 3) speed = 2; // Rolling
    000017C9 DD 7E EB         [19] 4834 	ld	a, -21 (ix)
    000017CC D6 03            [ 7] 4835 	sub	a, #0x03
    000017CE 20 04            [12] 4836 	jr	NZ, 00124$
    000017D0 DD 36 F4 02      [19] 4837 	ld	-12 (ix), #0x02
    000017D4                       4838 00124$:
                                   4839 ;E:\Dropbox\FAUSTO\SVILUPPI\MSX\CODE\C\MSXgl\projects\exsoccer/exsoccer_s2_b0.c:972: if (dx > -speed && dx < speed && dy > -speed && dy < speed) {
    000017D4 DD 7E F4         [19] 4840 	ld	a, -12 (ix)
    000017D7 DD 77 F6         [19] 4841 	ld	-10 (ix), a
    000017DA DD 36 F7 00      [19] 4842 	ld	-9 (ix), #0x00
    000017DE AF               [ 4] 4843 	xor	a, a
    000017DF DD 96 F6         [19] 4844 	sub	a, -10 (ix)
    000017E2 DD 77 F8         [19] 4845 	ld	-8 (ix), a
    000017E5 9F               [ 4] 4846 	sbc	a, a
    000017E6 DD 96 F7         [19] 4847 	sub	a, -9 (ix)
    000017E9 DD 77 F9         [19] 4848 	ld	-7 (ix), a
    000017EC DD 7E F0         [19] 4849 	ld	a, -16 (ix)
    000017EF DD 77 FA         [19] 4850 	ld	-6 (ix), a
    000017F2 DD 7E F1         [19] 4851 	ld	a, -15 (ix)
    000017F5 DD 77 FB         [19] 4852 	ld	-5 (ix), a
    000017F8 DD 7E F8         [19] 4853 	ld	a, -8 (ix)
    000017FB DD 96 FA         [19] 4854 	sub	a, -6 (ix)
    000017FE DD 7E F9         [19] 4855 	ld	a, -7 (ix)
    00001801 DD 9E FB         [19] 4856 	sbc	a, -5 (ix)
    00001804 E2r09r18         [10] 4857 	jp	PO, 00490$
    00001807 EE 80            [ 7] 4858 	xor	a, #0x80
    00001809                       4859 00490$:
    00001809 F2r25r1D         [10] 4860 	jp	P, 00160$
    0000180C DD 7E F4         [19] 4861 	ld	a, -12 (ix)
    0000180F DD 77 FC         [19] 4862 	ld	-4 (ix), a
    00001812 DD 36 FD 00      [19] 4863 	ld	-3 (ix), #0x00
    00001816 DD 7E F0         [19] 4864 	ld	a, -16 (ix)
    00001819 DD 96 FC         [19] 4865 	sub	a, -4 (ix)
    0000181C DD 7E F1         [19] 4866 	ld	a, -15 (ix)
    0000181F DD 9E FD         [19] 4867 	sbc	a, -3 (ix)
    00001822 E2r27r18         [10] 4868 	jp	PO, 00491$
    00001825 EE 80            [ 7] 4869 	xor	a, #0x80
    00001827                       4870 00491$:
    00001827 F2r25r1D         [10] 4871 	jp	P, 00160$
    0000182A DD 7E F2         [19] 4872 	ld	a, -14 (ix)
    0000182D DD 77 FE         [19] 4873 	ld	-2 (ix), a
    00001830 DD 7E F3         [19] 4874 	ld	a, -13 (ix)
    00001833 DD 77 FF         [19] 4875 	ld	-1 (ix), a
    00001836 DD 7E F8         [19] 4876 	ld	a, -8 (ix)
    00001839 DD 96 FE         [19] 4877 	sub	a, -2 (ix)
    0000183C DD 7E F9         [19] 4878 	ld	a, -7 (ix)
    0000183F DD 9E FF         [19] 4879 	sbc	a, -1 (ix)
    00001842 E2r47r18         [10] 4880 	jp	PO, 00492$
    00001845 EE 80            [ 7] 4881 	xor	a, #0x80
    00001847                       4882 00492$:
    00001847 F2r25r1D         [10] 4883 	jp	P, 00160$
    0000184A DD 7E F2         [19] 4884 	ld	a, -14 (ix)
    0000184D DD 96 FC         [19] 4885 	sub	a, -4 (ix)
    00001850 DD 7E F3         [19] 4886 	ld	a, -13 (ix)
    00001853 DD 9E FD         [19] 4887 	sbc	a, -3 (ix)
    00001856 E2r5Br18         [10] 4888 	jp	PO, 00493$
    00001859 EE 80            [ 7] 4889 	xor	a, #0x80
    0000185B                       4890 00493$:
    0000185B F2r25r1D         [10] 4891 	jp	P, 00160$
                                   4892 ;E:\Dropbox\FAUSTO\SVILUPPI\MSX\CODE\C\MSXgl\projects\exsoccer/exsoccer_s2_b0.c:976: if (isMovingToPlayer) {
    0000185E DD 7E EA         [19] 4893 	ld	a, -22 (ix)
    00001861 B7               [ 4] 4894 	or	a, a
    00001862 28 18            [12] 4895 	jr	Z, 00157$
                                   4896 ;E:\Dropbox\FAUSTO\SVILUPPI\MSX\CODE\C\MSXgl\projects\exsoccer/exsoccer_s2_b0.c:978: g_Ball.KickMoveState = 3; // Force ball to snap to feet immediately (No visual lag)
    00001864 21r0Dr00         [10] 4897 	ld	hl, #(_g_Ball + 13)
    00001867 36 03            [10] 4898 	ld	(hl), #0x03
                                   4899 ;E:\Dropbox\FAUSTO\SVILUPPI\MSX\CODE\C\MSXgl\projects\exsoccer/exsoccer_s2_b0.c:979: PutBallOnPlayerFeet(g_Ball.PassTargetPlayerId);
    00001869 3Ar10r00         [13] 4900 	ld	a, (#(_g_Ball + 16) + 0)
    0000186C CDr00r00         [17] 4901 	call	_PutBallOnPlayerFeet
                                   4902 ;E:\Dropbox\FAUSTO\SVILUPPI\MSX\CODE\C\MSXgl\projects\exsoccer/exsoccer_s2_b0.c:980: g_Ball.PassTargetPlayerId = NO_VALUE;
    0000186F 21r10r00         [10] 4903 	ld	hl, #(_g_Ball + 16)
    00001872 36 FF            [10] 4904 	ld	(hl), #0xff
                                   4905 ;E:\Dropbox\FAUSTO\SVILUPPI\MSX\CODE\C\MSXgl\projects\exsoccer/exsoccer_s2_b0.c:981: g_Ball.Size = 1;
    00001874 21r04r00         [10] 4906 	ld	hl, #(_g_Ball + 4)
    00001877 36 01            [10] 4907 	ld	(hl), #0x01
                                   4908 ;E:\Dropbox\FAUSTO\SVILUPPI\MSX\CODE\C\MSXgl\projects\exsoccer/exsoccer_s2_b0.c:982: return;
    00001879 C3rE6r1F         [10] 4909 	jp	00198$
    0000187C                       4910 00157$:
                                   4911 ;E:\Dropbox\FAUSTO\SVILUPPI\MSX\CODE\C\MSXgl\projects\exsoccer/exsoccer_s2_b0.c:988: if (g_Ball.ShotActive == 1) {
    0000187C DD 7E F5         [19] 4912 	ld	a, -11 (ix)
    0000187F B7               [ 4] 4913 	or	a, a
    00001880 CAr3Dr1B         [10] 4914 	jp	Z, 00154$
                                   4915 ;E:\Dropbox\FAUSTO\SVILUPPI\MSX\CODE\C\MSXgl\projects\exsoccer/exsoccer_s2_b0.c:992: bool isInsideField = (ty >= FIELD_BOUND_Y_TOP && ty <= FIELD_BOUND_Y_BOTTOM);
    00001883 DD 7E EC         [19] 4916 	ld	a, -20 (ix)
    00001886 DD 77 FE         [19] 4917 	ld	-2 (ix), a
    00001889 DD 7E ED         [19] 4918 	ld	a, -19 (ix)
    0000188C DD 77 FF         [19] 4919 	ld	-1 (ix), a
    0000188F DD 7E FE         [19] 4920 	ld	a, -2 (ix)
    00001892 D6 32            [ 7] 4921 	sub	a, #0x32
    00001894 DD 7E FF         [19] 4922 	ld	a, -1 (ix)
    00001897 17               [ 4] 4923 	rla
    00001898 3F               [ 4] 4924 	ccf
    00001899 1F               [ 4] 4925 	rra
    0000189A DE 80            [ 7] 4926 	sbc	a, #0x80
    0000189C 38 12            [12] 4927 	jr	C, 00200$
    0000189E 3E AE            [ 7] 4928 	ld	a, #0xae
    000018A0 DD BE FE         [19] 4929 	cp	a, -2 (ix)
    000018A3 3E 01            [ 7] 4930 	ld	a, #0x01
    000018A5 DD 9E FF         [19] 4931 	sbc	a, -1 (ix)
    000018A8 E2rADr18         [10] 4932 	jp	PO, 00494$
    000018AB EE 80            [ 7] 4933 	xor	a, #0x80
    000018AD                       4934 00494$:
    000018AD F2rB7r18         [10] 4935 	jp	P, 00201$
    000018B0                       4936 00200$:
    000018B0 DD 36 FF 00      [19] 4937 	ld	-1 (ix), #0x00
    000018B4 C3rBBr18         [10] 4938 	jp	00202$
    000018B7                       4939 00201$:
    000018B7 DD 36 FF 01      [19] 4940 	ld	-1 (ix), #0x01
    000018BB                       4941 00202$:
                                   4942 ;E:\Dropbox\FAUSTO\SVILUPPI\MSX\CODE\C\MSXgl\projects\exsoccer/exsoccer_s2_b0.c:994: if (isInsideField) {
    000018BB DD 7E FF         [19] 4943 	ld	a, -1 (ix)
    000018BE B7               [ 4] 4944 	or	a, a
    000018BF CAr0Er1D         [10] 4945 	jp	Z, 00155$
                                   4946 ;E:\Dropbox\FAUSTO\SVILUPPI\MSX\CODE\C\MSXgl\projects\exsoccer/exsoccer_s2_b0.c:998: i16 totalVectorX = (i16)g_Ball.TargetX - (i16)g_Ball.PassStartX;
    000018C2 21r17r00         [10] 4947 	ld	hl, #(_g_Ball + 23)
    000018C5 7E               [ 7] 4948 	ld	a, (hl)
    000018C6 DD 77 FE         [19] 4949 	ld	-2 (ix), a
    000018C9 23               [ 6] 4950 	inc	hl
    000018CA 7E               [ 7] 4951 	ld	a, (hl)
    000018CB DD 77 FF         [19] 4952 	ld	-1 (ix), a
    000018CE DD 7E FE         [19] 4953 	ld	a, -2 (ix)
    000018D1 DD 77 FA         [19] 4954 	ld	-6 (ix), a
    000018D4 DD 7E FF         [19] 4955 	ld	a, -1 (ix)
    000018D7 DD 77 FB         [19] 4956 	ld	-5 (ix), a
    000018DA 21r11r00         [10] 4957 	ld	hl, #(_g_Ball + 17)
    000018DD 7E               [ 7] 4958 	ld	a, (hl)
    000018DE DD 77 FE         [19] 4959 	ld	-2 (ix), a
    000018E1 23               [ 6] 4960 	inc	hl
    000018E2 7E               [ 7] 4961 	ld	a, (hl)
    000018E3 DD 77 FF         [19] 4962 	ld	-1 (ix), a
    000018E6 DD 7E FE         [19] 4963 	ld	a, -2 (ix)
    000018E9 DD 77 FC         [19] 4964 	ld	-4 (ix), a
    000018EC DD 7E FF         [19] 4965 	ld	a, -1 (ix)
    000018EF DD 77 FD         [19] 4966 	ld	-3 (ix), a
    000018F2 DD 7E FA         [19] 4967 	ld	a, -6 (ix)
    000018F5 DD 96 FC         [19] 4968 	sub	a, -4 (ix)
    000018F8 DD 77 FE         [19] 4969 	ld	-2 (ix), a
    000018FB DD 7E FB         [19] 4970 	ld	a, -5 (ix)
    000018FE DD 9E FD         [19] 4971 	sbc	a, -3 (ix)
    00001901 DD 77 FF         [19] 4972 	ld	-1 (ix), a
    00001904 DD 7E FE         [19] 4973 	ld	a, -2 (ix)
    00001907 DD 77 FC         [19] 4974 	ld	-4 (ix), a
    0000190A DD 7E FF         [19] 4975 	ld	a, -1 (ix)
    0000190D DD 77 FD         [19] 4976 	ld	-3 (ix), a
                                   4977 ;E:\Dropbox\FAUSTO\SVILUPPI\MSX\CODE\C\MSXgl\projects\exsoccer/exsoccer_s2_b0.c:999: i16 totalVectorY = (i16)g_Ball.TargetY - (i16)g_Ball.PassStartY;
    00001910 21r19r00         [10] 4978 	ld	hl, #(_g_Ball + 25)
    00001913 7E               [ 7] 4979 	ld	a, (hl)
    00001914 DD 77 FE         [19] 4980 	ld	-2 (ix), a
    00001917 23               [ 6] 4981 	inc	hl
    00001918 7E               [ 7] 4982 	ld	a, (hl)
    00001919 DD 77 FF         [19] 4983 	ld	-1 (ix), a
    0000191C DD 7E FE         [19] 4984 	ld	a, -2 (ix)
    0000191F DD 77 F8         [19] 4985 	ld	-8 (ix), a
    00001922 DD 7E FF         [19] 4986 	ld	a, -1 (ix)
    00001925 DD 77 F9         [19] 4987 	ld	-7 (ix), a
    00001928 21r13r00         [10] 4988 	ld	hl, #(_g_Ball + 19)
    0000192B 7E               [ 7] 4989 	ld	a, (hl)
    0000192C DD 77 FE         [19] 4990 	ld	-2 (ix), a
    0000192F 23               [ 6] 4991 	inc	hl
    00001930 7E               [ 7] 4992 	ld	a, (hl)
    00001931 DD 77 FF         [19] 4993 	ld	-1 (ix), a
    00001934 DD 7E FE         [19] 4994 	ld	a, -2 (ix)
    00001937 DD 77 FA         [19] 4995 	ld	-6 (ix), a
    0000193A DD 7E FF         [19] 4996 	ld	a, -1 (ix)
    0000193D DD 77 FB         [19] 4997 	ld	-5 (ix), a
    00001940 DD 7E F8         [19] 4998 	ld	a, -8 (ix)
    00001943 DD 96 FA         [19] 4999 	sub	a, -6 (ix)
    00001946 DD 77 FE         [19] 5000 	ld	-2 (ix), a
    00001949 DD 7E F9         [19] 5001 	ld	a, -7 (ix)
    0000194C DD 9E FB         [19] 5002 	sbc	a, -5 (ix)
    0000194F DD 77 FF         [19] 5003 	ld	-1 (ix), a
                                   5004 ;E:\Dropbox\FAUSTO\SVILUPPI\MSX\CODE\C\MSXgl\projects\exsoccer/exsoccer_s2_b0.c:1002: g_Ball.PassStartX = g_Ball.X;
    00001952 21r11r00         [10] 5005 	ld	hl, #(_g_Ball + 17)
    00001955 DD 7E EE         [19] 5006 	ld	a, -18 (ix)
    00001958 77               [ 7] 5007 	ld	(hl), a
    00001959 23               [ 6] 5008 	inc	hl
    0000195A DD 7E EF         [19] 5009 	ld	a, -17 (ix)
    0000195D 77               [ 7] 5010 	ld	(hl), a
                                   5011 ;E:\Dropbox\FAUSTO\SVILUPPI\MSX\CODE\C\MSXgl\projects\exsoccer/exsoccer_s2_b0.c:1003: g_Ball.PassStartY = g_Ball.Y;
    0000195E 21r00r00         [10] 5012 	ld	hl, #_g_Ball
    00001961 7E               [ 7] 5013 	ld	a, (hl)
    00001962 DD 77 FA         [19] 5014 	ld	-6 (ix), a
    00001965 23               [ 6] 5015 	inc	hl
    00001966 7E               [ 7] 5016 	ld	a, (hl)
    00001967 DD 77 FB         [19] 5017 	ld	-5 (ix), a
    0000196A 21r13r00         [10] 5018 	ld	hl, #(_g_Ball + 19)
    0000196D DD 7E FA         [19] 5019 	ld	a, -6 (ix)
    00001970 77               [ 7] 5020 	ld	(hl), a
    00001971 23               [ 6] 5021 	inc	hl
    00001972 DD 7E FB         [19] 5022 	ld	a, -5 (ix)
    00001975 77               [ 7] 5023 	ld	(hl), a
                                   5024 ;E:\Dropbox\FAUSTO\SVILUPPI\MSX\CODE\C\MSXgl\projects\exsoccer/exsoccer_s2_b0.c:1006: i16 bounceDx = totalVectorX / 4; 
    00001976 DD 7E FC         [19] 5025 	ld	a, -4 (ix)
    00001979 DD 77 F9         [19] 5026 	ld	-7 (ix), a
    0000197C DD 7E FD         [19] 5027 	ld	a, -3 (ix)
    0000197F DD 77 FA         [19] 5028 	ld	-6 (ix), a
    00001982 DD 7E F9         [19] 5029 	ld	a, -7 (ix)
    00001985 DD 77 FC         [19] 5030 	ld	-4 (ix), a
    00001988 DD 7E FA         [19] 5031 	ld	a, -6 (ix)
    0000198B DD 77 FD         [19] 5032 	ld	-3 (ix), a
    0000198E DD CB FA 7E      [20] 5033 	bit	7, -6 (ix)
    00001992 28 10            [12] 5034 	jr	Z, 00203$
    00001994 DD 7E F9         [19] 5035 	ld	a, -7 (ix)
    00001997 C6 03            [ 7] 5036 	add	a, #0x03
    00001999 DD 77 FC         [19] 5037 	ld	-4 (ix), a
    0000199C DD 7E FA         [19] 5038 	ld	a, -6 (ix)
    0000199F CE 00            [ 7] 5039 	adc	a, #0x00
    000019A1 DD 77 FD         [19] 5040 	ld	-3 (ix), a
    000019A4                       5041 00203$:
    000019A4 DD CB FD 2E      [23] 5042 	sra	-3 (ix)
    000019A8 DD CB FC 1E      [23] 5043 	rr	-4 (ix)
    000019AC DD CB FD 2E      [23] 5044 	sra	-3 (ix)
    000019B0 DD CB FC 1E      [23] 5045 	rr	-4 (ix)
    000019B4 DD 7E FC         [19] 5046 	ld	a, -4 (ix)
    000019B7 DD 77 F6         [19] 5047 	ld	-10 (ix), a
    000019BA DD 7E FD         [19] 5048 	ld	a, -3 (ix)
    000019BD DD 77 F7         [19] 5049 	ld	-9 (ix), a
                                   5050 ;E:\Dropbox\FAUSTO\SVILUPPI\MSX\CODE\C\MSXgl\projects\exsoccer/exsoccer_s2_b0.c:1007: i16 bounceDy = totalVectorY / 4; 
    000019C0 DD 7E FE         [19] 5051 	ld	a, -2 (ix)
    000019C3 DD 77 FB         [19] 5052 	ld	-5 (ix), a
    000019C6 DD 7E FF         [19] 5053 	ld	a, -1 (ix)
    000019C9 DD 77 FC         [19] 5054 	ld	-4 (ix), a
    000019CC DD 7E FB         [19] 5055 	ld	a, -5 (ix)
    000019CF DD 77 FE         [19] 5056 	ld	-2 (ix), a
    000019D2 DD 7E FC         [19] 5057 	ld	a, -4 (ix)
    000019D5 DD 77 FF         [19] 5058 	ld	-1 (ix), a
    000019D8 DD CB FC 7E      [20] 5059 	bit	7, -4 (ix)
    000019DC 28 10            [12] 5060 	jr	Z, 00204$
    000019DE DD 7E FB         [19] 5061 	ld	a, -5 (ix)
    000019E1 C6 03            [ 7] 5062 	add	a, #0x03
    000019E3 DD 77 FE         [19] 5063 	ld	-2 (ix), a
    000019E6 DD 7E FC         [19] 5064 	ld	a, -4 (ix)
    000019E9 CE 00            [ 7] 5065 	adc	a, #0x00
    000019EB DD 77 FF         [19] 5066 	ld	-1 (ix), a
    000019EE                       5067 00204$:
    000019EE DD CB FF 2E      [23] 5068 	sra	-1 (ix)
    000019F2 DD CB FE 1E      [23] 5069 	rr	-2 (ix)
    000019F6 DD CB FF 2E      [23] 5070 	sra	-1 (ix)
    000019FA DD CB FE 1E      [23] 5071 	rr	-2 (ix)
    000019FE DD 7E FE         [19] 5072 	ld	a, -2 (ix)
    00001A01 DD 77 F8         [19] 5073 	ld	-8 (ix), a
    00001A04 DD 7E FF         [19] 5074 	ld	a, -1 (ix)
    00001A07 DD 77 F9         [19] 5075 	ld	-7 (ix), a
                                   5076 ;E:\Dropbox\FAUSTO\SVILUPPI\MSX\CODE\C\MSXgl\projects\exsoccer/exsoccer_s2_b0.c:1010: i16 newTx = (i16)g_Ball.X + bounceDx;
    00001A0A 21r02r00         [10] 5077 	ld	hl, #(_g_Ball + 2)
    00001A0D 7E               [ 7] 5078 	ld	a, (hl)
    00001A0E DD 77 FE         [19] 5079 	ld	-2 (ix), a
    00001A11 23               [ 6] 5080 	inc	hl
    00001A12 7E               [ 7] 5081 	ld	a, (hl)
    00001A13 DD 77 FF         [19] 5082 	ld	-1 (ix), a
    00001A16 DD 7E FE         [19] 5083 	ld	a, -2 (ix)
    00001A19 DD 77 FC         [19] 5084 	ld	-4 (ix), a
    00001A1C DD 7E FF         [19] 5085 	ld	a, -1 (ix)
    00001A1F DD 77 FD         [19] 5086 	ld	-3 (ix), a
    00001A22 DD 7E F6         [19] 5087 	ld	a, -10 (ix)
    00001A25 DD 86 FC         [19] 5088 	add	a, -4 (ix)
    00001A28 DD 77 FE         [19] 5089 	ld	-2 (ix), a
    00001A2B DD 7E F7         [19] 5090 	ld	a, -9 (ix)
    00001A2E DD 8E FD         [19] 5091 	adc	a, -3 (ix)
    00001A31 DD 77 FF         [19] 5092 	ld	-1 (ix), a
    00001A34 DD 7E FE         [19] 5093 	ld	a, -2 (ix)
    00001A37 DD 77 FA         [19] 5094 	ld	-6 (ix), a
    00001A3A DD 7E FF         [19] 5095 	ld	a, -1 (ix)
    00001A3D DD 77 FB         [19] 5096 	ld	-5 (ix), a
                                   5097 ;E:\Dropbox\FAUSTO\SVILUPPI\MSX\CODE\C\MSXgl\projects\exsoccer/exsoccer_s2_b0.c:1011: i16 newTy = (i16)g_Ball.Y + bounceDy;
    00001A40 21r00r00         [10] 5098 	ld	hl, #_g_Ball
    00001A43 7E               [ 7] 5099 	ld	a, (hl)
    00001A44 DD 77 FE         [19] 5100 	ld	-2 (ix), a
    00001A47 23               [ 6] 5101 	inc	hl
    00001A48 7E               [ 7] 5102 	ld	a, (hl)
    00001A49 DD 77 FF         [19] 5103 	ld	-1 (ix), a
    00001A4C DD 7E FE         [19] 5104 	ld	a, -2 (ix)
    00001A4F DD 77 FC         [19] 5105 	ld	-4 (ix), a
    00001A52 DD 7E FF         [19] 5106 	ld	a, -1 (ix)
    00001A55 DD 77 FD         [19] 5107 	ld	-3 (ix), a
    00001A58 DD 7E F8         [19] 5108 	ld	a, -8 (ix)
    00001A5B DD 86 FC         [19] 5109 	add	a, -4 (ix)
    00001A5E DD 77 FE         [19] 5110 	ld	-2 (ix), a
    00001A61 DD 7E F9         [19] 5111 	ld	a, -7 (ix)
    00001A64 DD 8E FD         [19] 5112 	adc	a, -3 (ix)
    00001A67 DD 77 FF         [19] 5113 	ld	-1 (ix), a
    00001A6A DD 7E FE         [19] 5114 	ld	a, -2 (ix)
    00001A6D DD 77 FC         [19] 5115 	ld	-4 (ix), a
    00001A70 DD 7E FF         [19] 5116 	ld	a, -1 (ix)
    00001A73 DD 77 FD         [19] 5117 	ld	-3 (ix), a
                                   5118 ;E:\Dropbox\FAUSTO\SVILUPPI\MSX\CODE\C\MSXgl\projects\exsoccer/exsoccer_s2_b0.c:1014: if (newTx < FIELD_BOUND_X_LEFT) newTx = FIELD_BOUND_X_LEFT;
    00001A76 DD 7E FA         [19] 5119 	ld	a, -6 (ix)
    00001A79 DD 77 FE         [19] 5120 	ld	-2 (ix), a
    00001A7C DD 7E FB         [19] 5121 	ld	a, -5 (ix)
    00001A7F DD 77 FF         [19] 5122 	ld	-1 (ix), a
    00001A82 DD 7E FE         [19] 5123 	ld	a, -2 (ix)
    00001A85 D6 0A            [ 7] 5124 	sub	a, #0x0a
    00001A87 DD 7E FF         [19] 5125 	ld	a, -1 (ix)
    00001A8A 17               [ 4] 5126 	rla
    00001A8B 3F               [ 4] 5127 	ccf
    00001A8C 1F               [ 4] 5128 	rra
    00001A8D DE 80            [ 7] 5129 	sbc	a, #0x80
    00001A8F 30 0B            [12] 5130 	jr	NC, 00128$
    00001A91 DD 36 FA 0A      [19] 5131 	ld	-6 (ix), #0x0a
    00001A95 DD 36 FB 00      [19] 5132 	ld	-5 (ix), #0
    00001A99 C3rB6r1A         [10] 5133 	jp	00129$
    00001A9C                       5134 00128$:
                                   5135 ;E:\Dropbox\FAUSTO\SVILUPPI\MSX\CODE\C\MSXgl\projects\exsoccer/exsoccer_s2_b0.c:1015: else if (newTx > FIELD_BOUND_X_RIGHT) newTx = FIELD_BOUND_X_RIGHT;
    00001A9C 3E EC            [ 7] 5136 	ld	a, #0xec
    00001A9E DD BE FE         [19] 5137 	cp	a, -2 (ix)
    00001AA1 3E 00            [ 7] 5138 	ld	a, #0x00
    00001AA3 DD 9E FF         [19] 5139 	sbc	a, -1 (ix)
    00001AA6 E2rABr1A         [10] 5140 	jp	PO, 00495$
    00001AA9 EE 80            [ 7] 5141 	xor	a, #0x80
    00001AAB                       5142 00495$:
    00001AAB F2rB6r1A         [10] 5143 	jp	P, 00129$
    00001AAE DD 36 FA EC      [19] 5144 	ld	-6 (ix), #0xec
    00001AB2 DD 36 FB 00      [19] 5145 	ld	-5 (ix), #0
    00001AB6                       5146 00129$:
                                   5147 ;E:\Dropbox\FAUSTO\SVILUPPI\MSX\CODE\C\MSXgl\projects\exsoccer/exsoccer_s2_b0.c:1017: if (newTy < FIELD_BOUND_Y_TOP) newTy = FIELD_BOUND_Y_TOP;
    00001AB6 DD 4E FC         [19] 5148 	ld	c, -4 (ix)
    00001AB9 DD 46 FD         [19] 5149 	ld	b, -3 (ix)
    00001ABC 79               [ 4] 5150 	ld	a, c
    00001ABD D6 32            [ 7] 5151 	sub	a, #0x32
    00001ABF 78               [ 4] 5152 	ld	a, b
    00001AC0 17               [ 4] 5153 	rla
    00001AC1 3F               [ 4] 5154 	ccf
    00001AC2 1F               [ 4] 5155 	rra
    00001AC3 DE 80            [ 7] 5156 	sbc	a, #0x80
    00001AC5 30 0B            [12] 5157 	jr	NC, 00133$
    00001AC7 DD 36 FC 32      [19] 5158 	ld	-4 (ix), #0x32
    00001ACB DD 36 FD 00      [19] 5159 	ld	-3 (ix), #0
    00001ACF C3rE8r1A         [10] 5160 	jp	00134$
    00001AD2                       5161 00133$:
                                   5162 ;E:\Dropbox\FAUSTO\SVILUPPI\MSX\CODE\C\MSXgl\projects\exsoccer/exsoccer_s2_b0.c:1018: else if (newTy > FIELD_BOUND_Y_BOTTOM) newTy = FIELD_BOUND_Y_BOTTOM;
    00001AD2 3E AE            [ 7] 5163 	ld	a, #0xae
    00001AD4 B9               [ 4] 5164 	cp	a, c
    00001AD5 3E 01            [ 7] 5165 	ld	a, #0x01
    00001AD7 98               [ 4] 5166 	sbc	a, b
    00001AD8 E2rDDr1A         [10] 5167 	jp	PO, 00496$
    00001ADB EE 80            [ 7] 5168 	xor	a, #0x80
    00001ADD                       5169 00496$:
    00001ADD F2rE8r1A         [10] 5170 	jp	P, 00134$
    00001AE0 DD 36 FC AE      [19] 5171 	ld	-4 (ix), #0xae
    00001AE4 DD 36 FD 01      [19] 5172 	ld	-3 (ix), #0x01
    00001AE8                       5173 00134$:
                                   5174 ;E:\Dropbox\FAUSTO\SVILUPPI\MSX\CODE\C\MSXgl\projects\exsoccer/exsoccer_s2_b0.c:1020: g_Ball.TargetX = newTx;
    00001AE8 21r17r00         [10] 5175 	ld	hl, #(_g_Ball + 23)
    00001AEB DD 7E FA         [19] 5176 	ld	a, -6 (ix)
    00001AEE 77               [ 7] 5177 	ld	(hl), a
    00001AEF 23               [ 6] 5178 	inc	hl
    00001AF0 DD 7E FB         [19] 5179 	ld	a, -5 (ix)
    00001AF3 77               [ 7] 5180 	ld	(hl), a
                                   5181 ;E:\Dropbox\FAUSTO\SVILUPPI\MSX\CODE\C\MSXgl\projects\exsoccer/exsoccer_s2_b0.c:1021: g_Ball.TargetY = newTy;
    00001AF4 21r19r00         [10] 5182 	ld	hl, #(_g_Ball + 25)
    00001AF7 DD 7E FC         [19] 5183 	ld	a, -4 (ix)
    00001AFA 77               [ 7] 5184 	ld	(hl), a
    00001AFB 23               [ 6] 5185 	inc	hl
    00001AFC DD 7E FD         [19] 5186 	ld	a, -3 (ix)
    00001AFF 77               [ 7] 5187 	ld	(hl), a
                                   5188 ;E:\Dropbox\FAUSTO\SVILUPPI\MSX\CODE\C\MSXgl\projects\exsoccer/exsoccer_s2_b0.c:1024: g_Ball.PassTotalDist = (u16)(Math_Abs32(bounceDx) + Math_Abs32(bounceDy));
    00001B00 DD 5E F6         [19] 5189 	ld	e, -10 (ix)
    00001B03 DD 7E F7         [19] 5190 	ld	a, -9 (ix)
    00001B06 57               [ 4] 5191 	ld	d, a
    00001B07 07               [ 4] 5192 	rlca
    00001B08 ED 62            [15] 5193 	sbc	hl, hl
    00001B0A CDr15r0D         [17] 5194 	call	_Math_Abs32
    00001B0D E5               [11] 5195 	push	hl
    00001B0E FD E1            [14] 5196 	pop	iy
    00001B10 4B               [ 4] 5197 	ld	c, e
    00001B11 42               [ 4] 5198 	ld	b, d
    00001B12 DD 5E F8         [19] 5199 	ld	e, -8 (ix)
    00001B15 DD 7E F9         [19] 5200 	ld	a, -7 (ix)
    00001B18 57               [ 4] 5201 	ld	d, a
    00001B19 07               [ 4] 5202 	rlca
    00001B1A ED 62            [15] 5203 	sbc	hl, hl
    00001B1C C5               [11] 5204 	push	bc
    00001B1D FD E5            [15] 5205 	push	iy
    00001B1F CDr15r0D         [17] 5206 	call	_Math_Abs32
    00001B22 FD E1            [14] 5207 	pop	iy
    00001B24 C1               [10] 5208 	pop	bc
    00001B25 EB               [ 4] 5209 	ex	de, hl
    00001B26 09               [11] 5210 	add	hl, bc
    00001B27 EB               [ 4] 5211 	ex	de, hl
    00001B28 ED 53r15r00      [20] 5212 	ld	((_g_Ball + 21)), de
                                   5213 ;E:\Dropbox\FAUSTO\SVILUPPI\MSX\CODE\C\MSXgl\projects\exsoccer/exsoccer_s2_b0.c:1026: if (g_Ball.PassTotalDist > 5) {
    00001B2C 3E 05            [ 7] 5214 	ld	a, #0x05
    00001B2E BB               [ 4] 5215 	cp	a, e
    00001B2F 3E 00            [ 7] 5216 	ld	a, #0x00
    00001B31 9A               [ 4] 5217 	sbc	a, d
    00001B32 D2r0Er1D         [10] 5218 	jp	NC, 00155$
                                   5219 ;E:\Dropbox\FAUSTO\SVILUPPI\MSX\CODE\C\MSXgl\projects\exsoccer/exsoccer_s2_b0.c:1027: g_Ball.ShotActive = 2; // Enter Bounce State
    00001B35 21r1Br00         [10] 5220 	ld	hl, #(_g_Ball + 27)
    00001B38 36 02            [10] 5221 	ld	(hl), #0x02
                                   5222 ;E:\Dropbox\FAUSTO\SVILUPPI\MSX\CODE\C\MSXgl\projects\exsoccer/exsoccer_s2_b0.c:1028: return; 
    00001B3A C3rE6r1F         [10] 5223 	jp	00198$
    00001B3D                       5224 00154$:
                                   5225 ;E:\Dropbox\FAUSTO\SVILUPPI\MSX\CODE\C\MSXgl\projects\exsoccer/exsoccer_s2_b0.c:1031: } else if (g_Ball.ShotActive == 2) {
    00001B3D DD 7E EB         [19] 5226 	ld	a, -21 (ix)
    00001B40 D6 02            [ 7] 5227 	sub	a, #0x02
    00001B42 C2r0Er1D         [10] 5228 	jp	NZ,00155$
                                   5229 ;E:\Dropbox\FAUSTO\SVILUPPI\MSX\CODE\C\MSXgl\projects\exsoccer/exsoccer_s2_b0.c:1035: i16 vecX = (i16)g_Ball.TargetX - (i16)g_Ball.PassStartX;
    00001B45 ED 4Br17r00      [20] 5230 	ld	bc, (#(_g_Ball + 23) + 0)
    00001B49 2Ar11r00         [16] 5231 	ld	hl, (#(_g_Ball + 17) + 0)
    00001B4C 79               [ 4] 5232 	ld	a, c
    00001B4D 95               [ 4] 5233 	sub	a, l
    00001B4E 4F               [ 4] 5234 	ld	c, a
    00001B4F 78               [ 4] 5235 	ld	a, b
    00001B50 9C               [ 4] 5236 	sbc	a, h
    00001B51 47               [ 4] 5237 	ld	b, a
                                   5238 ;E:\Dropbox\FAUSTO\SVILUPPI\MSX\CODE\C\MSXgl\projects\exsoccer/exsoccer_s2_b0.c:1036: i16 vecY = (i16)g_Ball.TargetY - (i16)g_Ball.PassStartY;
    00001B52 ED 5Br19r00      [20] 5239 	ld	de, (#(_g_Ball + 25) + 0)
    00001B56 2Ar13r00         [16] 5240 	ld	hl, (#(_g_Ball + 19) + 0)
    00001B59 7B               [ 4] 5241 	ld	a, e
    00001B5A 95               [ 4] 5242 	sub	a, l
    00001B5B 5F               [ 4] 5243 	ld	e, a
    00001B5C 7A               [ 4] 5244 	ld	a, d
    00001B5D 9C               [ 4] 5245 	sbc	a, h
    00001B5E 57               [ 4] 5246 	ld	d, a
    00001B5F DD 73 FE         [19] 5247 	ld	-2 (ix), e
    00001B62 DD 72 FF         [19] 5248 	ld	-1 (ix), d
                                   5249 ;E:\Dropbox\FAUSTO\SVILUPPI\MSX\CODE\C\MSXgl\projects\exsoccer/exsoccer_s2_b0.c:1038: g_Ball.PassStartX = g_Ball.X;
    00001B65 21r11r00         [10] 5250 	ld	hl, #(_g_Ball + 17)
    00001B68 DD 7E EE         [19] 5251 	ld	a, -18 (ix)
    00001B6B 77               [ 7] 5252 	ld	(hl), a
    00001B6C 23               [ 6] 5253 	inc	hl
    00001B6D DD 7E EF         [19] 5254 	ld	a, -17 (ix)
    00001B70 77               [ 7] 5255 	ld	(hl), a
                                   5256 ;E:\Dropbox\FAUSTO\SVILUPPI\MSX\CODE\C\MSXgl\projects\exsoccer/exsoccer_s2_b0.c:1039: g_Ball.PassStartY = g_Ball.Y;
    00001B71 ED 5Br00r00      [20] 5257 	ld	de, (#_g_Ball + 0)
    00001B75 ED 53r13r00      [20] 5258 	ld	((_g_Ball + 19)), de
                                   5259 ;E:\Dropbox\FAUSTO\SVILUPPI\MSX\CODE\C\MSXgl\projects\exsoccer/exsoccer_s2_b0.c:1042: i16 rollDx = vecX / 4; 
    00001B79 59               [ 4] 5260 	ld	e, c
    00001B7A 50               [ 4] 5261 	ld	d, b
    00001B7B CB 78            [ 8] 5262 	bit	7, b
    00001B7D 28 05            [12] 5263 	jr	Z, 00205$
    00001B7F 59               [ 4] 5264 	ld	e, c
    00001B80 50               [ 4] 5265 	ld	d, b
    00001B81 13               [ 6] 5266 	inc	de
    00001B82 13               [ 6] 5267 	inc	de
    00001B83 13               [ 6] 5268 	inc	de
    00001B84                       5269 00205$:
    00001B84 CB 2A            [ 8] 5270 	sra	d
    00001B86 CB 1B            [ 8] 5271 	rr	e
    00001B88 CB 2A            [ 8] 5272 	sra	d
    00001B8A CB 1B            [ 8] 5273 	rr	e
    00001B8C DD 73 F6         [19] 5274 	ld	-10 (ix), e
    00001B8F DD 72 F7         [19] 5275 	ld	-9 (ix), d
                                   5276 ;E:\Dropbox\FAUSTO\SVILUPPI\MSX\CODE\C\MSXgl\projects\exsoccer/exsoccer_s2_b0.c:1043: i16 rollDy = vecY / 4; 
    00001B92 DD 7E FE         [19] 5277 	ld	a, -2 (ix)
    00001B95 DD 77 FC         [19] 5278 	ld	-4 (ix), a
    00001B98 DD 7E FF         [19] 5279 	ld	a, -1 (ix)
    00001B9B DD 77 FD         [19] 5280 	ld	-3 (ix), a
    00001B9E DD 7E FC         [19] 5281 	ld	a, -4 (ix)
    00001BA1 DD 77 FE         [19] 5282 	ld	-2 (ix), a
    00001BA4 DD 7E FD         [19] 5283 	ld	a, -3 (ix)
    00001BA7 DD 77 FF         [19] 5284 	ld	-1 (ix), a
    00001BAA DD CB FD 7E      [20] 5285 	bit	7, -3 (ix)
    00001BAE 28 10            [12] 5286 	jr	Z, 00206$
    00001BB0 DD 7E FC         [19] 5287 	ld	a, -4 (ix)
    00001BB3 C6 03            [ 7] 5288 	add	a, #0x03
    00001BB5 DD 77 FE         [19] 5289 	ld	-2 (ix), a
    00001BB8 DD 7E FD         [19] 5290 	ld	a, -3 (ix)
    00001BBB CE 00            [ 7] 5291 	adc	a, #0x00
    00001BBD DD 77 FF         [19] 5292 	ld	-1 (ix), a
    00001BC0                       5293 00206$:
    00001BC0 DD CB FF 2E      [23] 5294 	sra	-1 (ix)
    00001BC4 DD CB FE 1E      [23] 5295 	rr	-2 (ix)
    00001BC8 DD CB FF 2E      [23] 5296 	sra	-1 (ix)
    00001BCC DD CB FE 1E      [23] 5297 	rr	-2 (ix)
    00001BD0 DD 7E FE         [19] 5298 	ld	a, -2 (ix)
    00001BD3 DD 77 F8         [19] 5299 	ld	-8 (ix), a
    00001BD6 DD 7E FF         [19] 5300 	ld	a, -1 (ix)
    00001BD9 DD 77 F9         [19] 5301 	ld	-7 (ix), a
                                   5302 ;E:\Dropbox\FAUSTO\SVILUPPI\MSX\CODE\C\MSXgl\projects\exsoccer/exsoccer_s2_b0.c:1048: i16 rollTx = (i16)g_Ball.X + rollDx;
    00001BDC 21r02r00         [10] 5303 	ld	hl, #(_g_Ball + 2)
    00001BDF 7E               [ 7] 5304 	ld	a, (hl)
    00001BE0 DD 77 FE         [19] 5305 	ld	-2 (ix), a
    00001BE3 23               [ 6] 5306 	inc	hl
    00001BE4 7E               [ 7] 5307 	ld	a, (hl)
    00001BE5 DD 77 FF         [19] 5308 	ld	-1 (ix), a
    00001BE8 DD 7E FE         [19] 5309 	ld	a, -2 (ix)
    00001BEB DD 77 FC         [19] 5310 	ld	-4 (ix), a
    00001BEE DD 7E FF         [19] 5311 	ld	a, -1 (ix)
    00001BF1 DD 77 FD         [19] 5312 	ld	-3 (ix), a
    00001BF4 DD 7E F6         [19] 5313 	ld	a, -10 (ix)
    00001BF7 DD 86 FC         [19] 5314 	add	a, -4 (ix)
    00001BFA DD 77 FE         [19] 5315 	ld	-2 (ix), a
    00001BFD DD 7E F7         [19] 5316 	ld	a, -9 (ix)
    00001C00 DD 8E FD         [19] 5317 	adc	a, -3 (ix)
    00001C03 DD 77 FF         [19] 5318 	ld	-1 (ix), a
    00001C06 DD 7E FE         [19] 5319 	ld	a, -2 (ix)
    00001C09 DD 77 FA         [19] 5320 	ld	-6 (ix), a
    00001C0C DD 7E FF         [19] 5321 	ld	a, -1 (ix)
    00001C0F DD 77 FB         [19] 5322 	ld	-5 (ix), a
                                   5323 ;E:\Dropbox\FAUSTO\SVILUPPI\MSX\CODE\C\MSXgl\projects\exsoccer/exsoccer_s2_b0.c:1049: i16 rollTy = (i16)g_Ball.Y + rollDy;
    00001C12 21r00r00         [10] 5324 	ld	hl, #_g_Ball
    00001C15 7E               [ 7] 5325 	ld	a, (hl)
    00001C16 DD 77 FE         [19] 5326 	ld	-2 (ix), a
    00001C19 23               [ 6] 5327 	inc	hl
    00001C1A 7E               [ 7] 5328 	ld	a, (hl)
    00001C1B DD 77 FF         [19] 5329 	ld	-1 (ix), a
    00001C1E DD 7E FE         [19] 5330 	ld	a, -2 (ix)
    00001C21 DD 77 FC         [19] 5331 	ld	-4 (ix), a
    00001C24 DD 7E FF         [19] 5332 	ld	a, -1 (ix)
    00001C27 DD 77 FD         [19] 5333 	ld	-3 (ix), a
    00001C2A DD 7E F8         [19] 5334 	ld	a, -8 (ix)
    00001C2D DD 86 FC         [19] 5335 	add	a, -4 (ix)
    00001C30 DD 77 FE         [19] 5336 	ld	-2 (ix), a
    00001C33 DD 7E F9         [19] 5337 	ld	a, -7 (ix)
    00001C36 DD 8E FD         [19] 5338 	adc	a, -3 (ix)
    00001C39 DD 77 FF         [19] 5339 	ld	-1 (ix), a
    00001C3C DD 7E FE         [19] 5340 	ld	a, -2 (ix)
    00001C3F DD 77 FC         [19] 5341 	ld	-4 (ix), a
    00001C42 DD 7E FF         [19] 5342 	ld	a, -1 (ix)
    00001C45 DD 77 FD         [19] 5343 	ld	-3 (ix), a
                                   5344 ;E:\Dropbox\FAUSTO\SVILUPPI\MSX\CODE\C\MSXgl\projects\exsoccer/exsoccer_s2_b0.c:1052: if (rollTx < FIELD_BOUND_X_LEFT) rollTx = FIELD_BOUND_X_LEFT;
    00001C48 DD 7E FA         [19] 5345 	ld	a, -6 (ix)
    00001C4B DD 77 FE         [19] 5346 	ld	-2 (ix), a
    00001C4E DD 7E FB         [19] 5347 	ld	a, -5 (ix)
    00001C51 DD 77 FF         [19] 5348 	ld	-1 (ix), a
    00001C54 DD 7E FE         [19] 5349 	ld	a, -2 (ix)
    00001C57 D6 0A            [ 7] 5350 	sub	a, #0x0a
    00001C59 DD 7E FF         [19] 5351 	ld	a, -1 (ix)
    00001C5C 17               [ 4] 5352 	rla
    00001C5D 3F               [ 4] 5353 	ccf
    00001C5E 1F               [ 4] 5354 	rra
    00001C5F DE 80            [ 7] 5355 	sbc	a, #0x80
    00001C61 30 0B            [12] 5356 	jr	NC, 00142$
    00001C63 DD 36 FA 0A      [19] 5357 	ld	-6 (ix), #0x0a
    00001C67 DD 36 FB 00      [19] 5358 	ld	-5 (ix), #0
    00001C6B C3r88r1C         [10] 5359 	jp	00143$
    00001C6E                       5360 00142$:
                                   5361 ;E:\Dropbox\FAUSTO\SVILUPPI\MSX\CODE\C\MSXgl\projects\exsoccer/exsoccer_s2_b0.c:1053: else if (rollTx > FIELD_BOUND_X_RIGHT) rollTx = FIELD_BOUND_X_RIGHT;
    00001C6E 3E EC            [ 7] 5362 	ld	a, #0xec
    00001C70 DD BE FE         [19] 5363 	cp	a, -2 (ix)
    00001C73 3E 00            [ 7] 5364 	ld	a, #0x00
    00001C75 DD 9E FF         [19] 5365 	sbc	a, -1 (ix)
    00001C78 E2r7Dr1C         [10] 5366 	jp	PO, 00499$
    00001C7B EE 80            [ 7] 5367 	xor	a, #0x80
    00001C7D                       5368 00499$:
    00001C7D F2r88r1C         [10] 5369 	jp	P, 00143$
    00001C80 DD 36 FA EC      [19] 5370 	ld	-6 (ix), #0xec
    00001C84 DD 36 FB 00      [19] 5371 	ld	-5 (ix), #0
    00001C88                       5372 00143$:
                                   5373 ;E:\Dropbox\FAUSTO\SVILUPPI\MSX\CODE\C\MSXgl\projects\exsoccer/exsoccer_s2_b0.c:1054: if (rollTy < FIELD_BOUND_Y_TOP) rollTy = FIELD_BOUND_Y_TOP;
    00001C88 DD 4E FC         [19] 5374 	ld	c, -4 (ix)
    00001C8B DD 46 FD         [19] 5375 	ld	b, -3 (ix)
    00001C8E 79               [ 4] 5376 	ld	a, c
    00001C8F D6 32            [ 7] 5377 	sub	a, #0x32
    00001C91 78               [ 4] 5378 	ld	a, b
    00001C92 17               [ 4] 5379 	rla
    00001C93 3F               [ 4] 5380 	ccf
    00001C94 1F               [ 4] 5381 	rra
    00001C95 DE 80            [ 7] 5382 	sbc	a, #0x80
    00001C97 30 0B            [12] 5383 	jr	NC, 00147$
    00001C99 DD 36 FC 32      [19] 5384 	ld	-4 (ix), #0x32
    00001C9D DD 36 FD 00      [19] 5385 	ld	-3 (ix), #0
    00001CA1 C3rBAr1C         [10] 5386 	jp	00148$
    00001CA4                       5387 00147$:
                                   5388 ;E:\Dropbox\FAUSTO\SVILUPPI\MSX\CODE\C\MSXgl\projects\exsoccer/exsoccer_s2_b0.c:1055: else if (rollTy > FIELD_BOUND_Y_BOTTOM) rollTy = FIELD_BOUND_Y_BOTTOM;
    00001CA4 3E AE            [ 7] 5389 	ld	a, #0xae
    00001CA6 B9               [ 4] 5390 	cp	a, c
    00001CA7 3E 01            [ 7] 5391 	ld	a, #0x01
    00001CA9 98               [ 4] 5392 	sbc	a, b
    00001CAA E2rAFr1C         [10] 5393 	jp	PO, 00500$
    00001CAD EE 80            [ 7] 5394 	xor	a, #0x80
    00001CAF                       5395 00500$:
    00001CAF F2rBAr1C         [10] 5396 	jp	P, 00148$
    00001CB2 DD 36 FC AE      [19] 5397 	ld	-4 (ix), #0xae
    00001CB6 DD 36 FD 01      [19] 5398 	ld	-3 (ix), #0x01
    00001CBA                       5399 00148$:
                                   5400 ;E:\Dropbox\FAUSTO\SVILUPPI\MSX\CODE\C\MSXgl\projects\exsoccer/exsoccer_s2_b0.c:1057: g_Ball.TargetX = rollTx;
    00001CBA 21r17r00         [10] 5401 	ld	hl, #(_g_Ball + 23)
    00001CBD DD 7E FA         [19] 5402 	ld	a, -6 (ix)
    00001CC0 77               [ 7] 5403 	ld	(hl), a
    00001CC1 23               [ 6] 5404 	inc	hl
    00001CC2 DD 7E FB         [19] 5405 	ld	a, -5 (ix)
    00001CC5 77               [ 7] 5406 	ld	(hl), a
                                   5407 ;E:\Dropbox\FAUSTO\SVILUPPI\MSX\CODE\C\MSXgl\projects\exsoccer/exsoccer_s2_b0.c:1058: g_Ball.TargetY = rollTy;
    00001CC6 21r19r00         [10] 5408 	ld	hl, #(_g_Ball + 25)
    00001CC9 DD 7E FC         [19] 5409 	ld	a, -4 (ix)
    00001CCC 77               [ 7] 5410 	ld	(hl), a
    00001CCD 23               [ 6] 5411 	inc	hl
    00001CCE DD 7E FD         [19] 5412 	ld	a, -3 (ix)
    00001CD1 77               [ 7] 5413 	ld	(hl), a
                                   5414 ;E:\Dropbox\FAUSTO\SVILUPPI\MSX\CODE\C\MSXgl\projects\exsoccer/exsoccer_s2_b0.c:1059: g_Ball.PassTotalDist = (u16)(Math_Abs32(rollDx) + Math_Abs32(rollDy));
    00001CD2 DD 5E F6         [19] 5415 	ld	e, -10 (ix)
    00001CD5 DD 7E F7         [19] 5416 	ld	a, -9 (ix)
    00001CD8 57               [ 4] 5417 	ld	d, a
    00001CD9 07               [ 4] 5418 	rlca
    00001CDA ED 62            [15] 5419 	sbc	hl, hl
    00001CDC CDr15r0D         [17] 5420 	call	_Math_Abs32
    00001CDF E5               [11] 5421 	push	hl
    00001CE0 FD E1            [14] 5422 	pop	iy
    00001CE2 4B               [ 4] 5423 	ld	c, e
    00001CE3 42               [ 4] 5424 	ld	b, d
    00001CE4 DD 5E F8         [19] 5425 	ld	e, -8 (ix)
    00001CE7 DD 7E F9         [19] 5426 	ld	a, -7 (ix)
    00001CEA 57               [ 4] 5427 	ld	d, a
    00001CEB 07               [ 4] 5428 	rlca
    00001CEC ED 62            [15] 5429 	sbc	hl, hl
    00001CEE C5               [11] 5430 	push	bc
    00001CEF FD E5            [15] 5431 	push	iy
    00001CF1 CDr15r0D         [17] 5432 	call	_Math_Abs32
    00001CF4 FD E1            [14] 5433 	pop	iy
    00001CF6 C1               [10] 5434 	pop	bc
    00001CF7 EB               [ 4] 5435 	ex	de, hl
    00001CF8 09               [11] 5436 	add	hl, bc
    00001CF9 EB               [ 4] 5437 	ex	de, hl
    00001CFA ED 53r15r00      [20] 5438 	ld	((_g_Ball + 21)), de
                                   5439 ;E:\Dropbox\FAUSTO\SVILUPPI\MSX\CODE\C\MSXgl\projects\exsoccer/exsoccer_s2_b0.c:1061: if (g_Ball.PassTotalDist > 2) {
    00001CFE 3E 02            [ 7] 5440 	ld	a, #0x02
    00001D00 BB               [ 4] 5441 	cp	a, e
    00001D01 3E 00            [ 7] 5442 	ld	a, #0x00
    00001D03 9A               [ 4] 5443 	sbc	a, d
    00001D04 30 08            [12] 5444 	jr	NC, 00155$
                                   5445 ;E:\Dropbox\FAUSTO\SVILUPPI\MSX\CODE\C\MSXgl\projects\exsoccer/exsoccer_s2_b0.c:1062: g_Ball.ShotActive = 3; // ROLLING
    00001D06 21r1Br00         [10] 5446 	ld	hl, #(_g_Ball + 27)
    00001D09 36 03            [10] 5447 	ld	(hl), #0x03
                                   5448 ;E:\Dropbox\FAUSTO\SVILUPPI\MSX\CODE\C\MSXgl\projects\exsoccer/exsoccer_s2_b0.c:1063: return;
    00001D0B C3rE6r1F         [10] 5449 	jp	00198$
    00001D0E                       5450 00155$:
                                   5451 ;E:\Dropbox\FAUSTO\SVILUPPI\MSX\CODE\C\MSXgl\projects\exsoccer/exsoccer_s2_b0.c:1068: g_Ball.ShotActive = 0;
    00001D0E 21r1Br00         [10] 5452 	ld	hl, #(_g_Ball + 27)
    00001D11 36 00            [10] 5453 	ld	(hl), #0x00
                                   5454 ;E:\Dropbox\FAUSTO\SVILUPPI\MSX\CODE\C\MSXgl\projects\exsoccer/exsoccer_s2_b0.c:1069: g_Ball.PassTargetPlayerId = NO_VALUE;
    00001D13 21r10r00         [10] 5455 	ld	hl, #(_g_Ball + 16)
    00001D16 36 FF            [10] 5456 	ld	(hl), #0xff
                                   5457 ;E:\Dropbox\FAUSTO\SVILUPPI\MSX\CODE\C\MSXgl\projects\exsoccer/exsoccer_s2_b0.c:1070: g_Ball.PossessionPlayerId = NO_VALUE;
    00001D18 21r06r00         [10] 5458 	ld	hl, #(_g_Ball + 6)
    00001D1B 36 FF            [10] 5459 	ld	(hl), #0xff
                                   5460 ;E:\Dropbox\FAUSTO\SVILUPPI\MSX\CODE\C\MSXgl\projects\exsoccer/exsoccer_s2_b0.c:1071: g_Ball.Size = 1;
    00001D1D 21r04r00         [10] 5461 	ld	hl, #(_g_Ball + 4)
    00001D20 36 01            [10] 5462 	ld	(hl), #0x01
                                   5463 ;E:\Dropbox\FAUSTO\SVILUPPI\MSX\CODE\C\MSXgl\projects\exsoccer/exsoccer_s2_b0.c:1073: return;
    00001D22 C3rE6r1F         [10] 5464 	jp	00198$
    00001D25                       5465 00160$:
                                   5466 ;E:\Dropbox\FAUSTO\SVILUPPI\MSX\CODE\C\MSXgl\projects\exsoccer/exsoccer_s2_b0.c:1078: if (Math_Abs32(dx) > Math_Abs32(dy)) {
    00001D25 DD 7E F0         [19] 5467 	ld	a, -16 (ix)
    00001D28 DD 77 E8         [19] 5468 	ld	-24 (ix), a
    00001D2B DD 7E F1         [19] 5469 	ld	a, -15 (ix)
    00001D2E DD 77 E9         [19] 5470 	ld	-23 (ix), a
    00001D31 07               [ 4] 5471 	rlca
    00001D32 9F               [ 4] 5472 	sbc	a, a
    00001D33 DD 77 EA         [19] 5473 	ld	-22 (ix), a
    00001D36 DD 77 EB         [19] 5474 	ld	-21 (ix), a
    00001D39 D1               [10] 5475 	pop	de
    00001D3A D5               [11] 5476 	push	de
    00001D3B DD 6E EA         [19] 5477 	ld	l, -22 (ix)
                                   5478 ;	spillPairReg hl
                                   5479 ;	spillPairReg hl
    00001D3E DD 66 EB         [19] 5480 	ld	h, -21 (ix)
                                   5481 ;	spillPairReg hl
                                   5482 ;	spillPairReg hl
    00001D41 CDr15r0D         [17] 5483 	call	_Math_Abs32
    00001D44 4B               [ 4] 5484 	ld	c, e
    00001D45 42               [ 4] 5485 	ld	b, d
    00001D46 DD 7E F2         [19] 5486 	ld	a, -14 (ix)
    00001D49 DD 77 EC         [19] 5487 	ld	-20 (ix), a
    00001D4C DD 7E F3         [19] 5488 	ld	a, -13 (ix)
    00001D4F DD 77 ED         [19] 5489 	ld	-19 (ix), a
    00001D52 07               [ 4] 5490 	rlca
    00001D53 9F               [ 4] 5491 	sbc	a, a
    00001D54 DD 77 EE         [19] 5492 	ld	-18 (ix), a
    00001D57 DD 77 EF         [19] 5493 	ld	-17 (ix), a
    00001D5A E5               [11] 5494 	push	hl
    00001D5B C5               [11] 5495 	push	bc
    00001D5C DD 5E EC         [19] 5496 	ld	e, -20 (ix)
    00001D5F DD 56 ED         [19] 5497 	ld	d, -19 (ix)
    00001D62 DD 6E EE         [19] 5498 	ld	l, -18 (ix)
                                   5499 ;	spillPairReg hl
                                   5500 ;	spillPairReg hl
    00001D65 DD 66 EF         [19] 5501 	ld	h, -17 (ix)
                                   5502 ;	spillPairReg hl
                                   5503 ;	spillPairReg hl
    00001D68 CDr15r0D         [17] 5504 	call	_Math_Abs32
    00001D6B DD 73 FC         [19] 5505 	ld	-4 (ix), e
    00001D6E DD 72 FD         [19] 5506 	ld	-3 (ix), d
    00001D71 DD 75 FE         [19] 5507 	ld	-2 (ix), l
    00001D74 DD 74 FF         [19] 5508 	ld	-1 (ix), h
    00001D77 C1               [10] 5509 	pop	bc
    00001D78 E1               [10] 5510 	pop	hl
    00001D79 DD 7E FC         [19] 5511 	ld	a, -4 (ix)
    00001D7C 91               [ 4] 5512 	sub	a, c
    00001D7D DD 7E FD         [19] 5513 	ld	a, -3 (ix)
    00001D80 98               [ 4] 5514 	sbc	a, b
    00001D81 DD 7E FE         [19] 5515 	ld	a, -2 (ix)
    00001D84 9D               [ 4] 5516 	sbc	a, l
    00001D85 DD 7E FF         [19] 5517 	ld	a, -1 (ix)
    00001D88 9C               [ 4] 5518 	sbc	a, h
    00001D89 E2r8Er1D         [10] 5519 	jp	PO, 00501$
    00001D8C EE 80            [ 7] 5520 	xor	a, #0x80
    00001D8E                       5521 00501$:
    00001D8E F2r1Ar1E         [10] 5522 	jp	P, 00169$
                                   5523 ;E:\Dropbox\FAUSTO\SVILUPPI\MSX\CODE\C\MSXgl\projects\exsoccer/exsoccer_s2_b0.c:1079: g_Ball.X += (dx > 0 ? speed : -speed);
    00001D91 ED 4Br02r00      [20] 5524 	ld	bc, (#(_g_Ball + 2) + 0)
    00001D95 AF               [ 4] 5525 	xor	a, a
    00001D96 DD BE FA         [19] 5526 	cp	a, -6 (ix)
    00001D99 DD 9E FB         [19] 5527 	sbc	a, -5 (ix)
    00001D9C E2rA1r1D         [10] 5528 	jp	PO, 00502$
    00001D9F EE 80            [ 7] 5529 	xor	a, #0x80
    00001DA1                       5530 00502$:
    00001DA1 F2rADr1D         [10] 5531 	jp	P, 00207$
    00001DA4 DD 5E F6         [19] 5532 	ld	e, -10 (ix)
    00001DA7 DD 56 F7         [19] 5533 	ld	d, -9 (ix)
    00001DAA C3rB3r1D         [10] 5534 	jp	00208$
    00001DAD                       5535 00207$:
    00001DAD DD 5E F8         [19] 5536 	ld	e, -8 (ix)
    00001DB0 DD 56 F9         [19] 5537 	ld	d, -7 (ix)
    00001DB3                       5538 00208$:
    00001DB3 EB               [ 4] 5539 	ex	de, hl
    00001DB4 09               [11] 5540 	add	hl, bc
    00001DB5 EB               [ 4] 5541 	ex	de, hl
    00001DB6 ED 53r02r00      [20] 5542 	ld	((_g_Ball + 2)), de
                                   5543 ;E:\Dropbox\FAUSTO\SVILUPPI\MSX\CODE\C\MSXgl\projects\exsoccer/exsoccer_s2_b0.c:1080: if (dx != 0) g_Ball.Y += (dy * speed) / Math_Abs32(dx);
    00001DBA DD 7E F1         [19] 5544 	ld	a, -15 (ix)
    00001DBD DD B6 F0         [19] 5545 	or	a, -16 (ix)
    00001DC0 CArB3r1E         [10] 5546 	jp	Z, 00170$
    00001DC3 ED 4Br00r00      [20] 5547 	ld	bc, (#_g_Ball + 0)
    00001DC7 DD 5E F4         [19] 5548 	ld	e, -12 (ix)
    00001DCA 16 00            [ 7] 5549 	ld	d, #0x00
    00001DCC C5               [11] 5550 	push	bc
    00001DCD DD 6E F2         [19] 5551 	ld	l, -14 (ix)
                                   5552 ;	spillPairReg hl
                                   5553 ;	spillPairReg hl
    00001DD0 DD 66 F3         [19] 5554 	ld	h, -13 (ix)
                                   5555 ;	spillPairReg hl
                                   5556 ;	spillPairReg hl
    00001DD3 CDr00r00         [17] 5557 	call	__mulint
    00001DD6 D5               [11] 5558 	push	de
    00001DD7 DD 5E E8         [19] 5559 	ld	e, -24 (ix)
    00001DDA DD 56 E9         [19] 5560 	ld	d, -23 (ix)
    00001DDD DD 6E EA         [19] 5561 	ld	l, -22 (ix)
                                   5562 ;	spillPairReg hl
                                   5563 ;	spillPairReg hl
    00001DE0 DD 66 EB         [19] 5564 	ld	h, -21 (ix)
                                   5565 ;	spillPairReg hl
                                   5566 ;	spillPairReg hl
    00001DE3 CDr15r0D         [17] 5567 	call	_Math_Abs32
    00001DE6 D5               [11] 5568 	push	de
    00001DE7 FD E1            [14] 5569 	pop	iy
    00001DE9 D1               [10] 5570 	pop	de
    00001DEA C1               [10] 5571 	pop	bc
    00001DEB DD 73 FC         [19] 5572 	ld	-4 (ix), e
    00001DEE 7A               [ 4] 5573 	ld	a, d
    00001DEF DD 77 FD         [19] 5574 	ld	-3 (ix), a
    00001DF2 07               [ 4] 5575 	rlca
    00001DF3 9F               [ 4] 5576 	sbc	a, a
    00001DF4 DD 77 FE         [19] 5577 	ld	-2 (ix), a
    00001DF7 DD 77 FF         [19] 5578 	ld	-1 (ix), a
    00001DFA C5               [11] 5579 	push	bc
    00001DFB E5               [11] 5580 	push	hl
    00001DFC FD E5            [15] 5581 	push	iy
    00001DFE DD 5E FC         [19] 5582 	ld	e, -4 (ix)
    00001E01 DD 56 FD         [19] 5583 	ld	d, -3 (ix)
    00001E04 DD 6E FE         [19] 5584 	ld	l, -2 (ix)
                                   5585 ;	spillPairReg hl
                                   5586 ;	spillPairReg hl
    00001E07 DD 66 FF         [19] 5587 	ld	h, -1 (ix)
                                   5588 ;	spillPairReg hl
                                   5589 ;	spillPairReg hl
    00001E0A CDr00r00         [17] 5590 	call	__divslong
    00001E0D F1               [10] 5591 	pop	af
    00001E0E F1               [10] 5592 	pop	af
    00001E0F C1               [10] 5593 	pop	bc
    00001E10 EB               [ 4] 5594 	ex	de, hl
    00001E11 09               [11] 5595 	add	hl, bc
    00001E12 EB               [ 4] 5596 	ex	de, hl
    00001E13 ED 53r00r00      [20] 5597 	ld	(_g_Ball), de
    00001E17 C3rB3r1E         [10] 5598 	jp	00170$
    00001E1A                       5599 00169$:
                                   5600 ;E:\Dropbox\FAUSTO\SVILUPPI\MSX\CODE\C\MSXgl\projects\exsoccer/exsoccer_s2_b0.c:1082: g_Ball.Y += (dy > 0 ? speed : -speed);
    00001E1A 11r00r00         [10] 5601 	ld	de, #_g_Ball
    00001E1D 21r00r00         [10] 5602 	ld	hl, #_g_Ball
    00001E20 7E               [ 7] 5603 	ld	a, (hl)
    00001E21 DD 77 FE         [19] 5604 	ld	-2 (ix), a
    00001E24 23               [ 6] 5605 	inc	hl
    00001E25 7E               [ 7] 5606 	ld	a, (hl)
    00001E26 DD 77 FF         [19] 5607 	ld	-1 (ix), a
    00001E29 DD 4E F2         [19] 5608 	ld	c, -14 (ix)
    00001E2C DD 46 F3         [19] 5609 	ld	b, -13 (ix)
    00001E2F AF               [ 4] 5610 	xor	a, a
    00001E30 B9               [ 4] 5611 	cp	a, c
    00001E31 98               [ 4] 5612 	sbc	a, b
    00001E32 E2r37r1E         [10] 5613 	jp	PO, 00503$
    00001E35 EE 80            [ 7] 5614 	xor	a, #0x80
    00001E37                       5615 00503$:
    00001E37 F2r43r1E         [10] 5616 	jp	P, 00209$
    00001E3A DD 6E F6         [19] 5617 	ld	l, -10 (ix)
                                   5618 ;	spillPairReg hl
                                   5619 ;	spillPairReg hl
    00001E3D DD 66 F7         [19] 5620 	ld	h, -9 (ix)
                                   5621 ;	spillPairReg hl
                                   5622 ;	spillPairReg hl
    00001E40 C3r49r1E         [10] 5623 	jp	00210$
    00001E43                       5624 00209$:
    00001E43 DD 6E F8         [19] 5625 	ld	l, -8 (ix)
                                   5626 ;	spillPairReg hl
                                   5627 ;	spillPairReg hl
    00001E46 DD 66 F9         [19] 5628 	ld	h, -7 (ix)
                                   5629 ;	spillPairReg hl
                                   5630 ;	spillPairReg hl
    00001E49                       5631 00210$:
    00001E49 DD 4E FE         [19] 5632 	ld	c, -2 (ix)
    00001E4C DD 46 FF         [19] 5633 	ld	b, -1 (ix)
    00001E4F 09               [11] 5634 	add	hl, bc
    00001E50 4D               [ 4] 5635 	ld	c, l
    00001E51 44               [ 4] 5636 	ld	b, h
    00001E52 79               [ 4] 5637 	ld	a, c
    00001E53 12               [ 7] 5638 	ld	(de), a
    00001E54 13               [ 6] 5639 	inc	de
    00001E55 78               [ 4] 5640 	ld	a, b
    00001E56 12               [ 7] 5641 	ld	(de), a
                                   5642 ;E:\Dropbox\FAUSTO\SVILUPPI\MSX\CODE\C\MSXgl\projects\exsoccer/exsoccer_s2_b0.c:1083: if (dy != 0) g_Ball.X += (dx * speed) / Math_Abs32(dy);
    00001E57 DD 7E F3         [19] 5643 	ld	a, -13 (ix)
    00001E5A DD B6 F2         [19] 5644 	or	a, -14 (ix)
    00001E5D 28 54            [12] 5645 	jr	Z, 00170$
    00001E5F ED 4Br02r00      [20] 5646 	ld	bc, (#(_g_Ball + 2) + 0)
    00001E63 DD 5E F4         [19] 5647 	ld	e, -12 (ix)
    00001E66 16 00            [ 7] 5648 	ld	d, #0x00
    00001E68 C5               [11] 5649 	push	bc
    00001E69 DD 6E F0         [19] 5650 	ld	l, -16 (ix)
                                   5651 ;	spillPairReg hl
                                   5652 ;	spillPairReg hl
    00001E6C DD 66 F1         [19] 5653 	ld	h, -15 (ix)
                                   5654 ;	spillPairReg hl
                                   5655 ;	spillPairReg hl
    00001E6F CDr00r00         [17] 5656 	call	__mulint
    00001E72 D5               [11] 5657 	push	de
    00001E73 DD 5E EC         [19] 5658 	ld	e, -20 (ix)
    00001E76 DD 56 ED         [19] 5659 	ld	d, -19 (ix)
    00001E79 DD 6E EE         [19] 5660 	ld	l, -18 (ix)
                                   5661 ;	spillPairReg hl
                                   5662 ;	spillPairReg hl
    00001E7C DD 66 EF         [19] 5663 	ld	h, -17 (ix)
                                   5664 ;	spillPairReg hl
                                   5665 ;	spillPairReg hl
    00001E7F CDr15r0D         [17] 5666 	call	_Math_Abs32
    00001E82 D5               [11] 5667 	push	de
    00001E83 FD E1            [14] 5668 	pop	iy
    00001E85 D1               [10] 5669 	pop	de
    00001E86 C1               [10] 5670 	pop	bc
    00001E87 DD 73 FC         [19] 5671 	ld	-4 (ix), e
    00001E8A 7A               [ 4] 5672 	ld	a, d
    00001E8B DD 77 FD         [19] 5673 	ld	-3 (ix), a
    00001E8E 07               [ 4] 5674 	rlca
    00001E8F 9F               [ 4] 5675 	sbc	a, a
    00001E90 DD 77 FE         [19] 5676 	ld	-2 (ix), a
    00001E93 DD 77 FF         [19] 5677 	ld	-1 (ix), a
    00001E96 C5               [11] 5678 	push	bc
    00001E97 E5               [11] 5679 	push	hl
    00001E98 FD E5            [15] 5680 	push	iy
    00001E9A DD 5E FC         [19] 5681 	ld	e, -4 (ix)
    00001E9D DD 56 FD         [19] 5682 	ld	d, -3 (ix)
    00001EA0 DD 6E FE         [19] 5683 	ld	l, -2 (ix)
                                   5684 ;	spillPairReg hl
                                   5685 ;	spillPairReg hl
    00001EA3 DD 66 FF         [19] 5686 	ld	h, -1 (ix)
                                   5687 ;	spillPairReg hl
                                   5688 ;	spillPairReg hl
    00001EA6 CDr00r00         [17] 5689 	call	__divslong
    00001EA9 F1               [10] 5690 	pop	af
    00001EAA F1               [10] 5691 	pop	af
    00001EAB C1               [10] 5692 	pop	bc
    00001EAC EB               [ 4] 5693 	ex	de, hl
    00001EAD 09               [11] 5694 	add	hl, bc
    00001EAE EB               [ 4] 5695 	ex	de, hl
    00001EAF ED 53r02r00      [20] 5696 	ld	((_g_Ball + 2)), de
    00001EB3                       5697 00170$:
                                   5698 ;E:\Dropbox\FAUSTO\SVILUPPI\MSX\CODE\C\MSXgl\projects\exsoccer/exsoccer_s2_b0.c:1087: i16 diffStartX = (i16)g_Ball.X - (i16)g_Ball.PassStartX;
    00001EB3 ED 4Br02r00      [20] 5699 	ld	bc, (#(_g_Ball + 2) + 0)
    00001EB7 2Ar11r00         [16] 5700 	ld	hl, (#_g_Ball + 17)
    00001EBA 79               [ 4] 5701 	ld	a, c
    00001EBB 95               [ 4] 5702 	sub	a, l
    00001EBC 4F               [ 4] 5703 	ld	c, a
    00001EBD 78               [ 4] 5704 	ld	a, b
    00001EBE 9C               [ 4] 5705 	sbc	a, h
    00001EBF 47               [ 4] 5706 	ld	b, a
                                   5707 ;E:\Dropbox\FAUSTO\SVILUPPI\MSX\CODE\C\MSXgl\projects\exsoccer/exsoccer_s2_b0.c:1088: i16 diffStartY = (i16)g_Ball.Y - (i16)g_Ball.PassStartY;
    00001EC0 ED 5Br00r00      [20] 5708 	ld	de, (#_g_Ball + 0)
    00001EC4 2Ar13r00         [16] 5709 	ld	hl, (#_g_Ball + 19)
    00001EC7 7B               [ 4] 5710 	ld	a, e
    00001EC8 95               [ 4] 5711 	sub	a, l
    00001EC9 5F               [ 4] 5712 	ld	e, a
    00001ECA 7A               [ 4] 5713 	ld	a, d
    00001ECB 9C               [ 4] 5714 	sbc	a, h
    00001ECC 57               [ 4] 5715 	ld	d, a
                                   5716 ;E:\Dropbox\FAUSTO\SVILUPPI\MSX\CODE\C\MSXgl\projects\exsoccer/exsoccer_s2_b0.c:1089: u16 distCovered = (u16)(Math_Abs32(diffStartX) + Math_Abs32(diffStartY));
    00001ECD 78               [ 4] 5717 	ld	a, b
    00001ECE 07               [ 4] 5718 	rlca
    00001ECF ED 62            [15] 5719 	sbc	hl, hl
    00001ED1 D5               [11] 5720 	push	de
    00001ED2 59               [ 4] 5721 	ld	e, c
    00001ED3 50               [ 4] 5722 	ld	d, b
    00001ED4 CDr15r0D         [17] 5723 	call	_Math_Abs32
    00001ED7 E5               [11] 5724 	push	hl
    00001ED8 FD E1            [14] 5725 	pop	iy
    00001EDA 4B               [ 4] 5726 	ld	c, e
    00001EDB 42               [ 4] 5727 	ld	b, d
    00001EDC D1               [10] 5728 	pop	de
    00001EDD 7A               [ 4] 5729 	ld	a, d
    00001EDE 07               [ 4] 5730 	rlca
    00001EDF ED 62            [15] 5731 	sbc	hl, hl
    00001EE1 C5               [11] 5732 	push	bc
    00001EE2 FD E5            [15] 5733 	push	iy
    00001EE4 CDr15r0D         [17] 5734 	call	_Math_Abs32
    00001EE7 FD E1            [14] 5735 	pop	iy
    00001EE9 C1               [10] 5736 	pop	bc
    00001EEA EB               [ 4] 5737 	ex	de, hl
    00001EEB 09               [11] 5738 	add	hl, bc
    00001EEC 4D               [ 4] 5739 	ld	c, l
    00001EED 44               [ 4] 5740 	ld	b, h
                                   5741 ;E:\Dropbox\FAUSTO\SVILUPPI\MSX\CODE\C\MSXgl\projects\exsoccer/exsoccer_s2_b0.c:1091: u16 totalDist = g_Ball.PassTotalDist;
    00001EEE 21r15r00         [10] 5742 	ld	hl, #_g_Ball + 21
    00001EF1 7E               [ 7] 5743 	ld	a, (hl)
    00001EF2 DD 77 FA         [19] 5744 	ld	-6 (ix), a
    00001EF5 23               [ 6] 5745 	inc	hl
    00001EF6 7E               [ 7] 5746 	ld	a, (hl)
                                   5747 ;E:\Dropbox\FAUSTO\SVILUPPI\MSX\CODE\C\MSXgl\projects\exsoccer/exsoccer_s2_b0.c:1092: if (totalDist == 0) totalDist = 1; // Safety
    00001EF7 DD 77 FB         [19] 5748 	ld	-5 (ix), a
    00001EFA DD B6 FA         [19] 5749 	or	a, -6 (ix)
    00001EFD 20 08            [12] 5750 	jr	NZ, 00172$
    00001EFF DD 36 FA 01      [19] 5751 	ld	-6 (ix), #0x01
    00001F03 DD 36 FB 00      [19] 5752 	ld	-5 (ix), #0
    00001F07                       5753 00172$:
                                   5754 ;E:\Dropbox\FAUSTO\SVILUPPI\MSX\CODE\C\MSXgl\projects\exsoccer/exsoccer_s2_b0.c:962: i16 dx = tx - (i16)g_Ball.X;
    00001F07 ED 5Br02r00      [20] 5755 	ld	de, (#(_g_Ball + 2) + 0)
                                   5756 ;E:\Dropbox\FAUSTO\SVILUPPI\MSX\CODE\C\MSXgl\projects\exsoccer/exsoccer_s2_b0.c:963: i16 dy = ty - (i16)g_Ball.Y;
    00001F0B 21r00r00         [10] 5757 	ld	hl, #_g_Ball
    00001F0E 7E               [ 7] 5758 	ld	a, (hl)
    00001F0F DD 77 FC         [19] 5759 	ld	-4 (ix), a
    00001F12 23               [ 6] 5760 	inc	hl
    00001F13 7E               [ 7] 5761 	ld	a, (hl)
    00001F14 DD 77 FD         [19] 5762 	ld	-3 (ix), a
                                   5763 ;E:\Dropbox\FAUSTO\SVILUPPI\MSX\CODE\C\MSXgl\projects\exsoccer/exsoccer_s2_b0.c:1095: if (g_Ball.X == 0 || g_Ball.X > 255 || g_Ball.Y == 0 || g_Ball.Y > 211) {
    00001F17 DD 7E FC         [19] 5764 	ld	a, -4 (ix)
    00001F1A DD 77 FE         [19] 5765 	ld	-2 (ix), a
    00001F1D DD 7E FD         [19] 5766 	ld	a, -3 (ix)
    00001F20 DD 77 FF         [19] 5767 	ld	-1 (ix), a
    00001F23 7A               [ 4] 5768 	ld	a, d
    00001F24 B3               [ 4] 5769 	or	a, e
    00001F25 28 1D            [12] 5770 	jr	Z, 00174$
    00001F27 3E FF            [ 7] 5771 	ld	a, #0xff
    00001F29 BB               [ 4] 5772 	cp	a, e
    00001F2A 3E 00            [ 7] 5773 	ld	a, #0x00
    00001F2C 9A               [ 4] 5774 	sbc	a, d
    00001F2D 38 15            [12] 5775 	jr	C, 00174$
    00001F2F DD 7E FD         [19] 5776 	ld	a, -3 (ix)
    00001F32 DD B6 FC         [19] 5777 	or	a, -4 (ix)
    00001F35 28 0D            [12] 5778 	jr	Z, 00174$
    00001F37 3E D3            [ 7] 5779 	ld	a, #0xd3
    00001F39 DD BE FE         [19] 5780 	cp	a, -2 (ix)
    00001F3C 3E 00            [ 7] 5781 	ld	a, #0x00
    00001F3E DD 9E FF         [19] 5782 	sbc	a, -1 (ix)
    00001F41 3E 00            [ 7] 5783 	ld	a, #0x00
    00001F43 17               [ 4] 5784 	rla
                                   5785 ;E:\Dropbox\FAUSTO\SVILUPPI\MSX\CODE\C\MSXgl\projects\exsoccer/exsoccer_s2_b0.c:1098: if(g_Ball.Y > 230 || g_Ball.Y < 20) {
    00001F44                       5786 00174$:
                                   5787 ;E:\Dropbox\FAUSTO\SVILUPPI\MSX\CODE\C\MSXgl\projects\exsoccer/exsoccer_s2_b0.c:1104: if (g_Ball.ShotActive == 2) {
    00001F44 21r1Br00         [10] 5788 	ld	hl, #(_g_Ball + 27)
    00001F47 5E               [ 7] 5789 	ld	e, (hl)
                                   5790 ;E:\Dropbox\FAUSTO\SVILUPPI\MSX\CODE\C\MSXgl\projects\exsoccer/exsoccer_s2_b0.c:981: g_Ball.Size = 1;
                                   5791 ;E:\Dropbox\FAUSTO\SVILUPPI\MSX\CODE\C\MSXgl\projects\exsoccer/exsoccer_s2_b0.c:1104: if (g_Ball.ShotActive == 2) {
    00001F48 7B               [ 4] 5792 	ld	a, e
    00001F49 D6 02            [ 7] 5793 	sub	a, #0x02
    00001F4B 20 33            [12] 5794 	jr	NZ, 00196$
                                   5795 ;E:\Dropbox\FAUSTO\SVILUPPI\MSX\CODE\C\MSXgl\projects\exsoccer/exsoccer_s2_b0.c:1106: u16 ratio = (distCovered * 100) / totalDist;
    00001F4D 69               [ 4] 5796 	ld	l, c
    00001F4E 60               [ 4] 5797 	ld	h, b
    00001F4F 29               [11] 5798 	add	hl, hl
    00001F50 09               [11] 5799 	add	hl, bc
    00001F51 29               [11] 5800 	add	hl, hl
    00001F52 29               [11] 5801 	add	hl, hl
    00001F53 29               [11] 5802 	add	hl, hl
    00001F54 09               [11] 5803 	add	hl, bc
    00001F55 29               [11] 5804 	add	hl, hl
    00001F56 29               [11] 5805 	add	hl, hl
    00001F57 DD 5E FA         [19] 5806 	ld	e, -6 (ix)
    00001F5A DD 56 FB         [19] 5807 	ld	d, -5 (ix)
    00001F5D CDr00r00         [17] 5808 	call	__divuint
                                   5809 ;E:\Dropbox\FAUSTO\SVILUPPI\MSX\CODE\C\MSXgl\projects\exsoccer/exsoccer_s2_b0.c:1107: if (ratio < 20 || ratio > 80) g_Ball.Size = 2;
    00001F60 7B               [ 4] 5810 	ld	a, e
    00001F61 D6 14            [ 7] 5811 	sub	a, #0x14
    00001F63 7A               [ 4] 5812 	ld	a, d
    00001F64 DE 00            [ 7] 5813 	sbc	a, #0x00
    00001F66 38 08            [12] 5814 	jr	C, 00178$
    00001F68 3E 50            [ 7] 5815 	ld	a, #0x50
    00001F6A BB               [ 4] 5816 	cp	a, e
    00001F6B 3E 00            [ 7] 5817 	ld	a, #0x00
    00001F6D 9A               [ 4] 5818 	sbc	a, d
    00001F6E 30 08            [12] 5819 	jr	NC, 00179$
    00001F70                       5820 00178$:
    00001F70 21r04r00         [10] 5821 	ld	hl, #(_g_Ball + 4)
    00001F73 36 02            [10] 5822 	ld	(hl), #0x02
    00001F75 C3rDEr1F         [10] 5823 	jp	00197$
    00001F78                       5824 00179$:
                                   5825 ;E:\Dropbox\FAUSTO\SVILUPPI\MSX\CODE\C\MSXgl\projects\exsoccer/exsoccer_s2_b0.c:1108: else g_Ball.Size = 3;
    00001F78 21r04r00         [10] 5826 	ld	hl, #(_g_Ball + 4)
    00001F7B 36 03            [10] 5827 	ld	(hl), #0x03
    00001F7D C3rDEr1F         [10] 5828 	jp	00197$
    00001F80                       5829 00196$:
                                   5830 ;E:\Dropbox\FAUSTO\SVILUPPI\MSX\CODE\C\MSXgl\projects\exsoccer/exsoccer_s2_b0.c:1110: else if (g_Ball.ShotActive == 3) {
    00001F80 7B               [ 4] 5831 	ld	a, e
    00001F81 D6 03            [ 7] 5832 	sub	a, #0x03
    00001F83 20 08            [12] 5833 	jr	NZ, 00193$
                                   5834 ;E:\Dropbox\FAUSTO\SVILUPPI\MSX\CODE\C\MSXgl\projects\exsoccer/exsoccer_s2_b0.c:1112: g_Ball.Size = 1;
    00001F85 21r04r00         [10] 5835 	ld	hl, #(_g_Ball + 4)
    00001F88 36 01            [10] 5836 	ld	(hl), #0x01
    00001F8A C3rDEr1F         [10] 5837 	jp	00197$
    00001F8D                       5838 00193$:
                                   5839 ;E:\Dropbox\FAUSTO\SVILUPPI\MSX\CODE\C\MSXgl\projects\exsoccer/exsoccer_s2_b0.c:1114: else if (g_Ball.ShotActive == 1) {
    00001F8D 1D               [ 4] 5840 	dec	e
    00001F8E 20 08            [12] 5841 	jr	NZ, 00190$
                                   5842 ;E:\Dropbox\FAUSTO\SVILUPPI\MSX\CODE\C\MSXgl\projects\exsoccer/exsoccer_s2_b0.c:1117: g_Ball.Size = 2;
    00001F90 21r04r00         [10] 5843 	ld	hl, #(_g_Ball + 4)
    00001F93 36 02            [10] 5844 	ld	(hl), #0x02
    00001F95 C3rDEr1F         [10] 5845 	jp	00197$
    00001F98                       5846 00190$:
                                   5847 ;E:\Dropbox\FAUSTO\SVILUPPI\MSX\CODE\C\MSXgl\projects\exsoccer/exsoccer_s2_b0.c:1127: if (totalDist > 40) {
    00001F98 DD 5E FA         [19] 5848 	ld	e, -6 (ix)
    00001F9B DD 56 FB         [19] 5849 	ld	d, -5 (ix)
    00001F9E 3E 28            [ 7] 5850 	ld	a, #0x28
    00001FA0 BB               [ 4] 5851 	cp	a, e
    00001FA1 3E 00            [ 7] 5852 	ld	a, #0x00
    00001FA3 9A               [ 4] 5853 	sbc	a, d
    00001FA4 30 33            [12] 5854 	jr	NC, 00187$
                                   5855 ;E:\Dropbox\FAUSTO\SVILUPPI\MSX\CODE\C\MSXgl\projects\exsoccer/exsoccer_s2_b0.c:1128: u16 ratio = (distCovered * 100) / totalDist;
    00001FA6 69               [ 4] 5856 	ld	l, c
    00001FA7 60               [ 4] 5857 	ld	h, b
    00001FA8 29               [11] 5858 	add	hl, hl
    00001FA9 09               [11] 5859 	add	hl, bc
    00001FAA 29               [11] 5860 	add	hl, hl
    00001FAB 29               [11] 5861 	add	hl, hl
    00001FAC 29               [11] 5862 	add	hl, hl
    00001FAD 09               [11] 5863 	add	hl, bc
    00001FAE 29               [11] 5864 	add	hl, hl
    00001FAF 29               [11] 5865 	add	hl, hl
    00001FB0 DD 5E FA         [19] 5866 	ld	e, -6 (ix)
    00001FB3 DD 56 FB         [19] 5867 	ld	d, -5 (ix)
    00001FB6 CDr00r00         [17] 5868 	call	__divuint
                                   5869 ;E:\Dropbox\FAUSTO\SVILUPPI\MSX\CODE\C\MSXgl\projects\exsoccer/exsoccer_s2_b0.c:1129: if (ratio < 15 || ratio > 85) g_Ball.Size = 2;
    00001FB9 7B               [ 4] 5870 	ld	a, e
    00001FBA D6 0F            [ 7] 5871 	sub	a, #0x0f
    00001FBC 7A               [ 4] 5872 	ld	a, d
    00001FBD DE 00            [ 7] 5873 	sbc	a, #0x00
    00001FBF 38 08            [12] 5874 	jr	C, 00182$
    00001FC1 3E 55            [ 7] 5875 	ld	a, #0x55
    00001FC3 BB               [ 4] 5876 	cp	a, e
    00001FC4 3E 00            [ 7] 5877 	ld	a, #0x00
    00001FC6 9A               [ 4] 5878 	sbc	a, d
    00001FC7 30 08            [12] 5879 	jr	NC, 00183$
    00001FC9                       5880 00182$:
    00001FC9 21r04r00         [10] 5881 	ld	hl, #(_g_Ball + 4)
    00001FCC 36 02            [10] 5882 	ld	(hl), #0x02
    00001FCE C3rDEr1F         [10] 5883 	jp	00197$
    00001FD1                       5884 00183$:
                                   5885 ;E:\Dropbox\FAUSTO\SVILUPPI\MSX\CODE\C\MSXgl\projects\exsoccer/exsoccer_s2_b0.c:1130: else g_Ball.Size = 3;
    00001FD1 21r04r00         [10] 5886 	ld	hl, #(_g_Ball + 4)
    00001FD4 36 03            [10] 5887 	ld	(hl), #0x03
    00001FD6 C3rDEr1F         [10] 5888 	jp	00197$
    00001FD9                       5889 00187$:
                                   5890 ;E:\Dropbox\FAUSTO\SVILUPPI\MSX\CODE\C\MSXgl\projects\exsoccer/exsoccer_s2_b0.c:1132: g_Ball.Size = 2;
    00001FD9 21r04r00         [10] 5891 	ld	hl, #(_g_Ball + 4)
    00001FDC 36 02            [10] 5892 	ld	(hl), #0x02
    00001FDE                       5893 00197$:
                                   5894 ;E:\Dropbox\FAUSTO\SVILUPPI\MSX\CODE\C\MSXgl\projects\exsoccer/exsoccer_s2_b0.c:1136: g_Ball.PreviousY = g_Ball.Y;
    00001FDE ED 4Br00r00      [20] 5895 	ld	bc, (#_g_Ball + 0)
    00001FE2 ED 43r07r00      [20] 5896 	ld	((_g_Ball + 7)), bc
    00001FE6                       5897 00198$:
                                   5898 ;E:\Dropbox\FAUSTO\SVILUPPI\MSX\CODE\C\MSXgl\projects\exsoccer/exsoccer_s2_b0.c:1137: }
    00001FE6 DD F9            [10] 5899 	ld	sp, ix
    00001FE8 DD E1            [14] 5900 	pop	ix
    00001FEA C9               [10] 5901 	ret
                                   5902 ;E:\Dropbox\FAUSTO\SVILUPPI\MSX\CODE\C\MSXgl\projects\exsoccer/exsoccer_s2_b0.c:1138: void TickThrowIn() {
                                   5903 ;	---------------------------------
                                   5904 ; Function TickThrowIn
                                   5905 ; ---------------------------------
    00001FEB                       5906 _TickThrowIn::
    00001FEB DD E5            [15] 5907 	push	ix
    00001FED DD 21 00 00      [14] 5908 	ld	ix,#0
    00001FF1 DD 39            [15] 5909 	add	ix,sp
    00001FF3 21 D6 FF         [10] 5910 	ld	hl, #-42
    00001FF6 39               [11] 5911 	add	hl, sp
    00001FF7 F9               [ 6] 5912 	ld	sp, hl
                                   5913 ;E:\Dropbox\FAUSTO\SVILUPPI\MSX\CODE\C\MSXgl\projects\exsoccer/exsoccer_s2_b0.c:1139: if (g_MatchStatus != MATCH_BEFORE_THROW_IN) return;
    00001FF8 3Ar00r00         [13] 5914 	ld	a, (_g_MatchStatus+0)
    00001FFB D6 03            [ 7] 5915 	sub	a, #0x03
    00001FFD C2r9Dr2C         [10] 5916 	jp	NZ,00269$
                                   5917 ;E:\Dropbox\FAUSTO\SVILUPPI\MSX\CODE\C\MSXgl\projects\exsoccer/exsoccer_s2_b0.c:1146: if (g_Timer == 0) {
    00002000 3Ar00r00         [13] 5918 	ld	a, (_g_Timer+0)
    00002003 B7               [ 4] 5919 	or	a, a
    00002004 C2r49r26         [10] 5920 	jp	NZ, 00171$
                                   5921 ;E:\Dropbox\FAUSTO\SVILUPPI\MSX\CODE\C\MSXgl\projects\exsoccer/exsoccer_s2_b0.c:1147: s_ThrowTargetId = NO_VALUE;
    00002007 21r0Cr00         [10] 5922 	ld	hl, #_TickThrowIn_s_ThrowTargetId_65537_1814
    0000200A 36 FF            [10] 5923 	ld	(hl), #0xff
                                   5924 ;E:\Dropbox\FAUSTO\SVILUPPI\MSX\CODE\C\MSXgl\projects\exsoccer/exsoccer_s2_b0.c:1148: s_JoyMoved = false;
    0000200C 21r0Dr00         [10] 5925 	ld	hl, #_TickThrowIn_s_JoyMoved_65537_1814
    0000200F 36 00            [10] 5926 	ld	(hl), #0x00
                                   5927 ;E:\Dropbox\FAUSTO\SVILUPPI\MSX\CODE\C\MSXgl\projects\exsoccer/exsoccer_s2_b0.c:1149: s_ForceThrowTimer = 0;
    00002011 21 00 00         [10] 5928 	ld	hl, #0x0000
    00002014 22r0Er00         [16] 5929 	ld	(_TickThrowIn_s_ForceThrowTimer_65537_1814), hl
                                   5930 ;E:\Dropbox\FAUSTO\SVILUPPI\MSX\CODE\C\MSXgl\projects\exsoccer/exsoccer_s2_b0.c:1152: if (g_Ball.X < FIELD_POS_X_CENTER) {
    00002017 2Ar02r00         [16] 5931 	ld	hl, (#(_g_Ball + 2) + 0)
    0000201A 11 78 00         [10] 5932 	ld	de, #0x0078
    0000201D BF               [ 4] 5933 	cp	a, a
    0000201E ED 52            [15] 5934 	sbc	hl, de
    00002020 30 09            [12] 5935 	jr	NC, 00104$
                                   5936 ;E:\Dropbox\FAUSTO\SVILUPPI\MSX\CODE\C\MSXgl\projects\exsoccer/exsoccer_s2_b0.c:1153: g_Ball.X = FIELD_BOUND_X_LEFT;
    00002022 21 0A 00         [10] 5937 	ld	hl, #0x000a
    00002025 22r02r00         [16] 5938 	ld	((_g_Ball + 2)), hl
    00002028 C3r31r20         [10] 5939 	jp	00105$
    0000202B                       5940 00104$:
                                   5941 ;E:\Dropbox\FAUSTO\SVILUPPI\MSX\CODE\C\MSXgl\projects\exsoccer/exsoccer_s2_b0.c:1155: g_Ball.X = FIELD_BOUND_X_RIGHT;
    0000202B 21 EC 00         [10] 5942 	ld	hl, #0x00ec
    0000202E 22r02r00         [16] 5943 	ld	((_g_Ball + 2)), hl
    00002031                       5944 00105$:
                                   5945 ;E:\Dropbox\FAUSTO\SVILUPPI\MSX\CODE\C\MSXgl\projects\exsoccer/exsoccer_s2_b0.c:1159: if (g_Ball.Y < FIELD_BOUND_Y_TOP) g_Ball.Y = FIELD_BOUND_Y_TOP;
    00002031 2Ar00r00         [16] 5946 	ld	hl, (#_g_Ball + 0)
    00002034 11 32 00         [10] 5947 	ld	de, #0x0032
    00002037 BF               [ 4] 5948 	cp	a, a
    00002038 ED 52            [15] 5949 	sbc	hl, de
    0000203A 30 06            [12] 5950 	jr	NC, 00107$
    0000203C 21 32 00         [10] 5951 	ld	hl, #0x0032
    0000203F 22r00r00         [16] 5952 	ld	(_g_Ball), hl
    00002042                       5953 00107$:
                                   5954 ;E:\Dropbox\FAUSTO\SVILUPPI\MSX\CODE\C\MSXgl\projects\exsoccer/exsoccer_s2_b0.c:1160: if (g_Ball.Y > FIELD_BOUND_Y_BOTTOM) g_Ball.Y = FIELD_BOUND_Y_BOTTOM;
    00002042 2Ar00r00         [16] 5955 	ld	hl, (#_g_Ball + 0)
    00002045 3E AE            [ 7] 5956 	ld	a, #0xae
    00002047 BD               [ 4] 5957 	cp	a, l
    00002048 3E 01            [ 7] 5958 	ld	a, #0x01
    0000204A 9C               [ 4] 5959 	sbc	a, h
    0000204B 30 06            [12] 5960 	jr	NC, 00109$
    0000204D 21 AE 01         [10] 5961 	ld	hl, #0x01ae
    00002050 22r00r00         [16] 5962 	ld	(_g_Ball), hl
    00002053                       5963 00109$:
                                   5964 ;E:\Dropbox\FAUSTO\SVILUPPI\MSX\CODE\C\MSXgl\projects\exsoccer/exsoccer_s2_b0.c:1162: g_Ball.PossessionPlayerId = NO_VALUE;
    00002053 21r06r00         [10] 5965 	ld	hl, #(_g_Ball + 6)
    00002056 36 FF            [10] 5966 	ld	(hl), #0xff
                                   5967 ;E:\Dropbox\FAUSTO\SVILUPPI\MSX\CODE\C\MSXgl\projects\exsoccer/exsoccer_s2_b0.c:1165: u8 bestId = NO_VALUE;
    00002058 DD 36 F8 FF      [19] 5968 	ld	-8 (ix), #0xff
                                   5969 ;E:\Dropbox\FAUSTO\SVILUPPI\MSX\CODE\C\MSXgl\projects\exsoccer/exsoccer_s2_b0.c:1166: u16 minDist = 65535;
    0000205C 01 FF FF         [10] 5970 	ld	bc, #0xffff
                                   5971 ;E:\Dropbox\FAUSTO\SVILUPPI\MSX\CODE\C\MSXgl\projects\exsoccer/exsoccer_s2_b0.c:1169: u8 t1=NO_VALUE, t2=NO_VALUE; u16 dt1=65535, dt2=65535;
    0000205F DD 36 EA FF      [19] 5972 	ld	-22 (ix), #0xff
    00002063 DD 36 EB FF      [19] 5973 	ld	-21 (ix), #0xff
    00002067 DD 36 EC FF      [19] 5974 	ld	-20 (ix), #0xff
    0000206B DD 36 ED FF      [19] 5975 	ld	-19 (ix), #0xff
    0000206F DD 36 EE FF      [19] 5976 	ld	-18 (ix), #0xff
    00002073 DD 36 EF FF      [19] 5977 	ld	-17 (ix), #0xff
                                   5978 ;E:\Dropbox\FAUSTO\SVILUPPI\MSX\CODE\C\MSXgl\projects\exsoccer/exsoccer_s2_b0.c:1170: u8 o1=NO_VALUE, o2=NO_VALUE; u16 do1=65535, do2=65535;
    00002077 DD 36 F0 FF      [19] 5979 	ld	-16 (ix), #0xff
    0000207B DD 36 F1 FF      [19] 5980 	ld	-15 (ix), #0xff
    0000207F DD 36 F2 FF      [19] 5981 	ld	-14 (ix), #0xff
    00002083 DD 36 F3 FF      [19] 5982 	ld	-13 (ix), #0xff
    00002087 DD 36 F4 FF      [19] 5983 	ld	-12 (ix), #0xff
    0000208B DD 36 F5 FF      [19] 5984 	ld	-11 (ix), #0xff
                                   5985 ;E:\Dropbox\FAUSTO\SVILUPPI\MSX\CODE\C\MSXgl\projects\exsoccer/exsoccer_s2_b0.c:1172: for(u8 i=0; i<14; i++) {
    0000208F DD 36 FF 00      [19] 5986 	ld	-1 (ix), #0x00
    00002093                       5987 00259$:
    00002093 DD 7E FF         [19] 5988 	ld	a, -1 (ix)
    00002096 D6 0E            [ 7] 5989 	sub	a, #0x0e
    00002098 D2r60r21         [10] 5990 	jp	NC, 00121$
                                   5991 ;E:\Dropbox\FAUSTO\SVILUPPI\MSX\CODE\C\MSXgl\projects\exsoccer/exsoccer_s2_b0.c:1175: if(g_Players[i].X > g_Ball.X) dist += (g_Players[i].X - g_Ball.X); else dist += (g_Ball.X - g_Players[i].X);
    0000209B DD 5E FF         [19] 5992 	ld	e, -1 (ix)
    0000209E 16 00            [ 7] 5993 	ld	d, #0x00
    000020A0 6B               [ 4] 5994 	ld	l, e
    000020A1 62               [ 4] 5995 	ld	h, d
    000020A2 29               [11] 5996 	add	hl, hl
    000020A3 29               [11] 5997 	add	hl, hl
    000020A4 19               [11] 5998 	add	hl, de
    000020A5 29               [11] 5999 	add	hl, hl
    000020A6 29               [11] 6000 	add	hl, hl
    000020A7 19               [11] 6001 	add	hl, de
    000020A8 11r00r00         [10] 6002 	ld	de, #_g_Players
    000020AB 19               [11] 6003 	add	hl, de
                                   6004 ;	spillPairReg hl
                                   6005 ;	spillPairReg hl
    000020AC DD 75 F9         [19] 6006 	ld	-7 (ix), l
    000020AF DD 74 FA         [19] 6007 	ld	-6 (ix), h
                                   6008 ;	spillPairReg hl
                                   6009 ;	spillPairReg hl
    000020B2 23               [ 6] 6010 	inc	hl
    000020B3 23               [ 6] 6011 	inc	hl
    000020B4 5E               [ 7] 6012 	ld	e, (hl)
    000020B5 23               [ 6] 6013 	inc	hl
    000020B6 56               [ 7] 6014 	ld	d, (hl)
                                   6015 ;E:\Dropbox\FAUSTO\SVILUPPI\MSX\CODE\C\MSXgl\projects\exsoccer/exsoccer_s2_b0.c:1152: if (g_Ball.X < FIELD_POS_X_CENTER) {
    000020B7 2Ar02r00         [16] 6016 	ld	hl, (#(_g_Ball + 2) + 0)
                                   6017 ;E:\Dropbox\FAUSTO\SVILUPPI\MSX\CODE\C\MSXgl\projects\exsoccer/exsoccer_s2_b0.c:1175: if(g_Players[i].X > g_Ball.X) dist += (g_Players[i].X - g_Ball.X); else dist += (g_Ball.X - g_Players[i].X);
    000020BA 7D               [ 4] 6018 	ld	a, l
    000020BB 93               [ 4] 6019 	sub	a, e
    000020BC 7C               [ 4] 6020 	ld	a, h
    000020BD 9A               [ 4] 6021 	sbc	a, d
    000020BE 30 0D            [12] 6022 	jr	NC, 00111$
    000020C0 7B               [ 4] 6023 	ld	a, e
    000020C1 95               [ 4] 6024 	sub	a, l
    000020C2 DD 77 FB         [19] 6025 	ld	-5 (ix), a
    000020C5 7A               [ 4] 6026 	ld	a, d
    000020C6 9C               [ 4] 6027 	sbc	a, h
    000020C7 DD 77 FC         [19] 6028 	ld	-4 (ix), a
    000020CA C3rD7r20         [10] 6029 	jp	00112$
    000020CD                       6030 00111$:
    000020CD 7D               [ 4] 6031 	ld	a, l
    000020CE 93               [ 4] 6032 	sub	a, e
    000020CF DD 77 FB         [19] 6033 	ld	-5 (ix), a
    000020D2 7C               [ 4] 6034 	ld	a, h
    000020D3 9A               [ 4] 6035 	sbc	a, d
    000020D4 DD 77 FC         [19] 6036 	ld	-4 (ix), a
    000020D7                       6037 00112$:
                                   6038 ;E:\Dropbox\FAUSTO\SVILUPPI\MSX\CODE\C\MSXgl\projects\exsoccer/exsoccer_s2_b0.c:1176: if(g_Players[i].Y > g_Ball.Y) dist += (g_Players[i].Y - g_Ball.Y); else dist += (g_Ball.Y - g_Players[i].Y);
    000020D7 DD 6E F9         [19] 6039 	ld	l, -7 (ix)
    000020DA DD 66 FA         [19] 6040 	ld	h, -6 (ix)
    000020DD 7E               [ 7] 6041 	ld	a, (hl)
    000020DE DD 77 FD         [19] 6042 	ld	-3 (ix), a
    000020E1 23               [ 6] 6043 	inc	hl
    000020E2 7E               [ 7] 6044 	ld	a, (hl)
    000020E3 DD 77 FE         [19] 6045 	ld	-2 (ix), a
                                   6046 ;E:\Dropbox\FAUSTO\SVILUPPI\MSX\CODE\C\MSXgl\projects\exsoccer/exsoccer_s2_b0.c:1159: if (g_Ball.Y < FIELD_BOUND_Y_TOP) g_Ball.Y = FIELD_BOUND_Y_TOP;
    000020E6 ED 5Br00r00      [20] 6047 	ld	de, (#_g_Ball + 0)
                                   6048 ;E:\Dropbox\FAUSTO\SVILUPPI\MSX\CODE\C\MSXgl\projects\exsoccer/exsoccer_s2_b0.c:1176: if(g_Players[i].Y > g_Ball.Y) dist += (g_Players[i].Y - g_Ball.Y); else dist += (g_Ball.Y - g_Players[i].Y);
    000020EA 7B               [ 4] 6049 	ld	a, e
    000020EB DD 96 FD         [19] 6050 	sub	a, -3 (ix)
    000020EE 7A               [ 4] 6051 	ld	a, d
    000020EF DD 9E FE         [19] 6052 	sbc	a, -2 (ix)
    000020F2 30 1A            [12] 6053 	jr	NC, 00114$
    000020F4 DD 7E FD         [19] 6054 	ld	a, -3 (ix)
    000020F7 93               [ 4] 6055 	sub	a, e
    000020F8 5F               [ 4] 6056 	ld	e, a
    000020F9 DD 7E FE         [19] 6057 	ld	a, -2 (ix)
    000020FC 9A               [ 4] 6058 	sbc	a, d
    000020FD 57               [ 4] 6059 	ld	d, a
    000020FE DD 6E FB         [19] 6060 	ld	l, -5 (ix)
    00002101 DD 66 FC         [19] 6061 	ld	h, -4 (ix)
    00002104 19               [11] 6062 	add	hl, de
    00002105 DD 75 FD         [19] 6063 	ld	-3 (ix), l
    00002108 DD 74 FE         [19] 6064 	ld	-2 (ix), h
    0000210B C3r25r21         [10] 6065 	jp	00115$
    0000210E                       6066 00114$:
    0000210E 7B               [ 4] 6067 	ld	a, e
    0000210F DD 96 FD         [19] 6068 	sub	a, -3 (ix)
    00002112 5F               [ 4] 6069 	ld	e, a
    00002113 7A               [ 4] 6070 	ld	a, d
    00002114 DD 9E FE         [19] 6071 	sbc	a, -2 (ix)
    00002117 57               [ 4] 6072 	ld	d, a
    00002118 DD 6E FB         [19] 6073 	ld	l, -5 (ix)
    0000211B DD 66 FC         [19] 6074 	ld	h, -4 (ix)
    0000211E 19               [11] 6075 	add	hl, de
    0000211F DD 75 FD         [19] 6076 	ld	-3 (ix), l
    00002122 DD 74 FE         [19] 6077 	ld	-2 (ix), h
    00002125                       6078 00115$:
                                   6079 ;E:\Dropbox\FAUSTO\SVILUPPI\MSX\CODE\C\MSXgl\projects\exsoccer/exsoccer_s2_b0.c:1179: if(g_Players[i].TeamId == g_RestartKickTeamId && g_Players[i].Role != PLAYER_ROLE_GOALKEEPER) {
    00002125 DD 5E F9         [19] 6080 	ld	e, -7 (ix)
    00002128 DD 56 FA         [19] 6081 	ld	d, -6 (ix)
    0000212B 21 09 00         [10] 6082 	ld	hl, #9
    0000212E 19               [11] 6083 	add	hl, de
    0000212F 5E               [ 7] 6084 	ld	e, (hl)
    00002130 3Ar00r00         [13] 6085 	ld	a, (_g_RestartKickTeamId+0)
    00002133 93               [ 4] 6086 	sub	a, e
    00002134 20 24            [12] 6087 	jr	NZ, 00260$
    00002136 DD 5E F9         [19] 6088 	ld	e, -7 (ix)
    00002139 DD 56 FA         [19] 6089 	ld	d, -6 (ix)
    0000213C 21 0D 00         [10] 6090 	ld	hl, #13
    0000213F 19               [11] 6091 	add	hl, de
    00002140 7E               [ 7] 6092 	ld	a, (hl)
    00002141 B7               [ 4] 6093 	or	a, a
    00002142 28 16            [12] 6094 	jr	Z, 00260$
                                   6095 ;E:\Dropbox\FAUSTO\SVILUPPI\MSX\CODE\C\MSXgl\projects\exsoccer/exsoccer_s2_b0.c:1180: if(dist < minDist) { minDist = dist; bestId = i; }
    00002144 DD 7E FD         [19] 6096 	ld	a, -3 (ix)
    00002147 91               [ 4] 6097 	sub	a, c
    00002148 DD 7E FE         [19] 6098 	ld	a, -2 (ix)
    0000214B 98               [ 4] 6099 	sbc	a, b
    0000214C 30 0C            [12] 6100 	jr	NC, 00260$
    0000214E DD 4E FD         [19] 6101 	ld	c, -3 (ix)
    00002151 DD 46 FE         [19] 6102 	ld	b, -2 (ix)
    00002154 DD 7E FF         [19] 6103 	ld	a, -1 (ix)
    00002157 DD 77 F8         [19] 6104 	ld	-8 (ix), a
    0000215A                       6105 00260$:
                                   6106 ;E:\Dropbox\FAUSTO\SVILUPPI\MSX\CODE\C\MSXgl\projects\exsoccer/exsoccer_s2_b0.c:1172: for(u8 i=0; i<14; i++) {
    0000215A DD 34 FF         [23] 6107 	inc	-1 (ix)
    0000215D C3r93r20         [10] 6108 	jp	00259$
    00002160                       6109 00121$:
                                   6110 ;E:\Dropbox\FAUSTO\SVILUPPI\MSX\CODE\C\MSXgl\projects\exsoccer/exsoccer_s2_b0.c:1183: g_ThrowInPlayerId = bestId;
    00002160 DD 7E F8         [19] 6111 	ld	a, -8 (ix)
    00002163 32r00r00         [13] 6112 	ld	(_g_ThrowInPlayerId+0), a
                                   6113 ;E:\Dropbox\FAUSTO\SVILUPPI\MSX\CODE\C\MSXgl\projects\exsoccer/exsoccer_s2_b0.c:1186: for(u8 i=0; i<14; i++) {
    00002166 DD 36 FF 00      [19] 6114 	ld	-1 (ix), #0x00
    0000216A                       6115 00262$:
    0000216A DD 7E FF         [19] 6116 	ld	a, -1 (ix)
    0000216D D6 0E            [ 7] 6117 	sub	a, #0x0e
    0000216F D2r49r23         [10] 6118 	jp	NC, 00146$
                                   6119 ;E:\Dropbox\FAUSTO\SVILUPPI\MSX\CODE\C\MSXgl\projects\exsoccer/exsoccer_s2_b0.c:1187: if(i == g_ThrowInPlayerId || g_Players[i].Role == PLAYER_ROLE_GOALKEEPER || g_Players[i].TeamId == REFEREE) continue;
    00002172 3Ar00r00         [13] 6120 	ld	a, (_g_ThrowInPlayerId+0)
    00002175 DD 96 FF         [19] 6121 	sub	a, -1 (ix)
    00002178 CAr43r23         [10] 6122 	jp	Z,00145$
    0000217B DD 4E FF         [19] 6123 	ld	c, -1 (ix)
    0000217E 06 00            [ 7] 6124 	ld	b, #0x00
    00002180 69               [ 4] 6125 	ld	l, c
    00002181 60               [ 4] 6126 	ld	h, b
    00002182 29               [11] 6127 	add	hl, hl
    00002183 29               [11] 6128 	add	hl, hl
    00002184 09               [11] 6129 	add	hl, bc
    00002185 29               [11] 6130 	add	hl, hl
    00002186 29               [11] 6131 	add	hl, hl
    00002187 09               [11] 6132 	add	hl, bc
    00002188 EB               [ 4] 6133 	ex	de, hl
    00002189 21r00r00         [10] 6134 	ld	hl, #_g_Players
    0000218C 19               [11] 6135 	add	hl, de
    0000218D DD 75 FD         [19] 6136 	ld	-3 (ix), l
    00002190 DD 74 FE         [19] 6137 	ld	-2 (ix), h
    00002193 01 0D 00         [10] 6138 	ld	bc,#13
    00002196 09               [11] 6139 	add	hl,bc
    00002197 7E               [ 7] 6140 	ld	a, (hl)
    00002198 B7               [ 4] 6141 	or	a, a
    00002199 CAr43r23         [10] 6142 	jp	Z, 00145$
    0000219C DD 4E FD         [19] 6143 	ld	c, -3 (ix)
    0000219F DD 46 FE         [19] 6144 	ld	b, -2 (ix)
    000021A2 21 09 00         [10] 6145 	ld	hl, #9
    000021A5 09               [11] 6146 	add	hl, bc
    000021A6 7E               [ 7] 6147 	ld	a, (hl)
    000021A7 DD 77 F6         [19] 6148 	ld	-10 (ix), a
    000021AA D6 0E            [ 7] 6149 	sub	a, #0x0e
    000021AC CAr43r23         [10] 6150 	jp	Z,00145$
                                   6151 ;E:\Dropbox\FAUSTO\SVILUPPI\MSX\CODE\C\MSXgl\projects\exsoccer/exsoccer_s2_b0.c:1190: if(g_Players[i].X > g_Ball.X) dist += (g_Players[i].X - g_Ball.X); else dist += (g_Ball.X - g_Players[i].X);
    000021AF DD 6E FD         [19] 6152 	ld	l, -3 (ix)
                                   6153 ;	spillPairReg hl
                                   6154 ;	spillPairReg hl
    000021B2 DD 66 FE         [19] 6155 	ld	h, -2 (ix)
                                   6156 ;	spillPairReg hl
                                   6157 ;	spillPairReg hl
    000021B5 23               [ 6] 6158 	inc	hl
    000021B6 23               [ 6] 6159 	inc	hl
    000021B7 7E               [ 7] 6160 	ld	a, (hl)
    000021B8 DD 77 F9         [19] 6161 	ld	-7 (ix), a
    000021BB 23               [ 6] 6162 	inc	hl
    000021BC 7E               [ 7] 6163 	ld	a, (hl)
    000021BD DD 77 FA         [19] 6164 	ld	-6 (ix), a
                                   6165 ;E:\Dropbox\FAUSTO\SVILUPPI\MSX\CODE\C\MSXgl\projects\exsoccer/exsoccer_s2_b0.c:1152: if (g_Ball.X < FIELD_POS_X_CENTER) {
    000021C0 21r02r00         [10] 6166 	ld	hl, #(_g_Ball + 2)
    000021C3 7E               [ 7] 6167 	ld	a, (hl)
    000021C4 DD 77 FB         [19] 6168 	ld	-5 (ix), a
    000021C7 23               [ 6] 6169 	inc	hl
    000021C8 7E               [ 7] 6170 	ld	a, (hl)
    000021C9 DD 77 FC         [19] 6171 	ld	-4 (ix), a
                                   6172 ;E:\Dropbox\FAUSTO\SVILUPPI\MSX\CODE\C\MSXgl\projects\exsoccer/exsoccer_s2_b0.c:1190: if(g_Players[i].X > g_Ball.X) dist += (g_Players[i].X - g_Ball.X); else dist += (g_Ball.X - g_Players[i].X);
    000021CC DD 7E FB         [19] 6173 	ld	a, -5 (ix)
    000021CF DD 96 F9         [19] 6174 	sub	a, -7 (ix)
    000021D2 DD 7E FC         [19] 6175 	ld	a, -4 (ix)
    000021D5 DD 9E FA         [19] 6176 	sbc	a, -6 (ix)
    000021D8 30 15            [12] 6177 	jr	NC, 00127$
    000021DA DD 7E F9         [19] 6178 	ld	a, -7 (ix)
    000021DD DD 96 FB         [19] 6179 	sub	a, -5 (ix)
    000021E0 DD 77 F7         [19] 6180 	ld	-9 (ix), a
    000021E3 DD 7E FA         [19] 6181 	ld	a, -6 (ix)
    000021E6 DD 9E FC         [19] 6182 	sbc	a, -4 (ix)
    000021E9 DD 77 F8         [19] 6183 	ld	-8 (ix), a
    000021EC C3r01r22         [10] 6184 	jp	00128$
    000021EF                       6185 00127$:
    000021EF DD 7E FB         [19] 6186 	ld	a, -5 (ix)
    000021F2 DD 96 F9         [19] 6187 	sub	a, -7 (ix)
    000021F5 DD 77 F7         [19] 6188 	ld	-9 (ix), a
    000021F8 DD 7E FC         [19] 6189 	ld	a, -4 (ix)
    000021FB DD 9E FA         [19] 6190 	sbc	a, -6 (ix)
    000021FE DD 77 F8         [19] 6191 	ld	-8 (ix), a
    00002201                       6192 00128$:
                                   6193 ;E:\Dropbox\FAUSTO\SVILUPPI\MSX\CODE\C\MSXgl\projects\exsoccer/exsoccer_s2_b0.c:1191: if(g_Players[i].Y > g_Ball.Y) dist += (g_Players[i].Y - g_Ball.Y); else dist += (g_Ball.Y - g_Players[i].Y);
    00002201 DD 6E FD         [19] 6194 	ld	l, -3 (ix)
    00002204 DD 66 FE         [19] 6195 	ld	h, -2 (ix)
    00002207 7E               [ 7] 6196 	ld	a, (hl)
    00002208 DD 77 F9         [19] 6197 	ld	-7 (ix), a
    0000220B 23               [ 6] 6198 	inc	hl
    0000220C 7E               [ 7] 6199 	ld	a, (hl)
    0000220D DD 77 FA         [19] 6200 	ld	-6 (ix), a
                                   6201 ;E:\Dropbox\FAUSTO\SVILUPPI\MSX\CODE\C\MSXgl\projects\exsoccer/exsoccer_s2_b0.c:1159: if (g_Ball.Y < FIELD_BOUND_Y_TOP) g_Ball.Y = FIELD_BOUND_Y_TOP;
    00002210 21r00r00         [10] 6202 	ld	hl, #_g_Ball
    00002213 7E               [ 7] 6203 	ld	a, (hl)
    00002214 DD 77 FB         [19] 6204 	ld	-5 (ix), a
    00002217 23               [ 6] 6205 	inc	hl
    00002218 7E               [ 7] 6206 	ld	a, (hl)
    00002219 DD 77 FC         [19] 6207 	ld	-4 (ix), a
                                   6208 ;E:\Dropbox\FAUSTO\SVILUPPI\MSX\CODE\C\MSXgl\projects\exsoccer/exsoccer_s2_b0.c:1191: if(g_Players[i].Y > g_Ball.Y) dist += (g_Players[i].Y - g_Ball.Y); else dist += (g_Ball.Y - g_Players[i].Y);
    0000221C DD 7E FB         [19] 6209 	ld	a, -5 (ix)
    0000221F DD 96 F9         [19] 6210 	sub	a, -7 (ix)
    00002222 DD 7E FC         [19] 6211 	ld	a, -4 (ix)
    00002225 DD 9E FA         [19] 6212 	sbc	a, -6 (ix)
    00002228 30 33            [12] 6213 	jr	NC, 00130$
    0000222A DD 7E F9         [19] 6214 	ld	a, -7 (ix)
    0000222D DD 96 FB         [19] 6215 	sub	a, -5 (ix)
    00002230 DD 77 FD         [19] 6216 	ld	-3 (ix), a
    00002233 DD 7E FA         [19] 6217 	ld	a, -6 (ix)
    00002236 DD 9E FC         [19] 6218 	sbc	a, -4 (ix)
    00002239 DD 77 FE         [19] 6219 	ld	-2 (ix), a
    0000223C DD 7E FD         [19] 6220 	ld	a, -3 (ix)
    0000223F DD 86 F7         [19] 6221 	add	a, -9 (ix)
    00002242 DD 77 FB         [19] 6222 	ld	-5 (ix), a
    00002245 DD 7E FE         [19] 6223 	ld	a, -2 (ix)
    00002248 DD 8E F8         [19] 6224 	adc	a, -8 (ix)
    0000224B DD 77 FC         [19] 6225 	ld	-4 (ix), a
    0000224E DD 7E FB         [19] 6226 	ld	a, -5 (ix)
    00002251 DD 77 FD         [19] 6227 	ld	-3 (ix), a
    00002254 DD 7E FC         [19] 6228 	ld	a, -4 (ix)
    00002257 DD 77 FE         [19] 6229 	ld	-2 (ix), a
    0000225A C3r8Dr22         [10] 6230 	jp	00131$
    0000225D                       6231 00130$:
    0000225D DD 7E FB         [19] 6232 	ld	a, -5 (ix)
    00002260 DD 96 F9         [19] 6233 	sub	a, -7 (ix)
    00002263 DD 77 FD         [19] 6234 	ld	-3 (ix), a
    00002266 DD 7E FC         [19] 6235 	ld	a, -4 (ix)
    00002269 DD 9E FA         [19] 6236 	sbc	a, -6 (ix)
    0000226C DD 77 FE         [19] 6237 	ld	-2 (ix), a
    0000226F DD 7E F7         [19] 6238 	ld	a, -9 (ix)
    00002272 DD 86 FD         [19] 6239 	add	a, -3 (ix)
    00002275 DD 77 FB         [19] 6240 	ld	-5 (ix), a
    00002278 DD 7E F8         [19] 6241 	ld	a, -8 (ix)
    0000227B DD 8E FE         [19] 6242 	adc	a, -2 (ix)
    0000227E DD 77 FC         [19] 6243 	ld	-4 (ix), a
    00002281 DD 7E FB         [19] 6244 	ld	a, -5 (ix)
    00002284 DD 77 FD         [19] 6245 	ld	-3 (ix), a
    00002287 DD 7E FC         [19] 6246 	ld	a, -4 (ix)
    0000228A DD 77 FE         [19] 6247 	ld	-2 (ix), a
    0000228D                       6248 00131$:
                                   6249 ;E:\Dropbox\FAUSTO\SVILUPPI\MSX\CODE\C\MSXgl\projects\exsoccer/exsoccer_s2_b0.c:1193: if (g_Players[i].TeamId == g_RestartKickTeamId) {
    0000228D DD 7E F6         [19] 6250 	ld	a, -10 (ix)
    00002290 21r00r00         [10] 6251 	ld	hl, #_g_RestartKickTeamId
    00002293 96               [ 7] 6252 	sub	a, (hl)
    00002294 20 58            [12] 6253 	jr	NZ, 00143$
                                   6254 ;E:\Dropbox\FAUSTO\SVILUPPI\MSX\CODE\C\MSXgl\projects\exsoccer/exsoccer_s2_b0.c:1195: if (dist < dt1) { dt2=dt1; t2=t1; dt1=dist; t1=i; }
    00002296 DD 7E FD         [19] 6255 	ld	a, -3 (ix)
    00002299 DD 96 EC         [19] 6256 	sub	a, -20 (ix)
    0000229C DD 7E FE         [19] 6257 	ld	a, -2 (ix)
    0000229F DD 9E ED         [19] 6258 	sbc	a, -19 (ix)
    000022A2 30 27            [12] 6259 	jr	NC, 00135$
    000022A4 DD 7E EC         [19] 6260 	ld	a, -20 (ix)
    000022A7 DD 77 EE         [19] 6261 	ld	-18 (ix), a
    000022AA DD 7E ED         [19] 6262 	ld	a, -19 (ix)
    000022AD DD 77 EF         [19] 6263 	ld	-17 (ix), a
    000022B0 DD 7E EA         [19] 6264 	ld	a, -22 (ix)
    000022B3 DD 77 EB         [19] 6265 	ld	-21 (ix), a
    000022B6 DD 7E FD         [19] 6266 	ld	a, -3 (ix)
    000022B9 DD 77 EC         [19] 6267 	ld	-20 (ix), a
    000022BC DD 7E FE         [19] 6268 	ld	a, -2 (ix)
    000022BF DD 77 ED         [19] 6269 	ld	-19 (ix), a
    000022C2 DD 7E FF         [19] 6270 	ld	a, -1 (ix)
    000022C5 DD 77 EA         [19] 6271 	ld	-22 (ix), a
    000022C8 C3r43r23         [10] 6272 	jp	00145$
    000022CB                       6273 00135$:
                                   6274 ;E:\Dropbox\FAUSTO\SVILUPPI\MSX\CODE\C\MSXgl\projects\exsoccer/exsoccer_s2_b0.c:1196: else if (dist < dt2) { dt2=dist; t2=i; }
    000022CB DD 7E FD         [19] 6275 	ld	a, -3 (ix)
    000022CE DD 96 EE         [19] 6276 	sub	a, -18 (ix)
    000022D1 DD 7E FE         [19] 6277 	ld	a, -2 (ix)
    000022D4 DD 9E EF         [19] 6278 	sbc	a, -17 (ix)
    000022D7 30 6A            [12] 6279 	jr	NC, 00145$
    000022D9 DD 7E FD         [19] 6280 	ld	a, -3 (ix)
    000022DC DD 77 EE         [19] 6281 	ld	-18 (ix), a
    000022DF DD 7E FE         [19] 6282 	ld	a, -2 (ix)
    000022E2 DD 77 EF         [19] 6283 	ld	-17 (ix), a
    000022E5 DD 7E FF         [19] 6284 	ld	a, -1 (ix)
    000022E8 DD 77 EB         [19] 6285 	ld	-21 (ix), a
    000022EB C3r43r23         [10] 6286 	jp	00145$
    000022EE                       6287 00143$:
                                   6288 ;E:\Dropbox\FAUSTO\SVILUPPI\MSX\CODE\C\MSXgl\projects\exsoccer/exsoccer_s2_b0.c:1199: if (dist < do1) { do2=do1; o2=o1; do1=dist; o1=i; }
    000022EE DD 7E FD         [19] 6289 	ld	a, -3 (ix)
    000022F1 DD 96 F2         [19] 6290 	sub	a, -14 (ix)
    000022F4 DD 7E FE         [19] 6291 	ld	a, -2 (ix)
    000022F7 DD 9E F3         [19] 6292 	sbc	a, -13 (ix)
    000022FA 30 27            [12] 6293 	jr	NC, 00140$
    000022FC DD 7E F2         [19] 6294 	ld	a, -14 (ix)
    000022FF DD 77 F4         [19] 6295 	ld	-12 (ix), a
    00002302 DD 7E F3         [19] 6296 	ld	a, -13 (ix)
    00002305 DD 77 F5         [19] 6297 	ld	-11 (ix), a
    00002308 DD 7E F0         [19] 6298 	ld	a, -16 (ix)
    0000230B DD 77 F1         [19] 6299 	ld	-15 (ix), a
    0000230E DD 7E FD         [19] 6300 	ld	a, -3 (ix)
    00002311 DD 77 F2         [19] 6301 	ld	-14 (ix), a
    00002314 DD 7E FE         [19] 6302 	ld	a, -2 (ix)
    00002317 DD 77 F3         [19] 6303 	ld	-13 (ix), a
    0000231A DD 7E FF         [19] 6304 	ld	a, -1 (ix)
    0000231D DD 77 F0         [19] 6305 	ld	-16 (ix), a
    00002320 C3r43r23         [10] 6306 	jp	00145$
    00002323                       6307 00140$:
                                   6308 ;E:\Dropbox\FAUSTO\SVILUPPI\MSX\CODE\C\MSXgl\projects\exsoccer/exsoccer_s2_b0.c:1200: else if (dist < do2) { do2=dist; o2=i; }
    00002323 DD 7E FD         [19] 6309 	ld	a, -3 (ix)
    00002326 DD 96 F4         [19] 6310 	sub	a, -12 (ix)
    00002329 DD 7E FE         [19] 6311 	ld	a, -2 (ix)
    0000232C DD 9E F5         [19] 6312 	sbc	a, -11 (ix)
    0000232F 30 12            [12] 6313 	jr	NC, 00145$
    00002331 DD 7E FD         [19] 6314 	ld	a, -3 (ix)
    00002334 DD 77 F4         [19] 6315 	ld	-12 (ix), a
    00002337 DD 7E FE         [19] 6316 	ld	a, -2 (ix)
    0000233A DD 77 F5         [19] 6317 	ld	-11 (ix), a
    0000233D DD 7E FF         [19] 6318 	ld	a, -1 (ix)
    00002340 DD 77 F1         [19] 6319 	ld	-15 (ix), a
    00002343                       6320 00145$:
                                   6321 ;E:\Dropbox\FAUSTO\SVILUPPI\MSX\CODE\C\MSXgl\projects\exsoccer/exsoccer_s2_b0.c:1186: for(u8 i=0; i<14; i++) {
    00002343 DD 34 FF         [23] 6322 	inc	-1 (ix)
    00002346 C3r6Ar21         [10] 6323 	jp	00262$
    00002349                       6324 00146$:
                                   6325 ;E:\Dropbox\FAUSTO\SVILUPPI\MSX\CODE\C\MSXgl\projects\exsoccer/exsoccer_s2_b0.c:1205: if (g_ThrowInPlayerId != NO_VALUE) {
    00002349 3Ar00r00         [13] 6326 	ld	a, (_g_ThrowInPlayerId+0)
    0000234C 3C               [ 4] 6327 	inc	a
    0000234D CAr97r24         [10] 6328 	jp	Z,00151$
                                   6329 ;E:\Dropbox\FAUSTO\SVILUPPI\MSX\CODE\C\MSXgl\projects\exsoccer/exsoccer_s2_b0.c:1206: g_Players[g_ThrowInPlayerId].TargetX = g_Ball.X;
    00002350 ED 4Br00r00      [20] 6330 	ld	bc, (_g_ThrowInPlayerId)
    00002354 06 00            [ 7] 6331 	ld	b, #0x00
    00002356 69               [ 4] 6332 	ld	l, c
    00002357 60               [ 4] 6333 	ld	h, b
    00002358 29               [11] 6334 	add	hl, hl
    00002359 29               [11] 6335 	add	hl, hl
    0000235A 09               [11] 6336 	add	hl, bc
    0000235B 29               [11] 6337 	add	hl, hl
    0000235C 29               [11] 6338 	add	hl, hl
    0000235D 09               [11] 6339 	add	hl, bc
    0000235E DD 75 FC         [19] 6340 	ld	-4 (ix), l
    00002361 DD 74 FD         [19] 6341 	ld	-3 (ix), h
    00002364 DD 7E FC         [19] 6342 	ld	a, -4 (ix)
    00002367 C6r00            [ 7] 6343 	add	a, #<(_g_Players)
    00002369 DD 77 FE         [19] 6344 	ld	-2 (ix), a
    0000236C DD 7E FD         [19] 6345 	ld	a, -3 (ix)
    0000236F CEs00            [ 7] 6346 	adc	a, #>(_g_Players)
    00002371 DD 77 FF         [19] 6347 	ld	-1 (ix), a
    00002374 DD 7E FE         [19] 6348 	ld	a, -2 (ix)
    00002377 C6 10            [ 7] 6349 	add	a, #0x10
    00002379 DD 77 FC         [19] 6350 	ld	-4 (ix), a
    0000237C DD 7E FF         [19] 6351 	ld	a, -1 (ix)
    0000237F CE 00            [ 7] 6352 	adc	a, #0x00
    00002381 DD 77 FD         [19] 6353 	ld	-3 (ix), a
    00002384 21r02r00         [10] 6354 	ld	hl, #(_g_Ball + 2)
    00002387 7E               [ 7] 6355 	ld	a, (hl)
    00002388 DD 77 FE         [19] 6356 	ld	-2 (ix), a
    0000238B 23               [ 6] 6357 	inc	hl
    0000238C 7E               [ 7] 6358 	ld	a, (hl)
    0000238D DD 77 FF         [19] 6359 	ld	-1 (ix), a
    00002390 DD 6E FC         [19] 6360 	ld	l, -4 (ix)
    00002393 DD 66 FD         [19] 6361 	ld	h, -3 (ix)
    00002396 DD 7E FE         [19] 6362 	ld	a, -2 (ix)
    00002399 77               [ 7] 6363 	ld	(hl), a
    0000239A 23               [ 6] 6364 	inc	hl
    0000239B DD 7E FF         [19] 6365 	ld	a, -1 (ix)
    0000239E 77               [ 7] 6366 	ld	(hl), a
                                   6367 ;E:\Dropbox\FAUSTO\SVILUPPI\MSX\CODE\C\MSXgl\projects\exsoccer/exsoccer_s2_b0.c:1207: g_Players[g_ThrowInPlayerId].TargetY = g_Ball.Y;
    0000239F ED 4Br00r00      [20] 6368 	ld	bc, (_g_ThrowInPlayerId)
    000023A3 06 00            [ 7] 6369 	ld	b, #0x00
    000023A5 69               [ 4] 6370 	ld	l, c
    000023A6 60               [ 4] 6371 	ld	h, b
    000023A7 29               [11] 6372 	add	hl, hl
    000023A8 29               [11] 6373 	add	hl, hl
    000023A9 09               [11] 6374 	add	hl, bc
    000023AA 29               [11] 6375 	add	hl, hl
    000023AB 29               [11] 6376 	add	hl, hl
    000023AC 09               [11] 6377 	add	hl, bc
    000023AD DD 75 FC         [19] 6378 	ld	-4 (ix), l
    000023B0 DD 74 FD         [19] 6379 	ld	-3 (ix), h
    000023B3 3Er00            [ 7] 6380 	ld	a, #<(_g_Players)
    000023B5 DD 86 FC         [19] 6381 	add	a, -4 (ix)
    000023B8 DD 77 FE         [19] 6382 	ld	-2 (ix), a
    000023BB 3Es00            [ 7] 6383 	ld	a, #>(_g_Players)
    000023BD DD 8E FD         [19] 6384 	adc	a, -3 (ix)
    000023C0 DD 77 FF         [19] 6385 	ld	-1 (ix), a
    000023C3 DD 7E FE         [19] 6386 	ld	a, -2 (ix)
    000023C6 C6 0E            [ 7] 6387 	add	a, #0x0e
    000023C8 DD 77 FC         [19] 6388 	ld	-4 (ix), a
    000023CB DD 7E FF         [19] 6389 	ld	a, -1 (ix)
    000023CE CE 00            [ 7] 6390 	adc	a, #0x00
    000023D0 DD 77 FD         [19] 6391 	ld	-3 (ix), a
    000023D3 21r00r00         [10] 6392 	ld	hl, #_g_Ball
    000023D6 7E               [ 7] 6393 	ld	a, (hl)
    000023D7 DD 77 FE         [19] 6394 	ld	-2 (ix), a
    000023DA 23               [ 6] 6395 	inc	hl
    000023DB 7E               [ 7] 6396 	ld	a, (hl)
    000023DC DD 77 FF         [19] 6397 	ld	-1 (ix), a
    000023DF DD 6E FC         [19] 6398 	ld	l, -4 (ix)
    000023E2 DD 66 FD         [19] 6399 	ld	h, -3 (ix)
    000023E5 DD 7E FE         [19] 6400 	ld	a, -2 (ix)
    000023E8 77               [ 7] 6401 	ld	(hl), a
    000023E9 23               [ 6] 6402 	inc	hl
    000023EA DD 7E FF         [19] 6403 	ld	a, -1 (ix)
    000023ED 77               [ 7] 6404 	ld	(hl), a
                                   6405 ;E:\Dropbox\FAUSTO\SVILUPPI\MSX\CODE\C\MSXgl\projects\exsoccer/exsoccer_s2_b0.c:1208: g_Players[g_ThrowInPlayerId].Status = PLAYER_STATUS_NONE;
    000023EE ED 4Br00r00      [20] 6406 	ld	bc, (_g_ThrowInPlayerId)
    000023F2 06 00            [ 7] 6407 	ld	b, #0x00
    000023F4 69               [ 4] 6408 	ld	l, c
    000023F5 60               [ 4] 6409 	ld	h, b
    000023F6 29               [11] 6410 	add	hl, hl
    000023F7 29               [11] 6411 	add	hl, hl
    000023F8 09               [11] 6412 	add	hl, bc
    000023F9 29               [11] 6413 	add	hl, hl
    000023FA 29               [11] 6414 	add	hl, hl
    000023FB 09               [11] 6415 	add	hl, bc
    000023FC DD 75 FE         [19] 6416 	ld	-2 (ix), l
    000023FF DD 74 FF         [19] 6417 	ld	-1 (ix), h
    00002402 3Er00            [ 7] 6418 	ld	a, #<(_g_Players)
    00002404 DD 86 FE         [19] 6419 	add	a, -2 (ix)
    00002407 DD 77 FC         [19] 6420 	ld	-4 (ix), a
    0000240A 3Es00            [ 7] 6421 	ld	a, #>(_g_Players)
    0000240C DD 8E FF         [19] 6422 	adc	a, -1 (ix)
    0000240F DD 77 FD         [19] 6423 	ld	-3 (ix), a
    00002412 DD 7E FC         [19] 6424 	ld	a, -4 (ix)
    00002415 C6 12            [ 7] 6425 	add	a, #0x12
    00002417 DD 77 FE         [19] 6426 	ld	-2 (ix), a
    0000241A DD 7E FD         [19] 6427 	ld	a, -3 (ix)
    0000241D CE 00            [ 7] 6428 	adc	a, #0x00
    0000241F DD 77 FF         [19] 6429 	ld	-1 (ix), a
    00002422 DD 6E FE         [19] 6430 	ld	l, -2 (ix)
    00002425 DD 66 FF         [19] 6431 	ld	h, -1 (ix)
    00002428 AF               [ 4] 6432 	xor	a, a
    00002429 77               [ 7] 6433 	ld	(hl), a
    0000242A 23               [ 6] 6434 	inc	hl
    0000242B 77               [ 7] 6435 	ld	(hl), a
                                   6436 ;E:\Dropbox\FAUSTO\SVILUPPI\MSX\CODE\C\MSXgl\projects\exsoccer/exsoccer_s2_b0.c:1209: if (g_Ball.X < FIELD_POS_X_CENTER) g_Players[g_ThrowInPlayerId].Direction = DIRECTION_RIGHT;
    0000242C 21r02r00         [10] 6437 	ld	hl, #(_g_Ball + 2)
    0000242F 7E               [ 7] 6438 	ld	a, (hl)
    00002430 DD 77 FE         [19] 6439 	ld	-2 (ix), a
    00002433 23               [ 6] 6440 	inc	hl
    00002434 7E               [ 7] 6441 	ld	a, (hl)
    00002435 DD 77 FF         [19] 6442 	ld	-1 (ix), a
    00002438 DD 7E FE         [19] 6443 	ld	a, -2 (ix)
    0000243B DD 77 FA         [19] 6444 	ld	-6 (ix), a
    0000243E DD 7E FF         [19] 6445 	ld	a, -1 (ix)
    00002441 DD 77 FB         [19] 6446 	ld	-5 (ix), a
                                   6447 ;E:\Dropbox\FAUSTO\SVILUPPI\MSX\CODE\C\MSXgl\projects\exsoccer/exsoccer_s2_b0.c:1206: g_Players[g_ThrowInPlayerId].TargetX = g_Ball.X;
    00002444 ED 4Br00r00      [20] 6448 	ld	bc, (_g_ThrowInPlayerId)
    00002448 06 00            [ 7] 6449 	ld	b, #0x00
    0000244A 69               [ 4] 6450 	ld	l, c
    0000244B 60               [ 4] 6451 	ld	h, b
    0000244C 29               [11] 6452 	add	hl, hl
    0000244D 29               [11] 6453 	add	hl, hl
    0000244E 09               [11] 6454 	add	hl, bc
    0000244F 29               [11] 6455 	add	hl, hl
    00002450 29               [11] 6456 	add	hl, hl
    00002451 09               [11] 6457 	add	hl, bc
    00002452 DD 75 FE         [19] 6458 	ld	-2 (ix), l
    00002455 DD 74 FF         [19] 6459 	ld	-1 (ix), h
                                   6460 ;E:\Dropbox\FAUSTO\SVILUPPI\MSX\CODE\C\MSXgl\projects\exsoccer/exsoccer_s2_b0.c:1209: if (g_Ball.X < FIELD_POS_X_CENTER) g_Players[g_ThrowInPlayerId].Direction = DIRECTION_RIGHT;
    00002458 3Er00            [ 7] 6461 	ld	a, #<(_g_Players)
    0000245A DD 86 FE         [19] 6462 	add	a, -2 (ix)
    0000245D DD 77 FC         [19] 6463 	ld	-4 (ix), a
    00002460 3Es00            [ 7] 6464 	ld	a, #>(_g_Players)
    00002462 DD 8E FF         [19] 6465 	adc	a, -1 (ix)
    00002465 DD 77 FD         [19] 6466 	ld	-3 (ix), a
    00002468 DD 7E FC         [19] 6467 	ld	a, -4 (ix)
    0000246B C6 0A            [ 7] 6468 	add	a, #0x0a
    0000246D DD 77 FE         [19] 6469 	ld	-2 (ix), a
    00002470 DD 7E FD         [19] 6470 	ld	a, -3 (ix)
    00002473 CE 00            [ 7] 6471 	adc	a, #0x00
    00002475 DD 77 FF         [19] 6472 	ld	-1 (ix), a
    00002478 DD 7E FA         [19] 6473 	ld	a, -6 (ix)
    0000247B D6 78            [ 7] 6474 	sub	a, #0x78
    0000247D DD 7E FB         [19] 6475 	ld	a, -5 (ix)
    00002480 DE 00            [ 7] 6476 	sbc	a, #0x00
    00002482 30 0B            [12] 6477 	jr	NC, 00148$
    00002484 DD 6E FE         [19] 6478 	ld	l, -2 (ix)
    00002487 DD 66 FF         [19] 6479 	ld	h, -1 (ix)
    0000248A 36 03            [10] 6480 	ld	(hl), #0x03
    0000248C C3r97r24         [10] 6481 	jp	00151$
    0000248F                       6482 00148$:
                                   6483 ;E:\Dropbox\FAUSTO\SVILUPPI\MSX\CODE\C\MSXgl\projects\exsoccer/exsoccer_s2_b0.c:1210: else g_Players[g_ThrowInPlayerId].Direction = DIRECTION_LEFT;
    0000248F DD 6E FE         [19] 6484 	ld	l, -2 (ix)
    00002492 DD 66 FF         [19] 6485 	ld	h, -1 (ix)
    00002495 36 07            [10] 6486 	ld	(hl), #0x07
    00002497                       6487 00151$:
                                   6488 ;E:\Dropbox\FAUSTO\SVILUPPI\MSX\CODE\C\MSXgl\projects\exsoccer/exsoccer_s2_b0.c:1215: bool isLeft = (g_Ball.X < FIELD_POS_X_CENTER);
    00002497 2Ar02r00         [16] 6489 	ld	hl, (#(_g_Ball + 2) + 0)
    0000249A 11 78 00         [10] 6490 	ld	de, #0x0078
    0000249D BF               [ 4] 6491 	cp	a, a
    0000249E ED 52            [15] 6492 	sbc	hl, de
    000024A0 3E 00            [ 7] 6493 	ld	a, #0x00
    000024A2 17               [ 4] 6494 	rla
    000024A3 DD 77 FF         [19] 6495 	ld	-1 (ix), a
                                   6496 ;E:\Dropbox\FAUSTO\SVILUPPI\MSX\CODE\C\MSXgl\projects\exsoccer/exsoccer_s2_b0.c:1216: u8 crowdIds[4] = {t1, t2, o1, o2};
    000024A6 DD 7E EA         [19] 6497 	ld	a, -22 (ix)
    000024A9 DD 77 D6         [19] 6498 	ld	-42 (ix), a
    000024AC DD 7E EB         [19] 6499 	ld	a, -21 (ix)
    000024AF DD 77 D7         [19] 6500 	ld	-41 (ix), a
    000024B2 DD 7E F0         [19] 6501 	ld	a, -16 (ix)
    000024B5 DD 77 D8         [19] 6502 	ld	-40 (ix), a
    000024B8 DD 7E F1         [19] 6503 	ld	a, -15 (ix)
    000024BB DD 77 D9         [19] 6504 	ld	-39 (ix), a
                                   6505 ;E:\Dropbox\FAUSTO\SVILUPPI\MSX\CODE\C\MSXgl\projects\exsoccer/exsoccer_s2_b0.c:1219: i16 yOffsets[4] = {-30, 20, -15, 35}; 
    000024BE DD 36 DA E2      [19] 6506 	ld	-38 (ix), #0xe2
    000024C2 DD 36 DB FF      [19] 6507 	ld	-37 (ix), #0xff
    000024C6 DD 36 DC 14      [19] 6508 	ld	-36 (ix), #0x14
    000024CA DD 36 DD 00      [19] 6509 	ld	-35 (ix), #0
    000024CE DD 36 DE F1      [19] 6510 	ld	-34 (ix), #0xf1
    000024D2 DD 36 DF FF      [19] 6511 	ld	-33 (ix), #0xff
    000024D6 DD 36 E0 23      [19] 6512 	ld	-32 (ix), #0x23
    000024DA DD 36 E1 00      [19] 6513 	ld	-31 (ix), #0
                                   6514 ;E:\Dropbox\FAUSTO\SVILUPPI\MSX\CODE\C\MSXgl\projects\exsoccer/exsoccer_s2_b0.c:1220: u16 xOffsets[4] = {15, 35, 25, 45}; 
    000024DE DD 36 E2 0F      [19] 6515 	ld	-30 (ix), #0x0f
    000024E2 DD 36 E3 00      [19] 6516 	ld	-29 (ix), #0
    000024E6 DD 36 E4 23      [19] 6517 	ld	-28 (ix), #0x23
    000024EA DD 36 E5 00      [19] 6518 	ld	-27 (ix), #0
    000024EE DD 36 E6 19      [19] 6519 	ld	-26 (ix), #0x19
    000024F2 DD 36 E7 00      [19] 6520 	ld	-25 (ix), #0
    000024F6 DD 36 E8 2D      [19] 6521 	ld	-24 (ix), #0x2d
    000024FA DD 36 E9 00      [19] 6522 	ld	-23 (ix), #0
                                   6523 ;E:\Dropbox\FAUSTO\SVILUPPI\MSX\CODE\C\MSXgl\projects\exsoccer/exsoccer_s2_b0.c:1222: for(u8 k=0; k<4; k++) {
    000024FE DD 36 FE 00      [19] 6524 	ld	-2 (ix), #0x00
    00002502                       6525 00264$:
    00002502 DD 7E FE         [19] 6526 	ld	a, -2 (ix)
    00002505 D6 04            [ 7] 6527 	sub	a, #0x04
    00002507 D2rD8r25         [10] 6528 	jp	NC, 00161$
                                   6529 ;E:\Dropbox\FAUSTO\SVILUPPI\MSX\CODE\C\MSXgl\projects\exsoccer/exsoccer_s2_b0.c:1223: u8 pid = crowdIds[k];
    0000250A DD 5E FE         [19] 6530 	ld	e, -2 (ix)
    0000250D 16 00            [ 7] 6531 	ld	d, #0x00
    0000250F 21 00 00         [10] 6532 	ld	hl, #0
    00002512 39               [11] 6533 	add	hl, sp
    00002513 19               [11] 6534 	add	hl, de
    00002514 7E               [ 7] 6535 	ld	a, (hl)
                                   6536 ;E:\Dropbox\FAUSTO\SVILUPPI\MSX\CODE\C\MSXgl\projects\exsoccer/exsoccer_s2_b0.c:1224: if(pid != NO_VALUE) {
    00002515 DD 77 FD         [19] 6537 	ld	-3 (ix), a
    00002518 3C               [ 4] 6538 	inc	a
    00002519 CArD2r25         [10] 6539 	jp	Z,00265$
                                   6540 ;E:\Dropbox\FAUSTO\SVILUPPI\MSX\CODE\C\MSXgl\projects\exsoccer/exsoccer_s2_b0.c:1225: g_Players[pid].Status = PLAYER_STATUS_NONE;
    0000251C DD 4E FD         [19] 6541 	ld	c, -3 (ix)
    0000251F 06 00            [ 7] 6542 	ld	b, #0x00
    00002521 69               [ 4] 6543 	ld	l, c
    00002522 60               [ 4] 6544 	ld	h, b
    00002523 29               [11] 6545 	add	hl, hl
    00002524 29               [11] 6546 	add	hl, hl
    00002525 09               [11] 6547 	add	hl, bc
    00002526 29               [11] 6548 	add	hl, hl
    00002527 29               [11] 6549 	add	hl, hl
    00002528 09               [11] 6550 	add	hl, bc
    00002529 11r00r00         [10] 6551 	ld	de, #_g_Players
    0000252C 19               [11] 6552 	add	hl, de
    0000252D 4D               [ 4] 6553 	ld	c, l
    0000252E 44               [ 4] 6554 	ld	b, h
    0000252F 21 12 00         [10] 6555 	ld	hl, #0x0012
    00002532 09               [11] 6556 	add	hl, bc
    00002533 AF               [ 4] 6557 	xor	a, a
    00002534 77               [ 7] 6558 	ld	(hl), a
    00002535 23               [ 6] 6559 	inc	hl
    00002536 77               [ 7] 6560 	ld	(hl), a
                                   6561 ;E:\Dropbox\FAUSTO\SVILUPPI\MSX\CODE\C\MSXgl\projects\exsoccer/exsoccer_s2_b0.c:1228: i16 ty = (i16)g_Ball.Y + yOffsets[k];
    00002537 ED 5Br00r00      [20] 6562 	ld	de, (#_g_Ball + 0)
    0000253B DD 6E FE         [19] 6563 	ld	l, -2 (ix)
                                   6564 ;	spillPairReg hl
                                   6565 ;	spillPairReg hl
    0000253E 26 00            [ 7] 6566 	ld	h, #0x00
                                   6567 ;	spillPairReg hl
                                   6568 ;	spillPairReg hl
    00002540 29               [11] 6569 	add	hl, hl
    00002541 DD 75 FA         [19] 6570 	ld	-6 (ix), l
    00002544 DD 74 FB         [19] 6571 	ld	-5 (ix), h
    00002547 D5               [11] 6572 	push	de
    00002548 DD 5E FA         [19] 6573 	ld	e, -6 (ix)
    0000254B DD 56 FB         [19] 6574 	ld	d, -5 (ix)
    0000254E 21 06 00         [10] 6575 	ld	hl, #6
    00002551 39               [11] 6576 	add	hl, sp
    00002552 19               [11] 6577 	add	hl, de
    00002553 D1               [10] 6578 	pop	de
    00002554 7E               [ 7] 6579 	ld	a, (hl)
    00002555 23               [ 6] 6580 	inc	hl
    00002556 66               [ 7] 6581 	ld	h, (hl)
                                   6582 ;	spillPairReg hl
    00002557 6F               [ 4] 6583 	ld	l, a
                                   6584 ;	spillPairReg hl
                                   6585 ;	spillPairReg hl
    00002558 19               [11] 6586 	add	hl, de
                                   6587 ;E:\Dropbox\FAUSTO\SVILUPPI\MSX\CODE\C\MSXgl\projects\exsoccer/exsoccer_s2_b0.c:1230: if(ty < FIELD_BOUND_Y_TOP) ty = FIELD_BOUND_Y_TOP;
                                   6588 ;	spillPairReg hl
                                   6589 ;	spillPairReg hl
    00002559 5D               [ 4] 6590 	ld	e, l
    0000255A 54               [ 4] 6591 	ld	d, h
                                   6592 ;	spillPairReg hl
                                   6593 ;	spillPairReg hl
    0000255B 7D               [ 4] 6594 	ld	a, l
    0000255C D6 32            [ 7] 6595 	sub	a, #0x32
    0000255E 7C               [ 4] 6596 	ld	a, h
    0000255F 17               [ 4] 6597 	rla
    00002560 3F               [ 4] 6598 	ccf
    00002561 1F               [ 4] 6599 	rra
    00002562 DE 80            [ 7] 6600 	sbc	a, #0x80
    00002564 30 03            [12] 6601 	jr	NC, 00153$
    00002566 11 32 00         [10] 6602 	ld	de, #0x0032
    00002569                       6603 00153$:
                                   6604 ;E:\Dropbox\FAUSTO\SVILUPPI\MSX\CODE\C\MSXgl\projects\exsoccer/exsoccer_s2_b0.c:1231: if(ty > FIELD_BOUND_Y_BOTTOM) ty = FIELD_BOUND_Y_BOTTOM;
    00002569 6B               [ 4] 6605 	ld	l, e
                                   6606 ;	spillPairReg hl
                                   6607 ;	spillPairReg hl
    0000256A 62               [ 4] 6608 	ld	h, d
                                   6609 ;	spillPairReg hl
                                   6610 ;	spillPairReg hl
    0000256B 3E AE            [ 7] 6611 	ld	a, #0xae
    0000256D BD               [ 4] 6612 	cp	a, l
    0000256E 3E 01            [ 7] 6613 	ld	a, #0x01
    00002570 9C               [ 4] 6614 	sbc	a, h
    00002571 E2r76r25         [10] 6615 	jp	PO, 00724$
    00002574 EE 80            [ 7] 6616 	xor	a, #0x80
    00002576                       6617 00724$:
    00002576 F2r7Cr25         [10] 6618 	jp	P, 00155$
    00002579 11 AE 01         [10] 6619 	ld	de, #0x01ae
    0000257C                       6620 00155$:
                                   6621 ;E:\Dropbox\FAUSTO\SVILUPPI\MSX\CODE\C\MSXgl\projects\exsoccer/exsoccer_s2_b0.c:1232: g_Players[pid].TargetY = (u16)ty;
    0000257C 21 0E 00         [10] 6622 	ld	hl, #0x000e
    0000257F 09               [11] 6623 	add	hl, bc
    00002580 73               [ 7] 6624 	ld	(hl), e
    00002581 23               [ 6] 6625 	inc	hl
    00002582 72               [ 7] 6626 	ld	(hl), d
                                   6627 ;E:\Dropbox\FAUSTO\SVILUPPI\MSX\CODE\C\MSXgl\projects\exsoccer/exsoccer_s2_b0.c:1152: if (g_Ball.X < FIELD_POS_X_CENTER) {
    00002583 ED 5Br02r00      [20] 6628 	ld	de, (#(_g_Ball + 2) + 0)
                                   6629 ;E:\Dropbox\FAUSTO\SVILUPPI\MSX\CODE\C\MSXgl\projects\exsoccer/exsoccer_s2_b0.c:1236: g_Players[pid].TargetX = g_Ball.X + xOffsets[k];
    00002587 21 10 00         [10] 6630 	ld	hl, #0x0010
    0000258A 09               [11] 6631 	add	hl, bc
    0000258B DD 75 FC         [19] 6632 	ld	-4 (ix), l
    0000258E DD 74 FD         [19] 6633 	ld	-3 (ix), h
    00002591 D5               [11] 6634 	push	de
    00002592 DD 5E FA         [19] 6635 	ld	e, -6 (ix)
    00002595 DD 56 FB         [19] 6636 	ld	d, -5 (ix)
    00002598 21 0E 00         [10] 6637 	ld	hl, #14
    0000259B 39               [11] 6638 	add	hl, sp
    0000259C 19               [11] 6639 	add	hl, de
    0000259D D1               [10] 6640 	pop	de
                                   6641 ;E:\Dropbox\FAUSTO\SVILUPPI\MSX\CODE\C\MSXgl\projects\exsoccer/exsoccer_s2_b0.c:1237: g_Players[pid].Direction = DIRECTION_LEFT; // Look at thrower
    0000259E 79               [ 4] 6642 	ld	a, c
    0000259F C6 0A            [ 7] 6643 	add	a, #0x0a
    000025A1 4F               [ 4] 6644 	ld	c, a
    000025A2 30 01            [12] 6645 	jr	NC, 00725$
    000025A4 04               [ 4] 6646 	inc	b
    000025A5                       6647 00725$:
                                   6648 ;E:\Dropbox\FAUSTO\SVILUPPI\MSX\CODE\C\MSXgl\projects\exsoccer/exsoccer_s2_b0.c:1236: g_Players[pid].TargetX = g_Ball.X + xOffsets[k];
    000025A5 7E               [ 7] 6649 	ld	a, (hl)
    000025A6 23               [ 6] 6650 	inc	hl
    000025A7 66               [ 7] 6651 	ld	h, (hl)
                                   6652 ;	spillPairReg hl
    000025A8 6F               [ 4] 6653 	ld	l, a
                                   6654 ;	spillPairReg hl
                                   6655 ;	spillPairReg hl
                                   6656 ;E:\Dropbox\FAUSTO\SVILUPPI\MSX\CODE\C\MSXgl\projects\exsoccer/exsoccer_s2_b0.c:1235: if (isLeft) {
    000025A9 DD 7E FF         [19] 6657 	ld	a, -1 (ix)
    000025AC B7               [ 4] 6658 	or	a, a
    000025AD 28 11            [12] 6659 	jr	Z, 00157$
                                   6660 ;E:\Dropbox\FAUSTO\SVILUPPI\MSX\CODE\C\MSXgl\projects\exsoccer/exsoccer_s2_b0.c:1236: g_Players[pid].TargetX = g_Ball.X + xOffsets[k];
    000025AF 19               [11] 6661 	add	hl, de
    000025B0 EB               [ 4] 6662 	ex	de, hl
    000025B1 DD 6E FC         [19] 6663 	ld	l, -4 (ix)
    000025B4 DD 66 FD         [19] 6664 	ld	h, -3 (ix)
    000025B7 73               [ 7] 6665 	ld	(hl), e
    000025B8 23               [ 6] 6666 	inc	hl
    000025B9 72               [ 7] 6667 	ld	(hl), d
                                   6668 ;E:\Dropbox\FAUSTO\SVILUPPI\MSX\CODE\C\MSXgl\projects\exsoccer/exsoccer_s2_b0.c:1237: g_Players[pid].Direction = DIRECTION_LEFT; // Look at thrower
    000025BA 3E 07            [ 7] 6669 	ld	a, #0x07
    000025BC 02               [ 7] 6670 	ld	(bc), a
    000025BD C3rD2r25         [10] 6671 	jp	00265$
    000025C0                       6672 00157$:
                                   6673 ;E:\Dropbox\FAUSTO\SVILUPPI\MSX\CODE\C\MSXgl\projects\exsoccer/exsoccer_s2_b0.c:1239: g_Players[pid].TargetX = g_Ball.X - xOffsets[k];
    000025C0 7B               [ 4] 6674 	ld	a, e
    000025C1 95               [ 4] 6675 	sub	a, l
    000025C2 5F               [ 4] 6676 	ld	e, a
    000025C3 7A               [ 4] 6677 	ld	a, d
    000025C4 9C               [ 4] 6678 	sbc	a, h
    000025C5 57               [ 4] 6679 	ld	d, a
    000025C6 DD 6E FC         [19] 6680 	ld	l, -4 (ix)
    000025C9 DD 66 FD         [19] 6681 	ld	h, -3 (ix)
    000025CC 73               [ 7] 6682 	ld	(hl), e
    000025CD 23               [ 6] 6683 	inc	hl
    000025CE 72               [ 7] 6684 	ld	(hl), d
                                   6685 ;E:\Dropbox\FAUSTO\SVILUPPI\MSX\CODE\C\MSXgl\projects\exsoccer/exsoccer_s2_b0.c:1240: g_Players[pid].Direction = DIRECTION_RIGHT; // Look at thrower
    000025CF 3E 03            [ 7] 6686 	ld	a, #0x03
    000025D1 02               [ 7] 6687 	ld	(bc), a
    000025D2                       6688 00265$:
                                   6689 ;E:\Dropbox\FAUSTO\SVILUPPI\MSX\CODE\C\MSXgl\projects\exsoccer/exsoccer_s2_b0.c:1222: for(u8 k=0; k<4; k++) {
    000025D2 DD 34 FE         [23] 6690 	inc	-2 (ix)
    000025D5 C3r02r25         [10] 6691 	jp	00264$
    000025D8                       6692 00161$:
                                   6693 ;E:\Dropbox\FAUSTO\SVILUPPI\MSX\CODE\C\MSXgl\projects\exsoccer/exsoccer_s2_b0.c:1256: if (g_ThrowInPlayerId != NO_VALUE) {
    000025D8 3Ar00r00         [13] 6694 	ld	a, (_g_ThrowInPlayerId+0)
    000025DB 3C               [ 4] 6695 	inc	a
    000025DC 28 44            [12] 6696 	jr	Z, 00163$
                                   6697 ;E:\Dropbox\FAUSTO\SVILUPPI\MSX\CODE\C\MSXgl\projects\exsoccer/exsoccer_s2_b0.c:1257: g_Players[g_ThrowInPlayerId].TargetX = g_Ball.X;
    000025DE ED 4Br00r00      [20] 6698 	ld	bc, (_g_ThrowInPlayerId)
    000025E2 06 00            [ 7] 6699 	ld	b, #0x00
    000025E4 69               [ 4] 6700 	ld	l, c
    000025E5 60               [ 4] 6701 	ld	h, b
    000025E6 29               [11] 6702 	add	hl, hl
    000025E7 29               [11] 6703 	add	hl, hl
    000025E8 09               [11] 6704 	add	hl, bc
    000025E9 29               [11] 6705 	add	hl, hl
    000025EA 29               [11] 6706 	add	hl, hl
    000025EB 09               [11] 6707 	add	hl, bc
    000025EC EB               [ 4] 6708 	ex	de, hl
    000025ED 21r00r00         [10] 6709 	ld	hl, #_g_Players
    000025F0 19               [11] 6710 	add	hl, de
    000025F1 EB               [ 4] 6711 	ex	de, hl
    000025F2 21 10 00         [10] 6712 	ld	hl, #0x0010
    000025F5 19               [11] 6713 	add	hl, de
    000025F6 EB               [ 4] 6714 	ex	de, hl
    000025F7 ED 4Br02r00      [20] 6715 	ld	bc, (#(_g_Ball + 2) + 0)
    000025FB 79               [ 4] 6716 	ld	a, c
    000025FC 12               [ 7] 6717 	ld	(de), a
    000025FD 13               [ 6] 6718 	inc	de
    000025FE 78               [ 4] 6719 	ld	a, b
    000025FF 12               [ 7] 6720 	ld	(de), a
                                   6721 ;E:\Dropbox\FAUSTO\SVILUPPI\MSX\CODE\C\MSXgl\projects\exsoccer/exsoccer_s2_b0.c:1258: g_Players[g_ThrowInPlayerId].TargetY = g_Ball.Y;
    00002600 ED 4Br00r00      [20] 6722 	ld	bc, (_g_ThrowInPlayerId)
    00002604 06 00            [ 7] 6723 	ld	b, #0x00
    00002606 69               [ 4] 6724 	ld	l, c
    00002607 60               [ 4] 6725 	ld	h, b
    00002608 29               [11] 6726 	add	hl, hl
    00002609 29               [11] 6727 	add	hl, hl
    0000260A 09               [11] 6728 	add	hl, bc
    0000260B 29               [11] 6729 	add	hl, hl
    0000260C 29               [11] 6730 	add	hl, hl
    0000260D 09               [11] 6731 	add	hl, bc
    0000260E EB               [ 4] 6732 	ex	de, hl
    0000260F 21r00r00         [10] 6733 	ld	hl, #_g_Players
    00002612 19               [11] 6734 	add	hl, de
    00002613 EB               [ 4] 6735 	ex	de, hl
    00002614 21 0E 00         [10] 6736 	ld	hl, #0x000e
    00002617 19               [11] 6737 	add	hl, de
    00002618 EB               [ 4] 6738 	ex	de, hl
    00002619 ED 4Br00r00      [20] 6739 	ld	bc, (#_g_Ball + 0)
    0000261D 79               [ 4] 6740 	ld	a, c
    0000261E 12               [ 7] 6741 	ld	(de), a
    0000261F 13               [ 6] 6742 	inc	de
    00002620 78               [ 4] 6743 	ld	a, b
    00002621 12               [ 7] 6744 	ld	(de), a
    00002622                       6745 00163$:
                                   6746 ;E:\Dropbox\FAUSTO\SVILUPPI\MSX\CODE\C\MSXgl\projects\exsoccer/exsoccer_s2_b0.c:1159: if (g_Ball.Y < FIELD_BOUND_Y_TOP) g_Ball.Y = FIELD_BOUND_Y_TOP;
    00002622 2Ar00r00         [16] 6747 	ld	hl, (#_g_Ball + 0)
                                   6748 ;E:\Dropbox\FAUSTO\SVILUPPI\MSX\CODE\C\MSXgl\projects\exsoccer/exsoccer_s2_b0.c:1262: if (g_Ball.Y < 140) ShowFieldZone(FIELD_NORTH_ZONE);
    00002625 7D               [ 4] 6749 	ld	a, l
    00002626 D6 8C            [ 7] 6750 	sub	a, #0x8c
    00002628 7C               [ 4] 6751 	ld	a, h
    00002629 DE 00            [ 7] 6752 	sbc	a, #0x00
    0000262B 30 07            [12] 6753 	jr	NC, 00168$
    0000262D AF               [ 4] 6754 	xor	a, a
    0000262E CDr02r0A         [17] 6755 	call	_ShowFieldZone
    00002631 C3r49r26         [10] 6756 	jp	00171$
    00002634                       6757 00168$:
                                   6758 ;E:\Dropbox\FAUSTO\SVILUPPI\MSX\CODE\C\MSXgl\projects\exsoccer/exsoccer_s2_b0.c:1263: else if (g_Ball.Y > 280) ShowFieldZone(FIELD_SOUTH_ZONE);
    00002634 3E 18            [ 7] 6759 	ld	a, #0x18
    00002636 BD               [ 4] 6760 	cp	a, l
    00002637 3E 01            [ 7] 6761 	ld	a, #0x01
    00002639 9C               [ 4] 6762 	sbc	a, h
    0000263A 30 08            [12] 6763 	jr	NC, 00165$
    0000263C 3E 02            [ 7] 6764 	ld	a, #0x02
    0000263E CDr02r0A         [17] 6765 	call	_ShowFieldZone
    00002641 C3r49r26         [10] 6766 	jp	00171$
    00002644                       6767 00165$:
                                   6768 ;E:\Dropbox\FAUSTO\SVILUPPI\MSX\CODE\C\MSXgl\projects\exsoccer/exsoccer_s2_b0.c:1264: else ShowFieldZone(FIELD_CENTRAL_ZONE);
    00002644 3E 01            [ 7] 6769 	ld	a, #0x01
    00002646 CDr02r0A         [17] 6770 	call	_ShowFieldZone
    00002649                       6771 00171$:
                                   6772 ;E:\Dropbox\FAUSTO\SVILUPPI\MSX\CODE\C\MSXgl\projects\exsoccer/exsoccer_s2_b0.c:1268: if (g_ThrowInPlayerId != NO_VALUE) {
    00002649 3Ar00r00         [13] 6773 	ld	a, (_g_ThrowInPlayerId+0)
    0000264C 3C               [ 4] 6774 	inc	a
    0000264D CAr9Dr2C         [10] 6775 	jp	Z,00269$
                                   6776 ;E:\Dropbox\FAUSTO\SVILUPPI\MSX\CODE\C\MSXgl\projects\exsoccer/exsoccer_s2_b0.c:1269: i16 dx = (i16)g_Players[g_ThrowInPlayerId].X - (i16)g_Players[g_ThrowInPlayerId].TargetX;
    00002650 ED 4Br00r00      [20] 6777 	ld	bc, (_g_ThrowInPlayerId)
    00002654 06 00            [ 7] 6778 	ld	b, #0x00
    00002656 69               [ 4] 6779 	ld	l, c
    00002657 60               [ 4] 6780 	ld	h, b
    00002658 29               [11] 6781 	add	hl, hl
    00002659 29               [11] 6782 	add	hl, hl
    0000265A 09               [11] 6783 	add	hl, bc
    0000265B 29               [11] 6784 	add	hl, hl
    0000265C 29               [11] 6785 	add	hl, hl
    0000265D 09               [11] 6786 	add	hl, bc
    0000265E EB               [ 4] 6787 	ex	de, hl
    0000265F 21r00r00         [10] 6788 	ld	hl, #_g_Players
    00002662 19               [11] 6789 	add	hl, de
    00002663 EB               [ 4] 6790 	ex	de, hl
    00002664 21 02 00         [10] 6791 	ld	hl, #0x0002
    00002667 19               [11] 6792 	add	hl, de
    00002668 DD 75 FA         [19] 6793 	ld	-6 (ix), l
    0000266B DD 74 FB         [19] 6794 	ld	-5 (ix), h
    0000266E 4E               [ 7] 6795 	ld	c, (hl)
    0000266F 23               [ 6] 6796 	inc	hl
    00002670 46               [ 7] 6797 	ld	b, (hl)
    00002671 6B               [ 4] 6798 	ld	l, e
                                   6799 ;	spillPairReg hl
                                   6800 ;	spillPairReg hl
    00002672 62               [ 4] 6801 	ld	h, d
                                   6802 ;	spillPairReg hl
                                   6803 ;	spillPairReg hl
    00002673 C5               [11] 6804 	push	bc
    00002674 01 10 00         [10] 6805 	ld	bc, #0x0010
    00002677 09               [11] 6806 	add	hl, bc
    00002678 C1               [10] 6807 	pop	bc
    00002679 7E               [ 7] 6808 	ld	a, (hl)
    0000267A DD 77 FC         [19] 6809 	ld	-4 (ix), a
    0000267D 23               [ 6] 6810 	inc	hl
    0000267E 7E               [ 7] 6811 	ld	a, (hl)
    0000267F DD 77 FD         [19] 6812 	ld	-3 (ix), a
    00002682 DD 6E FC         [19] 6813 	ld	l, -4 (ix)
                                   6814 ;	spillPairReg hl
                                   6815 ;	spillPairReg hl
    00002685 DD 66 FD         [19] 6816 	ld	h, -3 (ix)
                                   6817 ;	spillPairReg hl
                                   6818 ;	spillPairReg hl
    00002688 79               [ 4] 6819 	ld	a, c
    00002689 95               [ 4] 6820 	sub	a, l
    0000268A 4F               [ 4] 6821 	ld	c, a
    0000268B 78               [ 4] 6822 	ld	a, b
    0000268C 9C               [ 4] 6823 	sbc	a, h
    0000268D 47               [ 4] 6824 	ld	b, a
                                   6825 ;E:\Dropbox\FAUSTO\SVILUPPI\MSX\CODE\C\MSXgl\projects\exsoccer/exsoccer_s2_b0.c:1270: i16 dy = (i16)g_Players[g_ThrowInPlayerId].Y - (i16)g_Players[g_ThrowInPlayerId].TargetY;
    0000268E 6B               [ 4] 6826 	ld	l, e
    0000268F 62               [ 4] 6827 	ld	h, d
    00002690 23               [ 6] 6828 	inc	hl
    00002691 7E               [ 7] 6829 	ld	a, (hl)
    00002692 2B               [ 6] 6830 	dec	hl
    00002693 6E               [ 7] 6831 	ld	l, (hl)
                                   6832 ;	spillPairReg hl
    00002694 DD 75 FE         [19] 6833 	ld	-2 (ix), l
    00002697 DD 77 FF         [19] 6834 	ld	-1 (ix), a
    0000269A 21 0E 00         [10] 6835 	ld	hl, #14
    0000269D 19               [11] 6836 	add	hl, de
    0000269E 5E               [ 7] 6837 	ld	e, (hl)
    0000269F 23               [ 6] 6838 	inc	hl
    000026A0 56               [ 7] 6839 	ld	d, (hl)
    000026A1 DD 7E FE         [19] 6840 	ld	a, -2 (ix)
    000026A4 93               [ 4] 6841 	sub	a, e
    000026A5 5F               [ 4] 6842 	ld	e, a
    000026A6 DD 7E FF         [19] 6843 	ld	a, -1 (ix)
    000026A9 9A               [ 4] 6844 	sbc	a, d
    000026AA 57               [ 4] 6845 	ld	d, a
                                   6846 ;E:\Dropbox\FAUSTO\SVILUPPI\MSX\CODE\C\MSXgl\projects\exsoccer/exsoccer_s2_b0.c:1272: if (dx >= -4 && dx <= 4 && dy >= -4 && dy <= 4) {
    000026AB 79               [ 4] 6847 	ld	a, c
    000026AC D6 FC            [ 7] 6848 	sub	a, #0xfc
    000026AE 78               [ 4] 6849 	ld	a, b
    000026AF 17               [ 4] 6850 	rla
    000026B0 3F               [ 4] 6851 	ccf
    000026B1 1F               [ 4] 6852 	rra
    000026B2 DE 7F            [ 7] 6853 	sbc	a, #0x7f
    000026B4 DAr98r2C         [10] 6854 	jp	C, 00251$
    000026B7 3E 04            [ 7] 6855 	ld	a, #0x04
    000026B9 B9               [ 4] 6856 	cp	a, c
    000026BA 3E 00            [ 7] 6857 	ld	a, #0x00
    000026BC 98               [ 4] 6858 	sbc	a, b
    000026BD E2rC2r26         [10] 6859 	jp	PO, 00728$
    000026C0 EE 80            [ 7] 6860 	xor	a, #0x80
    000026C2                       6861 00728$:
    000026C2 FAr98r2C         [10] 6862 	jp	M, 00251$
    000026C5 7B               [ 4] 6863 	ld	a, e
    000026C6 D6 FC            [ 7] 6864 	sub	a, #0xfc
    000026C8 7A               [ 4] 6865 	ld	a, d
    000026C9 17               [ 4] 6866 	rla
    000026CA 3F               [ 4] 6867 	ccf
    000026CB 1F               [ 4] 6868 	rra
    000026CC DE 7F            [ 7] 6869 	sbc	a, #0x7f
    000026CE DAr98r2C         [10] 6870 	jp	C, 00251$
    000026D1 3E 04            [ 7] 6871 	ld	a, #0x04
    000026D3 BB               [ 4] 6872 	cp	a, e
    000026D4 3E 00            [ 7] 6873 	ld	a, #0x00
    000026D6 9A               [ 4] 6874 	sbc	a, d
    000026D7 E2rDCr26         [10] 6875 	jp	PO, 00729$
    000026DA EE 80            [ 7] 6876 	xor	a, #0x80
    000026DC                       6877 00729$:
    000026DC FAr98r2C         [10] 6878 	jp	M, 00251$
                                   6879 ;E:\Dropbox\FAUSTO\SVILUPPI\MSX\CODE\C\MSXgl\projects\exsoccer/exsoccer_s2_b0.c:1273: g_Players[g_ThrowInPlayerId].X = g_Players[g_ThrowInPlayerId].TargetX;
    000026DF DD 6E FA         [19] 6880 	ld	l, -6 (ix)
    000026E2 DD 66 FB         [19] 6881 	ld	h, -5 (ix)
    000026E5 DD 7E FC         [19] 6882 	ld	a, -4 (ix)
    000026E8 77               [ 7] 6883 	ld	(hl), a
    000026E9 23               [ 6] 6884 	inc	hl
    000026EA DD 7E FD         [19] 6885 	ld	a, -3 (ix)
    000026ED 77               [ 7] 6886 	ld	(hl), a
                                   6887 ;E:\Dropbox\FAUSTO\SVILUPPI\MSX\CODE\C\MSXgl\projects\exsoccer/exsoccer_s2_b0.c:1274: g_Players[g_ThrowInPlayerId].Y = g_Players[g_ThrowInPlayerId].TargetY;
    000026EE ED 4Br00r00      [20] 6888 	ld	bc, (_g_ThrowInPlayerId)
    000026F2 06 00            [ 7] 6889 	ld	b, #0x00
    000026F4 69               [ 4] 6890 	ld	l, c
    000026F5 60               [ 4] 6891 	ld	h, b
    000026F6 29               [11] 6892 	add	hl, hl
    000026F7 29               [11] 6893 	add	hl, hl
    000026F8 09               [11] 6894 	add	hl, bc
    000026F9 29               [11] 6895 	add	hl, hl
    000026FA 29               [11] 6896 	add	hl, hl
    000026FB 09               [11] 6897 	add	hl, bc
    000026FC EB               [ 4] 6898 	ex	de, hl
    000026FD 21r00r00         [10] 6899 	ld	hl, #_g_Players
    00002700 19               [11] 6900 	add	hl, de
    00002701 EB               [ 4] 6901 	ex	de, hl
    00002702 4B               [ 4] 6902 	ld	c, e
    00002703 42               [ 4] 6903 	ld	b, d
    00002704 21 0E 00         [10] 6904 	ld	hl, #14
    00002707 09               [11] 6905 	add	hl, bc
    00002708 4E               [ 7] 6906 	ld	c, (hl)
    00002709 23               [ 6] 6907 	inc	hl
    0000270A 46               [ 7] 6908 	ld	b, (hl)
    0000270B 79               [ 4] 6909 	ld	a, c
    0000270C 12               [ 7] 6910 	ld	(de), a
    0000270D 13               [ 6] 6911 	inc	de
    0000270E 78               [ 4] 6912 	ld	a, b
    0000270F 12               [ 7] 6913 	ld	(de), a
                                   6914 ;E:\Dropbox\FAUSTO\SVILUPPI\MSX\CODE\C\MSXgl\projects\exsoccer/exsoccer_s2_b0.c:1275: g_Players[g_ThrowInPlayerId].Status = PLAYER_STATUS_POSITIONED;
    00002710 ED 4Br00r00      [20] 6915 	ld	bc, (_g_ThrowInPlayerId)
    00002714 06 00            [ 7] 6916 	ld	b, #0x00
    00002716 69               [ 4] 6917 	ld	l, c
    00002717 60               [ 4] 6918 	ld	h, b
    00002718 29               [11] 6919 	add	hl, hl
    00002719 29               [11] 6920 	add	hl, hl
    0000271A 09               [11] 6921 	add	hl, bc
    0000271B 29               [11] 6922 	add	hl, hl
    0000271C 29               [11] 6923 	add	hl, hl
    0000271D 09               [11] 6924 	add	hl, bc
    0000271E 11r00r00         [10] 6925 	ld	de, #_g_Players
    00002721 19               [11] 6926 	add	hl, de
    00002722 01 12 00         [10] 6927 	ld	bc, #0x0012
    00002725 09               [11] 6928 	add	hl, bc
    00002726 36 04            [10] 6929 	ld	(hl), #0x04
    00002728 23               [ 6] 6930 	inc	hl
    00002729 36 00            [10] 6931 	ld	(hl), #0x00
                                   6932 ;E:\Dropbox\FAUSTO\SVILUPPI\MSX\CODE\C\MSXgl\projects\exsoccer/exsoccer_s2_b0.c:1278: if(g_Ball.X < FIELD_POS_X_CENTER) {
    0000272B ED 4Br02r00      [20] 6933 	ld	bc, (#(_g_Ball + 2) + 0)
                                   6934 ;E:\Dropbox\FAUSTO\SVILUPPI\MSX\CODE\C\MSXgl\projects\exsoccer/exsoccer_s2_b0.c:1206: g_Players[g_ThrowInPlayerId].TargetX = g_Ball.X;
    0000272F ED 5Br00r00      [20] 6935 	ld	de, (_g_ThrowInPlayerId)
    00002733 16 00            [ 7] 6936 	ld	d, #0x00
    00002735 6B               [ 4] 6937 	ld	l, e
    00002736 62               [ 4] 6938 	ld	h, d
    00002737 29               [11] 6939 	add	hl, hl
    00002738 29               [11] 6940 	add	hl, hl
    00002739 19               [11] 6941 	add	hl, de
    0000273A 29               [11] 6942 	add	hl, hl
    0000273B 29               [11] 6943 	add	hl, hl
    0000273C 19               [11] 6944 	add	hl, de
                                   6945 ;E:\Dropbox\FAUSTO\SVILUPPI\MSX\CODE\C\MSXgl\projects\exsoccer/exsoccer_s2_b0.c:1279: g_Players[g_ThrowInPlayerId].PatternId = PLAYER_POSE_THROWIN_LEFT_1;
    0000273D 11r00r00         [10] 6946 	ld	de, #_g_Players
    00002740 19               [11] 6947 	add	hl, de
    00002741 11 08 00         [10] 6948 	ld	de, #0x0008
    00002744 19               [11] 6949 	add	hl, de
    00002745 DD 75 FE         [19] 6950 	ld	-2 (ix), l
    00002748 DD 74 FF         [19] 6951 	ld	-1 (ix), h
                                   6952 ;E:\Dropbox\FAUSTO\SVILUPPI\MSX\CODE\C\MSXgl\projects\exsoccer/exsoccer_s2_b0.c:1278: if(g_Ball.X < FIELD_POS_X_CENTER) {
    0000274B 79               [ 4] 6953 	ld	a, c
    0000274C D6 78            [ 7] 6954 	sub	a, #0x78
    0000274E 78               [ 4] 6955 	ld	a, b
    0000274F DE 00            [ 7] 6956 	sbc	a, #0x00
    00002751 30 23            [12] 6957 	jr	NC, 00173$
                                   6958 ;E:\Dropbox\FAUSTO\SVILUPPI\MSX\CODE\C\MSXgl\projects\exsoccer/exsoccer_s2_b0.c:1279: g_Players[g_ThrowInPlayerId].PatternId = PLAYER_POSE_THROWIN_LEFT_1;
    00002753 DD 6E FE         [19] 6959 	ld	l, -2 (ix)
    00002756 DD 66 FF         [19] 6960 	ld	h, -1 (ix)
    00002759 36 93            [10] 6961 	ld	(hl), #0x93
                                   6962 ;E:\Dropbox\FAUSTO\SVILUPPI\MSX\CODE\C\MSXgl\projects\exsoccer/exsoccer_s2_b0.c:1280: g_Players[g_ThrowInPlayerId].Direction = DIRECTION_RIGHT;
    0000275B ED 4Br00r00      [20] 6963 	ld	bc, (_g_ThrowInPlayerId)
    0000275F 06 00            [ 7] 6964 	ld	b, #0x00
    00002761 69               [ 4] 6965 	ld	l, c
    00002762 60               [ 4] 6966 	ld	h, b
    00002763 29               [11] 6967 	add	hl, hl
    00002764 29               [11] 6968 	add	hl, hl
    00002765 09               [11] 6969 	add	hl, bc
    00002766 29               [11] 6970 	add	hl, hl
    00002767 29               [11] 6971 	add	hl, hl
    00002768 09               [11] 6972 	add	hl, bc
    00002769 11r00r00         [10] 6973 	ld	de, #_g_Players
    0000276C 19               [11] 6974 	add	hl, de
    0000276D 01 0A 00         [10] 6975 	ld	bc, #0x000a
    00002770 09               [11] 6976 	add	hl, bc
    00002771 36 03            [10] 6977 	ld	(hl), #0x03
    00002773 C3r96r27         [10] 6978 	jp	00174$
    00002776                       6979 00173$:
                                   6980 ;E:\Dropbox\FAUSTO\SVILUPPI\MSX\CODE\C\MSXgl\projects\exsoccer/exsoccer_s2_b0.c:1282: g_Players[g_ThrowInPlayerId].PatternId = PLAYER_POSE_THROWIN_RIGHT_1;
    00002776 DD 6E FE         [19] 6981 	ld	l, -2 (ix)
    00002779 DD 66 FF         [19] 6982 	ld	h, -1 (ix)
    0000277C 36 1C            [10] 6983 	ld	(hl), #0x1c
                                   6984 ;E:\Dropbox\FAUSTO\SVILUPPI\MSX\CODE\C\MSXgl\projects\exsoccer/exsoccer_s2_b0.c:1283: g_Players[g_ThrowInPlayerId].Direction = DIRECTION_LEFT;
    0000277E ED 4Br00r00      [20] 6985 	ld	bc, (_g_ThrowInPlayerId)
    00002782 06 00            [ 7] 6986 	ld	b, #0x00
    00002784 69               [ 4] 6987 	ld	l, c
    00002785 60               [ 4] 6988 	ld	h, b
    00002786 29               [11] 6989 	add	hl, hl
    00002787 29               [11] 6990 	add	hl, hl
    00002788 09               [11] 6991 	add	hl, bc
    00002789 29               [11] 6992 	add	hl, hl
    0000278A 29               [11] 6993 	add	hl, hl
    0000278B 09               [11] 6994 	add	hl, bc
    0000278C 11r00r00         [10] 6995 	ld	de, #_g_Players
    0000278F 19               [11] 6996 	add	hl, de
    00002790 01 0A 00         [10] 6997 	ld	bc, #0x000a
    00002793 09               [11] 6998 	add	hl, bc
    00002794 36 07            [10] 6999 	ld	(hl), #0x07
    00002796                       7000 00174$:
                                   7001 ;E:\Dropbox\FAUSTO\SVILUPPI\MSX\CODE\C\MSXgl\projects\exsoccer/exsoccer_s2_b0.c:1287: g_Ball.X = g_Players[g_ThrowInPlayerId].X;
    00002796 ED 4Br00r00      [20] 7002 	ld	bc, (_g_ThrowInPlayerId)
    0000279A 06 00            [ 7] 7003 	ld	b, #0x00
    0000279C 69               [ 4] 7004 	ld	l, c
    0000279D 60               [ 4] 7005 	ld	h, b
    0000279E 29               [11] 7006 	add	hl, hl
    0000279F 29               [11] 7007 	add	hl, hl
    000027A0 09               [11] 7008 	add	hl, bc
    000027A1 29               [11] 7009 	add	hl, hl
    000027A2 29               [11] 7010 	add	hl, hl
    000027A3 09               [11] 7011 	add	hl, bc
    000027A4 11r00r00         [10] 7012 	ld	de, #_g_Players
    000027A7 19               [11] 7013 	add	hl, de
    000027A8 23               [ 6] 7014 	inc	hl
    000027A9 23               [ 6] 7015 	inc	hl
    000027AA 4E               [ 7] 7016 	ld	c, (hl)
    000027AB 23               [ 6] 7017 	inc	hl
    000027AC 46               [ 7] 7018 	ld	b, (hl)
    000027AD ED 43r02r00      [20] 7019 	ld	((_g_Ball + 2)), bc
                                   7020 ;E:\Dropbox\FAUSTO\SVILUPPI\MSX\CODE\C\MSXgl\projects\exsoccer/exsoccer_s2_b0.c:1289: if(g_Ball.X < FIELD_POS_X_CENTER) g_Ball.Y = g_Players[g_ThrowInPlayerId].Y - 14; 
                                   7021 ;E:\Dropbox\FAUSTO\SVILUPPI\MSX\CODE\C\MSXgl\projects\exsoccer/exsoccer_s2_b0.c:1206: g_Players[g_ThrowInPlayerId].TargetX = g_Ball.X;
    000027B1 ED 5Br00r00      [20] 7022 	ld	de, (_g_ThrowInPlayerId)
    000027B5 16 00            [ 7] 7023 	ld	d, #0x00
    000027B7 6B               [ 4] 7024 	ld	l, e
    000027B8 62               [ 4] 7025 	ld	h, d
    000027B9 29               [11] 7026 	add	hl, hl
    000027BA 29               [11] 7027 	add	hl, hl
    000027BB 19               [11] 7028 	add	hl, de
    000027BC 29               [11] 7029 	add	hl, hl
    000027BD 29               [11] 7030 	add	hl, hl
    000027BE 19               [11] 7031 	add	hl, de
                                   7032 ;E:\Dropbox\FAUSTO\SVILUPPI\MSX\CODE\C\MSXgl\projects\exsoccer/exsoccer_s2_b0.c:1279: g_Players[g_ThrowInPlayerId].PatternId = PLAYER_POSE_THROWIN_LEFT_1;
    000027BF 11r00r00         [10] 7033 	ld	de, #_g_Players
    000027C2 19               [11] 7034 	add	hl, de
                                   7035 ;E:\Dropbox\FAUSTO\SVILUPPI\MSX\CODE\C\MSXgl\projects\exsoccer/exsoccer_s2_b0.c:1289: if(g_Ball.X < FIELD_POS_X_CENTER) g_Ball.Y = g_Players[g_ThrowInPlayerId].Y - 14; 
    000027C3 7E               [ 7] 7036 	ld	a, (hl)
    000027C4 23               [ 6] 7037 	inc	hl
    000027C5 5E               [ 7] 7038 	ld	e, (hl)
    000027C6 DD 77 FE         [19] 7039 	ld	-2 (ix), a
    000027C9 DD 73 FF         [19] 7040 	ld	-1 (ix), e
    000027CC 79               [ 4] 7041 	ld	a, c
    000027CD D6 78            [ 7] 7042 	sub	a, #0x78
    000027CF 78               [ 4] 7043 	ld	a, b
    000027D0 DE 00            [ 7] 7044 	sbc	a, #0x00
    000027D2 30 13            [12] 7045 	jr	NC, 00176$
    000027D4 DD 7E FE         [19] 7046 	ld	a, -2 (ix)
    000027D7 C6 F2            [ 7] 7047 	add	a, #0xf2
    000027D9 4F               [ 4] 7048 	ld	c, a
    000027DA DD 7E FF         [19] 7049 	ld	a, -1 (ix)
    000027DD CE FF            [ 7] 7050 	adc	a, #0xff
    000027DF 47               [ 4] 7051 	ld	b, a
    000027E0 ED 43r00r00      [20] 7052 	ld	(_g_Ball), bc
    000027E4 C3rF7r27         [10] 7053 	jp	00177$
    000027E7                       7054 00176$:
                                   7055 ;E:\Dropbox\FAUSTO\SVILUPPI\MSX\CODE\C\MSXgl\projects\exsoccer/exsoccer_s2_b0.c:1290: else g_Ball.Y = g_Players[g_ThrowInPlayerId].Y - 12;
    000027E7 DD 7E FE         [19] 7056 	ld	a, -2 (ix)
    000027EA C6 F4            [ 7] 7057 	add	a, #0xf4
    000027EC 4F               [ 4] 7058 	ld	c, a
    000027ED DD 7E FF         [19] 7059 	ld	a, -1 (ix)
    000027F0 CE FF            [ 7] 7060 	adc	a, #0xff
    000027F2 47               [ 4] 7061 	ld	b, a
    000027F3 ED 43r00r00      [20] 7062 	ld	(_g_Ball), bc
    000027F7                       7063 00177$:
                                   7064 ;E:\Dropbox\FAUSTO\SVILUPPI\MSX\CODE\C\MSXgl\projects\exsoccer/exsoccer_s2_b0.c:1292: g_Ball.Size = 1;
    000027F7 21r04r00         [10] 7065 	ld	hl, #(_g_Ball + 4)
                                   7066 ;E:\Dropbox\FAUSTO\SVILUPPI\MSX\CODE\C\MSXgl\projects\exsoccer/exsoccer_s2_b0.c:1296: u8 crowdReady = 1;
    000027FA 36 01            [10] 7067 	ld	(hl), #0x01
    000027FC 4E               [ 7] 7068 	ld	c, (hl)
                                   7069 ;E:\Dropbox\FAUSTO\SVILUPPI\MSX\CODE\C\MSXgl\projects\exsoccer/exsoccer_s2_b0.c:1298: for(i=0; i<14; i++) {
    000027FD DD 36 FF 00      [19] 7070 	ld	-1 (ix), #0x00
    00002801                       7071 00266$:
                                   7072 ;E:\Dropbox\FAUSTO\SVILUPPI\MSX\CODE\C\MSXgl\projects\exsoccer/exsoccer_s2_b0.c:1300: u16 tdx = (g_Players[i].TargetX > g_Ball.X) ? (g_Players[i].TargetX - g_Ball.X) : (g_Ball.X - g_Players[i].TargetX);
    00002801 DD 5E FF         [19] 7073 	ld	e, -1 (ix)
    00002804 16 00            [ 7] 7074 	ld	d, #0x00
    00002806 6B               [ 4] 7075 	ld	l, e
    00002807 62               [ 4] 7076 	ld	h, d
    00002808 29               [11] 7077 	add	hl, hl
    00002809 29               [11] 7078 	add	hl, hl
    0000280A 19               [11] 7079 	add	hl, de
    0000280B 29               [11] 7080 	add	hl, hl
    0000280C 29               [11] 7081 	add	hl, hl
    0000280D 19               [11] 7082 	add	hl, de
    0000280E 11r00r00         [10] 7083 	ld	de, #_g_Players
    00002811 19               [11] 7084 	add	hl, de
    00002812 DD 75 F3         [19] 7085 	ld	-13 (ix), l
    00002815 DD 74 F4         [19] 7086 	ld	-12 (ix), h
    00002818 11 10 00         [10] 7087 	ld	de, #16
    0000281B 19               [11] 7088 	add	hl, de
    0000281C 7E               [ 7] 7089 	ld	a, (hl)
    0000281D DD 77 F5         [19] 7090 	ld	-11 (ix), a
    00002820 23               [ 6] 7091 	inc	hl
    00002821 7E               [ 7] 7092 	ld	a, (hl)
    00002822 DD 77 F6         [19] 7093 	ld	-10 (ix), a
                                   7094 ;E:\Dropbox\FAUSTO\SVILUPPI\MSX\CODE\C\MSXgl\projects\exsoccer/exsoccer_s2_b0.c:1278: if(g_Ball.X < FIELD_POS_X_CENTER) {
    00002825 2Ar02r00         [16] 7095 	ld	hl, (#(_g_Ball + 2) + 0)
                                   7096 ;E:\Dropbox\FAUSTO\SVILUPPI\MSX\CODE\C\MSXgl\projects\exsoccer/exsoccer_s2_b0.c:1300: u16 tdx = (g_Players[i].TargetX > g_Ball.X) ? (g_Players[i].TargetX - g_Ball.X) : (g_Ball.X - g_Players[i].TargetX);
    00002828 7D               [ 4] 7097 	ld	a, l
    00002829 DD 96 F5         [19] 7098 	sub	a, -11 (ix)
    0000282C 7C               [ 4] 7099 	ld	a, h
    0000282D DD 9E F6         [19] 7100 	sbc	a, -10 (ix)
    00002830 30 0C            [12] 7101 	jr	NC, 00271$
    00002832 DD 7E F5         [19] 7102 	ld	a, -11 (ix)
    00002835 95               [ 4] 7103 	sub	a, l
    00002836 47               [ 4] 7104 	ld	b, a
    00002837 DD 7E F6         [19] 7105 	ld	a, -10 (ix)
    0000283A 9C               [ 4] 7106 	sbc	a, h
    0000283B C3r47r28         [10] 7107 	jp	00272$
    0000283E                       7108 00271$:
    0000283E 7D               [ 4] 7109 	ld	a, l
    0000283F DD 96 F5         [19] 7110 	sub	a, -11 (ix)
    00002842 47               [ 4] 7111 	ld	b, a
    00002843 7C               [ 4] 7112 	ld	a, h
    00002844 DD 9E F6         [19] 7113 	sbc	a, -10 (ix)
    00002847                       7114 00272$:
    00002847 DD 70 FB         [19] 7115 	ld	-5 (ix), b
    0000284A DD 77 FC         [19] 7116 	ld	-4 (ix), a
                                   7117 ;E:\Dropbox\FAUSTO\SVILUPPI\MSX\CODE\C\MSXgl\projects\exsoccer/exsoccer_s2_b0.c:1301: u16 tdy = (g_Players[i].TargetY > g_Ball.Y) ? (g_Players[i].TargetY - g_Ball.Y) : (g_Ball.Y - g_Players[i].TargetY);
    0000284D DD 7E F3         [19] 7118 	ld	a, -13 (ix)
    00002850 C6 0E            [ 7] 7119 	add	a, #0x0e
    00002852 DD 77 F7         [19] 7120 	ld	-9 (ix), a
    00002855 DD 7E F4         [19] 7121 	ld	a, -12 (ix)
    00002858 CE 00            [ 7] 7122 	adc	a, #0x00
    0000285A DD 77 F8         [19] 7123 	ld	-8 (ix), a
                                   7124 ;E:\Dropbox\FAUSTO\SVILUPPI\MSX\CODE\C\MSXgl\projects\exsoccer/exsoccer_s2_b0.c:1308: i16 pdy = (i16)g_Players[i].Y - (i16)g_Players[i].TargetY;
    0000285D DD 6E F7         [19] 7125 	ld	l, -9 (ix)
    00002860 DD 66 F8         [19] 7126 	ld	h, -8 (ix)
    00002863 7E               [ 7] 7127 	ld	a, (hl)
    00002864 DD 77 FD         [19] 7128 	ld	-3 (ix), a
    00002867 23               [ 6] 7129 	inc	hl
    00002868 7E               [ 7] 7130 	ld	a, (hl)
    00002869 DD 77 FE         [19] 7131 	ld	-2 (ix), a
                                   7132 ;E:\Dropbox\FAUSTO\SVILUPPI\MSX\CODE\C\MSXgl\projects\exsoccer/exsoccer_s2_b0.c:1301: u16 tdy = (g_Players[i].TargetY > g_Ball.Y) ? (g_Players[i].TargetY - g_Ball.Y) : (g_Ball.Y - g_Players[i].TargetY);
    0000286C 2Ar00r00         [16] 7133 	ld	hl, (#_g_Ball + 0)
    0000286F 7D               [ 4] 7134 	ld	a, l
    00002870 DD 96 FD         [19] 7135 	sub	a, -3 (ix)
    00002873 7C               [ 4] 7136 	ld	a, h
    00002874 DD 9E FE         [19] 7137 	sbc	a, -2 (ix)
    00002877 30 0C            [12] 7138 	jr	NC, 00273$
    00002879 DD 7E FD         [19] 7139 	ld	a, -3 (ix)
    0000287C 95               [ 4] 7140 	sub	a, l
    0000287D 5F               [ 4] 7141 	ld	e, a
    0000287E DD 7E FE         [19] 7142 	ld	a, -2 (ix)
    00002881 9C               [ 4] 7143 	sbc	a, h
    00002882 C3r8Er28         [10] 7144 	jp	00274$
    00002885                       7145 00273$:
    00002885 7D               [ 4] 7146 	ld	a, l
    00002886 DD 96 FD         [19] 7147 	sub	a, -3 (ix)
    00002889 5F               [ 4] 7148 	ld	e, a
    0000288A 7C               [ 4] 7149 	ld	a, h
    0000288B DD 9E FE         [19] 7150 	sbc	a, -2 (ix)
    0000288E                       7151 00274$:
    0000288E 57               [ 4] 7152 	ld	d, a
                                   7153 ;E:\Dropbox\FAUSTO\SVILUPPI\MSX\CODE\C\MSXgl\projects\exsoccer/exsoccer_s2_b0.c:1303: if (tdx < 100 && tdy < 100) {
                                   7154 ;	spillPairReg hl
                                   7155 ;	spillPairReg hl
    0000288F DD 7E FB         [19] 7156 	ld	a, -5 (ix)
    00002892 DD 6E FC         [19] 7157 	ld	l, -4 (ix)
    00002895 D6 64            [ 7] 7158 	sub	a, #0x64
    00002897 7D               [ 4] 7159 	ld	a, l
    00002898 DE 00            [ 7] 7160 	sbc	a, #0x00
    0000289A D2r62r29         [10] 7161 	jp	NC, 00267$
    0000289D 7B               [ 4] 7162 	ld	a, e
    0000289E D6 64            [ 7] 7163 	sub	a, #0x64
    000028A0 7A               [ 4] 7164 	ld	a, d
    000028A1 DE 00            [ 7] 7165 	sbc	a, #0x00
    000028A3 D2r62r29         [10] 7166 	jp	NC, 00267$
                                   7167 ;E:\Dropbox\FAUSTO\SVILUPPI\MSX\CODE\C\MSXgl\projects\exsoccer/exsoccer_s2_b0.c:1305: if (g_Players[i].Status != PLAYER_STATUS_POSITIONED) {
    000028A6 DD 7E F3         [19] 7168 	ld	a, -13 (ix)
    000028A9 C6 12            [ 7] 7169 	add	a, #0x12
    000028AB DD 77 F9         [19] 7170 	ld	-7 (ix), a
    000028AE DD 7E F4         [19] 7171 	ld	a, -12 (ix)
    000028B1 CE 00            [ 7] 7172 	adc	a, #0x00
    000028B3 DD 77 FA         [19] 7173 	ld	-6 (ix), a
    000028B6 DD 6E F9         [19] 7174 	ld	l, -7 (ix)
    000028B9 DD 66 FA         [19] 7175 	ld	h, -6 (ix)
    000028BC 5E               [ 7] 7176 	ld	e, (hl)
    000028BD 23               [ 6] 7177 	inc	hl
    000028BE 56               [ 7] 7178 	ld	d, (hl)
    000028BF 7B               [ 4] 7179 	ld	a, e
    000028C0 D6 04            [ 7] 7180 	sub	a, #0x04
    000028C2 B2               [ 4] 7181 	or	a, d
    000028C3 CAr62r29         [10] 7182 	jp	Z,00267$
                                   7183 ;E:\Dropbox\FAUSTO\SVILUPPI\MSX\CODE\C\MSXgl\projects\exsoccer/exsoccer_s2_b0.c:1307: i16 pdx = (i16)g_Players[i].X - (i16)g_Players[i].TargetX;
    000028C6 DD 7E F3         [19] 7184 	ld	a, -13 (ix)
    000028C9 C6 02            [ 7] 7185 	add	a, #0x02
    000028CB DD 77 FB         [19] 7186 	ld	-5 (ix), a
    000028CE DD 7E F4         [19] 7187 	ld	a, -12 (ix)
    000028D1 CE 00            [ 7] 7188 	adc	a, #0x00
    000028D3 DD 77 FC         [19] 7189 	ld	-4 (ix), a
    000028D6 DD 6E FB         [19] 7190 	ld	l, -5 (ix)
    000028D9 DD 66 FC         [19] 7191 	ld	h, -4 (ix)
    000028DC 5E               [ 7] 7192 	ld	e, (hl)
    000028DD 23               [ 6] 7193 	inc	hl
    000028DE 56               [ 7] 7194 	ld	d, (hl)
    000028DF EB               [ 4] 7195 	ex	de, hl
    000028E0 DD 5E F5         [19] 7196 	ld	e, -11 (ix)
    000028E3 DD 56 F6         [19] 7197 	ld	d, -10 (ix)
    000028E6 BF               [ 4] 7198 	cp	a, a
    000028E7 ED 52            [15] 7199 	sbc	hl, de
    000028E9 EB               [ 4] 7200 	ex	de, hl
                                   7201 ;E:\Dropbox\FAUSTO\SVILUPPI\MSX\CODE\C\MSXgl\projects\exsoccer/exsoccer_s2_b0.c:1308: i16 pdy = (i16)g_Players[i].Y - (i16)g_Players[i].TargetY;
    000028EA DD 6E F3         [19] 7202 	ld	l, -13 (ix)
    000028ED DD 66 F4         [19] 7203 	ld	h, -12 (ix)
    000028F0 7E               [ 7] 7204 	ld	a, (hl)
    000028F1 23               [ 6] 7205 	inc	hl
    000028F2 66               [ 7] 7206 	ld	h, (hl)
                                   7207 ;	spillPairReg hl
                                   7208 ;	spillPairReg hl
                                   7209 ;	spillPairReg hl
    000028F3 DD 96 FD         [19] 7210 	sub	a, -3 (ix)
    000028F6 6F               [ 4] 7211 	ld	l, a
                                   7212 ;	spillPairReg hl
                                   7213 ;	spillPairReg hl
    000028F7 7C               [ 4] 7214 	ld	a, h
    000028F8 DD 9E FE         [19] 7215 	sbc	a, -2 (ix)
    000028FB 67               [ 4] 7216 	ld	h, a
                                   7217 ;	spillPairReg hl
                                   7218 ;	spillPairReg hl
                                   7219 ;E:\Dropbox\FAUSTO\SVILUPPI\MSX\CODE\C\MSXgl\projects\exsoccer/exsoccer_s2_b0.c:1309: if (pdx >= -4 && pdx <= 4 && pdy >= -4 && pdy <= 4) {
    000028FC 7B               [ 4] 7220 	ld	a, e
    000028FD D6 FC            [ 7] 7221 	sub	a, #0xfc
    000028FF 7A               [ 4] 7222 	ld	a, d
    00002900 17               [ 4] 7223 	rla
    00002901 3F               [ 4] 7224 	ccf
    00002902 1F               [ 4] 7225 	rra
    00002903 DE 7F            [ 7] 7226 	sbc	a, #0x7f
    00002905 38 56            [12] 7227 	jr	C, 00179$
    00002907 3E 04            [ 7] 7228 	ld	a, #0x04
    00002909 BB               [ 4] 7229 	cp	a, e
    0000290A 3E 00            [ 7] 7230 	ld	a, #0x00
    0000290C 9A               [ 4] 7231 	sbc	a, d
    0000290D E2r12r29         [10] 7232 	jp	PO, 00731$
    00002910 EE 80            [ 7] 7233 	xor	a, #0x80
    00002912                       7234 00731$:
    00002912 FAr5Dr29         [10] 7235 	jp	M, 00179$
    00002915 7D               [ 4] 7236 	ld	a, l
    00002916 D6 FC            [ 7] 7237 	sub	a, #0xfc
    00002918 7C               [ 4] 7238 	ld	a, h
    00002919 17               [ 4] 7239 	rla
    0000291A 3F               [ 4] 7240 	ccf
    0000291B 1F               [ 4] 7241 	rra
    0000291C DE 7F            [ 7] 7242 	sbc	a, #0x7f
    0000291E 38 3D            [12] 7243 	jr	C, 00179$
    00002920 3E 04            [ 7] 7244 	ld	a, #0x04
    00002922 BD               [ 4] 7245 	cp	a, l
    00002923 3E 00            [ 7] 7246 	ld	a, #0x00
    00002925 9C               [ 4] 7247 	sbc	a, h
    00002926 E2r2Br29         [10] 7248 	jp	PO, 00732$
    00002929 EE 80            [ 7] 7249 	xor	a, #0x80
    0000292B                       7250 00732$:
    0000292B FAr5Dr29         [10] 7251 	jp	M, 00179$
                                   7252 ;E:\Dropbox\FAUSTO\SVILUPPI\MSX\CODE\C\MSXgl\projects\exsoccer/exsoccer_s2_b0.c:1310: g_Players[i].X = g_Players[i].TargetX;
    0000292E DD 6E FB         [19] 7253 	ld	l, -5 (ix)
    00002931 DD 66 FC         [19] 7254 	ld	h, -4 (ix)
    00002934 DD 7E F5         [19] 7255 	ld	a, -11 (ix)
    00002937 77               [ 7] 7256 	ld	(hl), a
    00002938 23               [ 6] 7257 	inc	hl
    00002939 DD 7E F6         [19] 7258 	ld	a, -10 (ix)
    0000293C 77               [ 7] 7259 	ld	(hl), a
                                   7260 ;E:\Dropbox\FAUSTO\SVILUPPI\MSX\CODE\C\MSXgl\projects\exsoccer/exsoccer_s2_b0.c:1311: g_Players[i].Y = g_Players[i].TargetY;
    0000293D DD 6E F7         [19] 7261 	ld	l, -9 (ix)
    00002940 DD 66 F8         [19] 7262 	ld	h, -8 (ix)
    00002943 46               [ 7] 7263 	ld	b, (hl)
    00002944 23               [ 6] 7264 	inc	hl
    00002945 5E               [ 7] 7265 	ld	e, (hl)
    00002946 DD 6E F3         [19] 7266 	ld	l, -13 (ix)
    00002949 DD 66 F4         [19] 7267 	ld	h, -12 (ix)
    0000294C 70               [ 7] 7268 	ld	(hl), b
    0000294D 23               [ 6] 7269 	inc	hl
    0000294E 73               [ 7] 7270 	ld	(hl), e
                                   7271 ;E:\Dropbox\FAUSTO\SVILUPPI\MSX\CODE\C\MSXgl\projects\exsoccer/exsoccer_s2_b0.c:1312: g_Players[i].Status = PLAYER_STATUS_POSITIONED;
    0000294F DD 6E F9         [19] 7272 	ld	l, -7 (ix)
    00002952 DD 66 FA         [19] 7273 	ld	h, -6 (ix)
    00002955 36 04            [10] 7274 	ld	(hl), #0x04
    00002957 23               [ 6] 7275 	inc	hl
    00002958 36 00            [10] 7276 	ld	(hl), #0x00
    0000295A C3r62r29         [10] 7277 	jp	00267$
    0000295D                       7278 00179$:
                                   7279 ;E:\Dropbox\FAUSTO\SVILUPPI\MSX\CODE\C\MSXgl\projects\exsoccer/exsoccer_s2_b0.c:1314: crowdReady = 0;
    0000295D 0E 00            [ 7] 7280 	ld	c, #0x00
                                   7281 ;E:\Dropbox\FAUSTO\SVILUPPI\MSX\CODE\C\MSXgl\projects\exsoccer/exsoccer_s2_b0.c:1315: break;
    0000295F C3r6Dr29         [10] 7282 	jp	00189$
    00002962                       7283 00267$:
                                   7284 ;E:\Dropbox\FAUSTO\SVILUPPI\MSX\CODE\C\MSXgl\projects\exsoccer/exsoccer_s2_b0.c:1298: for(i=0; i<14; i++) {
    00002962 DD 34 FF         [23] 7285 	inc	-1 (ix)
    00002965 DD 7E FF         [19] 7286 	ld	a, -1 (ix)
    00002968 D6 0E            [ 7] 7287 	sub	a, #0x0e
    0000296A DAr01r28         [10] 7288 	jp	C, 00266$
    0000296D                       7289 00189$:
                                   7290 ;E:\Dropbox\FAUSTO\SVILUPPI\MSX\CODE\C\MSXgl\projects\exsoccer/exsoccer_s2_b0.c:1321: if (crowdReady) {
    0000296D 79               [ 4] 7291 	ld	a, c
    0000296E B7               [ 4] 7292 	or	a, a
    0000296F 28 0A            [12] 7293 	jr	Z, 00191$
                                   7294 ;E:\Dropbox\FAUSTO\SVILUPPI\MSX\CODE\C\MSXgl\projects\exsoccer/exsoccer_s2_b0.c:1322: g_Timer++;
    00002971 FD 21r00r00      [14] 7295 	ld	iy, #_g_Timer
    00002975 FD 34 00         [23] 7296 	inc	0 (iy)
    00002978 C3r80r29         [10] 7297 	jp	00192$
    0000297B                       7298 00191$:
                                   7299 ;E:\Dropbox\FAUSTO\SVILUPPI\MSX\CODE\C\MSXgl\projects\exsoccer/exsoccer_s2_b0.c:1324: g_Timer = 1; // Wait
    0000297B 3E 01            [ 7] 7300 	ld	a, #0x01
    0000297D 32r00r00         [13] 7301 	ld	(#_g_Timer), a
    00002980                       7302 00192$:
                                   7303 ;E:\Dropbox\FAUSTO\SVILUPPI\MSX\CODE\C\MSXgl\projects\exsoccer/exsoccer_s2_b0.c:1328: if (g_Timer > 60) {
    00002980 3E 3C            [ 7] 7304 	ld	a, #0x3c
    00002982 FD 21r00r00      [14] 7305 	ld	iy, #_g_Timer
    00002986 FD 96 00         [19] 7306 	sub	a, 0 (iy)
    00002989 D2r9Dr2C         [10] 7307 	jp	NC, 00269$
                                   7308 ;E:\Dropbox\FAUSTO\SVILUPPI\MSX\CODE\C\MSXgl\projects\exsoccer/exsoccer_s2_b0.c:1334: u8 t1=NO_VALUE, t2=NO_VALUE; u16 dt1=65535, dt2=65535;
    0000298C DD 36 F1 FF      [19] 7309 	ld	-15 (ix), #0xff
    00002990 DD 36 F2 FF      [19] 7310 	ld	-14 (ix), #0xff
    00002994 DD 36 F3 FF      [19] 7311 	ld	-13 (ix), #0xff
    00002998 DD 36 F4 FF      [19] 7312 	ld	-12 (ix), #0xff
    0000299C DD 36 F5 FF      [19] 7313 	ld	-11 (ix), #0xff
    000029A0 DD 36 F6 FF      [19] 7314 	ld	-10 (ix), #0xff
                                   7315 ;E:\Dropbox\FAUSTO\SVILUPPI\MSX\CODE\C\MSXgl\projects\exsoccer/exsoccer_s2_b0.c:1336: for(i=0; i<14; i++) {
    000029A4 DD 36 FF 00      [19] 7316 	ld	-1 (ix), #0x00
    000029A8                       7317 00268$:
                                   7318 ;E:\Dropbox\FAUSTO\SVILUPPI\MSX\CODE\C\MSXgl\projects\exsoccer/exsoccer_s2_b0.c:1337: if(i == g_ThrowInPlayerId || g_Players[i].Role == PLAYER_ROLE_GOALKEEPER || g_Players[i].TeamId == REFEREE) continue;
    000029A8 3Ar00r00         [13] 7319 	ld	a, (_g_ThrowInPlayerId+0)
    000029AB DD 96 FF         [19] 7320 	sub	a, -1 (ix)
    000029AE CArBCr2A         [10] 7321 	jp	Z,00206$
    000029B1 DD 4E FF         [19] 7322 	ld	c, -1 (ix)
    000029B4 06 00            [ 7] 7323 	ld	b, #0x00
    000029B6 69               [ 4] 7324 	ld	l, c
    000029B7 60               [ 4] 7325 	ld	h, b
    000029B8 29               [11] 7326 	add	hl, hl
    000029B9 29               [11] 7327 	add	hl, hl
    000029BA 09               [11] 7328 	add	hl, bc
    000029BB 29               [11] 7329 	add	hl, hl
    000029BC 29               [11] 7330 	add	hl, hl
    000029BD 09               [11] 7331 	add	hl, bc
    000029BE EB               [ 4] 7332 	ex	de, hl
    000029BF 21r00r00         [10] 7333 	ld	hl, #_g_Players
    000029C2 19               [11] 7334 	add	hl, de
    000029C3 DD 75 FD         [19] 7335 	ld	-3 (ix), l
    000029C6 DD 74 FE         [19] 7336 	ld	-2 (ix), h
    000029C9 4D               [ 4] 7337 	ld	c, l
    000029CA 44               [ 4] 7338 	ld	b, h
    000029CB 21 0D 00         [10] 7339 	ld	hl, #13
    000029CE 09               [11] 7340 	add	hl, bc
    000029CF 7E               [ 7] 7341 	ld	a, (hl)
    000029D0 B7               [ 4] 7342 	or	a, a
    000029D1 CArBCr2A         [10] 7343 	jp	Z, 00206$
    000029D4 DD 4E FD         [19] 7344 	ld	c, -3 (ix)
    000029D7 DD 46 FE         [19] 7345 	ld	b, -2 (ix)
    000029DA 21 09 00         [10] 7346 	ld	hl, #9
    000029DD 09               [11] 7347 	add	hl, bc
    000029DE 4E               [ 7] 7348 	ld	c, (hl)
    000029DF 79               [ 4] 7349 	ld	a, c
    000029E0 D6 0E            [ 7] 7350 	sub	a, #0x0e
    000029E2 CArBCr2A         [10] 7351 	jp	Z,00206$
                                   7352 ;E:\Dropbox\FAUSTO\SVILUPPI\MSX\CODE\C\MSXgl\projects\exsoccer/exsoccer_s2_b0.c:1339: if (g_Players[i].TeamId == g_RestartKickTeamId) {
    000029E5 3Ar00r00         [13] 7353 	ld	a, (_g_RestartKickTeamId+0)
    000029E8 91               [ 4] 7354 	sub	a, c
    000029E9 C2rBCr2A         [10] 7355 	jp	NZ,00206$
                                   7356 ;E:\Dropbox\FAUSTO\SVILUPPI\MSX\CODE\C\MSXgl\projects\exsoccer/exsoccer_s2_b0.c:1340: u16 dx = (g_Players[i].X > g_Ball.X) ? (g_Players[i].X - g_Ball.X) : (g_Ball.X - g_Players[i].X);
    000029EC DD 6E FD         [19] 7357 	ld	l, -3 (ix)
                                   7358 ;	spillPairReg hl
                                   7359 ;	spillPairReg hl
    000029EF DD 66 FE         [19] 7360 	ld	h, -2 (ix)
                                   7361 ;	spillPairReg hl
                                   7362 ;	spillPairReg hl
    000029F2 23               [ 6] 7363 	inc	hl
    000029F3 23               [ 6] 7364 	inc	hl
    000029F4 4E               [ 7] 7365 	ld	c, (hl)
    000029F5 23               [ 6] 7366 	inc	hl
    000029F6 46               [ 7] 7367 	ld	b, (hl)
                                   7368 ;E:\Dropbox\FAUSTO\SVILUPPI\MSX\CODE\C\MSXgl\projects\exsoccer/exsoccer_s2_b0.c:1278: if(g_Ball.X < FIELD_POS_X_CENTER) {
    000029F7 ED 5Br02r00      [20] 7369 	ld	de, (#(_g_Ball + 2) + 0)
                                   7370 ;E:\Dropbox\FAUSTO\SVILUPPI\MSX\CODE\C\MSXgl\projects\exsoccer/exsoccer_s2_b0.c:1340: u16 dx = (g_Players[i].X > g_Ball.X) ? (g_Players[i].X - g_Ball.X) : (g_Ball.X - g_Players[i].X);
    000029FB 7B               [ 4] 7371 	ld	a, e
    000029FC 91               [ 4] 7372 	sub	a, c
    000029FD 7A               [ 4] 7373 	ld	a, d
    000029FE 98               [ 4] 7374 	sbc	a, b
    000029FF 30 08            [12] 7375 	jr	NC, 00275$
    00002A01 79               [ 4] 7376 	ld	a, c
    00002A02 93               [ 4] 7377 	sub	a, e
    00002A03 4F               [ 4] 7378 	ld	c, a
    00002A04 78               [ 4] 7379 	ld	a, b
    00002A05 9A               [ 4] 7380 	sbc	a, d
    00002A06 C3r0Er2A         [10] 7381 	jp	00276$
    00002A09                       7382 00275$:
    00002A09 7B               [ 4] 7383 	ld	a, e
    00002A0A 91               [ 4] 7384 	sub	a, c
    00002A0B 4F               [ 4] 7385 	ld	c, a
    00002A0C 7A               [ 4] 7386 	ld	a, d
    00002A0D 98               [ 4] 7387 	sbc	a, b
    00002A0E                       7388 00276$:
    00002A0E DD 71 F7         [19] 7389 	ld	-9 (ix), c
    00002A11 DD 77 F8         [19] 7390 	ld	-8 (ix), a
                                   7391 ;E:\Dropbox\FAUSTO\SVILUPPI\MSX\CODE\C\MSXgl\projects\exsoccer/exsoccer_s2_b0.c:1341: u16 dy = (g_Players[i].Y > g_Ball.Y) ? (g_Players[i].Y - g_Ball.Y) : (g_Ball.Y - g_Players[i].Y);
    00002A14 DD 6E FD         [19] 7392 	ld	l, -3 (ix)
    00002A17 DD 66 FE         [19] 7393 	ld	h, -2 (ix)
    00002A1A 7E               [ 7] 7394 	ld	a, (hl)
    00002A1B DD 77 F9         [19] 7395 	ld	-7 (ix), a
    00002A1E 23               [ 6] 7396 	inc	hl
    00002A1F 7E               [ 7] 7397 	ld	a, (hl)
    00002A20 DD 77 FA         [19] 7398 	ld	-6 (ix), a
                                   7399 ;E:\Dropbox\FAUSTO\SVILUPPI\MSX\CODE\C\MSXgl\projects\exsoccer/exsoccer_s2_b0.c:1301: u16 tdy = (g_Players[i].TargetY > g_Ball.Y) ? (g_Players[i].TargetY - g_Ball.Y) : (g_Ball.Y - g_Players[i].TargetY);
    00002A23 21r00r00         [10] 7400 	ld	hl, #_g_Ball
    00002A26 7E               [ 7] 7401 	ld	a, (hl)
    00002A27 DD 77 FB         [19] 7402 	ld	-5 (ix), a
    00002A2A 23               [ 6] 7403 	inc	hl
    00002A2B 7E               [ 7] 7404 	ld	a, (hl)
    00002A2C DD 77 FC         [19] 7405 	ld	-4 (ix), a
                                   7406 ;E:\Dropbox\FAUSTO\SVILUPPI\MSX\CODE\C\MSXgl\projects\exsoccer/exsoccer_s2_b0.c:1341: u16 dy = (g_Players[i].Y > g_Ball.Y) ? (g_Players[i].Y - g_Ball.Y) : (g_Ball.Y - g_Players[i].Y);
    00002A2F DD 7E FB         [19] 7407 	ld	a, -5 (ix)
    00002A32 DD 96 F9         [19] 7408 	sub	a, -7 (ix)
    00002A35 DD 7E FC         [19] 7409 	ld	a, -4 (ix)
    00002A38 DD 9E FA         [19] 7410 	sbc	a, -6 (ix)
    00002A3B 30 15            [12] 7411 	jr	NC, 00277$
    00002A3D DD 7E F9         [19] 7412 	ld	a, -7 (ix)
    00002A40 DD 96 FB         [19] 7413 	sub	a, -5 (ix)
    00002A43 DD 77 FD         [19] 7414 	ld	-3 (ix), a
    00002A46 DD 7E FA         [19] 7415 	ld	a, -6 (ix)
    00002A49 DD 9E FC         [19] 7416 	sbc	a, -4 (ix)
    00002A4C DD 77 FE         [19] 7417 	ld	-2 (ix), a
    00002A4F C3r64r2A         [10] 7418 	jp	00278$
    00002A52                       7419 00277$:
    00002A52 DD 7E FB         [19] 7420 	ld	a, -5 (ix)
    00002A55 DD 96 F9         [19] 7421 	sub	a, -7 (ix)
    00002A58 DD 77 FD         [19] 7422 	ld	-3 (ix), a
    00002A5B DD 7E FC         [19] 7423 	ld	a, -4 (ix)
    00002A5E DD 9E FA         [19] 7424 	sbc	a, -6 (ix)
    00002A61 DD 77 FE         [19] 7425 	ld	-2 (ix), a
    00002A64                       7426 00278$:
    00002A64 DD 4E FD         [19] 7427 	ld	c, -3 (ix)
    00002A67 DD 46 FE         [19] 7428 	ld	b, -2 (ix)
                                   7429 ;E:\Dropbox\FAUSTO\SVILUPPI\MSX\CODE\C\MSXgl\projects\exsoccer/exsoccer_s2_b0.c:1342: u16 d = dx+dy;
    00002A6A DD 6E F7         [19] 7430 	ld	l, -9 (ix)
    00002A6D DD 66 F8         [19] 7431 	ld	h, -8 (ix)
    00002A70 09               [11] 7432 	add	hl, bc
                                   7433 ;E:\Dropbox\FAUSTO\SVILUPPI\MSX\CODE\C\MSXgl\projects\exsoccer/exsoccer_s2_b0.c:1344: if (d < 200) { // Safety check
    00002A71 4D               [ 4] 7434 	ld	c, l
    00002A72 44               [ 4] 7435 	ld	b, h
    00002A73 79               [ 4] 7436 	ld	a, c
    00002A74 D6 C8            [ 7] 7437 	sub	a, #0xc8
    00002A76 78               [ 4] 7438 	ld	a, b
    00002A77 DE 00            [ 7] 7439 	sbc	a, #0x00
    00002A79 30 41            [12] 7440 	jr	NC, 00206$
                                   7441 ;E:\Dropbox\FAUSTO\SVILUPPI\MSX\CODE\C\MSXgl\projects\exsoccer/exsoccer_s2_b0.c:1345: if (d < dt1) { dt2=dt1; t2=t1; dt1=d; t1=i; }
    00002A7B 7D               [ 4] 7442 	ld	a, l
    00002A7C DD 96 F3         [19] 7443 	sub	a, -13 (ix)
    00002A7F 7C               [ 4] 7444 	ld	a, h
    00002A80 DD 9E F4         [19] 7445 	sbc	a, -12 (ix)
    00002A83 30 21            [12] 7446 	jr	NC, 00200$
    00002A85 DD 7E F3         [19] 7447 	ld	a, -13 (ix)
    00002A88 DD 77 F5         [19] 7448 	ld	-11 (ix), a
    00002A8B DD 7E F4         [19] 7449 	ld	a, -12 (ix)
    00002A8E DD 77 F6         [19] 7450 	ld	-10 (ix), a
    00002A91 DD 7E F1         [19] 7451 	ld	a, -15 (ix)
    00002A94 DD 77 F2         [19] 7452 	ld	-14 (ix), a
    00002A97 DD 75 F3         [19] 7453 	ld	-13 (ix), l
    00002A9A DD 74 F4         [19] 7454 	ld	-12 (ix), h
    00002A9D DD 7E FF         [19] 7455 	ld	a, -1 (ix)
    00002AA0 DD 77 F1         [19] 7456 	ld	-15 (ix), a
    00002AA3 C3rBCr2A         [10] 7457 	jp	00206$
    00002AA6                       7458 00200$:
                                   7459 ;E:\Dropbox\FAUSTO\SVILUPPI\MSX\CODE\C\MSXgl\projects\exsoccer/exsoccer_s2_b0.c:1346: else if (d < dt2) { dt2=d; t2=i; }
    00002AA6 7D               [ 4] 7460 	ld	a, l
    00002AA7 DD 96 F5         [19] 7461 	sub	a, -11 (ix)
    00002AAA 7C               [ 4] 7462 	ld	a, h
    00002AAB DD 9E F6         [19] 7463 	sbc	a, -10 (ix)
    00002AAE 30 0C            [12] 7464 	jr	NC, 00206$
    00002AB0 DD 75 F5         [19] 7465 	ld	-11 (ix), l
    00002AB3 DD 74 F6         [19] 7466 	ld	-10 (ix), h
    00002AB6 DD 7E FF         [19] 7467 	ld	a, -1 (ix)
    00002AB9 DD 77 F2         [19] 7468 	ld	-14 (ix), a
    00002ABC                       7469 00206$:
                                   7470 ;E:\Dropbox\FAUSTO\SVILUPPI\MSX\CODE\C\MSXgl\projects\exsoccer/exsoccer_s2_b0.c:1336: for(i=0; i<14; i++) {
    00002ABC DD 34 FF         [23] 7471 	inc	-1 (ix)
    00002ABF DD 7E FF         [19] 7472 	ld	a, -1 (ix)
    00002AC2 D6 0E            [ 7] 7473 	sub	a, #0x0e
    00002AC4 DArA8r29         [10] 7474 	jp	C, 00268$
                                   7475 ;E:\Dropbox\FAUSTO\SVILUPPI\MSX\CODE\C\MSXgl\projects\exsoccer/exsoccer_s2_b0.c:1350: c1 = t1; c2 = t2;
    00002AC7 DD 7E F1         [19] 7476 	ld	a, -15 (ix)
    00002ACA DD 77 FE         [19] 7477 	ld	-2 (ix), a
    00002ACD DD 7E F2         [19] 7478 	ld	a, -14 (ix)
    00002AD0 DD 77 FF         [19] 7479 	ld	-1 (ix), a
                                   7480 ;E:\Dropbox\FAUSTO\SVILUPPI\MSX\CODE\C\MSXgl\projects\exsoccer/exsoccer_s2_b0.c:1354: if (s_ThrowTargetId == NO_VALUE && c1 != NO_VALUE) s_ThrowTargetId = c1;
    00002AD3 3Ar0Cr00         [13] 7481 	ld	a, (_TickThrowIn_s_ThrowTargetId_65537_1814+0)
    00002AD6 3C               [ 4] 7482 	inc	a
    00002AD7 20 0C            [12] 7483 	jr	NZ, 00209$
    00002AD9 DD 7E F1         [19] 7484 	ld	a, -15 (ix)
    00002ADC 3C               [ 4] 7485 	inc	a
    00002ADD 28 06            [12] 7486 	jr	Z, 00209$
    00002ADF DD 7E F1         [19] 7487 	ld	a, -15 (ix)
    00002AE2 32r0Cr00         [13] 7488 	ld	(_TickThrowIn_s_ThrowTargetId_65537_1814+0), a
    00002AE5                       7489 00209$:
                                   7490 ;E:\Dropbox\FAUSTO\SVILUPPI\MSX\CODE\C\MSXgl\projects\exsoccer/exsoccer_s2_b0.c:1356: if (s_ThrowTargetId == NO_VALUE) {
    00002AE5 3Ar0Cr00         [13] 7491 	ld	a, (_TickThrowIn_s_ThrowTargetId_65537_1814+0)
    00002AE8 3C               [ 4] 7492 	inc	a
    00002AE9 20 0D            [12] 7493 	jr	NZ, 00212$
                                   7494 ;E:\Dropbox\FAUSTO\SVILUPPI\MSX\CODE\C\MSXgl\projects\exsoccer/exsoccer_s2_b0.c:1357: s_ThrowTargetId = GetClosestPlayerToBall(g_RestartKickTeamId, g_ThrowInPlayerId);
    00002AEB 3Ar00r00         [13] 7495 	ld	a, (_g_ThrowInPlayerId+0)
    00002AEE 6F               [ 4] 7496 	ld	l, a
                                   7497 ;	spillPairReg hl
                                   7498 ;	spillPairReg hl
    00002AEF 3Ar00r00         [13] 7499 	ld	a, (_g_RestartKickTeamId+0)
    00002AF2 CDrF2r0B         [17] 7500 	call	_GetClosestPlayerToBall
    00002AF5 32r0Cr00         [13] 7501 	ld	(_TickThrowIn_s_ThrowTargetId_65537_1814+0), a
    00002AF8                       7502 00212$:
                                   7503 ;E:\Dropbox\FAUSTO\SVILUPPI\MSX\CODE\C\MSXgl\projects\exsoccer/exsoccer_s2_b0.c:1361: bool isHuman = (g_RestartKickTeamId == TEAM_1);
    00002AF8 3Ar00r00         [13] 7504 	ld	a, (_g_RestartKickTeamId+0)
    00002AFB 3D               [ 4] 7505 	dec	a
    00002AFC 3E 01            [ 7] 7506 	ld	a, #0x01
    00002AFE 28 01            [12] 7507 	jr	Z, 00743$
    00002B00 AF               [ 4] 7508 	xor	a, a
    00002B01                       7509 00743$:
    00002B01 5F               [ 4] 7510 	ld	e, a
    00002B02 4B               [ 4] 7511 	ld	c, e
                                   7512 ;E:\Dropbox\FAUSTO\SVILUPPI\MSX\CODE\C\MSXgl\projects\exsoccer/exsoccer_s2_b0.c:1362: if (g_GameWith2Players) isHuman = true; 
    00002B03 3Ar00r00         [13] 7513 	ld	a, (_g_GameWith2Players+0)
    00002B06 B7               [ 4] 7514 	or	a, a
    00002B07 28 02            [12] 7515 	jr	Z, 00214$
    00002B09 0E 01            [ 7] 7516 	ld	c, #0x01
    00002B0B                       7517 00214$:
                                   7518 ;E:\Dropbox\FAUSTO\SVILUPPI\MSX\CODE\C\MSXgl\projects\exsoccer/exsoccer_s2_b0.c:1363: if (g_RestartKickTeamId == TEAM_2 && !g_GameWith2Players) isHuman = false;
    00002B0B 3Ar00r00         [13] 7519 	ld	a, (_g_RestartKickTeamId+0)
    00002B0E D6 02            [ 7] 7520 	sub	a, #0x02
    00002B10 20 07            [12] 7521 	jr	NZ, 00216$
    00002B12 3Ar00r00         [13] 7522 	ld	a, (_g_GameWith2Players+0)
    00002B15 B7               [ 4] 7523 	or	a,a
    00002B16 20 01            [12] 7524 	jr	NZ, 00216$
    00002B18 4F               [ 4] 7525 	ld	c,a
    00002B19                       7526 00216$:
                                   7527 ;E:\Dropbox\FAUSTO\SVILUPPI\MSX\CODE\C\MSXgl\projects\exsoccer/exsoccer_s2_b0.c:1365: if (isHuman) {
    00002B19 79               [ 4] 7528 	ld	a, c
    00002B1A B7               [ 4] 7529 	or	a, a
    00002B1B CAr08r2C         [10] 7530 	jp	Z, 00246$
                                   7531 ;E:\Dropbox\FAUSTO\SVILUPPI\MSX\CODE\C\MSXgl\projects\exsoccer/exsoccer_s2_b0.c:1367: u8 joy = (g_RestartKickTeamId == TEAM_1) ? GetJoystick1Direction() : GetJoystick2Direction();
    00002B1E 7B               [ 4] 7532 	ld	a, e
    00002B1F B7               [ 4] 7533 	or	a, a
    00002B20 28 06            [12] 7534 	jr	Z, 00279$
    00002B22 CDrFDr08         [17] 7535 	call	_GetJoystick1Direction
    00002B25 C3r2Br2B         [10] 7536 	jp	00280$
    00002B28                       7537 00279$:
    00002B28 CDrFDr09         [17] 7538 	call	_GetJoystick2Direction
    00002B2B                       7539 00280$:
    00002B2B 57               [ 4] 7540 	ld	d, a
                                   7541 ;E:\Dropbox\FAUSTO\SVILUPPI\MSX\CODE\C\MSXgl\projects\exsoccer/exsoccer_s2_b0.c:1368: bool trig = IsTeamJoystickTriggerPressed(g_RestartKickTeamId);
    00002B2C D5               [11] 7542 	push	de
    00002B2D 3Ar00r00         [13] 7543 	ld	a, (_g_RestartKickTeamId+0)
    00002B30 CDr8Dr08         [17] 7544 	call	_IsTeamJoystickTriggerPressed
    00002B33 D1               [10] 7545 	pop	de
    00002B34 DD 77 FD         [19] 7546 	ld	-3 (ix), a
                                   7547 ;E:\Dropbox\FAUSTO\SVILUPPI\MSX\CODE\C\MSXgl\projects\exsoccer/exsoccer_s2_b0.c:1371: if (joy != DIRECTION_NONE && !s_JoyMoved) {
    00002B37 7A               [ 4] 7548 	ld	a, d
    00002B38 B7               [ 4] 7549 	or	a, a
    00002B39 28 31            [12] 7550 	jr	Z, 00227$
    00002B3B 3Ar0Dr00         [13] 7551 	ld	a, (_TickThrowIn_s_JoyMoved_65537_1814+0)
    00002B3E B7               [ 4] 7552 	or	a, a
    00002B3F 20 2B            [12] 7553 	jr	NZ, 00227$
                                   7554 ;E:\Dropbox\FAUSTO\SVILUPPI\MSX\CODE\C\MSXgl\projects\exsoccer/exsoccer_s2_b0.c:1373: if (c1 != NO_VALUE && c2 != NO_VALUE) {
    00002B41 DD 7E FE         [19] 7555 	ld	a, -2 (ix)
    00002B44 3C               [ 4] 7556 	inc	a
    00002B45 28 1D            [12] 7557 	jr	Z, 00222$
    00002B47 DD 7E FF         [19] 7558 	ld	a, -1 (ix)
    00002B4A 3C               [ 4] 7559 	inc	a
    00002B4B 28 17            [12] 7560 	jr	Z, 00222$
                                   7561 ;E:\Dropbox\FAUSTO\SVILUPPI\MSX\CODE\C\MSXgl\projects\exsoccer/exsoccer_s2_b0.c:1374: if (s_ThrowTargetId == c1) s_ThrowTargetId = c2;
    00002B4D 3Ar0Cr00         [13] 7562 	ld	a, (_TickThrowIn_s_ThrowTargetId_65537_1814+0)
    00002B50 DD 96 FE         [19] 7563 	sub	a, -2 (ix)
    00002B53 20 09            [12] 7564 	jr	NZ, 00219$
    00002B55 DD 7E FF         [19] 7565 	ld	a, -1 (ix)
    00002B58 32r0Cr00         [13] 7566 	ld	(_TickThrowIn_s_ThrowTargetId_65537_1814+0), a
    00002B5B C3r64r2B         [10] 7567 	jp	00222$
    00002B5E                       7568 00219$:
                                   7569 ;E:\Dropbox\FAUSTO\SVILUPPI\MSX\CODE\C\MSXgl\projects\exsoccer/exsoccer_s2_b0.c:1375: else s_ThrowTargetId = c1;
    00002B5E DD 7E FE         [19] 7570 	ld	a, -2 (ix)
    00002B61 32r0Cr00         [13] 7571 	ld	(_TickThrowIn_s_ThrowTargetId_65537_1814+0), a
    00002B64                       7572 00222$:
                                   7573 ;E:\Dropbox\FAUSTO\SVILUPPI\MSX\CODE\C\MSXgl\projects\exsoccer/exsoccer_s2_b0.c:1377: s_JoyMoved = true;
    00002B64 3E 01            [ 7] 7574 	ld	a, #0x01
    00002B66 32r0Dr00         [13] 7575 	ld	(#_TickThrowIn_s_JoyMoved_65537_1814), a
    00002B69 C3r73r2B         [10] 7576 	jp	00228$
    00002B6C                       7577 00227$:
                                   7578 ;E:\Dropbox\FAUSTO\SVILUPPI\MSX\CODE\C\MSXgl\projects\exsoccer/exsoccer_s2_b0.c:1378: } else if (joy == DIRECTION_NONE) {
    00002B6C 7A               [ 4] 7579 	ld	a, d
                                   7580 ;E:\Dropbox\FAUSTO\SVILUPPI\MSX\CODE\C\MSXgl\projects\exsoccer/exsoccer_s2_b0.c:1379: s_JoyMoved = false;
    00002B6D B7               [ 4] 7581 	or	a,a
    00002B6E 20 03            [12] 7582 	jr	NZ, 00228$
    00002B70 32r0Dr00         [13] 7583 	ld	(#_TickThrowIn_s_JoyMoved_65537_1814), a
    00002B73                       7584 00228$:
                                   7585 ;E:\Dropbox\FAUSTO\SVILUPPI\MSX\CODE\C\MSXgl\projects\exsoccer/exsoccer_s2_b0.c:1383: g_PassTargetPlayer = s_ThrowTargetId; 
    00002B73 3Ar0Cr00         [13] 7586 	ld	a, (_TickThrowIn_s_ThrowTargetId_65537_1814+0)
    00002B76 32r00r00         [13] 7587 	ld	(_g_PassTargetPlayer+0), a
                                   7588 ;E:\Dropbox\FAUSTO\SVILUPPI\MSX\CODE\C\MSXgl\projects\exsoccer/exsoccer_s2_b0.c:1386: s_ForceThrowTimer++;
    00002B79 2Ar0Er00         [16] 7589 	ld	hl, (_TickThrowIn_s_ForceThrowTimer_65537_1814)
    00002B7C 23               [ 6] 7590 	inc	hl
    00002B7D 22r0Er00         [16] 7591 	ld	(_TickThrowIn_s_ForceThrowTimer_65537_1814), hl
                                   7592 ;E:\Dropbox\FAUSTO\SVILUPPI\MSX\CODE\C\MSXgl\projects\exsoccer/exsoccer_s2_b0.c:1389: if ((trig || s_ForceThrowTimer > 240) && s_ThrowTargetId != NO_VALUE) {
    00002B80 DD 7E FD         [19] 7593 	ld	a, -3 (ix)
    00002B83 B7               [ 4] 7594 	or	a, a
    00002B84 20 0C            [12] 7595 	jr	NZ, 00233$
    00002B86 2Ar0Er00         [16] 7596 	ld	hl, (_TickThrowIn_s_ForceThrowTimer_65537_1814)
    00002B89 3E F0            [ 7] 7597 	ld	a, #0xf0
    00002B8B BD               [ 4] 7598 	cp	a, l
    00002B8C 3E 00            [ 7] 7599 	ld	a, #0x00
    00002B8E 9C               [ 4] 7600 	sbc	a, h
    00002B8F D2r9Dr2C         [10] 7601 	jp	NC, 00269$
    00002B92                       7602 00233$:
    00002B92 3Ar0Cr00         [13] 7603 	ld	a, (_TickThrowIn_s_ThrowTargetId_65537_1814+0)
    00002B95 3C               [ 4] 7604 	inc	a
    00002B96 CAr9Dr2C         [10] 7605 	jp	Z,00269$
                                   7606 ;E:\Dropbox\FAUSTO\SVILUPPI\MSX\CODE\C\MSXgl\projects\exsoccer/exsoccer_s2_b0.c:1390: g_Ball.PossessionPlayerId = g_ThrowInPlayerId;
    00002B99 21r06r00         [10] 7607 	ld	hl, #(_g_Ball + 6)
    00002B9C 3Ar00r00         [13] 7608 	ld	a, (_g_ThrowInPlayerId+0)
    00002B9F 77               [ 7] 7609 	ld	(hl), a
                                   7610 ;E:\Dropbox\FAUSTO\SVILUPPI\MSX\CODE\C\MSXgl\projects\exsoccer/exsoccer_s2_b0.c:1391: SetPlayerBallPossession(g_ThrowInPlayerId);
    00002BA0 3Ar00r00         [13] 7611 	ld	a, (_g_ThrowInPlayerId+0)
    00002BA3 CDr00r00         [17] 7612 	call	_SetPlayerBallPossession
                                   7613 ;E:\Dropbox\FAUSTO\SVILUPPI\MSX\CODE\C\MSXgl\projects\exsoccer/exsoccer_s2_b0.c:1392: g_Ball.Y = g_Players[g_ThrowInPlayerId].Y; // Reset to feet
    00002BA6 ED 4Br00r00      [20] 7614 	ld	bc, (_g_ThrowInPlayerId)
    00002BAA 06 00            [ 7] 7615 	ld	b, #0x00
    00002BAC 69               [ 4] 7616 	ld	l, c
    00002BAD 60               [ 4] 7617 	ld	h, b
    00002BAE 29               [11] 7618 	add	hl, hl
    00002BAF 29               [11] 7619 	add	hl, hl
    00002BB0 09               [11] 7620 	add	hl, bc
    00002BB1 29               [11] 7621 	add	hl, hl
    00002BB2 29               [11] 7622 	add	hl, hl
    00002BB3 09               [11] 7623 	add	hl, bc
    00002BB4 DD 75 FC         [19] 7624 	ld	-4 (ix), l
    00002BB7 DD 74 FD         [19] 7625 	ld	-3 (ix), h
    00002BBA DD 7E FC         [19] 7626 	ld	a, -4 (ix)
    00002BBD C6r00            [ 7] 7627 	add	a, #<(_g_Players)
    00002BBF DD 77 FE         [19] 7628 	ld	-2 (ix), a
    00002BC2 DD 7E FD         [19] 7629 	ld	a, -3 (ix)
    00002BC5 CEs00            [ 7] 7630 	adc	a, #>(_g_Players)
    00002BC7 DD 77 FF         [19] 7631 	ld	-1 (ix), a
    00002BCA DD 6E FE         [19] 7632 	ld	l, -2 (ix)
    00002BCD DD 66 FF         [19] 7633 	ld	h, -1 (ix)
    00002BD0 7E               [ 7] 7634 	ld	a, (hl)
    00002BD1 DD 77 FE         [19] 7635 	ld	-2 (ix), a
    00002BD4 23               [ 6] 7636 	inc	hl
    00002BD5 7E               [ 7] 7637 	ld	a, (hl)
    00002BD6 DD 77 FF         [19] 7638 	ld	-1 (ix), a
    00002BD9 21r00r00         [10] 7639 	ld	hl, #_g_Ball
    00002BDC DD 7E FE         [19] 7640 	ld	a, -2 (ix)
    00002BDF 77               [ 7] 7641 	ld	(hl), a
    00002BE0 23               [ 6] 7642 	inc	hl
    00002BE1 DD 7E FF         [19] 7643 	ld	a, -1 (ix)
    00002BE4 77               [ 7] 7644 	ld	(hl), a
                                   7645 ;E:\Dropbox\FAUSTO\SVILUPPI\MSX\CODE\C\MSXgl\projects\exsoccer/exsoccer_s2_b0.c:1393: PerformPass(s_ThrowTargetId);
    00002BE5 3Ar0Cr00         [13] 7646 	ld	a, (_TickThrowIn_s_ThrowTargetId_65537_1814+0)
    00002BE8 CDr00r00         [17] 7647 	call	_PerformPass
                                   7648 ;E:\Dropbox\FAUSTO\SVILUPPI\MSX\CODE\C\MSXgl\projects\exsoccer/exsoccer_s2_b0.c:1394: g_MatchStatus = MATCH_IN_ACTION;
    00002BEB 21r00r00         [10] 7649 	ld	hl, #_g_MatchStatus
    00002BEE 36 0C            [10] 7650 	ld	(hl), #0x0c
                                   7651 ;E:\Dropbox\FAUSTO\SVILUPPI\MSX\CODE\C\MSXgl\projects\exsoccer/exsoccer_s2_b0.c:1395: ClearTextFromLayerA(10, 18, 9); // Correct coords: 10, 18 (len 9 is enough for "THROW IN")
    00002BF0 3E 09            [ 7] 7652 	ld	a, #0x09
    00002BF2 F5               [11] 7653 	push	af
    00002BF3 33               [ 6] 7654 	inc	sp
    00002BF4 2E 12            [ 7] 7655 	ld	l, #0x12
                                   7656 ;	spillPairReg hl
                                   7657 ;	spillPairReg hl
    00002BF6 3E 0A            [ 7] 7658 	ld	a, #0x0a
    00002BF8 CDr2Dr08         [17] 7659 	call	_ClearTextFromLayerA
                                   7660 ;E:\Dropbox\FAUSTO\SVILUPPI\MSX\CODE\C\MSXgl\projects\exsoccer/exsoccer_s2_b0.c:1396: g_Ball.ShotActive = 1; // High Arc for throw
    00002BFB 21r1Br00         [10] 7661 	ld	hl, #(_g_Ball + 27)
    00002BFE 36 01            [10] 7662 	ld	(hl), #0x01
                                   7663 ;E:\Dropbox\FAUSTO\SVILUPPI\MSX\CODE\C\MSXgl\projects\exsoccer/exsoccer_s2_b0.c:1397: g_Ball.Size = 1;
    00002C00 21r04r00         [10] 7664 	ld	hl, #(_g_Ball + 4)
    00002C03 36 01            [10] 7665 	ld	(hl), #0x01
    00002C05 C3r9Dr2C         [10] 7666 	jp	00269$
    00002C08                       7667 00246$:
                                   7668 ;E:\Dropbox\FAUSTO\SVILUPPI\MSX\CODE\C\MSXgl\projects\exsoccer/exsoccer_s2_b0.c:1401: if (g_Timer > 100) {
    00002C08 3E 64            [ 7] 7669 	ld	a, #0x64
    00002C0A FD 21r00r00      [14] 7670 	ld	iy, #_g_Timer
    00002C0E FD 96 00         [19] 7671 	sub	a, 0 (iy)
    00002C11 D2r91r2C         [10] 7672 	jp	NC, 00243$
                                   7673 ;E:\Dropbox\FAUSTO\SVILUPPI\MSX\CODE\C\MSXgl\projects\exsoccer/exsoccer_s2_b0.c:1402: if (s_ThrowTargetId == NO_VALUE && c1 != NO_VALUE) s_ThrowTargetId = c1; 
    00002C14 3Ar0Cr00         [13] 7674 	ld	a, (_TickThrowIn_s_ThrowTargetId_65537_1814+0)
    00002C17 3C               [ 4] 7675 	inc	a
    00002C18 20 0C            [12] 7676 	jr	NZ, 00235$
    00002C1A DD 7E FE         [19] 7677 	ld	a, -2 (ix)
    00002C1D 3C               [ 4] 7678 	inc	a
    00002C1E 28 06            [12] 7679 	jr	Z, 00235$
    00002C20 DD 7E FE         [19] 7680 	ld	a, -2 (ix)
    00002C23 32r0Cr00         [13] 7681 	ld	(_TickThrowIn_s_ThrowTargetId_65537_1814+0), a
    00002C26                       7682 00235$:
                                   7683 ;E:\Dropbox\FAUSTO\SVILUPPI\MSX\CODE\C\MSXgl\projects\exsoccer/exsoccer_s2_b0.c:1403: if (s_ThrowTargetId == NO_VALUE) s_ThrowTargetId = GetClosestPlayerToBall(g_RestartKickTeamId, g_ThrowInPlayerId);
    00002C26 3Ar0Cr00         [13] 7684 	ld	a, (_TickThrowIn_s_ThrowTargetId_65537_1814+0)
    00002C29 3C               [ 4] 7685 	inc	a
    00002C2A 20 0D            [12] 7686 	jr	NZ, 00238$
    00002C2C 3Ar00r00         [13] 7687 	ld	a, (_g_ThrowInPlayerId+0)
    00002C2F 6F               [ 4] 7688 	ld	l, a
                                   7689 ;	spillPairReg hl
                                   7690 ;	spillPairReg hl
    00002C30 3Ar00r00         [13] 7691 	ld	a, (_g_RestartKickTeamId+0)
    00002C33 CDrF2r0B         [17] 7692 	call	_GetClosestPlayerToBall
    00002C36 32r0Cr00         [13] 7693 	ld	(_TickThrowIn_s_ThrowTargetId_65537_1814+0), a
    00002C39                       7694 00238$:
                                   7695 ;E:\Dropbox\FAUSTO\SVILUPPI\MSX\CODE\C\MSXgl\projects\exsoccer/exsoccer_s2_b0.c:1406: if (g_Timer > 120) {
    00002C39 3E 78            [ 7] 7696 	ld	a, #0x78
    00002C3B 21r00r00         [10] 7697 	ld	hl, #_g_Timer
    00002C3E 96               [ 7] 7698 	sub	a, (hl)
    00002C3F 30 49            [12] 7699 	jr	NC, 00240$
                                   7700 ;E:\Dropbox\FAUSTO\SVILUPPI\MSX\CODE\C\MSXgl\projects\exsoccer/exsoccer_s2_b0.c:1407: g_Ball.PossessionPlayerId = g_ThrowInPlayerId;
    00002C41 21r06r00         [10] 7701 	ld	hl, #(_g_Ball + 6)
    00002C44 3Ar00r00         [13] 7702 	ld	a, (_g_ThrowInPlayerId+0)
    00002C47 77               [ 7] 7703 	ld	(hl), a
                                   7704 ;E:\Dropbox\FAUSTO\SVILUPPI\MSX\CODE\C\MSXgl\projects\exsoccer/exsoccer_s2_b0.c:1408: SetPlayerBallPossession(g_ThrowInPlayerId);
    00002C48 3Ar00r00         [13] 7705 	ld	a, (_g_ThrowInPlayerId+0)
    00002C4B CDr00r00         [17] 7706 	call	_SetPlayerBallPossession
                                   7707 ;E:\Dropbox\FAUSTO\SVILUPPI\MSX\CODE\C\MSXgl\projects\exsoccer/exsoccer_s2_b0.c:1409: g_Ball.Y = g_Players[g_ThrowInPlayerId].Y; // Reset to feet
    00002C4E ED 4Br00r00      [20] 7708 	ld	bc, (_g_ThrowInPlayerId)
    00002C52 06 00            [ 7] 7709 	ld	b, #0x00
    00002C54 69               [ 4] 7710 	ld	l, c
    00002C55 60               [ 4] 7711 	ld	h, b
    00002C56 29               [11] 7712 	add	hl, hl
    00002C57 29               [11] 7713 	add	hl, hl
    00002C58 09               [11] 7714 	add	hl, bc
    00002C59 29               [11] 7715 	add	hl, hl
    00002C5A 29               [11] 7716 	add	hl, hl
    00002C5B 09               [11] 7717 	add	hl, bc
    00002C5C 11r00r00         [10] 7718 	ld	de, #_g_Players
    00002C5F 19               [11] 7719 	add	hl, de
    00002C60 4E               [ 7] 7720 	ld	c, (hl)
    00002C61 23               [ 6] 7721 	inc	hl
    00002C62 46               [ 7] 7722 	ld	b, (hl)
    00002C63 ED 43r00r00      [20] 7723 	ld	(_g_Ball), bc
                                   7724 ;E:\Dropbox\FAUSTO\SVILUPPI\MSX\CODE\C\MSXgl\projects\exsoccer/exsoccer_s2_b0.c:1410: PerformPass(s_ThrowTargetId);
    00002C67 3Ar0Cr00         [13] 7725 	ld	a, (_TickThrowIn_s_ThrowTargetId_65537_1814+0)
    00002C6A CDr00r00         [17] 7726 	call	_PerformPass
                                   7727 ;E:\Dropbox\FAUSTO\SVILUPPI\MSX\CODE\C\MSXgl\projects\exsoccer/exsoccer_s2_b0.c:1411: g_MatchStatus = MATCH_IN_ACTION; 
    00002C6D 21r00r00         [10] 7728 	ld	hl, #_g_MatchStatus
    00002C70 36 0C            [10] 7729 	ld	(hl), #0x0c
                                   7730 ;E:\Dropbox\FAUSTO\SVILUPPI\MSX\CODE\C\MSXgl\projects\exsoccer/exsoccer_s2_b0.c:1412: ClearTextFromLayerA(10, 18, 9); // Correct coords
    00002C72 3E 09            [ 7] 7731 	ld	a, #0x09
    00002C74 F5               [11] 7732 	push	af
    00002C75 33               [ 6] 7733 	inc	sp
    00002C76 2E 12            [ 7] 7734 	ld	l, #0x12
                                   7735 ;	spillPairReg hl
                                   7736 ;	spillPairReg hl
    00002C78 3E 0A            [ 7] 7737 	ld	a, #0x0a
    00002C7A CDr2Dr08         [17] 7738 	call	_ClearTextFromLayerA
                                   7739 ;E:\Dropbox\FAUSTO\SVILUPPI\MSX\CODE\C\MSXgl\projects\exsoccer/exsoccer_s2_b0.c:1413: g_Ball.ShotActive = 1; 
    00002C7D 21r1Br00         [10] 7740 	ld	hl, #(_g_Ball + 27)
    00002C80 36 01            [10] 7741 	ld	(hl), #0x01
                                   7742 ;E:\Dropbox\FAUSTO\SVILUPPI\MSX\CODE\C\MSXgl\projects\exsoccer/exsoccer_s2_b0.c:1414: g_Ball.Size = 1;
    00002C82 21r04r00         [10] 7743 	ld	hl, #(_g_Ball + 4)
    00002C85 36 01            [10] 7744 	ld	(hl), #0x01
    00002C87 C3r9Dr2C         [10] 7745 	jp	00269$
    00002C8A                       7746 00240$:
                                   7747 ;E:\Dropbox\FAUSTO\SVILUPPI\MSX\CODE\C\MSXgl\projects\exsoccer/exsoccer_s2_b0.c:1416: g_Timer++;
    00002C8A 21r00r00         [10] 7748 	ld	hl, #_g_Timer
    00002C8D 34               [11] 7749 	inc	(hl)
    00002C8E C3r9Dr2C         [10] 7750 	jp	00269$
    00002C91                       7751 00243$:
                                   7752 ;E:\Dropbox\FAUSTO\SVILUPPI\MSX\CODE\C\MSXgl\projects\exsoccer/exsoccer_s2_b0.c:1419: g_Timer++;
    00002C91 21r00r00         [10] 7753 	ld	hl, #_g_Timer
    00002C94 34               [11] 7754 	inc	(hl)
    00002C95 C3r9Dr2C         [10] 7755 	jp	00269$
    00002C98                       7756 00251$:
                                   7757 ;E:\Dropbox\FAUSTO\SVILUPPI\MSX\CODE\C\MSXgl\projects\exsoccer/exsoccer_s2_b0.c:1424: g_Timer = 1; 
    00002C98 21r00r00         [10] 7758 	ld	hl, #_g_Timer
    00002C9B 36 01            [10] 7759 	ld	(hl), #0x01
    00002C9D                       7760 00269$:
                                   7761 ;E:\Dropbox\FAUSTO\SVILUPPI\MSX\CODE\C\MSXgl\projects\exsoccer/exsoccer_s2_b0.c:1427: }
    00002C9D DD F9            [10] 7762 	ld	sp, ix
    00002C9F DD E1            [14] 7763 	pop	ix
    00002CA1 C9               [10] 7764 	ret
                                   7765 	.area _SEG2
                                   7766 	.area _INITIALIZER
    00000000                       7767 __xinit__g_ShowButtonsInfo:
    00000000 01                    7768 	.db #0x01	; 1
                                   7769 	.area _CABS (ABS)
