                                      1 ;--------------------------------------------------------
                                      2 ; File Created by SDCC : free open source ANSI-C Compiler
                                      3 ; Version 4.2.0 #13081 (MINGW64)
                                      4 ;--------------------------------------------------------
                                      5 	.module exsoccer_s1_b2
                                      6 	.optsdcc -mz80
                                      7 	
                                      8 ;--------------------------------------------------------
                                      9 ; Public variables in this module
                                     10 ;--------------------------------------------------------
                                     11 	.globl _HandleOffside
                                     12 	.globl _DEBUG_LOGNUM
                                     13 	.globl _PerformShot
                                     14 	.globl _GetOffsideLineY
                                     15 	.globl _GetClosestPlayerToBall
                                     16 	.globl _GoalkeeperWithBall
                                     17 	.globl _GetBestPassTarget
                                     18 	.globl _GetNoMovingPlayerPatternId
                                     19 	.globl _SetPlayerBallPossession
                                     20 	.globl _GetPlayerIdByRole
                                     21 	.globl _ClearTextFromLayerA
                                     22 	.globl _IsTeamJoystickTriggerPressed
                                     23 	.globl _SetPlayerTarget
                                     24 	.globl _TickPlayerToOwnTarget
                                     25 	.globl _V9_PrintLayerAStringAtPos
                                     26 	.globl _V9_SetPaletteEntry
                                     27 	.globl _V9_SetScrollingBY
                                     28 	.globl _V9_SetRegister
                                     29 	.globl _g_SLTSL
                                     30 	.globl _g_GRPACY
                                     31 	.globl _g_GRPACX
                                     32 	.globl _g_LOGOPR
                                     33 	.globl _g_CMASK
                                     34 	.globl _g_CLOC
                                     35 	.globl _g_FNKSTR
                                     36 	.globl _g_ATRBYT
                                     37 	.globl _g_BDRCLR
                                     38 	.globl _g_BAKCLR
                                     39 	.globl _g_FORCLR
                                     40 	.globl _g_CSRX
                                     41 	.globl _g_CSRY
                                     42 	.globl _g_CLIKSW
                                     43 	.globl _g_MLTPAT
                                     44 	.globl _g_MLTATR
                                     45 	.globl _g_MLTCGP
                                     46 	.globl _g_MLTCOL
                                     47 	.globl _g_MLTNAM
                                     48 	.globl _g_GRPPAT
                                     49 	.globl _g_GRPATR
                                     50 	.globl _g_GRPCGP
                                     51 	.globl _g_GRPCOL
                                     52 	.globl _g_GRPNAM
                                     53 	.globl _g_T32PAT
                                     54 	.globl _g_T32ATR
                                     55 	.globl _g_T32CGP
                                     56 	.globl _g_T32COL
                                     57 	.globl _g_T32NAM
                                     58 	.globl _g_TXTPAT
                                     59 	.globl _g_TXTATR
                                     60 	.globl _g_TXTCGP
                                     61 	.globl _g_TXTCOL
                                     62 	.globl _g_TXTNAM
                                     63 	.globl _g_CLMLST
                                     64 	.globl _g_CRTCNT
                                     65 	.globl _g_LINLEN
                                     66 	.globl _g_LINL32
                                     67 	.globl _g_LINL40
                                     68 	.globl _g_Sprites1_palette_fio
                                     69 	.globl _g_Sprites1_palette_bra
                                     70 	.globl _g_Sprites1_palette_gbr
                                     71 	.globl _g_Sprites1_palette_ger
                                     72 	.globl _g_Sprites1_palette_fra
                                     73 	.globl _g_Sprites1_palette_aus
                                     74 	.globl _g_Sprites1_palette_ita
                                     75 	.globl _g_GameFieldLayerBTilesPalette
                                     76 	.globl _g_GameFieldLayerATilesPalette
                                     77 	.globl _g_BDOS
                                     78 	.globl _g_MASTER
                                     79 	.globl _g_RAMAD3
                                     80 	.globl _g_RAMAD2
                                     81 	.globl _g_RAMAD1
                                     82 	.globl _g_RAMAD0
                                     83 	.globl _g_BREAKV
                                     84 	.globl _g_DISKVE
                                     85 	.globl _g_KANJTABLE
                                     86 	.globl _g_STRSRC
                                     87 	.globl _g_SUBRID
                                     88 	.globl _g_CHAR_16
                                     89 	.globl _g_MSXMID
                                     90 	.globl _g_MSXVER
                                     91 	.globl _g_ROMVersion
                                     92 	.globl _g_BASRVN
                                     93 	.globl _g_VDP_DW
                                     94 	.globl _g_VDP_DR
                                     95 	.globl _g_CGTABL
                                     96 	.globl _g_SVFFFD
                                     97 	.globl _g_RG27SAV
                                     98 	.globl _g_RG26SAV
                                     99 	.globl _g_RG25SAV
                                    100 	.globl _g_SVFFF8
                                    101 	.globl _g_MINROM
                                    102 	.globl _g_RG23SAV
                                    103 	.globl _g_RG22SAV
                                    104 	.globl _g_RG21SAV
                                    105 	.globl _g_RG20SAV
                                    106 	.globl _g_RG19SAV
                                    107 	.globl _g_RG18SAV
                                    108 	.globl _g_RG17SAV
                                    109 	.globl _g_RG16SAV
                                    110 	.globl _g_RG15SAV
                                    111 	.globl _g_RG14SAV
                                    112 	.globl _g_RG13SAV
                                    113 	.globl _g_RG12SAV
                                    114 	.globl _g_RG11SAV
                                    115 	.globl _g_RG10SAV
                                    116 	.globl _g_RG09SAV
                                    117 	.globl _g_RG08SAV
                                    118 	.globl _g_PROCNM
                                    119 	.globl _g_SLTWRK
                                    120 	.globl _g_SLTATR
                                    121 	.globl _g_SLTTBL
                                    122 	.globl _g_EXPTBL
                                    123 	.globl _g_MNROM
                                    124 	.globl _g_DRWANG
                                    125 	.globl _g_DRWSCL
                                    126 	.globl _g_DRWFLG
                                    127 	.globl _g_GYPOS
                                    128 	.globl _g_GXPOS
                                    129 	.globl _g_BRDATR
                                    130 	.globl _g_CASPRV
                                    131 	.globl _g_OLDSCR
                                    132 	.globl _g_SCRMOD
                                    133 	.globl _g_FLBMEM
                                    134 	.globl _g_KANAMD
                                    135 	.globl _g_KANAST
                                    136 	.globl _g_CAPST
                                    137 	.globl _g_CSTYLE
                                    138 	.globl _g_CSRSW
                                    139 	.globl _g_INSFLG
                                    140 	.globl _g_ESCCNT
                                    141 	.globl _g_GRPHED
                                    142 	.globl _g_WINWID
                                    143 	.globl _g_LOWLIM
                                    144 	.globl _g_INTCNT
                                    145 	.globl _g_INTVAL
                                    146 	.globl _g_JIFFY
                                    147 	.globl _g_PADX
                                    148 	.globl _g_PADY
                                    149 	.globl _g_INTFLG
                                    150 	.globl _g_RTYCNT
                                    151 	.globl _g_TRPTBL
                                    152 	.globl _g_HIMEM
                                    153 	.globl _g_BOTTOM
                                    154 	.globl _g_PATWRK
                                    155 	.globl _g_LINWRK
                                    156 	.globl _g_KEYBUF
                                    157 	.globl _g_NEWKEY
                                    158 	.globl _g_OLDKEY
                                    159 	.globl _g_CLIKFL
                                    160 	.globl _g_ONGSBF
                                    161 	.globl _g_FNKFLG
                                    162 	.globl _g_FNKSWI
                                    163 	.globl _g_CODSAV
                                    164 	.globl _g_FSTPOS
                                    165 	.globl _g_LINTTB
                                    166 	.globl _g_BASROM
                                    167 	.globl _g_ENSTOP
                                    168 	.globl _g_VCBC
                                    169 	.globl _g_VCBB
                                    170 	.globl _g_VCBA
                                    171 	.globl _g_PLYCNT
                                    172 	.globl _g_MUSICF
                                    173 	.globl _g_QUEUEN
                                    174 	.globl _g_MCLPTR
                                    175 	.globl _g_MCLLEN
                                    176 	.globl _g_SAVVOL
                                    177 	.globl _g_VOICEN
                                    178 	.globl _g_SAVSP
                                    179 	.globl _g_PRSCNT
                                    180 	.globl _g_LSTMOD
                                    181 	.globl _g_LSTCOM
                                    182 	.globl _g_COMMSK
                                    183 	.globl _g_ESTBLS
                                    184 	.globl _g_FLAGS
                                    185 	.globl _g_ERRORS
                                    186 	.globl _g_DATCNT
                                    187 	.globl _g_DEVNUM
                                    188 	.globl _g_OLDINT
                                    189 	.globl _g_OLDSTT
                                    190 	.globl _g_MEXBIh
                                    191 	.globl _g_RSIQLN
                                    192 	.globl _g_RSFCB
                                    193 	.globl _g_TOCNT
                                    194 	.globl _g_RSTMP
                                    195 	.globl _g_YSAVE
                                    196 	.globl _g_XSAVE
                                    197 	.globl _g_NORUSE
                                    198 	.globl _g_MODE
                                    199 	.globl _g_ROMA
                                    200 	.globl _g_CHRCNT
                                    201 	.globl _g_EXBRSA
                                    202 	.globl _g_AVCSAV
                                    203 	.globl _g_ACPAGE
                                    204 	.globl _g_DPPAGE
                                    205 	.globl _g_RS2IQ
                                    206 	.globl _g_VOICCQ
                                    207 	.globl _g_VOICBQ
                                    208 	.globl _g_VOICAQ
                                    209 	.globl _g_QUEBAK
                                    210 	.globl _g_QUETAB
                                    211 	.globl _g_ASPCT2
                                    212 	.globl _g_ASPCT1
                                    213 	.globl _g_HEADER
                                    214 	.globl _g_HIGH
                                    215 	.globl _g_LOW
                                    216 	.globl _g_CS240
                                    217 	.globl _g_CS120
                                    218 	.globl _g_GETPNT
                                    219 	.globl _g_PUTPNT
                                    220 	.globl _g_REPCNT
                                    221 	.globl _g_SCNCNT
                                    222 	.globl _g_FRCNEW
                                    223 	.globl _g_QUEUES
                                    224 	.globl _g_MINUPD
                                    225 	.globl _g_MAXUPD
                                    226 	.globl _g_TRGFLG
                                    227 	.globl _g_STATFL
                                    228 	.globl _g_RG7SAV
                                    229 	.globl _g_RG6SAV
                                    230 	.globl _g_RG5SAV
                                    231 	.globl _g_RG4SAV
                                    232 	.globl _g_RG3SAV
                                    233 	.globl _g_RG2SAV
                                    234 	.globl _g_RG1SAV
                                    235 	.globl _g_RG0SAV
                                    236 	.globl _g_CNSDFG
                                    237 	.globl _g_USRTAB
                                    238 	.globl _g_CLPRIM
                                    239 	.globl _g_WRPRIM
                                    240 	.globl _g_RDPRIM
                                    241 	.globl _TickTeamJoystick
                                    242 	.globl _TickAI
                                    243 	.globl _PutBallOnPlayerFeet
                                    244 	.globl _TickBallCollision
                                    245 	.globl _IsOffside
                                    246 	.globl _PerformPass
                                    247 	.globl _InitPalette
                                    248 	.globl _SetTeam1Palette
                                    249 	.globl _SetTeam2Palette
                                    250 	.globl _GetTeamPaletteById
                                    251 	.globl _TickFieldScrollingAction
                                    252 	.globl _TickShowKickOff
                                    253 	.globl _ResetBallInfo
                                    254 ;--------------------------------------------------------
                                    255 ; special function registers
                                    256 ;--------------------------------------------------------
                         000000A8   257 _g_PortPrimarySlot	=	0x00a8
                         000000A9   258 _g_PortReadKeyboard	=	0x00a9
                         000000AA   259 _g_PortAccessKeyboard	=	0x00aa
                         000000AB   260 _g_PortControl	=	0x00ab
                         00000098   261 _g_VDP_DataPort	=	0x0098
                         00000099   262 _g_VDP_RegPort	=	0x0099
                         00000099   263 _g_VDP_AddrPort	=	0x0099
                         00000099   264 _g_VDP_StatPort	=	0x0099
                         000000A0   265 _g_PSG_RegPort	=	0x00a0
                         000000A1   266 _g_PSG_DataPort	=	0x00a1
                         000000A2   267 _g_PSG_StatPort	=	0x00a2
                         00000010   268 _g_PSG_Ext_RegPort	=	0x0010
                         00000011   269 _g_PSG_Ext_DataPort	=	0x0011
                         00000012   270 _g_PSG_Ext_StatPort	=	0x0012
                         0000007C   271 _g_MSXMusic_IndexPort	=	0x007c
                         0000007D   272 _g_MSXMusic_DataPort	=	0x007d
                         000000C0   273 _g_MSXAudio_IndexPort	=	0x00c0
                         000000C1   274 _g_MSXAudio_DataPort	=	0x00c1
                         000000C2   275 _g_MSXAudio_IndexPort2	=	0x00c2
                         000000C3   276 _g_MSXAudio_DataPort2	=	0x00c3
                         000000B4   277 _g_RTC_AddrPort	=	0x00b4
                         000000B5   278 _g_RTC_DataPort	=	0x00b5
                         00000060   279 _g_V9_VRAMPort	=	0x0060
                         00000061   280 _g_V9_PalettePort	=	0x0061
                         00000062   281 _g_V9_CmdDataPort	=	0x0062
                         00000063   282 _g_V9_RegDataPort	=	0x0063
                         00000064   283 _g_V9_RegSelectPort	=	0x0064
                         00000065   284 _g_V9_SatusPort	=	0x0065
                         00000066   285 _g_V9_IntFlagPort	=	0x0066
                         00000067   286 _g_V9_SysCtrlPort	=	0x0067
                         00000068   287 _g_V9_KanjiAddrLPort	=	0x0068
                         00000069   288 _g_V9_KanjiAddrHPort	=	0x0069
                         00000069   289 _g_V9_KanjiDataPort	=	0x0069
                         0000006A   290 _g_V9_Kanji2AddrLPort	=	0x006a
                         0000006B   291 _g_V9_Kanji2AddrHPort	=	0x006b
                         0000006B   292 _g_V9_Kanji2DataPort	=	0x006b
                         0000006F   293 _g_V9_OutputCtrPort	=	0x006f
                                    294 ;--------------------------------------------------------
                                    295 ; ram data
                                    296 ;--------------------------------------------------------
                                    297 	.area _DATA
                         0000F3AE   298 _g_LINL40	=	0xf3ae
                         0000F3AF   299 _g_LINL32	=	0xf3af
                         0000F3B0   300 _g_LINLEN	=	0xf3b0
                         0000F3B1   301 _g_CRTCNT	=	0xf3b1
                         0000F3B2   302 _g_CLMLST	=	0xf3b2
                         0000F3B3   303 _g_TXTNAM	=	0xf3b3
                         0000F3B5   304 _g_TXTCOL	=	0xf3b5
                         0000F3B7   305 _g_TXTCGP	=	0xf3b7
                         0000F3B9   306 _g_TXTATR	=	0xf3b9
                         0000F3BB   307 _g_TXTPAT	=	0xf3bb
                         0000F3BD   308 _g_T32NAM	=	0xf3bd
                         0000F3BF   309 _g_T32COL	=	0xf3bf
                         0000F3C1   310 _g_T32CGP	=	0xf3c1
                         0000F3C3   311 _g_T32ATR	=	0xf3c3
                         0000F3C5   312 _g_T32PAT	=	0xf3c5
                         0000F3C7   313 _g_GRPNAM	=	0xf3c7
                         0000F3C9   314 _g_GRPCOL	=	0xf3c9
                         0000F3CB   315 _g_GRPCGP	=	0xf3cb
                         0000F3CD   316 _g_GRPATR	=	0xf3cd
                         0000F3CF   317 _g_GRPPAT	=	0xf3cf
                         0000F3D1   318 _g_MLTNAM	=	0xf3d1
                         0000F3D3   319 _g_MLTCOL	=	0xf3d3
                         0000F3D5   320 _g_MLTCGP	=	0xf3d5
                         0000F3D7   321 _g_MLTATR	=	0xf3d7
                         0000F3D9   322 _g_MLTPAT	=	0xf3d9
                         0000F3DB   323 _g_CLIKSW	=	0xf3db
                         0000F3DC   324 _g_CSRY	=	0xf3dc
                         0000F3DD   325 _g_CSRX	=	0xf3dd
                         0000F3E9   326 _g_FORCLR	=	0xf3e9
                         0000F3EA   327 _g_BAKCLR	=	0xf3ea
                         0000F3EB   328 _g_BDRCLR	=	0xf3eb
                         0000F3F2   329 _g_ATRBYT	=	0xf3f2
                         0000F87F   330 _g_FNKSTR	=	0xf87f
                         0000F92A   331 _g_CLOC	=	0xf92a
                         0000F92C   332 _g_CMASK	=	0xf92c
                         0000FB02   333 _g_LOGOPR	=	0xfb02
                         0000FCB7   334 _g_GRPACX	=	0xfcb7
                         0000FCB9   335 _g_GRPACY	=	0xfcb9
                         0000FFFF   336 _g_SLTSL	=	0xffff
                                    337 ;--------------------------------------------------------
                                    338 ; ram data
                                    339 ;--------------------------------------------------------
                                    340 	.area _INITIALIZED
                                    341 ;--------------------------------------------------------
                                    342 ; absolute external ram data
                                    343 ;--------------------------------------------------------
                                    344 	.area _DABS (ABS)
                                    345 ;--------------------------------------------------------
                                    346 ; global & static initialisations
                                    347 ;--------------------------------------------------------
                                    348 	.area _HOME
                                    349 	.area _GSINIT
                                    350 	.area _GSFINAL
                                    351 	.area _GSINIT
                                    352 ;--------------------------------------------------------
                                    353 ; Home
                                    354 ;--------------------------------------------------------
                                    355 	.area _HOME
                                    356 	.area _HOME
                                    357 ;--------------------------------------------------------
                                    358 ; code
                                    359 ;--------------------------------------------------------
                                    360 	.area _SEG1
                                    361 ;E:\Dropbox\FAUSTO\SVILUPPI\MSX\CODE\C\MSXgl\projects\exsoccer/exsoccer_s1_b2.c:41: void TickTeamJoystick(u8 teamId, u8 direction){
                                    362 ;	---------------------------------
                                    363 ; Function TickTeamJoystick
                                    364 ; ---------------------------------
    00000000                        365 _TickTeamJoystick::
    00000000 DD E5            [15]  366 	push	ix
    00000002 DD 21 00 00      [14]  367 	ld	ix,#0
    00000006 DD 39            [15]  368 	add	ix,sp
    00000008 FD 21 C3 FF      [14]  369 	ld	iy, #-61
    0000000C FD 39            [15]  370 	add	iy, sp
    0000000E FD F9            [10]  371 	ld	sp, iy
    00000010 DD 77 FF         [19]  372 	ld	-1 (ix), a
    00000013 DD 75 FE         [19]  373 	ld	-2 (ix), l
                                    374 ;E:\Dropbox\FAUSTO\SVILUPPI\MSX\CODE\C\MSXgl\projects\exsoccer/exsoccer_s1_b2.c:44: if (g_MatchStatus == MATCH_NOT_STARTED || 
    00000016 3Ar00r00         [13]  375 	ld	a, (_g_MatchStatus+0)
    00000019 B7               [ 4]  376 	or	a, a
    0000001A CAr79r0D         [10]  377 	jp	Z,00259$
                                    378 ;E:\Dropbox\FAUSTO\SVILUPPI\MSX\CODE\C\MSXgl\projects\exsoccer/exsoccer_s1_b2.c:45: g_MatchStatus == MATCH_PLAYERS_PRESENTATION || 
                                    379 ;E:\Dropbox\FAUSTO\SVILUPPI\MSX\CODE\C\MSXgl\projects\exsoccer/exsoccer_s1_b2.c:46: g_MatchStatus == MATCH_AFTER_IN_GOAL || 
    0000001D 3Ar00r00         [13]  380 	ld	a,(_g_MatchStatus+0)
    00000020 FE 0B            [ 7]  381 	cp	a,#0x0b
    00000022 CAr79r0D         [10]  382 	jp	Z,00259$
                                    383 ;E:\Dropbox\FAUSTO\SVILUPPI\MSX\CODE\C\MSXgl\projects\exsoccer/exsoccer_s1_b2.c:47: g_MatchStatus == MATCH_BEFORE_CORNER_KICK || 
                                    384 ;E:\Dropbox\FAUSTO\SVILUPPI\MSX\CODE\C\MSXgl\projects\exsoccer/exsoccer_s1_b2.c:48: g_MatchStatus == MATCH_BEFORE_GOAL_KICK || 
    00000025 FE 06            [ 7]  385 	cp	a,#0x06
    00000027 CAr79r0D         [10]  386 	jp	Z,00259$
    0000002A FE 02            [ 7]  387 	cp	a,#0x02
    0000002C CAr79r0D         [10]  388 	jp	Z,00259$
                                    389 ;E:\Dropbox\FAUSTO\SVILUPPI\MSX\CODE\C\MSXgl\projects\exsoccer/exsoccer_s1_b2.c:49: g_MatchStatus == MATCH_BEFORE_THROW_IN ||
                                    390 ;E:\Dropbox\FAUSTO\SVILUPPI\MSX\CODE\C\MSXgl\projects\exsoccer/exsoccer_s1_b2.c:50: g_MatchStatus == MATCH_BEFORE_OFFSIDE) {
    0000002F FE 05            [ 7]  391 	cp	a,#0x05
    00000031 CAr79r0D         [10]  392 	jp	Z,00259$
    00000034 FE 03            [ 7]  393 	cp	a,#0x03
    00000036 CAr79r0D         [10]  394 	jp	Z,00259$
    00000039 D6 0E            [ 7]  395 	sub	a, #0x0e
                                    396 ;E:\Dropbox\FAUSTO\SVILUPPI\MSX\CODE\C\MSXgl\projects\exsoccer/exsoccer_s1_b2.c:51: return;
    0000003B CAr79r0D         [10]  397 	jp	Z,00259$
                                    398 ;E:\Dropbox\FAUSTO\SVILUPPI\MSX\CODE\C\MSXgl\projects\exsoccer/exsoccer_s1_b2.c:55: if(teamId==TEAM_1){
    0000003E DD 7E FF         [19]  399 	ld	a, -1 (ix)
    00000041 3D               [ 4]  400 	dec	a
    00000042 3E 01            [ 7]  401 	ld	a, #0x01
    00000044 28 01            [12]  402 	jr	Z, 00725$
    00000046 AF               [ 4]  403 	xor	a, a
    00000047                        404 00725$:
    00000047 DD 77 C3         [19]  405 	ld	-61 (ix), a
    0000004A B7               [ 4]  406 	or	a, a
    0000004B 28 13            [12]  407 	jr	Z, 00116$
                                    408 ;E:\Dropbox\FAUSTO\SVILUPPI\MSX\CODE\C\MSXgl\projects\exsoccer/exsoccer_s1_b2.c:56: if(g_Team1ActivePlayer==NO_VALUE){
    0000004D 3Ar00r00         [13]  409 	ld	a, (_g_Team1ActivePlayer+0)
    00000050 3C               [ 4]  410 	inc	a
    00000051 CAr79r0D         [10]  411 	jp	Z,00259$
                                    412 ;E:\Dropbox\FAUSTO\SVILUPPI\MSX\CODE\C\MSXgl\projects\exsoccer/exsoccer_s1_b2.c:57: return;
    00000054 C3r57r00         [10]  413 	jp	00110$
    00000057                        414 00110$:
                                    415 ;E:\Dropbox\FAUSTO\SVILUPPI\MSX\CODE\C\MSXgl\projects\exsoccer/exsoccer_s1_b2.c:60: playerId=g_Team1ActivePlayer;
    00000057 3Ar00r00         [13]  416 	ld	a, (_g_Team1ActivePlayer+0)
    0000005A DD 77 FD         [19]  417 	ld	-3 (ix), a
    0000005D C3r70r00         [10]  418 	jp	00117$
    00000060                        419 00116$:
                                    420 ;E:\Dropbox\FAUSTO\SVILUPPI\MSX\CODE\C\MSXgl\projects\exsoccer/exsoccer_s1_b2.c:64: if(g_Team2ActivePlayer==NO_VALUE){
    00000060 3Ar00r00         [13]  421 	ld	a, (_g_Team2ActivePlayer+0)
    00000063 3C               [ 4]  422 	inc	a
    00000064 CAr79r0D         [10]  423 	jp	Z,00259$
                                    424 ;E:\Dropbox\FAUSTO\SVILUPPI\MSX\CODE\C\MSXgl\projects\exsoccer/exsoccer_s1_b2.c:65: return;
    00000067 C3r6Ar00         [10]  425 	jp	00113$
    0000006A                        426 00113$:
                                    427 ;E:\Dropbox\FAUSTO\SVILUPPI\MSX\CODE\C\MSXgl\projects\exsoccer/exsoccer_s1_b2.c:68: playerId=g_Team2ActivePlayer;
    0000006A 3Ar00r00         [13]  428 	ld	a, (_g_Team2ActivePlayer+0)
    0000006D DD 77 FD         [19]  429 	ld	-3 (ix), a
    00000070                        430 00117$:
                                    431 ;E:\Dropbox\FAUSTO\SVILUPPI\MSX\CODE\C\MSXgl\projects\exsoccer/exsoccer_s1_b2.c:74: bool frameTriggerPressed = IsTeamJoystickTriggerPressed(teamId);
    00000070 DD 7E FF         [19]  432 	ld	a, -1 (ix)
    00000073 CDr00r00         [17]  433 	call	_IsTeamJoystickTriggerPressed
    00000076 DD 77 C4         [19]  434 	ld	-60 (ix), a
                                    435 ;E:\Dropbox\FAUSTO\SVILUPPI\MSX\CODE\C\MSXgl\projects\exsoccer/exsoccer_s1_b2.c:77: bool canSwitch = false;
    00000079 DD 36 FC 00      [19]  436 	ld	-4 (ix), #0x00
                                    437 ;E:\Dropbox\FAUSTO\SVILUPPI\MSX\CODE\C\MSXgl\projects\exsoccer/exsoccer_s1_b2.c:78: if (g_Ball.PossessionPlayerId == NO_VALUE) {
    0000007D 3Ar06r00         [13]  438 	ld	a, (#(_g_Ball + 6) + 0)
    00000080 FE FF            [ 7]  439 	cp	a, #0xff
    00000082 20 07            [12]  440 	jr	NZ, 00121$
                                    441 ;E:\Dropbox\FAUSTO\SVILUPPI\MSX\CODE\C\MSXgl\projects\exsoccer/exsoccer_s1_b2.c:79: canSwitch = true; // Always allow switch on loose ball
    00000084 DD 36 FC 01      [19]  442 	ld	-4 (ix), #0x01
    00000088 C3rA8r00         [10]  443 	jp	00122$
    0000008B                        444 00121$:
                                    445 ;E:\Dropbox\FAUSTO\SVILUPPI\MSX\CODE\C\MSXgl\projects\exsoccer/exsoccer_s1_b2.c:81: u8 ballOwner = g_Ball.PossessionPlayerId;
    0000008B 5F               [ 4]  446 	ld	e, a
                                    447 ;E:\Dropbox\FAUSTO\SVILUPPI\MSX\CODE\C\MSXgl\projects\exsoccer/exsoccer_s1_b2.c:82: if (g_Players[ballOwner].TeamId != teamId) {
    0000008C 01r00r00         [10]  448 	ld	bc, #_g_Players+0
    0000008F 16 00            [ 7]  449 	ld	d, #0x00
    00000091 6B               [ 4]  450 	ld	l, e
    00000092 62               [ 4]  451 	ld	h, d
    00000093 29               [11]  452 	add	hl, hl
    00000094 29               [11]  453 	add	hl, hl
    00000095 19               [11]  454 	add	hl, de
    00000096 29               [11]  455 	add	hl, hl
    00000097 29               [11]  456 	add	hl, hl
    00000098 19               [11]  457 	add	hl, de
    00000099 09               [11]  458 	add	hl, bc
    0000009A 11 09 00         [10]  459 	ld	de, #0x0009
    0000009D 19               [11]  460 	add	hl, de
    0000009E DD 7E FF         [19]  461 	ld	a,-1 (ix)
    000000A1 96               [ 7]  462 	sub	a,(hl)
    000000A2 28 04            [12]  463 	jr	Z, 00122$
                                    464 ;E:\Dropbox\FAUSTO\SVILUPPI\MSX\CODE\C\MSXgl\projects\exsoccer/exsoccer_s1_b2.c:83: canSwitch = true;
    000000A4 DD 36 FC 01      [19]  465 	ld	-4 (ix), #0x01
    000000A8                        466 00122$:
                                    467 ;E:\Dropbox\FAUSTO\SVILUPPI\MSX\CODE\C\MSXgl\projects\exsoccer/exsoccer_s1_b2.c:87: if (canSwitch) {
    000000A8 DD 7E FC         [19]  468 	ld	a, -4 (ix)
    000000AB B7               [ 4]  469 	or	a, a
    000000AC CArB5r02         [10]  470 	jp	Z, 00144$
                                    471 ;E:\Dropbox\FAUSTO\SVILUPPI\MSX\CODE\C\MSXgl\projects\exsoccer/exsoccer_s1_b2.c:90: bool forceSwitch = frameTriggerPressed;
    000000AF DD 7E C4         [19]  472 	ld	a, -60 (ix)
    000000B2 DD 77 F8         [19]  473 	ld	-8 (ix), a
                                    474 ;E:\Dropbox\FAUSTO\SVILUPPI\MSX\CODE\C\MSXgl\projects\exsoccer/exsoccer_s1_b2.c:94: bool inputActive = (direction != DIRECTION_NONE);
    000000B5 DD 7E FE         [19]  475 	ld	a, -2 (ix)
    000000B8 D6 01            [ 7]  476 	sub	a,#0x01
    000000BA 3E 00            [ 7]  477 	ld	a, #0x00
    000000BC 17               [ 4]  478 	rla
    000000BD DD 77 FC         [19]  479 	ld	-4 (ix), a
    000000C0 EE 01            [ 7]  480 	xor	a, #0x01
    000000C2 DD 77 FC         [19]  481 	ld	-4 (ix), a
                                    482 ;E:\Dropbox\FAUSTO\SVILUPPI\MSX\CODE\C\MSXgl\projects\exsoccer/exsoccer_s1_b2.c:96: if (!inputActive || forceSwitch) {
    000000C5 B7               [ 4]  483 	or	a, a
    000000C6 28 07            [12]  484 	jr	Z, 00140$
    000000C8 DD 7E C4         [19]  485 	ld	a, -60 (ix)
    000000CB B7               [ 4]  486 	or	a, a
    000000CC CArB5r02         [10]  487 	jp	Z, 00144$
    000000CF                        488 00140$:
                                    489 ;E:\Dropbox\FAUSTO\SVILUPPI\MSX\CODE\C\MSXgl\projects\exsoccer/exsoccer_s1_b2.c:98: u8 closestId = GetClosestPlayerToBall(teamId, NO_VALUE);
    000000CF 2E FF            [ 7]  490 	ld	l, #0xff
                                    491 ;	spillPairReg hl
                                    492 ;	spillPairReg hl
    000000D1 DD 7E FF         [19]  493 	ld	a, -1 (ix)
    000000D4 CDr00r00         [17]  494 	call	_GetClosestPlayerToBall
                                    495 ;E:\Dropbox\FAUSTO\SVILUPPI\MSX\CODE\C\MSXgl\projects\exsoccer/exsoccer_s1_b2.c:101: if (closestId != NO_VALUE && g_Players[closestId].Role == PLAYER_ROLE_GOALKEEPER) {
    000000D7 DD 77 F5         [19]  496 	ld	-11 (ix), a
    000000DA 3C               [ 4]  497 	inc	a
    000000DB 28 3D            [12]  498 	jr	Z, 00124$
    000000DD DD 4E F5         [19]  499 	ld	c, -11 (ix)
    000000E0 06 00            [ 7]  500 	ld	b, #0x00
    000000E2 69               [ 4]  501 	ld	l, c
    000000E3 60               [ 4]  502 	ld	h, b
    000000E4 29               [11]  503 	add	hl, hl
    000000E5 29               [11]  504 	add	hl, hl
    000000E6 09               [11]  505 	add	hl, bc
    000000E7 29               [11]  506 	add	hl, hl
    000000E8 29               [11]  507 	add	hl, hl
    000000E9 09               [11]  508 	add	hl, bc
    000000EA DD 75 F9         [19]  509 	ld	-7 (ix), l
    000000ED DD 74 FA         [19]  510 	ld	-6 (ix), h
    000000F0 3Er00            [ 7]  511 	ld	a, #<(_g_Players)
    000000F2 DD 86 F9         [19]  512 	add	a, -7 (ix)
    000000F5 DD 77 FB         [19]  513 	ld	-5 (ix), a
    000000F8 3Es00            [ 7]  514 	ld	a, #>(_g_Players)
    000000FA DD 8E FA         [19]  515 	adc	a, -6 (ix)
    000000FD DD 77 FC         [19]  516 	ld	-4 (ix), a
    00000100 DD 6E FB         [19]  517 	ld	l, -5 (ix)
    00000103 DD 66 FC         [19]  518 	ld	h, -4 (ix)
    00000106 11 0D 00         [10]  519 	ld	de, #0x000d
    00000109 19               [11]  520 	add	hl, de
    0000010A 7E               [ 7]  521 	ld	a, (hl)
    0000010B B7               [ 4]  522 	or	a, a
    0000010C 20 0C            [12]  523 	jr	NZ, 00124$
                                    524 ;E:\Dropbox\FAUSTO\SVILUPPI\MSX\CODE\C\MSXgl\projects\exsoccer/exsoccer_s1_b2.c:103: closestId = GetClosestPlayerToBall(teamId, closestId);
    0000010E DD 6E F5         [19]  525 	ld	l, -11 (ix)
                                    526 ;	spillPairReg hl
                                    527 ;	spillPairReg hl
    00000111 DD 7E FF         [19]  528 	ld	a, -1 (ix)
    00000114 CDr00r00         [17]  529 	call	_GetClosestPlayerToBall
    00000117 DD 77 F5         [19]  530 	ld	-11 (ix), a
    0000011A                        531 00124$:
                                    532 ;E:\Dropbox\FAUSTO\SVILUPPI\MSX\CODE\C\MSXgl\projects\exsoccer/exsoccer_s1_b2.c:106: if (closestId != playerId && closestId != NO_VALUE) {
    0000011A DD 7E F5         [19]  533 	ld	a, -11 (ix)
    0000011D DD 96 FD         [19]  534 	sub	a, -3 (ix)
    00000120 CArB5r02         [10]  535 	jp	Z,00144$
    00000123 DD 7E F5         [19]  536 	ld	a, -11 (ix)
    00000126 3C               [ 4]  537 	inc	a
    00000127 CArB5r02         [10]  538 	jp	Z,00144$
                                    539 ;E:\Dropbox\FAUSTO\SVILUPPI\MSX\CODE\C\MSXgl\projects\exsoccer/exsoccer_s1_b2.c:108: if (forceSwitch) {
    0000012A DD 7E F8         [19]  540 	ld	a, -8 (ix)
    0000012D B7               [ 4]  541 	or	a, a
    0000012E 28 22            [12]  542 	jr	Z, 00135$
                                    543 ;E:\Dropbox\FAUSTO\SVILUPPI\MSX\CODE\C\MSXgl\projects\exsoccer/exsoccer_s1_b2.c:110: if (teamId == TEAM_1) g_Team1ActivePlayer = closestId;
    00000130 DD 7E C3         [19]  544 	ld	a, -61 (ix)
    00000133 B7               [ 4]  545 	or	a, a
    00000134 28 09            [12]  546 	jr	Z, 00127$
    00000136 DD 7E F5         [19]  547 	ld	a, -11 (ix)
    00000139 32r00r00         [13]  548 	ld	(_g_Team1ActivePlayer+0), a
    0000013C C3r45r01         [10]  549 	jp	00128$
    0000013F                        550 00127$:
                                    551 ;E:\Dropbox\FAUSTO\SVILUPPI\MSX\CODE\C\MSXgl\projects\exsoccer/exsoccer_s1_b2.c:111: else g_Team2ActivePlayer = closestId;
    0000013F DD 7E F5         [19]  552 	ld	a, -11 (ix)
    00000142 32r00r00         [13]  553 	ld	(_g_Team2ActivePlayer+0), a
    00000145                        554 00128$:
                                    555 ;E:\Dropbox\FAUSTO\SVILUPPI\MSX\CODE\C\MSXgl\projects\exsoccer/exsoccer_s1_b2.c:112: playerId = closestId; 
    00000145 DD 7E F5         [19]  556 	ld	a, -11 (ix)
    00000148 DD 77 FD         [19]  557 	ld	-3 (ix), a
                                    558 ;E:\Dropbox\FAUSTO\SVILUPPI\MSX\CODE\C\MSXgl\projects\exsoccer/exsoccer_s1_b2.c:115: frameTriggerPressed = false;
    0000014B DD 36 C4 00      [19]  559 	ld	-60 (ix), #0x00
    0000014F C3rB5r02         [10]  560 	jp	00144$
    00000152                        561 00135$:
                                    562 ;E:\Dropbox\FAUSTO\SVILUPPI\MSX\CODE\C\MSXgl\projects\exsoccer/exsoccer_s1_b2.c:120: u8 histThreshold = (g_Ball.PossessionPlayerId == NO_VALUE) ? 10 : 30;
    00000152 3Ar06r00         [13]  563 	ld	a, (#(_g_Ball + 6) + 0)
    00000155 3C               [ 4]  564 	inc	a
    00000156 20 0B            [12]  565 	jr	NZ, 00261$
    00000158 DD 36 FB 0A      [19]  566 	ld	-5 (ix), #0x0a
    0000015C DD 36 FC 00      [19]  567 	ld	-4 (ix), #0
    00000160 C3r6Br01         [10]  568 	jp	00262$
    00000163                        569 00261$:
    00000163 DD 36 FB 1E      [19]  570 	ld	-5 (ix), #0x1e
    00000167 DD 36 FC 00      [19]  571 	ld	-4 (ix), #0
    0000016B                        572 00262$:
    0000016B DD 7E FB         [19]  573 	ld	a, -5 (ix)
    0000016E DD 77 F6         [19]  574 	ld	-10 (ix), a
                                    575 ;E:\Dropbox\FAUSTO\SVILUPPI\MSX\CODE\C\MSXgl\projects\exsoccer/exsoccer_s1_b2.c:123: u16 distX_Curr = (g_Players[playerId].X > g_Ball.X) ? (g_Players[playerId].X - g_Ball.X) : (g_Ball.X - g_Players[playerId].X);
    00000171 DD 4E FD         [19]  576 	ld	c, -3 (ix)
    00000174 06 00            [ 7]  577 	ld	b, #0x00
    00000176 69               [ 4]  578 	ld	l, c
    00000177 60               [ 4]  579 	ld	h, b
    00000178 29               [11]  580 	add	hl, hl
    00000179 29               [11]  581 	add	hl, hl
    0000017A 09               [11]  582 	add	hl, bc
    0000017B 29               [11]  583 	add	hl, hl
    0000017C 29               [11]  584 	add	hl, hl
    0000017D 09               [11]  585 	add	hl, bc
    0000017E DD 75 FB         [19]  586 	ld	-5 (ix), l
    00000181 DD 74 FC         [19]  587 	ld	-4 (ix), h
    00000184 3Er00            [ 7]  588 	ld	a, #<(_g_Players)
    00000186 DD 86 FB         [19]  589 	add	a, -5 (ix)
    00000189 DD 77 F7         [19]  590 	ld	-9 (ix), a
    0000018C 3Es00            [ 7]  591 	ld	a, #>(_g_Players)
    0000018E DD 8E FC         [19]  592 	adc	a, -4 (ix)
    00000191 DD 77 F8         [19]  593 	ld	-8 (ix), a
    00000194 DD 7E F7         [19]  594 	ld	a, -9 (ix)
    00000197 DD 77 FB         [19]  595 	ld	-5 (ix), a
    0000019A DD 7E F8         [19]  596 	ld	a, -8 (ix)
    0000019D DD 77 FC         [19]  597 	ld	-4 (ix), a
    000001A0 DD 6E FB         [19]  598 	ld	l, -5 (ix)
    000001A3 DD 66 FC         [19]  599 	ld	h, -4 (ix)
    000001A6 23               [ 6]  600 	inc	hl
    000001A7 23               [ 6]  601 	inc	hl
    000001A8 7E               [ 7]  602 	ld	a, (hl)
    000001A9 DD 77 F3         [19]  603 	ld	-13 (ix), a
    000001AC 23               [ 6]  604 	inc	hl
    000001AD 7E               [ 7]  605 	ld	a, (hl)
    000001AE DD 77 F4         [19]  606 	ld	-12 (ix), a
    000001B1 21r02r00         [10]  607 	ld	hl, #_g_Ball + 2
    000001B4 7E               [ 7]  608 	ld	a, (hl)
    000001B5 DD 77 F9         [19]  609 	ld	-7 (ix), a
    000001B8 23               [ 6]  610 	inc	hl
    000001B9 7E               [ 7]  611 	ld	a, (hl)
    000001BA DD 77 FA         [19]  612 	ld	-6 (ix), a
    000001BD DD 7E F9         [19]  613 	ld	a, -7 (ix)
    000001C0 DD 96 F3         [19]  614 	sub	a, -13 (ix)
    000001C3 DD 7E FA         [19]  615 	ld	a, -6 (ix)
    000001C6 DD 9E F4         [19]  616 	sbc	a, -12 (ix)
    000001C9 30 15            [12]  617 	jr	NC, 00263$
    000001CB DD 7E F3         [19]  618 	ld	a, -13 (ix)
    000001CE DD 96 F9         [19]  619 	sub	a, -7 (ix)
    000001D1 DD 77 FB         [19]  620 	ld	-5 (ix), a
    000001D4 DD 7E F4         [19]  621 	ld	a, -12 (ix)
    000001D7 DD 9E FA         [19]  622 	sbc	a, -6 (ix)
    000001DA DD 77 FC         [19]  623 	ld	-4 (ix), a
    000001DD C3rF2r01         [10]  624 	jp	00264$
    000001E0                        625 00263$:
    000001E0 DD 7E F9         [19]  626 	ld	a, -7 (ix)
    000001E3 DD 96 F3         [19]  627 	sub	a, -13 (ix)
    000001E6 DD 77 FB         [19]  628 	ld	-5 (ix), a
    000001E9 DD 7E FA         [19]  629 	ld	a, -6 (ix)
    000001EC DD 9E F4         [19]  630 	sbc	a, -12 (ix)
    000001EF DD 77 FC         [19]  631 	ld	-4 (ix), a
    000001F2                        632 00264$:
                                    633 ;E:\Dropbox\FAUSTO\SVILUPPI\MSX\CODE\C\MSXgl\projects\exsoccer/exsoccer_s1_b2.c:124: u16 distY_Curr = (g_Players[playerId].Y > g_Ball.Y) ? (g_Players[playerId].Y - g_Ball.Y) : (g_Ball.Y - g_Players[playerId].Y);
    000001F2 DD 6E F7         [19]  634 	ld	l, -9 (ix)
    000001F5 DD 66 F8         [19]  635 	ld	h, -8 (ix)
    000001F8 4E               [ 7]  636 	ld	c, (hl)
    000001F9 23               [ 6]  637 	inc	hl
    000001FA 46               [ 7]  638 	ld	b, (hl)
    000001FB ED 5Br00r00      [20]  639 	ld	de, (#_g_Ball + 0)
    000001FF 7B               [ 4]  640 	ld	a, e
    00000200 91               [ 4]  641 	sub	a, c
    00000201 7A               [ 4]  642 	ld	a, d
    00000202 98               [ 4]  643 	sbc	a, b
    00000203 30 08            [12]  644 	jr	NC, 00265$
    00000205 79               [ 4]  645 	ld	a, c
    00000206 93               [ 4]  646 	sub	a, e
    00000207 4F               [ 4]  647 	ld	c, a
    00000208 78               [ 4]  648 	ld	a, b
    00000209 9A               [ 4]  649 	sbc	a, d
    0000020A C3r12r02         [10]  650 	jp	00266$
    0000020D                        651 00265$:
    0000020D 7B               [ 4]  652 	ld	a, e
    0000020E 91               [ 4]  653 	sub	a, c
    0000020F 4F               [ 4]  654 	ld	c, a
    00000210 7A               [ 4]  655 	ld	a, d
    00000211 98               [ 4]  656 	sbc	a, b
    00000212                        657 00266$:
    00000212 47               [ 4]  658 	ld	b, a
                                    659 ;E:\Dropbox\FAUSTO\SVILUPPI\MSX\CODE\C\MSXgl\projects\exsoccer/exsoccer_s1_b2.c:125: u16 distCurr = distX_Curr + distY_Curr;
    00000213 DD 6E FB         [19]  660 	ld	l, -5 (ix)
    00000216 DD 66 FC         [19]  661 	ld	h, -4 (ix)
    00000219 09               [11]  662 	add	hl, bc
    0000021A DD 75 F7         [19]  663 	ld	-9 (ix), l
    0000021D DD 74 F8         [19]  664 	ld	-8 (ix), h
                                    665 ;E:\Dropbox\FAUSTO\SVILUPPI\MSX\CODE\C\MSXgl\projects\exsoccer/exsoccer_s1_b2.c:127: u16 distX_New = (g_Players[closestId].X > g_Ball.X) ? (g_Players[closestId].X - g_Ball.X) : (g_Ball.X - g_Players[closestId].X);
    00000220 DD 4E F5         [19]  666 	ld	c, -11 (ix)
    00000223 06 00            [ 7]  667 	ld	b, #0x00
    00000225 69               [ 4]  668 	ld	l, c
    00000226 60               [ 4]  669 	ld	h, b
    00000227 29               [11]  670 	add	hl, hl
    00000228 29               [11]  671 	add	hl, hl
    00000229 09               [11]  672 	add	hl, bc
    0000022A 29               [11]  673 	add	hl, hl
    0000022B 29               [11]  674 	add	hl, hl
    0000022C 09               [11]  675 	add	hl, bc
    0000022D 01r00r00         [10]  676 	ld	bc,#_g_Players
    00000230 09               [11]  677 	add	hl,bc
                                    678 ;	spillPairReg hl
                                    679 ;	spillPairReg hl
    00000231 DD 75 FB         [19]  680 	ld	-5 (ix), l
    00000234 DD 74 FC         [19]  681 	ld	-4 (ix), h
                                    682 ;	spillPairReg hl
                                    683 ;	spillPairReg hl
    00000237 23               [ 6]  684 	inc	hl
    00000238 23               [ 6]  685 	inc	hl
    00000239 4E               [ 7]  686 	ld	c, (hl)
    0000023A 23               [ 6]  687 	inc	hl
    0000023B 46               [ 7]  688 	ld	b, (hl)
    0000023C DD 7E F9         [19]  689 	ld	a, -7 (ix)
    0000023F 91               [ 4]  690 	sub	a, c
    00000240 DD 7E FA         [19]  691 	ld	a, -6 (ix)
    00000243 98               [ 4]  692 	sbc	a, b
    00000244 30 0C            [12]  693 	jr	NC, 00267$
    00000246 79               [ 4]  694 	ld	a, c
    00000247 DD 96 F9         [19]  695 	sub	a, -7 (ix)
    0000024A 4F               [ 4]  696 	ld	c, a
    0000024B 78               [ 4]  697 	ld	a, b
    0000024C DD 9E FA         [19]  698 	sbc	a, -6 (ix)
    0000024F C3r5Br02         [10]  699 	jp	00268$
    00000252                        700 00267$:
    00000252 DD 7E F9         [19]  701 	ld	a, -7 (ix)
    00000255 91               [ 4]  702 	sub	a, c
    00000256 4F               [ 4]  703 	ld	c, a
    00000257 DD 7E FA         [19]  704 	ld	a, -6 (ix)
    0000025A 98               [ 4]  705 	sbc	a, b
    0000025B                        706 00268$:
    0000025B DD 71 F9         [19]  707 	ld	-7 (ix), c
    0000025E DD 77 FA         [19]  708 	ld	-6 (ix), a
                                    709 ;E:\Dropbox\FAUSTO\SVILUPPI\MSX\CODE\C\MSXgl\projects\exsoccer/exsoccer_s1_b2.c:128: u16 distY_New = (g_Players[closestId].Y > g_Ball.Y) ? (g_Players[closestId].Y - g_Ball.Y) : (g_Ball.Y - g_Players[closestId].Y);
    00000261 DD 6E FB         [19]  710 	ld	l, -5 (ix)
    00000264 DD 66 FC         [19]  711 	ld	h, -4 (ix)
    00000267 4E               [ 7]  712 	ld	c, (hl)
    00000268 23               [ 6]  713 	inc	hl
    00000269 46               [ 7]  714 	ld	b, (hl)
    0000026A 7B               [ 4]  715 	ld	a, e
    0000026B 91               [ 4]  716 	sub	a, c
    0000026C 7A               [ 4]  717 	ld	a, d
    0000026D 98               [ 4]  718 	sbc	a, b
    0000026E 30 08            [12]  719 	jr	NC, 00269$
    00000270 79               [ 4]  720 	ld	a, c
    00000271 93               [ 4]  721 	sub	a, e
    00000272 4F               [ 4]  722 	ld	c, a
    00000273 78               [ 4]  723 	ld	a, b
    00000274 9A               [ 4]  724 	sbc	a, d
    00000275 C3r7Dr02         [10]  725 	jp	00270$
    00000278                        726 00269$:
    00000278 7B               [ 4]  727 	ld	a, e
    00000279 91               [ 4]  728 	sub	a, c
    0000027A 4F               [ 4]  729 	ld	c, a
    0000027B 7A               [ 4]  730 	ld	a, d
    0000027C 98               [ 4]  731 	sbc	a, b
    0000027D                        732 00270$:
    0000027D 47               [ 4]  733 	ld	b, a
                                    734 ;E:\Dropbox\FAUSTO\SVILUPPI\MSX\CODE\C\MSXgl\projects\exsoccer/exsoccer_s1_b2.c:129: u16 distNew = distX_New + distY_New;
    0000027E DD 6E F9         [19]  735 	ld	l, -7 (ix)
    00000281 DD 66 FA         [19]  736 	ld	h, -6 (ix)
    00000284 09               [11]  737 	add	hl, bc
    00000285 EB               [ 4]  738 	ex	de, hl
                                    739 ;E:\Dropbox\FAUSTO\SVILUPPI\MSX\CODE\C\MSXgl\projects\exsoccer/exsoccer_s1_b2.c:131: if (distNew < (distCurr - histThreshold)) {
    00000286 DD 4E F6         [19]  740 	ld	c, -10 (ix)
    00000289 06 00            [ 7]  741 	ld	b, #0x00
    0000028B DD 6E F7         [19]  742 	ld	l, -9 (ix)
                                    743 ;	spillPairReg hl
                                    744 ;	spillPairReg hl
    0000028E DD 66 F8         [19]  745 	ld	h, -8 (ix)
                                    746 ;	spillPairReg hl
                                    747 ;	spillPairReg hl
    00000291 BF               [ 4]  748 	cp	a, a
    00000292 ED 42            [15]  749 	sbc	hl, bc
    00000294 7B               [ 4]  750 	ld	a, e
    00000295 95               [ 4]  751 	sub	a, l
    00000296 7A               [ 4]  752 	ld	a, d
    00000297 9C               [ 4]  753 	sbc	a, h
    00000298 30 1B            [12]  754 	jr	NC, 00144$
                                    755 ;E:\Dropbox\FAUSTO\SVILUPPI\MSX\CODE\C\MSXgl\projects\exsoccer/exsoccer_s1_b2.c:132: if (teamId == TEAM_1) g_Team1ActivePlayer = closestId;
    0000029A DD 7E C3         [19]  756 	ld	a, -61 (ix)
    0000029D B7               [ 4]  757 	or	a, a
    0000029E 28 09            [12]  758 	jr	Z, 00130$
    000002A0 DD 7E F5         [19]  759 	ld	a, -11 (ix)
    000002A3 32r00r00         [13]  760 	ld	(_g_Team1ActivePlayer+0), a
    000002A6 C3rAFr02         [10]  761 	jp	00131$
    000002A9                        762 00130$:
                                    763 ;E:\Dropbox\FAUSTO\SVILUPPI\MSX\CODE\C\MSXgl\projects\exsoccer/exsoccer_s1_b2.c:133: else g_Team2ActivePlayer = closestId;
    000002A9 DD 7E F5         [19]  764 	ld	a, -11 (ix)
    000002AC 32r00r00         [13]  765 	ld	(_g_Team2ActivePlayer+0), a
    000002AF                        766 00131$:
                                    767 ;E:\Dropbox\FAUSTO\SVILUPPI\MSX\CODE\C\MSXgl\projects\exsoccer/exsoccer_s1_b2.c:134: playerId = closestId;
    000002AF DD 7E F5         [19]  768 	ld	a, -11 (ix)
    000002B2 DD 77 FD         [19]  769 	ld	-3 (ix), a
    000002B5                        770 00144$:
                                    771 ;E:\Dropbox\FAUSTO\SVILUPPI\MSX\CODE\C\MSXgl\projects\exsoccer/exsoccer_s1_b2.c:141: if (g_Players[playerId].Status == PLAYER_STATUS_POSITIONED) return;
    000002B5 01r00r00         [10]  772 	ld	bc, #_g_Players+0
    000002B8 DD 5E FD         [19]  773 	ld	e, -3 (ix)
    000002BB 16 00            [ 7]  774 	ld	d, #0x00
    000002BD 6B               [ 4]  775 	ld	l, e
    000002BE 62               [ 4]  776 	ld	h, d
    000002BF 29               [11]  777 	add	hl, hl
    000002C0 29               [11]  778 	add	hl, hl
    000002C1 19               [11]  779 	add	hl, de
    000002C2 29               [11]  780 	add	hl, hl
    000002C3 29               [11]  781 	add	hl, hl
    000002C4 19               [11]  782 	add	hl, de
    000002C5 09               [11]  783 	add	hl, bc
    000002C6 DD 75 F1         [19]  784 	ld	-15 (ix), l
    000002C9 DD 74 F2         [19]  785 	ld	-14 (ix), h
    000002CC DD 7E F1         [19]  786 	ld	a, -15 (ix)
    000002CF C6 12            [ 7]  787 	add	a, #0x12
    000002D1 DD 77 F3         [19]  788 	ld	-13 (ix), a
    000002D4 DD 7E F2         [19]  789 	ld	a, -14 (ix)
    000002D7 CE 00            [ 7]  790 	adc	a, #0x00
    000002D9 DD 77 F4         [19]  791 	ld	-12 (ix), a
    000002DC DD 6E F3         [19]  792 	ld	l, -13 (ix)
    000002DF DD 66 F4         [19]  793 	ld	h, -12 (ix)
    000002E2 4E               [ 7]  794 	ld	c, (hl)
    000002E3 23               [ 6]  795 	inc	hl
    000002E4 46               [ 7]  796 	ld	b, (hl)
    000002E5 79               [ 4]  797 	ld	a, c
    000002E6 D6 04            [ 7]  798 	sub	a, #0x04
    000002E8 B0               [ 4]  799 	or	a, b
    000002E9 CAr79r0D         [10]  800 	jp	Z,00259$
    000002EC C3rEFr02         [10]  801 	jp	00146$
    000002EF                        802 00146$:
                                    803 ;E:\Dropbox\FAUSTO\SVILUPPI\MSX\CODE\C\MSXgl\projects\exsoccer/exsoccer_s1_b2.c:148: if (g_ActionCooldown > 0) frameTriggerPressed = false;
    000002EF 3Ar00r00         [13]  804 	ld	a, (_g_ActionCooldown+0)
    000002F2 B7               [ 4]  805 	or	a, a
    000002F3 28 04            [12]  806 	jr	Z, 00148$
    000002F5 DD 36 C4 00      [19]  807 	ld	-60 (ix), #0x00
    000002F9                        808 00148$:
                                    809 ;E:\Dropbox\FAUSTO\SVILUPPI\MSX\CODE\C\MSXgl\projects\exsoccer/exsoccer_s1_b2.c:151: if (frameTriggerPressed && g_Ball.PossessionPlayerId == NO_VALUE) {
    000002F9 DD 7E C4         [19]  810 	ld	a, -60 (ix)
    000002FC B7               [ 4]  811 	or	a, a
    000002FD CArC4r03         [10]  812 	jp	Z, 00155$
    00000300 3Ar06r00         [13]  813 	ld	a, (#(_g_Ball + 6) + 0)
    00000303 3C               [ 4]  814 	inc	a
    00000304 C2rC4r03         [10]  815 	jp	NZ,00155$
                                    816 ;E:\Dropbox\FAUSTO\SVILUPPI\MSX\CODE\C\MSXgl\projects\exsoccer/exsoccer_s1_b2.c:152: i16 dx = (i16)g_Players[playerId].X - (i16)g_Ball.X;
    00000307 DD 7E F1         [19]  817 	ld	a, -15 (ix)
    0000030A DD 77 FB         [19]  818 	ld	-5 (ix), a
    0000030D DD 7E F2         [19]  819 	ld	a, -14 (ix)
    00000310 DD 77 FC         [19]  820 	ld	-4 (ix), a
    00000313 DD 6E FB         [19]  821 	ld	l, -5 (ix)
    00000316 DD 66 FC         [19]  822 	ld	h, -4 (ix)
    00000319 23               [ 6]  823 	inc	hl
    0000031A 23               [ 6]  824 	inc	hl
    0000031B 7E               [ 7]  825 	ld	a, (hl)
    0000031C DD 77 FB         [19]  826 	ld	-5 (ix), a
    0000031F 23               [ 6]  827 	inc	hl
    00000320 7E               [ 7]  828 	ld	a, (hl)
    00000321 DD 77 FC         [19]  829 	ld	-4 (ix), a
    00000324 2Ar02r00         [16]  830 	ld	hl, (#_g_Ball + 2)
    00000327 DD 7E FB         [19]  831 	ld	a, -5 (ix)
    0000032A 95               [ 4]  832 	sub	a, l
    0000032B 4F               [ 4]  833 	ld	c, a
    0000032C DD 7E FC         [19]  834 	ld	a, -4 (ix)
    0000032F 9C               [ 4]  835 	sbc	a, h
    00000330 47               [ 4]  836 	ld	b, a
    00000331 DD 71 F5         [19]  837 	ld	-11 (ix), c
    00000334 DD 70 F6         [19]  838 	ld	-10 (ix), b
                                    839 ;E:\Dropbox\FAUSTO\SVILUPPI\MSX\CODE\C\MSXgl\projects\exsoccer/exsoccer_s1_b2.c:153: i16 dy = (i16)g_Players[playerId].Y - (i16)g_Ball.Y;
    00000337 DD 6E F1         [19]  840 	ld	l, -15 (ix)
    0000033A DD 66 F2         [19]  841 	ld	h, -14 (ix)
    0000033D 7E               [ 7]  842 	ld	a, (hl)
    0000033E DD 77 FB         [19]  843 	ld	-5 (ix), a
    00000341 23               [ 6]  844 	inc	hl
    00000342 7E               [ 7]  845 	ld	a, (hl)
    00000343 DD 77 FC         [19]  846 	ld	-4 (ix), a
    00000346 DD 7E FB         [19]  847 	ld	a, -5 (ix)
    00000349 DD 77 F7         [19]  848 	ld	-9 (ix), a
    0000034C DD 7E FC         [19]  849 	ld	a, -4 (ix)
    0000034F DD 77 F8         [19]  850 	ld	-8 (ix), a
    00000352 21r00r00         [10]  851 	ld	hl, #_g_Ball
    00000355 7E               [ 7]  852 	ld	a, (hl)
    00000356 DD 77 FB         [19]  853 	ld	-5 (ix), a
    00000359 23               [ 6]  854 	inc	hl
    0000035A 7E               [ 7]  855 	ld	a, (hl)
    0000035B DD 77 FC         [19]  856 	ld	-4 (ix), a
    0000035E DD 7E FB         [19]  857 	ld	a, -5 (ix)
    00000361 DD 77 F9         [19]  858 	ld	-7 (ix), a
    00000364 DD 7E FC         [19]  859 	ld	a, -4 (ix)
    00000367 DD 77 FA         [19]  860 	ld	-6 (ix), a
    0000036A DD 7E F7         [19]  861 	ld	a, -9 (ix)
    0000036D DD 96 F9         [19]  862 	sub	a, -7 (ix)
    00000370 DD 77 FB         [19]  863 	ld	-5 (ix), a
    00000373 DD 7E F8         [19]  864 	ld	a, -8 (ix)
    00000376 DD 9E FA         [19]  865 	sbc	a, -6 (ix)
    00000379 DD 77 FC         [19]  866 	ld	-4 (ix), a
    0000037C DD 4E FB         [19]  867 	ld	c, -5 (ix)
    0000037F DD 46 FC         [19]  868 	ld	b, -4 (ix)
                                    869 ;E:\Dropbox\FAUSTO\SVILUPPI\MSX\CODE\C\MSXgl\projects\exsoccer/exsoccer_s1_b2.c:154: if (dx > -16 && dx < 16 && dy > -16 && dy < 16) {
    00000382 3E F0            [ 7]  870 	ld	a, #0xf0
    00000384 DD BE F5         [19]  871 	cp	a, -11 (ix)
    00000387 3E FF            [ 7]  872 	ld	a, #0xff
    00000389 DD 9E F6         [19]  873 	sbc	a, -10 (ix)
    0000038C E2r91r03         [10]  874 	jp	PO, 00742$
    0000038F EE 80            [ 7]  875 	xor	a, #0x80
    00000391                        876 00742$:
    00000391 F2rC4r03         [10]  877 	jp	P, 00155$
    00000394 DD 5E F5         [19]  878 	ld	e, -11 (ix)
    00000397 DD 56 F6         [19]  879 	ld	d, -10 (ix)
    0000039A 7B               [ 4]  880 	ld	a, e
    0000039B D6 10            [ 7]  881 	sub	a, #0x10
    0000039D 7A               [ 4]  882 	ld	a, d
    0000039E 17               [ 4]  883 	rla
    0000039F 3F               [ 4]  884 	ccf
    000003A0 1F               [ 4]  885 	rra
    000003A1 DE 80            [ 7]  886 	sbc	a, #0x80
    000003A3 30 1F            [12]  887 	jr	NC, 00155$
    000003A5 3E F0            [ 7]  888 	ld	a, #0xf0
    000003A7 B9               [ 4]  889 	cp	a, c
    000003A8 3E FF            [ 7]  890 	ld	a, #0xff
    000003AA 98               [ 4]  891 	sbc	a, b
    000003AB E2rB0r03         [10]  892 	jp	PO, 00743$
    000003AE EE 80            [ 7]  893 	xor	a, #0x80
    000003B0                        894 00743$:
    000003B0 F2rC4r03         [10]  895 	jp	P, 00155$
    000003B3 79               [ 4]  896 	ld	a, c
    000003B4 D6 10            [ 7]  897 	sub	a, #0x10
    000003B6 78               [ 4]  898 	ld	a, b
    000003B7 17               [ 4]  899 	rla
    000003B8 3F               [ 4]  900 	ccf
    000003B9 1F               [ 4]  901 	rra
    000003BA DE 80            [ 7]  902 	sbc	a, #0x80
    000003BC 30 06            [12]  903 	jr	NC, 00155$
                                    904 ;E:\Dropbox\FAUSTO\SVILUPPI\MSX\CODE\C\MSXgl\projects\exsoccer/exsoccer_s1_b2.c:155: PutBallOnPlayerFeet(playerId);
    000003BE DD 7E FD         [19]  905 	ld	a, -3 (ix)
    000003C1 CDrC5r27         [17]  906 	call	_PutBallOnPlayerFeet
    000003C4                        907 00155$:
                                    908 ;E:\Dropbox\FAUSTO\SVILUPPI\MSX\CODE\C\MSXgl\projects\exsoccer/exsoccer_s1_b2.c:159: if(g_Ball.PossessionPlayerId==playerId){
    000003C4 21r06r00         [10]  909 	ld	hl, #(_g_Ball + 6)
    000003C7 DD 7E FD         [19]  910 	ld	a,-3 (ix)
    000003CA 96               [ 7]  911 	sub	a,(hl)
    000003CB C2r8Ar0B         [10]  912 	jp	NZ,00257$
                                    913 ;E:\Dropbox\FAUSTO\SVILUPPI\MSX\CODE\C\MSXgl\projects\exsoccer/exsoccer_s1_b2.c:164: if (frameTriggerPressed) {
    000003CE DD 7E C4         [19]  914 	ld	a, -60 (ix)
    000003D1 B7               [ 4]  915 	or	a, a
    000003D2 CAr34r05         [10]  916 	jp	Z, 00200$
                                    917 ;E:\Dropbox\FAUSTO\SVILUPPI\MSX\CODE\C\MSXgl\projects\exsoccer/exsoccer_s1_b2.c:168: if (g_MatchStatus == MATCH_IN_ACTION) {
    000003D5 3Ar00r00         [13]  918 	ld	a, (_g_MatchStatus+0)
    000003D8 D6 0C            [ 7]  919 	sub	a, #0x0c
    000003DA C2r0Br05         [10]  920 	jp	NZ,00194$
                                    921 ;E:\Dropbox\FAUSTO\SVILUPPI\MSX\CODE\C\MSXgl\projects\exsoccer/exsoccer_s1_b2.c:170: if (g_ActionCooldown > 0) {
    000003DD 3Ar00r00         [13]  922 	ld	a, (_g_ActionCooldown+0)
    000003E0 B7               [ 4]  923 	or	a, a
    000003E1 C2r0Br05         [10]  924 	jp	NZ, 00194$
                                    925 ;E:\Dropbox\FAUSTO\SVILUPPI\MSX\CODE\C\MSXgl\projects\exsoccer/exsoccer_s1_b2.c:173: bool isShooting = false;
    000003E4 DD 36 F6 00      [19]  926 	ld	-10 (ix), #0x00
                                    927 ;E:\Dropbox\FAUSTO\SVILUPPI\MSX\CODE\C\MSXgl\projects\exsoccer/exsoccer_s1_b2.c:180: u16 plY = g_Players[playerId].Y;
    000003E8 DD 6E F1         [19]  928 	ld	l, -15 (ix)
    000003EB DD 66 F2         [19]  929 	ld	h, -14 (ix)
    000003EE 7E               [ 7]  930 	ld	a, (hl)
    000003EF DD 77 F7         [19]  931 	ld	-9 (ix), a
    000003F2 23               [ 6]  932 	inc	hl
    000003F3 7E               [ 7]  933 	ld	a, (hl)
    000003F4 DD 77 F8         [19]  934 	ld	-8 (ix), a
                                    935 ;E:\Dropbox\FAUSTO\SVILUPPI\MSX\CODE\C\MSXgl\projects\exsoccer/exsoccer_s1_b2.c:181: u16 plX = g_Players[playerId].X;
    000003F7 DD 7E F1         [19]  936 	ld	a, -15 (ix)
    000003FA DD 77 FB         [19]  937 	ld	-5 (ix), a
    000003FD DD 7E F2         [19]  938 	ld	a, -14 (ix)
    00000400 DD 77 FC         [19]  939 	ld	-4 (ix), a
    00000403 DD 6E FB         [19]  940 	ld	l, -5 (ix)
    00000406 DD 66 FC         [19]  941 	ld	h, -4 (ix)
    00000409 23               [ 6]  942 	inc	hl
    0000040A 23               [ 6]  943 	inc	hl
    0000040B 7E               [ 7]  944 	ld	a, (hl)
    0000040C DD 77 F9         [19]  945 	ld	-7 (ix), a
    0000040F 23               [ 6]  946 	inc	hl
    00000410 7E               [ 7]  947 	ld	a, (hl)
    00000411 DD 77 FA         [19]  948 	ld	-6 (ix), a
                                    949 ;E:\Dropbox\FAUSTO\SVILUPPI\MSX\CODE\C\MSXgl\projects\exsoccer/exsoccer_s1_b2.c:185: if (plY >= FIELD_BOUND_Y_TOP && plY <= (FIELD_BOUND_Y_TOP + 120)) { 
    00000414 DD 7E F7         [19]  950 	ld	a, -9 (ix)
    00000417 DD 77 FB         [19]  951 	ld	-5 (ix), a
    0000041A DD 7E F8         [19]  952 	ld	a, -8 (ix)
    0000041D DD 77 FC         [19]  953 	ld	-4 (ix), a
                                    954 ;E:\Dropbox\FAUSTO\SVILUPPI\MSX\CODE\C\MSXgl\projects\exsoccer/exsoccer_s1_b2.c:183: if (teamId == TEAM_1) { // Attacking UP (Towards Top)
    00000420 DD 7E C3         [19]  955 	ld	a, -61 (ix)
    00000423 B7               [ 4]  956 	or	a, a
    00000424 28 71            [12]  957 	jr	Z, 00186$
                                    958 ;E:\Dropbox\FAUSTO\SVILUPPI\MSX\CODE\C\MSXgl\projects\exsoccer/exsoccer_s1_b2.c:185: if (plY >= FIELD_BOUND_Y_TOP && plY <= (FIELD_BOUND_Y_TOP + 120)) { 
    00000426 DD 7E FB         [19]  959 	ld	a, -5 (ix)
    00000429 D6 32            [ 7]  960 	sub	a, #0x32
    0000042B DD 7E FC         [19]  961 	ld	a, -4 (ix)
    0000042E DE 00            [ 7]  962 	sbc	a, #0x00
    00000430 DArFDr04         [10]  963 	jp	C, 00187$
    00000433 3E AA            [ 7]  964 	ld	a, #0xaa
    00000435 DD BE F7         [19]  965 	cp	a, -9 (ix)
    00000438 3E 00            [ 7]  966 	ld	a, #0x00
    0000043A DD 9E F8         [19]  967 	sbc	a, -8 (ix)
    0000043D DArFDr04         [10]  968 	jp	C, 00187$
                                    969 ;E:\Dropbox\FAUSTO\SVILUPPI\MSX\CODE\C\MSXgl\projects\exsoccer/exsoccer_s1_b2.c:186: if (checkDir == DIRECTION_UP || checkDir == DIRECTION_UP_LEFT || checkDir == DIRECTION_UP_RIGHT) {
    00000440 DD 7E FE         [19]  970 	ld	a, -2 (ix)
    00000443 3D               [ 4]  971 	dec	a
    00000444 28 0F            [12]  972 	jr	Z, 00164$
    00000446 DD 7E FE         [19]  973 	ld	a, -2 (ix)
    00000449 D6 08            [ 7]  974 	sub	a, #0x08
    0000044B 28 08            [12]  975 	jr	Z, 00164$
    0000044D DD 7E FE         [19]  976 	ld	a, -2 (ix)
    00000450 D6 02            [ 7]  977 	sub	a, #0x02
    00000452 C2rFDr04         [10]  978 	jp	NZ,00187$
    00000455                        979 00164$:
                                    980 ;E:\Dropbox\FAUSTO\SVILUPPI\MSX\CODE\C\MSXgl\projects\exsoccer/exsoccer_s1_b2.c:189: bool allowed = true;
    00000455 DD 36 FC 01      [19]  981 	ld	-4 (ix), #0x01
                                    982 ;E:\Dropbox\FAUSTO\SVILUPPI\MSX\CODE\C\MSXgl\projects\exsoccer/exsoccer_s1_b2.c:190: if (plY < (FIELD_BOUND_Y_TOP + 20)) {
    00000459 DD 7E F7         [19]  983 	ld	a, -9 (ix)
    0000045C D6 46            [ 7]  984 	sub	a, #0x46
    0000045E DD 7E F8         [19]  985 	ld	a, -8 (ix)
    00000461 DE 00            [ 7]  986 	sbc	a, #0x00
    00000463 30 1C            [12]  987 	jr	NC, 00161$
                                    988 ;E:\Dropbox\FAUSTO\SVILUPPI\MSX\CODE\C\MSXgl\projects\exsoccer/exsoccer_s1_b2.c:191: if (plX < (GOAL_X_MIN - 15) || plX > (GOAL_X_MAX + 15)) allowed = false;
    00000465 DD 7E F9         [19]  989 	ld	a, -7 (ix)
    00000468 D6 51            [ 7]  990 	sub	a, #0x51
    0000046A DD 7E FA         [19]  991 	ld	a, -6 (ix)
    0000046D DE 00            [ 7]  992 	sbc	a, #0x00
    0000046F 38 0C            [12]  993 	jr	C, 00157$
    00000471 3E 9F            [ 7]  994 	ld	a, #0x9f
    00000473 DD BE F9         [19]  995 	cp	a, -7 (ix)
    00000476 3E 00            [ 7]  996 	ld	a, #0x00
    00000478 DD 9E FA         [19]  997 	sbc	a, -6 (ix)
    0000047B 30 04            [12]  998 	jr	NC, 00161$
    0000047D                        999 00157$:
    0000047D DD 36 FC 00      [19] 1000 	ld	-4 (ix), #0x00
    00000481                       1001 00161$:
                                   1002 ;E:\Dropbox\FAUSTO\SVILUPPI\MSX\CODE\C\MSXgl\projects\exsoccer/exsoccer_s1_b2.c:194: if (allowed) {
    00000481 DD 7E FC         [19] 1003 	ld	a, -4 (ix)
    00000484 B7               [ 4] 1004 	or	a, a
    00000485 28 76            [12] 1005 	jr	Z, 00187$
                                   1006 ;E:\Dropbox\FAUSTO\SVILUPPI\MSX\CODE\C\MSXgl\projects\exsoccer/exsoccer_s1_b2.c:195: isShooting = true;
    00000487 DD 36 F6 01      [19] 1007 	ld	-10 (ix), #0x01
                                   1008 ;E:\Dropbox\FAUSTO\SVILUPPI\MSX\CODE\C\MSXgl\projects\exsoccer/exsoccer_s1_b2.c:196: PerformShot(g_ShotCursorX, FIELD_BOUND_Y_TOP - 40);
    0000048B 11 0A 00         [10] 1009 	ld	de, #0x000a
    0000048E 2Ar00r00         [16] 1010 	ld	hl, (_g_ShotCursorX)
    00000491 CDr00r00         [17] 1011 	call	_PerformShot
    00000494 C3rFDr04         [10] 1012 	jp	00187$
    00000497                       1013 00186$:
                                   1014 ;E:\Dropbox\FAUSTO\SVILUPPI\MSX\CODE\C\MSXgl\projects\exsoccer/exsoccer_s1_b2.c:202: if (plY <= FIELD_BOUND_Y_BOTTOM && plY >= (FIELD_BOUND_Y_BOTTOM - 120)) { 
    00000497 3E AE            [ 7] 1015 	ld	a, #0xae
    00000499 DD BE FB         [19] 1016 	cp	a, -5 (ix)
    0000049C 3E 01            [ 7] 1017 	ld	a, #0x01
    0000049E DD 9E FC         [19] 1018 	sbc	a, -4 (ix)
    000004A1 38 5A            [12] 1019 	jr	C, 00187$
    000004A3 DD 7E FB         [19] 1020 	ld	a, -5 (ix)
    000004A6 D6 36            [ 7] 1021 	sub	a, #0x36
    000004A8 DD 7E FC         [19] 1022 	ld	a, -4 (ix)
    000004AB DE 01            [ 7] 1023 	sbc	a, #0x01
    000004AD 38 4E            [12] 1024 	jr	C, 00187$
                                   1025 ;E:\Dropbox\FAUSTO\SVILUPPI\MSX\CODE\C\MSXgl\projects\exsoccer/exsoccer_s1_b2.c:203: if (checkDir == DIRECTION_DOWN || checkDir == DIRECTION_DOWN_LEFT || checkDir == DIRECTION_DOWN_RIGHT) {
    000004AF DD 7E FE         [19] 1026 	ld	a, -2 (ix)
    000004B2 D6 05            [ 7] 1027 	sub	a, #0x05
    000004B4 28 0E            [12] 1028 	jr	Z, 00178$
    000004B6 DD 7E FE         [19] 1029 	ld	a, -2 (ix)
    000004B9 D6 06            [ 7] 1030 	sub	a, #0x06
    000004BB 28 07            [12] 1031 	jr	Z, 00178$
    000004BD DD 7E FE         [19] 1032 	ld	a, -2 (ix)
    000004C0 D6 04            [ 7] 1033 	sub	a, #0x04
    000004C2 20 39            [12] 1034 	jr	NZ, 00187$
    000004C4                       1035 00178$:
                                   1036 ;E:\Dropbox\FAUSTO\SVILUPPI\MSX\CODE\C\MSXgl\projects\exsoccer/exsoccer_s1_b2.c:206: bool allowed = true;
    000004C4 1E 01            [ 7] 1037 	ld	e, #0x01
                                   1038 ;E:\Dropbox\FAUSTO\SVILUPPI\MSX\CODE\C\MSXgl\projects\exsoccer/exsoccer_s1_b2.c:207: if (plY > (FIELD_BOUND_Y_BOTTOM - 20)) {
    000004C6 3E 9A            [ 7] 1039 	ld	a, #0x9a
    000004C8 DD BE FB         [19] 1040 	cp	a, -5 (ix)
    000004CB 3E 01            [ 7] 1041 	ld	a, #0x01
    000004CD DD 9E FC         [19] 1042 	sbc	a, -4 (ix)
    000004D0 30 1A            [12] 1043 	jr	NC, 00175$
                                   1044 ;E:\Dropbox\FAUSTO\SVILUPPI\MSX\CODE\C\MSXgl\projects\exsoccer/exsoccer_s1_b2.c:208: if (plX < (GOAL_X_MIN - 15) || plX > (GOAL_X_MAX + 15)) allowed = false;
    000004D2 DD 7E F9         [19] 1045 	ld	a, -7 (ix)
    000004D5 D6 51            [ 7] 1046 	sub	a, #0x51
    000004D7 DD 7E FA         [19] 1047 	ld	a, -6 (ix)
    000004DA DE 00            [ 7] 1048 	sbc	a, #0x00
    000004DC 38 0C            [12] 1049 	jr	C, 00171$
    000004DE 3E 9F            [ 7] 1050 	ld	a, #0x9f
    000004E0 DD BE F9         [19] 1051 	cp	a, -7 (ix)
    000004E3 3E 00            [ 7] 1052 	ld	a, #0x00
    000004E5 DD 9E FA         [19] 1053 	sbc	a, -6 (ix)
    000004E8 30 02            [12] 1054 	jr	NC, 00175$
    000004EA                       1055 00171$:
    000004EA 1E 00            [ 7] 1056 	ld	e, #0x00
    000004EC                       1057 00175$:
                                   1058 ;E:\Dropbox\FAUSTO\SVILUPPI\MSX\CODE\C\MSXgl\projects\exsoccer/exsoccer_s1_b2.c:211: if (allowed) {
    000004EC 7B               [ 4] 1059 	ld	a, e
    000004ED B7               [ 4] 1060 	or	a, a
    000004EE 28 0D            [12] 1061 	jr	Z, 00187$
                                   1062 ;E:\Dropbox\FAUSTO\SVILUPPI\MSX\CODE\C\MSXgl\projects\exsoccer/exsoccer_s1_b2.c:212: isShooting = true;
    000004F0 DD 36 F6 01      [19] 1063 	ld	-10 (ix), #0x01
                                   1064 ;E:\Dropbox\FAUSTO\SVILUPPI\MSX\CODE\C\MSXgl\projects\exsoccer/exsoccer_s1_b2.c:213: PerformShot(g_ShotCursorX, FIELD_BOUND_Y_BOTTOM + 40);
    000004F4 11 D6 01         [10] 1065 	ld	de, #0x01d6
    000004F7 2Ar00r00         [16] 1066 	ld	hl, (_g_ShotCursorX)
    000004FA CDr00r00         [17] 1067 	call	_PerformShot
    000004FD                       1068 00187$:
                                   1069 ;E:\Dropbox\FAUSTO\SVILUPPI\MSX\CODE\C\MSXgl\projects\exsoccer/exsoccer_s1_b2.c:219: if (isShooting) {
    000004FD DD 7E F6         [19] 1070 	ld	a, -10 (ix)
    00000500 B7               [ 4] 1071 	or	a, a
    00000501 28 08            [12] 1072 	jr	Z, 00194$
                                   1073 ;E:\Dropbox\FAUSTO\SVILUPPI\MSX\CODE\C\MSXgl\projects\exsoccer/exsoccer_s1_b2.c:220: g_ActionCooldown = 20;
    00000503 21r00r00         [10] 1074 	ld	hl, #_g_ActionCooldown
    00000506 36 14            [10] 1075 	ld	(hl), #0x14
                                   1076 ;E:\Dropbox\FAUSTO\SVILUPPI\MSX\CODE\C\MSXgl\projects\exsoccer/exsoccer_s1_b2.c:221: return;
    00000508 C3r79r0D         [10] 1077 	jp	00259$
    0000050B                       1078 00194$:
                                   1079 ;E:\Dropbox\FAUSTO\SVILUPPI\MSX\CODE\C\MSXgl\projects\exsoccer/exsoccer_s1_b2.c:231: if(direction != DIRECTION_NONE){
    0000050B DD 7E FE         [19] 1080 	ld	a, -2 (ix)
    0000050E B7               [ 4] 1081 	or	a, a
    0000050F 28 0E            [12] 1082 	jr	Z, 00196$
                                   1083 ;E:\Dropbox\FAUSTO\SVILUPPI\MSX\CODE\C\MSXgl\projects\exsoccer/exsoccer_s1_b2.c:232: g_Players[playerId].Direction = direction;
    00000511 DD 6E F1         [19] 1084 	ld	l, -15 (ix)
    00000514 DD 66 F2         [19] 1085 	ld	h, -14 (ix)
    00000517 11 0A 00         [10] 1086 	ld	de, #0x000a
    0000051A 19               [11] 1087 	add	hl, de
    0000051B DD 7E FE         [19] 1088 	ld	a, -2 (ix)
    0000051E 77               [ 7] 1089 	ld	(hl), a
    0000051F                       1090 00196$:
                                   1091 ;E:\Dropbox\FAUSTO\SVILUPPI\MSX\CODE\C\MSXgl\projects\exsoccer/exsoccer_s1_b2.c:236: g_PassTargetPlayer = GetBestPassTarget(playerId);
    0000051F DD 7E FD         [19] 1092 	ld	a, -3 (ix)
    00000522 CDr00r00         [17] 1093 	call	_GetBestPassTarget
                                   1094 ;E:\Dropbox\FAUSTO\SVILUPPI\MSX\CODE\C\MSXgl\projects\exsoccer/exsoccer_s1_b2.c:238: if (g_PassTargetPlayer != NO_VALUE) {
    00000525 32r00r00         [13] 1095 	ld	(_g_PassTargetPlayer+0), a
    00000528 3C               [ 4] 1096 	inc	a
    00000529 28 09            [12] 1097 	jr	Z, 00200$
                                   1098 ;E:\Dropbox\FAUSTO\SVILUPPI\MSX\CODE\C\MSXgl\projects\exsoccer/exsoccer_s1_b2.c:240: PerformPass(g_PassTargetPlayer);
    0000052B 3Ar00r00         [13] 1099 	ld	a, (_g_PassTargetPlayer+0)
    0000052E CDrB6r31         [17] 1100 	call	_PerformPass
                                   1101 ;E:\Dropbox\FAUSTO\SVILUPPI\MSX\CODE\C\MSXgl\projects\exsoccer/exsoccer_s1_b2.c:243: return; 
    00000531 C3r79r0D         [10] 1102 	jp	00259$
    00000534                       1103 00200$:
                                   1104 ;E:\Dropbox\FAUSTO\SVILUPPI\MSX\CODE\C\MSXgl\projects\exsoccer/exsoccer_s1_b2.c:247: if((g_FrameCounter % 4)!=0){ 
    00000534 2Ar00r00         [16] 1105 	ld	hl, (_g_FrameCounter)
    00000537 7D               [ 4] 1106 	ld	a, l
    00000538 E6 03            [ 7] 1107 	and	a, #0x03
                                   1108 ;E:\Dropbox\FAUSTO\SVILUPPI\MSX\CODE\C\MSXgl\projects\exsoccer/exsoccer_s1_b2.c:248: return;
    0000053A C2r79r0D         [10] 1109 	jp	NZ,00259$
                                   1110 ;E:\Dropbox\FAUSTO\SVILUPPI\MSX\CODE\C\MSXgl\projects\exsoccer/exsoccer_s1_b2.c:251: if(g_Ball.KickMoveState==NO_VALUE){
    0000053D 01r0Dr00         [10] 1111 	ld	bc, #_g_Ball + 13
    00000540 0A               [ 7] 1112 	ld	a, (bc)
                                   1113 ;E:\Dropbox\FAUSTO\SVILUPPI\MSX\CODE\C\MSXgl\projects\exsoccer/exsoccer_s1_b2.c:252: g_Ball.KickMoveState=0;
    00000541 3C               [ 4] 1114 	inc	a
    00000542 20 01            [12] 1115 	jr	NZ, 00204$
    00000544 02               [ 7] 1116 	ld	(bc), a
    00000545                       1117 00204$:
                                   1118 ;E:\Dropbox\FAUSTO\SVILUPPI\MSX\CODE\C\MSXgl\projects\exsoccer/exsoccer_s1_b2.c:255: u8 moveDir = direction;
    00000545 DD 7E FE         [19] 1119 	ld	a, -2 (ix)
    00000548 DD 77 F5         [19] 1120 	ld	-11 (ix), a
                                   1121 ;E:\Dropbox\FAUSTO\SVILUPPI\MSX\CODE\C\MSXgl\projects\exsoccer/exsoccer_s1_b2.c:256: if(g_Ball.KickMoveState != 0){
    0000054B 0A               [ 7] 1122 	ld	a, (bc)
    0000054C B7               [ 4] 1123 	or	a, a
    0000054D 28 0E            [12] 1124 	jr	Z, 00206$
                                   1125 ;E:\Dropbox\FAUSTO\SVILUPPI\MSX\CODE\C\MSXgl\projects\exsoccer/exsoccer_s1_b2.c:257: moveDir = g_Players[playerId].Direction;
    0000054F DD 5E F1         [19] 1126 	ld	e, -15 (ix)
    00000552 DD 56 F2         [19] 1127 	ld	d, -14 (ix)
    00000555 21 0A 00         [10] 1128 	ld	hl, #10
    00000558 19               [11] 1129 	add	hl, de
    00000559 7E               [ 7] 1130 	ld	a, (hl)
    0000055A DD 77 F5         [19] 1131 	ld	-11 (ix), a
    0000055D                       1132 00206$:
                                   1133 ;E:\Dropbox\FAUSTO\SVILUPPI\MSX\CODE\C\MSXgl\projects\exsoccer/exsoccer_s1_b2.c:263: if(g_Players[playerId].PreviousDirection!=DIRECTION_NONE){
    0000055D DD 7E F1         [19] 1134 	ld	a, -15 (ix)
    00000560 C6 0B            [ 7] 1135 	add	a, #0x0b
    00000562 DD 77 F6         [19] 1136 	ld	-10 (ix), a
    00000565 DD 7E F2         [19] 1137 	ld	a, -14 (ix)
    00000568 CE 00            [ 7] 1138 	adc	a, #0x00
    0000056A DD 77 F7         [19] 1139 	ld	-9 (ix), a
                                   1140 ;E:\Dropbox\FAUSTO\SVILUPPI\MSX\CODE\C\MSXgl\projects\exsoccer/exsoccer_s1_b2.c:260: if(moveDir==DIRECTION_NONE){
    0000056D DD 7E F5         [19] 1141 	ld	a, -11 (ix)
    00000570 B7               [ 4] 1142 	or	a, a
    00000571 20 38            [12] 1143 	jr	NZ, 00221$
                                   1144 ;E:\Dropbox\FAUSTO\SVILUPPI\MSX\CODE\C\MSXgl\projects\exsoccer/exsoccer_s1_b2.c:261: g_Players[playerId].Status=PLAYER_STATUS_POSITIONED;
    00000573 DD 6E F3         [19] 1145 	ld	l, -13 (ix)
    00000576 DD 66 F4         [19] 1146 	ld	h, -12 (ix)
    00000579 36 04            [10] 1147 	ld	(hl), #0x04
    0000057B 23               [ 6] 1148 	inc	hl
    0000057C 36 00            [10] 1149 	ld	(hl), #0x00
                                   1150 ;E:\Dropbox\FAUSTO\SVILUPPI\MSX\CODE\C\MSXgl\projects\exsoccer/exsoccer_s1_b2.c:262: PutBallOnPlayerFeet(playerId);
    0000057E C5               [11] 1151 	push	bc
    0000057F DD 7E FD         [19] 1152 	ld	a, -3 (ix)
    00000582 CDrC5r27         [17] 1153 	call	_PutBallOnPlayerFeet
    00000585 C1               [10] 1154 	pop	bc
                                   1155 ;E:\Dropbox\FAUSTO\SVILUPPI\MSX\CODE\C\MSXgl\projects\exsoccer/exsoccer_s1_b2.c:263: if(g_Players[playerId].PreviousDirection!=DIRECTION_NONE){
    00000586 DD 6E F6         [19] 1156 	ld	l, -10 (ix)
    00000589 DD 66 F7         [19] 1157 	ld	h, -9 (ix)
    0000058C 5E               [ 7] 1158 	ld	e, (hl)
    0000058D 7B               [ 4] 1159 	ld	a, e
    0000058E B7               [ 4] 1160 	or	a, a
    0000058F 28 15            [12] 1161 	jr	Z, 00208$
                                   1162 ;E:\Dropbox\FAUSTO\SVILUPPI\MSX\CODE\C\MSXgl\projects\exsoccer/exsoccer_s1_b2.c:264: g_Players[playerId].PatternId=GetNoMovingPlayerPatternId(g_Players[playerId].PreviousDirection);
    00000591 DD 7E F1         [19] 1163 	ld	a, -15 (ix)
    00000594 C6 08            [ 7] 1164 	add	a, #0x08
    00000596 6F               [ 4] 1165 	ld	l, a
                                   1166 ;	spillPairReg hl
                                   1167 ;	spillPairReg hl
    00000597 DD 7E F2         [19] 1168 	ld	a, -14 (ix)
    0000059A CE 00            [ 7] 1169 	adc	a, #0x00
    0000059C 67               [ 4] 1170 	ld	h, a
                                   1171 ;	spillPairReg hl
                                   1172 ;	spillPairReg hl
    0000059D E5               [11] 1173 	push	hl
    0000059E C5               [11] 1174 	push	bc
    0000059F 7B               [ 4] 1175 	ld	a, e
    000005A0 CDr00r00         [17] 1176 	call	_GetNoMovingPlayerPatternId
    000005A3 C1               [10] 1177 	pop	bc
    000005A4 E1               [10] 1178 	pop	hl
    000005A5 77               [ 7] 1179 	ld	(hl), a
    000005A6                       1180 00208$:
                                   1181 ;E:\Dropbox\FAUSTO\SVILUPPI\MSX\CODE\C\MSXgl\projects\exsoccer/exsoccer_s1_b2.c:266: g_Ball.KickMoveState=0;
    000005A6 AF               [ 4] 1182 	xor	a, a
    000005A7 02               [ 7] 1183 	ld	(bc), a
    000005A8 C3r79r0D         [10] 1184 	jp	00259$
    000005AB                       1185 00221$:
                                   1186 ;E:\Dropbox\FAUSTO\SVILUPPI\MSX\CODE\C\MSXgl\projects\exsoccer/exsoccer_s1_b2.c:272: const u8 BallBaseDistX[] = { 0, 0, 4, 6, 4, 0, 4, 6, 4 };
    000005AB DD 36 C5 00      [19] 1187 	ld	-59 (ix), #0x00
    000005AF DD 36 C6 00      [19] 1188 	ld	-58 (ix), #0x00
    000005B3 DD 36 C7 04      [19] 1189 	ld	-57 (ix), #0x04
    000005B7 DD 36 C8 06      [19] 1190 	ld	-56 (ix), #0x06
    000005BB DD 36 C9 04      [19] 1191 	ld	-55 (ix), #0x04
    000005BF DD 36 CA 00      [19] 1192 	ld	-54 (ix), #0x00
    000005C3 DD 36 CB 04      [19] 1193 	ld	-53 (ix), #0x04
    000005C7 DD 36 CC 06      [19] 1194 	ld	-52 (ix), #0x06
    000005CB DD 36 CD 04      [19] 1195 	ld	-51 (ix), #0x04
                                   1196 ;E:\Dropbox\FAUSTO\SVILUPPI\MSX\CODE\C\MSXgl\projects\exsoccer/exsoccer_s1_b2.c:273: const u8 BallBaseDistY[] = { 0, 6, 4, 0, 4, 6, 4, 0, 4 };
    000005CF DD 36 CE 00      [19] 1197 	ld	-50 (ix), #0x00
    000005D3 DD 36 CF 06      [19] 1198 	ld	-49 (ix), #0x06
    000005D7 DD 36 D0 04      [19] 1199 	ld	-48 (ix), #0x04
    000005DB DD 36 D1 00      [19] 1200 	ld	-47 (ix), #0x00
    000005DF DD 36 D2 04      [19] 1201 	ld	-46 (ix), #0x04
    000005E3 DD 36 D3 06      [19] 1202 	ld	-45 (ix), #0x06
    000005E7 DD 36 D4 04      [19] 1203 	ld	-44 (ix), #0x04
    000005EB DD 36 D5 00      [19] 1204 	ld	-43 (ix), #0x00
    000005EF DD 36 D6 04      [19] 1205 	ld	-42 (ix), #0x04
                                   1206 ;E:\Dropbox\FAUSTO\SVILUPPI\MSX\CODE\C\MSXgl\projects\exsoccer/exsoccer_s1_b2.c:292: const i8 BallAlignCorrectX[] = { 0, 0, 0, 0, 2, 0, -2, 0, 0 };
    000005F3 DD 36 D7 00      [19] 1207 	ld	-41 (ix), #0x00
    000005F7 DD 36 D8 00      [19] 1208 	ld	-40 (ix), #0x00
    000005FB DD 36 D9 00      [19] 1209 	ld	-39 (ix), #0x00
    000005FF DD 36 DA 00      [19] 1210 	ld	-38 (ix), #0x00
    00000603 DD 36 DB 02      [19] 1211 	ld	-37 (ix), #0x02
    00000607 DD 36 DC 00      [19] 1212 	ld	-36 (ix), #0x00
    0000060B DD 36 DD FE      [19] 1213 	ld	-35 (ix), #0xfe
    0000060F DD 36 DE 00      [19] 1214 	ld	-34 (ix), #0x00
    00000613 DD 36 DF 00      [19] 1215 	ld	-33 (ix), #0x00
                                   1216 ;E:\Dropbox\FAUSTO\SVILUPPI\MSX\CODE\C\MSXgl\projects\exsoccer/exsoccer_s1_b2.c:293: const i8 BallAlignCorrectY[] = { 0, 0, 0, 8, 2, -2, 2, 8, 0 };
    00000617 DD 36 E0 00      [19] 1217 	ld	-32 (ix), #0x00
    0000061B DD 36 E1 00      [19] 1218 	ld	-31 (ix), #0x00
    0000061F DD 36 E2 00      [19] 1219 	ld	-30 (ix), #0x00
    00000623 DD 36 E3 08      [19] 1220 	ld	-29 (ix), #0x08
    00000627 DD 36 E4 02      [19] 1221 	ld	-28 (ix), #0x02
    0000062B DD 36 E5 FE      [19] 1222 	ld	-27 (ix), #0xfe
    0000062F DD 36 E6 02      [19] 1223 	ld	-26 (ix), #0x02
    00000633 DD 36 E7 08      [19] 1224 	ld	-25 (ix), #0x08
    00000637 DD 36 E8 00      [19] 1225 	ld	-24 (ix), #0x00
                                   1226 ;E:\Dropbox\FAUSTO\SVILUPPI\MSX\CODE\C\MSXgl\projects\exsoccer/exsoccer_s1_b2.c:295: const u8 DribbleAnimOffsets[] = {5, 4, 2, 0};
    0000063B DD 36 E9 05      [19] 1227 	ld	-23 (ix), #0x05
    0000063F DD 36 EA 04      [19] 1228 	ld	-22 (ix), #0x04
    00000643 DD 36 EB 02      [19] 1229 	ld	-21 (ix), #0x02
    00000647 DD 36 EC 00      [19] 1230 	ld	-20 (ix), #0x00
                                   1231 ;E:\Dropbox\FAUSTO\SVILUPPI\MSX\CODE\C\MSXgl\projects\exsoccer/exsoccer_s1_b2.c:296: const u8 DribbleAnimOffsetsDiag[] = {3, 3, 1, 0};
    0000064B DD 36 ED 03      [19] 1232 	ld	-19 (ix), #0x03
    0000064F DD 36 EE 03      [19] 1233 	ld	-18 (ix), #0x03
    00000653 DD 36 EF 01      [19] 1234 	ld	-17 (ix), #0x01
    00000657 DD 36 F0 00      [19] 1235 	ld	-16 (ix), #0x00
                                   1236 ;E:\Dropbox\FAUSTO\SVILUPPI\MSX\CODE\C\MSXgl\projects\exsoccer/exsoccer_s1_b2.c:298: u8 animStep = g_Ball.KickMoveState;
    0000065B 0A               [ 7] 1237 	ld	a, (bc)
    0000065C 5F               [ 4] 1238 	ld	e, a
                                   1239 ;E:\Dropbox\FAUSTO\SVILUPPI\MSX\CODE\C\MSXgl\projects\exsoccer/exsoccer_s1_b2.c:299: u8 diagStep = (animStep % 2) ? 1 : 2;
    0000065D CB 43            [ 8] 1240 	bit	0, e
    0000065F 28 06            [12] 1241 	jr	Z, 00271$
    00000661 21 01 00         [10] 1242 	ld	hl, #0x0001
    00000664 C3r6Ar06         [10] 1243 	jp	00272$
    00000667                       1244 00271$:
    00000667 21 02 00         [10] 1245 	ld	hl, #0x0002
    0000066A                       1246 00272$:
    0000066A DD 75 F8         [19] 1247 	ld	-8 (ix), l
                                   1248 ;E:\Dropbox\FAUSTO\SVILUPPI\MSX\CODE\C\MSXgl\projects\exsoccer/exsoccer_s1_b2.c:301: u8 currentOffset = DribbleAnimOffsets[animStep];
    0000066D D5               [11] 1249 	push	de
    0000066E 16 00            [ 7] 1250 	ld	d, #0x00
    00000670 21 28 00         [10] 1251 	ld	hl, #40
    00000673 39               [11] 1252 	add	hl, sp
    00000674 19               [11] 1253 	add	hl, de
    00000675 D1               [10] 1254 	pop	de
    00000676 7E               [ 7] 1255 	ld	a, (hl)
    00000677 DD 77 F9         [19] 1256 	ld	-7 (ix), a
                                   1257 ;E:\Dropbox\FAUSTO\SVILUPPI\MSX\CODE\C\MSXgl\projects\exsoccer/exsoccer_s1_b2.c:302: u8 currentOffsetDiag = DribbleAnimOffsetsDiag[animStep];
    0000067A 16 00            [ 7] 1258 	ld	d, #0x00
    0000067C 21 2A 00         [10] 1259 	ld	hl, #42
    0000067F 39               [11] 1260 	add	hl, sp
    00000680 19               [11] 1261 	add	hl, de
    00000681 7E               [ 7] 1262 	ld	a, (hl)
    00000682 DD 77 FA         [19] 1263 	ld	-6 (ix), a
                                   1264 ;E:\Dropbox\FAUSTO\SVILUPPI\MSX\CODE\C\MSXgl\projects\exsoccer/exsoccer_s1_b2.c:304: u8 distX = BallBaseDistX[moveDir] + ((moveDir==DIRECTION_UP || moveDir==DIRECTION_DOWN) ? 0 : (moveDir == DIRECTION_LEFT || moveDir == DIRECTION_RIGHT ? currentOffset : currentOffsetDiag));
    00000685 DD 5E F5         [19] 1265 	ld	e, -11 (ix)
    00000688 16 00            [ 7] 1266 	ld	d, #0x00
    0000068A 21 02 00         [10] 1267 	ld	hl, #2
    0000068D 39               [11] 1268 	add	hl, sp
    0000068E 19               [11] 1269 	add	hl, de
    0000068F 5E               [ 7] 1270 	ld	e, (hl)
    00000690 DD 7E F5         [19] 1271 	ld	a, -11 (ix)
    00000693 3D               [ 4] 1272 	dec	a
    00000694 3E 01            [ 7] 1273 	ld	a, #0x01
    00000696 28 01            [12] 1274 	jr	Z, 00762$
    00000698 AF               [ 4] 1275 	xor	a, a
    00000699                       1276 00762$:
    00000699 DD 77 FB         [19] 1277 	ld	-5 (ix), a
    0000069C DD 7E F5         [19] 1278 	ld	a, -11 (ix)
    0000069F D6 07            [ 7] 1279 	sub	a, #0x07
    000006A1 3E 01            [ 7] 1280 	ld	a, #0x01
    000006A3 28 01            [12] 1281 	jr	Z, 00764$
    000006A5 AF               [ 4] 1282 	xor	a, a
    000006A6                       1283 00764$:
    000006A6 DD 77 FC         [19] 1284 	ld	-4 (ix), a
    000006A9 DD CB FB 46      [20] 1285 	bit	0, -5 (ix)
    000006AD 20 07            [12] 1286 	jr	NZ, 00276$
    000006AF DD 7E F5         [19] 1287 	ld	a, -11 (ix)
    000006B2 D6 05            [ 7] 1288 	sub	a, #0x05
    000006B4 20 04            [12] 1289 	jr	NZ, 00273$
    000006B6                       1290 00276$:
    000006B6 AF               [ 4] 1291 	xor	a, a
    000006B7 C3rD0r06         [10] 1292 	jp	00274$
    000006BA                       1293 00273$:
    000006BA DD CB FC 46      [20] 1294 	bit	0, -4 (ix)
    000006BE 20 07            [12] 1295 	jr	NZ, 00281$
    000006C0 DD 7E F5         [19] 1296 	ld	a, -11 (ix)
    000006C3 D6 03            [ 7] 1297 	sub	a, #0x03
    000006C5 20 06            [12] 1298 	jr	NZ, 00278$
    000006C7                       1299 00281$:
    000006C7 DD 7E F9         [19] 1300 	ld	a, -7 (ix)
    000006CA C3rD0r06         [10] 1301 	jp	00279$
    000006CD                       1302 00278$:
    000006CD DD 7E FA         [19] 1303 	ld	a, -6 (ix)
    000006D0                       1304 00279$:
    000006D0                       1305 00274$:
    000006D0 83               [ 4] 1306 	add	a, e
    000006D1 DD 77 FD         [19] 1307 	ld	-3 (ix), a
                                   1308 ;E:\Dropbox\FAUSTO\SVILUPPI\MSX\CODE\C\MSXgl\projects\exsoccer/exsoccer_s1_b2.c:305: u8 distY = BallBaseDistY[moveDir] + ((moveDir==DIRECTION_LEFT || moveDir==DIRECTION_RIGHT) ? 0 : (moveDir == DIRECTION_UP || moveDir == DIRECTION_DOWN ? currentOffset : currentOffsetDiag));
    000006D4 DD 5E F5         [19] 1309 	ld	e, -11 (ix)
    000006D7 16 00            [ 7] 1310 	ld	d, #0x00
    000006D9 21 0B 00         [10] 1311 	ld	hl, #11
    000006DC 39               [11] 1312 	add	hl, sp
    000006DD 19               [11] 1313 	add	hl, de
    000006DE 6E               [ 7] 1314 	ld	l, (hl)
                                   1315 ;	spillPairReg hl
    000006DF DD CB FC 46      [20] 1316 	bit	0, -4 (ix)
    000006E3 20 07            [12] 1317 	jr	NZ, 00286$
    000006E5 DD 7E F5         [19] 1318 	ld	a, -11 (ix)
    000006E8 D6 03            [ 7] 1319 	sub	a, #0x03
    000006EA 20 0A            [12] 1320 	jr	NZ, 00283$
    000006EC                       1321 00286$:
    000006EC AF               [ 4] 1322 	xor	a, a
    000006ED DD 77 FB         [19] 1323 	ld	-5 (ix), a
    000006F0 DD 77 FC         [19] 1324 	ld	-4 (ix), a
    000006F3 C3r13r07         [10] 1325 	jp	00284$
    000006F6                       1326 00283$:
    000006F6 DD CB FB 46      [20] 1327 	bit	0, -5 (ix)
    000006FA 20 07            [12] 1328 	jr	NZ, 00291$
    000006FC DD 7E F5         [19] 1329 	ld	a, -11 (ix)
    000006FF D6 05            [ 7] 1330 	sub	a, #0x05
    00000701 20 06            [12] 1331 	jr	NZ, 00288$
    00000703                       1332 00291$:
    00000703 DD 7E F9         [19] 1333 	ld	a, -7 (ix)
    00000706 C3r0Cr07         [10] 1334 	jp	00289$
    00000709                       1335 00288$:
    00000709 DD 7E FA         [19] 1336 	ld	a, -6 (ix)
    0000070C                       1337 00289$:
    0000070C DD 77 FB         [19] 1338 	ld	-5 (ix), a
    0000070F DD 36 FC 00      [19] 1339 	ld	-4 (ix), #0x00
    00000713                       1340 00284$:
    00000713 DD 7E FB         [19] 1341 	ld	a, -5 (ix)
    00000716 85               [ 4] 1342 	add	a, l
    00000717 DD 77 FA         [19] 1343 	ld	-6 (ix), a
                                   1344 ;E:\Dropbox\FAUSTO\SVILUPPI\MSX\CODE\C\MSXgl\projects\exsoccer/exsoccer_s1_b2.c:152: i16 dx = (i16)g_Players[playerId].X - (i16)g_Ball.X;
    0000071A DD 7E F1         [19] 1345 	ld	a, -15 (ix)
    0000071D C6 02            [ 7] 1346 	add	a, #0x02
    0000071F DD 77 FB         [19] 1347 	ld	-5 (ix), a
    00000722 DD 7E F2         [19] 1348 	ld	a, -14 (ix)
    00000725 CE 00            [ 7] 1349 	adc	a, #0x00
    00000727 DD 77 FC         [19] 1350 	ld	-4 (ix), a
                                   1351 ;E:\Dropbox\FAUSTO\SVILUPPI\MSX\CODE\C\MSXgl\projects\exsoccer/exsoccer_s1_b2.c:307: switch(moveDir){
    0000072A 3E 08            [ 7] 1352 	ld	a, #0x08
    0000072C DD 96 F5         [19] 1353 	sub	a, -11 (ix)
    0000072F DArE7r0A         [10] 1354 	jp	C, 00217$
    00000732 DD 5E F5         [19] 1355 	ld	e, -11 (ix)
    00000735 16 00            [ 7] 1356 	ld	d, #0x00
    00000737 21r3Er07         [10] 1357 	ld	hl, #00773$
    0000073A 19               [11] 1358 	add	hl, de
    0000073B 19               [11] 1359 	add	hl, de
    0000073C 19               [11] 1360 	add	hl, de
    0000073D E9               [ 4] 1361 	jp	(hl)
    0000073E                       1362 00773$:
    0000073E C3rE7r0A         [10] 1363 	jp	00217$
    00000741 C3r59r07         [10] 1364 	jp	00209$
    00000744 C3rC5r08         [10] 1365 	jp	00213$
    00000747 C3r6Ar08         [10] 1366 	jp	00212$
    0000074A C3rDBr09         [10] 1367 	jp	00215$
    0000074D C3rB2r07         [10] 1368 	jp	00210$
    00000750 C3r60r0A         [10] 1369 	jp	00216$
    00000753 C3r0Ar08         [10] 1370 	jp	00211$
    00000756 C3r4Er09         [10] 1371 	jp	00214$
                                   1372 ;E:\Dropbox\FAUSTO\SVILUPPI\MSX\CODE\C\MSXgl\projects\exsoccer/exsoccer_s1_b2.c:308: case DIRECTION_UP:
    00000759                       1373 00209$:
                                   1374 ;E:\Dropbox\FAUSTO\SVILUPPI\MSX\CODE\C\MSXgl\projects\exsoccer/exsoccer_s1_b2.c:309: g_Players[playerId].Y -= 2;
    00000759 DD 6E F1         [19] 1375 	ld	l, -15 (ix)
    0000075C DD 66 F2         [19] 1376 	ld	h, -14 (ix)
    0000075F 5E               [ 7] 1377 	ld	e, (hl)
    00000760 23               [ 6] 1378 	inc	hl
    00000761 56               [ 7] 1379 	ld	d, (hl)
    00000762 1B               [ 6] 1380 	dec	de
    00000763 1B               [ 6] 1381 	dec	de
    00000764 DD 6E F1         [19] 1382 	ld	l, -15 (ix)
    00000767 DD 66 F2         [19] 1383 	ld	h, -14 (ix)
    0000076A 73               [ 7] 1384 	ld	(hl), e
    0000076B 23               [ 6] 1385 	inc	hl
    0000076C 72               [ 7] 1386 	ld	(hl), d
                                   1387 ;E:\Dropbox\FAUSTO\SVILUPPI\MSX\CODE\C\MSXgl\projects\exsoccer/exsoccer_s1_b2.c:310: g_Ball.Y = g_Players[playerId].Y - distY + BallAlignCorrectY[moveDir];
    0000076D DD 6E FA         [19] 1388 	ld	l, -6 (ix)
                                   1389 ;	spillPairReg hl
                                   1390 ;	spillPairReg hl
    00000770 26 00            [ 7] 1391 	ld	h, #0x00
                                   1392 ;	spillPairReg hl
                                   1393 ;	spillPairReg hl
    00000772 7B               [ 4] 1394 	ld	a, e
    00000773 95               [ 4] 1395 	sub	a, l
    00000774 5F               [ 4] 1396 	ld	e, a
    00000775 7A               [ 4] 1397 	ld	a, d
    00000776 9C               [ 4] 1398 	sbc	a, h
    00000777 57               [ 4] 1399 	ld	d, a
    00000778 D5               [11] 1400 	push	de
    00000779 DD 5E F5         [19] 1401 	ld	e, -11 (ix)
    0000077C 16 00            [ 7] 1402 	ld	d, #0x00
    0000077E 21 1F 00         [10] 1403 	ld	hl, #31
    00000781 39               [11] 1404 	add	hl, sp
    00000782 19               [11] 1405 	add	hl, de
    00000783 D1               [10] 1406 	pop	de
    00000784 7E               [ 7] 1407 	ld	a, (hl)
    00000785 6F               [ 4] 1408 	ld	l, a
                                   1409 ;	spillPairReg hl
                                   1410 ;	spillPairReg hl
    00000786 07               [ 4] 1411 	rlca
    00000787 9F               [ 4] 1412 	sbc	a, a
    00000788 67               [ 4] 1413 	ld	h, a
                                   1414 ;	spillPairReg hl
                                   1415 ;	spillPairReg hl
    00000789 19               [11] 1416 	add	hl, de
    0000078A EB               [ 4] 1417 	ex	de, hl
    0000078B ED 53r00r00      [20] 1418 	ld	(_g_Ball), de
                                   1419 ;E:\Dropbox\FAUSTO\SVILUPPI\MSX\CODE\C\MSXgl\projects\exsoccer/exsoccer_s1_b2.c:311: g_Ball.X = g_Players[playerId].X + BallAlignCorrectX[moveDir];
    0000078F DD 6E FB         [19] 1420 	ld	l, -5 (ix)
    00000792 DD 66 FC         [19] 1421 	ld	h, -4 (ix)
    00000795 5E               [ 7] 1422 	ld	e, (hl)
    00000796 23               [ 6] 1423 	inc	hl
    00000797 56               [ 7] 1424 	ld	d, (hl)
    00000798 D5               [11] 1425 	push	de
    00000799 DD 5E F5         [19] 1426 	ld	e, -11 (ix)
    0000079C 16 00            [ 7] 1427 	ld	d, #0x00
    0000079E 21 16 00         [10] 1428 	ld	hl, #22
    000007A1 39               [11] 1429 	add	hl, sp
    000007A2 19               [11] 1430 	add	hl, de
    000007A3 D1               [10] 1431 	pop	de
    000007A4 7E               [ 7] 1432 	ld	a, (hl)
    000007A5 6F               [ 4] 1433 	ld	l, a
                                   1434 ;	spillPairReg hl
                                   1435 ;	spillPairReg hl
    000007A6 07               [ 4] 1436 	rlca
    000007A7 9F               [ 4] 1437 	sbc	a, a
    000007A8 67               [ 4] 1438 	ld	h, a
                                   1439 ;	spillPairReg hl
                                   1440 ;	spillPairReg hl
    000007A9 19               [11] 1441 	add	hl, de
    000007AA EB               [ 4] 1442 	ex	de, hl
    000007AB ED 53r02r00      [20] 1443 	ld	((_g_Ball + 2)), de
                                   1444 ;E:\Dropbox\FAUSTO\SVILUPPI\MSX\CODE\C\MSXgl\projects\exsoccer/exsoccer_s1_b2.c:312: break;
    000007AF C3rE7r0A         [10] 1445 	jp	00217$
                                   1446 ;E:\Dropbox\FAUSTO\SVILUPPI\MSX\CODE\C\MSXgl\projects\exsoccer/exsoccer_s1_b2.c:313: case DIRECTION_DOWN:
    000007B2                       1447 00210$:
                                   1448 ;E:\Dropbox\FAUSTO\SVILUPPI\MSX\CODE\C\MSXgl\projects\exsoccer/exsoccer_s1_b2.c:314: g_Players[playerId].Y += 2;
    000007B2 DD 6E F1         [19] 1449 	ld	l, -15 (ix)
    000007B5 DD 66 F2         [19] 1450 	ld	h, -14 (ix)
    000007B8 5E               [ 7] 1451 	ld	e, (hl)
    000007B9 23               [ 6] 1452 	inc	hl
    000007BA 56               [ 7] 1453 	ld	d, (hl)
    000007BB 13               [ 6] 1454 	inc	de
    000007BC 13               [ 6] 1455 	inc	de
    000007BD DD 6E F1         [19] 1456 	ld	l, -15 (ix)
    000007C0 DD 66 F2         [19] 1457 	ld	h, -14 (ix)
    000007C3 73               [ 7] 1458 	ld	(hl), e
    000007C4 23               [ 6] 1459 	inc	hl
    000007C5 72               [ 7] 1460 	ld	(hl), d
                                   1461 ;E:\Dropbox\FAUSTO\SVILUPPI\MSX\CODE\C\MSXgl\projects\exsoccer/exsoccer_s1_b2.c:315: g_Ball.Y = g_Players[playerId].Y + distY + BallAlignCorrectY[moveDir]+5;
    000007C6 DD 6E FA         [19] 1462 	ld	l, -6 (ix)
                                   1463 ;	spillPairReg hl
                                   1464 ;	spillPairReg hl
    000007C9 26 00            [ 7] 1465 	ld	h, #0x00
                                   1466 ;	spillPairReg hl
                                   1467 ;	spillPairReg hl
    000007CB 19               [11] 1468 	add	hl, de
    000007CC E5               [11] 1469 	push	hl
    000007CD DD 5E F5         [19] 1470 	ld	e, -11 (ix)
    000007D0 16 00            [ 7] 1471 	ld	d, #0x00
    000007D2 21 1F 00         [10] 1472 	ld	hl, #31
    000007D5 39               [11] 1473 	add	hl, sp
    000007D6 19               [11] 1474 	add	hl, de
    000007D7 D1               [10] 1475 	pop	de
    000007D8 7E               [ 7] 1476 	ld	a, (hl)
    000007D9 6F               [ 4] 1477 	ld	l, a
                                   1478 ;	spillPairReg hl
                                   1479 ;	spillPairReg hl
    000007DA 07               [ 4] 1480 	rlca
    000007DB 9F               [ 4] 1481 	sbc	a, a
    000007DC 67               [ 4] 1482 	ld	h, a
                                   1483 ;	spillPairReg hl
                                   1484 ;	spillPairReg hl
    000007DD 19               [11] 1485 	add	hl, de
    000007DE 11 05 00         [10] 1486 	ld	de, #0x0005
    000007E1 19               [11] 1487 	add	hl, de
    000007E2 EB               [ 4] 1488 	ex	de, hl
    000007E3 ED 53r00r00      [20] 1489 	ld	(_g_Ball), de
                                   1490 ;E:\Dropbox\FAUSTO\SVILUPPI\MSX\CODE\C\MSXgl\projects\exsoccer/exsoccer_s1_b2.c:316: g_Ball.X = g_Players[playerId].X + BallAlignCorrectX[moveDir];
    000007E7 DD 6E FB         [19] 1491 	ld	l, -5 (ix)
    000007EA DD 66 FC         [19] 1492 	ld	h, -4 (ix)
    000007ED 5E               [ 7] 1493 	ld	e, (hl)
    000007EE 23               [ 6] 1494 	inc	hl
    000007EF 56               [ 7] 1495 	ld	d, (hl)
    000007F0 D5               [11] 1496 	push	de
    000007F1 DD 5E F5         [19] 1497 	ld	e, -11 (ix)
    000007F4 16 00            [ 7] 1498 	ld	d, #0x00
    000007F6 21 16 00         [10] 1499 	ld	hl, #22
    000007F9 39               [11] 1500 	add	hl, sp
    000007FA 19               [11] 1501 	add	hl, de
    000007FB D1               [10] 1502 	pop	de
    000007FC 7E               [ 7] 1503 	ld	a, (hl)
    000007FD 6F               [ 4] 1504 	ld	l, a
                                   1505 ;	spillPairReg hl
                                   1506 ;	spillPairReg hl
    000007FE 07               [ 4] 1507 	rlca
    000007FF 9F               [ 4] 1508 	sbc	a, a
    00000800 67               [ 4] 1509 	ld	h, a
                                   1510 ;	spillPairReg hl
                                   1511 ;	spillPairReg hl
    00000801 19               [11] 1512 	add	hl, de
    00000802 EB               [ 4] 1513 	ex	de, hl
    00000803 ED 53r02r00      [20] 1514 	ld	((_g_Ball + 2)), de
                                   1515 ;E:\Dropbox\FAUSTO\SVILUPPI\MSX\CODE\C\MSXgl\projects\exsoccer/exsoccer_s1_b2.c:317: break;
    00000807 C3rE7r0A         [10] 1516 	jp	00217$
                                   1517 ;E:\Dropbox\FAUSTO\SVILUPPI\MSX\CODE\C\MSXgl\projects\exsoccer/exsoccer_s1_b2.c:318: case DIRECTION_LEFT:
    0000080A                       1518 00211$:
                                   1519 ;E:\Dropbox\FAUSTO\SVILUPPI\MSX\CODE\C\MSXgl\projects\exsoccer/exsoccer_s1_b2.c:319: g_Players[playerId].X -= 2;
    0000080A DD 6E FB         [19] 1520 	ld	l, -5 (ix)
    0000080D DD 66 FC         [19] 1521 	ld	h, -4 (ix)
    00000810 5E               [ 7] 1522 	ld	e, (hl)
    00000811 23               [ 6] 1523 	inc	hl
    00000812 56               [ 7] 1524 	ld	d, (hl)
    00000813 1B               [ 6] 1525 	dec	de
    00000814 1B               [ 6] 1526 	dec	de
    00000815 DD 6E FB         [19] 1527 	ld	l, -5 (ix)
    00000818 DD 66 FC         [19] 1528 	ld	h, -4 (ix)
    0000081B 73               [ 7] 1529 	ld	(hl), e
    0000081C 23               [ 6] 1530 	inc	hl
    0000081D 72               [ 7] 1531 	ld	(hl), d
                                   1532 ;E:\Dropbox\FAUSTO\SVILUPPI\MSX\CODE\C\MSXgl\projects\exsoccer/exsoccer_s1_b2.c:320: g_Ball.X = g_Players[playerId].X - distX + BallAlignCorrectX[moveDir];
    0000081E DD 6E FD         [19] 1533 	ld	l, -3 (ix)
                                   1534 ;	spillPairReg hl
                                   1535 ;	spillPairReg hl
    00000821 26 00            [ 7] 1536 	ld	h, #0x00
                                   1537 ;	spillPairReg hl
                                   1538 ;	spillPairReg hl
    00000823 7B               [ 4] 1539 	ld	a, e
    00000824 95               [ 4] 1540 	sub	a, l
    00000825 5F               [ 4] 1541 	ld	e, a
    00000826 7A               [ 4] 1542 	ld	a, d
    00000827 9C               [ 4] 1543 	sbc	a, h
    00000828 57               [ 4] 1544 	ld	d, a
    00000829 D5               [11] 1545 	push	de
    0000082A DD 5E F5         [19] 1546 	ld	e, -11 (ix)
    0000082D 16 00            [ 7] 1547 	ld	d, #0x00
    0000082F 21 16 00         [10] 1548 	ld	hl, #22
    00000832 39               [11] 1549 	add	hl, sp
    00000833 19               [11] 1550 	add	hl, de
    00000834 D1               [10] 1551 	pop	de
    00000835 7E               [ 7] 1552 	ld	a, (hl)
    00000836 6F               [ 4] 1553 	ld	l, a
                                   1554 ;	spillPairReg hl
                                   1555 ;	spillPairReg hl
    00000837 07               [ 4] 1556 	rlca
    00000838 9F               [ 4] 1557 	sbc	a, a
    00000839 67               [ 4] 1558 	ld	h, a
                                   1559 ;	spillPairReg hl
                                   1560 ;	spillPairReg hl
    0000083A 19               [11] 1561 	add	hl, de
    0000083B EB               [ 4] 1562 	ex	de, hl
    0000083C ED 53r02r00      [20] 1563 	ld	((_g_Ball + 2)), de
                                   1564 ;E:\Dropbox\FAUSTO\SVILUPPI\MSX\CODE\C\MSXgl\projects\exsoccer/exsoccer_s1_b2.c:321: g_Ball.Y = g_Players[playerId].Y + BallAlignCorrectY[moveDir]-4;
    00000840 DD 6E F1         [19] 1565 	ld	l, -15 (ix)
    00000843 DD 66 F2         [19] 1566 	ld	h, -14 (ix)
    00000846 5E               [ 7] 1567 	ld	e, (hl)
    00000847 23               [ 6] 1568 	inc	hl
    00000848 56               [ 7] 1569 	ld	d, (hl)
    00000849 D5               [11] 1570 	push	de
    0000084A DD 5E F5         [19] 1571 	ld	e, -11 (ix)
    0000084D 16 00            [ 7] 1572 	ld	d, #0x00
    0000084F 21 1F 00         [10] 1573 	ld	hl, #31
    00000852 39               [11] 1574 	add	hl, sp
    00000853 19               [11] 1575 	add	hl, de
    00000854 D1               [10] 1576 	pop	de
    00000855 7E               [ 7] 1577 	ld	a, (hl)
    00000856 6F               [ 4] 1578 	ld	l, a
                                   1579 ;	spillPairReg hl
                                   1580 ;	spillPairReg hl
    00000857 07               [ 4] 1581 	rlca
    00000858 9F               [ 4] 1582 	sbc	a, a
    00000859 67               [ 4] 1583 	ld	h, a
                                   1584 ;	spillPairReg hl
                                   1585 ;	spillPairReg hl
    0000085A 19               [11] 1586 	add	hl, de
    0000085B 7D               [ 4] 1587 	ld	a, l
    0000085C C6 FC            [ 7] 1588 	add	a, #0xfc
    0000085E 5F               [ 4] 1589 	ld	e, a
    0000085F 7C               [ 4] 1590 	ld	a, h
    00000860 CE FF            [ 7] 1591 	adc	a, #0xff
    00000862 57               [ 4] 1592 	ld	d, a
    00000863 ED 53r00r00      [20] 1593 	ld	(_g_Ball), de
                                   1594 ;E:\Dropbox\FAUSTO\SVILUPPI\MSX\CODE\C\MSXgl\projects\exsoccer/exsoccer_s1_b2.c:322: break;
    00000867 C3rE7r0A         [10] 1595 	jp	00217$
                                   1596 ;E:\Dropbox\FAUSTO\SVILUPPI\MSX\CODE\C\MSXgl\projects\exsoccer/exsoccer_s1_b2.c:323: case DIRECTION_RIGHT:
    0000086A                       1597 00212$:
                                   1598 ;E:\Dropbox\FAUSTO\SVILUPPI\MSX\CODE\C\MSXgl\projects\exsoccer/exsoccer_s1_b2.c:324: g_Players[playerId].X += 2;
    0000086A DD 6E FB         [19] 1599 	ld	l, -5 (ix)
    0000086D DD 66 FC         [19] 1600 	ld	h, -4 (ix)
    00000870 5E               [ 7] 1601 	ld	e, (hl)
    00000871 23               [ 6] 1602 	inc	hl
    00000872 56               [ 7] 1603 	ld	d, (hl)
    00000873 13               [ 6] 1604 	inc	de
    00000874 13               [ 6] 1605 	inc	de
    00000875 DD 6E FB         [19] 1606 	ld	l, -5 (ix)
    00000878 DD 66 FC         [19] 1607 	ld	h, -4 (ix)
    0000087B 73               [ 7] 1608 	ld	(hl), e
    0000087C 23               [ 6] 1609 	inc	hl
    0000087D 72               [ 7] 1610 	ld	(hl), d
                                   1611 ;E:\Dropbox\FAUSTO\SVILUPPI\MSX\CODE\C\MSXgl\projects\exsoccer/exsoccer_s1_b2.c:325: g_Ball.X = g_Players[playerId].X + distX + BallAlignCorrectX[moveDir];
    0000087E DD 6E FD         [19] 1612 	ld	l, -3 (ix)
                                   1613 ;	spillPairReg hl
                                   1614 ;	spillPairReg hl
    00000881 26 00            [ 7] 1615 	ld	h, #0x00
                                   1616 ;	spillPairReg hl
                                   1617 ;	spillPairReg hl
    00000883 19               [11] 1618 	add	hl, de
    00000884 E5               [11] 1619 	push	hl
    00000885 DD 5E F5         [19] 1620 	ld	e, -11 (ix)
    00000888 16 00            [ 7] 1621 	ld	d, #0x00
    0000088A 21 16 00         [10] 1622 	ld	hl, #22
    0000088D 39               [11] 1623 	add	hl, sp
    0000088E 19               [11] 1624 	add	hl, de
    0000088F D1               [10] 1625 	pop	de
    00000890 7E               [ 7] 1626 	ld	a, (hl)
    00000891 6F               [ 4] 1627 	ld	l, a
                                   1628 ;	spillPairReg hl
                                   1629 ;	spillPairReg hl
    00000892 07               [ 4] 1630 	rlca
    00000893 9F               [ 4] 1631 	sbc	a, a
    00000894 67               [ 4] 1632 	ld	h, a
                                   1633 ;	spillPairReg hl
                                   1634 ;	spillPairReg hl
    00000895 19               [11] 1635 	add	hl, de
    00000896 EB               [ 4] 1636 	ex	de, hl
    00000897 ED 53r02r00      [20] 1637 	ld	((_g_Ball + 2)), de
                                   1638 ;E:\Dropbox\FAUSTO\SVILUPPI\MSX\CODE\C\MSXgl\projects\exsoccer/exsoccer_s1_b2.c:326: g_Ball.Y = g_Players[playerId].Y + BallAlignCorrectY[moveDir]-4;
    0000089B DD 6E F1         [19] 1639 	ld	l, -15 (ix)
    0000089E DD 66 F2         [19] 1640 	ld	h, -14 (ix)
    000008A1 5E               [ 7] 1641 	ld	e, (hl)
    000008A2 23               [ 6] 1642 	inc	hl
    000008A3 56               [ 7] 1643 	ld	d, (hl)
    000008A4 D5               [11] 1644 	push	de
    000008A5 DD 5E F5         [19] 1645 	ld	e, -11 (ix)
    000008A8 16 00            [ 7] 1646 	ld	d, #0x00
    000008AA 21 1F 00         [10] 1647 	ld	hl, #31
    000008AD 39               [11] 1648 	add	hl, sp
    000008AE 19               [11] 1649 	add	hl, de
    000008AF D1               [10] 1650 	pop	de
    000008B0 7E               [ 7] 1651 	ld	a, (hl)
    000008B1 6F               [ 4] 1652 	ld	l, a
                                   1653 ;	spillPairReg hl
                                   1654 ;	spillPairReg hl
    000008B2 07               [ 4] 1655 	rlca
    000008B3 9F               [ 4] 1656 	sbc	a, a
    000008B4 67               [ 4] 1657 	ld	h, a
                                   1658 ;	spillPairReg hl
                                   1659 ;	spillPairReg hl
    000008B5 19               [11] 1660 	add	hl, de
    000008B6 7D               [ 4] 1661 	ld	a, l
    000008B7 C6 FC            [ 7] 1662 	add	a, #0xfc
    000008B9 5F               [ 4] 1663 	ld	e, a
    000008BA 7C               [ 4] 1664 	ld	a, h
    000008BB CE FF            [ 7] 1665 	adc	a, #0xff
    000008BD 57               [ 4] 1666 	ld	d, a
    000008BE ED 53r00r00      [20] 1667 	ld	(_g_Ball), de
                                   1668 ;E:\Dropbox\FAUSTO\SVILUPPI\MSX\CODE\C\MSXgl\projects\exsoccer/exsoccer_s1_b2.c:327: break;
    000008C2 C3rE7r0A         [10] 1669 	jp	00217$
                                   1670 ;E:\Dropbox\FAUSTO\SVILUPPI\MSX\CODE\C\MSXgl\projects\exsoccer/exsoccer_s1_b2.c:328: case DIRECTION_UP_RIGHT:
    000008C5                       1671 00213$:
                                   1672 ;E:\Dropbox\FAUSTO\SVILUPPI\MSX\CODE\C\MSXgl\projects\exsoccer/exsoccer_s1_b2.c:329: g_Players[playerId].Y -= diagStep;
    000008C5 DD 6E F1         [19] 1673 	ld	l, -15 (ix)
    000008C8 DD 66 F2         [19] 1674 	ld	h, -14 (ix)
    000008CB 7E               [ 7] 1675 	ld	a, (hl)
    000008CC 23               [ 6] 1676 	inc	hl
    000008CD 66               [ 7] 1677 	ld	h, (hl)
                                   1678 ;	spillPairReg hl
    000008CE 6F               [ 4] 1679 	ld	l, a
                                   1680 ;	spillPairReg hl
                                   1681 ;	spillPairReg hl
    000008CF DD 5E F8         [19] 1682 	ld	e, -8 (ix)
    000008D2 16 00            [ 7] 1683 	ld	d, #0x00
    000008D4 BF               [ 4] 1684 	cp	a, a
    000008D5 ED 52            [15] 1685 	sbc	hl, de
    000008D7 E3               [19] 1686 	ex	(sp), hl
    000008D8 DD 6E F1         [19] 1687 	ld	l, -15 (ix)
    000008DB DD 66 F2         [19] 1688 	ld	h, -14 (ix)
    000008DE DD 7E C3         [19] 1689 	ld	a, -61 (ix)
    000008E1 77               [ 7] 1690 	ld	(hl), a
    000008E2 23               [ 6] 1691 	inc	hl
    000008E3 DD 7E C4         [19] 1692 	ld	a, -60 (ix)
    000008E6 77               [ 7] 1693 	ld	(hl), a
                                   1694 ;E:\Dropbox\FAUSTO\SVILUPPI\MSX\CODE\C\MSXgl\projects\exsoccer/exsoccer_s1_b2.c:330: g_Players[playerId].X += diagStep;
    000008E7 DD 6E FB         [19] 1695 	ld	l, -5 (ix)
    000008EA DD 66 FC         [19] 1696 	ld	h, -4 (ix)
    000008ED 7E               [ 7] 1697 	ld	a, (hl)
    000008EE 23               [ 6] 1698 	inc	hl
    000008EF 66               [ 7] 1699 	ld	h, (hl)
                                   1700 ;	spillPairReg hl
    000008F0 6F               [ 4] 1701 	ld	l, a
                                   1702 ;	spillPairReg hl
                                   1703 ;	spillPairReg hl
    000008F1 19               [11] 1704 	add	hl, de
    000008F2 DD 75 F8         [19] 1705 	ld	-8 (ix), l
    000008F5 DD 74 F9         [19] 1706 	ld	-7 (ix), h
    000008F8 DD 6E FB         [19] 1707 	ld	l, -5 (ix)
    000008FB DD 66 FC         [19] 1708 	ld	h, -4 (ix)
    000008FE DD 7E F8         [19] 1709 	ld	a, -8 (ix)
    00000901 77               [ 7] 1710 	ld	(hl), a
    00000902 23               [ 6] 1711 	inc	hl
    00000903 DD 7E F9         [19] 1712 	ld	a, -7 (ix)
    00000906 77               [ 7] 1713 	ld	(hl), a
                                   1714 ;E:\Dropbox\FAUSTO\SVILUPPI\MSX\CODE\C\MSXgl\projects\exsoccer/exsoccer_s1_b2.c:331: g_Ball.Y = g_Players[playerId].Y - distY + BallAlignCorrectY[moveDir];
    00000907 DD 5E FA         [19] 1715 	ld	e, -6 (ix)
    0000090A 16 00            [ 7] 1716 	ld	d, #0x00
    0000090C E1               [10] 1717 	pop	hl
    0000090D E5               [11] 1718 	push	hl
    0000090E BF               [ 4] 1719 	cp	a, a
    0000090F ED 52            [15] 1720 	sbc	hl, de
    00000911 E5               [11] 1721 	push	hl
    00000912 DD 5E F5         [19] 1722 	ld	e, -11 (ix)
    00000915 16 00            [ 7] 1723 	ld	d, #0x00
    00000917 21 1F 00         [10] 1724 	ld	hl, #31
    0000091A 39               [11] 1725 	add	hl, sp
    0000091B 19               [11] 1726 	add	hl, de
    0000091C D1               [10] 1727 	pop	de
    0000091D 7E               [ 7] 1728 	ld	a, (hl)
    0000091E 6F               [ 4] 1729 	ld	l, a
                                   1730 ;	spillPairReg hl
                                   1731 ;	spillPairReg hl
    0000091F 07               [ 4] 1732 	rlca
    00000920 9F               [ 4] 1733 	sbc	a, a
    00000921 67               [ 4] 1734 	ld	h, a
                                   1735 ;	spillPairReg hl
                                   1736 ;	spillPairReg hl
    00000922 19               [11] 1737 	add	hl, de
    00000923 EB               [ 4] 1738 	ex	de, hl
    00000924 ED 53r00r00      [20] 1739 	ld	(_g_Ball), de
                                   1740 ;E:\Dropbox\FAUSTO\SVILUPPI\MSX\CODE\C\MSXgl\projects\exsoccer/exsoccer_s1_b2.c:332: g_Ball.X = g_Players[playerId].X + distX + BallAlignCorrectX[moveDir];
    00000928 DD 6E FD         [19] 1741 	ld	l, -3 (ix)
                                   1742 ;	spillPairReg hl
                                   1743 ;	spillPairReg hl
    0000092B 26 00            [ 7] 1744 	ld	h, #0x00
                                   1745 ;	spillPairReg hl
                                   1746 ;	spillPairReg hl
    0000092D DD 5E F8         [19] 1747 	ld	e, -8 (ix)
    00000930 DD 56 F9         [19] 1748 	ld	d, -7 (ix)
    00000933 19               [11] 1749 	add	hl, de
    00000934 E5               [11] 1750 	push	hl
    00000935 DD 5E F5         [19] 1751 	ld	e, -11 (ix)
    00000938 16 00            [ 7] 1752 	ld	d, #0x00
    0000093A 21 16 00         [10] 1753 	ld	hl, #22
    0000093D 39               [11] 1754 	add	hl, sp
    0000093E 19               [11] 1755 	add	hl, de
    0000093F D1               [10] 1756 	pop	de
    00000940 7E               [ 7] 1757 	ld	a, (hl)
    00000941 6F               [ 4] 1758 	ld	l, a
                                   1759 ;	spillPairReg hl
                                   1760 ;	spillPairReg hl
    00000942 07               [ 4] 1761 	rlca
    00000943 9F               [ 4] 1762 	sbc	a, a
    00000944 67               [ 4] 1763 	ld	h, a
                                   1764 ;	spillPairReg hl
                                   1765 ;	spillPairReg hl
    00000945 19               [11] 1766 	add	hl, de
    00000946 EB               [ 4] 1767 	ex	de, hl
    00000947 ED 53r02r00      [20] 1768 	ld	((_g_Ball + 2)), de
                                   1769 ;E:\Dropbox\FAUSTO\SVILUPPI\MSX\CODE\C\MSXgl\projects\exsoccer/exsoccer_s1_b2.c:333: break;
    0000094B C3rE7r0A         [10] 1770 	jp	00217$
                                   1771 ;E:\Dropbox\FAUSTO\SVILUPPI\MSX\CODE\C\MSXgl\projects\exsoccer/exsoccer_s1_b2.c:334: case DIRECTION_UP_LEFT:
    0000094E                       1772 00214$:
                                   1773 ;E:\Dropbox\FAUSTO\SVILUPPI\MSX\CODE\C\MSXgl\projects\exsoccer/exsoccer_s1_b2.c:335: g_Players[playerId].Y -= diagStep;
    0000094E DD 6E F1         [19] 1774 	ld	l, -15 (ix)
    00000951 DD 66 F2         [19] 1775 	ld	h, -14 (ix)
    00000954 7E               [ 7] 1776 	ld	a, (hl)
    00000955 23               [ 6] 1777 	inc	hl
    00000956 66               [ 7] 1778 	ld	h, (hl)
                                   1779 ;	spillPairReg hl
    00000957 6F               [ 4] 1780 	ld	l, a
                                   1781 ;	spillPairReg hl
                                   1782 ;	spillPairReg hl
    00000958 DD 5E F8         [19] 1783 	ld	e, -8 (ix)
    0000095B 16 00            [ 7] 1784 	ld	d, #0x00
    0000095D BF               [ 4] 1785 	cp	a, a
    0000095E ED 52            [15] 1786 	sbc	hl, de
    00000960 E3               [19] 1787 	ex	(sp), hl
    00000961 DD 6E F1         [19] 1788 	ld	l, -15 (ix)
    00000964 DD 66 F2         [19] 1789 	ld	h, -14 (ix)
    00000967 DD 7E C3         [19] 1790 	ld	a, -61 (ix)
    0000096A 77               [ 7] 1791 	ld	(hl), a
    0000096B 23               [ 6] 1792 	inc	hl
    0000096C DD 7E C4         [19] 1793 	ld	a, -60 (ix)
    0000096F 77               [ 7] 1794 	ld	(hl), a
                                   1795 ;E:\Dropbox\FAUSTO\SVILUPPI\MSX\CODE\C\MSXgl\projects\exsoccer/exsoccer_s1_b2.c:336: g_Players[playerId].X -= diagStep;
    00000970 DD 6E FB         [19] 1796 	ld	l, -5 (ix)
    00000973 DD 66 FC         [19] 1797 	ld	h, -4 (ix)
    00000976 7E               [ 7] 1798 	ld	a, (hl)
    00000977 23               [ 6] 1799 	inc	hl
    00000978 66               [ 7] 1800 	ld	h, (hl)
                                   1801 ;	spillPairReg hl
    00000979 6F               [ 4] 1802 	ld	l, a
                                   1803 ;	spillPairReg hl
                                   1804 ;	spillPairReg hl
    0000097A BF               [ 4] 1805 	cp	a, a
    0000097B ED 52            [15] 1806 	sbc	hl, de
    0000097D DD 75 F8         [19] 1807 	ld	-8 (ix), l
    00000980 DD 74 F9         [19] 1808 	ld	-7 (ix), h
    00000983 DD 6E FB         [19] 1809 	ld	l, -5 (ix)
    00000986 DD 66 FC         [19] 1810 	ld	h, -4 (ix)
    00000989 DD 7E F8         [19] 1811 	ld	a, -8 (ix)
    0000098C 77               [ 7] 1812 	ld	(hl), a
    0000098D 23               [ 6] 1813 	inc	hl
    0000098E DD 7E F9         [19] 1814 	ld	a, -7 (ix)
    00000991 77               [ 7] 1815 	ld	(hl), a
                                   1816 ;E:\Dropbox\FAUSTO\SVILUPPI\MSX\CODE\C\MSXgl\projects\exsoccer/exsoccer_s1_b2.c:337: g_Ball.Y = g_Players[playerId].Y - distY + BallAlignCorrectY[moveDir];
    00000992 DD 5E FA         [19] 1817 	ld	e, -6 (ix)
    00000995 16 00            [ 7] 1818 	ld	d, #0x00
    00000997 E1               [10] 1819 	pop	hl
    00000998 E5               [11] 1820 	push	hl
    00000999 BF               [ 4] 1821 	cp	a, a
    0000099A ED 52            [15] 1822 	sbc	hl, de
    0000099C E5               [11] 1823 	push	hl
    0000099D DD 5E F5         [19] 1824 	ld	e, -11 (ix)
    000009A0 16 00            [ 7] 1825 	ld	d, #0x00
    000009A2 21 1F 00         [10] 1826 	ld	hl, #31
    000009A5 39               [11] 1827 	add	hl, sp
    000009A6 19               [11] 1828 	add	hl, de
    000009A7 D1               [10] 1829 	pop	de
    000009A8 7E               [ 7] 1830 	ld	a, (hl)
    000009A9 6F               [ 4] 1831 	ld	l, a
                                   1832 ;	spillPairReg hl
                                   1833 ;	spillPairReg hl
    000009AA 07               [ 4] 1834 	rlca
    000009AB 9F               [ 4] 1835 	sbc	a, a
    000009AC 67               [ 4] 1836 	ld	h, a
                                   1837 ;	spillPairReg hl
                                   1838 ;	spillPairReg hl
    000009AD 19               [11] 1839 	add	hl, de
    000009AE EB               [ 4] 1840 	ex	de, hl
    000009AF ED 53r00r00      [20] 1841 	ld	(_g_Ball), de
                                   1842 ;E:\Dropbox\FAUSTO\SVILUPPI\MSX\CODE\C\MSXgl\projects\exsoccer/exsoccer_s1_b2.c:338: g_Ball.X = g_Players[playerId].X - distX + BallAlignCorrectX[moveDir];
    000009B3 DD 5E FD         [19] 1843 	ld	e, -3 (ix)
    000009B6 16 00            [ 7] 1844 	ld	d, #0x00
    000009B8 DD 6E F8         [19] 1845 	ld	l, -8 (ix)
                                   1846 ;	spillPairReg hl
                                   1847 ;	spillPairReg hl
    000009BB DD 66 F9         [19] 1848 	ld	h, -7 (ix)
                                   1849 ;	spillPairReg hl
                                   1850 ;	spillPairReg hl
    000009BE BF               [ 4] 1851 	cp	a, a
    000009BF ED 52            [15] 1852 	sbc	hl, de
    000009C1 E5               [11] 1853 	push	hl
    000009C2 DD 5E F5         [19] 1854 	ld	e, -11 (ix)
    000009C5 16 00            [ 7] 1855 	ld	d, #0x00
    000009C7 21 16 00         [10] 1856 	ld	hl, #22
    000009CA 39               [11] 1857 	add	hl, sp
    000009CB 19               [11] 1858 	add	hl, de
    000009CC D1               [10] 1859 	pop	de
    000009CD 7E               [ 7] 1860 	ld	a, (hl)
    000009CE 6F               [ 4] 1861 	ld	l, a
                                   1862 ;	spillPairReg hl
                                   1863 ;	spillPairReg hl
    000009CF 07               [ 4] 1864 	rlca
    000009D0 9F               [ 4] 1865 	sbc	a, a
    000009D1 67               [ 4] 1866 	ld	h, a
                                   1867 ;	spillPairReg hl
                                   1868 ;	spillPairReg hl
    000009D2 19               [11] 1869 	add	hl, de
    000009D3 EB               [ 4] 1870 	ex	de, hl
    000009D4 ED 53r02r00      [20] 1871 	ld	((_g_Ball + 2)), de
                                   1872 ;E:\Dropbox\FAUSTO\SVILUPPI\MSX\CODE\C\MSXgl\projects\exsoccer/exsoccer_s1_b2.c:339: break;
    000009D8 C3rE7r0A         [10] 1873 	jp	00217$
                                   1874 ;E:\Dropbox\FAUSTO\SVILUPPI\MSX\CODE\C\MSXgl\projects\exsoccer/exsoccer_s1_b2.c:340: case DIRECTION_DOWN_RIGHT:
    000009DB                       1875 00215$:
                                   1876 ;E:\Dropbox\FAUSTO\SVILUPPI\MSX\CODE\C\MSXgl\projects\exsoccer/exsoccer_s1_b2.c:341: g_Players[playerId].Y += diagStep;
    000009DB DD 6E F1         [19] 1877 	ld	l, -15 (ix)
    000009DE DD 66 F2         [19] 1878 	ld	h, -14 (ix)
    000009E1 7E               [ 7] 1879 	ld	a, (hl)
    000009E2 23               [ 6] 1880 	inc	hl
    000009E3 66               [ 7] 1881 	ld	h, (hl)
                                   1882 ;	spillPairReg hl
    000009E4 6F               [ 4] 1883 	ld	l, a
                                   1884 ;	spillPairReg hl
                                   1885 ;	spillPairReg hl
    000009E5 DD 5E F8         [19] 1886 	ld	e, -8 (ix)
    000009E8 16 00            [ 7] 1887 	ld	d, #0x00
    000009EA 19               [11] 1888 	add	hl, de
    000009EB E3               [19] 1889 	ex	(sp), hl
    000009EC DD 6E F1         [19] 1890 	ld	l, -15 (ix)
    000009EF DD 66 F2         [19] 1891 	ld	h, -14 (ix)
    000009F2 DD 7E C3         [19] 1892 	ld	a, -61 (ix)
    000009F5 77               [ 7] 1893 	ld	(hl), a
    000009F6 23               [ 6] 1894 	inc	hl
    000009F7 DD 7E C4         [19] 1895 	ld	a, -60 (ix)
    000009FA 77               [ 7] 1896 	ld	(hl), a
                                   1897 ;E:\Dropbox\FAUSTO\SVILUPPI\MSX\CODE\C\MSXgl\projects\exsoccer/exsoccer_s1_b2.c:342: g_Players[playerId].X += diagStep;
    000009FB DD 6E FB         [19] 1898 	ld	l, -5 (ix)
    000009FE DD 66 FC         [19] 1899 	ld	h, -4 (ix)
    00000A01 7E               [ 7] 1900 	ld	a, (hl)
    00000A02 23               [ 6] 1901 	inc	hl
    00000A03 66               [ 7] 1902 	ld	h, (hl)
                                   1903 ;	spillPairReg hl
    00000A04 6F               [ 4] 1904 	ld	l, a
                                   1905 ;	spillPairReg hl
                                   1906 ;	spillPairReg hl
    00000A05 19               [11] 1907 	add	hl, de
    00000A06 DD 75 F8         [19] 1908 	ld	-8 (ix), l
    00000A09 DD 74 F9         [19] 1909 	ld	-7 (ix), h
    00000A0C DD 6E FB         [19] 1910 	ld	l, -5 (ix)
    00000A0F DD 66 FC         [19] 1911 	ld	h, -4 (ix)
    00000A12 DD 7E F8         [19] 1912 	ld	a, -8 (ix)
    00000A15 77               [ 7] 1913 	ld	(hl), a
    00000A16 23               [ 6] 1914 	inc	hl
    00000A17 DD 7E F9         [19] 1915 	ld	a, -7 (ix)
    00000A1A 77               [ 7] 1916 	ld	(hl), a
                                   1917 ;E:\Dropbox\FAUSTO\SVILUPPI\MSX\CODE\C\MSXgl\projects\exsoccer/exsoccer_s1_b2.c:343: g_Ball.Y = g_Players[playerId].Y + distY + BallAlignCorrectY[moveDir];
    00000A1B DD 6E FA         [19] 1918 	ld	l, -6 (ix)
                                   1919 ;	spillPairReg hl
                                   1920 ;	spillPairReg hl
    00000A1E 26 00            [ 7] 1921 	ld	h, #0x00
                                   1922 ;	spillPairReg hl
                                   1923 ;	spillPairReg hl
    00000A20 D1               [10] 1924 	pop	de
    00000A21 D5               [11] 1925 	push	de
    00000A22 19               [11] 1926 	add	hl, de
    00000A23 E5               [11] 1927 	push	hl
    00000A24 DD 5E F5         [19] 1928 	ld	e, -11 (ix)
    00000A27 16 00            [ 7] 1929 	ld	d, #0x00
    00000A29 21 1F 00         [10] 1930 	ld	hl, #31
    00000A2C 39               [11] 1931 	add	hl, sp
    00000A2D 19               [11] 1932 	add	hl, de
    00000A2E D1               [10] 1933 	pop	de
    00000A2F 7E               [ 7] 1934 	ld	a, (hl)
    00000A30 6F               [ 4] 1935 	ld	l, a
                                   1936 ;	spillPairReg hl
                                   1937 ;	spillPairReg hl
    00000A31 07               [ 4] 1938 	rlca
    00000A32 9F               [ 4] 1939 	sbc	a, a
    00000A33 67               [ 4] 1940 	ld	h, a
                                   1941 ;	spillPairReg hl
                                   1942 ;	spillPairReg hl
    00000A34 19               [11] 1943 	add	hl, de
    00000A35 EB               [ 4] 1944 	ex	de, hl
    00000A36 ED 53r00r00      [20] 1945 	ld	(_g_Ball), de
                                   1946 ;E:\Dropbox\FAUSTO\SVILUPPI\MSX\CODE\C\MSXgl\projects\exsoccer/exsoccer_s1_b2.c:344: g_Ball.X = g_Players[playerId].X + distX + BallAlignCorrectX[moveDir];
    00000A3A DD 6E FD         [19] 1947 	ld	l, -3 (ix)
                                   1948 ;	spillPairReg hl
                                   1949 ;	spillPairReg hl
    00000A3D 26 00            [ 7] 1950 	ld	h, #0x00
                                   1951 ;	spillPairReg hl
                                   1952 ;	spillPairReg hl
    00000A3F DD 5E F8         [19] 1953 	ld	e, -8 (ix)
    00000A42 DD 56 F9         [19] 1954 	ld	d, -7 (ix)
    00000A45 19               [11] 1955 	add	hl, de
    00000A46 E5               [11] 1956 	push	hl
    00000A47 DD 5E F5         [19] 1957 	ld	e, -11 (ix)
    00000A4A 16 00            [ 7] 1958 	ld	d, #0x00
    00000A4C 21 16 00         [10] 1959 	ld	hl, #22
    00000A4F 39               [11] 1960 	add	hl, sp
    00000A50 19               [11] 1961 	add	hl, de
    00000A51 D1               [10] 1962 	pop	de
    00000A52 7E               [ 7] 1963 	ld	a, (hl)
    00000A53 6F               [ 4] 1964 	ld	l, a
                                   1965 ;	spillPairReg hl
                                   1966 ;	spillPairReg hl
    00000A54 07               [ 4] 1967 	rlca
    00000A55 9F               [ 4] 1968 	sbc	a, a
    00000A56 67               [ 4] 1969 	ld	h, a
                                   1970 ;	spillPairReg hl
                                   1971 ;	spillPairReg hl
    00000A57 19               [11] 1972 	add	hl, de
    00000A58 EB               [ 4] 1973 	ex	de, hl
    00000A59 ED 53r02r00      [20] 1974 	ld	((_g_Ball + 2)), de
                                   1975 ;E:\Dropbox\FAUSTO\SVILUPPI\MSX\CODE\C\MSXgl\projects\exsoccer/exsoccer_s1_b2.c:345: break;
    00000A5D C3rE7r0A         [10] 1976 	jp	00217$
                                   1977 ;E:\Dropbox\FAUSTO\SVILUPPI\MSX\CODE\C\MSXgl\projects\exsoccer/exsoccer_s1_b2.c:346: case DIRECTION_DOWN_LEFT:
    00000A60                       1978 00216$:
                                   1979 ;E:\Dropbox\FAUSTO\SVILUPPI\MSX\CODE\C\MSXgl\projects\exsoccer/exsoccer_s1_b2.c:347: g_Players[playerId].Y += diagStep;
    00000A60 DD 6E F1         [19] 1980 	ld	l, -15 (ix)
    00000A63 DD 66 F2         [19] 1981 	ld	h, -14 (ix)
    00000A66 5E               [ 7] 1982 	ld	e, (hl)
    00000A67 23               [ 6] 1983 	inc	hl
    00000A68 56               [ 7] 1984 	ld	d, (hl)
    00000A69 DD 6E F8         [19] 1985 	ld	l, -8 (ix)
                                   1986 ;	spillPairReg hl
                                   1987 ;	spillPairReg hl
    00000A6C 26 00            [ 7] 1988 	ld	h, #0x00
                                   1989 ;	spillPairReg hl
                                   1990 ;	spillPairReg hl
    00000A6E DD 75 F8         [19] 1991 	ld	-8 (ix), l
    00000A71 DD 74 F9         [19] 1992 	ld	-7 (ix), h
    00000A74 19               [11] 1993 	add	hl, de
    00000A75 EB               [ 4] 1994 	ex	de, hl
    00000A76 DD 6E F1         [19] 1995 	ld	l, -15 (ix)
    00000A79 DD 66 F2         [19] 1996 	ld	h, -14 (ix)
    00000A7C 73               [ 7] 1997 	ld	(hl), e
    00000A7D 23               [ 6] 1998 	inc	hl
    00000A7E 72               [ 7] 1999 	ld	(hl), d
                                   2000 ;E:\Dropbox\FAUSTO\SVILUPPI\MSX\CODE\C\MSXgl\projects\exsoccer/exsoccer_s1_b2.c:348: g_Players[playerId].X -= diagStep;
    00000A7F DD 6E FB         [19] 2001 	ld	l, -5 (ix)
    00000A82 DD 66 FC         [19] 2002 	ld	h, -4 (ix)
    00000A85 7E               [ 7] 2003 	ld	a, (hl)
    00000A86 23               [ 6] 2004 	inc	hl
    00000A87 66               [ 7] 2005 	ld	h, (hl)
                                   2006 ;	spillPairReg hl
                                   2007 ;	spillPairReg hl
                                   2008 ;	spillPairReg hl
    00000A88 DD 96 F8         [19] 2009 	sub	a, -8 (ix)
    00000A8B 6F               [ 4] 2010 	ld	l, a
                                   2011 ;	spillPairReg hl
                                   2012 ;	spillPairReg hl
    00000A8C 7C               [ 4] 2013 	ld	a, h
    00000A8D DD 9E F9         [19] 2014 	sbc	a, -7 (ix)
    00000A90 DD 75 F8         [19] 2015 	ld	-8 (ix), l
    00000A93 DD 77 F9         [19] 2016 	ld	-7 (ix), a
    00000A96 DD 6E FB         [19] 2017 	ld	l, -5 (ix)
    00000A99 DD 66 FC         [19] 2018 	ld	h, -4 (ix)
    00000A9C DD 7E F8         [19] 2019 	ld	a, -8 (ix)
    00000A9F 77               [ 7] 2020 	ld	(hl), a
    00000AA0 23               [ 6] 2021 	inc	hl
    00000AA1 DD 7E F9         [19] 2022 	ld	a, -7 (ix)
    00000AA4 77               [ 7] 2023 	ld	(hl), a
                                   2024 ;E:\Dropbox\FAUSTO\SVILUPPI\MSX\CODE\C\MSXgl\projects\exsoccer/exsoccer_s1_b2.c:349: g_Ball.Y = g_Players[playerId].Y + distY + BallAlignCorrectY[moveDir];
    00000AA5 DD 6E FA         [19] 2025 	ld	l, -6 (ix)
                                   2026 ;	spillPairReg hl
                                   2027 ;	spillPairReg hl
    00000AA8 26 00            [ 7] 2028 	ld	h, #0x00
                                   2029 ;	spillPairReg hl
                                   2030 ;	spillPairReg hl
    00000AAA 19               [11] 2031 	add	hl, de
    00000AAB E5               [11] 2032 	push	hl
    00000AAC DD 5E F5         [19] 2033 	ld	e, -11 (ix)
    00000AAF 16 00            [ 7] 2034 	ld	d, #0x00
    00000AB1 21 1F 00         [10] 2035 	ld	hl, #31
    00000AB4 39               [11] 2036 	add	hl, sp
    00000AB5 19               [11] 2037 	add	hl, de
    00000AB6 D1               [10] 2038 	pop	de
    00000AB7 7E               [ 7] 2039 	ld	a, (hl)
    00000AB8 6F               [ 4] 2040 	ld	l, a
                                   2041 ;	spillPairReg hl
                                   2042 ;	spillPairReg hl
    00000AB9 07               [ 4] 2043 	rlca
    00000ABA 9F               [ 4] 2044 	sbc	a, a
    00000ABB 67               [ 4] 2045 	ld	h, a
                                   2046 ;	spillPairReg hl
                                   2047 ;	spillPairReg hl
    00000ABC 19               [11] 2048 	add	hl, de
    00000ABD EB               [ 4] 2049 	ex	de, hl
    00000ABE ED 53r00r00      [20] 2050 	ld	(_g_Ball), de
                                   2051 ;E:\Dropbox\FAUSTO\SVILUPPI\MSX\CODE\C\MSXgl\projects\exsoccer/exsoccer_s1_b2.c:350: g_Ball.X = g_Players[playerId].X - distX + BallAlignCorrectX[moveDir];
    00000AC2 DD 5E FD         [19] 2052 	ld	e, -3 (ix)
    00000AC5 16 00            [ 7] 2053 	ld	d, #0x00
    00000AC7 DD 6E F8         [19] 2054 	ld	l, -8 (ix)
                                   2055 ;	spillPairReg hl
                                   2056 ;	spillPairReg hl
    00000ACA DD 66 F9         [19] 2057 	ld	h, -7 (ix)
                                   2058 ;	spillPairReg hl
                                   2059 ;	spillPairReg hl
    00000ACD BF               [ 4] 2060 	cp	a, a
    00000ACE ED 52            [15] 2061 	sbc	hl, de
    00000AD0 E5               [11] 2062 	push	hl
    00000AD1 DD 5E F5         [19] 2063 	ld	e, -11 (ix)
    00000AD4 16 00            [ 7] 2064 	ld	d, #0x00
    00000AD6 21 16 00         [10] 2065 	ld	hl, #22
    00000AD9 39               [11] 2066 	add	hl, sp
    00000ADA 19               [11] 2067 	add	hl, de
    00000ADB D1               [10] 2068 	pop	de
    00000ADC 7E               [ 7] 2069 	ld	a, (hl)
    00000ADD 6F               [ 4] 2070 	ld	l, a
                                   2071 ;	spillPairReg hl
                                   2072 ;	spillPairReg hl
    00000ADE 07               [ 4] 2073 	rlca
    00000ADF 9F               [ 4] 2074 	sbc	a, a
    00000AE0 67               [ 4] 2075 	ld	h, a
                                   2076 ;	spillPairReg hl
                                   2077 ;	spillPairReg hl
    00000AE1 19               [11] 2078 	add	hl, de
    00000AE2 EB               [ 4] 2079 	ex	de, hl
    00000AE3 ED 53r02r00      [20] 2080 	ld	((_g_Ball + 2)), de
                                   2081 ;E:\Dropbox\FAUSTO\SVILUPPI\MSX\CODE\C\MSXgl\projects\exsoccer/exsoccer_s1_b2.c:352: }
    00000AE7                       2082 00217$:
                                   2083 ;E:\Dropbox\FAUSTO\SVILUPPI\MSX\CODE\C\MSXgl\projects\exsoccer/exsoccer_s1_b2.c:353: g_Players[playerId].TargetY=g_Players[playerId].Y;
    00000AE7 DD 7E F1         [19] 2084 	ld	a, -15 (ix)
    00000AEA C6 0E            [ 7] 2085 	add	a, #0x0e
    00000AEC DD 77 F9         [19] 2086 	ld	-7 (ix), a
    00000AEF DD 7E F2         [19] 2087 	ld	a, -14 (ix)
    00000AF2 CE 00            [ 7] 2088 	adc	a, #0x00
    00000AF4 DD 77 FA         [19] 2089 	ld	-6 (ix), a
    00000AF7 DD 6E F1         [19] 2090 	ld	l, -15 (ix)
    00000AFA DD 66 F2         [19] 2091 	ld	h, -14 (ix)
    00000AFD 5E               [ 7] 2092 	ld	e, (hl)
    00000AFE 23               [ 6] 2093 	inc	hl
    00000AFF 56               [ 7] 2094 	ld	d, (hl)
    00000B00 DD 6E F9         [19] 2095 	ld	l, -7 (ix)
    00000B03 DD 66 FA         [19] 2096 	ld	h, -6 (ix)
    00000B06 73               [ 7] 2097 	ld	(hl), e
    00000B07 23               [ 6] 2098 	inc	hl
    00000B08 72               [ 7] 2099 	ld	(hl), d
                                   2100 ;E:\Dropbox\FAUSTO\SVILUPPI\MSX\CODE\C\MSXgl\projects\exsoccer/exsoccer_s1_b2.c:354: g_Players[playerId].TargetX=g_Players[playerId].X;
    00000B09 DD 7E F1         [19] 2101 	ld	a, -15 (ix)
    00000B0C C6 10            [ 7] 2102 	add	a, #0x10
    00000B0E DD 77 F9         [19] 2103 	ld	-7 (ix), a
    00000B11 DD 7E F2         [19] 2104 	ld	a, -14 (ix)
    00000B14 CE 00            [ 7] 2105 	adc	a, #0x00
    00000B16 DD 77 FA         [19] 2106 	ld	-6 (ix), a
    00000B19 DD 6E FB         [19] 2107 	ld	l, -5 (ix)
    00000B1C DD 66 FC         [19] 2108 	ld	h, -4 (ix)
    00000B1F 5E               [ 7] 2109 	ld	e, (hl)
    00000B20 23               [ 6] 2110 	inc	hl
    00000B21 56               [ 7] 2111 	ld	d, (hl)
    00000B22 DD 6E F9         [19] 2112 	ld	l, -7 (ix)
    00000B25 DD 66 FA         [19] 2113 	ld	h, -6 (ix)
    00000B28 73               [ 7] 2114 	ld	(hl), e
    00000B29 23               [ 6] 2115 	inc	hl
    00000B2A 72               [ 7] 2116 	ld	(hl), d
                                   2117 ;E:\Dropbox\FAUSTO\SVILUPPI\MSX\CODE\C\MSXgl\projects\exsoccer/exsoccer_s1_b2.c:355: g_Players[playerId].Status=PLAYER_STATUS_HAS_BALL; 
    00000B2B DD 6E F3         [19] 2118 	ld	l, -13 (ix)
    00000B2E DD 66 F4         [19] 2119 	ld	h, -12 (ix)
    00000B31 36 01            [10] 2120 	ld	(hl), #0x01
    00000B33 23               [ 6] 2121 	inc	hl
    00000B34 36 00            [10] 2122 	ld	(hl), #0x00
                                   2123 ;E:\Dropbox\FAUSTO\SVILUPPI\MSX\CODE\C\MSXgl\projects\exsoccer/exsoccer_s1_b2.c:356: g_Players[playerId].Direction=moveDir;
    00000B36 DD 7E F1         [19] 2124 	ld	a, -15 (ix)
    00000B39 C6 0A            [ 7] 2125 	add	a, #0x0a
    00000B3B 5F               [ 4] 2126 	ld	e, a
    00000B3C DD 7E F2         [19] 2127 	ld	a, -14 (ix)
    00000B3F CE 00            [ 7] 2128 	adc	a, #0x00
    00000B41 57               [ 4] 2129 	ld	d, a
    00000B42 DD 7E F5         [19] 2130 	ld	a, -11 (ix)
    00000B45 12               [ 7] 2131 	ld	(de), a
                                   2132 ;E:\Dropbox\FAUSTO\SVILUPPI\MSX\CODE\C\MSXgl\projects\exsoccer/exsoccer_s1_b2.c:358: g_Players[playerId].PatternId=GetNoMovingPlayerPatternId(g_Players[playerId].PreviousDirection);
    00000B46 DD 7E F1         [19] 2133 	ld	a, -15 (ix)
    00000B49 C6 08            [ 7] 2134 	add	a, #0x08
    00000B4B DD 77 FC         [19] 2135 	ld	-4 (ix), a
    00000B4E DD 7E F2         [19] 2136 	ld	a, -14 (ix)
    00000B51 CE 00            [ 7] 2137 	adc	a, #0x00
    00000B53 DD 77 FD         [19] 2138 	ld	-3 (ix), a
    00000B56 DD 6E F6         [19] 2139 	ld	l, -10 (ix)
    00000B59 DD 66 F7         [19] 2140 	ld	h, -9 (ix)
    00000B5C 6E               [ 7] 2141 	ld	l, (hl)
                                   2142 ;	spillPairReg hl
    00000B5D C5               [11] 2143 	push	bc
    00000B5E D5               [11] 2144 	push	de
    00000B5F 7D               [ 4] 2145 	ld	a, l
    00000B60 CDr00r00         [17] 2146 	call	_GetNoMovingPlayerPatternId
    00000B63 D1               [10] 2147 	pop	de
    00000B64 C1               [10] 2148 	pop	bc
    00000B65 DD 6E FC         [19] 2149 	ld	l, -4 (ix)
    00000B68 DD 66 FD         [19] 2150 	ld	h, -3 (ix)
    00000B6B 77               [ 7] 2151 	ld	(hl), a
                                   2152 ;E:\Dropbox\FAUSTO\SVILUPPI\MSX\CODE\C\MSXgl\projects\exsoccer/exsoccer_s1_b2.c:359: g_Players[playerId].PreviousDirection=g_Players[playerId].Direction;
    00000B6C 1A               [ 7] 2153 	ld	a, (de)
    00000B6D DD 6E F6         [19] 2154 	ld	l, -10 (ix)
    00000B70 DD 66 F7         [19] 2155 	ld	h, -9 (ix)
    00000B73 77               [ 7] 2156 	ld	(hl), a
                                   2157 ;E:\Dropbox\FAUSTO\SVILUPPI\MSX\CODE\C\MSXgl\projects\exsoccer/exsoccer_s1_b2.c:361: g_Ball.Direction = moveDir;
    00000B74 21r05r00         [10] 2158 	ld	hl, #(_g_Ball + 5)
    00000B77 DD 7E F5         [19] 2159 	ld	a, -11 (ix)
    00000B7A 77               [ 7] 2160 	ld	(hl), a
                                   2161 ;E:\Dropbox\FAUSTO\SVILUPPI\MSX\CODE\C\MSXgl\projects\exsoccer/exsoccer_s1_b2.c:363: g_Ball.KickMoveState++;
    00000B7B 0A               [ 7] 2162 	ld	a, (bc)
    00000B7C 3C               [ 4] 2163 	inc	a
    00000B7D 5F               [ 4] 2164 	ld	e, a
    00000B7E 02               [ 7] 2165 	ld	(bc), a
                                   2166 ;E:\Dropbox\FAUSTO\SVILUPPI\MSX\CODE\C\MSXgl\projects\exsoccer/exsoccer_s1_b2.c:364: if(g_Ball.KickMoveState>3){
    00000B7F 3E 03            [ 7] 2167 	ld	a, #0x03
    00000B81 93               [ 4] 2168 	sub	a, e
    00000B82 D2r79r0D         [10] 2169 	jp	NC, 00259$
                                   2170 ;E:\Dropbox\FAUSTO\SVILUPPI\MSX\CODE\C\MSXgl\projects\exsoccer/exsoccer_s1_b2.c:365: g_Ball.KickMoveState=0;
    00000B85 AF               [ 4] 2171 	xor	a, a
    00000B86 02               [ 7] 2172 	ld	(bc), a
    00000B87 C3r79r0D         [10] 2173 	jp	00259$
    00000B8A                       2174 00257$:
                                   2175 ;E:\Dropbox\FAUSTO\SVILUPPI\MSX\CODE\C\MSXgl\projects\exsoccer/exsoccer_s1_b2.c:372: if (frameTriggerPressed) {
    00000B8A DD 7E C4         [19] 2176 	ld	a, -60 (ix)
    00000B8D B7               [ 4] 2177 	or	a, a
    00000B8E CAr39r0C         [10] 2178 	jp	Z, 00242$
                                   2179 ;E:\Dropbox\FAUSTO\SVILUPPI\MSX\CODE\C\MSXgl\projects\exsoccer/exsoccer_s1_b2.c:373: i16 dx = (i16)g_Players[playerId].X - (i16)g_Ball.X;
    00000B91 DD 6E F1         [19] 2180 	ld	l, -15 (ix)
                                   2181 ;	spillPairReg hl
                                   2182 ;	spillPairReg hl
    00000B94 DD 66 F2         [19] 2183 	ld	h, -14 (ix)
                                   2184 ;	spillPairReg hl
                                   2185 ;	spillPairReg hl
    00000B97 23               [ 6] 2186 	inc	hl
    00000B98 23               [ 6] 2187 	inc	hl
    00000B99 4E               [ 7] 2188 	ld	c, (hl)
    00000B9A 23               [ 6] 2189 	inc	hl
    00000B9B 46               [ 7] 2190 	ld	b, (hl)
    00000B9C 2Ar02r00         [16] 2191 	ld	hl, (#_g_Ball + 2)
    00000B9F 79               [ 4] 2192 	ld	a, c
    00000BA0 95               [ 4] 2193 	sub	a, l
    00000BA1 4F               [ 4] 2194 	ld	c, a
    00000BA2 78               [ 4] 2195 	ld	a, b
    00000BA3 9C               [ 4] 2196 	sbc	a, h
    00000BA4 47               [ 4] 2197 	ld	b, a
                                   2198 ;E:\Dropbox\FAUSTO\SVILUPPI\MSX\CODE\C\MSXgl\projects\exsoccer/exsoccer_s1_b2.c:374: i16 dy = (i16)g_Players[playerId].Y - (i16)g_Ball.Y;
    00000BA5 DD 6E F1         [19] 2199 	ld	l, -15 (ix)
    00000BA8 DD 66 F2         [19] 2200 	ld	h, -14 (ix)
    00000BAB 5E               [ 7] 2201 	ld	e, (hl)
    00000BAC 23               [ 6] 2202 	inc	hl
    00000BAD 56               [ 7] 2203 	ld	d, (hl)
    00000BAE 2Ar00r00         [16] 2204 	ld	hl, (#_g_Ball + 0)
    00000BB1 7B               [ 4] 2205 	ld	a, e
    00000BB2 95               [ 4] 2206 	sub	a, l
    00000BB3 5F               [ 4] 2207 	ld	e, a
    00000BB4 7A               [ 4] 2208 	ld	a, d
    00000BB5 9C               [ 4] 2209 	sbc	a, h
    00000BB6 57               [ 4] 2210 	ld	d, a
                                   2211 ;E:\Dropbox\FAUSTO\SVILUPPI\MSX\CODE\C\MSXgl\projects\exsoccer/exsoccer_s1_b2.c:377: if (dx > -16 && dx < 16 && dy > -16 && dy < 16) {
    00000BB7 3E F0            [ 7] 2212 	ld	a, #0xf0
    00000BB9 B9               [ 4] 2213 	cp	a, c
    00000BBA 3E FF            [ 7] 2214 	ld	a, #0xff
    00000BBC 98               [ 4] 2215 	sbc	a, b
    00000BBD E2rC2r0B         [10] 2216 	jp	PO, 00774$
    00000BC0 EE 80            [ 7] 2217 	xor	a, #0x80
    00000BC2                       2218 00774$:
    00000BC2 F2r39r0C         [10] 2219 	jp	P, 00242$
    00000BC5 79               [ 4] 2220 	ld	a, c
    00000BC6 D6 10            [ 7] 2221 	sub	a, #0x10
    00000BC8 78               [ 4] 2222 	ld	a, b
    00000BC9 17               [ 4] 2223 	rla
    00000BCA 3F               [ 4] 2224 	ccf
    00000BCB 1F               [ 4] 2225 	rra
    00000BCC DE 80            [ 7] 2226 	sbc	a, #0x80
    00000BCE 30 69            [12] 2227 	jr	NC, 00242$
    00000BD0 3E F0            [ 7] 2228 	ld	a, #0xf0
    00000BD2 BB               [ 4] 2229 	cp	a, e
    00000BD3 3E FF            [ 7] 2230 	ld	a, #0xff
    00000BD5 9A               [ 4] 2231 	sbc	a, d
    00000BD6 E2rDBr0B         [10] 2232 	jp	PO, 00775$
    00000BD9 EE 80            [ 7] 2233 	xor	a, #0x80
    00000BDB                       2234 00775$:
    00000BDB F2r39r0C         [10] 2235 	jp	P, 00242$
    00000BDE 7B               [ 4] 2236 	ld	a, e
    00000BDF D6 10            [ 7] 2237 	sub	a, #0x10
    00000BE1 7A               [ 4] 2238 	ld	a, d
    00000BE2 17               [ 4] 2239 	rla
    00000BE3 3F               [ 4] 2240 	ccf
    00000BE4 1F               [ 4] 2241 	rra
    00000BE5 DE 80            [ 7] 2242 	sbc	a, #0x80
    00000BE7 30 50            [12] 2243 	jr	NC, 00242$
                                   2244 ;E:\Dropbox\FAUSTO\SVILUPPI\MSX\CODE\C\MSXgl\projects\exsoccer/exsoccer_s1_b2.c:388: if (dx < 0) slidePose = PLAYER_POSE_TACKLE_FROM_UP_LEFT;    // UP-LEFT -> Slides towards Bottom-Right?
    00000BE9 78               [ 4] 2245 	ld	a, b
    00000BEA 07               [ 4] 2246 	rlca
    00000BEB E6 01            [ 7] 2247 	and	a,#0x01
    00000BED 4F               [ 4] 2248 	ld	c, a
                                   2249 ;E:\Dropbox\FAUSTO\SVILUPPI\MSX\CODE\C\MSXgl\projects\exsoccer/exsoccer_s1_b2.c:386: if (dy < 0) {
    00000BEE CB 7A            [ 8] 2250 	bit	7, d
    00000BF0 28 0E            [12] 2251 	jr	Z, 00230$
                                   2252 ;E:\Dropbox\FAUSTO\SVILUPPI\MSX\CODE\C\MSXgl\projects\exsoccer/exsoccer_s1_b2.c:388: if (dx < 0) slidePose = PLAYER_POSE_TACKLE_FROM_UP_LEFT;    // UP-LEFT -> Slides towards Bottom-Right?
    00000BF2 79               [ 4] 2253 	ld	a, c
    00000BF3 B7               [ 4] 2254 	or	a, a
    00000BF4 28 05            [12] 2255 	jr	Z, 00224$
    00000BF6 06 24            [ 7] 2256 	ld	b, #0x24
    00000BF8 C3r0Br0C         [10] 2257 	jp	00231$
    00000BFB                       2258 00224$:
                                   2259 ;E:\Dropbox\FAUSTO\SVILUPPI\MSX\CODE\C\MSXgl\projects\exsoccer/exsoccer_s1_b2.c:389: else        slidePose = PLAYER_POSE_TACKLE_FROM_UP_RIGHT;   // UP-RIGHT -> Slides towards Bottom-Left?
    00000BFB 06 BB            [ 7] 2260 	ld	b, #0xbb
    00000BFD C3r0Br0C         [10] 2261 	jp	00231$
    00000C00                       2262 00230$:
                                   2263 ;E:\Dropbox\FAUSTO\SVILUPPI\MSX\CODE\C\MSXgl\projects\exsoccer/exsoccer_s1_b2.c:392: if (dx < 0) slidePose = PLAYER_POSE_TACKLE_FROM_DOWN_LEFT;  // DOWN-LEFT -> Slides towards Top-Right?
    00000C00 79               [ 4] 2264 	ld	a, c
    00000C01 B7               [ 4] 2265 	or	a, a
    00000C02 28 05            [12] 2266 	jr	Z, 00227$
    00000C04 06 22            [ 7] 2267 	ld	b, #0x22
    00000C06 C3r0Br0C         [10] 2268 	jp	00231$
    00000C09                       2269 00227$:
                                   2270 ;E:\Dropbox\FAUSTO\SVILUPPI\MSX\CODE\C\MSXgl\projects\exsoccer/exsoccer_s1_b2.c:393: else        slidePose = PLAYER_POSE_TACKLE_FROM_DOWN_RIGHT; // DOWN-RIGHT -> Slides towards Top-Left?
    00000C09 06 BD            [ 7] 2271 	ld	b, #0xbd
    00000C0B                       2272 00231$:
                                   2273 ;E:\Dropbox\FAUSTO\SVILUPPI\MSX\CODE\C\MSXgl\projects\exsoccer/exsoccer_s1_b2.c:396: if (slidePose != 0) {
    00000C0B 78               [ 4] 2274 	ld	a, b
    00000C0C B7               [ 4] 2275 	or	a, a
    00000C0D 28 0B            [12] 2276 	jr	Z, 00233$
                                   2277 ;E:\Dropbox\FAUSTO\SVILUPPI\MSX\CODE\C\MSXgl\projects\exsoccer/exsoccer_s1_b2.c:397: g_Players[playerId].PatternId = slidePose;
    00000C0F DD 6E F1         [19] 2278 	ld	l, -15 (ix)
    00000C12 DD 66 F2         [19] 2279 	ld	h, -14 (ix)
    00000C15 11 08 00         [10] 2280 	ld	de, #0x0008
    00000C18 19               [11] 2281 	add	hl, de
    00000C19 70               [ 7] 2282 	ld	(hl), b
    00000C1A                       2283 00233$:
                                   2284 ;E:\Dropbox\FAUSTO\SVILUPPI\MSX\CODE\C\MSXgl\projects\exsoccer/exsoccer_s1_b2.c:401: PutBallOnPlayerFeet(playerId);
    00000C1A C5               [11] 2285 	push	bc
    00000C1B DD 7E FD         [19] 2286 	ld	a, -3 (ix)
    00000C1E CDrC5r27         [17] 2287 	call	_PutBallOnPlayerFeet
    00000C21 C1               [10] 2288 	pop	bc
                                   2289 ;E:\Dropbox\FAUSTO\SVILUPPI\MSX\CODE\C\MSXgl\projects\exsoccer/exsoccer_s1_b2.c:403: if (slidePose != 0) {
    00000C22 78               [ 4] 2290 	ld	a, b
    00000C23 B7               [ 4] 2291 	or	a, a
    00000C24 28 0B            [12] 2292 	jr	Z, 00235$
                                   2293 ;E:\Dropbox\FAUSTO\SVILUPPI\MSX\CODE\C\MSXgl\projects\exsoccer/exsoccer_s1_b2.c:404: g_Players[playerId].Status = PLAYER_STATUS_POSITIONED; // Lock visual (Override HAS_BALL)
    00000C26 DD 6E F3         [19] 2294 	ld	l, -13 (ix)
    00000C29 DD 66 F4         [19] 2295 	ld	h, -12 (ix)
    00000C2C 36 04            [10] 2296 	ld	(hl), #0x04
    00000C2E 23               [ 6] 2297 	inc	hl
    00000C2F 36 00            [10] 2298 	ld	(hl), #0x00
    00000C31                       2299 00235$:
                                   2300 ;E:\Dropbox\FAUSTO\SVILUPPI\MSX\CODE\C\MSXgl\projects\exsoccer/exsoccer_s1_b2.c:407: g_ActionCooldown = 15; // Set 15 frames cooldown to avoid immediate pass
    00000C31 21r00r00         [10] 2301 	ld	hl, #_g_ActionCooldown
    00000C34 36 0F            [10] 2302 	ld	(hl), #0x0f
                                   2303 ;E:\Dropbox\FAUSTO\SVILUPPI\MSX\CODE\C\MSXgl\projects\exsoccer/exsoccer_s1_b2.c:408: return;
    00000C36 C3r79r0D         [10] 2304 	jp	00259$
    00000C39                       2305 00242$:
                                   2306 ;E:\Dropbox\FAUSTO\SVILUPPI\MSX\CODE\C\MSXgl\projects\exsoccer/exsoccer_s1_b2.c:412: if((g_FrameCounter % 4)!=0){ 
    00000C39 2Ar00r00         [16] 2307 	ld	hl, (_g_FrameCounter)
    00000C3C 7D               [ 4] 2308 	ld	a, l
    00000C3D E6 03            [ 7] 2309 	and	a, #0x03
                                   2310 ;E:\Dropbox\FAUSTO\SVILUPPI\MSX\CODE\C\MSXgl\projects\exsoccer/exsoccer_s1_b2.c:413: return;
    00000C3F C2r79r0D         [10] 2311 	jp	NZ,00259$
                                   2312 ;E:\Dropbox\FAUSTO\SVILUPPI\MSX\CODE\C\MSXgl\projects\exsoccer/exsoccer_s1_b2.c:152: i16 dx = (i16)g_Players[playerId].X - (i16)g_Ball.X;
    00000C42 DD 7E F1         [19] 2313 	ld	a, -15 (ix)
    00000C45 C6 02            [ 7] 2314 	add	a, #0x02
    00000C47 DD 77 FC         [19] 2315 	ld	-4 (ix), a
    00000C4A DD 7E F2         [19] 2316 	ld	a, -14 (ix)
    00000C4D CE 00            [ 7] 2317 	adc	a, #0x00
    00000C4F DD 77 FD         [19] 2318 	ld	-3 (ix), a
                                   2319 ;E:\Dropbox\FAUSTO\SVILUPPI\MSX\CODE\C\MSXgl\projects\exsoccer/exsoccer_s1_b2.c:419: if (direction <= 8) {
    00000C52 3E 08            [ 7] 2320 	ld	a, #0x08
    00000C54 DD 96 FE         [19] 2321 	sub	a, -2 (ix)
    00000C57 38 44            [12] 2322 	jr	C, 00246$
                                   2323 ;E:\Dropbox\FAUSTO\SVILUPPI\MSX\CODE\C\MSXgl\projects\exsoccer/exsoccer_s1_b2.c:420: g_Players[playerId].X += k_MoveDX[direction];
    00000C59 DD 6E FC         [19] 2324 	ld	l, -4 (ix)
    00000C5C DD 66 FD         [19] 2325 	ld	h, -3 (ix)
    00000C5F 4E               [ 7] 2326 	ld	c, (hl)
    00000C60 23               [ 6] 2327 	inc	hl
    00000C61 46               [ 7] 2328 	ld	b, (hl)
    00000C62 11r7Er0D         [10] 2329 	ld	de, #_TickTeamJoystick_k_MoveDX_131075_1184+0
    00000C65 DD 6E FE         [19] 2330 	ld	l, -2 (ix)
    00000C68 26 00            [ 7] 2331 	ld	h, #0x00
    00000C6A 19               [11] 2332 	add	hl, de
    00000C6B 7E               [ 7] 2333 	ld	a, (hl)
    00000C6C 6F               [ 4] 2334 	ld	l, a
                                   2335 ;	spillPairReg hl
                                   2336 ;	spillPairReg hl
    00000C6D 07               [ 4] 2337 	rlca
    00000C6E 9F               [ 4] 2338 	sbc	a, a
    00000C6F 67               [ 4] 2339 	ld	h, a
                                   2340 ;	spillPairReg hl
                                   2341 ;	spillPairReg hl
    00000C70 09               [11] 2342 	add	hl, bc
    00000C71 EB               [ 4] 2343 	ex	de, hl
    00000C72 DD 6E FC         [19] 2344 	ld	l, -4 (ix)
    00000C75 DD 66 FD         [19] 2345 	ld	h, -3 (ix)
    00000C78 73               [ 7] 2346 	ld	(hl), e
    00000C79 23               [ 6] 2347 	inc	hl
    00000C7A 72               [ 7] 2348 	ld	(hl), d
                                   2349 ;E:\Dropbox\FAUSTO\SVILUPPI\MSX\CODE\C\MSXgl\projects\exsoccer/exsoccer_s1_b2.c:421: g_Players[playerId].Y += k_MoveDY[direction];
    00000C7B DD 6E F1         [19] 2350 	ld	l, -15 (ix)
    00000C7E DD 66 F2         [19] 2351 	ld	h, -14 (ix)
    00000C81 4E               [ 7] 2352 	ld	c, (hl)
    00000C82 23               [ 6] 2353 	inc	hl
    00000C83 46               [ 7] 2354 	ld	b, (hl)
    00000C84 11r87r0D         [10] 2355 	ld	de, #_TickTeamJoystick_k_MoveDY_131075_1184+0
    00000C87 DD 6E FE         [19] 2356 	ld	l, -2 (ix)
    00000C8A 26 00            [ 7] 2357 	ld	h, #0x00
    00000C8C 19               [11] 2358 	add	hl, de
    00000C8D 7E               [ 7] 2359 	ld	a, (hl)
    00000C8E 6F               [ 4] 2360 	ld	l, a
                                   2361 ;	spillPairReg hl
                                   2362 ;	spillPairReg hl
    00000C8F 07               [ 4] 2363 	rlca
    00000C90 9F               [ 4] 2364 	sbc	a, a
    00000C91 67               [ 4] 2365 	ld	h, a
                                   2366 ;	spillPairReg hl
                                   2367 ;	spillPairReg hl
    00000C92 09               [11] 2368 	add	hl, bc
    00000C93 EB               [ 4] 2369 	ex	de, hl
    00000C94 DD 6E F1         [19] 2370 	ld	l, -15 (ix)
    00000C97 DD 66 F2         [19] 2371 	ld	h, -14 (ix)
    00000C9A 73               [ 7] 2372 	ld	(hl), e
    00000C9B 23               [ 6] 2373 	inc	hl
    00000C9C 72               [ 7] 2374 	ld	(hl), d
    00000C9D                       2375 00246$:
                                   2376 ;E:\Dropbox\FAUSTO\SVILUPPI\MSX\CODE\C\MSXgl\projects\exsoccer/exsoccer_s1_b2.c:425: if(g_Players[playerId].Y < FIELD_BOUND_Y_TOP) g_Players[playerId].Y = FIELD_BOUND_Y_TOP;
    00000C9D DD 6E F1         [19] 2377 	ld	l, -15 (ix)
    00000CA0 DD 66 F2         [19] 2378 	ld	h, -14 (ix)
    00000CA3 4E               [ 7] 2379 	ld	c, (hl)
    00000CA4 23               [ 6] 2380 	inc	hl
    00000CA5 46               [ 7] 2381 	ld	b, (hl)
    00000CA6 79               [ 4] 2382 	ld	a, c
    00000CA7 D6 32            [ 7] 2383 	sub	a, #0x32
    00000CA9 78               [ 4] 2384 	ld	a, b
    00000CAA DE 00            [ 7] 2385 	sbc	a, #0x00
    00000CAC 30 0B            [12] 2386 	jr	NC, 00248$
    00000CAE DD 6E F1         [19] 2387 	ld	l, -15 (ix)
    00000CB1 DD 66 F2         [19] 2388 	ld	h, -14 (ix)
    00000CB4 36 32            [10] 2389 	ld	(hl), #0x32
    00000CB6 23               [ 6] 2390 	inc	hl
    00000CB7 36 00            [10] 2391 	ld	(hl), #0x00
    00000CB9                       2392 00248$:
                                   2393 ;E:\Dropbox\FAUSTO\SVILUPPI\MSX\CODE\C\MSXgl\projects\exsoccer/exsoccer_s1_b2.c:426: if(g_Players[playerId].Y > FIELD_BOUND_Y_BOTTOM) g_Players[playerId].Y = FIELD_BOUND_Y_BOTTOM;
    00000CB9 DD 6E F1         [19] 2394 	ld	l, -15 (ix)
    00000CBC DD 66 F2         [19] 2395 	ld	h, -14 (ix)
    00000CBF 4E               [ 7] 2396 	ld	c, (hl)
    00000CC0 23               [ 6] 2397 	inc	hl
    00000CC1 46               [ 7] 2398 	ld	b, (hl)
    00000CC2 3E AE            [ 7] 2399 	ld	a, #0xae
    00000CC4 B9               [ 4] 2400 	cp	a, c
    00000CC5 3E 01            [ 7] 2401 	ld	a, #0x01
    00000CC7 98               [ 4] 2402 	sbc	a, b
    00000CC8 30 0B            [12] 2403 	jr	NC, 00250$
    00000CCA DD 6E F1         [19] 2404 	ld	l, -15 (ix)
    00000CCD DD 66 F2         [19] 2405 	ld	h, -14 (ix)
    00000CD0 36 AE            [10] 2406 	ld	(hl), #0xae
    00000CD2 23               [ 6] 2407 	inc	hl
    00000CD3 36 01            [10] 2408 	ld	(hl), #0x01
    00000CD5                       2409 00250$:
                                   2410 ;E:\Dropbox\FAUSTO\SVILUPPI\MSX\CODE\C\MSXgl\projects\exsoccer/exsoccer_s1_b2.c:428: g_Players[playerId].TargetY=g_Players[playerId].Y;
    00000CD5 DD 7E F1         [19] 2411 	ld	a, -15 (ix)
    00000CD8 C6 0E            [ 7] 2412 	add	a, #0x0e
    00000CDA 4F               [ 4] 2413 	ld	c, a
    00000CDB DD 7E F2         [19] 2414 	ld	a, -14 (ix)
    00000CDE CE 00            [ 7] 2415 	adc	a, #0x00
    00000CE0 47               [ 4] 2416 	ld	b, a
    00000CE1 DD 6E F1         [19] 2417 	ld	l, -15 (ix)
    00000CE4 DD 66 F2         [19] 2418 	ld	h, -14 (ix)
    00000CE7 5E               [ 7] 2419 	ld	e, (hl)
    00000CE8 23               [ 6] 2420 	inc	hl
    00000CE9 56               [ 7] 2421 	ld	d, (hl)
    00000CEA 7B               [ 4] 2422 	ld	a, e
    00000CEB 02               [ 7] 2423 	ld	(bc), a
    00000CEC 03               [ 6] 2424 	inc	bc
    00000CED 7A               [ 4] 2425 	ld	a, d
    00000CEE 02               [ 7] 2426 	ld	(bc), a
                                   2427 ;E:\Dropbox\FAUSTO\SVILUPPI\MSX\CODE\C\MSXgl\projects\exsoccer/exsoccer_s1_b2.c:429: g_Players[playerId].TargetX=g_Players[playerId].X;
    00000CEF DD 7E F1         [19] 2428 	ld	a, -15 (ix)
    00000CF2 C6 10            [ 7] 2429 	add	a, #0x10
    00000CF4 4F               [ 4] 2430 	ld	c, a
    00000CF5 DD 7E F2         [19] 2431 	ld	a, -14 (ix)
    00000CF8 CE 00            [ 7] 2432 	adc	a, #0x00
    00000CFA 47               [ 4] 2433 	ld	b, a
    00000CFB DD 6E FC         [19] 2434 	ld	l, -4 (ix)
    00000CFE DD 66 FD         [19] 2435 	ld	h, -3 (ix)
    00000D01 5E               [ 7] 2436 	ld	e, (hl)
    00000D02 23               [ 6] 2437 	inc	hl
    00000D03 56               [ 7] 2438 	ld	d, (hl)
    00000D04 7B               [ 4] 2439 	ld	a, e
    00000D05 02               [ 7] 2440 	ld	(bc), a
    00000D06 03               [ 6] 2441 	inc	bc
    00000D07 7A               [ 4] 2442 	ld	a, d
    00000D08 02               [ 7] 2443 	ld	(bc), a
                                   2444 ;E:\Dropbox\FAUSTO\SVILUPPI\MSX\CODE\C\MSXgl\projects\exsoccer/exsoccer_s1_b2.c:263: if(g_Players[playerId].PreviousDirection!=DIRECTION_NONE){
    00000D09 DD 7E F1         [19] 2445 	ld	a, -15 (ix)
    00000D0C C6 0B            [ 7] 2446 	add	a, #0x0b
    00000D0E DD 77 FC         [19] 2447 	ld	-4 (ix), a
    00000D11 DD 7E F2         [19] 2448 	ld	a, -14 (ix)
    00000D14 CE 00            [ 7] 2449 	adc	a, #0x00
    00000D16 DD 77 FD         [19] 2450 	ld	-3 (ix), a
                                   2451 ;E:\Dropbox\FAUSTO\SVILUPPI\MSX\CODE\C\MSXgl\projects\exsoccer/exsoccer_s1_b2.c:430: if(direction==DIRECTION_NONE){
    00000D19 DD 7E FE         [19] 2452 	ld	a, -2 (ix)
    00000D1C B7               [ 4] 2453 	or	a, a
    00000D1D 20 38            [12] 2454 	jr	NZ, 00254$
                                   2455 ;E:\Dropbox\FAUSTO\SVILUPPI\MSX\CODE\C\MSXgl\projects\exsoccer/exsoccer_s1_b2.c:431: g_Players[playerId].Status=PLAYER_STATUS_POSITIONED;
    00000D1F DD 6E F3         [19] 2456 	ld	l, -13 (ix)
    00000D22 DD 66 F4         [19] 2457 	ld	h, -12 (ix)
    00000D25 36 04            [10] 2458 	ld	(hl), #0x04
    00000D27 23               [ 6] 2459 	inc	hl
    00000D28 36 00            [10] 2460 	ld	(hl), #0x00
                                   2461 ;E:\Dropbox\FAUSTO\SVILUPPI\MSX\CODE\C\MSXgl\projects\exsoccer/exsoccer_s1_b2.c:432: if(g_Players[playerId].PreviousDirection!=DIRECTION_NONE){
    00000D2A DD 6E FC         [19] 2462 	ld	l, -4 (ix)
    00000D2D DD 66 FD         [19] 2463 	ld	h, -3 (ix)
    00000D30 7E               [ 7] 2464 	ld	a, (hl)
    00000D31 DD 77 F9         [19] 2465 	ld	-7 (ix), a
    00000D34 B7               [ 4] 2466 	or	a, a
    00000D35 28 2A            [12] 2467 	jr	Z, 00255$
                                   2468 ;E:\Dropbox\FAUSTO\SVILUPPI\MSX\CODE\C\MSXgl\projects\exsoccer/exsoccer_s1_b2.c:433: g_Players[playerId].PatternId=GetNoMovingPlayerPatternId(g_Players[playerId].PreviousDirection);
    00000D37 DD 7E F1         [19] 2469 	ld	a, -15 (ix)
    00000D3A C6 08            [ 7] 2470 	add	a, #0x08
    00000D3C DD 77 FA         [19] 2471 	ld	-6 (ix), a
    00000D3F DD 7E F2         [19] 2472 	ld	a, -14 (ix)
    00000D42 CE 00            [ 7] 2473 	adc	a, #0x00
    00000D44 DD 77 FB         [19] 2474 	ld	-5 (ix), a
    00000D47 DD 7E F9         [19] 2475 	ld	a, -7 (ix)
    00000D4A CDr00r00         [17] 2476 	call	_GetNoMovingPlayerPatternId
    00000D4D DD 6E FA         [19] 2477 	ld	l, -6 (ix)
    00000D50 DD 66 FB         [19] 2478 	ld	h, -5 (ix)
    00000D53 77               [ 7] 2479 	ld	(hl), a
    00000D54 C3r61r0D         [10] 2480 	jp	00255$
    00000D57                       2481 00254$:
                                   2482 ;E:\Dropbox\FAUSTO\SVILUPPI\MSX\CODE\C\MSXgl\projects\exsoccer/exsoccer_s1_b2.c:438: g_Players[playerId].Status=PLAYER_STATUS_NONE;
    00000D57 DD 6E F3         [19] 2483 	ld	l, -13 (ix)
    00000D5A DD 66 F4         [19] 2484 	ld	h, -12 (ix)
    00000D5D AF               [ 4] 2485 	xor	a, a
    00000D5E 77               [ 7] 2486 	ld	(hl), a
    00000D5F 23               [ 6] 2487 	inc	hl
    00000D60 77               [ 7] 2488 	ld	(hl), a
    00000D61                       2489 00255$:
                                   2490 ;E:\Dropbox\FAUSTO\SVILUPPI\MSX\CODE\C\MSXgl\projects\exsoccer/exsoccer_s1_b2.c:441: g_Players[playerId].Direction=direction;
    00000D61 DD 6E F1         [19] 2491 	ld	l, -15 (ix)
    00000D64 DD 66 F2         [19] 2492 	ld	h, -14 (ix)
    00000D67 11 0A 00         [10] 2493 	ld	de, #0x000a
    00000D6A 19               [11] 2494 	add	hl, de
    00000D6B DD 7E FE         [19] 2495 	ld	a, -2 (ix)
    00000D6E 77               [ 7] 2496 	ld	(hl), a
                                   2497 ;E:\Dropbox\FAUSTO\SVILUPPI\MSX\CODE\C\MSXgl\projects\exsoccer/exsoccer_s1_b2.c:442: g_Players[playerId].PreviousDirection=g_Players[playerId].Direction;
    00000D6F DD 6E FC         [19] 2498 	ld	l, -4 (ix)
    00000D72 DD 66 FD         [19] 2499 	ld	h, -3 (ix)
    00000D75 DD 7E FE         [19] 2500 	ld	a, -2 (ix)
    00000D78 77               [ 7] 2501 	ld	(hl), a
    00000D79                       2502 00259$:
                                   2503 ;E:\Dropbox\FAUSTO\SVILUPPI\MSX\CODE\C\MSXgl\projects\exsoccer/exsoccer_s1_b2.c:447: }
    00000D79 DD F9            [10] 2504 	ld	sp, ix
    00000D7B DD E1            [14] 2505 	pop	ix
    00000D7D C9               [10] 2506 	ret
                         0000F380  2507 _g_RDPRIM	=	0xf380
                         0000F385  2508 _g_WRPRIM	=	0xf385
                         0000F38C  2509 _g_CLPRIM	=	0xf38c
                         0000F39A  2510 _g_USRTAB	=	0xf39a
                         0000F3DE  2511 _g_CNSDFG	=	0xf3de
                         0000F3DF  2512 _g_RG0SAV	=	0xf3df
                         0000F3E0  2513 _g_RG1SAV	=	0xf3e0
                         0000F3E1  2514 _g_RG2SAV	=	0xf3e1
                         0000F3E2  2515 _g_RG3SAV	=	0xf3e2
                         0000F3E3  2516 _g_RG4SAV	=	0xf3e3
                         0000F3E4  2517 _g_RG5SAV	=	0xf3e4
                         0000F3E5  2518 _g_RG6SAV	=	0xf3e5
                         0000F3E6  2519 _g_RG7SAV	=	0xf3e6
                         0000F3E7  2520 _g_STATFL	=	0xf3e7
                         0000F3E8  2521 _g_TRGFLG	=	0xf3e8
                         0000F3EC  2522 _g_MAXUPD	=	0xf3ec
                         0000F3EF  2523 _g_MINUPD	=	0xf3ef
                         0000F3F3  2524 _g_QUEUES	=	0xf3f3
                         0000F3F5  2525 _g_FRCNEW	=	0xf3f5
                         0000F3F6  2526 _g_SCNCNT	=	0xf3f6
                         0000F3F7  2527 _g_REPCNT	=	0xf3f7
                         0000F3F8  2528 _g_PUTPNT	=	0xf3f8
                         0000F3FA  2529 _g_GETPNT	=	0xf3fa
                         0000F3FC  2530 _g_CS120	=	0xf3fc
                         0000F401  2531 _g_CS240	=	0xf401
                         0000F406  2532 _g_LOW	=	0xf406
                         0000F408  2533 _g_HIGH	=	0xf408
                         0000F40A  2534 _g_HEADER	=	0xf40a
                         0000F40B  2535 _g_ASPCT1	=	0xf40b
                         0000F40D  2536 _g_ASPCT2	=	0xf40d
                         0000F959  2537 _g_QUETAB	=	0xf959
                         0000F971  2538 _g_QUEBAK	=	0xf971
                         0000F975  2539 _g_VOICAQ	=	0xf975
                         0000F9F5  2540 _g_VOICBQ	=	0xf9f5
                         0000FA75  2541 _g_VOICCQ	=	0xfa75
                         0000FAF5  2542 _g_RS2IQ	=	0xfaf5
                         0000FAF5  2543 _g_DPPAGE	=	0xfaf5
                         0000FAF6  2544 _g_ACPAGE	=	0xfaf6
                         0000FAF7  2545 _g_AVCSAV	=	0xfaf7
                         0000FAF8  2546 _g_EXBRSA	=	0xfaf8
                         0000FAF9  2547 _g_CHRCNT	=	0xfaf9
                         0000FAFA  2548 _g_ROMA	=	0xfafa
                         0000FAFC  2549 _g_MODE	=	0xfafc
                         0000FAFD  2550 _g_NORUSE	=	0xfafd
                         0000FAFE  2551 _g_XSAVE	=	0xfafe
                         0000FB00  2552 _g_YSAVE	=	0xfb00
                         0000FB03  2553 _g_RSTMP	=	0xfb03
                         0000FB03  2554 _g_TOCNT	=	0xfb03
                         0000FB04  2555 _g_RSFCB	=	0xfb04
                         0000FB06  2556 _g_RSIQLN	=	0xfb06
                         0000FB07  2557 _g_MEXBIh	=	0xfb07
                         0000FB0C  2558 _g_OLDSTT	=	0xfb0c
                         0000FB0C  2559 _g_OLDINT	=	0xfb0c
                         0000FB16  2560 _g_DEVNUM	=	0xfb16
                         0000FB17  2561 _g_DATCNT	=	0xfb17
                         0000FB1A  2562 _g_ERRORS	=	0xfb1a
                         0000FB1B  2563 _g_FLAGS	=	0xfb1b
                         0000FB1C  2564 _g_ESTBLS	=	0xfb1c
                         0000FB1D  2565 _g_COMMSK	=	0xfb1d
                         0000FB1E  2566 _g_LSTCOM	=	0xfb1e
                         0000FB1F  2567 _g_LSTMOD	=	0xfb1f
                         0000FB35  2568 _g_PRSCNT	=	0xfb35
                         0000FB36  2569 _g_SAVSP	=	0xfb36
                         0000FB38  2570 _g_VOICEN	=	0xfb38
                         0000FB39  2571 _g_SAVVOL	=	0xfb39
                         0000FB3B  2572 _g_MCLLEN	=	0xfb3b
                         0000FB3C  2573 _g_MCLPTR	=	0xfb3c
                         0000FB3E  2574 _g_QUEUEN	=	0xfb3e
                         0000FB3F  2575 _g_MUSICF	=	0xfb3f
                         0000FB40  2576 _g_PLYCNT	=	0xfb40
                         0000FB41  2577 _g_VCBA	=	0xfb41
                         0000FB66  2578 _g_VCBB	=	0xfb66
                         0000FB8B  2579 _g_VCBC	=	0xfb8b
                         0000FBB0  2580 _g_ENSTOP	=	0xfbb0
                         0000FBB1  2581 _g_BASROM	=	0xfbb1
                         0000FBB2  2582 _g_LINTTB	=	0xfbb2
                         0000FBCA  2583 _g_FSTPOS	=	0xfbca
                         0000FBCC  2584 _g_CODSAV	=	0xfbcc
                         0000FBCD  2585 _g_FNKSWI	=	0xfbcd
                         0000FBCE  2586 _g_FNKFLG	=	0xfbce
                         0000FBD8  2587 _g_ONGSBF	=	0xfbd8
                         0000FBD9  2588 _g_CLIKFL	=	0xfbd9
                         0000FBDA  2589 _g_OLDKEY	=	0xfbda
                         0000FBE5  2590 _g_NEWKEY	=	0xfbe5
                         0000FBF0  2591 _g_KEYBUF	=	0xfbf0
                         0000FC18  2592 _g_LINWRK	=	0xfc18
                         0000FC40  2593 _g_PATWRK	=	0xfc40
                         0000FC48  2594 _g_BOTTOM	=	0xfc48
                         0000FC4A  2595 _g_HIMEM	=	0xfc4a
                         0000FC4C  2596 _g_TRPTBL	=	0xfc4c
                         0000FC9A  2597 _g_RTYCNT	=	0xfc9a
                         0000FC9B  2598 _g_INTFLG	=	0xfc9b
                         0000FC9C  2599 _g_PADY	=	0xfc9c
                         0000FC9D  2600 _g_PADX	=	0xfc9d
                         0000FC9E  2601 _g_JIFFY	=	0xfc9e
                         0000FCA0  2602 _g_INTVAL	=	0xfca0
                         0000FCA2  2603 _g_INTCNT	=	0xfca2
                         0000FCA4  2604 _g_LOWLIM	=	0xfca4
                         0000FCA5  2605 _g_WINWID	=	0xfca5
                         0000FCA6  2606 _g_GRPHED	=	0xfca6
                         0000FCA7  2607 _g_ESCCNT	=	0xfca7
                         0000FCA8  2608 _g_INSFLG	=	0xfca8
                         0000FCA9  2609 _g_CSRSW	=	0xfca9
                         0000FCAA  2610 _g_CSTYLE	=	0xfcaa
                         0000FCAB  2611 _g_CAPST	=	0xfcab
                         0000FCAC  2612 _g_KANAST	=	0xfcac
                         0000FCAD  2613 _g_KANAMD	=	0xfcad
                         0000FCAE  2614 _g_FLBMEM	=	0xfcae
                         0000FCAF  2615 _g_SCRMOD	=	0xfcaf
                         0000FCB0  2616 _g_OLDSCR	=	0xfcb0
                         0000FCB1  2617 _g_CASPRV	=	0xfcb1
                         0000FCB2  2618 _g_BRDATR	=	0xfcb2
                         0000FCB3  2619 _g_GXPOS	=	0xfcb3
                         0000FCB5  2620 _g_GYPOS	=	0xfcb5
                         0000FCBB  2621 _g_DRWFLG	=	0xfcbb
                         0000FCBC  2622 _g_DRWSCL	=	0xfcbc
                         0000FCBD  2623 _g_DRWANG	=	0xfcbd
                         0000FCC1  2624 _g_MNROM	=	0xfcc1
                         0000FCC1  2625 _g_EXPTBL	=	0xfcc1
                         0000FCC5  2626 _g_SLTTBL	=	0xfcc5
                         0000FCC9  2627 _g_SLTATR	=	0xfcc9
                         0000FD09  2628 _g_SLTWRK	=	0xfd09
                         0000FD89  2629 _g_PROCNM	=	0xfd89
                         0000FFE7  2630 _g_RG08SAV	=	0xffe7
                         0000FFE8  2631 _g_RG09SAV	=	0xffe8
                         0000FFE9  2632 _g_RG10SAV	=	0xffe9
                         0000FFEA  2633 _g_RG11SAV	=	0xffea
                         0000FFEB  2634 _g_RG12SAV	=	0xffeb
                         0000FFEC  2635 _g_RG13SAV	=	0xffec
                         0000FFED  2636 _g_RG14SAV	=	0xffed
                         0000FFEE  2637 _g_RG15SAV	=	0xffee
                         0000FFEF  2638 _g_RG16SAV	=	0xffef
                         0000FFF0  2639 _g_RG17SAV	=	0xfff0
                         0000FFF1  2640 _g_RG18SAV	=	0xfff1
                         0000FFF2  2641 _g_RG19SAV	=	0xfff2
                         0000FFF3  2642 _g_RG20SAV	=	0xfff3
                         0000FFF4  2643 _g_RG21SAV	=	0xfff4
                         0000FFF5  2644 _g_RG22SAV	=	0xfff5
                         0000FFF6  2645 _g_RG23SAV	=	0xfff6
                         0000FFF7  2646 _g_MINROM	=	0xfff7
                         0000FFF8  2647 _g_SVFFF8	=	0xfff8
                         0000FFFA  2648 _g_RG25SAV	=	0xfffa
                         0000FFFB  2649 _g_RG26SAV	=	0xfffb
                         0000FFFC  2650 _g_RG27SAV	=	0xfffc
                         0000FFFD  2651 _g_SVFFFD	=	0xfffd
                         00000004  2652 _g_CGTABL	=	0x0004
                         00000006  2653 _g_VDP_DR	=	0x0006
                         00000007  2654 _g_VDP_DW	=	0x0007
                         0000002B  2655 _g_BASRVN	=	0x002b
                         0000002B  2656 _g_ROMVersion	=	0x002b
                         0000002D  2657 _g_MSXVER	=	0x002d
                         0000002E  2658 _g_MSXMID	=	0x002e
                         00000034  2659 _g_CHAR_16	=	0x0034
                         00000000  2660 _g_SUBRID	=	0x0000
                         00000002  2661 _g_STRSRC	=	0x0002
                         0000F30F  2662 _g_KANJTABLE	=	0xf30f
                         0000F323  2663 _g_DISKVE	=	0xf323
                         0000F325  2664 _g_BREAKV	=	0xf325
                         0000F341  2665 _g_RAMAD0	=	0xf341
                         0000F342  2666 _g_RAMAD1	=	0xf342
                         0000F343  2667 _g_RAMAD2	=	0xf343
                         0000F344  2668 _g_RAMAD3	=	0xf344
                         0000F348  2669 _g_MASTER	=	0xf348
                         0000F37D  2670 _g_BDOS	=	0xf37d
    00000D7E                       2671 _TickTeamJoystick_k_MoveDX_131075_1184:
    00000D7E 00                    2672 	.db #0x00	;  0
    00000D7F 00                    2673 	.db #0x00	;  0
    00000D80 02                    2674 	.db #0x02	;  2
    00000D81 02                    2675 	.db #0x02	;  2
    00000D82 02                    2676 	.db #0x02	;  2
    00000D83 00                    2677 	.db #0x00	;  0
    00000D84 FE                    2678 	.db #0xfe	; -2
    00000D85 FE                    2679 	.db #0xfe	; -2
    00000D86 FE                    2680 	.db #0xfe	; -2
    00000D87                       2681 _TickTeamJoystick_k_MoveDY_131075_1184:
    00000D87 00                    2682 	.db #0x00	;  0
    00000D88 FE                    2683 	.db #0xfe	; -2
    00000D89 FE                    2684 	.db #0xfe	; -2
    00000D8A 00                    2685 	.db #0x00	;  0
    00000D8B 02                    2686 	.db #0x02	;  2
    00000D8C 02                    2687 	.db #0x02	;  2
    00000D8D 02                    2688 	.db #0x02	;  2
    00000D8E 00                    2689 	.db #0x00	;  0
    00000D8F FE                    2690 	.db #0xfe	; -2
                                   2691 ;E:\Dropbox\FAUSTO\SVILUPPI\MSX\CODE\C\MSXgl\projects\exsoccer/exsoccer_s1_b2.c:448: void TickAI(u8 playerId){
                                   2692 ;	---------------------------------
                                   2693 ; Function TickAI
                                   2694 ; ---------------------------------
    00000D90                       2695 _TickAI::
    00000D90 DD E5            [15] 2696 	push	ix
    00000D92 DD 21 00 00      [14] 2697 	ld	ix,#0
    00000D96 DD 39            [15] 2698 	add	ix,sp
    00000D98 21 DD FF         [10] 2699 	ld	hl, #-35
    00000D9B 39               [11] 2700 	add	hl, sp
    00000D9C F9               [ 6] 2701 	ld	sp, hl
    00000D9D DD 77 FF         [19] 2702 	ld	-1 (ix), a
                                   2703 ;E:\Dropbox\FAUSTO\SVILUPPI\MSX\CODE\C\MSXgl\projects\exsoccer/exsoccer_s1_b2.c:449: if(g_MatchStatus==MATCH_IN_ACTION || g_MatchStatus == MATCH_BALL_ON_GOALKEEPER){
    00000DA0 3Ar00r00         [13] 2704 	ld	a,(_g_MatchStatus+0)
    00000DA3 FE 0C            [ 7] 2705 	cp	a,#0x0c
    00000DA5 28 05            [12] 2706 	jr	Z, 00596$
    00000DA7 D6 0D            [ 7] 2707 	sub	a, #0x0d
    00000DA9 C2rC0r27         [10] 2708 	jp	NZ,00609$
    00000DAC                       2709 00596$:
                                   2710 ;E:\Dropbox\FAUSTO\SVILUPPI\MSX\CODE\C\MSXgl\projects\exsoccer/exsoccer_s1_b2.c:455: u16 refX = g_Players[playerId].X;
    00000DAC DD 4E FF         [19] 2711 	ld	c, -1 (ix)
    00000DAF 06 00            [ 7] 2712 	ld	b, #0x00
    00000DB1 69               [ 4] 2713 	ld	l, c
    00000DB2 60               [ 4] 2714 	ld	h, b
    00000DB3 29               [11] 2715 	add	hl, hl
    00000DB4 29               [11] 2716 	add	hl, hl
    00000DB5 09               [11] 2717 	add	hl, bc
    00000DB6 29               [11] 2718 	add	hl, hl
    00000DB7 29               [11] 2719 	add	hl, hl
    00000DB8 09               [11] 2720 	add	hl, bc
    00000DB9 DD 75 FD         [19] 2721 	ld	-3 (ix), l
    00000DBC DD 74 FE         [19] 2722 	ld	-2 (ix), h
                                   2723 ;E:\Dropbox\FAUSTO\SVILUPPI\MSX\CODE\C\MSXgl\projects\exsoccer/exsoccer_s1_b2.c:452: if (playerId == REFEREE) {
    00000DBF DD 7E FF         [19] 2724 	ld	a, -1 (ix)
    00000DC2 D6 0E            [ 7] 2725 	sub	a, #0x0e
    00000DC4 C2rA9r10         [10] 2726 	jp	NZ,00174$
                                   2727 ;E:\Dropbox\FAUSTO\SVILUPPI\MSX\CODE\C\MSXgl\projects\exsoccer/exsoccer_s1_b2.c:453: u16 ballX = g_Ball.X;
    00000DC7 ED 4Br02r00      [20] 2728 	ld	bc, (#_g_Ball + 2)
                                   2729 ;E:\Dropbox\FAUSTO\SVILUPPI\MSX\CODE\C\MSXgl\projects\exsoccer/exsoccer_s1_b2.c:454: u16 ballY = g_Ball.Y;
    00000DCB ED 5Br00r00      [20] 2730 	ld	de, (#_g_Ball + 0)
                                   2731 ;E:\Dropbox\FAUSTO\SVILUPPI\MSX\CODE\C\MSXgl\projects\exsoccer/exsoccer_s1_b2.c:455: u16 refX = g_Players[playerId].X;
    00000DCF 3Er00            [ 7] 2732 	ld	a, #<(_g_Players)
    00000DD1 DD 86 FD         [19] 2733 	add	a, -3 (ix)
    00000DD4 DD 77 F1         [19] 2734 	ld	-15 (ix), a
    00000DD7 3Es00            [ 7] 2735 	ld	a, #>(_g_Players)
    00000DD9 DD 8E FE         [19] 2736 	adc	a, -2 (ix)
    00000DDC DD 77 F2         [19] 2737 	ld	-14 (ix), a
    00000DDF DD 7E F1         [19] 2738 	ld	a, -15 (ix)
    00000DE2 C6 02            [ 7] 2739 	add	a, #0x02
    00000DE4 DD 77 F3         [19] 2740 	ld	-13 (ix), a
    00000DE7 DD 7E F2         [19] 2741 	ld	a, -14 (ix)
    00000DEA CE 00            [ 7] 2742 	adc	a, #0x00
    00000DEC DD 77 F4         [19] 2743 	ld	-12 (ix), a
    00000DEF DD 6E F3         [19] 2744 	ld	l, -13 (ix)
    00000DF2 DD 66 F4         [19] 2745 	ld	h, -12 (ix)
    00000DF5 7E               [ 7] 2746 	ld	a, (hl)
    00000DF6 DD 77 F5         [19] 2747 	ld	-11 (ix), a
    00000DF9 23               [ 6] 2748 	inc	hl
    00000DFA 7E               [ 7] 2749 	ld	a, (hl)
    00000DFB DD 77 F6         [19] 2750 	ld	-10 (ix), a
                                   2751 ;E:\Dropbox\FAUSTO\SVILUPPI\MSX\CODE\C\MSXgl\projects\exsoccer/exsoccer_s1_b2.c:456: u16 refY = g_Players[playerId].Y;
    00000DFE DD 6E F1         [19] 2752 	ld	l, -15 (ix)
    00000E01 DD 66 F2         [19] 2753 	ld	h, -14 (ix)
    00000E04 7E               [ 7] 2754 	ld	a, (hl)
    00000E05 DD 77 F7         [19] 2755 	ld	-9 (ix), a
    00000E08 23               [ 6] 2756 	inc	hl
    00000E09 7E               [ 7] 2757 	ld	a, (hl)
    00000E0A DD 77 F8         [19] 2758 	ld	-8 (ix), a
                                   2759 ;E:\Dropbox\FAUSTO\SVILUPPI\MSX\CODE\C\MSXgl\projects\exsoccer/exsoccer_s1_b2.c:460: u16 targetY = ballY;
    00000E0D DD 73 F9         [19] 2760 	ld	-7 (ix), e
    00000E10 DD 72 FA         [19] 2761 	ld	-6 (ix), d
                                   2762 ;E:\Dropbox\FAUSTO\SVILUPPI\MSX\CODE\C\MSXgl\projects\exsoccer/exsoccer_s1_b2.c:463: if (ballY > 230 && ballY < 260 && ballX > 110 && ballX < 140) {
    00000E13 DD 71 FB         [19] 2763 	ld	-5 (ix), c
    00000E16 DD 70 FC         [19] 2764 	ld	-4 (ix), b
    00000E19 3E E6            [ 7] 2765 	ld	a, #0xe6
    00000E1B BB               [ 4] 2766 	cp	a, e
    00000E1C 3E 00            [ 7] 2767 	ld	a, #0x00
    00000E1E 9A               [ 4] 2768 	sbc	a, d
    00000E1F 30 30            [12] 2769 	jr	NC, 00107$
    00000E21 7B               [ 4] 2770 	ld	a, e
    00000E22 D6 04            [ 7] 2771 	sub	a, #0x04
    00000E24 7A               [ 4] 2772 	ld	a, d
    00000E25 DE 01            [ 7] 2773 	sbc	a, #0x01
    00000E27 30 28            [12] 2774 	jr	NC, 00107$
    00000E29 3E 6E            [ 7] 2775 	ld	a, #0x6e
    00000E2B DD BE FB         [19] 2776 	cp	a, -5 (ix)
    00000E2E 3E 00            [ 7] 2777 	ld	a, #0x00
    00000E30 DD 9E FC         [19] 2778 	sbc	a, -4 (ix)
    00000E33 30 1C            [12] 2779 	jr	NC, 00107$
    00000E35 DD 7E FB         [19] 2780 	ld	a, -5 (ix)
    00000E38 D6 8C            [ 7] 2781 	sub	a, #0x8c
    00000E3A DD 7E FC         [19] 2782 	ld	a, -4 (ix)
    00000E3D DE 00            [ 7] 2783 	sbc	a, #0x00
    00000E3F 30 10            [12] 2784 	jr	NC, 00107$
                                   2785 ;E:\Dropbox\FAUSTO\SVILUPPI\MSX\CODE\C\MSXgl\projects\exsoccer/exsoccer_s1_b2.c:464: targetY = ballY - 40; 
    00000E41 7B               [ 4] 2786 	ld	a, e
    00000E42 C6 D8            [ 7] 2787 	add	a, #0xd8
    00000E44 4F               [ 4] 2788 	ld	c, a
    00000E45 7A               [ 4] 2789 	ld	a, d
    00000E46 CE FF            [ 7] 2790 	adc	a, #0xff
    00000E48 DD 71 F9         [19] 2791 	ld	-7 (ix), c
    00000E4B DD 77 FA         [19] 2792 	ld	-6 (ix), a
    00000E4E C3r89r0E         [10] 2793 	jp	00108$
    00000E51                       2794 00107$:
                                   2795 ;E:\Dropbox\FAUSTO\SVILUPPI\MSX\CODE\C\MSXgl\projects\exsoccer/exsoccer_s1_b2.c:467: if (g_Ball.PossessionPlayerId != NO_VALUE) {
    00000E51 3Ar06r00         [13] 2796 	ld	a, (#_g_Ball + 6)
    00000E54 FE FF            [ 7] 2797 	cp	a, #0xff
    00000E56 28 31            [12] 2798 	jr	Z, 00108$
                                   2799 ;E:\Dropbox\FAUSTO\SVILUPPI\MSX\CODE\C\MSXgl\projects\exsoccer/exsoccer_s1_b2.c:468: if (g_Players[g_Ball.PossessionPlayerId].TeamId == TEAM_1) targetY = ballY - 20;
    00000E58 4F               [ 4] 2800 	ld	c, a
    00000E59 06 00            [ 7] 2801 	ld	b, #0x00
    00000E5B 69               [ 4] 2802 	ld	l, c
    00000E5C 60               [ 4] 2803 	ld	h, b
    00000E5D 29               [11] 2804 	add	hl, hl
    00000E5E 29               [11] 2805 	add	hl, hl
    00000E5F 09               [11] 2806 	add	hl, bc
    00000E60 29               [11] 2807 	add	hl, hl
    00000E61 29               [11] 2808 	add	hl, hl
    00000E62 09               [11] 2809 	add	hl, bc
    00000E63 01r00r00         [10] 2810 	ld	bc, #_g_Players
    00000E66 09               [11] 2811 	add	hl, bc
    00000E67 01 09 00         [10] 2812 	ld	bc, #0x0009
    00000E6A 09               [11] 2813 	add	hl, bc
    00000E6B 7E               [ 7] 2814 	ld	a, (hl)
    00000E6C 3D               [ 4] 2815 	dec	a
    00000E6D 20 10            [12] 2816 	jr	NZ, 00102$
    00000E6F 7B               [ 4] 2817 	ld	a, e
    00000E70 C6 EC            [ 7] 2818 	add	a, #0xec
    00000E72 4F               [ 4] 2819 	ld	c, a
    00000E73 7A               [ 4] 2820 	ld	a, d
    00000E74 CE FF            [ 7] 2821 	adc	a, #0xff
    00000E76 DD 71 F9         [19] 2822 	ld	-7 (ix), c
    00000E79 DD 77 FA         [19] 2823 	ld	-6 (ix), a
    00000E7C C3r89r0E         [10] 2824 	jp	00108$
    00000E7F                       2825 00102$:
                                   2826 ;E:\Dropbox\FAUSTO\SVILUPPI\MSX\CODE\C\MSXgl\projects\exsoccer/exsoccer_s1_b2.c:469: else targetY = ballY + 20;
    00000E7F 21 14 00         [10] 2827 	ld	hl, #0x0014
    00000E82 19               [11] 2828 	add	hl, de
    00000E83 DD 75 F9         [19] 2829 	ld	-7 (ix), l
    00000E86 DD 74 FA         [19] 2830 	ld	-6 (ix), h
    00000E89                       2831 00108$:
                                   2832 ;E:\Dropbox\FAUSTO\SVILUPPI\MSX\CODE\C\MSXgl\projects\exsoccer/exsoccer_s1_b2.c:480: if (ballX < 128) targetX = ballX + 60; // Ball Left -> Ref Right
    00000E89 DD 7E FB         [19] 2833 	ld	a, -5 (ix)
    00000E8C D6 80            [ 7] 2834 	sub	a, #0x80
    00000E8E DD 7E FC         [19] 2835 	ld	a, -4 (ix)
    00000E91 DE 00            [ 7] 2836 	sbc	a, #0x00
    00000E93 30 0F            [12] 2837 	jr	NC, 00113$
    00000E95 DD 7E FB         [19] 2838 	ld	a, -5 (ix)
    00000E98 C6 3C            [ 7] 2839 	add	a, #0x3c
    00000E9A 4F               [ 4] 2840 	ld	c, a
    00000E9B DD 7E FC         [19] 2841 	ld	a, -4 (ix)
    00000E9E CE 00            [ 7] 2842 	adc	a, #0x00
    00000EA0 47               [ 4] 2843 	ld	b, a
    00000EA1 C3rBAr0E         [10] 2844 	jp	00114$
    00000EA4                       2845 00113$:
                                   2846 ;E:\Dropbox\FAUSTO\SVILUPPI\MSX\CODE\C\MSXgl\projects\exsoccer/exsoccer_s1_b2.c:481: else targetX = ballX - 60;             // Ball Right -> Ref Left
    00000EA4 DD 7E FB         [19] 2847 	ld	a, -5 (ix)
    00000EA7 C6 C4            [ 7] 2848 	add	a, #0xc4
    00000EA9 DD 77 FD         [19] 2849 	ld	-3 (ix), a
    00000EAC DD 7E FC         [19] 2850 	ld	a, -4 (ix)
    00000EAF CE FF            [ 7] 2851 	adc	a, #0xff
    00000EB1 DD 77 FE         [19] 2852 	ld	-2 (ix), a
    00000EB4 DD 4E FD         [19] 2853 	ld	c, -3 (ix)
    00000EB7 DD 46 FE         [19] 2854 	ld	b, -2 (ix)
    00000EBA                       2855 00114$:
                                   2856 ;E:\Dropbox\FAUSTO\SVILUPPI\MSX\CODE\C\MSXgl\projects\exsoccer/exsoccer_s1_b2.c:484: if (targetX < FIELD_BOUND_X_LEFT + 10) targetX = FIELD_BOUND_X_LEFT + 10;
    00000EBA 79               [ 4] 2857 	ld	a, c
    00000EBB D6 14            [ 7] 2858 	sub	a, #0x14
    00000EBD 78               [ 4] 2859 	ld	a, b
    00000EBE DE 00            [ 7] 2860 	sbc	a, #0x00
    00000EC0 30 03            [12] 2861 	jr	NC, 00116$
    00000EC2 01 14 00         [10] 2862 	ld	bc, #0x0014
    00000EC5                       2863 00116$:
                                   2864 ;E:\Dropbox\FAUSTO\SVILUPPI\MSX\CODE\C\MSXgl\projects\exsoccer/exsoccer_s1_b2.c:485: if (targetX > FIELD_BOUND_X_RIGHT - 10) targetX = FIELD_BOUND_X_RIGHT - 10;
    00000EC5 3E EC            [ 7] 2865 	ld	a, #0xec
    00000EC7 B9               [ 4] 2866 	cp	a, c
    00000EC8 3E 00            [ 7] 2867 	ld	a, #0x00
    00000ECA 98               [ 4] 2868 	sbc	a, b
    00000ECB 30 03            [12] 2869 	jr	NC, 00118$
    00000ECD 01 EC 00         [10] 2870 	ld	bc, #0x00ec
    00000ED0                       2871 00118$:
                                   2872 ;E:\Dropbox\FAUSTO\SVILUPPI\MSX\CODE\C\MSXgl\projects\exsoccer/exsoccer_s1_b2.c:490: u8 moveDir = DIRECTION_NONE;
    00000ED0 DD 36 FE 00      [19] 2873 	ld	-2 (ix), #0x00
                                   2874 ;E:\Dropbox\FAUSTO\SVILUPPI\MSX\CODE\C\MSXgl\projects\exsoccer/exsoccer_s1_b2.c:491: i16 diffY = (i16)targetY - (i16)refY;
    00000ED4 DD 6E F9         [19] 2875 	ld	l, -7 (ix)
                                   2876 ;	spillPairReg hl
                                   2877 ;	spillPairReg hl
    00000ED7 DD 66 FA         [19] 2878 	ld	h, -6 (ix)
                                   2879 ;	spillPairReg hl
                                   2880 ;	spillPairReg hl
    00000EDA DD 5E F7         [19] 2881 	ld	e, -9 (ix)
    00000EDD DD 56 F8         [19] 2882 	ld	d, -8 (ix)
    00000EE0 BF               [ 4] 2883 	cp	a, a
    00000EE1 ED 52            [15] 2884 	sbc	hl, de
    00000EE3 EB               [ 4] 2885 	ex	de, hl
                                   2886 ;E:\Dropbox\FAUSTO\SVILUPPI\MSX\CODE\C\MSXgl\projects\exsoccer/exsoccer_s1_b2.c:492: i16 diffX = (i16)targetX - (i16)refX;
    00000EE4 DD 6E F5         [19] 2887 	ld	l, -11 (ix)
                                   2888 ;	spillPairReg hl
                                   2889 ;	spillPairReg hl
    00000EE7 DD 66 F6         [19] 2890 	ld	h, -10 (ix)
                                   2891 ;	spillPairReg hl
                                   2892 ;	spillPairReg hl
    00000EEA 79               [ 4] 2893 	ld	a, c
    00000EEB 95               [ 4] 2894 	sub	a, l
    00000EEC 4F               [ 4] 2895 	ld	c, a
    00000EED 78               [ 4] 2896 	ld	a, b
    00000EEE 9C               [ 4] 2897 	sbc	a, h
    00000EEF 47               [ 4] 2898 	ld	b, a
                                   2899 ;E:\Dropbox\FAUSTO\SVILUPPI\MSX\CODE\C\MSXgl\projects\exsoccer/exsoccer_s1_b2.c:495: if (diffY < -8) moveDir = DIRECTION_UP;
    00000EF0 7B               [ 4] 2900 	ld	a, e
    00000EF1 D6 F8            [ 7] 2901 	sub	a, #0xf8
    00000EF3 7A               [ 4] 2902 	ld	a, d
    00000EF4 17               [ 4] 2903 	rla
    00000EF5 3F               [ 4] 2904 	ccf
    00000EF6 1F               [ 4] 2905 	rra
    00000EF7 DE 7F            [ 7] 2906 	sbc	a, #0x7f
    00000EF9 30 07            [12] 2907 	jr	NC, 00122$
    00000EFB DD 36 FE 01      [19] 2908 	ld	-2 (ix), #0x01
    00000EFF C3r14r0F         [10] 2909 	jp	00123$
    00000F02                       2910 00122$:
                                   2911 ;E:\Dropbox\FAUSTO\SVILUPPI\MSX\CODE\C\MSXgl\projects\exsoccer/exsoccer_s1_b2.c:496: else if (diffY > 8) moveDir = DIRECTION_DOWN;
    00000F02 3E 08            [ 7] 2912 	ld	a, #0x08
    00000F04 BB               [ 4] 2913 	cp	a, e
    00000F05 3E 00            [ 7] 2914 	ld	a, #0x00
    00000F07 9A               [ 4] 2915 	sbc	a, d
    00000F08 E2r0Dr0F         [10] 2916 	jp	PO, 01891$
    00000F0B EE 80            [ 7] 2917 	xor	a, #0x80
    00000F0D                       2918 01891$:
    00000F0D F2r14r0F         [10] 2919 	jp	P, 00123$
    00000F10 DD 36 FE 05      [19] 2920 	ld	-2 (ix), #0x05
    00000F14                       2921 00123$:
                                   2922 ;E:\Dropbox\FAUSTO\SVILUPPI\MSX\CODE\C\MSXgl\projects\exsoccer/exsoccer_s1_b2.c:499: bool moveX = false;
    00000F14 1E 00            [ 7] 2923 	ld	e, #0x00
                                   2924 ;E:\Dropbox\FAUSTO\SVILUPPI\MSX\CODE\C\MSXgl\projects\exsoccer/exsoccer_s1_b2.c:500: if (diffX < -16) moveX = true; // Need to go Left
    00000F16 79               [ 4] 2925 	ld	a, c
    00000F17 D6 F0            [ 7] 2926 	sub	a, #0xf0
    00000F19 78               [ 4] 2927 	ld	a, b
    00000F1A 17               [ 4] 2928 	rla
    00000F1B 3F               [ 4] 2929 	ccf
    00000F1C 1F               [ 4] 2930 	rra
    00000F1D DE 7F            [ 7] 2931 	sbc	a, #0x7f
    00000F1F 30 05            [12] 2932 	jr	NC, 00127$
    00000F21 1E 01            [ 7] 2933 	ld	e, #0x01
    00000F23 C3r38r0F         [10] 2934 	jp	00128$
    00000F26                       2935 00127$:
                                   2936 ;E:\Dropbox\FAUSTO\SVILUPPI\MSX\CODE\C\MSXgl\projects\exsoccer/exsoccer_s1_b2.c:501: else if (diffX > 16) moveX = true; // Need to go Right
    00000F26 51               [ 4] 2937 	ld	d, c
    00000F27 68               [ 4] 2938 	ld	l, b
                                   2939 ;	spillPairReg hl
                                   2940 ;	spillPairReg hl
    00000F28 3E 10            [ 7] 2941 	ld	a, #0x10
    00000F2A BA               [ 4] 2942 	cp	a, d
    00000F2B 3E 00            [ 7] 2943 	ld	a, #0x00
    00000F2D 9D               [ 4] 2944 	sbc	a, l
    00000F2E E2r33r0F         [10] 2945 	jp	PO, 01892$
    00000F31 EE 80            [ 7] 2946 	xor	a, #0x80
    00000F33                       2947 01892$:
    00000F33 F2r38r0F         [10] 2948 	jp	P, 00128$
    00000F36 1E 01            [ 7] 2949 	ld	e, #0x01
    00000F38                       2950 00128$:
                                   2951 ;E:\Dropbox\FAUSTO\SVILUPPI\MSX\CODE\C\MSXgl\projects\exsoccer/exsoccer_s1_b2.c:503: if (moveX) {
    00000F38 7B               [ 4] 2952 	ld	a, e
    00000F39 B7               [ 4] 2953 	or	a, a
    00000F3A 28 4B            [12] 2954 	jr	Z, 00145$
                                   2955 ;E:\Dropbox\FAUSTO\SVILUPPI\MSX\CODE\C\MSXgl\projects\exsoccer/exsoccer_s1_b2.c:501: else if (diffX > 16) moveX = true; // Need to go Right
                                   2956 ;E:\Dropbox\FAUSTO\SVILUPPI\MSX\CODE\C\MSXgl\projects\exsoccer/exsoccer_s1_b2.c:505: if (diffX > 0) moveDir = DIRECTION_UP_RIGHT;
    00000F3C AF               [ 4] 2957 	xor	a, a
    00000F3D B9               [ 4] 2958 	cp	a, c
    00000F3E 98               [ 4] 2959 	sbc	a, b
    00000F3F E2r44r0F         [10] 2960 	jp	PO, 01893$
    00000F42 EE 80            [ 7] 2961 	xor	a, #0x80
    00000F44                       2962 01893$:
    00000F44 07               [ 4] 2963 	rlca
    00000F45 E6 01            [ 7] 2964 	and	a,#0x01
    00000F47 4F               [ 4] 2965 	ld	c, a
                                   2966 ;E:\Dropbox\FAUSTO\SVILUPPI\MSX\CODE\C\MSXgl\projects\exsoccer/exsoccer_s1_b2.c:504: if (moveDir == DIRECTION_UP) {
    00000F48 DD 7E FE         [19] 2967 	ld	a, -2 (ix)
    00000F4B 3D               [ 4] 2968 	dec	a
    00000F4C 20 12            [12] 2969 	jr	NZ, 00142$
                                   2970 ;E:\Dropbox\FAUSTO\SVILUPPI\MSX\CODE\C\MSXgl\projects\exsoccer/exsoccer_s1_b2.c:505: if (diffX > 0) moveDir = DIRECTION_UP_RIGHT;
    00000F4E 79               [ 4] 2971 	ld	a, c
    00000F4F B7               [ 4] 2972 	or	a, a
    00000F50 28 07            [12] 2973 	jr	Z, 00130$
    00000F52 DD 36 FE 02      [19] 2974 	ld	-2 (ix), #0x02
    00000F56 C3r87r0F         [10] 2975 	jp	00145$
    00000F59                       2976 00130$:
                                   2977 ;E:\Dropbox\FAUSTO\SVILUPPI\MSX\CODE\C\MSXgl\projects\exsoccer/exsoccer_s1_b2.c:506: else moveDir = DIRECTION_UP_LEFT;
    00000F59 DD 36 FE 08      [19] 2978 	ld	-2 (ix), #0x08
    00000F5D C3r87r0F         [10] 2979 	jp	00145$
    00000F60                       2980 00142$:
                                   2981 ;E:\Dropbox\FAUSTO\SVILUPPI\MSX\CODE\C\MSXgl\projects\exsoccer/exsoccer_s1_b2.c:507: } else if (moveDir == DIRECTION_DOWN) {
    00000F60 DD 7E FE         [19] 2982 	ld	a, -2 (ix)
                                   2983 ;E:\Dropbox\FAUSTO\SVILUPPI\MSX\CODE\C\MSXgl\projects\exsoccer/exsoccer_s1_b2.c:508: if (diffX > 0) moveDir = DIRECTION_DOWN_RIGHT;
    00000F63 D6 05            [ 7] 2984 	sub	a,#0x05
    00000F65 20 11            [12] 2985 	jr	NZ, 00139$
    00000F67 B1               [ 4] 2986 	or	a,c
    00000F68 28 07            [12] 2987 	jr	Z, 00133$
    00000F6A DD 36 FE 04      [19] 2988 	ld	-2 (ix), #0x04
    00000F6E C3r87r0F         [10] 2989 	jp	00145$
    00000F71                       2990 00133$:
                                   2991 ;E:\Dropbox\FAUSTO\SVILUPPI\MSX\CODE\C\MSXgl\projects\exsoccer/exsoccer_s1_b2.c:509: else moveDir = DIRECTION_DOWN_LEFT;
    00000F71 DD 36 FE 06      [19] 2992 	ld	-2 (ix), #0x06
    00000F75 C3r87r0F         [10] 2993 	jp	00145$
    00000F78                       2994 00139$:
                                   2995 ;E:\Dropbox\FAUSTO\SVILUPPI\MSX\CODE\C\MSXgl\projects\exsoccer/exsoccer_s1_b2.c:511: if (diffX > 0) moveDir = DIRECTION_RIGHT;
    00000F78 79               [ 4] 2996 	ld	a, c
    00000F79 B7               [ 4] 2997 	or	a, a
    00000F7A 28 07            [12] 2998 	jr	Z, 00136$
    00000F7C DD 36 FE 03      [19] 2999 	ld	-2 (ix), #0x03
    00000F80 C3r87r0F         [10] 3000 	jp	00145$
    00000F83                       3001 00136$:
                                   3002 ;E:\Dropbox\FAUSTO\SVILUPPI\MSX\CODE\C\MSXgl\projects\exsoccer/exsoccer_s1_b2.c:512: else moveDir = DIRECTION_LEFT;
    00000F83 DD 36 FE 07      [19] 3003 	ld	-2 (ix), #0x07
    00000F87                       3004 00145$:
                                   3005 ;E:\Dropbox\FAUSTO\SVILUPPI\MSX\CODE\C\MSXgl\projects\exsoccer/exsoccer_s1_b2.c:516: g_Players[playerId].Direction = moveDir;
    00000F87 DD 7E F1         [19] 3006 	ld	a, -15 (ix)
    00000F8A C6 0A            [ 7] 3007 	add	a, #0x0a
    00000F8C 4F               [ 4] 3008 	ld	c, a
    00000F8D DD 7E F2         [19] 3009 	ld	a, -14 (ix)
    00000F90 CE 00            [ 7] 3010 	adc	a, #0x00
    00000F92 47               [ 4] 3011 	ld	b, a
    00000F93 DD 7E FE         [19] 3012 	ld	a, -2 (ix)
                                   3013 ;E:\Dropbox\FAUSTO\SVILUPPI\MSX\CODE\C\MSXgl\projects\exsoccer/exsoccer_s1_b2.c:519: if (g_Players[playerId].Direction == DIRECTION_UP ||
    00000F96 02               [ 7] 3014 	ld	(bc), a
    00000F97 5F               [ 4] 3015 	ld	e, a
    00000F98 DD 7E FE         [19] 3016 	ld	a, -2 (ix)
    00000F9B 3D               [ 4] 3017 	dec	a
    00000F9C 28 09            [12] 3018 	jr	Z, 00146$
                                   3019 ;E:\Dropbox\FAUSTO\SVILUPPI\MSX\CODE\C\MSXgl\projects\exsoccer/exsoccer_s1_b2.c:520: g_Players[playerId].Direction == DIRECTION_UP_RIGHT ||
                                   3020 ;E:\Dropbox\FAUSTO\SVILUPPI\MSX\CODE\C\MSXgl\projects\exsoccer/exsoccer_s1_b2.c:521: g_Players[playerId].Direction == DIRECTION_UP_LEFT) {
    00000F9E 7B               [ 4] 3021 	ld	a,e
    00000F9F FE 02            [ 7] 3022 	cp	a,#0x02
    00000FA1 28 04            [12] 3023 	jr	Z, 00146$
    00000FA3 D6 08            [ 7] 3024 	sub	a, #0x08
    00000FA5 20 13            [12] 3025 	jr	NZ, 00147$
    00000FA7                       3026 00146$:
                                   3027 ;E:\Dropbox\FAUSTO\SVILUPPI\MSX\CODE\C\MSXgl\projects\exsoccer/exsoccer_s1_b2.c:522: g_Players[playerId].Y--;
    00000FA7 DD 6E F1         [19] 3028 	ld	l, -15 (ix)
    00000FAA DD 66 F2         [19] 3029 	ld	h, -14 (ix)
    00000FAD 5E               [ 7] 3030 	ld	e, (hl)
    00000FAE 23               [ 6] 3031 	inc	hl
    00000FAF 56               [ 7] 3032 	ld	d, (hl)
    00000FB0 1B               [ 6] 3033 	dec	de
    00000FB1 DD 6E F1         [19] 3034 	ld	l, -15 (ix)
    00000FB4 DD 66 F2         [19] 3035 	ld	h, -14 (ix)
    00000FB7 73               [ 7] 3036 	ld	(hl), e
    00000FB8 23               [ 6] 3037 	inc	hl
    00000FB9 72               [ 7] 3038 	ld	(hl), d
    00000FBA                       3039 00147$:
                                   3040 ;E:\Dropbox\FAUSTO\SVILUPPI\MSX\CODE\C\MSXgl\projects\exsoccer/exsoccer_s1_b2.c:519: if (g_Players[playerId].Direction == DIRECTION_UP ||
    00000FBA 0A               [ 7] 3041 	ld	a, (bc)
                                   3042 ;E:\Dropbox\FAUSTO\SVILUPPI\MSX\CODE\C\MSXgl\projects\exsoccer/exsoccer_s1_b2.c:524: if (g_Players[playerId].Direction == DIRECTION_DOWN ||
    00000FBB FE 05            [ 7] 3043 	cp	a, #0x05
    00000FBD 28 08            [12] 3044 	jr	Z, 00150$
                                   3045 ;E:\Dropbox\FAUSTO\SVILUPPI\MSX\CODE\C\MSXgl\projects\exsoccer/exsoccer_s1_b2.c:525: g_Players[playerId].Direction == DIRECTION_DOWN_RIGHT ||
    00000FBF FE 04            [ 7] 3046 	cp	a, #0x04
    00000FC1 28 04            [12] 3047 	jr	Z, 00150$
                                   3048 ;E:\Dropbox\FAUSTO\SVILUPPI\MSX\CODE\C\MSXgl\projects\exsoccer/exsoccer_s1_b2.c:526: g_Players[playerId].Direction == DIRECTION_DOWN_LEFT) {
    00000FC3 D6 06            [ 7] 3049 	sub	a, #0x06
    00000FC5 20 13            [12] 3050 	jr	NZ, 00151$
    00000FC7                       3051 00150$:
                                   3052 ;E:\Dropbox\FAUSTO\SVILUPPI\MSX\CODE\C\MSXgl\projects\exsoccer/exsoccer_s1_b2.c:527: g_Players[playerId].Y++;
    00000FC7 DD 6E F1         [19] 3053 	ld	l, -15 (ix)
    00000FCA DD 66 F2         [19] 3054 	ld	h, -14 (ix)
    00000FCD 5E               [ 7] 3055 	ld	e, (hl)
    00000FCE 23               [ 6] 3056 	inc	hl
    00000FCF 56               [ 7] 3057 	ld	d, (hl)
    00000FD0 13               [ 6] 3058 	inc	de
    00000FD1 DD 6E F1         [19] 3059 	ld	l, -15 (ix)
    00000FD4 DD 66 F2         [19] 3060 	ld	h, -14 (ix)
    00000FD7 73               [ 7] 3061 	ld	(hl), e
    00000FD8 23               [ 6] 3062 	inc	hl
    00000FD9 72               [ 7] 3063 	ld	(hl), d
    00000FDA                       3064 00151$:
                                   3065 ;E:\Dropbox\FAUSTO\SVILUPPI\MSX\CODE\C\MSXgl\projects\exsoccer/exsoccer_s1_b2.c:519: if (g_Players[playerId].Direction == DIRECTION_UP ||
    00000FDA 0A               [ 7] 3066 	ld	a, (bc)
                                   3067 ;E:\Dropbox\FAUSTO\SVILUPPI\MSX\CODE\C\MSXgl\projects\exsoccer/exsoccer_s1_b2.c:529: if (g_Players[playerId].Direction == DIRECTION_LEFT ||
    00000FDB FE 07            [ 7] 3068 	cp	a, #0x07
    00000FDD 28 08            [12] 3069 	jr	Z, 00154$
                                   3070 ;E:\Dropbox\FAUSTO\SVILUPPI\MSX\CODE\C\MSXgl\projects\exsoccer/exsoccer_s1_b2.c:530: g_Players[playerId].Direction == DIRECTION_UP_LEFT ||
    00000FDF FE 08            [ 7] 3071 	cp	a, #0x08
    00000FE1 28 04            [12] 3072 	jr	Z, 00154$
                                   3073 ;E:\Dropbox\FAUSTO\SVILUPPI\MSX\CODE\C\MSXgl\projects\exsoccer/exsoccer_s1_b2.c:531: g_Players[playerId].Direction == DIRECTION_DOWN_LEFT) {
    00000FE3 D6 06            [ 7] 3074 	sub	a, #0x06
    00000FE5 20 13            [12] 3075 	jr	NZ, 00155$
    00000FE7                       3076 00154$:
                                   3077 ;E:\Dropbox\FAUSTO\SVILUPPI\MSX\CODE\C\MSXgl\projects\exsoccer/exsoccer_s1_b2.c:532: g_Players[playerId].X--;
    00000FE7 DD 6E F3         [19] 3078 	ld	l, -13 (ix)
    00000FEA DD 66 F4         [19] 3079 	ld	h, -12 (ix)
    00000FED 5E               [ 7] 3080 	ld	e, (hl)
    00000FEE 23               [ 6] 3081 	inc	hl
    00000FEF 56               [ 7] 3082 	ld	d, (hl)
    00000FF0 1B               [ 6] 3083 	dec	de
    00000FF1 DD 6E F3         [19] 3084 	ld	l, -13 (ix)
    00000FF4 DD 66 F4         [19] 3085 	ld	h, -12 (ix)
    00000FF7 73               [ 7] 3086 	ld	(hl), e
    00000FF8 23               [ 6] 3087 	inc	hl
    00000FF9 72               [ 7] 3088 	ld	(hl), d
    00000FFA                       3089 00155$:
                                   3090 ;E:\Dropbox\FAUSTO\SVILUPPI\MSX\CODE\C\MSXgl\projects\exsoccer/exsoccer_s1_b2.c:519: if (g_Players[playerId].Direction == DIRECTION_UP ||
    00000FFA 0A               [ 7] 3091 	ld	a, (bc)
                                   3092 ;E:\Dropbox\FAUSTO\SVILUPPI\MSX\CODE\C\MSXgl\projects\exsoccer/exsoccer_s1_b2.c:534: if (g_Players[playerId].Direction == DIRECTION_RIGHT ||
    00000FFB FE 03            [ 7] 3093 	cp	a, #0x03
    00000FFD 28 08            [12] 3094 	jr	Z, 00158$
                                   3095 ;E:\Dropbox\FAUSTO\SVILUPPI\MSX\CODE\C\MSXgl\projects\exsoccer/exsoccer_s1_b2.c:535: g_Players[playerId].Direction == DIRECTION_UP_RIGHT ||
    00000FFF FE 02            [ 7] 3096 	cp	a, #0x02
    00001001 28 04            [12] 3097 	jr	Z, 00158$
                                   3098 ;E:\Dropbox\FAUSTO\SVILUPPI\MSX\CODE\C\MSXgl\projects\exsoccer/exsoccer_s1_b2.c:536: g_Players[playerId].Direction == DIRECTION_DOWN_RIGHT) {
    00001003 D6 04            [ 7] 3099 	sub	a, #0x04
    00001005 20 13            [12] 3100 	jr	NZ, 00159$
    00001007                       3101 00158$:
                                   3102 ;E:\Dropbox\FAUSTO\SVILUPPI\MSX\CODE\C\MSXgl\projects\exsoccer/exsoccer_s1_b2.c:537: g_Players[playerId].X++;
    00001007 DD 6E F3         [19] 3103 	ld	l, -13 (ix)
    0000100A DD 66 F4         [19] 3104 	ld	h, -12 (ix)
    0000100D 4E               [ 7] 3105 	ld	c, (hl)
    0000100E 23               [ 6] 3106 	inc	hl
    0000100F 46               [ 7] 3107 	ld	b, (hl)
    00001010 03               [ 6] 3108 	inc	bc
    00001011 DD 6E F3         [19] 3109 	ld	l, -13 (ix)
    00001014 DD 66 F4         [19] 3110 	ld	h, -12 (ix)
    00001017 71               [ 7] 3111 	ld	(hl), c
    00001018 23               [ 6] 3112 	inc	hl
    00001019 70               [ 7] 3113 	ld	(hl), b
    0000101A                       3114 00159$:
                                   3115 ;E:\Dropbox\FAUSTO\SVILUPPI\MSX\CODE\C\MSXgl\projects\exsoccer/exsoccer_s1_b2.c:541: if(g_Players[playerId].Y < FIELD_BOUND_Y_TOP) g_Players[playerId].Y = FIELD_BOUND_Y_TOP;
    0000101A DD 6E F1         [19] 3116 	ld	l, -15 (ix)
    0000101D DD 66 F2         [19] 3117 	ld	h, -14 (ix)
    00001020 4E               [ 7] 3118 	ld	c, (hl)
    00001021 23               [ 6] 3119 	inc	hl
    00001022 46               [ 7] 3120 	ld	b, (hl)
    00001023 79               [ 4] 3121 	ld	a, c
    00001024 D6 32            [ 7] 3122 	sub	a, #0x32
    00001026 78               [ 4] 3123 	ld	a, b
    00001027 DE 00            [ 7] 3124 	sbc	a, #0x00
    00001029 30 0B            [12] 3125 	jr	NC, 00163$
    0000102B DD 6E F1         [19] 3126 	ld	l, -15 (ix)
    0000102E DD 66 F2         [19] 3127 	ld	h, -14 (ix)
    00001031 36 32            [10] 3128 	ld	(hl), #0x32
    00001033 23               [ 6] 3129 	inc	hl
    00001034 36 00            [10] 3130 	ld	(hl), #0x00
    00001036                       3131 00163$:
                                   3132 ;E:\Dropbox\FAUSTO\SVILUPPI\MSX\CODE\C\MSXgl\projects\exsoccer/exsoccer_s1_b2.c:542: if(g_Players[playerId].Y > FIELD_BOUND_Y_BOTTOM) g_Players[playerId].Y = FIELD_BOUND_Y_BOTTOM;
    00001036 DD 6E F1         [19] 3133 	ld	l, -15 (ix)
    00001039 DD 66 F2         [19] 3134 	ld	h, -14 (ix)
    0000103C 4E               [ 7] 3135 	ld	c, (hl)
    0000103D 23               [ 6] 3136 	inc	hl
    0000103E 46               [ 7] 3137 	ld	b, (hl)
    0000103F 3E AE            [ 7] 3138 	ld	a, #0xae
    00001041 B9               [ 4] 3139 	cp	a, c
    00001042 3E 01            [ 7] 3140 	ld	a, #0x01
    00001044 98               [ 4] 3141 	sbc	a, b
    00001045 30 0B            [12] 3142 	jr	NC, 00165$
    00001047 DD 6E F1         [19] 3143 	ld	l, -15 (ix)
    0000104A DD 66 F2         [19] 3144 	ld	h, -14 (ix)
    0000104D 36 AE            [10] 3145 	ld	(hl), #0xae
    0000104F 23               [ 6] 3146 	inc	hl
    00001050 36 01            [10] 3147 	ld	(hl), #0x01
    00001052                       3148 00165$:
                                   3149 ;E:\Dropbox\FAUSTO\SVILUPPI\MSX\CODE\C\MSXgl\projects\exsoccer/exsoccer_s1_b2.c:543: if(g_Players[playerId].X < FIELD_BOUND_X_LEFT) g_Players[playerId].X = FIELD_BOUND_X_LEFT;
    00001052 DD 6E F3         [19] 3150 	ld	l, -13 (ix)
    00001055 DD 66 F4         [19] 3151 	ld	h, -12 (ix)
    00001058 4E               [ 7] 3152 	ld	c, (hl)
    00001059 23               [ 6] 3153 	inc	hl
    0000105A 46               [ 7] 3154 	ld	b, (hl)
    0000105B 79               [ 4] 3155 	ld	a, c
    0000105C D6 0A            [ 7] 3156 	sub	a, #0x0a
    0000105E 78               [ 4] 3157 	ld	a, b
    0000105F DE 00            [ 7] 3158 	sbc	a, #0x00
    00001061 30 0B            [12] 3159 	jr	NC, 00167$
    00001063 DD 6E F3         [19] 3160 	ld	l, -13 (ix)
    00001066 DD 66 F4         [19] 3161 	ld	h, -12 (ix)
    00001069 36 0A            [10] 3162 	ld	(hl), #0x0a
    0000106B 23               [ 6] 3163 	inc	hl
    0000106C 36 00            [10] 3164 	ld	(hl), #0x00
    0000106E                       3165 00167$:
                                   3166 ;E:\Dropbox\FAUSTO\SVILUPPI\MSX\CODE\C\MSXgl\projects\exsoccer/exsoccer_s1_b2.c:544: if(g_Players[playerId].X > FIELD_BOUND_X_RIGHT) g_Players[playerId].X = FIELD_BOUND_X_RIGHT;
    0000106E DD 6E F3         [19] 3167 	ld	l, -13 (ix)
    00001071 DD 66 F4         [19] 3168 	ld	h, -12 (ix)
    00001074 4E               [ 7] 3169 	ld	c, (hl)
    00001075 23               [ 6] 3170 	inc	hl
    00001076 46               [ 7] 3171 	ld	b, (hl)
    00001077 3E F6            [ 7] 3172 	ld	a, #0xf6
    00001079 B9               [ 4] 3173 	cp	a, c
    0000107A 3E 00            [ 7] 3174 	ld	a, #0x00
    0000107C 98               [ 4] 3175 	sbc	a, b
    0000107D 30 0B            [12] 3176 	jr	NC, 00169$
    0000107F DD 6E F3         [19] 3177 	ld	l, -13 (ix)
    00001082 DD 66 F4         [19] 3178 	ld	h, -12 (ix)
    00001085 36 F6            [10] 3179 	ld	(hl), #0xf6
    00001087 23               [ 6] 3180 	inc	hl
    00001088 36 00            [10] 3181 	ld	(hl), #0x00
    0000108A                       3182 00169$:
                                   3183 ;E:\Dropbox\FAUSTO\SVILUPPI\MSX\CODE\C\MSXgl\projects\exsoccer/exsoccer_s1_b2.c:550: g_Players[playerId].Status = PLAYER_STATUS_NONE; // Force not positioned
    0000108A DD 6E F1         [19] 3184 	ld	l, -15 (ix)
    0000108D DD 66 F2         [19] 3185 	ld	h, -14 (ix)
    00001090 11 12 00         [10] 3186 	ld	de, #0x0012
    00001093 19               [11] 3187 	add	hl, de
                                   3188 ;E:\Dropbox\FAUSTO\SVILUPPI\MSX\CODE\C\MSXgl\projects\exsoccer/exsoccer_s1_b2.c:549: if (moveDir != DIRECTION_NONE) {
    00001094 DD 7E FE         [19] 3189 	ld	a, -2 (ix)
    00001097 B7               [ 4] 3190 	or	a, a
    00001098 28 07            [12] 3191 	jr	Z, 00171$
                                   3192 ;E:\Dropbox\FAUSTO\SVILUPPI\MSX\CODE\C\MSXgl\projects\exsoccer/exsoccer_s1_b2.c:550: g_Players[playerId].Status = PLAYER_STATUS_NONE; // Force not positioned
    0000109A AF               [ 4] 3193 	xor	a, a
    0000109B 77               [ 7] 3194 	ld	(hl), a
    0000109C 23               [ 6] 3195 	inc	hl
    0000109D 77               [ 7] 3196 	ld	(hl), a
    0000109E C3rC0r27         [10] 3197 	jp	00609$
    000010A1                       3198 00171$:
                                   3199 ;E:\Dropbox\FAUSTO\SVILUPPI\MSX\CODE\C\MSXgl\projects\exsoccer/exsoccer_s1_b2.c:552: g_Players[playerId].Status = PLAYER_STATUS_POSITIONED; // Allow rest
    000010A1 36 04            [10] 3200 	ld	(hl), #0x04
    000010A3 23               [ 6] 3201 	inc	hl
    000010A4 36 00            [10] 3202 	ld	(hl), #0x00
                                   3203 ;E:\Dropbox\FAUSTO\SVILUPPI\MSX\CODE\C\MSXgl\projects\exsoccer/exsoccer_s1_b2.c:555: return;
    000010A6 C3rC0r27         [10] 3204 	jp	00609$
    000010A9                       3205 00174$:
                                   3206 ;E:\Dropbox\FAUSTO\SVILUPPI\MSX\CODE\C\MSXgl\projects\exsoccer/exsoccer_s1_b2.c:558: u8 playerTeamId = g_Players[playerId].TeamId;
    000010A9 3Er00            [ 7] 3207 	ld	a, #<(_g_Players)
    000010AB DD 86 FD         [19] 3208 	add	a, -3 (ix)
    000010AE DD 77 DD         [19] 3209 	ld	-35 (ix), a
    000010B1 3Es00            [ 7] 3210 	ld	a, #>(_g_Players)
    000010B3 DD 8E FE         [19] 3211 	adc	a, -2 (ix)
    000010B6 DD 77 DE         [19] 3212 	ld	-34 (ix), a
    000010B9 C1               [10] 3213 	pop	bc
    000010BA C5               [11] 3214 	push	bc
    000010BB 21 09 00         [10] 3215 	ld	hl, #9
    000010BE 09               [11] 3216 	add	hl, bc
    000010BF 7E               [ 7] 3217 	ld	a, (hl)
    000010C0 DD 77 DF         [19] 3218 	ld	-33 (ix), a
                                   3219 ;E:\Dropbox\FAUSTO\SVILUPPI\MSX\CODE\C\MSXgl\projects\exsoccer/exsoccer_s1_b2.c:559: bool ballPossessionByPlayerTeam = false;
    000010C3 DD 36 FA 00      [19] 3220 	ld	-6 (ix), #0x00
                                   3221 ;E:\Dropbox\FAUSTO\SVILUPPI\MSX\CODE\C\MSXgl\projects\exsoccer/exsoccer_s1_b2.c:561: if (g_MatchStatus == MATCH_BALL_ON_GOALKEEPER) {
    000010C7 3Ar00r00         [13] 3222 	ld	a, (_g_MatchStatus+0)
    000010CA D6 0D            [ 7] 3223 	sub	a, #0x0d
    000010CC 20 44            [12] 3224 	jr	NZ, 00187$
                                   3225 ;E:\Dropbox\FAUSTO\SVILUPPI\MSX\CODE\C\MSXgl\projects\exsoccer/exsoccer_s1_b2.c:564: if (g_Ball.PossessionPlayerId != NO_VALUE) {
    000010CE 3Ar06r00         [13] 3226 	ld	a, (#(_g_Ball + 6) + 0)
    000010D1 DD 77 FE         [19] 3227 	ld	-2 (ix), a
    000010D4 3C               [ 4] 3228 	inc	a
    000010D5 CAr62r11         [10] 3229 	jp	Z,00188$
                                   3230 ;E:\Dropbox\FAUSTO\SVILUPPI\MSX\CODE\C\MSXgl\projects\exsoccer/exsoccer_s1_b2.c:565: if (g_Players[g_Ball.PossessionPlayerId].TeamId == playerTeamId) ballPossessionByPlayerTeam = true;
    000010D8 DD 4E FE         [19] 3231 	ld	c, -2 (ix)
    000010DB 06 00            [ 7] 3232 	ld	b, #0x00
    000010DD 69               [ 4] 3233 	ld	l, c
    000010DE 60               [ 4] 3234 	ld	h, b
    000010DF 29               [11] 3235 	add	hl, hl
    000010E0 29               [11] 3236 	add	hl, hl
    000010E1 09               [11] 3237 	add	hl, bc
    000010E2 29               [11] 3238 	add	hl, hl
    000010E3 29               [11] 3239 	add	hl, hl
    000010E4 09               [11] 3240 	add	hl, bc
    000010E5 DD 75 FB         [19] 3241 	ld	-5 (ix), l
    000010E8 DD 74 FC         [19] 3242 	ld	-4 (ix), h
    000010EB 3Er00            [ 7] 3243 	ld	a, #<(_g_Players)
    000010ED DD 86 FB         [19] 3244 	add	a, -5 (ix)
    000010F0 DD 77 FD         [19] 3245 	ld	-3 (ix), a
    000010F3 3Es00            [ 7] 3246 	ld	a, #>(_g_Players)
    000010F5 DD 8E FC         [19] 3247 	adc	a, -4 (ix)
    000010F8 DD 77 FE         [19] 3248 	ld	-2 (ix), a
    000010FB DD 6E FD         [19] 3249 	ld	l, -3 (ix)
    000010FE DD 66 FE         [19] 3250 	ld	h, -2 (ix)
    00001101 11 09 00         [10] 3251 	ld	de, #0x0009
    00001104 19               [11] 3252 	add	hl, de
    00001105 DD 7E DF         [19] 3253 	ld	a,-33 (ix)
    00001108 96               [ 7] 3254 	sub	a,(hl)
    00001109 20 57            [12] 3255 	jr	NZ, 00188$
    0000110B DD 36 FA 01      [19] 3256 	ld	-6 (ix), #0x01
    0000110F C3r62r11         [10] 3257 	jp	00188$
    00001112                       3258 00187$:
                                   3259 ;E:\Dropbox\FAUSTO\SVILUPPI\MSX\CODE\C\MSXgl\projects\exsoccer/exsoccer_s1_b2.c:569: if (g_Ball.PossessionPlayerId != NO_VALUE) {
    00001112 3Ar06r00         [13] 3260 	ld	a, (#_g_Ball + 6)
    00001115 DD 77 FE         [19] 3261 	ld	-2 (ix), a
    00001118 3C               [ 4] 3262 	inc	a
    00001119 28 3A            [12] 3263 	jr	Z, 00184$
                                   3264 ;E:\Dropbox\FAUSTO\SVILUPPI\MSX\CODE\C\MSXgl\projects\exsoccer/exsoccer_s1_b2.c:570: if (g_Players[g_Ball.PossessionPlayerId].TeamId == playerTeamId) {
    0000111B DD 4E FE         [19] 3265 	ld	c, -2 (ix)
    0000111E 06 00            [ 7] 3266 	ld	b, #0x00
    00001120 69               [ 4] 3267 	ld	l, c
    00001121 60               [ 4] 3268 	ld	h, b
    00001122 29               [11] 3269 	add	hl, hl
    00001123 29               [11] 3270 	add	hl, hl
    00001124 09               [11] 3271 	add	hl, bc
    00001125 29               [11] 3272 	add	hl, hl
    00001126 29               [11] 3273 	add	hl, hl
    00001127 09               [11] 3274 	add	hl, bc
    00001128 DD 75 FB         [19] 3275 	ld	-5 (ix), l
    0000112B DD 74 FC         [19] 3276 	ld	-4 (ix), h
    0000112E 3Er00            [ 7] 3277 	ld	a, #<(_g_Players)
    00001130 DD 86 FB         [19] 3278 	add	a, -5 (ix)
    00001133 DD 77 FD         [19] 3279 	ld	-3 (ix), a
    00001136 3Es00            [ 7] 3280 	ld	a, #>(_g_Players)
    00001138 DD 8E FC         [19] 3281 	adc	a, -4 (ix)
    0000113B DD 77 FE         [19] 3282 	ld	-2 (ix), a
    0000113E DD 6E FD         [19] 3283 	ld	l, -3 (ix)
    00001141 DD 66 FE         [19] 3284 	ld	h, -2 (ix)
    00001144 11 09 00         [10] 3285 	ld	de, #0x0009
    00001147 19               [11] 3286 	add	hl, de
    00001148 DD 7E DF         [19] 3287 	ld	a,-33 (ix)
    0000114B 96               [ 7] 3288 	sub	a,(hl)
    0000114C 20 14            [12] 3289 	jr	NZ, 00188$
                                   3290 ;E:\Dropbox\FAUSTO\SVILUPPI\MSX\CODE\C\MSXgl\projects\exsoccer/exsoccer_s1_b2.c:571: ballPossessionByPlayerTeam = true;
    0000114E DD 36 FA 01      [19] 3291 	ld	-6 (ix), #0x01
    00001152 C3r62r11         [10] 3292 	jp	00188$
    00001155                       3293 00184$:
                                   3294 ;E:\Dropbox\FAUSTO\SVILUPPI\MSX\CODE\C\MSXgl\projects\exsoccer/exsoccer_s1_b2.c:575: if (g_Ball.LastTouchTeamId == playerTeamId) {
    00001155 21r0Er00         [10] 3295 	ld	hl, #_g_Ball + 14
    00001158 DD 7E DF         [19] 3296 	ld	a,-33 (ix)
    0000115B 96               [ 7] 3297 	sub	a,(hl)
    0000115C 20 04            [12] 3298 	jr	NZ, 00188$
                                   3299 ;E:\Dropbox\FAUSTO\SVILUPPI\MSX\CODE\C\MSXgl\projects\exsoccer/exsoccer_s1_b2.c:576: ballPossessionByPlayerTeam = true;
    0000115E DD 36 FA 01      [19] 3300 	ld	-6 (ix), #0x01
    00001162                       3301 00188$:
                                   3302 ;E:\Dropbox\FAUSTO\SVILUPPI\MSX\CODE\C\MSXgl\projects\exsoccer/exsoccer_s1_b2.c:584: if (ballPossessionByPlayerTeam) {
    00001162 DD 7E FA         [19] 3303 	ld	a, -6 (ix)
    00001165 B7               [ 4] 3304 	or	a, a
    00001166 CArD7r1E         [10] 3305 	jp	Z, 00432$
                                   3306 ;E:\Dropbox\FAUSTO\SVILUPPI\MSX\CODE\C\MSXgl\projects\exsoccer/exsoccer_s1_b2.c:587: if (g_Ball.PossessionPlayerId == playerId) {
    00001169 3Ar06r00         [13] 3307 	ld	a, (#_g_Ball + 6)
    0000116C DD 77 FE         [19] 3308 	ld	-2 (ix), a
    0000116F DD 7E FF         [19] 3309 	ld	a, -1 (ix)
    00001172 DD 96 FE         [19] 3310 	sub	a, -2 (ix)
    00001175 C2r37r19         [10] 3311 	jp	NZ,00345$
                                   3312 ;E:\Dropbox\FAUSTO\SVILUPPI\MSX\CODE\C\MSXgl\projects\exsoccer/exsoccer_s1_b2.c:590: if (g_Players[playerId].Role == PLAYER_ROLE_GOALKEEPER) return;
    00001178 C1               [10] 3313 	pop	bc
    00001179 C5               [11] 3314 	push	bc
    0000117A 21 0D 00         [10] 3315 	ld	hl, #13
    0000117D 09               [11] 3316 	add	hl, bc
    0000117E 7E               [ 7] 3317 	ld	a, (hl)
    0000117F DD 77 E0         [19] 3318 	ld	-32 (ix), a
    00001182 B7               [ 4] 3319 	or	a, a
    00001183 CArC0r27         [10] 3320 	jp	Z,00609$
                                   3321 ;E:\Dropbox\FAUSTO\SVILUPPI\MSX\CODE\C\MSXgl\projects\exsoccer/exsoccer_s1_b2.c:596: if (playerTeamId == TEAM_1) { 
    00001186 DD 7E DF         [19] 3322 	ld	a, -33 (ix)
    00001189 3D               [ 4] 3323 	dec	a
    0000118A 3E 01            [ 7] 3324 	ld	a, #0x01
    0000118C 28 01            [12] 3325 	jr	Z, 01927$
    0000118E AF               [ 4] 3326 	xor	a, a
    0000118F                       3327 01927$:
    0000118F DD 77 E1         [19] 3328 	ld	-31 (ix), a
    00001192 B7               [ 4] 3329 	or	a, a
    00001193 28 0B            [12] 3330 	jr	Z, 00192$
                                   3331 ;E:\Dropbox\FAUSTO\SVILUPPI\MSX\CODE\C\MSXgl\projects\exsoccer/exsoccer_s1_b2.c:597: targetY_Goal = goalTopY - 20; 
    00001195 DD 36 E2 37      [19] 3332 	ld	-30 (ix), #0x37
    00001199 DD 36 E3 00      [19] 3333 	ld	-29 (ix), #0
    0000119D C3rA8r11         [10] 3334 	jp	00193$
    000011A0                       3335 00192$:
                                   3336 ;E:\Dropbox\FAUSTO\SVILUPPI\MSX\CODE\C\MSXgl\projects\exsoccer/exsoccer_s1_b2.c:599: targetY_Goal = goalBottomY + 20;
    000011A0 DD 36 E2 A9      [19] 3337 	ld	-30 (ix), #0xa9
    000011A4 DD 36 E3 01      [19] 3338 	ld	-29 (ix), #0x01
    000011A8                       3339 00193$:
                                   3340 ;E:\Dropbox\FAUSTO\SVILUPPI\MSX\CODE\C\MSXgl\projects\exsoccer/exsoccer_s1_b2.c:603: targetX_Goal = g_Players[playerId].X;
    000011A8 DD 7E DD         [19] 3341 	ld	a, -35 (ix)
    000011AB C6 02            [ 7] 3342 	add	a, #0x02
    000011AD DD 77 E4         [19] 3343 	ld	-28 (ix), a
    000011B0 DD 7E DE         [19] 3344 	ld	a, -34 (ix)
    000011B3 CE 00            [ 7] 3345 	adc	a, #0x00
    000011B5 DD 77 E5         [19] 3346 	ld	-27 (ix), a
    000011B8 DD 6E E4         [19] 3347 	ld	l, -28 (ix)
    000011BB DD 66 E5         [19] 3348 	ld	h, -27 (ix)
    000011BE 7E               [ 7] 3349 	ld	a, (hl)
    000011BF DD 77 E6         [19] 3350 	ld	-26 (ix), a
    000011C2 23               [ 6] 3351 	inc	hl
    000011C3 7E               [ 7] 3352 	ld	a, (hl)
    000011C4 DD 77 E7         [19] 3353 	ld	-25 (ix), a
    000011C7 DD 7E E6         [19] 3354 	ld	a, -26 (ix)
    000011CA DD 77 E8         [19] 3355 	ld	-24 (ix), a
    000011CD DD 7E E7         [19] 3356 	ld	a, -25 (ix)
    000011D0 DD 77 E9         [19] 3357 	ld	-23 (ix), a
                                   3358 ;E:\Dropbox\FAUSTO\SVILUPPI\MSX\CODE\C\MSXgl\projects\exsoccer/exsoccer_s1_b2.c:604: if (targetX_Goal > 100 && targetX_Goal < 156) {
    000011D3 DD 4E E8         [19] 3359 	ld	c, -24 (ix)
    000011D6 DD 46 E9         [19] 3360 	ld	b, -23 (ix)
    000011D9 3E 64            [ 7] 3361 	ld	a, #0x64
    000011DB B9               [ 4] 3362 	cp	a, c
    000011DC 3E 00            [ 7] 3363 	ld	a, #0x00
    000011DE 98               [ 4] 3364 	sbc	a, b
    000011DF 30 21            [12] 3365 	jr	NC, 00198$
    000011E1 79               [ 4] 3366 	ld	a, c
    000011E2 D6 9C            [ 7] 3367 	sub	a, #0x9c
    000011E4 78               [ 4] 3368 	ld	a, b
    000011E5 DE 00            [ 7] 3369 	sbc	a, #0x00
    000011E7 30 19            [12] 3370 	jr	NC, 00198$
                                   3371 ;E:\Dropbox\FAUSTO\SVILUPPI\MSX\CODE\C\MSXgl\projects\exsoccer/exsoccer_s1_b2.c:605: if ((g_Players[playerId].Role % 2) != 0) targetX_Goal = 60; // Go Left
    000011E9 DD CB E0 46      [20] 3372 	bit	0, -32 (ix)
    000011ED 28 0B            [12] 3373 	jr	Z, 00195$
    000011EF DD 36 E8 3C      [19] 3374 	ld	-24 (ix), #0x3c
    000011F3 DD 36 E9 00      [19] 3375 	ld	-23 (ix), #0
    000011F7 C3r02r12         [10] 3376 	jp	00198$
    000011FA                       3377 00195$:
                                   3378 ;E:\Dropbox\FAUSTO\SVILUPPI\MSX\CODE\C\MSXgl\projects\exsoccer/exsoccer_s1_b2.c:606: else targetX_Goal = 190; // Go Right
    000011FA DD 36 E8 BE      [19] 3379 	ld	-24 (ix), #0xbe
    000011FE DD 36 E9 00      [19] 3380 	ld	-23 (ix), #0
    00001202                       3381 00198$:
                                   3382 ;E:\Dropbox\FAUSTO\SVILUPPI\MSX\CODE\C\MSXgl\projects\exsoccer/exsoccer_s1_b2.c:609: if (targetX_Goal < FIELD_BOUND_X_LEFT + 20) targetX_Goal = FIELD_BOUND_X_LEFT + 20;
    00001202 DD 7E E8         [19] 3383 	ld	a, -24 (ix)
    00001205 D6 1E            [ 7] 3384 	sub	a, #0x1e
    00001207 DD 7E E9         [19] 3385 	ld	a, -23 (ix)
    0000120A DE 00            [ 7] 3386 	sbc	a, #0x00
    0000120C 30 08            [12] 3387 	jr	NC, 00201$
    0000120E DD 36 E8 1E      [19] 3388 	ld	-24 (ix), #0x1e
    00001212 DD 36 E9 00      [19] 3389 	ld	-23 (ix), #0
    00001216                       3390 00201$:
                                   3391 ;E:\Dropbox\FAUSTO\SVILUPPI\MSX\CODE\C\MSXgl\projects\exsoccer/exsoccer_s1_b2.c:610: if (targetX_Goal > FIELD_BOUND_X_RIGHT - 20) targetX_Goal = FIELD_BOUND_X_RIGHT - 20;
    00001216 3E E2            [ 7] 3392 	ld	a, #0xe2
    00001218 DD BE E8         [19] 3393 	cp	a, -24 (ix)
    0000121B 3E 00            [ 7] 3394 	ld	a, #0x00
    0000121D DD 9E E9         [19] 3395 	sbc	a, -23 (ix)
    00001220 30 08            [12] 3396 	jr	NC, 00203$
    00001222 DD 36 E8 E2      [19] 3397 	ld	-24 (ix), #0xe2
    00001226 DD 36 E9 00      [19] 3398 	ld	-23 (ix), #0
    0000122A                       3399 00203$:
                                   3400 ;E:\Dropbox\FAUSTO\SVILUPPI\MSX\CODE\C\MSXgl\projects\exsoccer/exsoccer_s1_b2.c:614: bool obstacleRight = false;
    0000122A DD 36 EA 00      [19] 3401 	ld	-22 (ix), #0x00
                                   3402 ;E:\Dropbox\FAUSTO\SVILUPPI\MSX\CODE\C\MSXgl\projects\exsoccer/exsoccer_s1_b2.c:615: bool obstacleLeft = false;
    0000122E DD 36 EB 00      [19] 3403 	ld	-21 (ix), #0x00
                                   3404 ;E:\Dropbox\FAUSTO\SVILUPPI\MSX\CODE\C\MSXgl\projects\exsoccer/exsoccer_s1_b2.c:616: bool obstacleFront = false;
    00001232 DD 36 EC 00      [19] 3405 	ld	-20 (ix), #0x00
                                   3406 ;E:\Dropbox\FAUSTO\SVILUPPI\MSX\CODE\C\MSXgl\projects\exsoccer/exsoccer_s1_b2.c:617: bool obstacleFrontNonGK = false;
    00001236 DD 36 ED 00      [19] 3407 	ld	-19 (ix), #0x00
                                   3408 ;E:\Dropbox\FAUSTO\SVILUPPI\MSX\CODE\C\MSXgl\projects\exsoccer/exsoccer_s1_b2.c:618: bool dangerousOpponent = false;
    0000123A DD 36 EE 00      [19] 3409 	ld	-18 (ix), #0x00
                                   3410 ;E:\Dropbox\FAUSTO\SVILUPPI\MSX\CODE\C\MSXgl\projects\exsoccer/exsoccer_s1_b2.c:621: for(i=0; i<14; i++) { 
    0000123E E1               [10] 3411 	pop	hl
    0000123F E5               [11] 3412 	push	hl
    00001240 7E               [ 7] 3413 	ld	a, (hl)
    00001241 DD 77 EF         [19] 3414 	ld	-17 (ix), a
    00001244 23               [ 6] 3415 	inc	hl
    00001245 7E               [ 7] 3416 	ld	a, (hl)
    00001246 DD 77 F0         [19] 3417 	ld	-16 (ix), a
    00001249 01 00 00         [10] 3418 	ld	bc, #0x0000
    0000124C                       3419 00599$:
                                   3420 ;E:\Dropbox\FAUSTO\SVILUPPI\MSX\CODE\C\MSXgl\projects\exsoccer/exsoccer_s1_b2.c:622: if (g_Players[i].TeamId == playerTeamId) continue;
    0000124C 69               [ 4] 3421 	ld	l, c
    0000124D 60               [ 4] 3422 	ld	h, b
    0000124E 29               [11] 3423 	add	hl, hl
    0000124F 29               [11] 3424 	add	hl, hl
    00001250 09               [11] 3425 	add	hl, bc
    00001251 29               [11] 3426 	add	hl, hl
    00001252 29               [11] 3427 	add	hl, hl
    00001253 09               [11] 3428 	add	hl, bc
    00001254 11r00r00         [10] 3429 	ld	de, #_g_Players
    00001257 19               [11] 3430 	add	hl, de
    00001258 DD 75 F1         [19] 3431 	ld	-15 (ix), l
    0000125B DD 74 F2         [19] 3432 	ld	-14 (ix), h
    0000125E EB               [ 4] 3433 	ex	de,hl
    0000125F 21 09 00         [10] 3434 	ld	hl, #9
    00001262 19               [11] 3435 	add	hl, de
    00001263 5E               [ 7] 3436 	ld	e, (hl)
    00001264 DD 7E DF         [19] 3437 	ld	a, -33 (ix)
    00001267 93               [ 4] 3438 	sub	a, e
    00001268 CAr52r14         [10] 3439 	jp	Z,00244$
                                   3440 ;E:\Dropbox\FAUSTO\SVILUPPI\MSX\CODE\C\MSXgl\projects\exsoccer/exsoccer_s1_b2.c:623: if (g_Players[i].Status == PLAYER_STATUS_NONE) continue;
    0000126B DD 5E F1         [19] 3441 	ld	e, -15 (ix)
    0000126E DD 56 F2         [19] 3442 	ld	d, -14 (ix)
    00001271 21 12 00         [10] 3443 	ld	hl, #18
    00001274 19               [11] 3444 	add	hl, de
    00001275 5E               [ 7] 3445 	ld	e, (hl)
    00001276 23               [ 6] 3446 	inc	hl
    00001277 7E               [ 7] 3447 	ld	a, (hl)
    00001278 B3               [ 4] 3448 	or	a, e
    00001279 CAr52r14         [10] 3449 	jp	Z, 00244$
                                   3450 ;E:\Dropbox\FAUSTO\SVILUPPI\MSX\CODE\C\MSXgl\projects\exsoccer/exsoccer_s1_b2.c:624: if (i == playerId) continue;
    0000127C DD 6E FF         [19] 3451 	ld	l, -1 (ix)
                                   3452 ;	spillPairReg hl
                                   3453 ;	spillPairReg hl
    0000127F 26 00            [ 7] 3454 	ld	h, #0x00
                                   3455 ;	spillPairReg hl
                                   3456 ;	spillPairReg hl
    00001281 BF               [ 4] 3457 	cp	a, a
    00001282 ED 42            [15] 3458 	sbc	hl, bc
    00001284 CAr52r14         [10] 3459 	jp	Z,00244$
                                   3460 ;E:\Dropbox\FAUSTO\SVILUPPI\MSX\CODE\C\MSXgl\projects\exsoccer/exsoccer_s1_b2.c:626: i16 relX = (i16)g_Players[i].X - (i16)g_Players[playerId].X;
    00001287 DD 6E F1         [19] 3461 	ld	l, -15 (ix)
                                   3462 ;	spillPairReg hl
                                   3463 ;	spillPairReg hl
    0000128A DD 66 F2         [19] 3464 	ld	h, -14 (ix)
                                   3465 ;	spillPairReg hl
                                   3466 ;	spillPairReg hl
    0000128D 23               [ 6] 3467 	inc	hl
    0000128E 23               [ 6] 3468 	inc	hl
    0000128F 5E               [ 7] 3469 	ld	e, (hl)
    00001290 23               [ 6] 3470 	inc	hl
    00001291 56               [ 7] 3471 	ld	d, (hl)
    00001292 EB               [ 4] 3472 	ex	de, hl
    00001293 DD 5E E6         [19] 3473 	ld	e, -26 (ix)
    00001296 DD 56 E7         [19] 3474 	ld	d, -25 (ix)
    00001299 BF               [ 4] 3475 	cp	a, a
    0000129A ED 52            [15] 3476 	sbc	hl, de
    0000129C DD 75 F3         [19] 3477 	ld	-13 (ix), l
    0000129F DD 74 F4         [19] 3478 	ld	-12 (ix), h
                                   3479 ;E:\Dropbox\FAUSTO\SVILUPPI\MSX\CODE\C\MSXgl\projects\exsoccer/exsoccer_s1_b2.c:627: i16 relY = (i16)g_Players[i].Y - (i16)g_Players[playerId].Y;
    000012A2 DD 6E F1         [19] 3480 	ld	l, -15 (ix)
    000012A5 DD 66 F2         [19] 3481 	ld	h, -14 (ix)
    000012A8 5E               [ 7] 3482 	ld	e, (hl)
    000012A9 23               [ 6] 3483 	inc	hl
    000012AA 56               [ 7] 3484 	ld	d, (hl)
    000012AB EB               [ 4] 3485 	ex	de, hl
    000012AC DD 5E EF         [19] 3486 	ld	e, -17 (ix)
    000012AF DD 56 F0         [19] 3487 	ld	d, -16 (ix)
    000012B2 BF               [ 4] 3488 	cp	a, a
    000012B3 ED 52            [15] 3489 	sbc	hl, de
    000012B5 DD 75 F5         [19] 3490 	ld	-11 (ix), l
    000012B8 DD 74 F6         [19] 3491 	ld	-10 (ix), h
                                   3492 ;E:\Dropbox\FAUSTO\SVILUPPI\MSX\CODE\C\MSXgl\projects\exsoccer/exsoccer_s1_b2.c:633: bool isFront = false;
    000012BB 1E 00            [ 7] 3493 	ld	e, #0x00
                                   3494 ;E:\Dropbox\FAUSTO\SVILUPPI\MSX\CODE\C\MSXgl\projects\exsoccer/exsoccer_s1_b2.c:634: bool isBehind = false;
    000012BD DD 36 FE 00      [19] 3495 	ld	-2 (ix), #0x00
                                   3496 ;E:\Dropbox\FAUSTO\SVILUPPI\MSX\CODE\C\MSXgl\projects\exsoccer/exsoccer_s1_b2.c:637: if (relY < 0 && relY > -obstacleDetDist) isFront = true;
    000012C1 DD 7E F5         [19] 3497 	ld	a, -11 (ix)
    000012C4 DD 77 F7         [19] 3498 	ld	-9 (ix), a
    000012C7 DD 7E F6         [19] 3499 	ld	a, -10 (ix)
    000012CA DD 77 F8         [19] 3500 	ld	-8 (ix), a
                                   3501 ;E:\Dropbox\FAUSTO\SVILUPPI\MSX\CODE\C\MSXgl\projects\exsoccer/exsoccer_s1_b2.c:636: if (playerTeamId == TEAM_1) { // Moving UP (Y decreases)
    000012CD DD 7E E1         [19] 3502 	ld	a, -31 (ix)
    000012D0 B7               [ 4] 3503 	or	a, a
    000012D1 28 29            [12] 3504 	jr	Z, 00221$
                                   3505 ;E:\Dropbox\FAUSTO\SVILUPPI\MSX\CODE\C\MSXgl\projects\exsoccer/exsoccer_s1_b2.c:637: if (relY < 0 && relY > -obstacleDetDist) isFront = true;
    000012D3 DD 7E F8         [19] 3506 	ld	a, -8 (ix)
    000012D6 07               [ 4] 3507 	rlca
    000012D7 E6 01            [ 7] 3508 	and	a,#0x01
    000012D9 57               [ 4] 3509 	ld	d, a
    000012DA B7               [ 4] 3510 	or	a, a
    000012DB 28 14            [12] 3511 	jr	Z, 00211$
    000012DD 3E E0            [ 7] 3512 	ld	a, #0xe0
    000012DF DD BE F7         [19] 3513 	cp	a, -9 (ix)
    000012E2 3E FF            [ 7] 3514 	ld	a, #0xff
    000012E4 DD 9E F8         [19] 3515 	sbc	a, -8 (ix)
    000012E7 E2rECr12         [10] 3516 	jp	PO, 01931$
    000012EA EE 80            [ 7] 3517 	xor	a, #0x80
    000012EC                       3518 01931$:
    000012EC F2rF1r12         [10] 3519 	jp	P, 00211$
    000012EF 1E 01            [ 7] 3520 	ld	e, #0x01
    000012F1                       3521 00211$:
                                   3522 ;E:\Dropbox\FAUSTO\SVILUPPI\MSX\CODE\C\MSXgl\projects\exsoccer/exsoccer_s1_b2.c:638: if (relY >= 0) isBehind = true;
    000012F1 CB 42            [ 8] 3523 	bit	0, d
    000012F3 20 33            [12] 3524 	jr	NZ, 00222$
    000012F5 DD 36 FE 01      [19] 3525 	ld	-2 (ix), #0x01
    000012F9 C3r28r13         [10] 3526 	jp	00222$
    000012FC                       3527 00221$:
                                   3528 ;E:\Dropbox\FAUSTO\SVILUPPI\MSX\CODE\C\MSXgl\projects\exsoccer/exsoccer_s1_b2.c:640: if (relY > 0 && relY < obstacleDetDist) isFront = true;
    000012FC AF               [ 4] 3529 	xor	a, a
    000012FD DD BE F7         [19] 3530 	cp	a, -9 (ix)
    00001300 DD 9E F8         [19] 3531 	sbc	a, -8 (ix)
    00001303 E2r08r13         [10] 3532 	jp	PO, 01932$
    00001306 EE 80            [ 7] 3533 	xor	a, #0x80
    00001308                       3534 01932$:
    00001308 07               [ 4] 3535 	rlca
    00001309 E6 01            [ 7] 3536 	and	a,#0x01
    0000130B 57               [ 4] 3537 	ld	d, a
    0000130C B7               [ 4] 3538 	or	a, a
    0000130D 28 11            [12] 3539 	jr	Z, 00216$
    0000130F DD 7E F5         [19] 3540 	ld	a, -11 (ix)
    00001312 D6 20            [ 7] 3541 	sub	a, #0x20
    00001314 DD 7E F6         [19] 3542 	ld	a, -10 (ix)
    00001317 17               [ 4] 3543 	rla
    00001318 3F               [ 4] 3544 	ccf
    00001319 1F               [ 4] 3545 	rra
    0000131A DE 80            [ 7] 3546 	sbc	a, #0x80
    0000131C 30 02            [12] 3547 	jr	NC, 00216$
    0000131E 1E 01            [ 7] 3548 	ld	e, #0x01
    00001320                       3549 00216$:
                                   3550 ;E:\Dropbox\FAUSTO\SVILUPPI\MSX\CODE\C\MSXgl\projects\exsoccer/exsoccer_s1_b2.c:641: if (relY <= 0) isBehind = true;
    00001320 CB 42            [ 8] 3551 	bit	0, d
    00001322 20 04            [12] 3552 	jr	NZ, 00222$
    00001324 DD 36 FE 01      [19] 3553 	ld	-2 (ix), #0x01
    00001328                       3554 00222$:
                                   3555 ;E:\Dropbox\FAUSTO\SVILUPPI\MSX\CODE\C\MSXgl\projects\exsoccer/exsoccer_s1_b2.c:646: u8 safeDist = isBehind ? 12 : 16; 
    00001328 DD 7E FE         [19] 3556 	ld	a, -2 (ix)
    0000132B B7               [ 4] 3557 	or	a, a
    0000132C 28 0B            [12] 3558 	jr	Z, 00611$
    0000132E DD 36 FD 0C      [19] 3559 	ld	-3 (ix), #0x0c
    00001332 DD 36 FE 00      [19] 3560 	ld	-2 (ix), #0
    00001336 C3r41r13         [10] 3561 	jp	00612$
    00001339                       3562 00611$:
    00001339 DD 36 FD 10      [19] 3563 	ld	-3 (ix), #0x10
    0000133D DD 36 FE 00      [19] 3564 	ld	-2 (ix), #0
    00001341                       3565 00612$:
    00001341 DD 56 FD         [19] 3566 	ld	d, -3 (ix)
                                   3567 ;E:\Dropbox\FAUSTO\SVILUPPI\MSX\CODE\C\MSXgl\projects\exsoccer/exsoccer_s1_b2.c:647: if (relX > -safeDist && relX < safeDist && relY > -safeDist && relY < safeDist) {
    00001344 7A               [ 4] 3568 	ld	a, d
    00001345 2E 00            [ 7] 3569 	ld	l, #0x00
                                   3570 ;	spillPairReg hl
                                   3571 ;	spillPairReg hl
    00001347 ED 44            [ 8] 3572 	neg
    00001349 DD 77 F9         [19] 3573 	ld	-7 (ix), a
    0000134C 9F               [ 4] 3574 	sbc	a, a
    0000134D 95               [ 4] 3575 	sub	a, l
    0000134E DD 77 FA         [19] 3576 	ld	-6 (ix), a
    00001351 DD 7E F3         [19] 3577 	ld	a, -13 (ix)
    00001354 DD 77 FB         [19] 3578 	ld	-5 (ix), a
    00001357 DD 7E F4         [19] 3579 	ld	a, -12 (ix)
    0000135A DD 77 FC         [19] 3580 	ld	-4 (ix), a
    0000135D DD 7E F9         [19] 3581 	ld	a, -7 (ix)
    00001360 DD 96 FB         [19] 3582 	sub	a, -5 (ix)
    00001363 DD 7E FA         [19] 3583 	ld	a, -6 (ix)
    00001366 DD 9E FC         [19] 3584 	sbc	a, -4 (ix)
    00001369 E2r6Er13         [10] 3585 	jp	PO, 01933$
    0000136C EE 80            [ 7] 3586 	xor	a, #0x80
    0000136E                       3587 01933$:
    0000136E F2rB8r13         [10] 3588 	jp	P, 00224$
    00001371 DD 72 FD         [19] 3589 	ld	-3 (ix), d
    00001374 DD 36 FE 00      [19] 3590 	ld	-2 (ix), #0x00
    00001378 DD 7E F3         [19] 3591 	ld	a, -13 (ix)
    0000137B DD 96 FD         [19] 3592 	sub	a, -3 (ix)
    0000137E DD 7E F4         [19] 3593 	ld	a, -12 (ix)
    00001381 DD 9E FE         [19] 3594 	sbc	a, -2 (ix)
    00001384 E2r89r13         [10] 3595 	jp	PO, 01934$
    00001387 EE 80            [ 7] 3596 	xor	a, #0x80
    00001389                       3597 01934$:
    00001389 F2rB8r13         [10] 3598 	jp	P, 00224$
    0000138C DD 7E F9         [19] 3599 	ld	a, -7 (ix)
    0000138F DD 96 F7         [19] 3600 	sub	a, -9 (ix)
    00001392 DD 7E FA         [19] 3601 	ld	a, -6 (ix)
    00001395 DD 9E F8         [19] 3602 	sbc	a, -8 (ix)
    00001398 E2r9Dr13         [10] 3603 	jp	PO, 01935$
    0000139B EE 80            [ 7] 3604 	xor	a, #0x80
    0000139D                       3605 01935$:
    0000139D F2rB8r13         [10] 3606 	jp	P, 00224$
    000013A0 DD 7E F5         [19] 3607 	ld	a, -11 (ix)
    000013A3 DD 96 FD         [19] 3608 	sub	a, -3 (ix)
    000013A6 DD 7E F6         [19] 3609 	ld	a, -10 (ix)
    000013A9 DD 9E FE         [19] 3610 	sbc	a, -2 (ix)
    000013AC E2rB1r13         [10] 3611 	jp	PO, 01936$
    000013AF EE 80            [ 7] 3612 	xor	a, #0x80
    000013B1                       3613 01936$:
    000013B1 F2rB8r13         [10] 3614 	jp	P, 00224$
                                   3615 ;E:\Dropbox\FAUSTO\SVILUPPI\MSX\CODE\C\MSXgl\projects\exsoccer/exsoccer_s1_b2.c:648: dangerousOpponent = true;
    000013B4 DD 36 EE 01      [19] 3616 	ld	-18 (ix), #0x01
    000013B8                       3617 00224$:
                                   3618 ;E:\Dropbox\FAUSTO\SVILUPPI\MSX\CODE\C\MSXgl\projects\exsoccer/exsoccer_s1_b2.c:652: if (isFront && relX > -10 && relX < 10) {
    000013B8 7B               [ 4] 3619 	ld	a, e
    000013B9 B7               [ 4] 3620 	or	a, a
    000013BA 28 39            [12] 3621 	jr	Z, 00231$
    000013BC 3E F6            [ 7] 3622 	ld	a, #0xf6
    000013BE DD BE F3         [19] 3623 	cp	a, -13 (ix)
    000013C1 3E FF            [ 7] 3624 	ld	a, #0xff
    000013C3 DD 9E F4         [19] 3625 	sbc	a, -12 (ix)
    000013C6 E2rCBr13         [10] 3626 	jp	PO, 01937$
    000013C9 EE 80            [ 7] 3627 	xor	a, #0x80
    000013CB                       3628 01937$:
    000013CB F2rF5r13         [10] 3629 	jp	P, 00231$
    000013CE DD 7E FB         [19] 3630 	ld	a, -5 (ix)
    000013D1 D6 0A            [ 7] 3631 	sub	a, #0x0a
    000013D3 DD 7E FC         [19] 3632 	ld	a, -4 (ix)
    000013D6 17               [ 4] 3633 	rla
    000013D7 3F               [ 4] 3634 	ccf
    000013D8 1F               [ 4] 3635 	rra
    000013D9 DE 80            [ 7] 3636 	sbc	a, #0x80
    000013DB 30 18            [12] 3637 	jr	NC, 00231$
                                   3638 ;E:\Dropbox\FAUSTO\SVILUPPI\MSX\CODE\C\MSXgl\projects\exsoccer/exsoccer_s1_b2.c:653: obstacleFront = true;
    000013DD DD 36 EC 01      [19] 3639 	ld	-20 (ix), #0x01
                                   3640 ;E:\Dropbox\FAUSTO\SVILUPPI\MSX\CODE\C\MSXgl\projects\exsoccer/exsoccer_s1_b2.c:654: if (g_Players[i].Role != PLAYER_ROLE_GOALKEEPER) obstacleFrontNonGK = true;
    000013E1 DD 6E F1         [19] 3641 	ld	l, -15 (ix)
                                   3642 ;	spillPairReg hl
                                   3643 ;	spillPairReg hl
    000013E4 DD 66 F2         [19] 3644 	ld	h, -14 (ix)
                                   3645 ;	spillPairReg hl
                                   3646 ;	spillPairReg hl
    000013E7 C5               [11] 3647 	push	bc
    000013E8 01 0D 00         [10] 3648 	ld	bc, #0x000d
    000013EB 09               [11] 3649 	add	hl, bc
    000013EC C1               [10] 3650 	pop	bc
    000013ED 7E               [ 7] 3651 	ld	a, (hl)
    000013EE B7               [ 4] 3652 	or	a, a
    000013EF 28 04            [12] 3653 	jr	Z, 00231$
    000013F1 DD 36 ED 01      [19] 3654 	ld	-19 (ix), #0x01
    000013F5                       3655 00231$:
                                   3656 ;E:\Dropbox\FAUSTO\SVILUPPI\MSX\CODE\C\MSXgl\projects\exsoccer/exsoccer_s1_b2.c:657: if (isFront || (relY < 18 && relY > -18)) { 
    000013F5 7B               [ 4] 3657 	ld	a, e
    000013F6 B7               [ 4] 3658 	or	a, a
    000013F7 20 21            [12] 3659 	jr	NZ, 00240$
    000013F9 DD 7E F7         [19] 3660 	ld	a, -9 (ix)
    000013FC D6 12            [ 7] 3661 	sub	a, #0x12
    000013FE DD 7E F8         [19] 3662 	ld	a, -8 (ix)
    00001401 17               [ 4] 3663 	rla
    00001402 3F               [ 4] 3664 	ccf
    00001403 1F               [ 4] 3665 	rra
    00001404 DE 80            [ 7] 3666 	sbc	a, #0x80
    00001406 30 4A            [12] 3667 	jr	NC, 00244$
    00001408 3E EE            [ 7] 3668 	ld	a, #0xee
    0000140A DD BE F5         [19] 3669 	cp	a, -11 (ix)
    0000140D 3E FF            [ 7] 3670 	ld	a, #0xff
    0000140F DD 9E F6         [19] 3671 	sbc	a, -10 (ix)
    00001412 E2r17r14         [10] 3672 	jp	PO, 01938$
    00001415 EE 80            [ 7] 3673 	xor	a, #0x80
    00001417                       3674 01938$:
    00001417 F2r52r14         [10] 3675 	jp	P, 00244$
    0000141A                       3676 00240$:
                                   3677 ;E:\Dropbox\FAUSTO\SVILUPPI\MSX\CODE\C\MSXgl\projects\exsoccer/exsoccer_s1_b2.c:658: if (relX >= 0 && relX < 24) obstacleRight = true; // Obstacle is to my right
    0000141A DD 7E FC         [19] 3678 	ld	a, -4 (ix)
    0000141D 07               [ 4] 3679 	rlca
    0000141E E6 01            [ 7] 3680 	and	a,#0x01
    00001420 5F               [ 4] 3681 	ld	e, a
    00001421 CB 43            [ 8] 3682 	bit	0, e
    00001423 20 13            [12] 3683 	jr	NZ, 00235$
    00001425 DD 7E FB         [19] 3684 	ld	a, -5 (ix)
    00001428 D6 18            [ 7] 3685 	sub	a, #0x18
    0000142A DD 7E FC         [19] 3686 	ld	a, -4 (ix)
    0000142D 17               [ 4] 3687 	rla
    0000142E 3F               [ 4] 3688 	ccf
    0000142F 1F               [ 4] 3689 	rra
    00001430 DE 80            [ 7] 3690 	sbc	a, #0x80
    00001432 30 04            [12] 3691 	jr	NC, 00235$
    00001434 DD 36 EA 01      [19] 3692 	ld	-22 (ix), #0x01
    00001438                       3693 00235$:
                                   3694 ;E:\Dropbox\FAUSTO\SVILUPPI\MSX\CODE\C\MSXgl\projects\exsoccer/exsoccer_s1_b2.c:659: if (relX < 0 && relX > -24) obstacleLeft = true; // Obstacle is to my left
    00001438 7B               [ 4] 3695 	ld	a, e
    00001439 B7               [ 4] 3696 	or	a, a
    0000143A 28 16            [12] 3697 	jr	Z, 00244$
    0000143C 3E E8            [ 7] 3698 	ld	a, #0xe8
    0000143E DD BE F3         [19] 3699 	cp	a, -13 (ix)
    00001441 3E FF            [ 7] 3700 	ld	a, #0xff
    00001443 DD 9E F4         [19] 3701 	sbc	a, -12 (ix)
    00001446 E2r4Br14         [10] 3702 	jp	PO, 01939$
    00001449 EE 80            [ 7] 3703 	xor	a, #0x80
    0000144B                       3704 01939$:
    0000144B F2r52r14         [10] 3705 	jp	P, 00244$
    0000144E DD 36 EB 01      [19] 3706 	ld	-21 (ix), #0x01
    00001452                       3707 00244$:
                                   3708 ;E:\Dropbox\FAUSTO\SVILUPPI\MSX\CODE\C\MSXgl\projects\exsoccer/exsoccer_s1_b2.c:621: for(i=0; i<14; i++) { 
    00001452 03               [ 6] 3709 	inc	bc
    00001453 79               [ 4] 3710 	ld	a, c
    00001454 D6 0E            [ 7] 3711 	sub	a, #0x0e
    00001456 78               [ 4] 3712 	ld	a, b
    00001457 17               [ 4] 3713 	rla
    00001458 3F               [ 4] 3714 	ccf
    00001459 1F               [ 4] 3715 	rra
    0000145A DE 80            [ 7] 3716 	sbc	a, #0x80
    0000145C DAr4Cr12         [10] 3717 	jp	C, 00599$
                                   3718 ;E:\Dropbox\FAUSTO\SVILUPPI\MSX\CODE\C\MSXgl\projects\exsoccer/exsoccer_s1_b2.c:668: bool isHumanControlled = false;
    0000145F DD 36 FD 00      [19] 3719 	ld	-3 (ix), #0x00
                                   3720 ;E:\Dropbox\FAUSTO\SVILUPPI\MSX\CODE\C\MSXgl\projects\exsoccer/exsoccer_s1_b2.c:669: if ((playerTeamId == TEAM_1 && g_Team1ActivePlayer == playerId) || 
    00001463 DD 7E E1         [19] 3721 	ld	a, -31 (ix)
    00001466 B7               [ 4] 3722 	or	a, a
    00001467 28 08            [12] 3723 	jr	Z, 00258$
    00001469 3Ar00r00         [13] 3724 	ld	a, (_g_Team1ActivePlayer+0)
    0000146C DD 96 FF         [19] 3725 	sub	a, -1 (ix)
    0000146F 28 15            [12] 3726 	jr	Z, 00253$
    00001471                       3727 00258$:
                                   3728 ;E:\Dropbox\FAUSTO\SVILUPPI\MSX\CODE\C\MSXgl\projects\exsoccer/exsoccer_s1_b2.c:670: (playerTeamId == TEAM_2 && g_GameWith2Players && g_Team2ActivePlayer == playerId)) {
    00001471 DD 7E DF         [19] 3729 	ld	a, -33 (ix)
    00001474 D6 02            [ 7] 3730 	sub	a, #0x02
    00001476 20 12            [12] 3731 	jr	NZ, 00254$
    00001478 3Ar00r00         [13] 3732 	ld	a, (_g_GameWith2Players+0)
    0000147B B7               [ 4] 3733 	or	a, a
    0000147C 28 0C            [12] 3734 	jr	Z, 00254$
    0000147E 3Ar00r00         [13] 3735 	ld	a, (_g_Team2ActivePlayer+0)
    00001481 DD 96 FF         [19] 3736 	sub	a, -1 (ix)
    00001484 20 04            [12] 3737 	jr	NZ, 00254$
    00001486                       3738 00253$:
                                   3739 ;E:\Dropbox\FAUSTO\SVILUPPI\MSX\CODE\C\MSXgl\projects\exsoccer/exsoccer_s1_b2.c:671: isHumanControlled = true;
    00001486 DD 36 FD 01      [19] 3740 	ld	-3 (ix), #0x01
    0000148A                       3741 00254$:
                                   3742 ;E:\Dropbox\FAUSTO\SVILUPPI\MSX\CODE\C\MSXgl\projects\exsoccer/exsoccer_s1_b2.c:674: if (!isHumanControlled) {
    0000148A DD 7E FD         [19] 3743 	ld	a, -3 (ix)
    0000148D B7               [ 4] 3744 	or	a, a
    0000148E C2rAFr15         [10] 3745 	jp	NZ, 00281$
                                   3746 ;E:\Dropbox\FAUSTO\SVILUPPI\MSX\CODE\C\MSXgl\projects\exsoccer/exsoccer_s1_b2.c:676: bool inRealShootingRange = false;
    00001491 DD 36 FA 00      [19] 3747 	ld	-6 (ix), #0x00
                                   3748 ;E:\Dropbox\FAUSTO\SVILUPPI\MSX\CODE\C\MSXgl\projects\exsoccer/exsoccer_s1_b2.c:677: bool inDangerousZone = false;
    00001495 DD 36 FE 00      [19] 3749 	ld	-2 (ix), #0x00
                                   3750 ;E:\Dropbox\FAUSTO\SVILUPPI\MSX\CODE\C\MSXgl\projects\exsoccer/exsoccer_s1_b2.c:680: if (playerTeamId == TEAM_1) {
    00001499 DD 7E E1         [19] 3751 	ld	a, -31 (ix)
    0000149C B7               [ 4] 3752 	or	a, a
    0000149D 28 37            [12] 3753 	jr	Z, 00268$
                                   3754 ;E:\Dropbox\FAUSTO\SVILUPPI\MSX\CODE\C\MSXgl\projects\exsoccer/exsoccer_s1_b2.c:684: if (g_Players[playerId].Y < (FIELD_BOUND_Y_TOP + 90)) inRealShootingRange = true;
    0000149F DD 7E EF         [19] 3755 	ld	a, -17 (ix)
    000014A2 DD 77 FB         [19] 3756 	ld	-5 (ix), a
    000014A5 DD 7E F0         [19] 3757 	ld	a, -16 (ix)
    000014A8 DD 77 FC         [19] 3758 	ld	-4 (ix), a
    000014AB DD 7E EF         [19] 3759 	ld	a, -17 (ix)
    000014AE D6 8C            [ 7] 3760 	sub	a, #0x8c
    000014B0 DD 7E F0         [19] 3761 	ld	a, -16 (ix)
    000014B3 DE 00            [ 7] 3762 	sbc	a, #0x00
    000014B5 30 04            [12] 3763 	jr	NC, 00260$
    000014B7 DD 36 FA 01      [19] 3764 	ld	-6 (ix), #0x01
    000014BB                       3765 00260$:
                                   3766 ;E:\Dropbox\FAUSTO\SVILUPPI\MSX\CODE\C\MSXgl\projects\exsoccer/exsoccer_s1_b2.c:687: if (g_Players[playerId].Y < (FIELD_BOUND_Y_TOP + 60)) inDangerousZone = true; 
    000014BB DD 7E FB         [19] 3767 	ld	a, -5 (ix)
    000014BE D6 6E            [ 7] 3768 	sub	a, #0x6e
    000014C0 DD 7E FC         [19] 3769 	ld	a, -4 (ix)
    000014C3 DE 00            [ 7] 3770 	sbc	a, #0x00
    000014C5 30 04            [12] 3771 	jr	NC, 00262$
    000014C7 DD 36 FE 01      [19] 3772 	ld	-2 (ix), #0x01
    000014CB                       3773 00262$:
                                   3774 ;E:\Dropbox\FAUSTO\SVILUPPI\MSX\CODE\C\MSXgl\projects\exsoccer/exsoccer_s1_b2.c:688: goalTargetY = FIELD_BOUND_Y_TOP - 40; 
    000014CB DD 36 FB 0A      [19] 3775 	ld	-5 (ix), #0x0a
    000014CF DD 36 FC 00      [19] 3776 	ld	-4 (ix), #0
    000014D3 C3r0Ar15         [10] 3777 	jp	00269$
    000014D6                       3778 00268$:
                                   3779 ;E:\Dropbox\FAUSTO\SVILUPPI\MSX\CODE\C\MSXgl\projects\exsoccer/exsoccer_s1_b2.c:692: if (g_Players[playerId].Y > (FIELD_BOUND_Y_BOTTOM - 90)) inRealShootingRange = true;
    000014D6 DD 7E EF         [19] 3780 	ld	a, -17 (ix)
    000014D9 DD 77 FB         [19] 3781 	ld	-5 (ix), a
    000014DC DD 7E F0         [19] 3782 	ld	a, -16 (ix)
    000014DF DD 77 FC         [19] 3783 	ld	-4 (ix), a
    000014E2 3E 54            [ 7] 3784 	ld	a, #0x54
    000014E4 DD BE FB         [19] 3785 	cp	a, -5 (ix)
    000014E7 3E 01            [ 7] 3786 	ld	a, #0x01
    000014E9 DD 9E FC         [19] 3787 	sbc	a, -4 (ix)
    000014EC 30 04            [12] 3788 	jr	NC, 00264$
    000014EE DD 36 FA 01      [19] 3789 	ld	-6 (ix), #0x01
    000014F2                       3790 00264$:
                                   3791 ;E:\Dropbox\FAUSTO\SVILUPPI\MSX\CODE\C\MSXgl\projects\exsoccer/exsoccer_s1_b2.c:695: if (g_Players[playerId].Y > (FIELD_BOUND_Y_BOTTOM - 60)) inDangerousZone = true;
    000014F2 3E 72            [ 7] 3792 	ld	a, #0x72
    000014F4 DD BE FB         [19] 3793 	cp	a, -5 (ix)
    000014F7 3E 01            [ 7] 3794 	ld	a, #0x01
    000014F9 DD 9E FC         [19] 3795 	sbc	a, -4 (ix)
    000014FC 30 04            [12] 3796 	jr	NC, 00266$
    000014FE DD 36 FE 01      [19] 3797 	ld	-2 (ix), #0x01
    00001502                       3798 00266$:
                                   3799 ;E:\Dropbox\FAUSTO\SVILUPPI\MSX\CODE\C\MSXgl\projects\exsoccer/exsoccer_s1_b2.c:696: goalTargetY = FIELD_BOUND_Y_BOTTOM + 40; 
    00001502 DD 36 FB D6      [19] 3800 	ld	-5 (ix), #0xd6
    00001506 DD 36 FC 01      [19] 3801 	ld	-4 (ix), #0x01
    0000150A                       3802 00269$:
                                   3803 ;E:\Dropbox\FAUSTO\SVILUPPI\MSX\CODE\C\MSXgl\projects\exsoccer/exsoccer_s1_b2.c:700: if (g_Players[playerId].Role == PLAYER_ROLE_GOALKEEPER) {
    0000150A DD 7E E0         [19] 3804 	ld	a, -32 (ix)
    0000150D B7               [ 4] 3805 	or	a, a
    0000150E 20 08            [12] 3806 	jr	NZ, 00271$
                                   3807 ;E:\Dropbox\FAUSTO\SVILUPPI\MSX\CODE\C\MSXgl\projects\exsoccer/exsoccer_s1_b2.c:701: inRealShootingRange = false;
    00001510 DD 36 FA 00      [19] 3808 	ld	-6 (ix), #0x00
                                   3809 ;E:\Dropbox\FAUSTO\SVILUPPI\MSX\CODE\C\MSXgl\projects\exsoccer/exsoccer_s1_b2.c:702: inDangerousZone = false;
    00001514 DD 36 FE 00      [19] 3810 	ld	-2 (ix), #0x00
    00001518                       3811 00271$:
                                   3812 ;E:\Dropbox\FAUSTO\SVILUPPI\MSX\CODE\C\MSXgl\projects\exsoccer/exsoccer_s1_b2.c:705: if (inRealShootingRange) {
    00001518 DD 7E FA         [19] 3813 	ld	a, -6 (ix)
    0000151B B7               [ 4] 3814 	or	a, a
    0000151C CArAFr15         [10] 3815 	jp	Z, 00281$
                                   3816 ;E:\Dropbox\FAUSTO\SVILUPPI\MSX\CODE\C\MSXgl\projects\exsoccer/exsoccer_s1_b2.c:714: bool clearShot = !obstacleFrontNonGK;
    0000151F DD 7E ED         [19] 3817 	ld	a, -19 (ix)
    00001522 D6 01            [ 7] 3818 	sub	a,#0x01
    00001524 3E 00            [ 7] 3819 	ld	a, #0x00
    00001526 17               [ 4] 3820 	rla
    00001527 DD 77 FA         [19] 3821 	ld	-6 (ix), a
                                   3822 ;E:\Dropbox\FAUSTO\SVILUPPI\MSX\CODE\C\MSXgl\projects\exsoccer/exsoccer_s1_b2.c:717: if (inDangerousZone) clearShot = true;
    0000152A DD 7E FE         [19] 3823 	ld	a, -2 (ix)
    0000152D B7               [ 4] 3824 	or	a, a
    0000152E 28 04            [12] 3825 	jr	Z, 00273$
    00001530 DD 36 FA 01      [19] 3826 	ld	-6 (ix), #0x01
    00001534                       3827 00273$:
                                   3828 ;E:\Dropbox\FAUSTO\SVILUPPI\MSX\CODE\C\MSXgl\projects\exsoccer/exsoccer_s1_b2.c:721: if (clearShot) {
    00001534 DD 7E FA         [19] 3829 	ld	a, -6 (ix)
    00001537 B7               [ 4] 3830 	or	a, a
    00001538 28 75            [12] 3831 	jr	Z, 00281$
                                   3832 ;E:\Dropbox\FAUSTO\SVILUPPI\MSX\CODE\C\MSXgl\projects\exsoccer/exsoccer_s1_b2.c:722: u16 shotX = 86 + ((g_FrameCounter + playerId * 13) % 68);
    0000153A DD 7E FF         [19] 3833 	ld	a, -1 (ix)
    0000153D DD 77 FD         [19] 3834 	ld	-3 (ix), a
    00001540 DD 36 FE 00      [19] 3835 	ld	-2 (ix), #0x00
    00001544 4F               [ 4] 3836 	ld	c, a
    00001545 06 00            [ 7] 3837 	ld	b, #0x00
    00001547 69               [ 4] 3838 	ld	l, c
    00001548 60               [ 4] 3839 	ld	h, b
    00001549 29               [11] 3840 	add	hl, hl
    0000154A 09               [11] 3841 	add	hl, bc
    0000154B 29               [11] 3842 	add	hl, hl
    0000154C 29               [11] 3843 	add	hl, hl
    0000154D 09               [11] 3844 	add	hl, bc
    0000154E DD 75 FD         [19] 3845 	ld	-3 (ix), l
    00001551 DD 74 FE         [19] 3846 	ld	-2 (ix), h
    00001554 2Ar00r00         [16] 3847 	ld	hl, (_g_FrameCounter)
    00001557 DD 75 F7         [19] 3848 	ld	-9 (ix), l
    0000155A DD 74 F8         [19] 3849 	ld	-8 (ix), h
    0000155D DD 7E FD         [19] 3850 	ld	a, -3 (ix)
    00001560 DD 77 F9         [19] 3851 	ld	-7 (ix), a
    00001563 DD 7E FE         [19] 3852 	ld	a, -2 (ix)
    00001566 DD 77 FA         [19] 3853 	ld	-6 (ix), a
    00001569 DD 7E F9         [19] 3854 	ld	a, -7 (ix)
    0000156C DD 86 F7         [19] 3855 	add	a, -9 (ix)
    0000156F DD 77 FD         [19] 3856 	ld	-3 (ix), a
    00001572 DD 7E FA         [19] 3857 	ld	a, -6 (ix)
    00001575 DD 8E F8         [19] 3858 	adc	a, -8 (ix)
    00001578 DD 77 FE         [19] 3859 	ld	-2 (ix), a
    0000157B 11 44 00         [10] 3860 	ld	de, #0x0044
    0000157E DD 6E FD         [19] 3861 	ld	l, -3 (ix)
                                   3862 ;	spillPairReg hl
                                   3863 ;	spillPairReg hl
    00001581 DD 66 FE         [19] 3864 	ld	h, -2 (ix)
                                   3865 ;	spillPairReg hl
                                   3866 ;	spillPairReg hl
    00001584 CDr00r00         [17] 3867 	call	__moduint
    00001587 DD 73 F9         [19] 3868 	ld	-7 (ix), e
    0000158A DD 72 FA         [19] 3869 	ld	-6 (ix), d
    0000158D DD 7E F9         [19] 3870 	ld	a, -7 (ix)
    00001590 C6 56            [ 7] 3871 	add	a, #0x56
    00001592 DD 77 FD         [19] 3872 	ld	-3 (ix), a
    00001595 DD 7E FA         [19] 3873 	ld	a, -6 (ix)
    00001598 CE 00            [ 7] 3874 	adc	a, #0x00
    0000159A DD 77 FE         [19] 3875 	ld	-2 (ix), a
                                   3876 ;E:\Dropbox\FAUSTO\SVILUPPI\MSX\CODE\C\MSXgl\projects\exsoccer/exsoccer_s1_b2.c:723: PerformShot(shotX, goalTargetY);
    0000159D DD 5E FB         [19] 3877 	ld	e, -5 (ix)
    000015A0 DD 56 FC         [19] 3878 	ld	d, -4 (ix)
    000015A3 DD 6E FD         [19] 3879 	ld	l, -3 (ix)
                                   3880 ;	spillPairReg hl
                                   3881 ;	spillPairReg hl
    000015A6 DD 66 FE         [19] 3882 	ld	h, -2 (ix)
                                   3883 ;	spillPairReg hl
                                   3884 ;	spillPairReg hl
    000015A9 CDr00r00         [17] 3885 	call	_PerformShot
                                   3886 ;E:\Dropbox\FAUSTO\SVILUPPI\MSX\CODE\C\MSXgl\projects\exsoccer/exsoccer_s1_b2.c:724: return;
    000015AC C3rC0r27         [10] 3887 	jp	00609$
    000015AF                       3888 00281$:
                                   3889 ;E:\Dropbox\FAUSTO\SVILUPPI\MSX\CODE\C\MSXgl\projects\exsoccer/exsoccer_s1_b2.c:730: bool shouldPass = false;
    000015AF DD 36 FB 00      [19] 3890 	ld	-5 (ix), #0x00
                                   3891 ;E:\Dropbox\FAUSTO\SVILUPPI\MSX\CODE\C\MSXgl\projects\exsoccer/exsoccer_s1_b2.c:731: bool isPanicPass = false;
    000015B3 DD 36 FE 00      [19] 3892 	ld	-2 (ix), #0x00
                                   3893 ;E:\Dropbox\FAUSTO\SVILUPPI\MSX\CODE\C\MSXgl\projects\exsoccer/exsoccer_s1_b2.c:737: bool checkPassing = false;
    000015B7 DD 36 FC 00      [19] 3894 	ld	-4 (ix), #0x00
                                   3895 ;E:\Dropbox\FAUSTO\SVILUPPI\MSX\CODE\C\MSXgl\projects\exsoccer/exsoccer_s1_b2.c:739: if (dangerousOpponent) {
    000015BB DD 7E EE         [19] 3896 	ld	a, -18 (ix)
    000015BE B7               [ 4] 3897 	or	a, a
    000015BF 28 0B            [12] 3898 	jr	Z, 00292$
                                   3899 ;E:\Dropbox\FAUSTO\SVILUPPI\MSX\CODE\C\MSXgl\projects\exsoccer/exsoccer_s1_b2.c:741: shouldPass = true;
    000015C1 DD 36 FB 01      [19] 3900 	ld	-5 (ix), #0x01
                                   3901 ;E:\Dropbox\FAUSTO\SVILUPPI\MSX\CODE\C\MSXgl\projects\exsoccer/exsoccer_s1_b2.c:742: isPanicPass = true;
    000015C5 DD 36 FE 01      [19] 3902 	ld	-2 (ix), #0x01
    000015C9 C3r35r16         [10] 3903 	jp	00293$
    000015CC                       3904 00292$:
                                   3905 ;E:\Dropbox\FAUSTO\SVILUPPI\MSX\CODE\C\MSXgl\projects\exsoccer/exsoccer_s1_b2.c:744: else if (obstacleFront) {
    000015CC DD 7E EC         [19] 3906 	ld	a, -20 (ix)
    000015CF B7               [ 4] 3907 	or	a, a
    000015D0 28 58            [12] 3908 	jr	Z, 00289$
                                   3909 ;E:\Dropbox\FAUSTO\SVILUPPI\MSX\CODE\C\MSXgl\projects\exsoccer/exsoccer_s1_b2.c:747: bool canGoRight = (g_Players[playerId].X < FIELD_BOUND_X_RIGHT - 20) && !obstacleRight;
    000015D2 DD 7E E6         [19] 3910 	ld	a, -26 (ix)
    000015D5 D6 E2            [ 7] 3911 	sub	a, #0xe2
    000015D7 DD 7E E7         [19] 3912 	ld	a, -25 (ix)
    000015DA DE 00            [ 7] 3913 	sbc	a, #0x00
    000015DC 30 06            [12] 3914 	jr	NC, 00613$
    000015DE DD 7E EA         [19] 3915 	ld	a, -22 (ix)
    000015E1 B7               [ 4] 3916 	or	a, a
    000015E2 28 07            [12] 3917 	jr	Z, 00614$
    000015E4                       3918 00613$:
    000015E4 DD 36 FB 00      [19] 3919 	ld	-5 (ix), #0x00
    000015E8 C3rEFr15         [10] 3920 	jp	00615$
    000015EB                       3921 00614$:
    000015EB DD 36 FB 01      [19] 3922 	ld	-5 (ix), #0x01
    000015EF                       3923 00615$:
                                   3924 ;E:\Dropbox\FAUSTO\SVILUPPI\MSX\CODE\C\MSXgl\projects\exsoccer/exsoccer_s1_b2.c:748: bool canGoLeft = (g_Players[playerId].X > FIELD_BOUND_X_LEFT + 20) && !obstacleLeft;
    000015EF 3E 1E            [ 7] 3925 	ld	a, #0x1e
    000015F1 DD BE E6         [19] 3926 	cp	a, -26 (ix)
    000015F4 3E 00            [ 7] 3927 	ld	a, #0x00
    000015F6 DD 9E E7         [19] 3928 	sbc	a, -25 (ix)
    000015F9 30 06            [12] 3929 	jr	NC, 00616$
    000015FB DD 7E EB         [19] 3930 	ld	a, -21 (ix)
    000015FE B7               [ 4] 3931 	or	a, a
    000015FF 28 07            [12] 3932 	jr	Z, 00617$
    00001601                       3933 00616$:
    00001601 DD 36 FA 00      [19] 3934 	ld	-6 (ix), #0x00
    00001605 C3r0Cr16         [10] 3935 	jp	00618$
    00001608                       3936 00617$:
    00001608 DD 36 FA 01      [19] 3937 	ld	-6 (ix), #0x01
    0000160C                       3938 00618$:
    0000160C DD 4E FA         [19] 3939 	ld	c, -6 (ix)
                                   3940 ;E:\Dropbox\FAUSTO\SVILUPPI\MSX\CODE\C\MSXgl\projects\exsoccer/exsoccer_s1_b2.c:750: if (canGoRight || canGoLeft) {
    0000160F DD 7E FB         [19] 3941 	ld	a, -5 (ix)
    00001612 B7               [ 4] 3942 	or	a,a
    00001613 20 03            [12] 3943 	jr	NZ, 00282$
    00001615 B1               [ 4] 3944 	or	a,c
    00001616 28 07            [12] 3945 	jr	Z, 00283$
    00001618                       3946 00282$:
                                   3947 ;E:\Dropbox\FAUSTO\SVILUPPI\MSX\CODE\C\MSXgl\projects\exsoccer/exsoccer_s1_b2.c:752: shouldPass = false;
    00001618 DD 36 FB 00      [19] 3948 	ld	-5 (ix), #0x00
    0000161C C3r35r16         [10] 3949 	jp	00293$
    0000161F                       3950 00283$:
                                   3951 ;E:\Dropbox\FAUSTO\SVILUPPI\MSX\CODE\C\MSXgl\projects\exsoccer/exsoccer_s1_b2.c:755: shouldPass = true;
    0000161F DD 36 FB 01      [19] 3952 	ld	-5 (ix), #0x01
                                   3953 ;E:\Dropbox\FAUSTO\SVILUPPI\MSX\CODE\C\MSXgl\projects\exsoccer/exsoccer_s1_b2.c:756: isPanicPass = true;
    00001623 DD 36 FE 01      [19] 3954 	ld	-2 (ix), #0x01
    00001627 C3r35r16         [10] 3955 	jp	00293$
    0000162A                       3956 00289$:
                                   3957 ;E:\Dropbox\FAUSTO\SVILUPPI\MSX\CODE\C\MSXgl\projects\exsoccer/exsoccer_s1_b2.c:762: if ((g_FrameCounter & 1) == 0) checkPassing = true;
    0000162A 2Ar00r00         [16] 3958 	ld	hl, (_g_FrameCounter)
    0000162D CB 45            [ 8] 3959 	bit	0, l
    0000162F 20 04            [12] 3960 	jr	NZ, 00293$
    00001631 DD 36 FC 01      [19] 3961 	ld	-4 (ix), #0x01
    00001635                       3962 00293$:
                                   3963 ;E:\Dropbox\FAUSTO\SVILUPPI\MSX\CODE\C\MSXgl\projects\exsoccer/exsoccer_s1_b2.c:765: if (checkPassing) {
    00001635 DD 7E FC         [19] 3964 	ld	a, -4 (ix)
    00001638 B7               [ 4] 3965 	or	a, a
    00001639 28 08            [12] 3966 	jr	Z, 00295$
                                   3967 ;E:\Dropbox\FAUSTO\SVILUPPI\MSX\CODE\C\MSXgl\projects\exsoccer/exsoccer_s1_b2.c:768: shouldPass = true; 
    0000163B DD 36 FB 01      [19] 3968 	ld	-5 (ix), #0x01
                                   3969 ;E:\Dropbox\FAUSTO\SVILUPPI\MSX\CODE\C\MSXgl\projects\exsoccer/exsoccer_s1_b2.c:769: isPanicPass = false;
    0000163F DD 36 FE 00      [19] 3970 	ld	-2 (ix), #0x00
    00001643                       3971 00295$:
                                   3972 ;E:\Dropbox\FAUSTO\SVILUPPI\MSX\CODE\C\MSXgl\projects\exsoccer/exsoccer_s1_b2.c:772: if (shouldPass) {
    00001643 DD 7E FB         [19] 3973 	ld	a, -5 (ix)
    00001646 B7               [ 4] 3974 	or	a, a
    00001647 CAr47r18         [10] 3975 	jp	Z, 00332$
                                   3976 ;E:\Dropbox\FAUSTO\SVILUPPI\MSX\CODE\C\MSXgl\projects\exsoccer/exsoccer_s1_b2.c:773: if (!isHumanControlled) {
    0000164A DD 7E FD         [19] 3977 	ld	a, -3 (ix)
    0000164D B7               [ 4] 3978 	or	a, a
    0000164E C2r47r18         [10] 3979 	jp	NZ, 00332$
                                   3980 ;E:\Dropbox\FAUSTO\SVILUPPI\MSX\CODE\C\MSXgl\projects\exsoccer/exsoccer_s1_b2.c:774: u8 bestT = NO_VALUE;
    00001651 DD 36 F2 FF      [19] 3981 	ld	-14 (ix), #0xff
                                   3982 ;E:\Dropbox\FAUSTO\SVILUPPI\MSX\CODE\C\MSXgl\projects\exsoccer/exsoccer_s1_b2.c:775: i16 bestScore = -30000;
    00001655 DD 36 F3 D0      [19] 3983 	ld	-13 (ix), #0xd0
    00001659 DD 36 F4 8A      [19] 3984 	ld	-12 (ix), #0x8a
                                   3985 ;E:\Dropbox\FAUSTO\SVILUPPI\MSX\CODE\C\MSXgl\projects\exsoccer/exsoccer_s1_b2.c:777: for(t=0; t<14; t++) {
    0000165D AF               [ 4] 3986 	xor	a, a
    0000165E DD 77 FC         [19] 3987 	ld	-4 (ix), a
    00001661 DD 77 FD         [19] 3988 	ld	-3 (ix), a
    00001664                       3989 00600$:
                                   3990 ;E:\Dropbox\FAUSTO\SVILUPPI\MSX\CODE\C\MSXgl\projects\exsoccer/exsoccer_s1_b2.c:778: if(g_Players[t].TeamId != playerTeamId) continue;
    00001664 DD 4E FC         [19] 3991 	ld	c, -4 (ix)
    00001667 DD 46 FD         [19] 3992 	ld	b, -3 (ix)
    0000166A 69               [ 4] 3993 	ld	l, c
    0000166B 60               [ 4] 3994 	ld	h, b
    0000166C 29               [11] 3995 	add	hl, hl
    0000166D 29               [11] 3996 	add	hl, hl
    0000166E 09               [11] 3997 	add	hl, bc
    0000166F 29               [11] 3998 	add	hl, hl
    00001670 29               [11] 3999 	add	hl, hl
    00001671 09               [11] 4000 	add	hl, bc
    00001672 EB               [ 4] 4001 	ex	de, hl
    00001673 21r00r00         [10] 4002 	ld	hl, #_g_Players
    00001676 19               [11] 4003 	add	hl, de
    00001677 DD 75 FA         [19] 4004 	ld	-6 (ix), l
    0000167A DD 74 FB         [19] 4005 	ld	-5 (ix), h
    0000167D 4D               [ 4] 4006 	ld	c, l
    0000167E 44               [ 4] 4007 	ld	b, h
    0000167F 21 09 00         [10] 4008 	ld	hl, #9
    00001682 09               [11] 4009 	add	hl, bc
    00001683 DD 7E DF         [19] 4010 	ld	a,-33 (ix)
    00001686 96               [ 7] 4011 	sub	a,(hl)
    00001687 C2rE8r17         [10] 4012 	jp	NZ,00321$
                                   4013 ;E:\Dropbox\FAUSTO\SVILUPPI\MSX\CODE\C\MSXgl\projects\exsoccer/exsoccer_s1_b2.c:779: if(t == playerId) continue;
    0000168A DD 4E FF         [19] 4014 	ld	c, -1 (ix)
    0000168D 06 00            [ 7] 4015 	ld	b, #0x00
    0000168F DD 6E FC         [19] 4016 	ld	l, -4 (ix)
    00001692 DD 66 FD         [19] 4017 	ld	h, -3 (ix)
    00001695 BF               [ 4] 4018 	cp	a, a
    00001696 ED 42            [15] 4019 	sbc	hl, bc
    00001698 CArE8r17         [10] 4020 	jp	Z,00321$
                                   4021 ;E:\Dropbox\FAUSTO\SVILUPPI\MSX\CODE\C\MSXgl\projects\exsoccer/exsoccer_s1_b2.c:780: if(g_Players[t].Status == PLAYER_STATUS_NONE) continue;
    0000169B DD 4E FA         [19] 4022 	ld	c, -6 (ix)
    0000169E DD 46 FB         [19] 4023 	ld	b, -5 (ix)
    000016A1 21 12 00         [10] 4024 	ld	hl, #18
    000016A4 09               [11] 4025 	add	hl, bc
    000016A5 7E               [ 7] 4026 	ld	a, (hl)
    000016A6 23               [ 6] 4027 	inc	hl
    000016A7 B6               [ 7] 4028 	or	a, (hl)
    000016A8 CArE8r17         [10] 4029 	jp	Z, 00321$
                                   4030 ;E:\Dropbox\FAUSTO\SVILUPPI\MSX\CODE\C\MSXgl\projects\exsoccer/exsoccer_s1_b2.c:781: if(g_Players[t].Role == PLAYER_ROLE_GOALKEEPER) continue;
    000016AB DD 4E FA         [19] 4031 	ld	c, -6 (ix)
    000016AE DD 46 FB         [19] 4032 	ld	b, -5 (ix)
    000016B1 21 0D 00         [10] 4033 	ld	hl, #13
    000016B4 09               [11] 4034 	add	hl, bc
    000016B5 7E               [ 7] 4035 	ld	a, (hl)
    000016B6 B7               [ 4] 4036 	or	a, a
    000016B7 CArE8r17         [10] 4037 	jp	Z, 00321$
                                   4038 ;E:\Dropbox\FAUSTO\SVILUPPI\MSX\CODE\C\MSXgl\projects\exsoccer/exsoccer_s1_b2.c:784: if (IsOffside(t)) continue;
    000016BA DD 7E FC         [19] 4039 	ld	a, -4 (ix)
    000016BD DD 77 F5         [19] 4040 	ld	-11 (ix), a
    000016C0 CDrBFr30         [17] 4041 	call	_IsOffside
    000016C3 B7               [ 4] 4042 	or	a, a
    000016C4 C2rE8r17         [10] 4043 	jp	NZ, 00321$
                                   4044 ;E:\Dropbox\FAUSTO\SVILUPPI\MSX\CODE\C\MSXgl\projects\exsoccer/exsoccer_s1_b2.c:786: i16 dx = (i16)g_Players[t].X - (i16)g_Players[playerId].X;
    000016C7 DD 6E FA         [19] 4045 	ld	l, -6 (ix)
                                   4046 ;	spillPairReg hl
                                   4047 ;	spillPairReg hl
    000016CA DD 66 FB         [19] 4048 	ld	h, -5 (ix)
                                   4049 ;	spillPairReg hl
                                   4050 ;	spillPairReg hl
    000016CD 23               [ 6] 4051 	inc	hl
    000016CE 23               [ 6] 4052 	inc	hl
    000016CF 4E               [ 7] 4053 	ld	c, (hl)
    000016D0 23               [ 6] 4054 	inc	hl
    000016D1 46               [ 7] 4055 	ld	b, (hl)
    000016D2 DD 6E E4         [19] 4056 	ld	l, -28 (ix)
    000016D5 DD 66 E5         [19] 4057 	ld	h, -27 (ix)
    000016D8 5E               [ 7] 4058 	ld	e, (hl)
    000016D9 23               [ 6] 4059 	inc	hl
    000016DA 56               [ 7] 4060 	ld	d, (hl)
    000016DB 79               [ 4] 4061 	ld	a, c
    000016DC 93               [ 4] 4062 	sub	a, e
    000016DD 4F               [ 4] 4063 	ld	c, a
    000016DE 78               [ 4] 4064 	ld	a, b
    000016DF 9A               [ 4] 4065 	sbc	a, d
    000016E0 47               [ 4] 4066 	ld	b, a
                                   4067 ;E:\Dropbox\FAUSTO\SVILUPPI\MSX\CODE\C\MSXgl\projects\exsoccer/exsoccer_s1_b2.c:787: i16 dy = (i16)g_Players[t].Y - (i16)g_Players[playerId].Y;
    000016E1 DD 6E FA         [19] 4068 	ld	l, -6 (ix)
    000016E4 DD 66 FB         [19] 4069 	ld	h, -5 (ix)
    000016E7 7E               [ 7] 4070 	ld	a, (hl)
    000016E8 DD 77 F6         [19] 4071 	ld	-10 (ix), a
    000016EB 23               [ 6] 4072 	inc	hl
    000016EC 7E               [ 7] 4073 	ld	a, (hl)
    000016ED DD 77 F7         [19] 4074 	ld	-9 (ix), a
    000016F0 DD 5E F6         [19] 4075 	ld	e, -10 (ix)
    000016F3 DD 56 F7         [19] 4076 	ld	d, -9 (ix)
    000016F6 E1               [10] 4077 	pop	hl
    000016F7 E5               [11] 4078 	push	hl
    000016F8 7E               [ 7] 4079 	ld	a, (hl)
    000016F9 23               [ 6] 4080 	inc	hl
    000016FA 66               [ 7] 4081 	ld	h, (hl)
                                   4082 ;	spillPairReg hl
    000016FB 6F               [ 4] 4083 	ld	l, a
                                   4084 ;	spillPairReg hl
                                   4085 ;	spillPairReg hl
    000016FC 7B               [ 4] 4086 	ld	a, e
    000016FD 95               [ 4] 4087 	sub	a, l
    000016FE 5F               [ 4] 4088 	ld	e, a
    000016FF 7A               [ 4] 4089 	ld	a, d
    00001700 9C               [ 4] 4090 	sbc	a, h
    00001701 DD 73 F8         [19] 4091 	ld	-8 (ix), e
    00001704 DD 77 F9         [19] 4092 	ld	-7 (ix), a
                                   4093 ;E:\Dropbox\FAUSTO\SVILUPPI\MSX\CODE\C\MSXgl\projects\exsoccer/exsoccer_s1_b2.c:788: u16 adx = (dx < 0) ? -dx : dx;
    00001707 59               [ 4] 4094 	ld	e, c
    00001708 50               [ 4] 4095 	ld	d, b
    00001709 CB 7A            [ 8] 4096 	bit	7, d
    0000170B 28 08            [12] 4097 	jr	Z, 00619$
    0000170D AF               [ 4] 4098 	xor	a, a
    0000170E 91               [ 4] 4099 	sub	a, c
    0000170F 4F               [ 4] 4100 	ld	c, a
    00001710 9F               [ 4] 4101 	sbc	a, a
    00001711 90               [ 4] 4102 	sub	a, b
    00001712 C3r16r17         [10] 4103 	jp	00620$
    00001715                       4104 00619$:
    00001715 78               [ 4] 4105 	ld	a, b
    00001716                       4106 00620$:
    00001716 DD 71 FA         [19] 4107 	ld	-6 (ix), c
    00001719 DD 77 FB         [19] 4108 	ld	-5 (ix), a
                                   4109 ;E:\Dropbox\FAUSTO\SVILUPPI\MSX\CODE\C\MSXgl\projects\exsoccer/exsoccer_s1_b2.c:789: u16 ady = (dy < 0) ? -dy : dy;
    0000171C DD 46 F9         [19] 4110 	ld	b, -7 (ix)
    0000171F CB 78            [ 8] 4111 	bit	7, b
    00001721 28 11            [12] 4112 	jr	Z, 00621$
    00001723 AF               [ 4] 4113 	xor	a, a
    00001724 DD 96 F8         [19] 4114 	sub	a, -8 (ix)
    00001727 DD 77 F0         [19] 4115 	ld	-16 (ix), a
    0000172A 9F               [ 4] 4116 	sbc	a, a
    0000172B DD 96 F9         [19] 4117 	sub	a, -7 (ix)
    0000172E DD 77 F1         [19] 4118 	ld	-15 (ix), a
    00001731 C3r40r17         [10] 4119 	jp	00622$
    00001734                       4120 00621$:
    00001734 DD 7E F8         [19] 4121 	ld	a, -8 (ix)
    00001737 DD 77 F0         [19] 4122 	ld	-16 (ix), a
    0000173A DD 7E F9         [19] 4123 	ld	a, -7 (ix)
    0000173D DD 77 F1         [19] 4124 	ld	-15 (ix), a
    00001740                       4125 00622$:
    00001740 DD 4E F0         [19] 4126 	ld	c, -16 (ix)
    00001743 DD 46 F1         [19] 4127 	ld	b, -15 (ix)
                                   4128 ;E:\Dropbox\FAUSTO\SVILUPPI\MSX\CODE\C\MSXgl\projects\exsoccer/exsoccer_s1_b2.c:790: if (adx < 40 && ady < 40) continue; // Minimum pass distance
    00001746 DD 7E FA         [19] 4129 	ld	a, -6 (ix)
    00001749 D6 28            [ 7] 4130 	sub	a, #0x28
    0000174B DD 7E FB         [19] 4131 	ld	a, -5 (ix)
    0000174E DE 00            [ 7] 4132 	sbc	a, #0x00
    00001750 30 09            [12] 4133 	jr	NC, 00307$
    00001752 79               [ 4] 4134 	ld	a, c
    00001753 D6 28            [ 7] 4135 	sub	a, #0x28
    00001755 78               [ 4] 4136 	ld	a, b
    00001756 DE 00            [ 7] 4137 	sbc	a, #0x00
    00001758 DArE8r17         [10] 4138 	jp	C, 00321$
    0000175B                       4139 00307$:
                                   4140 ;E:\Dropbox\FAUSTO\SVILUPPI\MSX\CODE\C\MSXgl\projects\exsoccer/exsoccer_s1_b2.c:793: if (g_Players[t].Y < g_FieldCurrentYPosition - 40 || 
    0000175B 3Ar00r00         [13] 4141 	ld	a, (_g_FieldCurrentYPosition+0)
    0000175E C6 D8            [ 7] 4142 	add	a, #0xd8
    00001760 5F               [ 4] 4143 	ld	e, a
    00001761 3Ar01r00         [13] 4144 	ld	a, (_g_FieldCurrentYPosition+1)
    00001764 CE FF            [ 7] 4145 	adc	a, #0xff
    00001766 57               [ 4] 4146 	ld	d, a
    00001767 DD 4E F6         [19] 4147 	ld	c, -10 (ix)
    0000176A DD 46 F7         [19] 4148 	ld	b, -9 (ix)
    0000176D 79               [ 4] 4149 	ld	a, c
    0000176E 93               [ 4] 4150 	sub	a, e
    0000176F 78               [ 4] 4151 	ld	a, b
    00001770 9A               [ 4] 4152 	sbc	a, d
    00001771 38 75            [12] 4153 	jr	C, 00321$
                                   4154 ;E:\Dropbox\FAUSTO\SVILUPPI\MSX\CODE\C\MSXgl\projects\exsoccer/exsoccer_s1_b2.c:794: g_Players[t].Y > (g_FieldCurrentYPosition + 252)) continue;
    00001773 2Ar00r00         [16] 4155 	ld	hl, (_g_FieldCurrentYPosition)
    00001776 11 FC 00         [10] 4156 	ld	de, #0x00fc
    00001779 19               [11] 4157 	add	hl, de
    0000177A AF               [ 4] 4158 	xor	a, a
    0000177B ED 42            [15] 4159 	sbc	hl, bc
    0000177D 38 69            [12] 4160 	jr	C, 00321$
                                   4161 ;E:\Dropbox\FAUSTO\SVILUPPI\MSX\CODE\C\MSXgl\projects\exsoccer/exsoccer_s1_b2.c:796: i16 advanceScore = (playerTeamId == TEAM_1) ? -dy : dy;
    0000177F DD 7E E1         [19] 4162 	ld	a, -31 (ix)
    00001782 B7               [ 4] 4163 	or	a, a
    00001783 28 0D            [12] 4164 	jr	Z, 00623$
    00001785 AF               [ 4] 4165 	xor	a, a
    00001786 DD 96 F8         [19] 4166 	sub	a, -8 (ix)
    00001789 5F               [ 4] 4167 	ld	e, a
    0000178A 9F               [ 4] 4168 	sbc	a, a
    0000178B DD 96 F9         [19] 4169 	sub	a, -7 (ix)
    0000178E 57               [ 4] 4170 	ld	d, a
    0000178F C3r98r17         [10] 4171 	jp	00624$
    00001792                       4172 00623$:
    00001792 DD 5E F8         [19] 4173 	ld	e, -8 (ix)
    00001795 DD 56 F9         [19] 4174 	ld	d, -7 (ix)
    00001798                       4175 00624$:
                                   4176 ;E:\Dropbox\FAUSTO\SVILUPPI\MSX\CODE\C\MSXgl\projects\exsoccer/exsoccer_s1_b2.c:800: if (advanceScore < 40) continue; // Must gain at least 40px ground
    00001798 4B               [ 4] 4177 	ld	c, e
    00001799 42               [ 4] 4178 	ld	b, d
                                   4179 ;E:\Dropbox\FAUSTO\SVILUPPI\MSX\CODE\C\MSXgl\projects\exsoccer/exsoccer_s1_b2.c:799: if (!isPanicPass) {
    0000179A DD 7E FE         [19] 4180 	ld	a, -2 (ix)
    0000179D B7               [ 4] 4181 	or	a, a
    0000179E 20 0E            [12] 4182 	jr	NZ, 00317$
                                   4183 ;E:\Dropbox\FAUSTO\SVILUPPI\MSX\CODE\C\MSXgl\projects\exsoccer/exsoccer_s1_b2.c:800: if (advanceScore < 40) continue; // Must gain at least 40px ground
    000017A0 79               [ 4] 4184 	ld	a, c
    000017A1 D6 28            [ 7] 4185 	sub	a, #0x28
    000017A3 78               [ 4] 4186 	ld	a, b
    000017A4 17               [ 4] 4187 	rla
    000017A5 3F               [ 4] 4188 	ccf
    000017A6 1F               [ 4] 4189 	rra
    000017A7 DE 80            [ 7] 4190 	sbc	a, #0x80
    000017A9 30 0E            [12] 4191 	jr	NC, 00318$
    000017AB C3rE8r17         [10] 4192 	jp	00321$
    000017AE                       4193 00317$:
                                   4194 ;E:\Dropbox\FAUSTO\SVILUPPI\MSX\CODE\C\MSXgl\projects\exsoccer/exsoccer_s1_b2.c:803: if (advanceScore < -150) continue;
    000017AE 79               [ 4] 4195 	ld	a, c
    000017AF D6 6A            [ 7] 4196 	sub	a, #0x6a
    000017B1 78               [ 4] 4197 	ld	a, b
    000017B2 17               [ 4] 4198 	rla
    000017B3 3F               [ 4] 4199 	ccf
    000017B4 1F               [ 4] 4200 	rra
    000017B5 DE 7F            [ 7] 4201 	sbc	a, #0x7f
    000017B7 38 2F            [12] 4202 	jr	C, 00321$
    000017B9                       4203 00318$:
                                   4204 ;E:\Dropbox\FAUSTO\SVILUPPI\MSX\CODE\C\MSXgl\projects\exsoccer/exsoccer_s1_b2.c:806: i16 score = advanceScore - (adx/4); // Minimal lateral penalty
    000017B9 DD 4E FA         [19] 4205 	ld	c, -6 (ix)
    000017BC DD 46 FB         [19] 4206 	ld	b, -5 (ix)
    000017BF CB 38            [ 8] 4207 	srl	b
    000017C1 CB 19            [ 8] 4208 	rr	c
    000017C3 CB 38            [ 8] 4209 	srl	b
    000017C5 CB 19            [ 8] 4210 	rr	c
    000017C7 EB               [ 4] 4211 	ex	de, hl
    000017C8 BF               [ 4] 4212 	cp	a, a
    000017C9 ED 42            [15] 4213 	sbc	hl, bc
    000017CB EB               [ 4] 4214 	ex	de, hl
                                   4215 ;E:\Dropbox\FAUSTO\SVILUPPI\MSX\CODE\C\MSXgl\projects\exsoccer/exsoccer_s1_b2.c:808: if (score > bestScore) {
    000017CC DD 7E F3         [19] 4216 	ld	a, -13 (ix)
    000017CF 93               [ 4] 4217 	sub	a, e
    000017D0 DD 7E F4         [19] 4218 	ld	a, -12 (ix)
    000017D3 9A               [ 4] 4219 	sbc	a, d
    000017D4 E2rD9r17         [10] 4220 	jp	PO, 01950$
    000017D7 EE 80            [ 7] 4221 	xor	a, #0x80
    000017D9                       4222 01950$:
    000017D9 F2rE8r17         [10] 4223 	jp	P, 00321$
                                   4224 ;E:\Dropbox\FAUSTO\SVILUPPI\MSX\CODE\C\MSXgl\projects\exsoccer/exsoccer_s1_b2.c:809: bestScore = score;
    000017DC DD 73 F3         [19] 4225 	ld	-13 (ix), e
    000017DF DD 72 F4         [19] 4226 	ld	-12 (ix), d
                                   4227 ;E:\Dropbox\FAUSTO\SVILUPPI\MSX\CODE\C\MSXgl\projects\exsoccer/exsoccer_s1_b2.c:810: bestT = t;
    000017E2 DD 7E F5         [19] 4228 	ld	a, -11 (ix)
    000017E5 DD 77 F2         [19] 4229 	ld	-14 (ix), a
    000017E8                       4230 00321$:
                                   4231 ;E:\Dropbox\FAUSTO\SVILUPPI\MSX\CODE\C\MSXgl\projects\exsoccer/exsoccer_s1_b2.c:777: for(t=0; t<14; t++) {
    000017E8 DD 34 FC         [23] 4232 	inc	-4 (ix)
    000017EB 20 03            [12] 4233 	jr	NZ, 01951$
    000017ED DD 34 FD         [23] 4234 	inc	-3 (ix)
    000017F0                       4235 01951$:
    000017F0 DD 7E FC         [19] 4236 	ld	a, -4 (ix)
    000017F3 D6 0E            [ 7] 4237 	sub	a, #0x0e
    000017F5 DD 7E FD         [19] 4238 	ld	a, -3 (ix)
    000017F8 17               [ 4] 4239 	rla
    000017F9 3F               [ 4] 4240 	ccf
    000017FA 1F               [ 4] 4241 	rra
    000017FB DE 80            [ 7] 4242 	sbc	a, #0x80
    000017FD DAr64r16         [10] 4243 	jp	C, 00600$
                                   4244 ;E:\Dropbox\FAUSTO\SVILUPPI\MSX\CODE\C\MSXgl\projects\exsoccer/exsoccer_s1_b2.c:815: if (bestT != NO_VALUE) {
    00001800 DD 7E F2         [19] 4245 	ld	a, -14 (ix)
    00001803 3C               [ 4] 4246 	inc	a
    00001804 28 41            [12] 4247 	jr	Z, 00332$
                                   4248 ;E:\Dropbox\FAUSTO\SVILUPPI\MSX\CODE\C\MSXgl\projects\exsoccer/exsoccer_s1_b2.c:818: i16 threshold = isPanicPass ? -80 : 10;
    00001806 DD 7E FE         [19] 4249 	ld	a, -2 (ix)
    00001809 B7               [ 4] 4250 	or	a, a
    0000180A 28 0B            [12] 4251 	jr	Z, 00625$
    0000180C DD 36 FD B0      [19] 4252 	ld	-3 (ix), #0xb0
    00001810 DD 36 FE FF      [19] 4253 	ld	-2 (ix), #0xff
    00001814 C3r1Fr18         [10] 4254 	jp	00626$
    00001817                       4255 00625$:
    00001817 DD 36 FD 0A      [19] 4256 	ld	-3 (ix), #0x0a
    0000181B DD 36 FE 00      [19] 4257 	ld	-2 (ix), #0
    0000181F                       4258 00626$:
                                   4259 ;E:\Dropbox\FAUSTO\SVILUPPI\MSX\CODE\C\MSXgl\projects\exsoccer/exsoccer_s1_b2.c:820: if (bestScore > threshold) {
    0000181F DD 7E FD         [19] 4260 	ld	a, -3 (ix)
    00001822 DD 96 F3         [19] 4261 	sub	a, -13 (ix)
    00001825 DD 7E FE         [19] 4262 	ld	a, -2 (ix)
    00001828 DD 9E F4         [19] 4263 	sbc	a, -12 (ix)
    0000182B E2r30r18         [10] 4264 	jp	PO, 01953$
    0000182E EE 80            [ 7] 4265 	xor	a, #0x80
    00001830                       4266 01953$:
    00001830 F2r47r18         [10] 4267 	jp	P, 00332$
                                   4268 ;E:\Dropbox\FAUSTO\SVILUPPI\MSX\CODE\C\MSXgl\projects\exsoccer/exsoccer_s1_b2.c:821: if (g_Ball.PossessionTimer < 15) return; // Wait 15 frames before passing
    00001833 3Ar1Cr00         [13] 4269 	ld	a, (#_g_Ball + 28)
    00001836 DD 77 FE         [19] 4270 	ld	-2 (ix), a
    00001839 D6 0F            [ 7] 4271 	sub	a, #0x0f
    0000183B DArC0r27         [10] 4272 	jp	C,00609$
                                   4273 ;E:\Dropbox\FAUSTO\SVILUPPI\MSX\CODE\C\MSXgl\projects\exsoccer/exsoccer_s1_b2.c:822: PerformPass(bestT);
    0000183E DD 7E F2         [19] 4274 	ld	a, -14 (ix)
    00001841 CDrB6r31         [17] 4275 	call	_PerformPass
                                   4276 ;E:\Dropbox\FAUSTO\SVILUPPI\MSX\CODE\C\MSXgl\projects\exsoccer/exsoccer_s1_b2.c:823: return; // End tick
    00001844 C3rC0r27         [10] 4277 	jp	00609$
    00001847                       4278 00332$:
                                   4279 ;E:\Dropbox\FAUSTO\SVILUPPI\MSX\CODE\C\MSXgl\projects\exsoccer/exsoccer_s1_b2.c:829: u16 finalTargetX = targetX_Goal;
    00001847 DD 7E E8         [19] 4280 	ld	a, -24 (ix)
    0000184A DD 77 FD         [19] 4281 	ld	-3 (ix), a
    0000184D DD 7E E9         [19] 4282 	ld	a, -23 (ix)
    00001850 DD 77 FE         [19] 4283 	ld	-2 (ix), a
                                   4284 ;E:\Dropbox\FAUSTO\SVILUPPI\MSX\CODE\C\MSXgl\projects\exsoccer/exsoccer_s1_b2.c:830: u16 finalTargetY = targetY_Goal;
    00001853 DD 7E E2         [19] 4285 	ld	a, -30 (ix)
    00001856 DD 77 FB         [19] 4286 	ld	-5 (ix), a
    00001859 DD 7E E3         [19] 4287 	ld	a, -29 (ix)
    0000185C DD 77 FC         [19] 4288 	ld	-4 (ix), a
                                   4289 ;E:\Dropbox\FAUSTO\SVILUPPI\MSX\CODE\C\MSXgl\projects\exsoccer/exsoccer_s1_b2.c:832: if (obstacleFront) {
    0000185F DD 7E EC         [19] 4290 	ld	a, -20 (ix)
    00001862 B7               [ 4] 4291 	or	a, a
    00001863 CArF6r18         [10] 4292 	jp	Z, 00343$
                                   4293 ;E:\Dropbox\FAUSTO\SVILUPPI\MSX\CODE\C\MSXgl\projects\exsoccer/exsoccer_s1_b2.c:833: if (!obstacleRight) {
    00001866 DD 7E EA         [19] 4294 	ld	a, -22 (ix)
    00001869 B7               [ 4] 4295 	or	a, a
    0000186A 20 44            [12] 4296 	jr	NZ, 00340$
                                   4297 ;E:\Dropbox\FAUSTO\SVILUPPI\MSX\CODE\C\MSXgl\projects\exsoccer/exsoccer_s1_b2.c:834: finalTargetX = g_Players[playerId].X + 24;
    0000186C DD 6E E4         [19] 4298 	ld	l, -28 (ix)
    0000186F DD 66 E5         [19] 4299 	ld	h, -27 (ix)
    00001872 7E               [ 7] 4300 	ld	a, (hl)
    00001873 DD 77 FD         [19] 4301 	ld	-3 (ix), a
    00001876 23               [ 6] 4302 	inc	hl
    00001877 7E               [ 7] 4303 	ld	a, (hl)
    00001878 DD 77 FE         [19] 4304 	ld	-2 (ix), a
    0000187B DD 7E FD         [19] 4305 	ld	a, -3 (ix)
    0000187E DD 77 F9         [19] 4306 	ld	-7 (ix), a
    00001881 DD 7E FE         [19] 4307 	ld	a, -2 (ix)
    00001884 DD 77 FA         [19] 4308 	ld	-6 (ix), a
    00001887 DD 7E F9         [19] 4309 	ld	a, -7 (ix)
    0000188A C6 18            [ 7] 4310 	add	a, #0x18
    0000188C DD 77 FD         [19] 4311 	ld	-3 (ix), a
    0000188F DD 7E FA         [19] 4312 	ld	a, -6 (ix)
    00001892 CE 00            [ 7] 4313 	adc	a, #0x00
    00001894 DD 77 FE         [19] 4314 	ld	-2 (ix), a
                                   4315 ;E:\Dropbox\FAUSTO\SVILUPPI\MSX\CODE\C\MSXgl\projects\exsoccer/exsoccer_s1_b2.c:835: if (finalTargetX > FIELD_BOUND_X_RIGHT) finalTargetX = FIELD_BOUND_X_RIGHT;
    00001897 DD 4E FD         [19] 4316 	ld	c, -3 (ix)
    0000189A DD 46 FE         [19] 4317 	ld	b, -2 (ix)
    0000189D 3E F6            [ 7] 4318 	ld	a, #0xf6
    0000189F B9               [ 4] 4319 	cp	a, c
    000018A0 3E 00            [ 7] 4320 	ld	a, #0x00
    000018A2 98               [ 4] 4321 	sbc	a, b
    000018A3 30 51            [12] 4322 	jr	NC, 00343$
    000018A5 DD 36 FD F6      [19] 4323 	ld	-3 (ix), #0xf6
    000018A9 DD 36 FE 00      [19] 4324 	ld	-2 (ix), #0
    000018AD C3rF6r18         [10] 4325 	jp	00343$
    000018B0                       4326 00340$:
                                   4327 ;E:\Dropbox\FAUSTO\SVILUPPI\MSX\CODE\C\MSXgl\projects\exsoccer/exsoccer_s1_b2.c:836: } else if (!obstacleLeft) {
    000018B0 DD 7E EB         [19] 4328 	ld	a, -21 (ix)
    000018B3 B7               [ 4] 4329 	or	a, a
    000018B4 20 40            [12] 4330 	jr	NZ, 00343$
                                   4331 ;E:\Dropbox\FAUSTO\SVILUPPI\MSX\CODE\C\MSXgl\projects\exsoccer/exsoccer_s1_b2.c:837: finalTargetX = g_Players[playerId].X - 24; 
    000018B6 DD 6E E4         [19] 4332 	ld	l, -28 (ix)
    000018B9 DD 66 E5         [19] 4333 	ld	h, -27 (ix)
    000018BC 7E               [ 7] 4334 	ld	a, (hl)
    000018BD DD 77 FD         [19] 4335 	ld	-3 (ix), a
    000018C0 23               [ 6] 4336 	inc	hl
    000018C1 7E               [ 7] 4337 	ld	a, (hl)
    000018C2 DD 77 FE         [19] 4338 	ld	-2 (ix), a
    000018C5 DD 7E FD         [19] 4339 	ld	a, -3 (ix)
    000018C8 DD 77 F9         [19] 4340 	ld	-7 (ix), a
    000018CB DD 7E FE         [19] 4341 	ld	a, -2 (ix)
    000018CE DD 77 FA         [19] 4342 	ld	-6 (ix), a
    000018D1 DD 7E F9         [19] 4343 	ld	a, -7 (ix)
    000018D4 C6 E8            [ 7] 4344 	add	a, #0xe8
    000018D6 DD 77 FD         [19] 4345 	ld	-3 (ix), a
    000018D9 DD 7E FA         [19] 4346 	ld	a, -6 (ix)
    000018DC CE FF            [ 7] 4347 	adc	a, #0xff
    000018DE DD 77 FE         [19] 4348 	ld	-2 (ix), a
                                   4349 ;E:\Dropbox\FAUSTO\SVILUPPI\MSX\CODE\C\MSXgl\projects\exsoccer/exsoccer_s1_b2.c:838: if (finalTargetX < FIELD_BOUND_X_LEFT) finalTargetX = FIELD_BOUND_X_LEFT;
    000018E1 DD 7E FD         [19] 4350 	ld	a, -3 (ix)
    000018E4 DD 46 FE         [19] 4351 	ld	b, -2 (ix)
    000018E7 D6 0A            [ 7] 4352 	sub	a, #0x0a
    000018E9 78               [ 4] 4353 	ld	a, b
    000018EA DE 00            [ 7] 4354 	sbc	a, #0x00
    000018EC 30 08            [12] 4355 	jr	NC, 00343$
    000018EE DD 36 FD 0A      [19] 4356 	ld	-3 (ix), #0x0a
    000018F2 DD 36 FE 00      [19] 4357 	ld	-2 (ix), #0
    000018F6                       4358 00343$:
                                   4359 ;E:\Dropbox\FAUSTO\SVILUPPI\MSX\CODE\C\MSXgl\projects\exsoccer/exsoccer_s1_b2.c:841: g_Players[playerId].TargetY = finalTargetY;
    000018F6 DD 7E DD         [19] 4360 	ld	a, -35 (ix)
    000018F9 C6 0E            [ 7] 4361 	add	a, #0x0e
    000018FB DD 77 F9         [19] 4362 	ld	-7 (ix), a
    000018FE DD 7E DE         [19] 4363 	ld	a, -34 (ix)
    00001901 CE 00            [ 7] 4364 	adc	a, #0x00
    00001903 DD 77 FA         [19] 4365 	ld	-6 (ix), a
    00001906 DD 6E F9         [19] 4366 	ld	l, -7 (ix)
    00001909 DD 66 FA         [19] 4367 	ld	h, -6 (ix)
    0000190C DD 7E FB         [19] 4368 	ld	a, -5 (ix)
    0000190F 77               [ 7] 4369 	ld	(hl), a
    00001910 23               [ 6] 4370 	inc	hl
    00001911 DD 7E FC         [19] 4371 	ld	a, -4 (ix)
    00001914 77               [ 7] 4372 	ld	(hl), a
                                   4373 ;E:\Dropbox\FAUSTO\SVILUPPI\MSX\CODE\C\MSXgl\projects\exsoccer/exsoccer_s1_b2.c:842: g_Players[playerId].TargetX = finalTargetX;
    00001915 DD 7E DD         [19] 4374 	ld	a, -35 (ix)
    00001918 C6 10            [ 7] 4375 	add	a, #0x10
    0000191A DD 77 FB         [19] 4376 	ld	-5 (ix), a
    0000191D DD 7E DE         [19] 4377 	ld	a, -34 (ix)
    00001920 CE 00            [ 7] 4378 	adc	a, #0x00
    00001922 DD 77 FC         [19] 4379 	ld	-4 (ix), a
    00001925 DD 6E FB         [19] 4380 	ld	l, -5 (ix)
    00001928 DD 66 FC         [19] 4381 	ld	h, -4 (ix)
    0000192B DD 7E FD         [19] 4382 	ld	a, -3 (ix)
    0000192E 77               [ 7] 4383 	ld	(hl), a
    0000192F 23               [ 6] 4384 	inc	hl
    00001930 DD 7E FE         [19] 4385 	ld	a, -2 (ix)
    00001933 77               [ 7] 4386 	ld	(hl), a
                                   4387 ;E:\Dropbox\FAUSTO\SVILUPPI\MSX\CODE\C\MSXgl\projects\exsoccer/exsoccer_s1_b2.c:843: return; // IMPORTANT: Ball Carrier handled. Stop.
    00001934 C3rC0r27         [10] 4388 	jp	00609$
    00001937                       4389 00345$:
                                   4390 ;E:\Dropbox\FAUSTO\SVILUPPI\MSX\CODE\C\MSXgl\projects\exsoccer/exsoccer_s1_b2.c:849: if (g_Ball.PossessionPlayerId == NO_VALUE) {
    00001937 DD 7E FE         [19] 4391 	ld	a, -2 (ix)
    0000193A 3C               [ 4] 4392 	inc	a
    0000193B 20 3C            [12] 4393 	jr	NZ, 00349$
                                   4394 ;E:\Dropbox\FAUSTO\SVILUPPI\MSX\CODE\C\MSXgl\projects\exsoccer/exsoccer_s1_b2.c:851: if (GetClosestPlayerToBall(playerTeamId, NO_VALUE) == playerId) {
    0000193D 2E FF            [ 7] 4395 	ld	l, #0xff
                                   4396 ;	spillPairReg hl
                                   4397 ;	spillPairReg hl
    0000193F DD 7E DF         [19] 4398 	ld	a, -33 (ix)
    00001942 CDr00r00         [17] 4399 	call	_GetClosestPlayerToBall
    00001945 4F               [ 4] 4400 	ld	c, a
    00001946 DD 7E FF         [19] 4401 	ld	a, -1 (ix)
    00001949 91               [ 4] 4402 	sub	a, c
    0000194A 20 2D            [12] 4403 	jr	NZ, 00349$
                                   4404 ;E:\Dropbox\FAUSTO\SVILUPPI\MSX\CODE\C\MSXgl\projects\exsoccer/exsoccer_s1_b2.c:852: g_Players[playerId].TargetX = g_Ball.X;
    0000194C DD 7E DD         [19] 4405 	ld	a, -35 (ix)
    0000194F C6 10            [ 7] 4406 	add	a, #0x10
    00001951 4F               [ 4] 4407 	ld	c, a
    00001952 DD 7E DE         [19] 4408 	ld	a, -34 (ix)
    00001955 CE 00            [ 7] 4409 	adc	a, #0x00
    00001957 47               [ 4] 4410 	ld	b, a
    00001958 ED 5Br02r00      [20] 4411 	ld	de, (#_g_Ball + 2)
    0000195C 7B               [ 4] 4412 	ld	a, e
    0000195D 02               [ 7] 4413 	ld	(bc), a
    0000195E 03               [ 6] 4414 	inc	bc
    0000195F 7A               [ 4] 4415 	ld	a, d
    00001960 02               [ 7] 4416 	ld	(bc), a
                                   4417 ;E:\Dropbox\FAUSTO\SVILUPPI\MSX\CODE\C\MSXgl\projects\exsoccer/exsoccer_s1_b2.c:853: g_Players[playerId].TargetY = g_Ball.Y;
    00001961 DD 7E DD         [19] 4418 	ld	a, -35 (ix)
    00001964 C6 0E            [ 7] 4419 	add	a, #0x0e
    00001966 4F               [ 4] 4420 	ld	c, a
    00001967 DD 7E DE         [19] 4421 	ld	a, -34 (ix)
    0000196A CE 00            [ 7] 4422 	adc	a, #0x00
    0000196C 47               [ 4] 4423 	ld	b, a
    0000196D ED 5Br00r00      [20] 4424 	ld	de, (#_g_Ball + 0)
    00001971 7B               [ 4] 4425 	ld	a, e
    00001972 02               [ 7] 4426 	ld	(bc), a
    00001973 03               [ 6] 4427 	inc	bc
    00001974 7A               [ 4] 4428 	ld	a, d
    00001975 02               [ 7] 4429 	ld	(bc), a
                                   4430 ;E:\Dropbox\FAUSTO\SVILUPPI\MSX\CODE\C\MSXgl\projects\exsoccer/exsoccer_s1_b2.c:854: return;
    00001976 C3rC0r27         [10] 4431 	jp	00609$
    00001979                       4432 00349$:
                                   4433 ;E:\Dropbox\FAUSTO\SVILUPPI\MSX\CODE\C\MSXgl\projects\exsoccer/exsoccer_s1_b2.c:863: if (g_Players[playerId].Role == PLAYER_ROLE_LEFT_STRIKER || 
    00001979 DD 7E DD         [19] 4434 	ld	a, -35 (ix)
    0000197C C6 0D            [ 7] 4435 	add	a, #0x0d
    0000197E DD 77 F7         [19] 4436 	ld	-9 (ix), a
    00001981 DD 7E DE         [19] 4437 	ld	a, -34 (ix)
    00001984 CE 00            [ 7] 4438 	adc	a, #0x00
    00001986 DD 77 F8         [19] 4439 	ld	-8 (ix), a
    00001989 DD 6E F7         [19] 4440 	ld	l, -9 (ix)
    0000198C DD 66 F8         [19] 4441 	ld	h, -8 (ix)
    0000198F 7E               [ 7] 4442 	ld	a, (hl)
    00001990 DD 77 FE         [19] 4443 	ld	-2 (ix), a
    00001993 D6 05            [ 7] 4444 	sub	a, #0x05
    00001995 28 07            [12] 4445 	jr	Z, 00399$
                                   4446 ;E:\Dropbox\FAUSTO\SVILUPPI\MSX\CODE\C\MSXgl\projects\exsoccer/exsoccer_s1_b2.c:864: g_Players[playerId].Role == PLAYER_ROLE_RIGHT_STRIKER) {
    00001997 DD 7E FE         [19] 4447 	ld	a, -2 (ix)
    0000199A D6 06            [ 7] 4448 	sub	a, #0x06
    0000199C 20 3B            [12] 4449 	jr	NZ, 00400$
    0000199E                       4450 00399$:
                                   4451 ;E:\Dropbox\FAUSTO\SVILUPPI\MSX\CODE\C\MSXgl\projects\exsoccer/exsoccer_s1_b2.c:841: g_Players[playerId].TargetY = finalTargetY;
    0000199E E1               [10] 4452 	pop	hl
    0000199F E5               [11] 4453 	push	hl
    000019A0 11 0E 00         [10] 4454 	ld	de, #0x000e
    000019A3 19               [11] 4455 	add	hl, de
                                   4456 ;E:\Dropbox\FAUSTO\SVILUPPI\MSX\CODE\C\MSXgl\projects\exsoccer/exsoccer_s1_b2.c:867: if (playerTeamId == TEAM_1) g_Players[playerId].TargetY = GK_BOX_Y_TOP_MAX - 10;
    000019A4 DD 7E DF         [19] 4457 	ld	a, -33 (ix)
    000019A7 3D               [ 4] 4458 	dec	a
    000019A8 20 08            [12] 4459 	jr	NZ, 00351$
    000019AA 36 41            [10] 4460 	ld	(hl), #0x41
    000019AC 23               [ 6] 4461 	inc	hl
    000019AD 36 00            [10] 4462 	ld	(hl), #0x00
    000019AF C3rB7r19         [10] 4463 	jp	00352$
    000019B2                       4464 00351$:
                                   4465 ;E:\Dropbox\FAUSTO\SVILUPPI\MSX\CODE\C\MSXgl\projects\exsoccer/exsoccer_s1_b2.c:868: else g_Players[playerId].TargetY = GK_BOX_Y_BOTTOM_MIN + 10;
    000019B2 36 9F            [10] 4466 	ld	(hl), #0x9f
    000019B4 23               [ 6] 4467 	inc	hl
    000019B5 36 01            [10] 4468 	ld	(hl), #0x01
    000019B7                       4469 00352$:
                                   4470 ;E:\Dropbox\FAUSTO\SVILUPPI\MSX\CODE\C\MSXgl\projects\exsoccer/exsoccer_s1_b2.c:870: if (g_Players[playerId].Role == PLAYER_ROLE_LEFT_STRIKER) g_Players[playerId].TargetX = 64;
    000019B7 DD 6E F7         [19] 4471 	ld	l, -9 (ix)
    000019BA DD 66 F8         [19] 4472 	ld	h, -8 (ix)
    000019BD 4E               [ 7] 4473 	ld	c, (hl)
                                   4474 ;E:\Dropbox\FAUSTO\SVILUPPI\MSX\CODE\C\MSXgl\projects\exsoccer/exsoccer_s1_b2.c:842: g_Players[playerId].TargetX = finalTargetX;
    000019BE E1               [10] 4475 	pop	hl
    000019BF E5               [11] 4476 	push	hl
    000019C0 11 10 00         [10] 4477 	ld	de, #0x0010
    000019C3 19               [11] 4478 	add	hl, de
                                   4479 ;E:\Dropbox\FAUSTO\SVILUPPI\MSX\CODE\C\MSXgl\projects\exsoccer/exsoccer_s1_b2.c:870: if (g_Players[playerId].Role == PLAYER_ROLE_LEFT_STRIKER) g_Players[playerId].TargetX = 64;
    000019C4 79               [ 4] 4480 	ld	a, c
    000019C5 D6 05            [ 7] 4481 	sub	a, #0x05
    000019C7 20 08            [12] 4482 	jr	NZ, 00354$
    000019C9 36 40            [10] 4483 	ld	(hl), #0x40
    000019CB 23               [ 6] 4484 	inc	hl
    000019CC 36 00            [10] 4485 	ld	(hl), #0x00
    000019CE C3rFDr1B         [10] 4486 	jp	00806$
    000019D1                       4487 00354$:
                                   4488 ;E:\Dropbox\FAUSTO\SVILUPPI\MSX\CODE\C\MSXgl\projects\exsoccer/exsoccer_s1_b2.c:871: else g_Players[playerId].TargetX = 192;
    000019D1 36 C0            [10] 4489 	ld	(hl), #0xc0
    000019D3 23               [ 6] 4490 	inc	hl
    000019D4 36 00            [10] 4491 	ld	(hl), #0x00
    000019D6 C3rFDr1B         [10] 4492 	jp	00806$
    000019D9                       4493 00400$:
                                   4494 ;E:\Dropbox\FAUSTO\SVILUPPI\MSX\CODE\C\MSXgl\projects\exsoccer/exsoccer_s1_b2.c:873: } else if (g_Players[playerId].Role == PLAYER_ROLE_LEFT_HALFFIELDER || 
    000019D9 DD 7E FE         [19] 4495 	ld	a, -2 (ix)
    000019DC D6 03            [ 7] 4496 	sub	a, #0x03
    000019DE 28 08            [12] 4497 	jr	Z, 00395$
                                   4498 ;E:\Dropbox\FAUSTO\SVILUPPI\MSX\CODE\C\MSXgl\projects\exsoccer/exsoccer_s1_b2.c:874: g_Players[playerId].Role == PLAYER_ROLE_RIGHT_HALFFIELDER) {
    000019E0 DD 7E FE         [19] 4499 	ld	a, -2 (ix)
    000019E3 D6 04            [ 7] 4500 	sub	a, #0x04
    000019E5 C2r7Br1A         [10] 4501 	jp	NZ,00396$
    000019E8                       4502 00395$:
                                   4503 ;E:\Dropbox\FAUSTO\SVILUPPI\MSX\CODE\C\MSXgl\projects\exsoccer/exsoccer_s1_b2.c:841: g_Players[playerId].TargetY = finalTargetY;
    000019E8 DD 7E DD         [19] 4504 	ld	a, -35 (ix)
    000019EB C6 0E            [ 7] 4505 	add	a, #0x0e
    000019ED DD 77 FB         [19] 4506 	ld	-5 (ix), a
    000019F0 DD 7E DE         [19] 4507 	ld	a, -34 (ix)
    000019F3 CE 00            [ 7] 4508 	adc	a, #0x00
    000019F5 DD 77 FC         [19] 4509 	ld	-4 (ix), a
                                   4510 ;E:\Dropbox\FAUSTO\SVILUPPI\MSX\CODE\C\MSXgl\projects\exsoccer/exsoccer_s1_b2.c:853: g_Players[playerId].TargetY = g_Ball.Y;
    000019F8 2Ar00r00         [16] 4511 	ld	hl, (#_g_Ball + 0)
                                   4512 ;E:\Dropbox\FAUSTO\SVILUPPI\MSX\CODE\C\MSXgl\projects\exsoccer/exsoccer_s1_b2.c:881: g_Players[playerId].TargetY = g_Ball.Y - 40;
    000019FB DD 75 FD         [19] 4513 	ld	-3 (ix), l
    000019FE DD 74 FE         [19] 4514 	ld	-2 (ix), h
                                   4515 ;E:\Dropbox\FAUSTO\SVILUPPI\MSX\CODE\C\MSXgl\projects\exsoccer/exsoccer_s1_b2.c:878: if (playerTeamId == TEAM_1) {
    00001A01 DD 7E DF         [19] 4516 	ld	a, -33 (ix)
    00001A04 3D               [ 4] 4517 	dec	a
    00001A05 20 2B            [12] 4518 	jr	NZ, 00361$
                                   4519 ;E:\Dropbox\FAUSTO\SVILUPPI\MSX\CODE\C\MSXgl\projects\exsoccer/exsoccer_s1_b2.c:881: g_Players[playerId].TargetY = g_Ball.Y - 40;
    00001A07 DD 7E FD         [19] 4520 	ld	a, -3 (ix)
    00001A0A C6 D8            [ 7] 4521 	add	a, #0xd8
    00001A0C 4F               [ 4] 4522 	ld	c, a
    00001A0D DD 7E FE         [19] 4523 	ld	a, -2 (ix)
    00001A10 CE FF            [ 7] 4524 	adc	a, #0xff
    00001A12 47               [ 4] 4525 	ld	b, a
    00001A13 DD 6E FB         [19] 4526 	ld	l, -5 (ix)
    00001A16 DD 66 FC         [19] 4527 	ld	h, -4 (ix)
    00001A19 71               [ 7] 4528 	ld	(hl), c
    00001A1A 23               [ 6] 4529 	inc	hl
    00001A1B 70               [ 7] 4530 	ld	(hl), b
                                   4531 ;E:\Dropbox\FAUSTO\SVILUPPI\MSX\CODE\C\MSXgl\projects\exsoccer/exsoccer_s1_b2.c:882: if (g_Players[playerId].TargetY < limitY) g_Players[playerId].TargetY = limitY;
    00001A1C 79               [ 4] 4532 	ld	a, c
    00001A1D D6 6A            [ 7] 4533 	sub	a, #0x6a
    00001A1F 78               [ 4] 4534 	ld	a, b
    00001A20 DE 00            [ 7] 4535 	sbc	a, #0x00
    00001A22 30 35            [12] 4536 	jr	NC, 00362$
    00001A24 DD 6E FB         [19] 4537 	ld	l, -5 (ix)
    00001A27 DD 66 FC         [19] 4538 	ld	h, -4 (ix)
    00001A2A 36 6A            [10] 4539 	ld	(hl), #0x6a
    00001A2C 23               [ 6] 4540 	inc	hl
    00001A2D 36 00            [10] 4541 	ld	(hl), #0x00
    00001A2F C3r59r1A         [10] 4542 	jp	00362$
    00001A32                       4543 00361$:
                                   4544 ;E:\Dropbox\FAUSTO\SVILUPPI\MSX\CODE\C\MSXgl\projects\exsoccer/exsoccer_s1_b2.c:886: g_Players[playerId].TargetY = g_Ball.Y + 40;
    00001A32 DD 6E FD         [19] 4545 	ld	l, -3 (ix)
    00001A35 DD 66 FE         [19] 4546 	ld	h, -2 (ix)
    00001A38 11 28 00         [10] 4547 	ld	de, #0x0028
    00001A3B 19               [11] 4548 	add	hl, de
    00001A3C EB               [ 4] 4549 	ex	de, hl
    00001A3D DD 6E FB         [19] 4550 	ld	l, -5 (ix)
    00001A40 DD 66 FC         [19] 4551 	ld	h, -4 (ix)
    00001A43 73               [ 7] 4552 	ld	(hl), e
    00001A44 23               [ 6] 4553 	inc	hl
    00001A45 72               [ 7] 4554 	ld	(hl), d
                                   4555 ;E:\Dropbox\FAUSTO\SVILUPPI\MSX\CODE\C\MSXgl\projects\exsoccer/exsoccer_s1_b2.c:887: if (g_Players[playerId].TargetY > limitY) g_Players[playerId].TargetY = limitY;
    00001A46 3E 3E            [ 7] 4556 	ld	a, #0x3e
    00001A48 BB               [ 4] 4557 	cp	a, e
    00001A49 3E 01            [ 7] 4558 	ld	a, #0x01
    00001A4B 9A               [ 4] 4559 	sbc	a, d
    00001A4C 30 0B            [12] 4560 	jr	NC, 00362$
    00001A4E DD 6E FB         [19] 4561 	ld	l, -5 (ix)
    00001A51 DD 66 FC         [19] 4562 	ld	h, -4 (ix)
    00001A54 36 3E            [10] 4563 	ld	(hl), #0x3e
    00001A56 23               [ 6] 4564 	inc	hl
    00001A57 36 01            [10] 4565 	ld	(hl), #0x01
    00001A59                       4566 00362$:
                                   4567 ;E:\Dropbox\FAUSTO\SVILUPPI\MSX\CODE\C\MSXgl\projects\exsoccer/exsoccer_s1_b2.c:890: if (g_Players[playerId].Role == PLAYER_ROLE_LEFT_HALFFIELDER) g_Players[playerId].TargetX = 48;
    00001A59 DD 6E F7         [19] 4568 	ld	l, -9 (ix)
    00001A5C DD 66 F8         [19] 4569 	ld	h, -8 (ix)
    00001A5F 4E               [ 7] 4570 	ld	c, (hl)
                                   4571 ;E:\Dropbox\FAUSTO\SVILUPPI\MSX\CODE\C\MSXgl\projects\exsoccer/exsoccer_s1_b2.c:842: g_Players[playerId].TargetX = finalTargetX;
    00001A60 E1               [10] 4572 	pop	hl
    00001A61 E5               [11] 4573 	push	hl
    00001A62 11 10 00         [10] 4574 	ld	de, #0x0010
    00001A65 19               [11] 4575 	add	hl, de
                                   4576 ;E:\Dropbox\FAUSTO\SVILUPPI\MSX\CODE\C\MSXgl\projects\exsoccer/exsoccer_s1_b2.c:890: if (g_Players[playerId].Role == PLAYER_ROLE_LEFT_HALFFIELDER) g_Players[playerId].TargetX = 48;
    00001A66 79               [ 4] 4577 	ld	a, c
    00001A67 D6 03            [ 7] 4578 	sub	a, #0x03
    00001A69 20 08            [12] 4579 	jr	NZ, 00364$
    00001A6B 36 30            [10] 4580 	ld	(hl), #0x30
    00001A6D 23               [ 6] 4581 	inc	hl
    00001A6E 36 00            [10] 4582 	ld	(hl), #0x00
    00001A70 C3rFDr1B         [10] 4583 	jp	00806$
    00001A73                       4584 00364$:
                                   4585 ;E:\Dropbox\FAUSTO\SVILUPPI\MSX\CODE\C\MSXgl\projects\exsoccer/exsoccer_s1_b2.c:891: else g_Players[playerId].TargetX = 208;
    00001A73 36 D0            [10] 4586 	ld	(hl), #0xd0
    00001A75 23               [ 6] 4587 	inc	hl
    00001A76 36 00            [10] 4588 	ld	(hl), #0x00
    00001A78 C3rFDr1B         [10] 4589 	jp	00806$
    00001A7B                       4590 00396$:
                                   4591 ;E:\Dropbox\FAUSTO\SVILUPPI\MSX\CODE\C\MSXgl\projects\exsoccer/exsoccer_s1_b2.c:893: } else if (g_Players[playerId].Role == PLAYER_ROLE_LEFT_DEFENDER || 
    00001A7B DD 7E FE         [19] 4592 	ld	a, -2 (ix)
    00001A7E 3D               [ 4] 4593 	dec	a
    00001A7F 28 08            [12] 4594 	jr	Z, 00391$
                                   4595 ;E:\Dropbox\FAUSTO\SVILUPPI\MSX\CODE\C\MSXgl\projects\exsoccer/exsoccer_s1_b2.c:894: g_Players[playerId].Role == PLAYER_ROLE_RIGHT_DEFENDER) {
    00001A81 DD 7E FE         [19] 4596 	ld	a, -2 (ix)
    00001A84 D6 02            [ 7] 4597 	sub	a, #0x02
    00001A86 C2rBAr1B         [10] 4598 	jp	NZ,00392$
    00001A89                       4599 00391$:
                                   4600 ;E:\Dropbox\FAUSTO\SVILUPPI\MSX\CODE\C\MSXgl\projects\exsoccer/exsoccer_s1_b2.c:841: g_Players[playerId].TargetY = finalTargetY;
    00001A89 DD 7E DD         [19] 4601 	ld	a, -35 (ix)
    00001A8C C6 0E            [ 7] 4602 	add	a, #0x0e
    00001A8E DD 77 F9         [19] 4603 	ld	-7 (ix), a
    00001A91 DD 7E DE         [19] 4604 	ld	a, -34 (ix)
    00001A94 CE 00            [ 7] 4605 	adc	a, #0x00
    00001A96 DD 77 FA         [19] 4606 	ld	-6 (ix), a
                                   4607 ;E:\Dropbox\FAUSTO\SVILUPPI\MSX\CODE\C\MSXgl\projects\exsoccer/exsoccer_s1_b2.c:853: g_Players[playerId].TargetY = g_Ball.Y;
    00001A99 2Ar00r00         [16] 4608 	ld	hl, (#_g_Ball + 0)
                                   4609 ;E:\Dropbox\FAUSTO\SVILUPPI\MSX\CODE\C\MSXgl\projects\exsoccer/exsoccer_s1_b2.c:881: g_Players[playerId].TargetY = g_Ball.Y - 40;
    00001A9C DD 75 FB         [19] 4610 	ld	-5 (ix), l
    00001A9F DD 74 FC         [19] 4611 	ld	-4 (ix), h
                                   4612 ;E:\Dropbox\FAUSTO\SVILUPPI\MSX\CODE\C\MSXgl\projects\exsoccer/exsoccer_s1_b2.c:897: if (playerTeamId == TEAM_1) { // Attacking UP
    00001AA2 DD 7E DF         [19] 4613 	ld	a, -33 (ix)
    00001AA5 3D               [ 4] 4614 	dec	a
    00001AA6 20 5B            [12] 4615 	jr	NZ, 00381$
                                   4616 ;E:\Dropbox\FAUSTO\SVILUPPI\MSX\CODE\C\MSXgl\projects\exsoccer/exsoccer_s1_b2.c:898: g_Players[playerId].TargetY = g_Ball.Y + 30;
    00001AA8 DD 7E FB         [19] 4617 	ld	a, -5 (ix)
    00001AAB C6 1E            [ 7] 4618 	add	a, #0x1e
    00001AAD DD 77 FD         [19] 4619 	ld	-3 (ix), a
    00001AB0 DD 7E FC         [19] 4620 	ld	a, -4 (ix)
    00001AB3 CE 00            [ 7] 4621 	adc	a, #0x00
    00001AB5 DD 77 FE         [19] 4622 	ld	-2 (ix), a
    00001AB8 DD 6E F9         [19] 4623 	ld	l, -7 (ix)
    00001ABB DD 66 FA         [19] 4624 	ld	h, -6 (ix)
    00001ABE DD 7E FD         [19] 4625 	ld	a, -3 (ix)
    00001AC1 77               [ 7] 4626 	ld	(hl), a
    00001AC2 23               [ 6] 4627 	inc	hl
    00001AC3 DD 7E FE         [19] 4628 	ld	a, -2 (ix)
    00001AC6 77               [ 7] 4629 	ld	(hl), a
                                   4630 ;E:\Dropbox\FAUSTO\SVILUPPI\MSX\CODE\C\MSXgl\projects\exsoccer/exsoccer_s1_b2.c:900: if (g_Players[playerId].Role == PLAYER_ROLE_LEFT_DEFENDER) {
    00001AC7 DD 6E F7         [19] 4631 	ld	l, -9 (ix)
    00001ACA DD 66 F8         [19] 4632 	ld	h, -8 (ix)
    00001ACD 7E               [ 7] 4633 	ld	a, (hl)
                                   4634 ;E:\Dropbox\FAUSTO\SVILUPPI\MSX\CODE\C\MSXgl\projects\exsoccer/exsoccer_s1_b2.c:902: if (g_Players[playerId].TargetY < 318) g_Players[playerId].TargetY = 318;
    00001ACE DD 4E FD         [19] 4635 	ld	c, -3 (ix)
    00001AD1 DD 46 FE         [19] 4636 	ld	b, -2 (ix)
                                   4637 ;E:\Dropbox\FAUSTO\SVILUPPI\MSX\CODE\C\MSXgl\projects\exsoccer/exsoccer_s1_b2.c:900: if (g_Players[playerId].Role == PLAYER_ROLE_LEFT_DEFENDER) {
    00001AD4 3D               [ 4] 4638 	dec	a
    00001AD5 20 16            [12] 4639 	jr	NZ, 00371$
                                   4640 ;E:\Dropbox\FAUSTO\SVILUPPI\MSX\CODE\C\MSXgl\projects\exsoccer/exsoccer_s1_b2.c:902: if (g_Players[playerId].TargetY < 318) g_Players[playerId].TargetY = 318;
    00001AD7 79               [ 4] 4641 	ld	a, c
    00001AD8 D6 3E            [ 7] 4642 	sub	a, #0x3e
    00001ADA 78               [ 4] 4643 	ld	a, b
    00001ADB DE 01            [ 7] 4644 	sbc	a, #0x01
    00001ADD 30 76            [12] 4645 	jr	NC, 00382$
    00001ADF DD 6E F9         [19] 4646 	ld	l, -7 (ix)
    00001AE2 DD 66 FA         [19] 4647 	ld	h, -6 (ix)
    00001AE5 36 3E            [10] 4648 	ld	(hl), #0x3e
    00001AE7 23               [ 6] 4649 	inc	hl
    00001AE8 36 01            [10] 4650 	ld	(hl), #0x01
    00001AEA C3r55r1B         [10] 4651 	jp	00382$
    00001AED                       4652 00371$:
                                   4653 ;E:\Dropbox\FAUSTO\SVILUPPI\MSX\CODE\C\MSXgl\projects\exsoccer/exsoccer_s1_b2.c:905: if (g_Players[playerId].TargetY < 190) g_Players[playerId].TargetY = 190;
    00001AED 79               [ 4] 4654 	ld	a, c
    00001AEE D6 BE            [ 7] 4655 	sub	a, #0xbe
    00001AF0 78               [ 4] 4656 	ld	a, b
    00001AF1 DE 00            [ 7] 4657 	sbc	a, #0x00
    00001AF3 30 60            [12] 4658 	jr	NC, 00382$
    00001AF5 DD 6E F9         [19] 4659 	ld	l, -7 (ix)
    00001AF8 DD 66 FA         [19] 4660 	ld	h, -6 (ix)
    00001AFB 36 BE            [10] 4661 	ld	(hl), #0xbe
    00001AFD 23               [ 6] 4662 	inc	hl
    00001AFE 36 00            [10] 4663 	ld	(hl), #0x00
    00001B00 C3r55r1B         [10] 4664 	jp	00382$
    00001B03                       4665 00381$:
                                   4666 ;E:\Dropbox\FAUSTO\SVILUPPI\MSX\CODE\C\MSXgl\projects\exsoccer/exsoccer_s1_b2.c:909: g_Players[playerId].TargetY = g_Ball.Y - 30;
    00001B03 DD 7E FB         [19] 4667 	ld	a, -5 (ix)
    00001B06 C6 E2            [ 7] 4668 	add	a, #0xe2
    00001B08 DD 77 FD         [19] 4669 	ld	-3 (ix), a
    00001B0B DD 7E FC         [19] 4670 	ld	a, -4 (ix)
    00001B0E CE FF            [ 7] 4671 	adc	a, #0xff
    00001B10 DD 77 FE         [19] 4672 	ld	-2 (ix), a
    00001B13 DD 4E FD         [19] 4673 	ld	c, -3 (ix)
    00001B16 DD 46 FE         [19] 4674 	ld	b, -2 (ix)
    00001B19 DD 6E F9         [19] 4675 	ld	l, -7 (ix)
    00001B1C DD 66 FA         [19] 4676 	ld	h, -6 (ix)
    00001B1F 71               [ 7] 4677 	ld	(hl), c
    00001B20 23               [ 6] 4678 	inc	hl
    00001B21 70               [ 7] 4679 	ld	(hl), b
                                   4680 ;E:\Dropbox\FAUSTO\SVILUPPI\MSX\CODE\C\MSXgl\projects\exsoccer/exsoccer_s1_b2.c:911: if (g_Players[playerId].Role == PLAYER_ROLE_LEFT_DEFENDER) {
    00001B22 DD 6E F7         [19] 4681 	ld	l, -9 (ix)
    00001B25 DD 66 F8         [19] 4682 	ld	h, -8 (ix)
    00001B28 7E               [ 7] 4683 	ld	a, (hl)
                                   4684 ;E:\Dropbox\FAUSTO\SVILUPPI\MSX\CODE\C\MSXgl\projects\exsoccer/exsoccer_s1_b2.c:902: if (g_Players[playerId].TargetY < 318) g_Players[playerId].TargetY = 318;
                                   4685 ;E:\Dropbox\FAUSTO\SVILUPPI\MSX\CODE\C\MSXgl\projects\exsoccer/exsoccer_s1_b2.c:911: if (g_Players[playerId].Role == PLAYER_ROLE_LEFT_DEFENDER) {
    00001B29 3D               [ 4] 4686 	dec	a
    00001B2A 20 16            [12] 4687 	jr	NZ, 00378$
                                   4688 ;E:\Dropbox\FAUSTO\SVILUPPI\MSX\CODE\C\MSXgl\projects\exsoccer/exsoccer_s1_b2.c:913: if (g_Players[playerId].TargetY > 106) g_Players[playerId].TargetY = 106;
    00001B2C 3E 6A            [ 7] 4689 	ld	a, #0x6a
    00001B2E B9               [ 4] 4690 	cp	a, c
    00001B2F 3E 00            [ 7] 4691 	ld	a, #0x00
    00001B31 98               [ 4] 4692 	sbc	a, b
    00001B32 30 21            [12] 4693 	jr	NC, 00382$
    00001B34 DD 6E F9         [19] 4694 	ld	l, -7 (ix)
    00001B37 DD 66 FA         [19] 4695 	ld	h, -6 (ix)
    00001B3A 36 6A            [10] 4696 	ld	(hl), #0x6a
    00001B3C 23               [ 6] 4697 	inc	hl
    00001B3D 36 00            [10] 4698 	ld	(hl), #0x00
    00001B3F C3r55r1B         [10] 4699 	jp	00382$
    00001B42                       4700 00378$:
                                   4701 ;E:\Dropbox\FAUSTO\SVILUPPI\MSX\CODE\C\MSXgl\projects\exsoccer/exsoccer_s1_b2.c:916: if (g_Players[playerId].TargetY > 234) g_Players[playerId].TargetY = 234;
    00001B42 3E EA            [ 7] 4702 	ld	a, #0xea
    00001B44 B9               [ 4] 4703 	cp	a, c
    00001B45 3E 00            [ 7] 4704 	ld	a, #0x00
    00001B47 98               [ 4] 4705 	sbc	a, b
    00001B48 30 0B            [12] 4706 	jr	NC, 00382$
    00001B4A DD 6E F9         [19] 4707 	ld	l, -7 (ix)
    00001B4D DD 66 FA         [19] 4708 	ld	h, -6 (ix)
    00001B50 36 EA            [10] 4709 	ld	(hl), #0xea
    00001B52 23               [ 6] 4710 	inc	hl
    00001B53 36 00            [10] 4711 	ld	(hl), #0x00
    00001B55                       4712 00382$:
                                   4713 ;E:\Dropbox\FAUSTO\SVILUPPI\MSX\CODE\C\MSXgl\projects\exsoccer/exsoccer_s1_b2.c:922: if (g_Players[playerId].Role == PLAYER_ROLE_LEFT_DEFENDER) defTargetX = 80;
    00001B55 DD 6E F7         [19] 4714 	ld	l, -9 (ix)
    00001B58 DD 66 F8         [19] 4715 	ld	h, -8 (ix)
    00001B5B 7E               [ 7] 4716 	ld	a, (hl)
    00001B5C 3D               [ 4] 4717 	dec	a
    00001B5D 20 0B            [12] 4718 	jr	NZ, 00384$
    00001B5F DD 36 F9 50      [19] 4719 	ld	-7 (ix), #0x50
    00001B63 DD 36 FA 00      [19] 4720 	ld	-6 (ix), #0
    00001B67 C3r72r1B         [10] 4721 	jp	00385$
    00001B6A                       4722 00384$:
                                   4723 ;E:\Dropbox\FAUSTO\SVILUPPI\MSX\CODE\C\MSXgl\projects\exsoccer/exsoccer_s1_b2.c:923: else defTargetX = 176;
    00001B6A DD 36 F9 B0      [19] 4724 	ld	-7 (ix), #0xb0
    00001B6E DD 36 FA 00      [19] 4725 	ld	-6 (ix), #0
    00001B72                       4726 00385$:
                                   4727 ;E:\Dropbox\FAUSTO\SVILUPPI\MSX\CODE\C\MSXgl\projects\exsoccer/exsoccer_s1_b2.c:926: defTargetX = (defTargetX + g_Ball.X) / 2;
    00001B72 21r02r00         [10] 4728 	ld	hl, #_g_Ball + 2
    00001B75 7E               [ 7] 4729 	ld	a, (hl)
    00001B76 DD 77 FB         [19] 4730 	ld	-5 (ix), a
    00001B79 23               [ 6] 4731 	inc	hl
    00001B7A 7E               [ 7] 4732 	ld	a, (hl)
    00001B7B DD 77 FC         [19] 4733 	ld	-4 (ix), a
    00001B7E DD 7E FB         [19] 4734 	ld	a, -5 (ix)
    00001B81 DD 86 F9         [19] 4735 	add	a, -7 (ix)
    00001B84 DD 77 FD         [19] 4736 	ld	-3 (ix), a
    00001B87 DD 7E FC         [19] 4737 	ld	a, -4 (ix)
    00001B8A DD 8E FA         [19] 4738 	adc	a, -6 (ix)
    00001B8D DD 77 FE         [19] 4739 	ld	-2 (ix), a
    00001B90 DD CB FE 3E      [23] 4740 	srl	-2 (ix)
    00001B94 DD CB FD 1E      [23] 4741 	rr	-3 (ix)
                                   4742 ;E:\Dropbox\FAUSTO\SVILUPPI\MSX\CODE\C\MSXgl\projects\exsoccer/exsoccer_s1_b2.c:927: g_Players[playerId].TargetX = defTargetX;
    00001B98 DD 7E DD         [19] 4743 	ld	a, -35 (ix)
    00001B9B C6 10            [ 7] 4744 	add	a, #0x10
    00001B9D DD 77 FB         [19] 4745 	ld	-5 (ix), a
    00001BA0 DD 7E DE         [19] 4746 	ld	a, -34 (ix)
    00001BA3 CE 00            [ 7] 4747 	adc	a, #0x00
    00001BA5 DD 77 FC         [19] 4748 	ld	-4 (ix), a
    00001BA8 DD 6E FB         [19] 4749 	ld	l, -5 (ix)
    00001BAB DD 66 FC         [19] 4750 	ld	h, -4 (ix)
    00001BAE DD 7E FD         [19] 4751 	ld	a, -3 (ix)
    00001BB1 77               [ 7] 4752 	ld	(hl), a
    00001BB2 23               [ 6] 4753 	inc	hl
    00001BB3 DD 7E FE         [19] 4754 	ld	a, -2 (ix)
    00001BB6 77               [ 7] 4755 	ld	(hl), a
    00001BB7 C3rFDr1B         [10] 4756 	jp	00806$
    00001BBA                       4757 00392$:
                                   4758 ;E:\Dropbox\FAUSTO\SVILUPPI\MSX\CODE\C\MSXgl\projects\exsoccer/exsoccer_s1_b2.c:929: } else if (g_Players[playerId].Role == PLAYER_ROLE_GOALKEEPER) {
    00001BBA DD 7E FE         [19] 4759 	ld	a, -2 (ix)
    00001BBD B7               [ 4] 4760 	or	a, a
    00001BBE 20 3D            [12] 4761 	jr	NZ, 00806$
                                   4762 ;E:\Dropbox\FAUSTO\SVILUPPI\MSX\CODE\C\MSXgl\projects\exsoccer/exsoccer_s1_b2.c:930: g_Players[playerId].TargetX = FIELD_POS_X_CENTER;
    00001BC0 E1               [10] 4763 	pop	hl
    00001BC1 E5               [11] 4764 	push	hl
    00001BC2 11 10 00         [10] 4765 	ld	de, #0x0010
    00001BC5 19               [11] 4766 	add	hl, de
    00001BC6 36 78            [10] 4767 	ld	(hl), #0x78
    00001BC8 23               [ 6] 4768 	inc	hl
    00001BC9 36 00            [10] 4769 	ld	(hl), #0x00
                                   4770 ;E:\Dropbox\FAUSTO\SVILUPPI\MSX\CODE\C\MSXgl\projects\exsoccer/exsoccer_s1_b2.c:841: g_Players[playerId].TargetY = finalTargetY;
    00001BCB DD 7E DD         [19] 4771 	ld	a, -35 (ix)
    00001BCE C6 0E            [ 7] 4772 	add	a, #0x0e
    00001BD0 DD 77 FD         [19] 4773 	ld	-3 (ix), a
    00001BD3 DD 7E DE         [19] 4774 	ld	a, -34 (ix)
    00001BD6 CE 00            [ 7] 4775 	adc	a, #0x00
    00001BD8 DD 77 FE         [19] 4776 	ld	-2 (ix), a
                                   4777 ;E:\Dropbox\FAUSTO\SVILUPPI\MSX\CODE\C\MSXgl\projects\exsoccer/exsoccer_s1_b2.c:931: if (playerTeamId == TEAM_1) g_Players[playerId].TargetY = GK_BOX_Y_BOTTOM_MIN + 20;
    00001BDB DD 7E DF         [19] 4778 	ld	a, -33 (ix)
    00001BDE 3D               [ 4] 4779 	dec	a
    00001BDF 20 0E            [12] 4780 	jr	NZ, 00387$
    00001BE1 DD 6E FD         [19] 4781 	ld	l, -3 (ix)
    00001BE4 DD 66 FE         [19] 4782 	ld	h, -2 (ix)
    00001BE7 36 A9            [10] 4783 	ld	(hl), #0xa9
    00001BE9 23               [ 6] 4784 	inc	hl
    00001BEA 36 01            [10] 4785 	ld	(hl), #0x01
    00001BEC C3rC0r27         [10] 4786 	jp	00609$
    00001BEF                       4787 00387$:
                                   4788 ;E:\Dropbox\FAUSTO\SVILUPPI\MSX\CODE\C\MSXgl\projects\exsoccer/exsoccer_s1_b2.c:932: else g_Players[playerId].TargetY = GK_BOX_Y_TOP_MAX - 20;
    00001BEF DD 6E FD         [19] 4789 	ld	l, -3 (ix)
    00001BF2 DD 66 FE         [19] 4790 	ld	h, -2 (ix)
    00001BF5 36 37            [10] 4791 	ld	(hl), #0x37
    00001BF7 23               [ 6] 4792 	inc	hl
    00001BF8 36 00            [10] 4793 	ld	(hl), #0x00
                                   4794 ;E:\Dropbox\FAUSTO\SVILUPPI\MSX\CODE\C\MSXgl\projects\exsoccer/exsoccer_s1_b2.c:933: return; // GK Done
    00001BFA C3rC0r27         [10] 4795 	jp	00609$
                                   4796 ;E:\Dropbox\FAUSTO\SVILUPPI\MSX\CODE\C\MSXgl\projects\exsoccer/exsoccer_s1_b2.c:937: for(u8 i=0; i<14; i++) {
    00001BFD                       4797 00806$:
    00001BFD DD 36 FE 00      [19] 4798 	ld	-2 (ix), #0x00
    00001C01                       4799 00602$:
    00001C01 DD 7E FE         [19] 4800 	ld	a, -2 (ix)
    00001C04 D6 0E            [ 7] 4801 	sub	a, #0x0e
    00001C06 D2r25r1E         [10] 4802 	jp	NC, 00423$
                                   4803 ;E:\Dropbox\FAUSTO\SVILUPPI\MSX\CODE\C\MSXgl\projects\exsoccer/exsoccer_s1_b2.c:938: if (i == playerId) continue;
    00001C09 DD 7E FF         [19] 4804 	ld	a, -1 (ix)
    00001C0C DD 96 FE         [19] 4805 	sub	a, -2 (ix)
    00001C0F CAr1Fr1E         [10] 4806 	jp	Z,00422$
                                   4807 ;E:\Dropbox\FAUSTO\SVILUPPI\MSX\CODE\C\MSXgl\projects\exsoccer/exsoccer_s1_b2.c:939: if (g_Players[i].Status == PLAYER_STATUS_NONE) continue;
    00001C12 DD 4E FE         [19] 4808 	ld	c, -2 (ix)
    00001C15 06 00            [ 7] 4809 	ld	b, #0x00
    00001C17 69               [ 4] 4810 	ld	l, c
    00001C18 60               [ 4] 4811 	ld	h, b
    00001C19 29               [11] 4812 	add	hl, hl
    00001C1A 29               [11] 4813 	add	hl, hl
    00001C1B 09               [11] 4814 	add	hl, bc
    00001C1C 29               [11] 4815 	add	hl, hl
    00001C1D 29               [11] 4816 	add	hl, hl
    00001C1E 09               [11] 4817 	add	hl, bc
    00001C1F DD 75 FA         [19] 4818 	ld	-6 (ix), l
    00001C22 DD 74 FB         [19] 4819 	ld	-5 (ix), h
    00001C25 DD 7E FA         [19] 4820 	ld	a, -6 (ix)
    00001C28 C6r00            [ 7] 4821 	add	a, #<(_g_Players)
    00001C2A DD 77 FC         [19] 4822 	ld	-4 (ix), a
    00001C2D DD 7E FB         [19] 4823 	ld	a, -5 (ix)
    00001C30 CEs00            [ 7] 4824 	adc	a, #>(_g_Players)
    00001C32 DD 77 FD         [19] 4825 	ld	-3 (ix), a
    00001C35 DD 7E FC         [19] 4826 	ld	a, -4 (ix)
    00001C38 DD 77 FA         [19] 4827 	ld	-6 (ix), a
    00001C3B DD 7E FD         [19] 4828 	ld	a, -3 (ix)
    00001C3E DD 77 FB         [19] 4829 	ld	-5 (ix), a
    00001C41 DD 6E FA         [19] 4830 	ld	l, -6 (ix)
    00001C44 DD 66 FB         [19] 4831 	ld	h, -5 (ix)
    00001C47 11 12 00         [10] 4832 	ld	de, #0x0012
    00001C4A 19               [11] 4833 	add	hl, de
    00001C4B 7E               [ 7] 4834 	ld	a, (hl)
    00001C4C DD 77 FA         [19] 4835 	ld	-6 (ix), a
    00001C4F 23               [ 6] 4836 	inc	hl
    00001C50 7E               [ 7] 4837 	ld	a, (hl)
    00001C51 DD 77 FB         [19] 4838 	ld	-5 (ix), a
    00001C54 DD B6 FA         [19] 4839 	or	a, -6 (ix)
    00001C57 CAr1Fr1E         [10] 4840 	jp	Z, 00422$
                                   4841 ;E:\Dropbox\FAUSTO\SVILUPPI\MSX\CODE\C\MSXgl\projects\exsoccer/exsoccer_s1_b2.c:940: if (g_Players[i].TeamId != playerTeamId) continue;
    00001C5A DD 4E FC         [19] 4842 	ld	c, -4 (ix)
    00001C5D DD 46 FD         [19] 4843 	ld	b, -3 (ix)
    00001C60 21 09 00         [10] 4844 	ld	hl, #9
    00001C63 09               [11] 4845 	add	hl, bc
    00001C64 DD 7E DF         [19] 4846 	ld	a,-33 (ix)
    00001C67 96               [ 7] 4847 	sub	a,(hl)
    00001C68 C2r1Fr1E         [10] 4848 	jp	NZ,00422$
                                   4849 ;E:\Dropbox\FAUSTO\SVILUPPI\MSX\CODE\C\MSXgl\projects\exsoccer/exsoccer_s1_b2.c:941: if (g_Players[i].Role == PLAYER_ROLE_GOALKEEPER) continue;
    00001C6B DD 4E FC         [19] 4850 	ld	c, -4 (ix)
    00001C6E DD 46 FD         [19] 4851 	ld	b, -3 (ix)
    00001C71 21 0D 00         [10] 4852 	ld	hl, #13
    00001C74 09               [11] 4853 	add	hl, bc
    00001C75 7E               [ 7] 4854 	ld	a, (hl)
    00001C76 B7               [ 4] 4855 	or	a, a
    00001C77 CAr1Fr1E         [10] 4856 	jp	Z, 00422$
                                   4857 ;E:\Dropbox\FAUSTO\SVILUPPI\MSX\CODE\C\MSXgl\projects\exsoccer/exsoccer_s1_b2.c:943: i16 dx = (i16)g_Players[playerId].TargetX - (i16)g_Players[i].X;
    00001C7A DD 7E DD         [19] 4858 	ld	a, -35 (ix)
    00001C7D C6 10            [ 7] 4859 	add	a, #0x10
    00001C7F DD 77 F0         [19] 4860 	ld	-16 (ix), a
    00001C82 DD 7E DE         [19] 4861 	ld	a, -34 (ix)
    00001C85 CE 00            [ 7] 4862 	adc	a, #0x00
    00001C87 DD 77 F1         [19] 4863 	ld	-15 (ix), a
    00001C8A DD 6E F0         [19] 4864 	ld	l, -16 (ix)
    00001C8D DD 66 F1         [19] 4865 	ld	h, -15 (ix)
    00001C90 7E               [ 7] 4866 	ld	a, (hl)
    00001C91 DD 77 F2         [19] 4867 	ld	-14 (ix), a
    00001C94 23               [ 6] 4868 	inc	hl
    00001C95 7E               [ 7] 4869 	ld	a, (hl)
    00001C96 DD 77 F3         [19] 4870 	ld	-13 (ix), a
    00001C99 DD 7E F2         [19] 4871 	ld	a, -14 (ix)
    00001C9C DD 77 F6         [19] 4872 	ld	-10 (ix), a
    00001C9F DD 7E F3         [19] 4873 	ld	a, -13 (ix)
    00001CA2 DD 77 F7         [19] 4874 	ld	-9 (ix), a
    00001CA5 DD 7E FC         [19] 4875 	ld	a, -4 (ix)
    00001CA8 DD 77 FA         [19] 4876 	ld	-6 (ix), a
    00001CAB DD 7E FD         [19] 4877 	ld	a, -3 (ix)
    00001CAE DD 77 FB         [19] 4878 	ld	-5 (ix), a
    00001CB1 DD 6E FA         [19] 4879 	ld	l, -6 (ix)
    00001CB4 DD 66 FB         [19] 4880 	ld	h, -5 (ix)
    00001CB7 23               [ 6] 4881 	inc	hl
    00001CB8 23               [ 6] 4882 	inc	hl
    00001CB9 7E               [ 7] 4883 	ld	a, (hl)
    00001CBA DD 77 FA         [19] 4884 	ld	-6 (ix), a
    00001CBD 23               [ 6] 4885 	inc	hl
    00001CBE 7E               [ 7] 4886 	ld	a, (hl)
    00001CBF DD 77 FB         [19] 4887 	ld	-5 (ix), a
    00001CC2 DD 7E FA         [19] 4888 	ld	a, -6 (ix)
    00001CC5 DD 77 F8         [19] 4889 	ld	-8 (ix), a
    00001CC8 DD 7E FB         [19] 4890 	ld	a, -5 (ix)
    00001CCB DD 77 F9         [19] 4891 	ld	-7 (ix), a
    00001CCE DD 7E F6         [19] 4892 	ld	a, -10 (ix)
    00001CD1 DD 96 F8         [19] 4893 	sub	a, -8 (ix)
    00001CD4 DD 77 FA         [19] 4894 	ld	-6 (ix), a
    00001CD7 DD 7E F7         [19] 4895 	ld	a, -9 (ix)
    00001CDA DD 9E F9         [19] 4896 	sbc	a, -7 (ix)
    00001CDD DD 77 FB         [19] 4897 	ld	-5 (ix), a
    00001CE0 DD 7E FA         [19] 4898 	ld	a, -6 (ix)
    00001CE3 DD 77 F4         [19] 4899 	ld	-12 (ix), a
    00001CE6 DD 7E FB         [19] 4900 	ld	a, -5 (ix)
    00001CE9 DD 77 F5         [19] 4901 	ld	-11 (ix), a
                                   4902 ;E:\Dropbox\FAUSTO\SVILUPPI\MSX\CODE\C\MSXgl\projects\exsoccer/exsoccer_s1_b2.c:944: i16 dy = (i16)g_Players[playerId].TargetY - (i16)g_Players[i].Y;
    00001CEC DD 7E DD         [19] 4903 	ld	a, -35 (ix)
    00001CEF C6 0E            [ 7] 4904 	add	a, #0x0e
    00001CF1 DD 77 F6         [19] 4905 	ld	-10 (ix), a
    00001CF4 DD 7E DE         [19] 4906 	ld	a, -34 (ix)
    00001CF7 CE 00            [ 7] 4907 	adc	a, #0x00
    00001CF9 DD 77 F7         [19] 4908 	ld	-9 (ix), a
    00001CFC DD 6E F6         [19] 4909 	ld	l, -10 (ix)
    00001CFF DD 66 F7         [19] 4910 	ld	h, -9 (ix)
    00001D02 7E               [ 7] 4911 	ld	a, (hl)
    00001D03 DD 77 FA         [19] 4912 	ld	-6 (ix), a
    00001D06 23               [ 6] 4913 	inc	hl
    00001D07 7E               [ 7] 4914 	ld	a, (hl)
    00001D08 DD 77 FB         [19] 4915 	ld	-5 (ix), a
    00001D0B DD 7E FA         [19] 4916 	ld	a, -6 (ix)
    00001D0E DD 77 F8         [19] 4917 	ld	-8 (ix), a
    00001D11 DD 7E FB         [19] 4918 	ld	a, -5 (ix)
    00001D14 DD 77 F9         [19] 4919 	ld	-7 (ix), a
    00001D17 DD 6E FC         [19] 4920 	ld	l, -4 (ix)
    00001D1A DD 66 FD         [19] 4921 	ld	h, -3 (ix)
    00001D1D 7E               [ 7] 4922 	ld	a, (hl)
    00001D1E DD 77 FC         [19] 4923 	ld	-4 (ix), a
    00001D21 23               [ 6] 4924 	inc	hl
    00001D22 7E               [ 7] 4925 	ld	a, (hl)
    00001D23 DD 77 FD         [19] 4926 	ld	-3 (ix), a
    00001D26 DD 7E FC         [19] 4927 	ld	a, -4 (ix)
    00001D29 DD 77 FA         [19] 4928 	ld	-6 (ix), a
    00001D2C DD 7E FD         [19] 4929 	ld	a, -3 (ix)
    00001D2F DD 77 FB         [19] 4930 	ld	-5 (ix), a
    00001D32 DD 7E F8         [19] 4931 	ld	a, -8 (ix)
    00001D35 DD 96 FA         [19] 4932 	sub	a, -6 (ix)
    00001D38 DD 77 FC         [19] 4933 	ld	-4 (ix), a
    00001D3B DD 7E F9         [19] 4934 	ld	a, -7 (ix)
    00001D3E DD 9E FB         [19] 4935 	sbc	a, -5 (ix)
    00001D41 DD 77 FD         [19] 4936 	ld	-3 (ix), a
    00001D44 DD 5E FC         [19] 4937 	ld	e, -4 (ix)
    00001D47 DD 56 FD         [19] 4938 	ld	d, -3 (ix)
                                   4939 ;E:\Dropbox\FAUSTO\SVILUPPI\MSX\CODE\C\MSXgl\projects\exsoccer/exsoccer_s1_b2.c:945: if (dx > -75 && dx < 75 && dy > -75 && dy < 75) {
    00001D4A 3E B5            [ 7] 4940 	ld	a, #0xb5
    00001D4C DD BE F4         [19] 4941 	cp	a, -12 (ix)
    00001D4F 3E FF            [ 7] 4942 	ld	a, #0xff
    00001D51 DD 9E F5         [19] 4943 	sbc	a, -11 (ix)
    00001D54 E2r59r1D         [10] 4944 	jp	PO, 01988$
    00001D57 EE 80            [ 7] 4945 	xor	a, #0x80
    00001D59                       4946 01988$:
    00001D59 F2r1Fr1E         [10] 4947 	jp	P, 00422$
    00001D5C DD 7E F4         [19] 4948 	ld	a, -12 (ix)
    00001D5F DD 46 F5         [19] 4949 	ld	b, -11 (ix)
    00001D62 D6 4B            [ 7] 4950 	sub	a, #0x4b
    00001D64 78               [ 4] 4951 	ld	a, b
    00001D65 17               [ 4] 4952 	rla
    00001D66 3F               [ 4] 4953 	ccf
    00001D67 1F               [ 4] 4954 	rra
    00001D68 DE 80            [ 7] 4955 	sbc	a, #0x80
    00001D6A D2r1Fr1E         [10] 4956 	jp	NC, 00422$
    00001D6D 3E B5            [ 7] 4957 	ld	a, #0xb5
    00001D6F BB               [ 4] 4958 	cp	a, e
    00001D70 3E FF            [ 7] 4959 	ld	a, #0xff
    00001D72 9A               [ 4] 4960 	sbc	a, d
    00001D73 E2r78r1D         [10] 4961 	jp	PO, 01989$
    00001D76 EE 80            [ 7] 4962 	xor	a, #0x80
    00001D78                       4963 01989$:
    00001D78 F2r1Fr1E         [10] 4964 	jp	P, 00422$
    00001D7B DD 73 FA         [19] 4965 	ld	-6 (ix), e
    00001D7E DD 72 FB         [19] 4966 	ld	-5 (ix), d
    00001D81 DD 7E FA         [19] 4967 	ld	a, -6 (ix)
    00001D84 D6 4B            [ 7] 4968 	sub	a, #0x4b
    00001D86 DD 7E FB         [19] 4969 	ld	a, -5 (ix)
    00001D89 17               [ 4] 4970 	rla
    00001D8A 3F               [ 4] 4971 	ccf
    00001D8B 1F               [ 4] 4972 	rra
    00001D8C DE 80            [ 7] 4973 	sbc	a, #0x80
    00001D8E D2r1Fr1E         [10] 4974 	jp	NC, 00422$
                                   4975 ;E:\Dropbox\FAUSTO\SVILUPPI\MSX\CODE\C\MSXgl\projects\exsoccer/exsoccer_s1_b2.c:946: if (dx >= 0) g_Players[playerId].TargetX += 12; else g_Players[playerId].TargetX -= 12;
    00001D91 DD 7E F2         [19] 4976 	ld	a, -14 (ix)
    00001D94 DD 77 FC         [19] 4977 	ld	-4 (ix), a
    00001D97 DD 7E F3         [19] 4978 	ld	a, -13 (ix)
    00001D9A DD 77 FD         [19] 4979 	ld	-3 (ix), a
    00001D9D CB 78            [ 8] 4980 	bit	7, b
    00001D9F 20 2E            [12] 4981 	jr	NZ, 00412$
    00001DA1 DD 7E FC         [19] 4982 	ld	a, -4 (ix)
    00001DA4 C6 0C            [ 7] 4983 	add	a, #0x0c
    00001DA6 DD 77 F8         [19] 4984 	ld	-8 (ix), a
    00001DA9 DD 7E FD         [19] 4985 	ld	a, -3 (ix)
    00001DAC CE 00            [ 7] 4986 	adc	a, #0x00
    00001DAE DD 77 F9         [19] 4987 	ld	-7 (ix), a
    00001DB1 DD 7E F8         [19] 4988 	ld	a, -8 (ix)
    00001DB4 DD 77 FC         [19] 4989 	ld	-4 (ix), a
    00001DB7 DD 7E F9         [19] 4990 	ld	a, -7 (ix)
    00001DBA DD 77 FD         [19] 4991 	ld	-3 (ix), a
    00001DBD DD 6E F0         [19] 4992 	ld	l, -16 (ix)
    00001DC0 DD 66 F1         [19] 4993 	ld	h, -15 (ix)
    00001DC3 DD 7E FC         [19] 4994 	ld	a, -4 (ix)
    00001DC6 77               [ 7] 4995 	ld	(hl), a
    00001DC7 23               [ 6] 4996 	inc	hl
    00001DC8 DD 7E FD         [19] 4997 	ld	a, -3 (ix)
    00001DCB 77               [ 7] 4998 	ld	(hl), a
    00001DCC C3rEEr1D         [10] 4999 	jp	00413$
    00001DCF                       5000 00412$:
    00001DCF DD 7E FC         [19] 5001 	ld	a, -4 (ix)
    00001DD2 C6 F4            [ 7] 5002 	add	a, #0xf4
    00001DD4 DD 77 F8         [19] 5003 	ld	-8 (ix), a
    00001DD7 DD 7E FD         [19] 5004 	ld	a, -3 (ix)
    00001DDA CE FF            [ 7] 5005 	adc	a, #0xff
    00001DDC DD 77 F9         [19] 5006 	ld	-7 (ix), a
    00001DDF DD 4E F8         [19] 5007 	ld	c, -8 (ix)
    00001DE2 DD 46 F9         [19] 5008 	ld	b, -7 (ix)
    00001DE5 DD 6E F0         [19] 5009 	ld	l, -16 (ix)
    00001DE8 DD 66 F1         [19] 5010 	ld	h, -15 (ix)
    00001DEB 71               [ 7] 5011 	ld	(hl), c
    00001DEC 23               [ 6] 5012 	inc	hl
    00001DED 70               [ 7] 5013 	ld	(hl), b
    00001DEE                       5014 00413$:
                                   5015 ;E:\Dropbox\FAUSTO\SVILUPPI\MSX\CODE\C\MSXgl\projects\exsoccer/exsoccer_s1_b2.c:944: i16 dy = (i16)g_Players[playerId].TargetY - (i16)g_Players[i].Y;
    00001DEE DD 6E F6         [19] 5016 	ld	l, -10 (ix)
    00001DF1 DD 66 F7         [19] 5017 	ld	h, -9 (ix)
    00001DF4 4E               [ 7] 5018 	ld	c, (hl)
    00001DF5 23               [ 6] 5019 	inc	hl
    00001DF6 46               [ 7] 5020 	ld	b, (hl)
                                   5021 ;E:\Dropbox\FAUSTO\SVILUPPI\MSX\CODE\C\MSXgl\projects\exsoccer/exsoccer_s1_b2.c:947: if (dy >= 0) g_Players[playerId].TargetY += 12; else g_Players[playerId].TargetY -= 12;
    00001DF7 DD CB FB 7E      [20] 5022 	bit	7, -5 (ix)
    00001DFB 20 11            [12] 5023 	jr	NZ, 00415$
    00001DFD 21 0C 00         [10] 5024 	ld	hl, #0x000c
    00001E00 09               [11] 5025 	add	hl, bc
    00001E01 EB               [ 4] 5026 	ex	de, hl
    00001E02 DD 6E F6         [19] 5027 	ld	l, -10 (ix)
    00001E05 DD 66 F7         [19] 5028 	ld	h, -9 (ix)
    00001E08 73               [ 7] 5029 	ld	(hl), e
    00001E09 23               [ 6] 5030 	inc	hl
    00001E0A 72               [ 7] 5031 	ld	(hl), d
    00001E0B C3r1Fr1E         [10] 5032 	jp	00422$
    00001E0E                       5033 00415$:
    00001E0E 79               [ 4] 5034 	ld	a, c
    00001E0F C6 F4            [ 7] 5035 	add	a, #0xf4
    00001E11 4F               [ 4] 5036 	ld	c, a
    00001E12 78               [ 4] 5037 	ld	a, b
    00001E13 CE FF            [ 7] 5038 	adc	a, #0xff
    00001E15 47               [ 4] 5039 	ld	b, a
    00001E16 DD 6E F6         [19] 5040 	ld	l, -10 (ix)
    00001E19 DD 66 F7         [19] 5041 	ld	h, -9 (ix)
    00001E1C 71               [ 7] 5042 	ld	(hl), c
    00001E1D 23               [ 6] 5043 	inc	hl
    00001E1E 70               [ 7] 5044 	ld	(hl), b
    00001E1F                       5045 00422$:
                                   5046 ;E:\Dropbox\FAUSTO\SVILUPPI\MSX\CODE\C\MSXgl\projects\exsoccer/exsoccer_s1_b2.c:937: for(u8 i=0; i<14; i++) {
    00001E1F DD 34 FE         [23] 5047 	inc	-2 (ix)
    00001E22 C3r01r1C         [10] 5048 	jp	00602$
    00001E25                       5049 00423$:
                                   5050 ;E:\Dropbox\FAUSTO\SVILUPPI\MSX\CODE\C\MSXgl\projects\exsoccer/exsoccer_s1_b2.c:952: u16 offsideY = GetOffsideLineY(playerTeamId);
    00001E25 DD 7E DF         [19] 5051 	ld	a, -33 (ix)
    00001E28 CDr00r00         [17] 5052 	call	_GetOffsideLineY
    00001E2B DD 73 FB         [19] 5053 	ld	-5 (ix), e
    00001E2E DD 72 FC         [19] 5054 	ld	-4 (ix), d
                                   5055 ;E:\Dropbox\FAUSTO\SVILUPPI\MSX\CODE\C\MSXgl\projects\exsoccer/exsoccer_s1_b2.c:841: g_Players[playerId].TargetY = finalTargetY;
    00001E31 DD 7E DD         [19] 5056 	ld	a, -35 (ix)
    00001E34 C6 0E            [ 7] 5057 	add	a, #0x0e
    00001E36 DD 77 FD         [19] 5058 	ld	-3 (ix), a
    00001E39 DD 7E DE         [19] 5059 	ld	a, -34 (ix)
    00001E3C CE 00            [ 7] 5060 	adc	a, #0x00
    00001E3E DD 77 FE         [19] 5061 	ld	-2 (ix), a
                                   5062 ;E:\Dropbox\FAUSTO\SVILUPPI\MSX\CODE\C\MSXgl\projects\exsoccer/exsoccer_s1_b2.c:853: g_Players[playerId].TargetY = g_Ball.Y;
    00001E41 21r00r00         [10] 5063 	ld	hl, #_g_Ball
    00001E44 7E               [ 7] 5064 	ld	a, (hl)
    00001E45 DD 77 F7         [19] 5065 	ld	-9 (ix), a
    00001E48 23               [ 6] 5066 	inc	hl
    00001E49 7E               [ 7] 5067 	ld	a, (hl)
    00001E4A DD 77 F8         [19] 5068 	ld	-8 (ix), a
                                   5069 ;E:\Dropbox\FAUSTO\SVILUPPI\MSX\CODE\C\MSXgl\projects\exsoccer/exsoccer_s1_b2.c:902: if (g_Players[playerId].TargetY < 318) g_Players[playerId].TargetY = 318;
    00001E4D DD 6E FD         [19] 5070 	ld	l, -3 (ix)
    00001E50 DD 66 FE         [19] 5071 	ld	h, -2 (ix)
    00001E53 4E               [ 7] 5072 	ld	c, (hl)
    00001E54 23               [ 6] 5073 	inc	hl
    00001E55 7E               [ 7] 5074 	ld	a, (hl)
    00001E56 DD 71 F9         [19] 5075 	ld	-7 (ix), c
    00001E59 DD 77 FA         [19] 5076 	ld	-6 (ix), a
                                   5077 ;E:\Dropbox\FAUSTO\SVILUPPI\MSX\CODE\C\MSXgl\projects\exsoccer/exsoccer_s1_b2.c:955: if (playerTeamId == TEAM_1) { // Attacking UP (TargetY decreases)
    00001E5C DD 7E DF         [19] 5078 	ld	a, -33 (ix)
    00001E5F 3D               [ 4] 5079 	dec	a
    00001E60 20 39            [12] 5080 	jr	NZ, 00429$
                                   5081 ;E:\Dropbox\FAUSTO\SVILUPPI\MSX\CODE\C\MSXgl\projects\exsoccer/exsoccer_s1_b2.c:959: effectiveLimit = (g_Ball.Y < offsideY) ? g_Ball.Y : offsideY;
    00001E62 DD 7E F7         [19] 5082 	ld	a, -9 (ix)
    00001E65 DD 96 FB         [19] 5083 	sub	a, -5 (ix)
    00001E68 DD 7E F8         [19] 5084 	ld	a, -8 (ix)
    00001E6B DD 9E FC         [19] 5085 	sbc	a, -4 (ix)
    00001E6E 30 09            [12] 5086 	jr	NC, 00627$
    00001E70 DD 5E F7         [19] 5087 	ld	e, -9 (ix)
    00001E73 DD 56 F8         [19] 5088 	ld	d, -8 (ix)
    00001E76 C3r7Fr1E         [10] 5089 	jp	00628$
    00001E79                       5090 00627$:
    00001E79 DD 5E FB         [19] 5091 	ld	e, -5 (ix)
    00001E7C DD 56 FC         [19] 5092 	ld	d, -4 (ix)
    00001E7F                       5093 00628$:
                                   5094 ;E:\Dropbox\FAUSTO\SVILUPPI\MSX\CODE\C\MSXgl\projects\exsoccer/exsoccer_s1_b2.c:961: if (g_Players[playerId].TargetY < (effectiveLimit + 10)) { 
    00001E7F 21 0A 00         [10] 5095 	ld	hl, #0x000a
    00001E82 19               [11] 5096 	add	hl, de
    00001E83 EB               [ 4] 5097 	ex	de, hl
    00001E84 DD 7E F9         [19] 5098 	ld	a, -7 (ix)
    00001E87 93               [ 4] 5099 	sub	a, e
    00001E88 DD 7E FA         [19] 5100 	ld	a, -6 (ix)
    00001E8B 9A               [ 4] 5101 	sbc	a, d
    00001E8C D2rC0r27         [10] 5102 	jp	NC,00609$
                                   5103 ;E:\Dropbox\FAUSTO\SVILUPPI\MSX\CODE\C\MSXgl\projects\exsoccer/exsoccer_s1_b2.c:962: g_Players[playerId].TargetY = effectiveLimit + 10;
    00001E8F DD 6E FD         [19] 5104 	ld	l, -3 (ix)
    00001E92 DD 66 FE         [19] 5105 	ld	h, -2 (ix)
    00001E95 73               [ 7] 5106 	ld	(hl), e
    00001E96 23               [ 6] 5107 	inc	hl
    00001E97 72               [ 7] 5108 	ld	(hl), d
    00001E98 C3rC0r27         [10] 5109 	jp	00609$
    00001E9B                       5110 00429$:
                                   5111 ;E:\Dropbox\FAUSTO\SVILUPPI\MSX\CODE\C\MSXgl\projects\exsoccer/exsoccer_s1_b2.c:966: effectiveLimit = (g_Ball.Y > offsideY) ? g_Ball.Y : offsideY;
    00001E9B DD 7E FB         [19] 5112 	ld	a, -5 (ix)
    00001E9E DD 96 F7         [19] 5113 	sub	a, -9 (ix)
    00001EA1 DD 7E FC         [19] 5114 	ld	a, -4 (ix)
    00001EA4 DD 9E F8         [19] 5115 	sbc	a, -8 (ix)
    00001EA7 30 09            [12] 5116 	jr	NC, 00629$
    00001EA9 DD 5E F7         [19] 5117 	ld	e, -9 (ix)
    00001EAC DD 56 F8         [19] 5118 	ld	d, -8 (ix)
    00001EAF C3rB8r1E         [10] 5119 	jp	00630$
    00001EB2                       5120 00629$:
    00001EB2 DD 5E FB         [19] 5121 	ld	e, -5 (ix)
    00001EB5 DD 56 FC         [19] 5122 	ld	d, -4 (ix)
    00001EB8                       5123 00630$:
                                   5124 ;E:\Dropbox\FAUSTO\SVILUPPI\MSX\CODE\C\MSXgl\projects\exsoccer/exsoccer_s1_b2.c:968: if (g_Players[playerId].TargetY > (effectiveLimit - 10)) {
    00001EB8 7B               [ 4] 5125 	ld	a, e
    00001EB9 C6 F6            [ 7] 5126 	add	a, #0xf6
    00001EBB 4F               [ 4] 5127 	ld	c, a
    00001EBC 7A               [ 4] 5128 	ld	a, d
    00001EBD CE FF            [ 7] 5129 	adc	a, #0xff
    00001EBF 47               [ 4] 5130 	ld	b, a
    00001EC0 79               [ 4] 5131 	ld	a, c
    00001EC1 DD 96 F9         [19] 5132 	sub	a, -7 (ix)
    00001EC4 78               [ 4] 5133 	ld	a, b
    00001EC5 DD 9E FA         [19] 5134 	sbc	a, -6 (ix)
    00001EC8 D2rC0r27         [10] 5135 	jp	NC,00609$
                                   5136 ;E:\Dropbox\FAUSTO\SVILUPPI\MSX\CODE\C\MSXgl\projects\exsoccer/exsoccer_s1_b2.c:969: g_Players[playerId].TargetY = effectiveLimit - 10;
    00001ECB DD 6E FD         [19] 5137 	ld	l, -3 (ix)
    00001ECE DD 66 FE         [19] 5138 	ld	h, -2 (ix)
    00001ED1 71               [ 7] 5139 	ld	(hl), c
    00001ED2 23               [ 6] 5140 	inc	hl
    00001ED3 70               [ 7] 5141 	ld	(hl), b
                                   5142 ;E:\Dropbox\FAUSTO\SVILUPPI\MSX\CODE\C\MSXgl\projects\exsoccer/exsoccer_s1_b2.c:974: return; 
    00001ED4 C3rC0r27         [10] 5143 	jp	00609$
    00001ED7                       5144 00432$:
                                   5145 ;E:\Dropbox\FAUSTO\SVILUPPI\MSX\CODE\C\MSXgl\projects\exsoccer/exsoccer_s1_b2.c:983: if (g_Players[playerId].Role == PLAYER_ROLE_GOALKEEPER) {
    00001ED7 DD 7E DD         [19] 5146 	ld	a, -35 (ix)
    00001EDA C6 0D            [ 7] 5147 	add	a, #0x0d
    00001EDC 5F               [ 4] 5148 	ld	e, a
    00001EDD DD 7E DE         [19] 5149 	ld	a, -34 (ix)
    00001EE0 CE 00            [ 7] 5150 	adc	a, #0x00
    00001EE2 57               [ 4] 5151 	ld	d, a
    00001EE3 1A               [ 7] 5152 	ld	a, (de)
    00001EE4 B7               [ 4] 5153 	or	a, a
    00001EE5 C2r43r20         [10] 5154 	jp	NZ, 00455$
                                   5155 ;E:\Dropbox\FAUSTO\SVILUPPI\MSX\CODE\C\MSXgl\projects\exsoccer/exsoccer_s1_b2.c:989: if (playerTeamId == TEAM_1) { 
    00001EE8 DD 7E DF         [19] 5156 	ld	a, -33 (ix)
    00001EEB 3D               [ 4] 5157 	dec	a
    00001EEC 20 16            [12] 5158 	jr	NZ, 00434$
                                   5159 ;E:\Dropbox\FAUSTO\SVILUPPI\MSX\CODE\C\MSXgl\projects\exsoccer/exsoccer_s1_b2.c:990: gkTargetY = FIELD_POS_Y_TEAM1_GOALKEEPER;
    00001EEE 01 A8 01         [10] 5160 	ld	bc, #0x01a8
                                   5161 ;E:\Dropbox\FAUSTO\SVILUPPI\MSX\CODE\C\MSXgl\projects\exsoccer/exsoccer_s1_b2.c:991: boxYMin = GK_BOX_Y_BOTTOM_MIN; boxYMax = GK_BOX_Y_BOTTOM_MAX;
    00001EF1 DD 36 FB 95      [19] 5162 	ld	-5 (ix), #0x95
    00001EF5 DD 36 FC 01      [19] 5163 	ld	-4 (ix), #0x01
    00001EF9 DD 36 FD B3      [19] 5164 	ld	-3 (ix), #0xb3
    00001EFD DD 36 FE 01      [19] 5165 	ld	-2 (ix), #0x01
    00001F01 C3r17r1F         [10] 5166 	jp	00435$
    00001F04                       5167 00434$:
                                   5168 ;E:\Dropbox\FAUSTO\SVILUPPI\MSX\CODE\C\MSXgl\projects\exsoccer/exsoccer_s1_b2.c:993: gkTargetY = FIELD_POS_Y_TEAM2_GOALKEEPER;
    00001F04 01 32 00         [10] 5169 	ld	bc, #0x0032
                                   5170 ;E:\Dropbox\FAUSTO\SVILUPPI\MSX\CODE\C\MSXgl\projects\exsoccer/exsoccer_s1_b2.c:994: boxYMin = GK_BOX_Y_TOP_MIN; boxYMax = GK_BOX_Y_TOP_MAX;
    00001F07 DD 36 FB 23      [19] 5171 	ld	-5 (ix), #0x23
    00001F0B DD 36 FC 00      [19] 5172 	ld	-4 (ix), #0
    00001F0F DD 36 FD 4B      [19] 5173 	ld	-3 (ix), #0x4b
    00001F13 DD 36 FE 00      [19] 5174 	ld	-2 (ix), #0
    00001F17                       5175 00435$:
                                   5176 ;E:\Dropbox\FAUSTO\SVILUPPI\MSX\CODE\C\MSXgl\projects\exsoccer/exsoccer_s1_b2.c:997: u8 closestId = GetClosestPlayerToBall(playerTeamId, NO_VALUE);
    00001F17 C5               [11] 5177 	push	bc
    00001F18 2E FF            [ 7] 5178 	ld	l, #0xff
                                   5179 ;	spillPairReg hl
                                   5180 ;	spillPairReg hl
    00001F1A DD 7E DF         [19] 5181 	ld	a, -33 (ix)
    00001F1D CDr00r00         [17] 5182 	call	_GetClosestPlayerToBall
    00001F20 C1               [10] 5183 	pop	bc
    00001F21 DD 77 F5         [19] 5184 	ld	-11 (ix), a
                                   5185 ;E:\Dropbox\FAUSTO\SVILUPPI\MSX\CODE\C\MSXgl\projects\exsoccer/exsoccer_s1_b2.c:998: bool ballInBox = (g_Ball.X > (boxXMin-5) && g_Ball.X < (boxXMax+5) && 
    00001F24 21r02r00         [10] 5186 	ld	hl, #_g_Ball + 2
    00001F27 7E               [ 7] 5187 	ld	a, (hl)
    00001F28 DD 77 F6         [19] 5188 	ld	-10 (ix), a
    00001F2B 23               [ 6] 5189 	inc	hl
    00001F2C 7E               [ 7] 5190 	ld	a, (hl)
    00001F2D DD 77 F7         [19] 5191 	ld	-9 (ix), a
    00001F30 DD 7E F6         [19] 5192 	ld	a, -10 (ix)
    00001F33 DD 77 F8         [19] 5193 	ld	-8 (ix), a
    00001F36 DD 7E F7         [19] 5194 	ld	a, -9 (ix)
    00001F39 DD 77 F9         [19] 5195 	ld	-7 (ix), a
    00001F3C 3E 4B            [ 7] 5196 	ld	a, #0x4b
    00001F3E DD BE F8         [19] 5197 	cp	a, -8 (ix)
    00001F41 3E 00            [ 7] 5198 	ld	a, #0x00
    00001F43 DD 9E F9         [19] 5199 	sbc	a, -7 (ix)
    00001F46 30 32            [12] 5200 	jr	NC, 00631$
    00001F48 DD 7E F8         [19] 5201 	ld	a, -8 (ix)
    00001F4B D6 A5            [ 7] 5202 	sub	a, #0xa5
    00001F4D DD 7E F9         [19] 5203 	ld	a, -7 (ix)
    00001F50 DE 00            [ 7] 5204 	sbc	a, #0x00
    00001F52 30 26            [12] 5205 	jr	NC, 00631$
    00001F54 2Ar00r00         [16] 5206 	ld	hl, (#_g_Ball + 0)
    00001F57 DD 7E FB         [19] 5207 	ld	a, -5 (ix)
    00001F5A DD 56 FC         [19] 5208 	ld	d, -4 (ix)
    00001F5D C6 FB            [ 7] 5209 	add	a, #0xfb
    00001F5F 5F               [ 4] 5210 	ld	e, a
    00001F60 7A               [ 4] 5211 	ld	a, d
    00001F61 CE FF            [ 7] 5212 	adc	a, #0xff
    00001F63 57               [ 4] 5213 	ld	d, a
    00001F64 7B               [ 4] 5214 	ld	a, e
    00001F65 95               [ 4] 5215 	sub	a, l
    00001F66 7A               [ 4] 5216 	ld	a, d
    00001F67 9C               [ 4] 5217 	sbc	a, h
    00001F68 30 10            [12] 5218 	jr	NC, 00631$
    00001F6A DD 5E FD         [19] 5219 	ld	e, -3 (ix)
    00001F6D DD 56 FE         [19] 5220 	ld	d, -2 (ix)
    00001F70 13               [ 6] 5221 	inc	de
    00001F71 13               [ 6] 5222 	inc	de
    00001F72 13               [ 6] 5223 	inc	de
    00001F73 13               [ 6] 5224 	inc	de
    00001F74 13               [ 6] 5225 	inc	de
    00001F75 AF               [ 4] 5226 	xor	a, a
    00001F76 ED 52            [15] 5227 	sbc	hl, de
    00001F78 38 07            [12] 5228 	jr	C, 00632$
    00001F7A                       5229 00631$:
    00001F7A DD 36 FA 00      [19] 5230 	ld	-6 (ix), #0x00
    00001F7E C3r85r1F         [10] 5231 	jp	00633$
    00001F81                       5232 00632$:
    00001F81 DD 36 FA 01      [19] 5233 	ld	-6 (ix), #0x01
    00001F85                       5234 00633$:
                                   5235 ;E:\Dropbox\FAUSTO\SVILUPPI\MSX\CODE\C\MSXgl\projects\exsoccer/exsoccer_s1_b2.c:1001: if (ballInBox && closestId == playerId) {
    00001F85 DD 7E FA         [19] 5236 	ld	a, -6 (ix)
    00001F88 B7               [ 4] 5237 	or	a, a
    00001F89 28 1B            [12] 5238 	jr	Z, 00443$
    00001F8B DD 7E FF         [19] 5239 	ld	a, -1 (ix)
    00001F8E DD 96 F5         [19] 5240 	sub	a, -11 (ix)
    00001F91 20 13            [12] 5241 	jr	NZ, 00443$
                                   5242 ;E:\Dropbox\FAUSTO\SVILUPPI\MSX\CODE\C\MSXgl\projects\exsoccer/exsoccer_s1_b2.c:1002: gkTargetX = g_Ball.X;
    00001F93 DD 7E F6         [19] 5243 	ld	a, -10 (ix)
    00001F96 DD 6E F7         [19] 5244 	ld	l, -9 (ix)
                                   5245 ;	spillPairReg hl
                                   5246 ;	spillPairReg hl
    00001F99 DD 77 F9         [19] 5247 	ld	-7 (ix), a
    00001F9C DD 75 FA         [19] 5248 	ld	-6 (ix), l
                                   5249 ;E:\Dropbox\FAUSTO\SVILUPPI\MSX\CODE\C\MSXgl\projects\exsoccer/exsoccer_s1_b2.c:1003: gkTargetY = g_Ball.Y;
    00001F9F ED 4Br00r00      [20] 5250 	ld	bc, (#_g_Ball + 0)
    00001FA3 C3rE0r1F         [10] 5251 	jp	00444$
    00001FA6                       5252 00443$:
                                   5253 ;E:\Dropbox\FAUSTO\SVILUPPI\MSX\CODE\C\MSXgl\projects\exsoccer/exsoccer_s1_b2.c:1005: if (g_Ball.X > gkTargetX + 24) gkTargetX += 16;
    00001FA6 3E 90            [ 7] 5254 	ld	a, #0x90
    00001FA8 DD BE F8         [19] 5255 	cp	a, -8 (ix)
    00001FAB 3E 00            [ 7] 5256 	ld	a, #0x00
    00001FAD DD 9E F9         [19] 5257 	sbc	a, -7 (ix)
    00001FB0 30 0B            [12] 5258 	jr	NC, 00440$
    00001FB2 DD 36 F9 88      [19] 5259 	ld	-7 (ix), #0x88
    00001FB6 DD 36 FA 00      [19] 5260 	ld	-6 (ix), #0
    00001FBA C3rE0r1F         [10] 5261 	jp	00444$
    00001FBD                       5262 00440$:
                                   5263 ;E:\Dropbox\FAUSTO\SVILUPPI\MSX\CODE\C\MSXgl\projects\exsoccer/exsoccer_s1_b2.c:1006: else if (g_Ball.X < gkTargetX - 24) gkTargetX -= 16;
    00001FBD DD 7E F8         [19] 5264 	ld	a, -8 (ix)
    00001FC0 D6 60            [ 7] 5265 	sub	a, #0x60
    00001FC2 DD 7E F9         [19] 5266 	ld	a, -7 (ix)
    00001FC5 DE 00            [ 7] 5267 	sbc	a, #0x00
    00001FC7 30 0B            [12] 5268 	jr	NC, 00437$
    00001FC9 DD 36 F9 68      [19] 5269 	ld	-7 (ix), #0x68
    00001FCD DD 36 FA 00      [19] 5270 	ld	-6 (ix), #0
    00001FD1 C3rE0r1F         [10] 5271 	jp	00444$
    00001FD4                       5272 00437$:
                                   5273 ;E:\Dropbox\FAUSTO\SVILUPPI\MSX\CODE\C\MSXgl\projects\exsoccer/exsoccer_s1_b2.c:1007: else gkTargetX = g_Ball.X; 
    00001FD4 DD 7E F6         [19] 5274 	ld	a, -10 (ix)
    00001FD7 DD 5E F7         [19] 5275 	ld	e, -9 (ix)
    00001FDA DD 77 F9         [19] 5276 	ld	-7 (ix), a
    00001FDD DD 73 FA         [19] 5277 	ld	-6 (ix), e
    00001FE0                       5278 00444$:
                                   5279 ;E:\Dropbox\FAUSTO\SVILUPPI\MSX\CODE\C\MSXgl\projects\exsoccer/exsoccer_s1_b2.c:1010: if (gkTargetX < boxXMin) gkTargetX = boxXMin;
    00001FE0 DD 7E F9         [19] 5280 	ld	a, -7 (ix)
    00001FE3 D6 50            [ 7] 5281 	sub	a, #0x50
    00001FE5 DD 7E FA         [19] 5282 	ld	a, -6 (ix)
    00001FE8 DE 00            [ 7] 5283 	sbc	a, #0x00
    00001FEA 30 08            [12] 5284 	jr	NC, 00447$
    00001FEC DD 36 F9 50      [19] 5285 	ld	-7 (ix), #0x50
    00001FF0 DD 36 FA 00      [19] 5286 	ld	-6 (ix), #0
    00001FF4                       5287 00447$:
                                   5288 ;E:\Dropbox\FAUSTO\SVILUPPI\MSX\CODE\C\MSXgl\projects\exsoccer/exsoccer_s1_b2.c:1011: if (gkTargetX > boxXMax) gkTargetX = boxXMax;
    00001FF4 3E A0            [ 7] 5289 	ld	a, #0xa0
    00001FF6 DD BE F9         [19] 5290 	cp	a, -7 (ix)
    00001FF9 3E 00            [ 7] 5291 	ld	a, #0x00
    00001FFB DD 9E FA         [19] 5292 	sbc	a, -6 (ix)
    00001FFE 30 08            [12] 5293 	jr	NC, 00449$
    00002000 DD 36 F9 A0      [19] 5294 	ld	-7 (ix), #0xa0
    00002004 DD 36 FA 00      [19] 5295 	ld	-6 (ix), #0
    00002008                       5296 00449$:
                                   5297 ;E:\Dropbox\FAUSTO\SVILUPPI\MSX\CODE\C\MSXgl\projects\exsoccer/exsoccer_s1_b2.c:1012: if (gkTargetY < boxYMin) gkTargetY = boxYMin;
    00002008 79               [ 4] 5298 	ld	a, c
    00002009 DD 96 FB         [19] 5299 	sub	a, -5 (ix)
    0000200C 78               [ 4] 5300 	ld	a, b
    0000200D DD 9E FC         [19] 5301 	sbc	a, -4 (ix)
    00002010 30 06            [12] 5302 	jr	NC, 00451$
    00002012 DD 4E FB         [19] 5303 	ld	c, -5 (ix)
    00002015 DD 46 FC         [19] 5304 	ld	b, -4 (ix)
    00002018                       5305 00451$:
                                   5306 ;E:\Dropbox\FAUSTO\SVILUPPI\MSX\CODE\C\MSXgl\projects\exsoccer/exsoccer_s1_b2.c:1013: if (gkTargetY > boxYMax) gkTargetY = boxYMax;
    00002018 DD 7E FD         [19] 5307 	ld	a, -3 (ix)
    0000201B 91               [ 4] 5308 	sub	a, c
    0000201C DD 7E FE         [19] 5309 	ld	a, -2 (ix)
    0000201F 98               [ 4] 5310 	sbc	a, b
    00002020 30 06            [12] 5311 	jr	NC, 00453$
    00002022 DD 4E FD         [19] 5312 	ld	c, -3 (ix)
    00002025 DD 46 FE         [19] 5313 	ld	b, -2 (ix)
    00002028                       5314 00453$:
                                   5315 ;E:\Dropbox\FAUSTO\SVILUPPI\MSX\CODE\C\MSXgl\projects\exsoccer/exsoccer_s1_b2.c:1015: g_Players[playerId].TargetX = gkTargetX;
    00002028 E1               [10] 5316 	pop	hl
    00002029 E5               [11] 5317 	push	hl
    0000202A 11 10 00         [10] 5318 	ld	de, #0x0010
    0000202D 19               [11] 5319 	add	hl, de
    0000202E DD 7E F9         [19] 5320 	ld	a, -7 (ix)
    00002031 77               [ 7] 5321 	ld	(hl), a
    00002032 23               [ 6] 5322 	inc	hl
    00002033 DD 7E FA         [19] 5323 	ld	a, -6 (ix)
    00002036 77               [ 7] 5324 	ld	(hl), a
                                   5325 ;E:\Dropbox\FAUSTO\SVILUPPI\MSX\CODE\C\MSXgl\projects\exsoccer/exsoccer_s1_b2.c:1016: g_Players[playerId].TargetY = gkTargetY;
    00002037 E1               [10] 5326 	pop	hl
    00002038 E5               [11] 5327 	push	hl
    00002039 11 0E 00         [10] 5328 	ld	de, #0x000e
    0000203C 19               [11] 5329 	add	hl, de
    0000203D 71               [ 7] 5330 	ld	(hl), c
    0000203E 23               [ 6] 5331 	inc	hl
    0000203F 70               [ 7] 5332 	ld	(hl), b
                                   5333 ;E:\Dropbox\FAUSTO\SVILUPPI\MSX\CODE\C\MSXgl\projects\exsoccer/exsoccer_s1_b2.c:1017: return; 
    00002040 C3rC0r27         [10] 5334 	jp	00609$
    00002043                       5335 00455$:
                                   5336 ;E:\Dropbox\FAUSTO\SVILUPPI\MSX\CODE\C\MSXgl\projects\exsoccer/exsoccer_s1_b2.c:1021: u8 playerClosesestToBallId = GetClosestPlayerToBall(playerTeamId, NO_VALUE);
    00002043 D5               [11] 5337 	push	de
    00002044 2E FF            [ 7] 5338 	ld	l, #0xff
                                   5339 ;	spillPairReg hl
                                   5340 ;	spillPairReg hl
    00002046 DD 7E DF         [19] 5341 	ld	a, -33 (ix)
    00002049 CDr00r00         [17] 5342 	call	_GetClosestPlayerToBall
    0000204C D1               [10] 5343 	pop	de
                                   5344 ;E:\Dropbox\FAUSTO\SVILUPPI\MSX\CODE\C\MSXgl\projects\exsoccer/exsoccer_s1_b2.c:1023: bool amIEffectiveChaser = (playerClosesestToBallId == playerId);
    0000204D DD 77 F6         [19] 5345 	ld	-10 (ix), a
    00002050 DD 96 FF         [19] 5346 	sub	a, -1 (ix)
    00002053 3E 01            [ 7] 5347 	ld	a, #0x01
    00002055 28 01            [12] 5348 	jr	Z, 01997$
    00002057 AF               [ 4] 5349 	xor	a, a
    00002058                       5350 01997$:
    00002058 DD 77 F7         [19] 5351 	ld	-9 (ix), a
                                   5352 ;E:\Dropbox\FAUSTO\SVILUPPI\MSX\CODE\C\MSXgl\projects\exsoccer/exsoccer_s1_b2.c:1025: if (g_Players[playerClosesestToBallId].Role == PLAYER_ROLE_GOALKEEPER) {
    0000205B DD 4E F6         [19] 5353 	ld	c, -10 (ix)
    0000205E 06 00            [ 7] 5354 	ld	b, #0x00
    00002060 69               [ 4] 5355 	ld	l, c
    00002061 60               [ 4] 5356 	ld	h, b
    00002062 29               [11] 5357 	add	hl, hl
    00002063 29               [11] 5358 	add	hl, hl
    00002064 09               [11] 5359 	add	hl, bc
    00002065 29               [11] 5360 	add	hl, hl
    00002066 29               [11] 5361 	add	hl, hl
    00002067 09               [11] 5362 	add	hl, bc
    00002068 01r00r00         [10] 5363 	ld	bc,#_g_Players
    0000206B 09               [11] 5364 	add	hl,bc
    0000206C DD 75 F8         [19] 5365 	ld	-8 (ix), l
    0000206F DD 74 F9         [19] 5366 	ld	-7 (ix), h
    00002072 01 0D 00         [10] 5367 	ld	bc,#13
    00002075 09               [11] 5368 	add	hl,bc
    00002076 46               [ 7] 5369 	ld	b, (hl)
    00002077 78               [ 4] 5370 	ld	a, b
    00002078 B7               [ 4] 5371 	or	a, a
    00002079 C2r03r21         [10] 5372 	jp	NZ, 00467$
                                   5373 ;E:\Dropbox\FAUSTO\SVILUPPI\MSX\CODE\C\MSXgl\projects\exsoccer/exsoccer_s1_b2.c:1026: u16 limitY = (playerTeamId == TEAM_1) ? GK_BOX_Y_BOTTOM_MIN : GK_BOX_Y_TOP_MAX;
    0000207C DD 7E DF         [19] 5374 	ld	a, -33 (ix)
    0000207F 3D               [ 4] 5375 	dec	a
    00002080 3E 01            [ 7] 5376 	ld	a, #0x01
    00002082 28 01            [12] 5377 	jr	Z, 01999$
    00002084 AF               [ 4] 5378 	xor	a, a
    00002085                       5379 01999$:
    00002085 B7               [ 4] 5380 	or	a, a
    00002086 28 06            [12] 5381 	jr	Z, 00640$
    00002088 01 95 01         [10] 5382 	ld	bc, #0x0195
    0000208B C3r91r20         [10] 5383 	jp	00641$
    0000208E                       5384 00640$:
    0000208E 01 4B 00         [10] 5385 	ld	bc, #0x004b
    00002091                       5386 00641$:
                                   5387 ;E:\Dropbox\FAUSTO\SVILUPPI\MSX\CODE\C\MSXgl\projects\exsoccer/exsoccer_s1_b2.c:1027: bool ballFar = false;
    00002091 DD 36 FA 00      [19] 5388 	ld	-6 (ix), #0x00
                                   5389 ;E:\Dropbox\FAUSTO\SVILUPPI\MSX\CODE\C\MSXgl\projects\exsoccer/exsoccer_s1_b2.c:1028: if (playerTeamId == TEAM_1 && g_Ball.Y < limitY - 10) ballFar = true;
    00002095 B7               [ 4] 5390 	or	a, a
    00002096 28 34            [12] 5391 	jr	Z, 00457$
    00002098 21r00r00         [10] 5392 	ld	hl, #_g_Ball
    0000209B 7E               [ 7] 5393 	ld	a, (hl)
    0000209C DD 77 FD         [19] 5394 	ld	-3 (ix), a
    0000209F 23               [ 6] 5395 	inc	hl
    000020A0 7E               [ 7] 5396 	ld	a, (hl)
    000020A1 DD 77 FE         [19] 5397 	ld	-2 (ix), a
    000020A4 DD 71 F4         [19] 5398 	ld	-12 (ix), c
    000020A7 DD 70 F5         [19] 5399 	ld	-11 (ix), b
    000020AA DD 7E F4         [19] 5400 	ld	a, -12 (ix)
    000020AD C6 F6            [ 7] 5401 	add	a, #0xf6
    000020AF DD 77 FB         [19] 5402 	ld	-5 (ix), a
    000020B2 DD 7E F5         [19] 5403 	ld	a, -11 (ix)
    000020B5 CE FF            [ 7] 5404 	adc	a, #0xff
    000020B7 DD 77 FC         [19] 5405 	ld	-4 (ix), a
    000020BA DD 7E FD         [19] 5406 	ld	a, -3 (ix)
    000020BD DD 96 FB         [19] 5407 	sub	a, -5 (ix)
    000020C0 DD 7E FE         [19] 5408 	ld	a, -2 (ix)
    000020C3 DD 9E FC         [19] 5409 	sbc	a, -4 (ix)
    000020C6 30 04            [12] 5410 	jr	NC, 00457$
    000020C8 DD 36 FA 01      [19] 5411 	ld	-6 (ix), #0x01
    000020CC                       5412 00457$:
                                   5413 ;E:\Dropbox\FAUSTO\SVILUPPI\MSX\CODE\C\MSXgl\projects\exsoccer/exsoccer_s1_b2.c:1029: if (playerTeamId == TEAM_2 && g_Ball.Y > limitY + 10) ballFar = true;
    000020CC DD 7E DF         [19] 5414 	ld	a, -33 (ix)
    000020CF D6 02            [ 7] 5415 	sub	a, #0x02
    000020D1 20 14            [12] 5416 	jr	NZ, 00460$
    000020D3 2Ar00r00         [16] 5417 	ld	hl, (#_g_Ball + 0)
    000020D6 79               [ 4] 5418 	ld	a, c
    000020D7 C6 0A            [ 7] 5419 	add	a, #0x0a
    000020D9 4F               [ 4] 5420 	ld	c, a
    000020DA 30 01            [12] 5421 	jr	NC, 02002$
    000020DC 04               [ 4] 5422 	inc	b
    000020DD                       5423 02002$:
    000020DD 79               [ 4] 5424 	ld	a, c
    000020DE 95               [ 4] 5425 	sub	a, l
    000020DF 78               [ 4] 5426 	ld	a, b
    000020E0 9C               [ 4] 5427 	sbc	a, h
    000020E1 30 04            [12] 5428 	jr	NC, 00460$
    000020E3 DD 36 FA 01      [19] 5429 	ld	-6 (ix), #0x01
    000020E7                       5430 00460$:
                                   5431 ;E:\Dropbox\FAUSTO\SVILUPPI\MSX\CODE\C\MSXgl\projects\exsoccer/exsoccer_s1_b2.c:1031: if (ballFar) {
    000020E7 DD 7E FA         [19] 5432 	ld	a, -6 (ix)
    000020EA B7               [ 4] 5433 	or	a, a
    000020EB 28 16            [12] 5434 	jr	Z, 00467$
                                   5435 ;E:\Dropbox\FAUSTO\SVILUPPI\MSX\CODE\C\MSXgl\projects\exsoccer/exsoccer_s1_b2.c:1032: u8 nextClosest = GetClosestPlayerToBall(playerTeamId, playerClosesestToBallId);
    000020ED D5               [11] 5436 	push	de
    000020EE DD 6E F6         [19] 5437 	ld	l, -10 (ix)
                                   5438 ;	spillPairReg hl
                                   5439 ;	spillPairReg hl
    000020F1 DD 7E DF         [19] 5440 	ld	a, -33 (ix)
    000020F4 CDr00r00         [17] 5441 	call	_GetClosestPlayerToBall
    000020F7 D1               [10] 5442 	pop	de
    000020F8 4F               [ 4] 5443 	ld	c, a
                                   5444 ;E:\Dropbox\FAUSTO\SVILUPPI\MSX\CODE\C\MSXgl\projects\exsoccer/exsoccer_s1_b2.c:1033: if (nextClosest == playerId) amIEffectiveChaser = true;
    000020F9 DD 7E FF         [19] 5445 	ld	a, -1 (ix)
    000020FC 91               [ 4] 5446 	sub	a, c
    000020FD 20 04            [12] 5447 	jr	NZ, 00467$
    000020FF DD 36 F7 01      [19] 5448 	ld	-9 (ix), #0x01
    00002103                       5449 00467$:
                                   5450 ;E:\Dropbox\FAUSTO\SVILUPPI\MSX\CODE\C\MSXgl\projects\exsoccer/exsoccer_s1_b2.c:1037: if (amIEffectiveChaser) {
    00002103 DD 7E F7         [19] 5451 	ld	a, -9 (ix)
    00002106 B7               [ 4] 5452 	or	a, a
    00002107 CArE6r22         [10] 5453 	jp	Z, 00594$
                                   5454 ;E:\Dropbox\FAUSTO\SVILUPPI\MSX\CODE\C\MSXgl\projects\exsoccer/exsoccer_s1_b2.c:1039: if (g_Ball.PossessionPlayerId == NO_VALUE) {
    0000210A 21r06r00         [10] 5455 	ld	hl, #_g_Ball + 6
    0000210D 5E               [ 7] 5456 	ld	e, (hl)
                                   5457 ;E:\Dropbox\FAUSTO\SVILUPPI\MSX\CODE\C\MSXgl\projects\exsoccer/exsoccer_s1_b2.c:1040: g_Players[playerId].TargetX = g_Ball.X;
    0000210E ED 4Br02r00      [20] 5458 	ld	bc, (#_g_Ball + 2)
                                   5459 ;E:\Dropbox\FAUSTO\SVILUPPI\MSX\CODE\C\MSXgl\projects\exsoccer/exsoccer_s1_b2.c:1039: if (g_Ball.PossessionPlayerId == NO_VALUE) {
    00002112 1C               [ 4] 5460 	inc	e
    00002113 20 21            [12] 5461 	jr	NZ, 00495$
                                   5462 ;E:\Dropbox\FAUSTO\SVILUPPI\MSX\CODE\C\MSXgl\projects\exsoccer/exsoccer_s1_b2.c:1040: g_Players[playerId].TargetX = g_Ball.X;
    00002115 E1               [10] 5463 	pop	hl
    00002116 E5               [11] 5464 	push	hl
    00002117 11 10 00         [10] 5465 	ld	de, #0x0010
    0000211A 19               [11] 5466 	add	hl, de
    0000211B 71               [ 7] 5467 	ld	(hl), c
    0000211C 23               [ 6] 5468 	inc	hl
    0000211D 70               [ 7] 5469 	ld	(hl), b
                                   5470 ;E:\Dropbox\FAUSTO\SVILUPPI\MSX\CODE\C\MSXgl\projects\exsoccer/exsoccer_s1_b2.c:1041: g_Players[playerId].TargetY = g_Ball.Y;
    0000211E DD 7E DD         [19] 5471 	ld	a, -35 (ix)
    00002121 C6 0E            [ 7] 5472 	add	a, #0x0e
    00002123 4F               [ 4] 5473 	ld	c, a
    00002124 DD 7E DE         [19] 5474 	ld	a, -34 (ix)
    00002127 CE 00            [ 7] 5475 	adc	a, #0x00
    00002129 47               [ 4] 5476 	ld	b, a
    0000212A ED 5Br00r00      [20] 5477 	ld	de, (#_g_Ball + 0)
    0000212E 7B               [ 4] 5478 	ld	a, e
    0000212F 02               [ 7] 5479 	ld	(bc), a
    00002130 03               [ 6] 5480 	inc	bc
    00002131 7A               [ 4] 5481 	ld	a, d
    00002132 02               [ 7] 5482 	ld	(bc), a
    00002133 C3rC0r27         [10] 5483 	jp	00609$
    00002136                       5484 00495$:
                                   5485 ;E:\Dropbox\FAUSTO\SVILUPPI\MSX\CODE\C\MSXgl\projects\exsoccer/exsoccer_s1_b2.c:1047: i16 dx = (i16)g_Players[playerId].X - (i16)g_Ball.X;
    00002136 E1               [10] 5486 	pop	hl
    00002137 E5               [11] 5487 	push	hl
    00002138 23               [ 6] 5488 	inc	hl
    00002139 23               [ 6] 5489 	inc	hl
    0000213A 5E               [ 7] 5490 	ld	e, (hl)
    0000213B 23               [ 6] 5491 	inc	hl
    0000213C 56               [ 7] 5492 	ld	d, (hl)
    0000213D 69               [ 4] 5493 	ld	l, c
                                   5494 ;	spillPairReg hl
                                   5495 ;	spillPairReg hl
    0000213E 60               [ 4] 5496 	ld	h, b
                                   5497 ;	spillPairReg hl
                                   5498 ;	spillPairReg hl
    0000213F 7B               [ 4] 5499 	ld	a, e
    00002140 95               [ 4] 5500 	sub	a, l
    00002141 5F               [ 4] 5501 	ld	e, a
    00002142 7A               [ 4] 5502 	ld	a, d
    00002143 9C               [ 4] 5503 	sbc	a, h
    00002144 57               [ 4] 5504 	ld	d, a
    00002145 DD 73 FA         [19] 5505 	ld	-6 (ix), e
    00002148 DD 72 FB         [19] 5506 	ld	-5 (ix), d
                                   5507 ;E:\Dropbox\FAUSTO\SVILUPPI\MSX\CODE\C\MSXgl\projects\exsoccer/exsoccer_s1_b2.c:1048: i16 dy = (i16)g_Players[playerId].Y - (i16)g_Ball.Y;
    0000214B E1               [10] 5508 	pop	hl
    0000214C E5               [11] 5509 	push	hl
    0000214D 5E               [ 7] 5510 	ld	e, (hl)
    0000214E 23               [ 6] 5511 	inc	hl
    0000214F 56               [ 7] 5512 	ld	d, (hl)
    00002150 21r00r00         [10] 5513 	ld	hl, #_g_Ball
    00002153 7E               [ 7] 5514 	ld	a, (hl)
    00002154 DD 77 FC         [19] 5515 	ld	-4 (ix), a
    00002157 23               [ 6] 5516 	inc	hl
    00002158 7E               [ 7] 5517 	ld	a, (hl)
    00002159 DD 77 FD         [19] 5518 	ld	-3 (ix), a
    0000215C DD 6E FC         [19] 5519 	ld	l, -4 (ix)
                                   5520 ;	spillPairReg hl
                                   5521 ;	spillPairReg hl
    0000215F DD 66 FD         [19] 5522 	ld	h, -3 (ix)
                                   5523 ;	spillPairReg hl
                                   5524 ;	spillPairReg hl
    00002162 7B               [ 4] 5525 	ld	a, e
    00002163 95               [ 4] 5526 	sub	a, l
    00002164 5F               [ 4] 5527 	ld	e, a
    00002165 7A               [ 4] 5528 	ld	a, d
    00002166 9C               [ 4] 5529 	sbc	a, h
    00002167 57               [ 4] 5530 	ld	d, a
                                   5531 ;E:\Dropbox\FAUSTO\SVILUPPI\MSX\CODE\C\MSXgl\projects\exsoccer/exsoccer_s1_b2.c:1049: if (dx > -12 && dx < 12 && dy > -12 && dy < 12) {
    00002168 3E F4            [ 7] 5532 	ld	a, #0xf4
    0000216A DD BE FA         [19] 5533 	cp	a, -6 (ix)
    0000216D 3E FF            [ 7] 5534 	ld	a, #0xff
    0000216F DD 9E FB         [19] 5535 	sbc	a, -5 (ix)
    00002172 E2r77r21         [10] 5536 	jp	PO, 02007$
    00002175 EE 80            [ 7] 5537 	xor	a, #0x80
    00002177                       5538 02007$:
    00002177 F2rE5r21         [10] 5539 	jp	P, 00479$
                                   5540 ;	spillPairReg hl
                                   5541 ;	spillPairReg hl
                                   5542 ;	spillPairReg hl
                                   5543 ;	spillPairReg hl
    0000217A DD 7E FA         [19] 5544 	ld	a, -6 (ix)
    0000217D DD 66 FB         [19] 5545 	ld	h, -5 (ix)
    00002180 D6 0C            [ 7] 5546 	sub	a, #0x0c
    00002182 7C               [ 4] 5547 	ld	a, h
    00002183 17               [ 4] 5548 	rla
    00002184 3F               [ 4] 5549 	ccf
    00002185 1F               [ 4] 5550 	rra
    00002186 DE 80            [ 7] 5551 	sbc	a, #0x80
    00002188 30 5B            [12] 5552 	jr	NC, 00479$
    0000218A 3E F4            [ 7] 5553 	ld	a, #0xf4
    0000218C BB               [ 4] 5554 	cp	a, e
    0000218D 3E FF            [ 7] 5555 	ld	a, #0xff
    0000218F 9A               [ 4] 5556 	sbc	a, d
    00002190 E2r95r21         [10] 5557 	jp	PO, 02008$
    00002193 EE 80            [ 7] 5558 	xor	a, #0x80
    00002195                       5559 02008$:
    00002195 F2rE5r21         [10] 5560 	jp	P, 00479$
    00002198 7B               [ 4] 5561 	ld	a, e
    00002199 D6 0C            [ 7] 5562 	sub	a, #0x0c
    0000219B 7A               [ 4] 5563 	ld	a, d
    0000219C 17               [ 4] 5564 	rla
    0000219D 3F               [ 4] 5565 	ccf
    0000219E 1F               [ 4] 5566 	rra
    0000219F DE 80            [ 7] 5567 	sbc	a, #0x80
    000021A1 30 42            [12] 5568 	jr	NC, 00479$
                                   5569 ;E:\Dropbox\FAUSTO\SVILUPPI\MSX\CODE\C\MSXgl\projects\exsoccer/exsoccer_s1_b2.c:1054: bool isHumanControlled = false;
    000021A3 DD 36 FE 00      [19] 5570 	ld	-2 (ix), #0x00
                                   5571 ;E:\Dropbox\FAUSTO\SVILUPPI\MSX\CODE\C\MSXgl\projects\exsoccer/exsoccer_s1_b2.c:1055: if ((playerTeamId == TEAM_1 && g_Team1ActivePlayer == playerId) || 
    000021A7 DD 7E DF         [19] 5572 	ld	a, -33 (ix)
    000021AA 3D               [ 4] 5573 	dec	a
    000021AB 20 08            [12] 5574 	jr	NZ, 00473$
    000021AD 3Ar00r00         [13] 5575 	ld	a, (_g_Team1ActivePlayer+0)
    000021B0 DD 96 FF         [19] 5576 	sub	a, -1 (ix)
    000021B3 28 15            [12] 5577 	jr	Z, 00468$
    000021B5                       5578 00473$:
                                   5579 ;E:\Dropbox\FAUSTO\SVILUPPI\MSX\CODE\C\MSXgl\projects\exsoccer/exsoccer_s1_b2.c:1056: (playerTeamId == TEAM_2 && g_GameWith2Players && g_Team2ActivePlayer == playerId)) {
    000021B5 DD 7E DF         [19] 5580 	ld	a, -33 (ix)
    000021B8 D6 02            [ 7] 5581 	sub	a, #0x02
    000021BA 20 12            [12] 5582 	jr	NZ, 00469$
    000021BC 3Ar00r00         [13] 5583 	ld	a, (_g_GameWith2Players+0)
    000021BF B7               [ 4] 5584 	or	a, a
    000021C0 28 0C            [12] 5585 	jr	Z, 00469$
    000021C2 3Ar00r00         [13] 5586 	ld	a, (_g_Team2ActivePlayer+0)
    000021C5 DD 96 FF         [19] 5587 	sub	a, -1 (ix)
    000021C8 20 04            [12] 5588 	jr	NZ, 00469$
    000021CA                       5589 00468$:
                                   5590 ;E:\Dropbox\FAUSTO\SVILUPPI\MSX\CODE\C\MSXgl\projects\exsoccer/exsoccer_s1_b2.c:1057: isHumanControlled = true;
    000021CA DD 36 FE 01      [19] 5591 	ld	-2 (ix), #0x01
    000021CE                       5592 00469$:
                                   5593 ;E:\Dropbox\FAUSTO\SVILUPPI\MSX\CODE\C\MSXgl\projects\exsoccer/exsoccer_s1_b2.c:1060: if (!isHumanControlled) {
    000021CE DD 7E FE         [19] 5594 	ld	a, -2 (ix)
    000021D1 B7               [ 4] 5595 	or	a, a
    000021D2 20 11            [12] 5596 	jr	NZ, 00479$
                                   5597 ;E:\Dropbox\FAUSTO\SVILUPPI\MSX\CODE\C\MSXgl\projects\exsoccer/exsoccer_s1_b2.c:1063: if ((g_FrameCounter % 4) == 0) {
    000021D4 2Ar00r00         [16] 5598 	ld	hl, (_g_FrameCounter)
    000021D7 7D               [ 4] 5599 	ld	a, l
    000021D8 E6 03            [ 7] 5600 	and	a, #0x03
    000021DA 20 09            [12] 5601 	jr	NZ, 00479$
                                   5602 ;E:\Dropbox\FAUSTO\SVILUPPI\MSX\CODE\C\MSXgl\projects\exsoccer/exsoccer_s1_b2.c:1064: PutBallOnPlayerFeet(playerId);
    000021DC DD 7E FF         [19] 5603 	ld	a, -1 (ix)
    000021DF CDrC5r27         [17] 5604 	call	_PutBallOnPlayerFeet
                                   5605 ;E:\Dropbox\FAUSTO\SVILUPPI\MSX\CODE\C\MSXgl\projects\exsoccer/exsoccer_s1_b2.c:1065: return;
    000021E2 C3rC0r27         [10] 5606 	jp	00609$
    000021E5                       5607 00479$:
                                   5608 ;E:\Dropbox\FAUSTO\SVILUPPI\MSX\CODE\C\MSXgl\projects\exsoccer/exsoccer_s1_b2.c:1072: i16 targetX = g_Ball.X;
                                   5609 ;E:\Dropbox\FAUSTO\SVILUPPI\MSX\CODE\C\MSXgl\projects\exsoccer/exsoccer_s1_b2.c:1073: i16 targetY = g_Ball.Y;
    000021E5 DD 7E FC         [19] 5610 	ld	a, -4 (ix)
    000021E8 DD 5E FD         [19] 5611 	ld	e, -3 (ix)
    000021EB DD 77 FD         [19] 5612 	ld	-3 (ix), a
    000021EE DD 73 FE         [19] 5613 	ld	-2 (ix), e
                                   5614 ;E:\Dropbox\FAUSTO\SVILUPPI\MSX\CODE\C\MSXgl\projects\exsoccer/exsoccer_s1_b2.c:1075: if (g_Ball.KickMoveState != 0) {
    000021F1 3Ar0Dr00         [13] 5615 	ld	a, (#_g_Ball + 13)
    000021F4 B7               [ 4] 5616 	or	a, a
    000021F5 CArCBr22         [10] 5617 	jp	Z, 00493$
                                   5618 ;E:\Dropbox\FAUSTO\SVILUPPI\MSX\CODE\C\MSXgl\projects\exsoccer/exsoccer_s1_b2.c:1077: switch(g_Ball.Direction) {
    000021F8 21r05r00         [10] 5619 	ld	hl, #_g_Ball + 5
    000021FB 5E               [ 7] 5620 	ld	e, (hl)
    000021FC 3E 08            [ 7] 5621 	ld	a, #0x08
    000021FE 93               [ 4] 5622 	sub	a, e
    000021FF DArCBr22         [10] 5623 	jp	C, 00493$
    00002202 16 00            [ 7] 5624 	ld	d, #0x00
    00002204 21r0Br22         [10] 5625 	ld	hl, #02018$
    00002207 19               [11] 5626 	add	hl, de
    00002208 19               [11] 5627 	add	hl, de
    00002209 19               [11] 5628 	add	hl, de
    0000220A E9               [ 4] 5629 	jp	(hl)
    0000220B                       5630 02018$:
    0000220B C3rCBr22         [10] 5631 	jp	00493$
    0000220E C3r26r22         [10] 5632 	jp	00483$
    00002211 C3r62r22         [10] 5633 	jp	00487$
    00002214 C3r59r22         [10] 5634 	jp	00486$
    00002217 C3r9Ar22         [10] 5635 	jp	00489$
    0000221A C3r3Br22         [10] 5636 	jp	00484$
    0000221D C3rB3r22         [10] 5637 	jp	00490$
    00002220 C3r4Er22         [10] 5638 	jp	00485$
    00002223 C3r7Dr22         [10] 5639 	jp	00488$
                                   5640 ;E:\Dropbox\FAUSTO\SVILUPPI\MSX\CODE\C\MSXgl\projects\exsoccer/exsoccer_s1_b2.c:1078: case DIRECTION_UP: targetY -= 16; break;
    00002226                       5641 00483$:
    00002226 DD 7E FD         [19] 5642 	ld	a, -3 (ix)
    00002229 DD 56 FE         [19] 5643 	ld	d, -2 (ix)
    0000222C C6 F0            [ 7] 5644 	add	a, #0xf0
    0000222E 5F               [ 4] 5645 	ld	e, a
    0000222F 7A               [ 4] 5646 	ld	a, d
    00002230 CE FF            [ 7] 5647 	adc	a, #0xff
    00002232 DD 73 FD         [19] 5648 	ld	-3 (ix), e
    00002235 DD 77 FE         [19] 5649 	ld	-2 (ix), a
    00002238 C3rCBr22         [10] 5650 	jp	00493$
                                   5651 ;E:\Dropbox\FAUSTO\SVILUPPI\MSX\CODE\C\MSXgl\projects\exsoccer/exsoccer_s1_b2.c:1079: case DIRECTION_DOWN: targetY += 16; break;
    0000223B                       5652 00484$:
    0000223B DD 5E FD         [19] 5653 	ld	e, -3 (ix)
    0000223E DD 56 FE         [19] 5654 	ld	d, -2 (ix)
    00002241 21 10 00         [10] 5655 	ld	hl, #0x0010
    00002244 19               [11] 5656 	add	hl, de
    00002245 DD 75 FD         [19] 5657 	ld	-3 (ix), l
    00002248 DD 74 FE         [19] 5658 	ld	-2 (ix), h
    0000224B C3rCBr22         [10] 5659 	jp	00493$
                                   5660 ;E:\Dropbox\FAUSTO\SVILUPPI\MSX\CODE\C\MSXgl\projects\exsoccer/exsoccer_s1_b2.c:1080: case DIRECTION_LEFT: targetX -= 16; break;
    0000224E                       5661 00485$:
    0000224E 79               [ 4] 5662 	ld	a, c
    0000224F C6 F0            [ 7] 5663 	add	a, #0xf0
    00002251 4F               [ 4] 5664 	ld	c, a
    00002252 78               [ 4] 5665 	ld	a, b
    00002253 CE FF            [ 7] 5666 	adc	a, #0xff
    00002255 47               [ 4] 5667 	ld	b, a
    00002256 C3rCBr22         [10] 5668 	jp	00493$
                                   5669 ;E:\Dropbox\FAUSTO\SVILUPPI\MSX\CODE\C\MSXgl\projects\exsoccer/exsoccer_s1_b2.c:1081: case DIRECTION_RIGHT: targetX += 16; break;
    00002259                       5670 00486$:
    00002259 21 10 00         [10] 5671 	ld	hl, #0x0010
    0000225C 09               [11] 5672 	add	hl, bc
    0000225D 4D               [ 4] 5673 	ld	c, l
    0000225E 44               [ 4] 5674 	ld	b, h
    0000225F C3rCBr22         [10] 5675 	jp	00493$
                                   5676 ;E:\Dropbox\FAUSTO\SVILUPPI\MSX\CODE\C\MSXgl\projects\exsoccer/exsoccer_s1_b2.c:1082: case DIRECTION_UP_RIGHT: targetY -= 12; targetX += 12; break;
    00002262                       5677 00487$:
    00002262 DD 7E FD         [19] 5678 	ld	a, -3 (ix)
    00002265 DD 56 FE         [19] 5679 	ld	d, -2 (ix)
    00002268 C6 F4            [ 7] 5680 	add	a, #0xf4
    0000226A 5F               [ 4] 5681 	ld	e, a
    0000226B 7A               [ 4] 5682 	ld	a, d
    0000226C CE FF            [ 7] 5683 	adc	a, #0xff
    0000226E DD 73 FD         [19] 5684 	ld	-3 (ix), e
    00002271 DD 77 FE         [19] 5685 	ld	-2 (ix), a
    00002274 21 0C 00         [10] 5686 	ld	hl, #0x000c
    00002277 09               [11] 5687 	add	hl, bc
    00002278 4D               [ 4] 5688 	ld	c, l
    00002279 44               [ 4] 5689 	ld	b, h
    0000227A C3rCBr22         [10] 5690 	jp	00493$
                                   5691 ;E:\Dropbox\FAUSTO\SVILUPPI\MSX\CODE\C\MSXgl\projects\exsoccer/exsoccer_s1_b2.c:1083: case DIRECTION_UP_LEFT: targetY -= 12; targetX -= 12; break;
    0000227D                       5692 00488$:
    0000227D DD 7E FD         [19] 5693 	ld	a, -3 (ix)
    00002280 DD 56 FE         [19] 5694 	ld	d, -2 (ix)
    00002283 C6 F4            [ 7] 5695 	add	a, #0xf4
    00002285 5F               [ 4] 5696 	ld	e, a
    00002286 7A               [ 4] 5697 	ld	a, d
    00002287 CE FF            [ 7] 5698 	adc	a, #0xff
    00002289 DD 73 FD         [19] 5699 	ld	-3 (ix), e
    0000228C DD 77 FE         [19] 5700 	ld	-2 (ix), a
    0000228F 79               [ 4] 5701 	ld	a, c
    00002290 C6 F4            [ 7] 5702 	add	a, #0xf4
    00002292 4F               [ 4] 5703 	ld	c, a
    00002293 78               [ 4] 5704 	ld	a, b
    00002294 CE FF            [ 7] 5705 	adc	a, #0xff
    00002296 47               [ 4] 5706 	ld	b, a
    00002297 C3rCBr22         [10] 5707 	jp	00493$
                                   5708 ;E:\Dropbox\FAUSTO\SVILUPPI\MSX\CODE\C\MSXgl\projects\exsoccer/exsoccer_s1_b2.c:1084: case DIRECTION_DOWN_RIGHT: targetY += 12; targetX += 12; break;
    0000229A                       5709 00489$:
    0000229A DD 5E FD         [19] 5710 	ld	e, -3 (ix)
    0000229D DD 56 FE         [19] 5711 	ld	d, -2 (ix)
    000022A0 21 0C 00         [10] 5712 	ld	hl, #0x000c
    000022A3 19               [11] 5713 	add	hl, de
    000022A4 DD 75 FD         [19] 5714 	ld	-3 (ix), l
    000022A7 DD 74 FE         [19] 5715 	ld	-2 (ix), h
    000022AA 21 0C 00         [10] 5716 	ld	hl, #0x000c
    000022AD 09               [11] 5717 	add	hl, bc
    000022AE 4D               [ 4] 5718 	ld	c, l
    000022AF 44               [ 4] 5719 	ld	b, h
    000022B0 C3rCBr22         [10] 5720 	jp	00493$
                                   5721 ;E:\Dropbox\FAUSTO\SVILUPPI\MSX\CODE\C\MSXgl\projects\exsoccer/exsoccer_s1_b2.c:1085: case DIRECTION_DOWN_LEFT: targetY += 12; targetX -= 12; break;
    000022B3                       5722 00490$:
    000022B3 DD 5E FD         [19] 5723 	ld	e, -3 (ix)
    000022B6 DD 56 FE         [19] 5724 	ld	d, -2 (ix)
    000022B9 21 0C 00         [10] 5725 	ld	hl, #0x000c
    000022BC 19               [11] 5726 	add	hl, de
    000022BD DD 75 FD         [19] 5727 	ld	-3 (ix), l
    000022C0 DD 74 FE         [19] 5728 	ld	-2 (ix), h
    000022C3 79               [ 4] 5729 	ld	a, c
    000022C4 C6 F4            [ 7] 5730 	add	a, #0xf4
    000022C6 4F               [ 4] 5731 	ld	c, a
    000022C7 78               [ 4] 5732 	ld	a, b
    000022C8 CE FF            [ 7] 5733 	adc	a, #0xff
    000022CA 47               [ 4] 5734 	ld	b, a
                                   5735 ;E:\Dropbox\FAUSTO\SVILUPPI\MSX\CODE\C\MSXgl\projects\exsoccer/exsoccer_s1_b2.c:1086: }
    000022CB                       5736 00493$:
                                   5737 ;E:\Dropbox\FAUSTO\SVILUPPI\MSX\CODE\C\MSXgl\projects\exsoccer/exsoccer_s1_b2.c:1088: g_Players[playerId].TargetX = targetX;
    000022CB E1               [10] 5738 	pop	hl
    000022CC E5               [11] 5739 	push	hl
    000022CD 11 10 00         [10] 5740 	ld	de, #0x0010
    000022D0 19               [11] 5741 	add	hl, de
    000022D1 71               [ 7] 5742 	ld	(hl), c
    000022D2 23               [ 6] 5743 	inc	hl
    000022D3 70               [ 7] 5744 	ld	(hl), b
                                   5745 ;E:\Dropbox\FAUSTO\SVILUPPI\MSX\CODE\C\MSXgl\projects\exsoccer/exsoccer_s1_b2.c:1089: g_Players[playerId].TargetY = targetY;
    000022D4 E1               [10] 5746 	pop	hl
    000022D5 E5               [11] 5747 	push	hl
    000022D6 11 0E 00         [10] 5748 	ld	de, #0x000e
    000022D9 19               [11] 5749 	add	hl, de
    000022DA DD 7E FD         [19] 5750 	ld	a, -3 (ix)
    000022DD 77               [ 7] 5751 	ld	(hl), a
    000022DE 23               [ 6] 5752 	inc	hl
    000022DF DD 7E FE         [19] 5753 	ld	a, -2 (ix)
    000022E2 77               [ 7] 5754 	ld	(hl), a
    000022E3 C3rC0r27         [10] 5755 	jp	00609$
    000022E6                       5756 00594$:
                                   5757 ;E:\Dropbox\FAUSTO\SVILUPPI\MSX\CODE\C\MSXgl\projects\exsoccer/exsoccer_s1_b2.c:1094: u16 defGoalY = (playerTeamId == TEAM_1) ? FIELD_BOUND_Y_BOTTOM : FIELD_BOUND_Y_TOP;
    000022E6 DD 7E DF         [19] 5758 	ld	a, -33 (ix)
    000022E9 3D               [ 4] 5759 	dec	a
    000022EA 3E 01            [ 7] 5760 	ld	a, #0x01
    000022EC 28 01            [12] 5761 	jr	Z, 02020$
    000022EE AF               [ 4] 5762 	xor	a, a
    000022EF                       5763 02020$:
    000022EF 4F               [ 4] 5764 	ld	c, a
                                   5765 ;E:\Dropbox\FAUSTO\SVILUPPI\MSX\CODE\C\MSXgl\projects\exsoccer/exsoccer_s1_b2.c:1095: bool chaserBeaten = false;
    000022F0 DD 36 FE 00      [19] 5766 	ld	-2 (ix), #0x00
                                   5767 ;E:\Dropbox\FAUSTO\SVILUPPI\MSX\CODE\C\MSXgl\projects\exsoccer/exsoccer_s1_b2.c:1096: bool opponentHasBall = (g_Ball.PossessionPlayerId != NO_VALUE && g_Players[g_Ball.PossessionPlayerId].TeamId != playerTeamId);
    000022F4 3Ar06r00         [13] 5768 	ld	a, (#_g_Ball + 6)
    000022F7 FE FF            [ 7] 5769 	cp	a, #0xff
    000022F9 28 1D            [12] 5770 	jr	Z, 00644$
    000022FB D5               [11] 5771 	push	de
    000022FC 5F               [ 4] 5772 	ld	e, a
    000022FD 16 00            [ 7] 5773 	ld	d, #0x00
    000022FF 6B               [ 4] 5774 	ld	l, e
    00002300 62               [ 4] 5775 	ld	h, d
    00002301 29               [11] 5776 	add	hl, hl
    00002302 29               [11] 5777 	add	hl, hl
    00002303 19               [11] 5778 	add	hl, de
    00002304 29               [11] 5779 	add	hl, hl
    00002305 29               [11] 5780 	add	hl, hl
    00002306 19               [11] 5781 	add	hl, de
    00002307 11r00r00         [10] 5782 	ld	de, #_g_Players
    0000230A 19               [11] 5783 	add	hl, de
    0000230B D1               [10] 5784 	pop	de
    0000230C C5               [11] 5785 	push	bc
    0000230D 01 09 00         [10] 5786 	ld	bc, #0x0009
    00002310 09               [11] 5787 	add	hl, bc
    00002311 C1               [10] 5788 	pop	bc
    00002312 DD 7E DF         [19] 5789 	ld	a,-33 (ix)
    00002315 96               [ 7] 5790 	sub	a,(hl)
    00002316 20 04            [12] 5791 	jr	NZ, 00645$
    00002318                       5792 00644$:
    00002318 AF               [ 4] 5793 	xor	a, a
    00002319 C3r1Er23         [10] 5794 	jp	00646$
    0000231C                       5795 00645$:
    0000231C 3E 01            [ 7] 5796 	ld	a, #0x01
    0000231E                       5797 00646$:
    0000231E 47               [ 4] 5798 	ld	b, a
                                   5799 ;E:\Dropbox\FAUSTO\SVILUPPI\MSX\CODE\C\MSXgl\projects\exsoccer/exsoccer_s1_b2.c:1098: if (opponentHasBall && playerClosesestToBallId != NO_VALUE) {
    0000231F B7               [ 4] 5800 	or	a, a
    00002320 28 4C            [12] 5801 	jr	Z, 00505$
    00002322 DD 7E F6         [19] 5802 	ld	a, -10 (ix)
    00002325 3C               [ 4] 5803 	inc	a
    00002326 28 46            [12] 5804 	jr	Z, 00505$
                                   5805 ;E:\Dropbox\FAUSTO\SVILUPPI\MSX\CODE\C\MSXgl\projects\exsoccer/exsoccer_s1_b2.c:1099: u16 chaserY = g_Players[playerClosesestToBallId].Y;
    00002328 DD 6E F8         [19] 5806 	ld	l, -8 (ix)
    0000232B DD 66 F9         [19] 5807 	ld	h, -7 (ix)
    0000232E 7E               [ 7] 5808 	ld	a, (hl)
    0000232F DD 77 FC         [19] 5809 	ld	-4 (ix), a
    00002332 23               [ 6] 5810 	inc	hl
    00002333 7E               [ 7] 5811 	ld	a, (hl)
    00002334 DD 77 FD         [19] 5812 	ld	-3 (ix), a
                                   5813 ;E:\Dropbox\FAUSTO\SVILUPPI\MSX\CODE\C\MSXgl\projects\exsoccer/exsoccer_s1_b2.c:1100: if (playerTeamId == TEAM_1) { if (g_Ball.Y > chaserY) chaserBeaten = true; } 
    00002337 21r00r00         [10] 5814 	ld	hl, #_g_Ball
    0000233A 7E               [ 7] 5815 	ld	a, (hl)
    0000233B DD 77 FA         [19] 5816 	ld	-6 (ix), a
    0000233E 23               [ 6] 5817 	inc	hl
    0000233F 7E               [ 7] 5818 	ld	a, (hl)
    00002340 DD 77 FB         [19] 5819 	ld	-5 (ix), a
    00002343 79               [ 4] 5820 	ld	a, c
    00002344 B7               [ 4] 5821 	or	a, a
    00002345 28 15            [12] 5822 	jr	Z, 00502$
    00002347 DD 7E FC         [19] 5823 	ld	a, -4 (ix)
    0000234A DD 96 FA         [19] 5824 	sub	a, -6 (ix)
    0000234D DD 7E FD         [19] 5825 	ld	a, -3 (ix)
    00002350 DD 9E FB         [19] 5826 	sbc	a, -5 (ix)
    00002353 30 19            [12] 5827 	jr	NC, 00505$
    00002355 DD 36 FE 01      [19] 5828 	ld	-2 (ix), #0x01
    00002359 C3r6Er23         [10] 5829 	jp	00505$
    0000235C                       5830 00502$:
                                   5831 ;E:\Dropbox\FAUSTO\SVILUPPI\MSX\CODE\C\MSXgl\projects\exsoccer/exsoccer_s1_b2.c:1101: else { if (g_Ball.Y < chaserY) chaserBeaten = true; }
    0000235C DD 7E FA         [19] 5832 	ld	a, -6 (ix)
    0000235F DD 96 FC         [19] 5833 	sub	a, -4 (ix)
    00002362 DD 7E FB         [19] 5834 	ld	a, -5 (ix)
    00002365 DD 9E FD         [19] 5835 	sbc	a, -3 (ix)
    00002368 30 04            [12] 5836 	jr	NC, 00505$
    0000236A DD 36 FE 01      [19] 5837 	ld	-2 (ix), #0x01
    0000236E                       5838 00505$:
                                   5839 ;E:\Dropbox\FAUSTO\SVILUPPI\MSX\CODE\C\MSXgl\projects\exsoccer/exsoccer_s1_b2.c:1104: if (opponentHasBall && chaserBeaten) {
    0000236E 78               [ 4] 5840 	ld	a, b
    0000236F B7               [ 4] 5841 	or	a, a
    00002370 28 52            [12] 5842 	jr	Z, 00571$
    00002372 DD 7E FE         [19] 5843 	ld	a, -2 (ix)
    00002375 B7               [ 4] 5844 	or	a, a
    00002376 28 4C            [12] 5845 	jr	Z, 00571$
                                   5846 ;E:\Dropbox\FAUSTO\SVILUPPI\MSX\CODE\C\MSXgl\projects\exsoccer/exsoccer_s1_b2.c:1105: g_Players[playerId].TargetX = g_Ball.X;
    00002378 DD 7E DD         [19] 5847 	ld	a, -35 (ix)
    0000237B C6 10            [ 7] 5848 	add	a, #0x10
    0000237D DD 77 FD         [19] 5849 	ld	-3 (ix), a
    00002380 DD 7E DE         [19] 5850 	ld	a, -34 (ix)
    00002383 CE 00            [ 7] 5851 	adc	a, #0x00
    00002385 DD 77 FE         [19] 5852 	ld	-2 (ix), a
    00002388 ED 5Br02r00      [20] 5853 	ld	de, (#_g_Ball + 2)
    0000238C DD 6E FD         [19] 5854 	ld	l, -3 (ix)
    0000238F DD 66 FE         [19] 5855 	ld	h, -2 (ix)
    00002392 73               [ 7] 5856 	ld	(hl), e
    00002393 23               [ 6] 5857 	inc	hl
    00002394 72               [ 7] 5858 	ld	(hl), d
                                   5859 ;E:\Dropbox\FAUSTO\SVILUPPI\MSX\CODE\C\MSXgl\projects\exsoccer/exsoccer_s1_b2.c:841: g_Players[playerId].TargetY = finalTargetY;
    00002395 DD 7E DD         [19] 5860 	ld	a, -35 (ix)
    00002398 C6 0E            [ 7] 5861 	add	a, #0x0e
    0000239A 5F               [ 4] 5862 	ld	e, a
    0000239B DD 7E DE         [19] 5863 	ld	a, -34 (ix)
    0000239E CE 00            [ 7] 5864 	adc	a, #0x00
    000023A0 57               [ 4] 5865 	ld	d, a
                                   5866 ;E:\Dropbox\FAUSTO\SVILUPPI\MSX\CODE\C\MSXgl\projects\exsoccer/exsoccer_s1_b2.c:1100: if (playerTeamId == TEAM_1) { if (g_Ball.Y > chaserY) chaserBeaten = true; } 
    000023A1 2Ar00r00         [16] 5867 	ld	hl, (#_g_Ball + 0)
                                   5868 ;E:\Dropbox\FAUSTO\SVILUPPI\MSX\CODE\C\MSXgl\projects\exsoccer/exsoccer_s1_b2.c:1106: if (playerTeamId == TEAM_1) g_Players[playerId].TargetY = g_Ball.Y + 15;
    000023A4 79               [ 4] 5869 	ld	a, c
    000023A5 B7               [ 4] 5870 	or	a, a
    000023A6 28 0E            [12] 5871 	jr	Z, 00508$
    000023A8 01 0F 00         [10] 5872 	ld	bc, #0x000f
    000023AB 09               [11] 5873 	add	hl, bc
    000023AC 4D               [ 4] 5874 	ld	c, l
    000023AD 44               [ 4] 5875 	ld	b, h
    000023AE 79               [ 4] 5876 	ld	a, c
    000023AF 12               [ 7] 5877 	ld	(de), a
    000023B0 13               [ 6] 5878 	inc	de
    000023B1 78               [ 4] 5879 	ld	a, b
    000023B2 12               [ 7] 5880 	ld	(de), a
    000023B3 C3r65r26         [10] 5881 	jp	00894$
    000023B6                       5882 00508$:
                                   5883 ;E:\Dropbox\FAUSTO\SVILUPPI\MSX\CODE\C\MSXgl\projects\exsoccer/exsoccer_s1_b2.c:1107: else g_Players[playerId].TargetY = g_Ball.Y - 15;
    000023B6 01 F1 FF         [10] 5884 	ld	bc, #0xfff1
    000023B9 09               [11] 5885 	add	hl,bc
    000023BA 4D               [ 4] 5886 	ld	c, l
    000023BB 44               [ 4] 5887 	ld	b, h
    000023BC 79               [ 4] 5888 	ld	a, c
    000023BD 12               [ 7] 5889 	ld	(de), a
    000023BE 13               [ 6] 5890 	inc	de
    000023BF 78               [ 4] 5891 	ld	a, b
    000023C0 12               [ 7] 5892 	ld	(de), a
    000023C1 C3r65r26         [10] 5893 	jp	00894$
    000023C4                       5894 00571$:
                                   5895 ;E:\Dropbox\FAUSTO\SVILUPPI\MSX\CODE\C\MSXgl\projects\exsoccer/exsoccer_s1_b2.c:983: if (g_Players[playerId].Role == PLAYER_ROLE_GOALKEEPER) {
    000023C4 1A               [ 7] 5896 	ld	a, (de)
                                   5897 ;E:\Dropbox\FAUSTO\SVILUPPI\MSX\CODE\C\MSXgl\projects\exsoccer/exsoccer_s1_b2.c:1111: if (g_Players[playerId].Role >= PLAYER_ROLE_LEFT_STRIKER) {
    000023C5 47               [ 4] 5898 	ld	b, a
    000023C6 D6 05            [ 7] 5899 	sub	a, #0x05
    000023C8 3E 00            [ 7] 5900 	ld	a, #0x00
    000023CA 17               [ 4] 5901 	rla
    000023CB DD 77 FE         [19] 5902 	ld	-2 (ix), a
                                   5903 ;E:\Dropbox\FAUSTO\SVILUPPI\MSX\CODE\C\MSXgl\projects\exsoccer/exsoccer_s1_b2.c:1110: if (playerTeamId == TEAM_1) { // Defend Bottom (High Y)
    000023CE 79               [ 4] 5904 	ld	a, c
    000023CF B7               [ 4] 5905 	or	a, a
    000023D0 CArB8r24         [10] 5906 	jp	Z, 00555$
                                   5907 ;E:\Dropbox\FAUSTO\SVILUPPI\MSX\CODE\C\MSXgl\projects\exsoccer/exsoccer_s1_b2.c:1111: if (g_Players[playerId].Role >= PLAYER_ROLE_LEFT_STRIKER) {
    000023D3 DD CB FE 46      [20] 5908 	bit	0, -2 (ix)
    000023D7 20 0E            [12] 5909 	jr	NZ, 00530$
                                   5910 ;E:\Dropbox\FAUSTO\SVILUPPI\MSX\CODE\C\MSXgl\projects\exsoccer/exsoccer_s1_b2.c:1113: g_Players[playerId].TargetY = FIELD_POS_Y_CENTER;
    000023D9 E1               [10] 5911 	pop	hl
    000023DA E5               [11] 5912 	push	hl
    000023DB 01 0E 00         [10] 5913 	ld	bc, #0x000e
    000023DE 09               [11] 5914 	add	hl, bc
    000023DF 36 F3            [10] 5915 	ld	(hl), #0xf3
    000023E1 23               [ 6] 5916 	inc	hl
    000023E2 36 00            [10] 5917 	ld	(hl), #0x00
    000023E4 C3r9Cr25         [10] 5918 	jp	00556$
    000023E7                       5919 00530$:
                                   5920 ;E:\Dropbox\FAUSTO\SVILUPPI\MSX\CODE\C\MSXgl\projects\exsoccer/exsoccer_s1_b2.c:1115: else if (g_Players[playerId].Role >= PLAYER_ROLE_LEFT_HALFFIELDER) {
    000023E7 78               [ 4] 5921 	ld	a, b
    000023E8 D6 03            [ 7] 5922 	sub	a, #0x03
    000023EA 38 0E            [12] 5923 	jr	C, 00527$
                                   5924 ;E:\Dropbox\FAUSTO\SVILUPPI\MSX\CODE\C\MSXgl\projects\exsoccer/exsoccer_s1_b2.c:1117: g_Players[playerId].TargetY = 318; 
    000023EC E1               [10] 5925 	pop	hl
    000023ED E5               [11] 5926 	push	hl
    000023EE 01 0E 00         [10] 5927 	ld	bc, #0x000e
    000023F1 09               [11] 5928 	add	hl, bc
    000023F2 36 3E            [10] 5929 	ld	(hl), #0x3e
    000023F4 23               [ 6] 5930 	inc	hl
    000023F5 36 01            [10] 5931 	ld	(hl), #0x01
    000023F7 C3r9Cr25         [10] 5932 	jp	00556$
    000023FA                       5933 00527$:
                                   5934 ;E:\Dropbox\FAUSTO\SVILUPPI\MSX\CODE\C\MSXgl\projects\exsoccer/exsoccer_s1_b2.c:1122: u16 defenseLineY = 350;
    000023FA DD 36 F8 5E      [19] 5935 	ld	-8 (ix), #0x5e
    000023FE DD 36 F9 01      [19] 5936 	ld	-7 (ix), #0x01
                                   5937 ;E:\Dropbox\FAUSTO\SVILUPPI\MSX\CODE\C\MSXgl\projects\exsoccer/exsoccer_s1_b2.c:1127: for(u8 k=0; k<14; k++) {
    00002402 E1               [10] 5938 	pop	hl
    00002403 E5               [11] 5939 	push	hl
    00002404 7E               [ 7] 5940 	ld	a, (hl)
    00002405 DD 77 FA         [19] 5941 	ld	-6 (ix), a
    00002408 23               [ 6] 5942 	inc	hl
    00002409 7E               [ 7] 5943 	ld	a, (hl)
    0000240A DD 77 FB         [19] 5944 	ld	-5 (ix), a
    0000240D DD 36 FD 00      [19] 5945 	ld	-3 (ix), #0x00
    00002411 DD 36 FE 00      [19] 5946 	ld	-2 (ix), #0x00
    00002415                       5947 00604$:
    00002415 DD 7E FE         [19] 5948 	ld	a, -2 (ix)
    00002418 D6 0E            [ 7] 5949 	sub	a, #0x0e
    0000241A 30 4F            [12] 5950 	jr	NC, 00518$
                                   5951 ;E:\Dropbox\FAUSTO\SVILUPPI\MSX\CODE\C\MSXgl\projects\exsoccer/exsoccer_s1_b2.c:1128: if (k==playerId) continue;
    0000241C DD 7E FF         [19] 5952 	ld	a, -1 (ix)
    0000241F DD 96 FE         [19] 5953 	sub	a, -2 (ix)
    00002422 28 41            [12] 5954 	jr	Z, 00517$
                                   5955 ;E:\Dropbox\FAUSTO\SVILUPPI\MSX\CODE\C\MSXgl\projects\exsoccer/exsoccer_s1_b2.c:1129: if (g_Players[k].TeamId == playerTeamId && g_Players[k].Role != PLAYER_ROLE_GOALKEEPER) {
    00002424 DD 4E FE         [19] 5956 	ld	c, -2 (ix)
    00002427 06 00            [ 7] 5957 	ld	b, #0x00
    00002429 69               [ 4] 5958 	ld	l, c
    0000242A 60               [ 4] 5959 	ld	h, b
    0000242B 29               [11] 5960 	add	hl, hl
    0000242C 29               [11] 5961 	add	hl, hl
    0000242D 09               [11] 5962 	add	hl, bc
    0000242E 29               [11] 5963 	add	hl, hl
    0000242F 29               [11] 5964 	add	hl, hl
    00002430 09               [11] 5965 	add	hl, bc
    00002431 01r00r00         [10] 5966 	ld	bc,#_g_Players
    00002434 09               [11] 5967 	add	hl,bc
                                   5968 ;	spillPairReg hl
                                   5969 ;	spillPairReg hl
                                   5970 ;	spillPairReg hl
                                   5971 ;	spillPairReg hl
    00002435 E5               [11] 5972 	push	hl
    00002436 01 09 00         [10] 5973 	ld	bc, #0x0009
    00002439 09               [11] 5974 	add	hl, bc
    0000243A C1               [10] 5975 	pop	bc
    0000243B 7E               [ 7] 5976 	ld	a, (hl)
    0000243C DD 77 FC         [19] 5977 	ld	-4 (ix), a
    0000243F DD 7E DF         [19] 5978 	ld	a, -33 (ix)
    00002442 DD 96 FC         [19] 5979 	sub	a, -4 (ix)
    00002445 20 1E            [12] 5980 	jr	NZ, 00517$
    00002447 69               [ 4] 5981 	ld	l, c
                                   5982 ;	spillPairReg hl
                                   5983 ;	spillPairReg hl
    00002448 60               [ 4] 5984 	ld	h, b
                                   5985 ;	spillPairReg hl
                                   5986 ;	spillPairReg hl
    00002449 C5               [11] 5987 	push	bc
    0000244A 01 0D 00         [10] 5988 	ld	bc, #0x000d
    0000244D 09               [11] 5989 	add	hl, bc
    0000244E C1               [10] 5990 	pop	bc
    0000244F 7E               [ 7] 5991 	ld	a, (hl)
    00002450 B7               [ 4] 5992 	or	a, a
    00002451 28 12            [12] 5993 	jr	Z, 00517$
                                   5994 ;E:\Dropbox\FAUSTO\SVILUPPI\MSX\CODE\C\MSXgl\projects\exsoccer/exsoccer_s1_b2.c:1130: if (g_Players[k].Y < g_Players[playerId].Y) teammatesAhead++;
    00002453 69               [ 4] 5995 	ld	l, c
    00002454 60               [ 4] 5996 	ld	h, b
    00002455 4E               [ 7] 5997 	ld	c, (hl)
    00002456 23               [ 6] 5998 	inc	hl
    00002457 46               [ 7] 5999 	ld	b, (hl)
    00002458 79               [ 4] 6000 	ld	a, c
    00002459 DD 96 FA         [19] 6001 	sub	a, -6 (ix)
    0000245C 78               [ 4] 6002 	ld	a, b
    0000245D DD 9E FB         [19] 6003 	sbc	a, -5 (ix)
    00002460 30 03            [12] 6004 	jr	NC, 00517$
    00002462 DD 34 FD         [23] 6005 	inc	-3 (ix)
    00002465                       6006 00517$:
                                   6007 ;E:\Dropbox\FAUSTO\SVILUPPI\MSX\CODE\C\MSXgl\projects\exsoccer/exsoccer_s1_b2.c:1127: for(u8 k=0; k<14; k++) {
    00002465 DD 34 FE         [23] 6008 	inc	-2 (ix)
    00002468 C3r15r24         [10] 6009 	jp	00604$
    0000246B                       6010 00518$:
                                   6011 ;E:\Dropbox\FAUSTO\SVILUPPI\MSX\CODE\C\MSXgl\projects\exsoccer/exsoccer_s1_b2.c:1100: if (playerTeamId == TEAM_1) { if (g_Ball.Y > chaserY) chaserBeaten = true; } 
    0000246B ED 4Br00r00      [20] 6012 	ld	bc, (#_g_Ball + 0)
                                   6013 ;E:\Dropbox\FAUSTO\SVILUPPI\MSX\CODE\C\MSXgl\projects\exsoccer/exsoccer_s1_b2.c:1135: if (teammatesAhead < 2 || g_Ball.Y > 280) {
    0000246F DD 7E FD         [19] 6014 	ld	a, -3 (ix)
    00002472 D6 02            [ 7] 6015 	sub	a, #0x02
    00002474 38 0A            [12] 6016 	jr	C, 00523$
    00002476 69               [ 4] 6017 	ld	l, c
                                   6018 ;	spillPairReg hl
                                   6019 ;	spillPairReg hl
    00002477 60               [ 4] 6020 	ld	h, b
                                   6021 ;	spillPairReg hl
                                   6022 ;	spillPairReg hl
    00002478 3E 18            [ 7] 6023 	ld	a, #0x18
    0000247A BD               [ 4] 6024 	cp	a, l
    0000247B 3E 01            [ 7] 6025 	ld	a, #0x01
    0000247D 9C               [ 4] 6026 	sbc	a, h
    0000247E 30 26            [12] 6027 	jr	NC, 00524$
    00002480                       6028 00523$:
                                   6029 ;E:\Dropbox\FAUSTO\SVILUPPI\MSX\CODE\C\MSXgl\projects\exsoccer/exsoccer_s1_b2.c:1138: if (g_Ball.Y < g_Players[playerId].Y) {
    00002480 79               [ 4] 6030 	ld	a, c
    00002481 DD 96 FA         [19] 6031 	sub	a, -6 (ix)
    00002484 78               [ 4] 6032 	ld	a, b
    00002485 DD 9E FB         [19] 6033 	sbc	a, -5 (ix)
    00002488 30 1C            [12] 6034 	jr	NC, 00524$
                                   6035 ;E:\Dropbox\FAUSTO\SVILUPPI\MSX\CODE\C\MSXgl\projects\exsoccer/exsoccer_s1_b2.c:1139: defenseLineY = g_Ball.Y + 40; // Maintain gap
    0000248A 21 28 00         [10] 6036 	ld	hl, #0x0028
    0000248D 09               [11] 6037 	add	hl, bc
                                   6038 ;E:\Dropbox\FAUSTO\SVILUPPI\MSX\CODE\C\MSXgl\projects\exsoccer/exsoccer_s1_b2.c:1140: if (defenseLineY > 380) defenseLineY = 380; // Cap
    0000248E DD 75 F8         [19] 6039 	ld	-8 (ix), l
    00002491 DD 74 F9         [19] 6040 	ld	-7 (ix), h
    00002494 4D               [ 4] 6041 	ld	c, l
    00002495 44               [ 4] 6042 	ld	b, h
    00002496 3E 7C            [ 7] 6043 	ld	a, #0x7c
    00002498 B9               [ 4] 6044 	cp	a, c
    00002499 3E 01            [ 7] 6045 	ld	a, #0x01
    0000249B 98               [ 4] 6046 	sbc	a, b
    0000249C 30 08            [12] 6047 	jr	NC, 00524$
    0000249E DD 36 F8 7C      [19] 6048 	ld	-8 (ix), #0x7c
    000024A2 DD 36 F9 01      [19] 6049 	ld	-7 (ix), #0x01
    000024A6                       6050 00524$:
                                   6051 ;E:\Dropbox\FAUSTO\SVILUPPI\MSX\CODE\C\MSXgl\projects\exsoccer/exsoccer_s1_b2.c:1143: g_Players[playerId].TargetY = defenseLineY; 
    000024A6 E1               [10] 6052 	pop	hl
    000024A7 E5               [11] 6053 	push	hl
    000024A8 01 0E 00         [10] 6054 	ld	bc, #0x000e
    000024AB 09               [11] 6055 	add	hl, bc
    000024AC DD 7E F8         [19] 6056 	ld	a, -8 (ix)
    000024AF 77               [ 7] 6057 	ld	(hl), a
    000024B0 23               [ 6] 6058 	inc	hl
    000024B1 DD 7E F9         [19] 6059 	ld	a, -7 (ix)
    000024B4 77               [ 7] 6060 	ld	(hl), a
    000024B5 C3r9Cr25         [10] 6061 	jp	00556$
    000024B8                       6062 00555$:
                                   6063 ;E:\Dropbox\FAUSTO\SVILUPPI\MSX\CODE\C\MSXgl\projects\exsoccer/exsoccer_s1_b2.c:1147: if (g_Players[playerId].Role >= PLAYER_ROLE_LEFT_STRIKER) {
    000024B8 DD CB FE 46      [20] 6064 	bit	0, -2 (ix)
    000024BC 20 0E            [12] 6065 	jr	NZ, 00552$
                                   6066 ;E:\Dropbox\FAUSTO\SVILUPPI\MSX\CODE\C\MSXgl\projects\exsoccer/exsoccer_s1_b2.c:1149: g_Players[playerId].TargetY = FIELD_POS_Y_CENTER;
    000024BE E1               [10] 6067 	pop	hl
    000024BF E5               [11] 6068 	push	hl
    000024C0 01 0E 00         [10] 6069 	ld	bc, #0x000e
    000024C3 09               [11] 6070 	add	hl, bc
    000024C4 36 F3            [10] 6071 	ld	(hl), #0xf3
    000024C6 23               [ 6] 6072 	inc	hl
    000024C7 36 00            [10] 6073 	ld	(hl), #0x00
    000024C9 C3r9Cr25         [10] 6074 	jp	00556$
    000024CC                       6075 00552$:
                                   6076 ;E:\Dropbox\FAUSTO\SVILUPPI\MSX\CODE\C\MSXgl\projects\exsoccer/exsoccer_s1_b2.c:1151: else if (g_Players[playerId].Role >= PLAYER_ROLE_LEFT_HALFFIELDER) {
    000024CC 78               [ 4] 6077 	ld	a, b
    000024CD D6 03            [ 7] 6078 	sub	a, #0x03
    000024CF 38 0E            [12] 6079 	jr	C, 00549$
                                   6080 ;E:\Dropbox\FAUSTO\SVILUPPI\MSX\CODE\C\MSXgl\projects\exsoccer/exsoccer_s1_b2.c:1153: g_Players[playerId].TargetY = 106;
    000024D1 E1               [10] 6081 	pop	hl
    000024D2 E5               [11] 6082 	push	hl
    000024D3 01 0E 00         [10] 6083 	ld	bc, #0x000e
    000024D6 09               [11] 6084 	add	hl, bc
    000024D7 36 6A            [10] 6085 	ld	(hl), #0x6a
    000024D9 23               [ 6] 6086 	inc	hl
    000024DA 36 00            [10] 6087 	ld	(hl), #0x00
    000024DC C3r9Cr25         [10] 6088 	jp	00556$
    000024DF                       6089 00549$:
                                   6090 ;E:\Dropbox\FAUSTO\SVILUPPI\MSX\CODE\C\MSXgl\projects\exsoccer/exsoccer_s1_b2.c:1158: u16 defenseLineY = 130;
    000024DF DD 36 F8 82      [19] 6091 	ld	-8 (ix), #0x82
    000024E3 DD 36 F9 00      [19] 6092 	ld	-7 (ix), #0
                                   6093 ;E:\Dropbox\FAUSTO\SVILUPPI\MSX\CODE\C\MSXgl\projects\exsoccer/exsoccer_s1_b2.c:1162: for(u8 k=0; k<14; k++) {
    000024E7 E1               [10] 6094 	pop	hl
    000024E8 E5               [11] 6095 	push	hl
    000024E9 7E               [ 7] 6096 	ld	a, (hl)
    000024EA DD 77 FA         [19] 6097 	ld	-6 (ix), a
    000024ED 23               [ 6] 6098 	inc	hl
    000024EE 7E               [ 7] 6099 	ld	a, (hl)
    000024EF DD 77 FB         [19] 6100 	ld	-5 (ix), a
    000024F2 DD 36 FD 00      [19] 6101 	ld	-3 (ix), #0x00
    000024F6 DD 36 FE 00      [19] 6102 	ld	-2 (ix), #0x00
    000024FA                       6103 00606$:
    000024FA DD 7E FE         [19] 6104 	ld	a, -2 (ix)
    000024FD D6 0E            [ 7] 6105 	sub	a, #0x0e
    000024FF 30 4F            [12] 6106 	jr	NC, 00540$
                                   6107 ;E:\Dropbox\FAUSTO\SVILUPPI\MSX\CODE\C\MSXgl\projects\exsoccer/exsoccer_s1_b2.c:1163: if (k==playerId) continue;
    00002501 DD 7E FF         [19] 6108 	ld	a, -1 (ix)
    00002504 DD 96 FE         [19] 6109 	sub	a, -2 (ix)
    00002507 28 41            [12] 6110 	jr	Z, 00539$
                                   6111 ;E:\Dropbox\FAUSTO\SVILUPPI\MSX\CODE\C\MSXgl\projects\exsoccer/exsoccer_s1_b2.c:1164: if (g_Players[k].TeamId == playerTeamId && g_Players[k].Role != PLAYER_ROLE_GOALKEEPER) {
    00002509 DD 4E FE         [19] 6112 	ld	c, -2 (ix)
    0000250C 06 00            [ 7] 6113 	ld	b, #0x00
    0000250E 69               [ 4] 6114 	ld	l, c
    0000250F 60               [ 4] 6115 	ld	h, b
    00002510 29               [11] 6116 	add	hl, hl
    00002511 29               [11] 6117 	add	hl, hl
    00002512 09               [11] 6118 	add	hl, bc
    00002513 29               [11] 6119 	add	hl, hl
    00002514 29               [11] 6120 	add	hl, hl
    00002515 09               [11] 6121 	add	hl, bc
    00002516 01r00r00         [10] 6122 	ld	bc,#_g_Players
    00002519 09               [11] 6123 	add	hl,bc
                                   6124 ;	spillPairReg hl
                                   6125 ;	spillPairReg hl
                                   6126 ;	spillPairReg hl
                                   6127 ;	spillPairReg hl
    0000251A E5               [11] 6128 	push	hl
    0000251B 01 09 00         [10] 6129 	ld	bc, #0x0009
    0000251E 09               [11] 6130 	add	hl, bc
    0000251F C1               [10] 6131 	pop	bc
    00002520 7E               [ 7] 6132 	ld	a, (hl)
    00002521 DD 77 FC         [19] 6133 	ld	-4 (ix), a
    00002524 DD 7E DF         [19] 6134 	ld	a, -33 (ix)
    00002527 DD 96 FC         [19] 6135 	sub	a, -4 (ix)
    0000252A 20 1E            [12] 6136 	jr	NZ, 00539$
    0000252C 69               [ 4] 6137 	ld	l, c
                                   6138 ;	spillPairReg hl
                                   6139 ;	spillPairReg hl
    0000252D 60               [ 4] 6140 	ld	h, b
                                   6141 ;	spillPairReg hl
                                   6142 ;	spillPairReg hl
    0000252E C5               [11] 6143 	push	bc
    0000252F 01 0D 00         [10] 6144 	ld	bc, #0x000d
    00002532 09               [11] 6145 	add	hl, bc
    00002533 C1               [10] 6146 	pop	bc
    00002534 7E               [ 7] 6147 	ld	a, (hl)
    00002535 B7               [ 4] 6148 	or	a, a
    00002536 28 12            [12] 6149 	jr	Z, 00539$
                                   6150 ;E:\Dropbox\FAUSTO\SVILUPPI\MSX\CODE\C\MSXgl\projects\exsoccer/exsoccer_s1_b2.c:1165: if (g_Players[k].Y > g_Players[playerId].Y) teammatesAhead++;
    00002538 69               [ 4] 6151 	ld	l, c
    00002539 60               [ 4] 6152 	ld	h, b
    0000253A 4E               [ 7] 6153 	ld	c, (hl)
    0000253B 23               [ 6] 6154 	inc	hl
    0000253C 46               [ 7] 6155 	ld	b, (hl)
    0000253D DD 7E FA         [19] 6156 	ld	a, -6 (ix)
    00002540 91               [ 4] 6157 	sub	a, c
    00002541 DD 7E FB         [19] 6158 	ld	a, -5 (ix)
    00002544 98               [ 4] 6159 	sbc	a, b
    00002545 30 03            [12] 6160 	jr	NC, 00539$
    00002547 DD 34 FD         [23] 6161 	inc	-3 (ix)
    0000254A                       6162 00539$:
                                   6163 ;E:\Dropbox\FAUSTO\SVILUPPI\MSX\CODE\C\MSXgl\projects\exsoccer/exsoccer_s1_b2.c:1162: for(u8 k=0; k<14; k++) {
    0000254A DD 34 FE         [23] 6164 	inc	-2 (ix)
    0000254D C3rFAr24         [10] 6165 	jp	00606$
    00002550                       6166 00540$:
                                   6167 ;E:\Dropbox\FAUSTO\SVILUPPI\MSX\CODE\C\MSXgl\projects\exsoccer/exsoccer_s1_b2.c:1100: if (playerTeamId == TEAM_1) { if (g_Ball.Y > chaserY) chaserBeaten = true; } 
    00002550 ED 4Br00r00      [20] 6168 	ld	bc, (#_g_Ball + 0)
                                   6169 ;E:\Dropbox\FAUSTO\SVILUPPI\MSX\CODE\C\MSXgl\projects\exsoccer/exsoccer_s1_b2.c:1169: if (teammatesAhead < 2 || g_Ball.Y < 200) {
    00002554 DD 7E FD         [19] 6170 	ld	a, -3 (ix)
    00002557 D6 02            [ 7] 6171 	sub	a, #0x02
    00002559 38 0A            [12] 6172 	jr	C, 00545$
    0000255B 69               [ 4] 6173 	ld	l, c
                                   6174 ;	spillPairReg hl
                                   6175 ;	spillPairReg hl
    0000255C 60               [ 4] 6176 	ld	h, b
                                   6177 ;	spillPairReg hl
                                   6178 ;	spillPairReg hl
    0000255D 7D               [ 4] 6179 	ld	a, l
    0000255E D6 C8            [ 7] 6180 	sub	a, #0xc8
    00002560 7C               [ 4] 6181 	ld	a, h
    00002561 DE 00            [ 7] 6182 	sbc	a, #0x00
    00002563 30 28            [12] 6183 	jr	NC, 00546$
    00002565                       6184 00545$:
                                   6185 ;E:\Dropbox\FAUSTO\SVILUPPI\MSX\CODE\C\MSXgl\projects\exsoccer/exsoccer_s1_b2.c:1170: if (g_Ball.Y > g_Players[playerId].Y) {
    00002565 DD 7E FA         [19] 6186 	ld	a, -6 (ix)
    00002568 91               [ 4] 6187 	sub	a, c
    00002569 DD 7E FB         [19] 6188 	ld	a, -5 (ix)
    0000256C 98               [ 4] 6189 	sbc	a, b
    0000256D 30 1E            [12] 6190 	jr	NC, 00546$
                                   6191 ;E:\Dropbox\FAUSTO\SVILUPPI\MSX\CODE\C\MSXgl\projects\exsoccer/exsoccer_s1_b2.c:1171: defenseLineY = g_Ball.Y - 40;
    0000256F 79               [ 4] 6192 	ld	a, c
    00002570 C6 D8            [ 7] 6193 	add	a, #0xd8
    00002572 4F               [ 4] 6194 	ld	c, a
    00002573 78               [ 4] 6195 	ld	a, b
    00002574 CE FF            [ 7] 6196 	adc	a, #0xff
                                   6197 ;E:\Dropbox\FAUSTO\SVILUPPI\MSX\CODE\C\MSXgl\projects\exsoccer/exsoccer_s1_b2.c:1172: if (defenseLineY < 100) defenseLineY = 100;
    00002576 DD 71 F8         [19] 6198 	ld	-8 (ix), c
    00002579 DD 77 F9         [19] 6199 	ld	-7 (ix), a
    0000257C 47               [ 4] 6200 	ld	b, a
    0000257D 79               [ 4] 6201 	ld	a, c
    0000257E D6 64            [ 7] 6202 	sub	a, #0x64
    00002580 78               [ 4] 6203 	ld	a, b
    00002581 DE 00            [ 7] 6204 	sbc	a, #0x00
    00002583 30 08            [12] 6205 	jr	NC, 00546$
    00002585 DD 36 F8 64      [19] 6206 	ld	-8 (ix), #0x64
    00002589 DD 36 F9 00      [19] 6207 	ld	-7 (ix), #0
    0000258D                       6208 00546$:
                                   6209 ;E:\Dropbox\FAUSTO\SVILUPPI\MSX\CODE\C\MSXgl\projects\exsoccer/exsoccer_s1_b2.c:1175: g_Players[playerId].TargetY = defenseLineY;
    0000258D E1               [10] 6210 	pop	hl
    0000258E E5               [11] 6211 	push	hl
    0000258F 01 0E 00         [10] 6212 	ld	bc, #0x000e
    00002592 09               [11] 6213 	add	hl, bc
    00002593 DD 7E F8         [19] 6214 	ld	a, -8 (ix)
    00002596 77               [ 7] 6215 	ld	(hl), a
    00002597 23               [ 6] 6216 	inc	hl
    00002598 DD 7E F9         [19] 6217 	ld	a, -7 (ix)
    0000259B 77               [ 7] 6218 	ld	(hl), a
    0000259C                       6219 00556$:
                                   6220 ;E:\Dropbox\FAUSTO\SVILUPPI\MSX\CODE\C\MSXgl\projects\exsoccer/exsoccer_s1_b2.c:1179: if (g_Players[playerId].Role % 2 != 0) {
    0000259C 1A               [ 7] 6221 	ld	a, (de)
    0000259D E6 01            [ 7] 6222 	and	a, #0x01
    0000259F 4F               [ 4] 6223 	ld	c, a
    000025A0 06 00            [ 7] 6224 	ld	b, #0x00
                                   6225 ;E:\Dropbox\FAUSTO\SVILUPPI\MSX\CODE\C\MSXgl\projects\exsoccer/exsoccer_s1_b2.c:842: g_Players[playerId].TargetX = finalTargetX;
    000025A2 DD 7E DD         [19] 6226 	ld	a, -35 (ix)
    000025A5 C6 10            [ 7] 6227 	add	a, #0x10
    000025A7 DD 77 F9         [19] 6228 	ld	-7 (ix), a
    000025AA DD 7E DE         [19] 6229 	ld	a, -34 (ix)
    000025AD CE 00            [ 7] 6230 	adc	a, #0x00
    000025AF DD 77 FA         [19] 6231 	ld	-6 (ix), a
                                   6232 ;E:\Dropbox\FAUSTO\SVILUPPI\MSX\CODE\C\MSXgl\projects\exsoccer/exsoccer_s1_b2.c:1105: g_Players[playerId].TargetX = g_Ball.X;
                                   6233 ;E:\Dropbox\FAUSTO\SVILUPPI\MSX\CODE\C\MSXgl\projects\exsoccer/exsoccer_s1_b2.c:1182: u16 intendedX = g_Ball.X - 40;
    000025B2 2Ar02r00         [16] 6234 	ld	hl, (#_g_Ball + 2)
    000025B5 DD 75 FB         [19] 6235 	ld	-5 (ix), l
    000025B8 DD 74 FC         [19] 6236 	ld	-4 (ix), h
                                   6237 ;E:\Dropbox\FAUSTO\SVILUPPI\MSX\CODE\C\MSXgl\projects\exsoccer/exsoccer_s1_b2.c:1179: if (g_Players[playerId].Role % 2 != 0) {
    000025BB 78               [ 4] 6238 	ld	a, b
    000025BC B1               [ 4] 6239 	or	a, c
    000025BD 28 2F            [12] 6240 	jr	Z, 00564$
                                   6241 ;E:\Dropbox\FAUSTO\SVILUPPI\MSX\CODE\C\MSXgl\projects\exsoccer/exsoccer_s1_b2.c:1182: u16 intendedX = g_Ball.X - 40;
    000025BF DD 7E FB         [19] 6242 	ld	a, -5 (ix)
    000025C2 C6 D8            [ 7] 6243 	add	a, #0xd8
    000025C4 4F               [ 4] 6244 	ld	c, a
    000025C5 DD 7E FC         [19] 6245 	ld	a, -4 (ix)
    000025C8 CE FF            [ 7] 6246 	adc	a, #0xff
    000025CA 47               [ 4] 6247 	ld	b, a
                                   6248 ;E:\Dropbox\FAUSTO\SVILUPPI\MSX\CODE\C\MSXgl\projects\exsoccer/exsoccer_s1_b2.c:1183: if (g_Ball.X > FIELD_POS_X_CENTER && intendedX > FIELD_POS_X_CENTER + 20) {
    000025CB 3E 78            [ 7] 6249 	ld	a, #0x78
    000025CD DD BE FB         [19] 6250 	cp	a, -5 (ix)
    000025D0 3E 00            [ 7] 6251 	ld	a, #0x00
    000025D2 DD 9E FC         [19] 6252 	sbc	a, -4 (ix)
    000025D5 30 0B            [12] 6253 	jr	NC, 00558$
    000025D7 3E 8C            [ 7] 6254 	ld	a, #0x8c
    000025D9 B9               [ 4] 6255 	cp	a, c
    000025DA 3E 00            [ 7] 6256 	ld	a, #0x00
    000025DC 98               [ 4] 6257 	sbc	a, b
    000025DD 30 03            [12] 6258 	jr	NC, 00558$
                                   6259 ;E:\Dropbox\FAUSTO\SVILUPPI\MSX\CODE\C\MSXgl\projects\exsoccer/exsoccer_s1_b2.c:1184: intendedX = FIELD_POS_X_CENTER + 20; // Stay central
    000025DF 01 8C 00         [10] 6260 	ld	bc, #0x008c
    000025E2                       6261 00558$:
                                   6262 ;E:\Dropbox\FAUSTO\SVILUPPI\MSX\CODE\C\MSXgl\projects\exsoccer/exsoccer_s1_b2.c:1186: g_Players[playerId].TargetX = intendedX; 
    000025E2 DD 6E F9         [19] 6263 	ld	l, -7 (ix)
    000025E5 DD 66 FA         [19] 6264 	ld	h, -6 (ix)
    000025E8 71               [ 7] 6265 	ld	(hl), c
    000025E9 23               [ 6] 6266 	inc	hl
    000025EA 70               [ 7] 6267 	ld	(hl), b
    000025EB C3r2Dr26         [10] 6268 	jp	00565$
    000025EE                       6269 00564$:
                                   6270 ;E:\Dropbox\FAUSTO\SVILUPPI\MSX\CODE\C\MSXgl\projects\exsoccer/exsoccer_s1_b2.c:1191: u16 intendedX = g_Ball.X + 40;
    000025EE DD 6E FB         [19] 6271 	ld	l, -5 (ix)
    000025F1 DD 66 FC         [19] 6272 	ld	h, -4 (ix)
    000025F4 11 28 00         [10] 6273 	ld	de, #0x0028
    000025F7 19               [11] 6274 	add	hl, de
    000025F8 DD 75 FD         [19] 6275 	ld	-3 (ix), l
    000025FB DD 74 FE         [19] 6276 	ld	-2 (ix), h
                                   6277 ;E:\Dropbox\FAUSTO\SVILUPPI\MSX\CODE\C\MSXgl\projects\exsoccer/exsoccer_s1_b2.c:1192: if (g_Ball.X < FIELD_POS_X_CENTER && intendedX < FIELD_POS_X_CENTER - 20) {
    000025FE DD 7E FB         [19] 6278 	ld	a, -5 (ix)
    00002601 D6 78            [ 7] 6279 	sub	a, #0x78
    00002603 DD 7E FC         [19] 6280 	ld	a, -4 (ix)
    00002606 DE 00            [ 7] 6281 	sbc	a, #0x00
    00002608 30 14            [12] 6282 	jr	NC, 00561$
    0000260A DD 7E FD         [19] 6283 	ld	a, -3 (ix)
    0000260D D6 64            [ 7] 6284 	sub	a, #0x64
    0000260F DD 7E FE         [19] 6285 	ld	a, -2 (ix)
    00002612 DE 00            [ 7] 6286 	sbc	a, #0x00
    00002614 30 08            [12] 6287 	jr	NC, 00561$
                                   6288 ;E:\Dropbox\FAUSTO\SVILUPPI\MSX\CODE\C\MSXgl\projects\exsoccer/exsoccer_s1_b2.c:1193: intendedX = FIELD_POS_X_CENTER - 20; // Stay central
    00002616 DD 36 FD 64      [19] 6289 	ld	-3 (ix), #0x64
    0000261A DD 36 FE 00      [19] 6290 	ld	-2 (ix), #0
    0000261E                       6291 00561$:
                                   6292 ;E:\Dropbox\FAUSTO\SVILUPPI\MSX\CODE\C\MSXgl\projects\exsoccer/exsoccer_s1_b2.c:1195: g_Players[playerId].TargetX = intendedX; 
    0000261E DD 6E F9         [19] 6293 	ld	l, -7 (ix)
    00002621 DD 66 FA         [19] 6294 	ld	h, -6 (ix)
    00002624 DD 7E FD         [19] 6295 	ld	a, -3 (ix)
    00002627 77               [ 7] 6296 	ld	(hl), a
    00002628 23               [ 6] 6297 	inc	hl
    00002629 DD 7E FE         [19] 6298 	ld	a, -2 (ix)
    0000262C 77               [ 7] 6299 	ld	(hl), a
    0000262D                       6300 00565$:
                                   6301 ;E:\Dropbox\FAUSTO\SVILUPPI\MSX\CODE\C\MSXgl\projects\exsoccer/exsoccer_s1_b2.c:1198: if (g_Players[playerId].TargetX < FIELD_BOUND_X_LEFT + 20) g_Players[playerId].TargetX = FIELD_BOUND_X_LEFT + 20;
    0000262D DD 6E F9         [19] 6302 	ld	l, -7 (ix)
    00002630 DD 66 FA         [19] 6303 	ld	h, -6 (ix)
    00002633 4E               [ 7] 6304 	ld	c, (hl)
    00002634 23               [ 6] 6305 	inc	hl
    00002635 46               [ 7] 6306 	ld	b, (hl)
    00002636 79               [ 4] 6307 	ld	a, c
    00002637 D6 1E            [ 7] 6308 	sub	a, #0x1e
    00002639 78               [ 4] 6309 	ld	a, b
    0000263A DE 00            [ 7] 6310 	sbc	a, #0x00
    0000263C 30 0B            [12] 6311 	jr	NC, 00567$
    0000263E DD 6E F9         [19] 6312 	ld	l, -7 (ix)
    00002641 DD 66 FA         [19] 6313 	ld	h, -6 (ix)
    00002644 36 1E            [10] 6314 	ld	(hl), #0x1e
    00002646 23               [ 6] 6315 	inc	hl
    00002647 36 00            [10] 6316 	ld	(hl), #0x00
    00002649                       6317 00567$:
                                   6318 ;E:\Dropbox\FAUSTO\SVILUPPI\MSX\CODE\C\MSXgl\projects\exsoccer/exsoccer_s1_b2.c:1199: if (g_Players[playerId].TargetX > FIELD_BOUND_X_RIGHT - 20) g_Players[playerId].TargetX = FIELD_BOUND_X_RIGHT - 20;
    00002649 DD 6E F9         [19] 6319 	ld	l, -7 (ix)
    0000264C DD 66 FA         [19] 6320 	ld	h, -6 (ix)
    0000264F 4E               [ 7] 6321 	ld	c, (hl)
    00002650 23               [ 6] 6322 	inc	hl
    00002651 46               [ 7] 6323 	ld	b, (hl)
    00002652 3E E2            [ 7] 6324 	ld	a, #0xe2
    00002654 B9               [ 4] 6325 	cp	a, c
    00002655 3E 00            [ 7] 6326 	ld	a, #0x00
    00002657 98               [ 4] 6327 	sbc	a, b
    00002658 30 0B            [12] 6328 	jr	NC, 00894$
    0000265A DD 6E F9         [19] 6329 	ld	l, -7 (ix)
    0000265D DD 66 FA         [19] 6330 	ld	h, -6 (ix)
    00002660 36 E2            [10] 6331 	ld	(hl), #0xe2
    00002662 23               [ 6] 6332 	inc	hl
    00002663 36 00            [10] 6333 	ld	(hl), #0x00
                                   6334 ;E:\Dropbox\FAUSTO\SVILUPPI\MSX\CODE\C\MSXgl\projects\exsoccer/exsoccer_s1_b2.c:1203: for(u8 i=0; i<14; i++) {
    00002665                       6335 00894$:
    00002665 DD 36 FE 00      [19] 6336 	ld	-2 (ix), #0x00
    00002669                       6337 00608$:
    00002669 DD 7E FE         [19] 6338 	ld	a, -2 (ix)
    0000266C D6 0E            [ 7] 6339 	sub	a, #0x0e
    0000266E D2rC0r27         [10] 6340 	jp	NC, 00609$
                                   6341 ;E:\Dropbox\FAUSTO\SVILUPPI\MSX\CODE\C\MSXgl\projects\exsoccer/exsoccer_s1_b2.c:1204: if (i == playerId) continue;
    00002671 DD 7E FE         [19] 6342 	ld	a, -2 (ix)
    00002674 DD 96 FF         [19] 6343 	sub	a, -1 (ix)
    00002677 CArBAr27         [10] 6344 	jp	Z,00591$
                                   6345 ;E:\Dropbox\FAUSTO\SVILUPPI\MSX\CODE\C\MSXgl\projects\exsoccer/exsoccer_s1_b2.c:1205: if (g_Players[i].TeamId != playerTeamId) continue;
    0000267A DD 4E FE         [19] 6346 	ld	c, -2 (ix)
    0000267D 06 00            [ 7] 6347 	ld	b, #0x00
    0000267F 69               [ 4] 6348 	ld	l, c
    00002680 60               [ 4] 6349 	ld	h, b
    00002681 29               [11] 6350 	add	hl, hl
    00002682 29               [11] 6351 	add	hl, hl
    00002683 09               [11] 6352 	add	hl, bc
    00002684 29               [11] 6353 	add	hl, hl
    00002685 29               [11] 6354 	add	hl, hl
    00002686 09               [11] 6355 	add	hl, bc
    00002687 EB               [ 4] 6356 	ex	de, hl
    00002688 21r00r00         [10] 6357 	ld	hl, #_g_Players
    0000268B 19               [11] 6358 	add	hl, de
    0000268C EB               [ 4] 6359 	ex	de, hl
    0000268D 4B               [ 4] 6360 	ld	c, e
    0000268E 42               [ 4] 6361 	ld	b, d
    0000268F 21 09 00         [10] 6362 	ld	hl, #9
    00002692 09               [11] 6363 	add	hl, bc
    00002693 DD 7E DF         [19] 6364 	ld	a,-33 (ix)
    00002696 96               [ 7] 6365 	sub	a,(hl)
    00002697 C2rBAr27         [10] 6366 	jp	NZ,00591$
                                   6367 ;E:\Dropbox\FAUSTO\SVILUPPI\MSX\CODE\C\MSXgl\projects\exsoccer/exsoccer_s1_b2.c:1206: if (g_Players[i].Role == PLAYER_ROLE_GOALKEEPER) continue;
    0000269A 4B               [ 4] 6368 	ld	c, e
    0000269B 42               [ 4] 6369 	ld	b, d
    0000269C 21 0D 00         [10] 6370 	ld	hl, #13
    0000269F 09               [11] 6371 	add	hl, bc
    000026A0 7E               [ 7] 6372 	ld	a, (hl)
    000026A1 B7               [ 4] 6373 	or	a, a
    000026A2 CArBAr27         [10] 6374 	jp	Z, 00591$
                                   6375 ;E:\Dropbox\FAUSTO\SVILUPPI\MSX\CODE\C\MSXgl\projects\exsoccer/exsoccer_s1_b2.c:1207: i16 dx = (i16)g_Players[playerId].TargetX - (i16)g_Players[i].X;
    000026A5 DD 7E DD         [19] 6376 	ld	a, -35 (ix)
    000026A8 C6 10            [ 7] 6377 	add	a, #0x10
    000026AA DD 77 F4         [19] 6378 	ld	-12 (ix), a
    000026AD DD 7E DE         [19] 6379 	ld	a, -34 (ix)
    000026B0 CE 00            [ 7] 6380 	adc	a, #0x00
    000026B2 DD 77 F5         [19] 6381 	ld	-11 (ix), a
    000026B5 DD 6E F4         [19] 6382 	ld	l, -12 (ix)
    000026B8 DD 66 F5         [19] 6383 	ld	h, -11 (ix)
    000026BB 7E               [ 7] 6384 	ld	a, (hl)
    000026BC DD 77 FC         [19] 6385 	ld	-4 (ix), a
    000026BF 23               [ 6] 6386 	inc	hl
    000026C0 7E               [ 7] 6387 	ld	a, (hl)
    000026C1 DD 77 FD         [19] 6388 	ld	-3 (ix), a
    000026C4 DD 4E FC         [19] 6389 	ld	c, -4 (ix)
    000026C7 DD 46 FD         [19] 6390 	ld	b, -3 (ix)
    000026CA 6B               [ 4] 6391 	ld	l, e
                                   6392 ;	spillPairReg hl
                                   6393 ;	spillPairReg hl
    000026CB 62               [ 4] 6394 	ld	h, d
                                   6395 ;	spillPairReg hl
                                   6396 ;	spillPairReg hl
    000026CC 23               [ 6] 6397 	inc	hl
    000026CD 23               [ 6] 6398 	inc	hl
    000026CE 7E               [ 7] 6399 	ld	a, (hl)
    000026CF 23               [ 6] 6400 	inc	hl
    000026D0 66               [ 7] 6401 	ld	h, (hl)
                                   6402 ;	spillPairReg hl
    000026D1 6F               [ 4] 6403 	ld	l, a
                                   6404 ;	spillPairReg hl
                                   6405 ;	spillPairReg hl
    000026D2 79               [ 4] 6406 	ld	a, c
    000026D3 95               [ 4] 6407 	sub	a, l
    000026D4 4F               [ 4] 6408 	ld	c, a
    000026D5 78               [ 4] 6409 	ld	a, b
    000026D6 9C               [ 4] 6410 	sbc	a, h
    000026D7 47               [ 4] 6411 	ld	b, a
                                   6412 ;E:\Dropbox\FAUSTO\SVILUPPI\MSX\CODE\C\MSXgl\projects\exsoccer/exsoccer_s1_b2.c:1208: i16 dy = (i16)g_Players[playerId].TargetY - (i16)g_Players[i].Y;
    000026D8 DD 7E DD         [19] 6413 	ld	a, -35 (ix)
    000026DB C6 0E            [ 7] 6414 	add	a, #0x0e
    000026DD DD 77 F6         [19] 6415 	ld	-10 (ix), a
    000026E0 DD 7E DE         [19] 6416 	ld	a, -34 (ix)
    000026E3 CE 00            [ 7] 6417 	adc	a, #0x00
    000026E5 DD 77 F7         [19] 6418 	ld	-9 (ix), a
    000026E8 DD 6E F6         [19] 6419 	ld	l, -10 (ix)
    000026EB DD 66 F7         [19] 6420 	ld	h, -9 (ix)
    000026EE 23               [ 6] 6421 	inc	hl
    000026EF 7E               [ 7] 6422 	ld	a, (hl)
    000026F0 2B               [ 6] 6423 	dec	hl
    000026F1 6E               [ 7] 6424 	ld	l, (hl)
                                   6425 ;	spillPairReg hl
    000026F2 DD 75 FA         [19] 6426 	ld	-6 (ix), l
    000026F5 DD 77 FB         [19] 6427 	ld	-5 (ix), a
    000026F8 EB               [ 4] 6428 	ex	de,hl
    000026F9 5E               [ 7] 6429 	ld	e, (hl)
    000026FA 23               [ 6] 6430 	inc	hl
    000026FB 56               [ 7] 6431 	ld	d, (hl)
    000026FC DD 7E FA         [19] 6432 	ld	a, -6 (ix)
    000026FF 93               [ 4] 6433 	sub	a, e
    00002700 5F               [ 4] 6434 	ld	e, a
    00002701 DD 7E FB         [19] 6435 	ld	a, -5 (ix)
    00002704 9A               [ 4] 6436 	sbc	a, d
    00002705 57               [ 4] 6437 	ld	d, a
                                   6438 ;E:\Dropbox\FAUSTO\SVILUPPI\MSX\CODE\C\MSXgl\projects\exsoccer/exsoccer_s1_b2.c:1209: if (dx > -60 && dx < 60 && dy > -60 && dy < 60) {
    00002706 3E C4            [ 7] 6439 	ld	a, #0xc4
    00002708 B9               [ 4] 6440 	cp	a, c
    00002709 3E FF            [ 7] 6441 	ld	a, #0xff
    0000270B 98               [ 4] 6442 	sbc	a, b
    0000270C E2r11r27         [10] 6443 	jp	PO, 02034$
    0000270F EE 80            [ 7] 6444 	xor	a, #0x80
    00002711                       6445 02034$:
    00002711 F2rBAr27         [10] 6446 	jp	P, 00591$
    00002714 79               [ 4] 6447 	ld	a, c
    00002715 D6 3C            [ 7] 6448 	sub	a, #0x3c
    00002717 78               [ 4] 6449 	ld	a, b
    00002718 17               [ 4] 6450 	rla
    00002719 3F               [ 4] 6451 	ccf
    0000271A 1F               [ 4] 6452 	rra
    0000271B DE 80            [ 7] 6453 	sbc	a, #0x80
    0000271D D2rBAr27         [10] 6454 	jp	NC, 00591$
    00002720 3E C4            [ 7] 6455 	ld	a, #0xc4
    00002722 BB               [ 4] 6456 	cp	a, e
    00002723 3E FF            [ 7] 6457 	ld	a, #0xff
    00002725 9A               [ 4] 6458 	sbc	a, d
    00002726 E2r2Br27         [10] 6459 	jp	PO, 02035$
    00002729 EE 80            [ 7] 6460 	xor	a, #0x80
    0000272B                       6461 02035$:
    0000272B F2rBAr27         [10] 6462 	jp	P, 00591$
    0000272E DD 73 F8         [19] 6463 	ld	-8 (ix), e
    00002731 DD 72 F9         [19] 6464 	ld	-7 (ix), d
    00002734 DD 7E F8         [19] 6465 	ld	a, -8 (ix)
    00002737 D6 3C            [ 7] 6466 	sub	a, #0x3c
    00002739 DD 7E F9         [19] 6467 	ld	a, -7 (ix)
    0000273C 17               [ 4] 6468 	rla
    0000273D 3F               [ 4] 6469 	ccf
    0000273E 1F               [ 4] 6470 	rra
    0000273F DE 80            [ 7] 6471 	sbc	a, #0x80
    00002741 30 77            [12] 6472 	jr	NC, 00591$
                                   6473 ;E:\Dropbox\FAUSTO\SVILUPPI\MSX\CODE\C\MSXgl\projects\exsoccer/exsoccer_s1_b2.c:1210: if (dx >= 0) g_Players[playerId].TargetX += 12; else g_Players[playerId].TargetX -= 12;
    00002743 DD 7E FC         [19] 6474 	ld	a, -4 (ix)
    00002746 DD 77 FA         [19] 6475 	ld	-6 (ix), a
    00002749 DD 7E FD         [19] 6476 	ld	a, -3 (ix)
    0000274C DD 77 FB         [19] 6477 	ld	-5 (ix), a
    0000274F CB 78            [ 8] 6478 	bit	7, b
    00002751 20 17            [12] 6479 	jr	NZ, 00581$
    00002753 DD 6E FA         [19] 6480 	ld	l, -6 (ix)
    00002756 DD 66 FB         [19] 6481 	ld	h, -5 (ix)
    00002759 11 0C 00         [10] 6482 	ld	de, #0x000c
    0000275C 19               [11] 6483 	add	hl, de
    0000275D EB               [ 4] 6484 	ex	de, hl
    0000275E DD 6E F4         [19] 6485 	ld	l, -12 (ix)
    00002761 DD 66 F5         [19] 6486 	ld	h, -11 (ix)
    00002764 73               [ 7] 6487 	ld	(hl), e
    00002765 23               [ 6] 6488 	inc	hl
    00002766 72               [ 7] 6489 	ld	(hl), d
    00002767 C3r89r27         [10] 6490 	jp	00582$
    0000276A                       6491 00581$:
    0000276A DD 7E FA         [19] 6492 	ld	a, -6 (ix)
    0000276D C6 F4            [ 7] 6493 	add	a, #0xf4
    0000276F DD 77 FC         [19] 6494 	ld	-4 (ix), a
    00002772 DD 7E FB         [19] 6495 	ld	a, -5 (ix)
    00002775 CE FF            [ 7] 6496 	adc	a, #0xff
    00002777 DD 77 FD         [19] 6497 	ld	-3 (ix), a
    0000277A DD 4E FC         [19] 6498 	ld	c, -4 (ix)
    0000277D DD 46 FD         [19] 6499 	ld	b, -3 (ix)
    00002780 DD 6E F4         [19] 6500 	ld	l, -12 (ix)
    00002783 DD 66 F5         [19] 6501 	ld	h, -11 (ix)
    00002786 71               [ 7] 6502 	ld	(hl), c
    00002787 23               [ 6] 6503 	inc	hl
    00002788 70               [ 7] 6504 	ld	(hl), b
    00002789                       6505 00582$:
                                   6506 ;E:\Dropbox\FAUSTO\SVILUPPI\MSX\CODE\C\MSXgl\projects\exsoccer/exsoccer_s1_b2.c:1208: i16 dy = (i16)g_Players[playerId].TargetY - (i16)g_Players[i].Y;
    00002789 DD 6E F6         [19] 6507 	ld	l, -10 (ix)
    0000278C DD 66 F7         [19] 6508 	ld	h, -9 (ix)
    0000278F 4E               [ 7] 6509 	ld	c, (hl)
    00002790 23               [ 6] 6510 	inc	hl
    00002791 46               [ 7] 6511 	ld	b, (hl)
                                   6512 ;E:\Dropbox\FAUSTO\SVILUPPI\MSX\CODE\C\MSXgl\projects\exsoccer/exsoccer_s1_b2.c:1211: if (dy >= 0) g_Players[playerId].TargetY += 12; else g_Players[playerId].TargetY -= 12;
    00002792 DD CB F9 7E      [20] 6513 	bit	7, -7 (ix)
    00002796 20 11            [12] 6514 	jr	NZ, 00584$
    00002798 21 0C 00         [10] 6515 	ld	hl, #0x000c
    0000279B 09               [11] 6516 	add	hl, bc
    0000279C EB               [ 4] 6517 	ex	de, hl
    0000279D DD 6E F6         [19] 6518 	ld	l, -10 (ix)
    000027A0 DD 66 F7         [19] 6519 	ld	h, -9 (ix)
    000027A3 73               [ 7] 6520 	ld	(hl), e
    000027A4 23               [ 6] 6521 	inc	hl
    000027A5 72               [ 7] 6522 	ld	(hl), d
    000027A6 C3rBAr27         [10] 6523 	jp	00591$
    000027A9                       6524 00584$:
    000027A9 79               [ 4] 6525 	ld	a, c
    000027AA C6 F4            [ 7] 6526 	add	a, #0xf4
    000027AC 4F               [ 4] 6527 	ld	c, a
    000027AD 78               [ 4] 6528 	ld	a, b
    000027AE CE FF            [ 7] 6529 	adc	a, #0xff
    000027B0 47               [ 4] 6530 	ld	b, a
    000027B1 DD 6E F6         [19] 6531 	ld	l, -10 (ix)
    000027B4 DD 66 F7         [19] 6532 	ld	h, -9 (ix)
    000027B7 71               [ 7] 6533 	ld	(hl), c
    000027B8 23               [ 6] 6534 	inc	hl
    000027B9 70               [ 7] 6535 	ld	(hl), b
    000027BA                       6536 00591$:
                                   6537 ;E:\Dropbox\FAUSTO\SVILUPPI\MSX\CODE\C\MSXgl\projects\exsoccer/exsoccer_s1_b2.c:1203: for(u8 i=0; i<14; i++) {
    000027BA DD 34 FE         [23] 6538 	inc	-2 (ix)
    000027BD C3r69r26         [10] 6539 	jp	00608$
    000027C0                       6540 00609$:
                                   6541 ;E:\Dropbox\FAUSTO\SVILUPPI\MSX\CODE\C\MSXgl\projects\exsoccer/exsoccer_s1_b2.c:1216: }
    000027C0 DD F9            [10] 6542 	ld	sp, ix
    000027C2 DD E1            [14] 6543 	pop	ix
    000027C4 C9               [10] 6544 	ret
                                   6545 ;E:\Dropbox\FAUSTO\SVILUPPI\MSX\CODE\C\MSXgl\projects\exsoccer/exsoccer_s1_b2.c:1219: void PutBallOnPlayerFeet(u8 playerId){
                                   6546 ;	---------------------------------
                                   6547 ; Function PutBallOnPlayerFeet
                                   6548 ; ---------------------------------
    000027C5                       6549 _PutBallOnPlayerFeet::
    000027C5 DD E5            [15] 6550 	push	ix
    000027C7 DD 21 00 00      [14] 6551 	ld	ix,#0
    000027CB DD 39            [15] 6552 	add	ix,sp
    000027CD 21 CA FF         [10] 6553 	ld	hl, #-54
    000027D0 39               [11] 6554 	add	hl, sp
    000027D1 F9               [ 6] 6555 	ld	sp, hl
    000027D2 4F               [ 4] 6556 	ld	c, a
                                   6557 ;E:\Dropbox\FAUSTO\SVILUPPI\MSX\CODE\C\MSXgl\projects\exsoccer/exsoccer_s1_b2.c:1221: if (g_Ball.PossessionPlayerId != playerId) {
    000027D3 21r06r00         [10] 6558 	ld	hl, #(_g_Ball + 6)
    000027D6 46               [ 7] 6559 	ld	b, (hl)
                                   6560 ;E:\Dropbox\FAUSTO\SVILUPPI\MSX\CODE\C\MSXgl\projects\exsoccer/exsoccer_s1_b2.c:1223: g_Ball.LastTouchTeamId=g_Players[playerId].TeamId;
    000027D7 59               [ 4] 6561 	ld	e, c
    000027D8 16 00            [ 7] 6562 	ld	d, #0x00
    000027DA 6B               [ 4] 6563 	ld	l, e
    000027DB 62               [ 4] 6564 	ld	h, d
    000027DC 29               [11] 6565 	add	hl, hl
    000027DD 29               [11] 6566 	add	hl, hl
    000027DE 19               [11] 6567 	add	hl, de
    000027DF 29               [11] 6568 	add	hl, hl
    000027E0 29               [11] 6569 	add	hl, hl
    000027E1 19               [11] 6570 	add	hl, de
    000027E2 EB               [ 4] 6571 	ex	de, hl
                                   6572 ;E:\Dropbox\FAUSTO\SVILUPPI\MSX\CODE\C\MSXgl\projects\exsoccer/exsoccer_s1_b2.c:1221: if (g_Ball.PossessionPlayerId != playerId) {
    000027E3 79               [ 4] 6573 	ld	a, c
    000027E4 90               [ 4] 6574 	sub	a, b
    000027E5 28 28            [12] 6575 	jr	Z, 00102$
                                   6576 ;E:\Dropbox\FAUSTO\SVILUPPI\MSX\CODE\C\MSXgl\projects\exsoccer/exsoccer_s1_b2.c:1222: g_Ball.PossessionPlayerId=playerId;
    000027E7 21r06r00         [10] 6577 	ld	hl, #(_g_Ball + 6)
    000027EA 71               [ 7] 6578 	ld	(hl), c
                                   6579 ;E:\Dropbox\FAUSTO\SVILUPPI\MSX\CODE\C\MSXgl\projects\exsoccer/exsoccer_s1_b2.c:1223: g_Ball.LastTouchTeamId=g_Players[playerId].TeamId;
    000027EB FD 21r00r00      [14] 6580 	ld	iy, #_g_Players
    000027EF FD 19            [15] 6581 	add	iy, de
    000027F1 FD 7E 09         [19] 6582 	ld	a, 9 (iy)
    000027F4 32r0Er00         [13] 6583 	ld	(#(_g_Ball + 14)),a
                                   6584 ;E:\Dropbox\FAUSTO\SVILUPPI\MSX\CODE\C\MSXgl\projects\exsoccer/exsoccer_s1_b2.c:1224: g_Ball.PassTargetPlayerId = NO_VALUE; // Clear any pending pass
    000027F7 21r10r00         [10] 6585 	ld	hl, #(_g_Ball + 16)
    000027FA 36 FF            [10] 6586 	ld	(hl), #0xff
                                   6587 ;E:\Dropbox\FAUSTO\SVILUPPI\MSX\CODE\C\MSXgl\projects\exsoccer/exsoccer_s1_b2.c:1225: g_Ball.ShotActive = 0; // Clear any pending shot
    000027FC 21r1Br00         [10] 6588 	ld	hl, #(_g_Ball + 27)
    000027FF 36 00            [10] 6589 	ld	(hl), #0x00
                                   6590 ;E:\Dropbox\FAUSTO\SVILUPPI\MSX\CODE\C\MSXgl\projects\exsoccer/exsoccer_s1_b2.c:1226: SetPlayerBallPossession(g_Ball.PossessionPlayerId);
    00002801 D5               [11] 6591 	push	de
    00002802 79               [ 4] 6592 	ld	a, c
    00002803 CDr00r00         [17] 6593 	call	_SetPlayerBallPossession
    00002806 D1               [10] 6594 	pop	de
                                   6595 ;E:\Dropbox\FAUSTO\SVILUPPI\MSX\CODE\C\MSXgl\projects\exsoccer/exsoccer_s1_b2.c:1229: g_ActionCooldown = 30;
    00002807 FD 21r00r00      [14] 6596 	ld	iy, #_g_ActionCooldown
    0000280B FD 36 00 1E      [19] 6597 	ld	0 (iy), #0x1e
    0000280F                       6598 00102$:
                                   6599 ;E:\Dropbox\FAUSTO\SVILUPPI\MSX\CODE\C\MSXgl\projects\exsoccer/exsoccer_s1_b2.c:1234: const u8 BallBaseDistX[] = { 0, 0, 4, 6, 4, 0, 4, 6, 4 };
    0000280F DD 36 CA 00      [19] 6600 	ld	-54 (ix), #0x00
    00002813 DD 36 CB 00      [19] 6601 	ld	-53 (ix), #0x00
    00002817 DD 36 CC 04      [19] 6602 	ld	-52 (ix), #0x04
    0000281B DD 36 CD 06      [19] 6603 	ld	-51 (ix), #0x06
    0000281F DD 36 CE 04      [19] 6604 	ld	-50 (ix), #0x04
    00002823 DD 36 CF 00      [19] 6605 	ld	-49 (ix), #0x00
    00002827 DD 36 D0 04      [19] 6606 	ld	-48 (ix), #0x04
    0000282B DD 36 D1 06      [19] 6607 	ld	-47 (ix), #0x06
    0000282F DD 36 D2 04      [19] 6608 	ld	-46 (ix), #0x04
                                   6609 ;E:\Dropbox\FAUSTO\SVILUPPI\MSX\CODE\C\MSXgl\projects\exsoccer/exsoccer_s1_b2.c:1235: const u8 BallBaseDistY[] = { 0, 6, 4, 0, 4, 6, 4, 2, 4 };
    00002833 21 09 00         [10] 6610 	ld	hl, #9
    00002836 39               [11] 6611 	add	hl, sp
    00002837 4D               [ 4] 6612 	ld	c, l
    00002838 44               [ 4] 6613 	ld	b, h
    00002839 AF               [ 4] 6614 	xor	a, a
    0000283A 02               [ 7] 6615 	ld	(bc), a
    0000283B DD 36 D4 06      [19] 6616 	ld	-44 (ix), #0x06
    0000283F DD 36 D5 04      [19] 6617 	ld	-43 (ix), #0x04
    00002843 DD 36 D6 00      [19] 6618 	ld	-42 (ix), #0x00
    00002847 DD 36 D7 04      [19] 6619 	ld	-41 (ix), #0x04
    0000284B DD 36 D8 06      [19] 6620 	ld	-40 (ix), #0x06
    0000284F DD 36 D9 04      [19] 6621 	ld	-39 (ix), #0x04
    00002853 DD 36 DA 02      [19] 6622 	ld	-38 (ix), #0x02
    00002857 DD 36 DB 04      [19] 6623 	ld	-37 (ix), #0x04
                                   6624 ;E:\Dropbox\FAUSTO\SVILUPPI\MSX\CODE\C\MSXgl\projects\exsoccer/exsoccer_s1_b2.c:1237: const u8 DribbleAnimOffsets[] = {5, 4, 2, 0};
    0000285B DD 36 DC 05      [19] 6625 	ld	-36 (ix), #0x05
    0000285F DD 36 DD 04      [19] 6626 	ld	-35 (ix), #0x04
    00002863 DD 36 DE 02      [19] 6627 	ld	-34 (ix), #0x02
    00002867 DD 36 DF 00      [19] 6628 	ld	-33 (ix), #0x00
                                   6629 ;E:\Dropbox\FAUSTO\SVILUPPI\MSX\CODE\C\MSXgl\projects\exsoccer/exsoccer_s1_b2.c:1238: const u8 DribbleAnimOffsetsDiag[] = {3, 3, 1, 0};
    0000286B DD 36 E0 03      [19] 6630 	ld	-32 (ix), #0x03
    0000286F DD 36 E1 03      [19] 6631 	ld	-31 (ix), #0x03
    00002873 DD 36 E2 01      [19] 6632 	ld	-30 (ix), #0x01
    00002877 DD 36 E3 00      [19] 6633 	ld	-29 (ix), #0x00
                                   6634 ;E:\Dropbox\FAUSTO\SVILUPPI\MSX\CODE\C\MSXgl\projects\exsoccer/exsoccer_s1_b2.c:1242: const i8 BallAlignCorrectX[] = { 0, 0, 0, 0, 2, 0, -2, 0, 0 };
    0000287B DD 36 E4 00      [19] 6635 	ld	-28 (ix), #0x00
    0000287F DD 36 E5 00      [19] 6636 	ld	-27 (ix), #0x00
    00002883 DD 36 E6 00      [19] 6637 	ld	-26 (ix), #0x00
    00002887 DD 36 E7 00      [19] 6638 	ld	-25 (ix), #0x00
    0000288B DD 36 E8 02      [19] 6639 	ld	-24 (ix), #0x02
    0000288F DD 36 E9 00      [19] 6640 	ld	-23 (ix), #0x00
    00002893 DD 36 EA FE      [19] 6641 	ld	-22 (ix), #0xfe
    00002897 DD 36 EB 00      [19] 6642 	ld	-21 (ix), #0x00
    0000289B DD 36 EC 00      [19] 6643 	ld	-20 (ix), #0x00
                                   6644 ;E:\Dropbox\FAUSTO\SVILUPPI\MSX\CODE\C\MSXgl\projects\exsoccer/exsoccer_s1_b2.c:1243: const i8 BallAlignCorrectY[] = { 0, 0, 0, 4, 2, 4, 2, 4, 0 };
    0000289F DD 36 ED 00      [19] 6645 	ld	-19 (ix), #0x00
    000028A3 DD 36 EE 00      [19] 6646 	ld	-18 (ix), #0x00
    000028A7 DD 36 EF 00      [19] 6647 	ld	-17 (ix), #0x00
    000028AB DD 36 F0 04      [19] 6648 	ld	-16 (ix), #0x04
    000028AF DD 36 F1 02      [19] 6649 	ld	-15 (ix), #0x02
    000028B3 DD 36 F2 04      [19] 6650 	ld	-14 (ix), #0x04
    000028B7 DD 36 F3 02      [19] 6651 	ld	-13 (ix), #0x02
    000028BB DD 36 F4 04      [19] 6652 	ld	-12 (ix), #0x04
    000028BF DD 36 F5 00      [19] 6653 	ld	-11 (ix), #0x00
                                   6654 ;E:\Dropbox\FAUSTO\SVILUPPI\MSX\CODE\C\MSXgl\projects\exsoccer/exsoccer_s1_b2.c:1245: u8 dir = g_Players[playerId].Direction;
    000028C3 21r00r00         [10] 6655 	ld	hl, #_g_Players
    000028C6 19               [11] 6656 	add	hl, de
    000028C7 DD 75 F6         [19] 6657 	ld	-10 (ix), l
    000028CA DD 74 F7         [19] 6658 	ld	-9 (ix), h
    000028CD 11 0A 00         [10] 6659 	ld	de, #10
    000028D0 19               [11] 6660 	add	hl, de
    000028D1 7E               [ 7] 6661 	ld	a, (hl)
                                   6662 ;E:\Dropbox\FAUSTO\SVILUPPI\MSX\CODE\C\MSXgl\projects\exsoccer/exsoccer_s1_b2.c:1246: if(dir == DIRECTION_NONE) dir = g_Players[playerId].PreviousDirection; // Fallback se fermo
    000028D2 DD 77 F8         [19] 6663 	ld	-8 (ix), a
    000028D5 B7               [ 4] 6664 	or	a, a
    000028D6 20 0E            [12] 6665 	jr	NZ, 00104$
    000028D8 DD 5E F6         [19] 6666 	ld	e, -10 (ix)
    000028DB DD 56 F7         [19] 6667 	ld	d, -9 (ix)
    000028DE 21 0B 00         [10] 6668 	ld	hl, #11
    000028E1 19               [11] 6669 	add	hl, de
    000028E2 7E               [ 7] 6670 	ld	a, (hl)
    000028E3 DD 77 F8         [19] 6671 	ld	-8 (ix), a
    000028E6                       6672 00104$:
                                   6673 ;E:\Dropbox\FAUSTO\SVILUPPI\MSX\CODE\C\MSXgl\projects\exsoccer/exsoccer_s1_b2.c:1249: u8 calcDir = dir;
    000028E6 DD 7E F8         [19] 6674 	ld	a, -8 (ix)
    000028E9 DD 77 F9         [19] 6675 	ld	-7 (ix), a
                                   6676 ;E:\Dropbox\FAUSTO\SVILUPPI\MSX\CODE\C\MSXgl\projects\exsoccer/exsoccer_s1_b2.c:1250: bool isGkSideMove = false;
    000028EC DD 36 FA 00      [19] 6677 	ld	-6 (ix), #0x00
                                   6678 ;E:\Dropbox\FAUSTO\SVILUPPI\MSX\CODE\C\MSXgl\projects\exsoccer/exsoccer_s1_b2.c:1251: if (g_Players[playerId].Role == PLAYER_ROLE_GOALKEEPER && (dir == DIRECTION_LEFT || dir == DIRECTION_RIGHT)) {
    000028F0 DD 5E F6         [19] 6679 	ld	e, -10 (ix)
    000028F3 DD 56 F7         [19] 6680 	ld	d, -9 (ix)
    000028F6 21 0D 00         [10] 6681 	ld	hl, #13
    000028F9 19               [11] 6682 	add	hl, de
    000028FA 7E               [ 7] 6683 	ld	a, (hl)
    000028FB DD 77 FB         [19] 6684 	ld	-5 (ix), a
    000028FE B7               [ 4] 6685 	or	a, a
    000028FF 20 2B            [12] 6686 	jr	NZ, 00109$
    00002901 DD 7E F8         [19] 6687 	ld	a, -8 (ix)
    00002904 D6 07            [ 7] 6688 	sub	a, #0x07
    00002906 28 07            [12] 6689 	jr	Z, 00108$
    00002908 DD 7E F8         [19] 6690 	ld	a, -8 (ix)
    0000290B D6 03            [ 7] 6691 	sub	a, #0x03
    0000290D 20 1D            [12] 6692 	jr	NZ, 00109$
    0000290F                       6693 00108$:
                                   6694 ;E:\Dropbox\FAUSTO\SVILUPPI\MSX\CODE\C\MSXgl\projects\exsoccer/exsoccer_s1_b2.c:1252: isGkSideMove = true;
    0000290F DD 36 FA 01      [19] 6695 	ld	-6 (ix), #0x01
                                   6696 ;E:\Dropbox\FAUSTO\SVILUPPI\MSX\CODE\C\MSXgl\projects\exsoccer/exsoccer_s1_b2.c:1253: if (g_Players[playerId].TeamId == TEAM_1) calcDir = DIRECTION_UP;
    00002913 DD 5E F6         [19] 6697 	ld	e, -10 (ix)
    00002916 DD 56 F7         [19] 6698 	ld	d, -9 (ix)
    00002919 21 09 00         [10] 6699 	ld	hl, #9
    0000291C 19               [11] 6700 	add	hl, de
    0000291D 7E               [ 7] 6701 	ld	a, (hl)
    0000291E 3D               [ 4] 6702 	dec	a
    0000291F 20 07            [12] 6703 	jr	NZ, 00106$
    00002921 DD 36 F9 01      [19] 6704 	ld	-7 (ix), #0x01
    00002925 C3r2Cr29         [10] 6705 	jp	00109$
    00002928                       6706 00106$:
                                   6707 ;E:\Dropbox\FAUSTO\SVILUPPI\MSX\CODE\C\MSXgl\projects\exsoccer/exsoccer_s1_b2.c:1254: else calcDir = DIRECTION_DOWN;
    00002928 DD 36 F9 05      [19] 6708 	ld	-7 (ix), #0x05
    0000292C                       6709 00109$:
                                   6710 ;E:\Dropbox\FAUSTO\SVILUPPI\MSX\CODE\C\MSXgl\projects\exsoccer/exsoccer_s1_b2.c:1258: u8 animStep = g_Ball.KickMoveState;
    0000292C 21r0Dr00         [10] 6711 	ld	hl, #_g_Ball + 13
    0000292F 5E               [ 7] 6712 	ld	e, (hl)
                                   6713 ;E:\Dropbox\FAUSTO\SVILUPPI\MSX\CODE\C\MSXgl\projects\exsoccer/exsoccer_s1_b2.c:1259: if (animStep > 3) animStep = 3; // Default/Reset to 3 (Close) if NO_VALUE (255)
    00002930 3E 03            [ 7] 6714 	ld	a, #0x03
    00002932 93               [ 4] 6715 	sub	a, e
    00002933 30 02            [12] 6716 	jr	NC, 00113$
    00002935 1E 03            [ 7] 6717 	ld	e, #0x03
    00002937                       6718 00113$:
                                   6719 ;E:\Dropbox\FAUSTO\SVILUPPI\MSX\CODE\C\MSXgl\projects\exsoccer/exsoccer_s1_b2.c:1261: u8 currentOffset = DribbleAnimOffsets[animStep];
    00002937 D5               [11] 6720 	push	de
    00002938 16 00            [ 7] 6721 	ld	d, #0x00
    0000293A 21 14 00         [10] 6722 	ld	hl, #20
    0000293D 39               [11] 6723 	add	hl, sp
    0000293E 19               [11] 6724 	add	hl, de
    0000293F D1               [10] 6725 	pop	de
    00002940 7E               [ 7] 6726 	ld	a, (hl)
    00002941 DD 77 FC         [19] 6727 	ld	-4 (ix), a
                                   6728 ;E:\Dropbox\FAUSTO\SVILUPPI\MSX\CODE\C\MSXgl\projects\exsoccer/exsoccer_s1_b2.c:1262: u8 currentOffsetDiag = DribbleAnimOffsetsDiag[animStep];
    00002944 16 00            [ 7] 6729 	ld	d, #0x00
    00002946 21 16 00         [10] 6730 	ld	hl, #22
    00002949 39               [11] 6731 	add	hl, sp
    0000294A 19               [11] 6732 	add	hl, de
    0000294B 7E               [ 7] 6733 	ld	a, (hl)
    0000294C DD 77 FD         [19] 6734 	ld	-3 (ix), a
                                   6735 ;E:\Dropbox\FAUSTO\SVILUPPI\MSX\CODE\C\MSXgl\projects\exsoccer/exsoccer_s1_b2.c:1264: u8 distX = BallBaseDistX[calcDir] + ((calcDir==DIRECTION_UP || calcDir==DIRECTION_DOWN) ? 0 : (calcDir == DIRECTION_LEFT || calcDir == DIRECTION_RIGHT ? currentOffset : currentOffsetDiag));
    0000294F DD 5E F9         [19] 6736 	ld	e, -7 (ix)
    00002952 16 00            [ 7] 6737 	ld	d, #0x00
    00002954 21 00 00         [10] 6738 	ld	hl, #0
    00002957 39               [11] 6739 	add	hl, sp
    00002958 19               [11] 6740 	add	hl, de
    00002959 6E               [ 7] 6741 	ld	l, (hl)
                                   6742 ;	spillPairReg hl
    0000295A DD 7E F9         [19] 6743 	ld	a, -7 (ix)
    0000295D 3D               [ 4] 6744 	dec	a
    0000295E 3E 01            [ 7] 6745 	ld	a, #0x01
    00002960 28 01            [12] 6746 	jr	Z, 00257$
    00002962 AF               [ 4] 6747 	xor	a, a
    00002963                       6748 00257$:
    00002963 5F               [ 4] 6749 	ld	e, a
    00002964 DD 7E F9         [19] 6750 	ld	a, -7 (ix)
    00002967 D6 07            [ 7] 6751 	sub	a, #0x07
    00002969 3E 01            [ 7] 6752 	ld	a, #0x01
    0000296B 28 01            [12] 6753 	jr	Z, 00259$
    0000296D AF               [ 4] 6754 	xor	a, a
    0000296E                       6755 00259$:
    0000296E DD 77 FE         [19] 6756 	ld	-2 (ix), a
    00002971 CB 43            [ 8] 6757 	bit	0, e
    00002973 20 07            [12] 6758 	jr	NZ, 00137$
    00002975 DD 7E F9         [19] 6759 	ld	a, -7 (ix)
    00002978 D6 05            [ 7] 6760 	sub	a, #0x05
    0000297A 20 04            [12] 6761 	jr	NZ, 00134$
    0000297C                       6762 00137$:
    0000297C AF               [ 4] 6763 	xor	a, a
    0000297D C3r96r29         [10] 6764 	jp	00135$
    00002980                       6765 00134$:
    00002980 DD CB FE 46      [20] 6766 	bit	0, -2 (ix)
    00002984 20 07            [12] 6767 	jr	NZ, 00142$
    00002986 DD 7E F9         [19] 6768 	ld	a, -7 (ix)
    00002989 D6 03            [ 7] 6769 	sub	a, #0x03
    0000298B 20 06            [12] 6770 	jr	NZ, 00139$
    0000298D                       6771 00142$:
    0000298D DD 7E FC         [19] 6772 	ld	a, -4 (ix)
    00002990 C3r96r29         [10] 6773 	jp	00140$
    00002993                       6774 00139$:
    00002993 DD 7E FD         [19] 6775 	ld	a, -3 (ix)
    00002996                       6776 00140$:
    00002996                       6777 00135$:
    00002996 85               [ 4] 6778 	add	a, l
    00002997 DD 77 FF         [19] 6779 	ld	-1 (ix), a
                                   6780 ;E:\Dropbox\FAUSTO\SVILUPPI\MSX\CODE\C\MSXgl\projects\exsoccer/exsoccer_s1_b2.c:1265: u8 distY = BallBaseDistY[calcDir] + ((calcDir==DIRECTION_LEFT || calcDir==DIRECTION_RIGHT) ? 0 : (calcDir == DIRECTION_UP || calcDir == DIRECTION_DOWN ? currentOffset : currentOffsetDiag));
    0000299A DD 6E F9         [19] 6781 	ld	l, -7 (ix)
    0000299D 26 00            [ 7] 6782 	ld	h, #0x00
    0000299F 09               [11] 6783 	add	hl, bc
    000029A0 6E               [ 7] 6784 	ld	l, (hl)
                                   6785 ;	spillPairReg hl
    000029A1 DD CB FE 46      [20] 6786 	bit	0, -2 (ix)
    000029A5 20 07            [12] 6787 	jr	NZ, 00147$
    000029A7 DD 7E F9         [19] 6788 	ld	a, -7 (ix)
    000029AA D6 03            [ 7] 6789 	sub	a, #0x03
    000029AC 20 06            [12] 6790 	jr	NZ, 00144$
    000029AE                       6791 00147$:
    000029AE 01 00 00         [10] 6792 	ld	bc, #0x0000
    000029B1 C3rCAr29         [10] 6793 	jp	00145$
    000029B4                       6794 00144$:
    000029B4 CB 43            [ 8] 6795 	bit	0, e
    000029B6 20 07            [12] 6796 	jr	NZ, 00152$
    000029B8 DD 7E F9         [19] 6797 	ld	a, -7 (ix)
    000029BB D6 05            [ 7] 6798 	sub	a, #0x05
    000029BD 20 06            [12] 6799 	jr	NZ, 00149$
    000029BF                       6800 00152$:
    000029BF DD 4E FC         [19] 6801 	ld	c, -4 (ix)
    000029C2 C3rC8r29         [10] 6802 	jp	00150$
    000029C5                       6803 00149$:
    000029C5 DD 4E FD         [19] 6804 	ld	c, -3 (ix)
    000029C8                       6805 00150$:
    000029C8 06 00            [ 7] 6806 	ld	b, #0x00
    000029CA                       6807 00145$:
    000029CA 09               [11] 6808 	add	hl, bc
    000029CB DD 75 FE         [19] 6809 	ld	-2 (ix), l
                                   6810 ;E:\Dropbox\FAUSTO\SVILUPPI\MSX\CODE\C\MSXgl\projects\exsoccer/exsoccer_s1_b2.c:1268: if (g_Players[playerId].Role == PLAYER_ROLE_GOALKEEPER && g_Players[playerId].TeamId == TEAM_2) {
    000029CE DD 7E FB         [19] 6811 	ld	a, -5 (ix)
    000029D1 B7               [ 4] 6812 	or	a, a
    000029D2 20 24            [12] 6813 	jr	NZ, 00115$
    000029D4 DD 4E F6         [19] 6814 	ld	c, -10 (ix)
    000029D7 DD 46 F7         [19] 6815 	ld	b, -9 (ix)
    000029DA 21 09 00         [10] 6816 	ld	hl, #9
    000029DD 09               [11] 6817 	add	hl, bc
    000029DE 7E               [ 7] 6818 	ld	a, (hl)
    000029DF D6 02            [ 7] 6819 	sub	a, #0x02
    000029E1 20 15            [12] 6820 	jr	NZ, 00115$
                                   6821 ;E:\Dropbox\FAUSTO\SVILUPPI\MSX\CODE\C\MSXgl\projects\exsoccer/exsoccer_s1_b2.c:1269: distY = (distY > 2) ? (distY - 2) : distY; // bring ball 2px closer vertically
    000029E3 3E 02            [ 7] 6822 	ld	a, #0x02
    000029E5 DD 96 FE         [19] 6823 	sub	a, -2 (ix)
    000029E8 30 08            [12] 6824 	jr	NC, 00154$
    000029EA DD 7E FE         [19] 6825 	ld	a, -2 (ix)
    000029ED 3D               [ 4] 6826 	dec	a
    000029EE 3D               [ 4] 6827 	dec	a
    000029EF C3rF5r29         [10] 6828 	jp	00155$
    000029F2                       6829 00154$:
    000029F2 DD 7E FE         [19] 6830 	ld	a, -2 (ix)
    000029F5                       6831 00155$:
    000029F5 DD 77 FE         [19] 6832 	ld	-2 (ix), a
    000029F8                       6833 00115$:
                                   6834 ;E:\Dropbox\FAUSTO\SVILUPPI\MSX\CODE\C\MSXgl\projects\exsoccer/exsoccer_s1_b2.c:1272: i8 extraX = 0;
    000029F8 0E 00            [ 7] 6835 	ld	c, #0x00
                                   6836 ;E:\Dropbox\FAUSTO\SVILUPPI\MSX\CODE\C\MSXgl\projects\exsoccer/exsoccer_s1_b2.c:1273: if (g_Players[playerId].Role == PLAYER_ROLE_GOALKEEPER && g_Players[playerId].TeamId == TEAM_1) {
    000029FA DD 7E FB         [19] 6837 	ld	a, -5 (ix)
    000029FD B7               [ 4] 6838 	or	a, a
    000029FE 20 1C            [12] 6839 	jr	NZ, 00121$
    00002A00 DD 5E F6         [19] 6840 	ld	e, -10 (ix)
    00002A03 DD 56 F7         [19] 6841 	ld	d, -9 (ix)
    00002A06 21 09 00         [10] 6842 	ld	hl, #9
    00002A09 19               [11] 6843 	add	hl, de
    00002A0A 7E               [ 7] 6844 	ld	a, (hl)
    00002A0B 3D               [ 4] 6845 	dec	a
    00002A0C 20 0E            [12] 6846 	jr	NZ, 00121$
                                   6847 ;E:\Dropbox\FAUSTO\SVILUPPI\MSX\CODE\C\MSXgl\projects\exsoccer/exsoccer_s1_b2.c:1274: if (!isGkSideMove && !g_GkIsGroundKick) extraX = -15; // Only offset if NOT ground kick
    00002A0E DD 7E FA         [19] 6848 	ld	a, -6 (ix)
    00002A11 B7               [ 4] 6849 	or	a, a
    00002A12 20 08            [12] 6850 	jr	NZ, 00121$
    00002A14 3Ar00r00         [13] 6851 	ld	a, (_g_GkIsGroundKick+0)
    00002A17 B7               [ 4] 6852 	or	a, a
    00002A18 20 02            [12] 6853 	jr	NZ, 00121$
    00002A1A 0E F1            [ 7] 6854 	ld	c, #0xf1
    00002A1C                       6855 00121$:
                                   6856 ;E:\Dropbox\FAUSTO\SVILUPPI\MSX\CODE\C\MSXgl\projects\exsoccer/exsoccer_s1_b2.c:1277: switch (calcDir){
    00002A1C 3E 08            [ 7] 6857 	ld	a, #0x08
    00002A1E DD 96 F9         [19] 6858 	sub	a, -7 (ix)
    00002A21 DArD6r2C         [10] 6859 	jp	C, 00131$
    00002A24 DD 5E F9         [19] 6860 	ld	e, -7 (ix)
    00002A27 16 00            [ 7] 6861 	ld	d, #0x00
    00002A29 21r30r2A         [10] 6862 	ld	hl, #00272$
    00002A2C 19               [11] 6863 	add	hl, de
    00002A2D 19               [11] 6864 	add	hl, de
    00002A2E 19               [11] 6865 	add	hl, de
    00002A2F E9               [ 4] 6866 	jp	(hl)
    00002A30                       6867 00272$:
    00002A30 C3rD6r2C         [10] 6868 	jp	00131$
    00002A33 C3r4Br2A         [10] 6869 	jp	00123$
    00002A36 C3rD3r2B         [10] 6870 	jp	00128$
    00002A39 C3r33r2B         [10] 6871 	jp	00126$
    00002A3C C3r7Br2C         [10] 6872 	jp	00130$
    00002A3F C3r9Er2A         [10] 6873 	jp	00124$
    00002A42 C3r27r2C         [10] 6874 	jp	00129$
    00002A45 C3rE7r2A         [10] 6875 	jp	00125$
    00002A48 C3r7Cr2B         [10] 6876 	jp	00127$
                                   6877 ;E:\Dropbox\FAUSTO\SVILUPPI\MSX\CODE\C\MSXgl\projects\exsoccer/exsoccer_s1_b2.c:1278: case DIRECTION_UP:
    00002A4B                       6878 00123$:
                                   6879 ;E:\Dropbox\FAUSTO\SVILUPPI\MSX\CODE\C\MSXgl\projects\exsoccer/exsoccer_s1_b2.c:1279: g_Ball.X=g_Players[playerId].X + BallAlignCorrectX[calcDir] + extraX;
    00002A4B DD 6E F6         [19] 6880 	ld	l, -10 (ix)
                                   6881 ;	spillPairReg hl
                                   6882 ;	spillPairReg hl
    00002A4E DD 66 F7         [19] 6883 	ld	h, -9 (ix)
                                   6884 ;	spillPairReg hl
                                   6885 ;	spillPairReg hl
    00002A51 23               [ 6] 6886 	inc	hl
    00002A52 23               [ 6] 6887 	inc	hl
    00002A53 5E               [ 7] 6888 	ld	e, (hl)
    00002A54 23               [ 6] 6889 	inc	hl
    00002A55 56               [ 7] 6890 	ld	d, (hl)
    00002A56 D5               [11] 6891 	push	de
    00002A57 DD 5E F9         [19] 6892 	ld	e, -7 (ix)
    00002A5A 16 00            [ 7] 6893 	ld	d, #0x00
    00002A5C 21 1C 00         [10] 6894 	ld	hl, #28
    00002A5F 39               [11] 6895 	add	hl, sp
    00002A60 19               [11] 6896 	add	hl, de
    00002A61 D1               [10] 6897 	pop	de
    00002A62 7E               [ 7] 6898 	ld	a, (hl)
    00002A63 6F               [ 4] 6899 	ld	l, a
                                   6900 ;	spillPairReg hl
                                   6901 ;	spillPairReg hl
    00002A64 07               [ 4] 6902 	rlca
    00002A65 9F               [ 4] 6903 	sbc	a, a
    00002A66 67               [ 4] 6904 	ld	h, a
                                   6905 ;	spillPairReg hl
                                   6906 ;	spillPairReg hl
    00002A67 19               [11] 6907 	add	hl, de
    00002A68 79               [ 4] 6908 	ld	a, c
    00002A69 07               [ 4] 6909 	rlca
    00002A6A 9F               [ 4] 6910 	sbc	a, a
    00002A6B 47               [ 4] 6911 	ld	b, a
    00002A6C 09               [11] 6912 	add	hl, bc
    00002A6D EB               [ 4] 6913 	ex	de, hl
    00002A6E ED 53r02r00      [20] 6914 	ld	((_g_Ball + 2)), de
                                   6915 ;E:\Dropbox\FAUSTO\SVILUPPI\MSX\CODE\C\MSXgl\projects\exsoccer/exsoccer_s1_b2.c:1280: g_Ball.Y=g_Players[playerId].Y - distY + BallAlignCorrectY[calcDir];
    00002A72 DD 6E F6         [19] 6916 	ld	l, -10 (ix)
    00002A75 DD 66 F7         [19] 6917 	ld	h, -9 (ix)
    00002A78 4E               [ 7] 6918 	ld	c, (hl)
    00002A79 23               [ 6] 6919 	inc	hl
    00002A7A 46               [ 7] 6920 	ld	b, (hl)
    00002A7B DD 5E FE         [19] 6921 	ld	e, -2 (ix)
    00002A7E 16 00            [ 7] 6922 	ld	d, #0x00
    00002A80 79               [ 4] 6923 	ld	a, c
    00002A81 93               [ 4] 6924 	sub	a, e
    00002A82 4F               [ 4] 6925 	ld	c, a
    00002A83 78               [ 4] 6926 	ld	a, b
    00002A84 9A               [ 4] 6927 	sbc	a, d
    00002A85 47               [ 4] 6928 	ld	b, a
    00002A86 DD 5E F9         [19] 6929 	ld	e, -7 (ix)
    00002A89 16 00            [ 7] 6930 	ld	d, #0x00
    00002A8B 21 23 00         [10] 6931 	ld	hl, #35
    00002A8E 39               [11] 6932 	add	hl, sp
    00002A8F 19               [11] 6933 	add	hl, de
    00002A90 7E               [ 7] 6934 	ld	a, (hl)
    00002A91 6F               [ 4] 6935 	ld	l, a
                                   6936 ;	spillPairReg hl
                                   6937 ;	spillPairReg hl
    00002A92 07               [ 4] 6938 	rlca
    00002A93 9F               [ 4] 6939 	sbc	a, a
    00002A94 67               [ 4] 6940 	ld	h, a
                                   6941 ;	spillPairReg hl
                                   6942 ;	spillPairReg hl
    00002A95 09               [11] 6943 	add	hl, bc
    00002A96 EB               [ 4] 6944 	ex	de, hl
    00002A97 ED 53r00r00      [20] 6945 	ld	(_g_Ball), de
                                   6946 ;E:\Dropbox\FAUSTO\SVILUPPI\MSX\CODE\C\MSXgl\projects\exsoccer/exsoccer_s1_b2.c:1281: break;
    00002A9B C3rD6r2C         [10] 6947 	jp	00131$
                                   6948 ;E:\Dropbox\FAUSTO\SVILUPPI\MSX\CODE\C\MSXgl\projects\exsoccer/exsoccer_s1_b2.c:1282: case DIRECTION_DOWN:
    00002A9E                       6949 00124$:
                                   6950 ;E:\Dropbox\FAUSTO\SVILUPPI\MSX\CODE\C\MSXgl\projects\exsoccer/exsoccer_s1_b2.c:1283: g_Ball.X=g_Players[playerId].X + BallAlignCorrectX[calcDir];
    00002A9E DD 6E F6         [19] 6951 	ld	l, -10 (ix)
                                   6952 ;	spillPairReg hl
                                   6953 ;	spillPairReg hl
    00002AA1 DD 66 F7         [19] 6954 	ld	h, -9 (ix)
                                   6955 ;	spillPairReg hl
                                   6956 ;	spillPairReg hl
    00002AA4 23               [ 6] 6957 	inc	hl
    00002AA5 23               [ 6] 6958 	inc	hl
    00002AA6 4E               [ 7] 6959 	ld	c, (hl)
    00002AA7 23               [ 6] 6960 	inc	hl
    00002AA8 46               [ 7] 6961 	ld	b, (hl)
    00002AA9 DD 5E F9         [19] 6962 	ld	e, -7 (ix)
    00002AAC 16 00            [ 7] 6963 	ld	d, #0x00
    00002AAE 21 1A 00         [10] 6964 	ld	hl, #26
    00002AB1 39               [11] 6965 	add	hl, sp
    00002AB2 19               [11] 6966 	add	hl, de
    00002AB3 7E               [ 7] 6967 	ld	a, (hl)
    00002AB4 6F               [ 4] 6968 	ld	l, a
                                   6969 ;	spillPairReg hl
                                   6970 ;	spillPairReg hl
    00002AB5 07               [ 4] 6971 	rlca
    00002AB6 9F               [ 4] 6972 	sbc	a, a
    00002AB7 67               [ 4] 6973 	ld	h, a
                                   6974 ;	spillPairReg hl
                                   6975 ;	spillPairReg hl
    00002AB8 09               [11] 6976 	add	hl, bc
    00002AB9 EB               [ 4] 6977 	ex	de, hl
    00002ABA ED 53r02r00      [20] 6978 	ld	((_g_Ball + 2)), de
                                   6979 ;E:\Dropbox\FAUSTO\SVILUPPI\MSX\CODE\C\MSXgl\projects\exsoccer/exsoccer_s1_b2.c:1284: g_Ball.Y=g_Players[playerId].Y + distY + BallAlignCorrectY[calcDir];
    00002ABE DD 6E F6         [19] 6980 	ld	l, -10 (ix)
    00002AC1 DD 66 F7         [19] 6981 	ld	h, -9 (ix)
    00002AC4 4E               [ 7] 6982 	ld	c, (hl)
    00002AC5 23               [ 6] 6983 	inc	hl
    00002AC6 46               [ 7] 6984 	ld	b, (hl)
    00002AC7 DD 6E FE         [19] 6985 	ld	l, -2 (ix)
                                   6986 ;	spillPairReg hl
                                   6987 ;	spillPairReg hl
    00002ACA 26 00            [ 7] 6988 	ld	h, #0x00
                                   6989 ;	spillPairReg hl
                                   6990 ;	spillPairReg hl
    00002ACC 09               [11] 6991 	add	hl, bc
    00002ACD 4D               [ 4] 6992 	ld	c, l
    00002ACE 44               [ 4] 6993 	ld	b, h
    00002ACF DD 5E F9         [19] 6994 	ld	e, -7 (ix)
    00002AD2 16 00            [ 7] 6995 	ld	d, #0x00
    00002AD4 21 23 00         [10] 6996 	ld	hl, #35
    00002AD7 39               [11] 6997 	add	hl, sp
    00002AD8 19               [11] 6998 	add	hl, de
    00002AD9 7E               [ 7] 6999 	ld	a, (hl)
    00002ADA 6F               [ 4] 7000 	ld	l, a
                                   7001 ;	spillPairReg hl
                                   7002 ;	spillPairReg hl
    00002ADB 07               [ 4] 7003 	rlca
    00002ADC 9F               [ 4] 7004 	sbc	a, a
    00002ADD 67               [ 4] 7005 	ld	h, a
                                   7006 ;	spillPairReg hl
                                   7007 ;	spillPairReg hl
    00002ADE 09               [11] 7008 	add	hl, bc
    00002ADF EB               [ 4] 7009 	ex	de, hl
    00002AE0 ED 53r00r00      [20] 7010 	ld	(_g_Ball), de
                                   7011 ;E:\Dropbox\FAUSTO\SVILUPPI\MSX\CODE\C\MSXgl\projects\exsoccer/exsoccer_s1_b2.c:1285: break;
    00002AE4 C3rD6r2C         [10] 7012 	jp	00131$
                                   7013 ;E:\Dropbox\FAUSTO\SVILUPPI\MSX\CODE\C\MSXgl\projects\exsoccer/exsoccer_s1_b2.c:1286: case DIRECTION_LEFT:
    00002AE7                       7014 00125$:
                                   7015 ;E:\Dropbox\FAUSTO\SVILUPPI\MSX\CODE\C\MSXgl\projects\exsoccer/exsoccer_s1_b2.c:1287: g_Ball.X=g_Players[playerId].X - distX + BallAlignCorrectX[calcDir];
    00002AE7 DD 6E F6         [19] 7016 	ld	l, -10 (ix)
                                   7017 ;	spillPairReg hl
                                   7018 ;	spillPairReg hl
    00002AEA DD 66 F7         [19] 7019 	ld	h, -9 (ix)
                                   7020 ;	spillPairReg hl
                                   7021 ;	spillPairReg hl
    00002AED 23               [ 6] 7022 	inc	hl
    00002AEE 23               [ 6] 7023 	inc	hl
    00002AEF 4E               [ 7] 7024 	ld	c, (hl)
    00002AF0 23               [ 6] 7025 	inc	hl
    00002AF1 46               [ 7] 7026 	ld	b, (hl)
    00002AF2 DD 5E FF         [19] 7027 	ld	e, -1 (ix)
    00002AF5 16 00            [ 7] 7028 	ld	d, #0x00
    00002AF7 79               [ 4] 7029 	ld	a, c
    00002AF8 93               [ 4] 7030 	sub	a, e
    00002AF9 4F               [ 4] 7031 	ld	c, a
    00002AFA 78               [ 4] 7032 	ld	a, b
    00002AFB 9A               [ 4] 7033 	sbc	a, d
    00002AFC 47               [ 4] 7034 	ld	b, a
    00002AFD DD 5E F9         [19] 7035 	ld	e, -7 (ix)
    00002B00 16 00            [ 7] 7036 	ld	d, #0x00
    00002B02 21 1A 00         [10] 7037 	ld	hl, #26
    00002B05 39               [11] 7038 	add	hl, sp
    00002B06 19               [11] 7039 	add	hl, de
    00002B07 7E               [ 7] 7040 	ld	a, (hl)
    00002B08 6F               [ 4] 7041 	ld	l, a
                                   7042 ;	spillPairReg hl
                                   7043 ;	spillPairReg hl
    00002B09 07               [ 4] 7044 	rlca
    00002B0A 9F               [ 4] 7045 	sbc	a, a
    00002B0B 67               [ 4] 7046 	ld	h, a
                                   7047 ;	spillPairReg hl
                                   7048 ;	spillPairReg hl
    00002B0C 09               [11] 7049 	add	hl, bc
    00002B0D EB               [ 4] 7050 	ex	de, hl
    00002B0E ED 53r02r00      [20] 7051 	ld	((_g_Ball + 2)), de
                                   7052 ;E:\Dropbox\FAUSTO\SVILUPPI\MSX\CODE\C\MSXgl\projects\exsoccer/exsoccer_s1_b2.c:1288: g_Ball.Y=g_Players[playerId].Y + BallAlignCorrectY[calcDir];
    00002B12 DD 6E F6         [19] 7053 	ld	l, -10 (ix)
    00002B15 DD 66 F7         [19] 7054 	ld	h, -9 (ix)
    00002B18 4E               [ 7] 7055 	ld	c, (hl)
    00002B19 23               [ 6] 7056 	inc	hl
    00002B1A 46               [ 7] 7057 	ld	b, (hl)
    00002B1B DD 5E F9         [19] 7058 	ld	e, -7 (ix)
    00002B1E 16 00            [ 7] 7059 	ld	d, #0x00
    00002B20 21 23 00         [10] 7060 	ld	hl, #35
    00002B23 39               [11] 7061 	add	hl, sp
    00002B24 19               [11] 7062 	add	hl, de
    00002B25 7E               [ 7] 7063 	ld	a, (hl)
    00002B26 6F               [ 4] 7064 	ld	l, a
                                   7065 ;	spillPairReg hl
                                   7066 ;	spillPairReg hl
    00002B27 07               [ 4] 7067 	rlca
    00002B28 9F               [ 4] 7068 	sbc	a, a
    00002B29 67               [ 4] 7069 	ld	h, a
                                   7070 ;	spillPairReg hl
                                   7071 ;	spillPairReg hl
    00002B2A 09               [11] 7072 	add	hl, bc
    00002B2B EB               [ 4] 7073 	ex	de, hl
    00002B2C ED 53r00r00      [20] 7074 	ld	(_g_Ball), de
                                   7075 ;E:\Dropbox\FAUSTO\SVILUPPI\MSX\CODE\C\MSXgl\projects\exsoccer/exsoccer_s1_b2.c:1289: break;
    00002B30 C3rD6r2C         [10] 7076 	jp	00131$
                                   7077 ;E:\Dropbox\FAUSTO\SVILUPPI\MSX\CODE\C\MSXgl\projects\exsoccer/exsoccer_s1_b2.c:1290: case DIRECTION_RIGHT:
    00002B33                       7078 00126$:
                                   7079 ;E:\Dropbox\FAUSTO\SVILUPPI\MSX\CODE\C\MSXgl\projects\exsoccer/exsoccer_s1_b2.c:1291: g_Ball.X=g_Players[playerId].X + distX + BallAlignCorrectX[calcDir];
    00002B33 DD 6E F6         [19] 7080 	ld	l, -10 (ix)
                                   7081 ;	spillPairReg hl
                                   7082 ;	spillPairReg hl
    00002B36 DD 66 F7         [19] 7083 	ld	h, -9 (ix)
                                   7084 ;	spillPairReg hl
                                   7085 ;	spillPairReg hl
    00002B39 23               [ 6] 7086 	inc	hl
    00002B3A 23               [ 6] 7087 	inc	hl
    00002B3B 4E               [ 7] 7088 	ld	c, (hl)
    00002B3C 23               [ 6] 7089 	inc	hl
    00002B3D 46               [ 7] 7090 	ld	b, (hl)
    00002B3E DD 6E FF         [19] 7091 	ld	l, -1 (ix)
                                   7092 ;	spillPairReg hl
                                   7093 ;	spillPairReg hl
    00002B41 26 00            [ 7] 7094 	ld	h, #0x00
                                   7095 ;	spillPairReg hl
                                   7096 ;	spillPairReg hl
    00002B43 09               [11] 7097 	add	hl, bc
    00002B44 4D               [ 4] 7098 	ld	c, l
    00002B45 44               [ 4] 7099 	ld	b, h
    00002B46 DD 5E F9         [19] 7100 	ld	e, -7 (ix)
    00002B49 16 00            [ 7] 7101 	ld	d, #0x00
    00002B4B 21 1A 00         [10] 7102 	ld	hl, #26
    00002B4E 39               [11] 7103 	add	hl, sp
    00002B4F 19               [11] 7104 	add	hl, de
    00002B50 7E               [ 7] 7105 	ld	a, (hl)
    00002B51 6F               [ 4] 7106 	ld	l, a
                                   7107 ;	spillPairReg hl
                                   7108 ;	spillPairReg hl
    00002B52 07               [ 4] 7109 	rlca
    00002B53 9F               [ 4] 7110 	sbc	a, a
    00002B54 67               [ 4] 7111 	ld	h, a
                                   7112 ;	spillPairReg hl
                                   7113 ;	spillPairReg hl
    00002B55 09               [11] 7114 	add	hl, bc
    00002B56 EB               [ 4] 7115 	ex	de, hl
    00002B57 ED 53r02r00      [20] 7116 	ld	((_g_Ball + 2)), de
                                   7117 ;E:\Dropbox\FAUSTO\SVILUPPI\MSX\CODE\C\MSXgl\projects\exsoccer/exsoccer_s1_b2.c:1292: g_Ball.Y=g_Players[playerId].Y + BallAlignCorrectY[calcDir];
    00002B5B DD 6E F6         [19] 7118 	ld	l, -10 (ix)
    00002B5E DD 66 F7         [19] 7119 	ld	h, -9 (ix)
    00002B61 4E               [ 7] 7120 	ld	c, (hl)
    00002B62 23               [ 6] 7121 	inc	hl
    00002B63 46               [ 7] 7122 	ld	b, (hl)
    00002B64 DD 5E F9         [19] 7123 	ld	e, -7 (ix)
    00002B67 16 00            [ 7] 7124 	ld	d, #0x00
    00002B69 21 23 00         [10] 7125 	ld	hl, #35
    00002B6C 39               [11] 7126 	add	hl, sp
    00002B6D 19               [11] 7127 	add	hl, de
    00002B6E 7E               [ 7] 7128 	ld	a, (hl)
    00002B6F 6F               [ 4] 7129 	ld	l, a
                                   7130 ;	spillPairReg hl
                                   7131 ;	spillPairReg hl
    00002B70 07               [ 4] 7132 	rlca
    00002B71 9F               [ 4] 7133 	sbc	a, a
    00002B72 67               [ 4] 7134 	ld	h, a
                                   7135 ;	spillPairReg hl
                                   7136 ;	spillPairReg hl
    00002B73 09               [11] 7137 	add	hl, bc
    00002B74 EB               [ 4] 7138 	ex	de, hl
    00002B75 ED 53r00r00      [20] 7139 	ld	(_g_Ball), de
                                   7140 ;E:\Dropbox\FAUSTO\SVILUPPI\MSX\CODE\C\MSXgl\projects\exsoccer/exsoccer_s1_b2.c:1293: break;
    00002B79 C3rD6r2C         [10] 7141 	jp	00131$
                                   7142 ;E:\Dropbox\FAUSTO\SVILUPPI\MSX\CODE\C\MSXgl\projects\exsoccer/exsoccer_s1_b2.c:1294: case DIRECTION_UP_LEFT:
    00002B7C                       7143 00127$:
                                   7144 ;E:\Dropbox\FAUSTO\SVILUPPI\MSX\CODE\C\MSXgl\projects\exsoccer/exsoccer_s1_b2.c:1295: g_Ball.X=g_Players[playerId].X - distX + BallAlignCorrectX[calcDir];
    00002B7C DD 6E F6         [19] 7145 	ld	l, -10 (ix)
                                   7146 ;	spillPairReg hl
                                   7147 ;	spillPairReg hl
    00002B7F DD 66 F7         [19] 7148 	ld	h, -9 (ix)
                                   7149 ;	spillPairReg hl
                                   7150 ;	spillPairReg hl
    00002B82 23               [ 6] 7151 	inc	hl
    00002B83 23               [ 6] 7152 	inc	hl
    00002B84 4E               [ 7] 7153 	ld	c, (hl)
    00002B85 23               [ 6] 7154 	inc	hl
    00002B86 46               [ 7] 7155 	ld	b, (hl)
    00002B87 DD 5E FF         [19] 7156 	ld	e, -1 (ix)
    00002B8A 16 00            [ 7] 7157 	ld	d, #0x00
    00002B8C 79               [ 4] 7158 	ld	a, c
    00002B8D 93               [ 4] 7159 	sub	a, e
    00002B8E 4F               [ 4] 7160 	ld	c, a
    00002B8F 78               [ 4] 7161 	ld	a, b
    00002B90 9A               [ 4] 7162 	sbc	a, d
    00002B91 47               [ 4] 7163 	ld	b, a
    00002B92 DD 5E F9         [19] 7164 	ld	e, -7 (ix)
    00002B95 16 00            [ 7] 7165 	ld	d, #0x00
    00002B97 21 1A 00         [10] 7166 	ld	hl, #26
    00002B9A 39               [11] 7167 	add	hl, sp
    00002B9B 19               [11] 7168 	add	hl, de
    00002B9C 7E               [ 7] 7169 	ld	a, (hl)
    00002B9D 6F               [ 4] 7170 	ld	l, a
                                   7171 ;	spillPairReg hl
                                   7172 ;	spillPairReg hl
    00002B9E 07               [ 4] 7173 	rlca
    00002B9F 9F               [ 4] 7174 	sbc	a, a
    00002BA0 67               [ 4] 7175 	ld	h, a
                                   7176 ;	spillPairReg hl
                                   7177 ;	spillPairReg hl
    00002BA1 09               [11] 7178 	add	hl, bc
    00002BA2 EB               [ 4] 7179 	ex	de, hl
    00002BA3 ED 53r02r00      [20] 7180 	ld	((_g_Ball + 2)), de
                                   7181 ;E:\Dropbox\FAUSTO\SVILUPPI\MSX\CODE\C\MSXgl\projects\exsoccer/exsoccer_s1_b2.c:1296: g_Ball.Y=g_Players[playerId].Y - distY + BallAlignCorrectY[calcDir];
    00002BA7 DD 6E F6         [19] 7182 	ld	l, -10 (ix)
    00002BAA DD 66 F7         [19] 7183 	ld	h, -9 (ix)
    00002BAD 4E               [ 7] 7184 	ld	c, (hl)
    00002BAE 23               [ 6] 7185 	inc	hl
    00002BAF 46               [ 7] 7186 	ld	b, (hl)
    00002BB0 DD 5E FE         [19] 7187 	ld	e, -2 (ix)
    00002BB3 16 00            [ 7] 7188 	ld	d, #0x00
    00002BB5 79               [ 4] 7189 	ld	a, c
    00002BB6 93               [ 4] 7190 	sub	a, e
    00002BB7 4F               [ 4] 7191 	ld	c, a
    00002BB8 78               [ 4] 7192 	ld	a, b
    00002BB9 9A               [ 4] 7193 	sbc	a, d
    00002BBA 47               [ 4] 7194 	ld	b, a
    00002BBB DD 5E F9         [19] 7195 	ld	e, -7 (ix)
    00002BBE 16 00            [ 7] 7196 	ld	d, #0x00
    00002BC0 21 23 00         [10] 7197 	ld	hl, #35
    00002BC3 39               [11] 7198 	add	hl, sp
    00002BC4 19               [11] 7199 	add	hl, de
    00002BC5 7E               [ 7] 7200 	ld	a, (hl)
    00002BC6 6F               [ 4] 7201 	ld	l, a
                                   7202 ;	spillPairReg hl
                                   7203 ;	spillPairReg hl
    00002BC7 07               [ 4] 7204 	rlca
    00002BC8 9F               [ 4] 7205 	sbc	a, a
    00002BC9 67               [ 4] 7206 	ld	h, a
                                   7207 ;	spillPairReg hl
                                   7208 ;	spillPairReg hl
    00002BCA 09               [11] 7209 	add	hl, bc
    00002BCB EB               [ 4] 7210 	ex	de, hl
    00002BCC ED 53r00r00      [20] 7211 	ld	(_g_Ball), de
                                   7212 ;E:\Dropbox\FAUSTO\SVILUPPI\MSX\CODE\C\MSXgl\projects\exsoccer/exsoccer_s1_b2.c:1297: break;
    00002BD0 C3rD6r2C         [10] 7213 	jp	00131$
                                   7214 ;E:\Dropbox\FAUSTO\SVILUPPI\MSX\CODE\C\MSXgl\projects\exsoccer/exsoccer_s1_b2.c:1298: case DIRECTION_UP_RIGHT:
    00002BD3                       7215 00128$:
                                   7216 ;E:\Dropbox\FAUSTO\SVILUPPI\MSX\CODE\C\MSXgl\projects\exsoccer/exsoccer_s1_b2.c:1299: g_Ball.X=g_Players[playerId].X + distX + BallAlignCorrectX[calcDir];
    00002BD3 DD 6E F6         [19] 7217 	ld	l, -10 (ix)
                                   7218 ;	spillPairReg hl
                                   7219 ;	spillPairReg hl
    00002BD6 DD 66 F7         [19] 7220 	ld	h, -9 (ix)
                                   7221 ;	spillPairReg hl
                                   7222 ;	spillPairReg hl
    00002BD9 23               [ 6] 7223 	inc	hl
    00002BDA 23               [ 6] 7224 	inc	hl
    00002BDB 4E               [ 7] 7225 	ld	c, (hl)
    00002BDC 23               [ 6] 7226 	inc	hl
    00002BDD 46               [ 7] 7227 	ld	b, (hl)
    00002BDE DD 6E FF         [19] 7228 	ld	l, -1 (ix)
                                   7229 ;	spillPairReg hl
                                   7230 ;	spillPairReg hl
    00002BE1 26 00            [ 7] 7231 	ld	h, #0x00
                                   7232 ;	spillPairReg hl
                                   7233 ;	spillPairReg hl
    00002BE3 09               [11] 7234 	add	hl, bc
    00002BE4 4D               [ 4] 7235 	ld	c, l
    00002BE5 44               [ 4] 7236 	ld	b, h
    00002BE6 DD 5E F9         [19] 7237 	ld	e, -7 (ix)
    00002BE9 16 00            [ 7] 7238 	ld	d, #0x00
    00002BEB 21 1A 00         [10] 7239 	ld	hl, #26
    00002BEE 39               [11] 7240 	add	hl, sp
    00002BEF 19               [11] 7241 	add	hl, de
    00002BF0 7E               [ 7] 7242 	ld	a, (hl)
    00002BF1 6F               [ 4] 7243 	ld	l, a
                                   7244 ;	spillPairReg hl
                                   7245 ;	spillPairReg hl
    00002BF2 07               [ 4] 7246 	rlca
    00002BF3 9F               [ 4] 7247 	sbc	a, a
    00002BF4 67               [ 4] 7248 	ld	h, a
                                   7249 ;	spillPairReg hl
                                   7250 ;	spillPairReg hl
    00002BF5 09               [11] 7251 	add	hl, bc
    00002BF6 EB               [ 4] 7252 	ex	de, hl
    00002BF7 ED 53r02r00      [20] 7253 	ld	((_g_Ball + 2)), de
                                   7254 ;E:\Dropbox\FAUSTO\SVILUPPI\MSX\CODE\C\MSXgl\projects\exsoccer/exsoccer_s1_b2.c:1300: g_Ball.Y=g_Players[playerId].Y - distY + BallAlignCorrectY[calcDir];
    00002BFB DD 6E F6         [19] 7255 	ld	l, -10 (ix)
    00002BFE DD 66 F7         [19] 7256 	ld	h, -9 (ix)
    00002C01 4E               [ 7] 7257 	ld	c, (hl)
    00002C02 23               [ 6] 7258 	inc	hl
    00002C03 46               [ 7] 7259 	ld	b, (hl)
    00002C04 DD 5E FE         [19] 7260 	ld	e, -2 (ix)
    00002C07 16 00            [ 7] 7261 	ld	d, #0x00
    00002C09 79               [ 4] 7262 	ld	a, c
    00002C0A 93               [ 4] 7263 	sub	a, e
    00002C0B 4F               [ 4] 7264 	ld	c, a
    00002C0C 78               [ 4] 7265 	ld	a, b
    00002C0D 9A               [ 4] 7266 	sbc	a, d
    00002C0E 47               [ 4] 7267 	ld	b, a
    00002C0F DD 5E F9         [19] 7268 	ld	e, -7 (ix)
    00002C12 16 00            [ 7] 7269 	ld	d, #0x00
    00002C14 21 23 00         [10] 7270 	ld	hl, #35
    00002C17 39               [11] 7271 	add	hl, sp
    00002C18 19               [11] 7272 	add	hl, de
    00002C19 7E               [ 7] 7273 	ld	a, (hl)
    00002C1A 6F               [ 4] 7274 	ld	l, a
                                   7275 ;	spillPairReg hl
                                   7276 ;	spillPairReg hl
    00002C1B 07               [ 4] 7277 	rlca
    00002C1C 9F               [ 4] 7278 	sbc	a, a
    00002C1D 67               [ 4] 7279 	ld	h, a
                                   7280 ;	spillPairReg hl
                                   7281 ;	spillPairReg hl
    00002C1E 09               [11] 7282 	add	hl, bc
    00002C1F EB               [ 4] 7283 	ex	de, hl
    00002C20 ED 53r00r00      [20] 7284 	ld	(_g_Ball), de
                                   7285 ;E:\Dropbox\FAUSTO\SVILUPPI\MSX\CODE\C\MSXgl\projects\exsoccer/exsoccer_s1_b2.c:1301: break;
    00002C24 C3rD6r2C         [10] 7286 	jp	00131$
                                   7287 ;E:\Dropbox\FAUSTO\SVILUPPI\MSX\CODE\C\MSXgl\projects\exsoccer/exsoccer_s1_b2.c:1302: case DIRECTION_DOWN_LEFT:
    00002C27                       7288 00129$:
                                   7289 ;E:\Dropbox\FAUSTO\SVILUPPI\MSX\CODE\C\MSXgl\projects\exsoccer/exsoccer_s1_b2.c:1303: g_Ball.X=g_Players[playerId].X - distX + BallAlignCorrectX[calcDir];
    00002C27 DD 6E F6         [19] 7290 	ld	l, -10 (ix)
                                   7291 ;	spillPairReg hl
                                   7292 ;	spillPairReg hl
    00002C2A DD 66 F7         [19] 7293 	ld	h, -9 (ix)
                                   7294 ;	spillPairReg hl
                                   7295 ;	spillPairReg hl
    00002C2D 23               [ 6] 7296 	inc	hl
    00002C2E 23               [ 6] 7297 	inc	hl
    00002C2F 4E               [ 7] 7298 	ld	c, (hl)
    00002C30 23               [ 6] 7299 	inc	hl
    00002C31 46               [ 7] 7300 	ld	b, (hl)
    00002C32 DD 5E FF         [19] 7301 	ld	e, -1 (ix)
    00002C35 16 00            [ 7] 7302 	ld	d, #0x00
    00002C37 79               [ 4] 7303 	ld	a, c
    00002C38 93               [ 4] 7304 	sub	a, e
    00002C39 4F               [ 4] 7305 	ld	c, a
    00002C3A 78               [ 4] 7306 	ld	a, b
    00002C3B 9A               [ 4] 7307 	sbc	a, d
    00002C3C 47               [ 4] 7308 	ld	b, a
    00002C3D DD 5E F9         [19] 7309 	ld	e, -7 (ix)
    00002C40 16 00            [ 7] 7310 	ld	d, #0x00
    00002C42 21 1A 00         [10] 7311 	ld	hl, #26
    00002C45 39               [11] 7312 	add	hl, sp
    00002C46 19               [11] 7313 	add	hl, de
    00002C47 7E               [ 7] 7314 	ld	a, (hl)
    00002C48 6F               [ 4] 7315 	ld	l, a
                                   7316 ;	spillPairReg hl
                                   7317 ;	spillPairReg hl
    00002C49 07               [ 4] 7318 	rlca
    00002C4A 9F               [ 4] 7319 	sbc	a, a
    00002C4B 67               [ 4] 7320 	ld	h, a
                                   7321 ;	spillPairReg hl
                                   7322 ;	spillPairReg hl
    00002C4C 09               [11] 7323 	add	hl, bc
    00002C4D EB               [ 4] 7324 	ex	de, hl
    00002C4E ED 53r02r00      [20] 7325 	ld	((_g_Ball + 2)), de
                                   7326 ;E:\Dropbox\FAUSTO\SVILUPPI\MSX\CODE\C\MSXgl\projects\exsoccer/exsoccer_s1_b2.c:1304: g_Ball.Y=g_Players[playerId].Y + distY + BallAlignCorrectY[calcDir];
    00002C52 DD 6E F6         [19] 7327 	ld	l, -10 (ix)
    00002C55 DD 66 F7         [19] 7328 	ld	h, -9 (ix)
    00002C58 4E               [ 7] 7329 	ld	c, (hl)
    00002C59 23               [ 6] 7330 	inc	hl
    00002C5A 46               [ 7] 7331 	ld	b, (hl)
    00002C5B DD 6E FE         [19] 7332 	ld	l, -2 (ix)
                                   7333 ;	spillPairReg hl
                                   7334 ;	spillPairReg hl
    00002C5E 26 00            [ 7] 7335 	ld	h, #0x00
                                   7336 ;	spillPairReg hl
                                   7337 ;	spillPairReg hl
    00002C60 09               [11] 7338 	add	hl, bc
    00002C61 4D               [ 4] 7339 	ld	c, l
    00002C62 44               [ 4] 7340 	ld	b, h
    00002C63 DD 5E F9         [19] 7341 	ld	e, -7 (ix)
    00002C66 16 00            [ 7] 7342 	ld	d, #0x00
    00002C68 21 23 00         [10] 7343 	ld	hl, #35
    00002C6B 39               [11] 7344 	add	hl, sp
    00002C6C 19               [11] 7345 	add	hl, de
    00002C6D 7E               [ 7] 7346 	ld	a, (hl)
    00002C6E 6F               [ 4] 7347 	ld	l, a
                                   7348 ;	spillPairReg hl
                                   7349 ;	spillPairReg hl
    00002C6F 07               [ 4] 7350 	rlca
    00002C70 9F               [ 4] 7351 	sbc	a, a
    00002C71 67               [ 4] 7352 	ld	h, a
                                   7353 ;	spillPairReg hl
                                   7354 ;	spillPairReg hl
    00002C72 09               [11] 7355 	add	hl, bc
    00002C73 EB               [ 4] 7356 	ex	de, hl
    00002C74 ED 53r00r00      [20] 7357 	ld	(_g_Ball), de
                                   7358 ;E:\Dropbox\FAUSTO\SVILUPPI\MSX\CODE\C\MSXgl\projects\exsoccer/exsoccer_s1_b2.c:1305: break;
    00002C78 C3rD6r2C         [10] 7359 	jp	00131$
                                   7360 ;E:\Dropbox\FAUSTO\SVILUPPI\MSX\CODE\C\MSXgl\projects\exsoccer/exsoccer_s1_b2.c:1306: case DIRECTION_DOWN_RIGHT:
    00002C7B                       7361 00130$:
                                   7362 ;E:\Dropbox\FAUSTO\SVILUPPI\MSX\CODE\C\MSXgl\projects\exsoccer/exsoccer_s1_b2.c:1307: g_Ball.X=g_Players[playerId].X + distX + BallAlignCorrectX[calcDir];
    00002C7B DD 6E F6         [19] 7363 	ld	l, -10 (ix)
                                   7364 ;	spillPairReg hl
                                   7365 ;	spillPairReg hl
    00002C7E DD 66 F7         [19] 7366 	ld	h, -9 (ix)
                                   7367 ;	spillPairReg hl
                                   7368 ;	spillPairReg hl
    00002C81 23               [ 6] 7369 	inc	hl
    00002C82 23               [ 6] 7370 	inc	hl
    00002C83 4E               [ 7] 7371 	ld	c, (hl)
    00002C84 23               [ 6] 7372 	inc	hl
    00002C85 46               [ 7] 7373 	ld	b, (hl)
    00002C86 DD 6E FF         [19] 7374 	ld	l, -1 (ix)
                                   7375 ;	spillPairReg hl
                                   7376 ;	spillPairReg hl
    00002C89 26 00            [ 7] 7377 	ld	h, #0x00
                                   7378 ;	spillPairReg hl
                                   7379 ;	spillPairReg hl
    00002C8B 09               [11] 7380 	add	hl, bc
    00002C8C DD 75 FC         [19] 7381 	ld	-4 (ix), l
    00002C8F DD 74 FD         [19] 7382 	ld	-3 (ix), h
    00002C92 DD 5E F9         [19] 7383 	ld	e, -7 (ix)
    00002C95 16 00            [ 7] 7384 	ld	d, #0x00
    00002C97 21 1A 00         [10] 7385 	ld	hl, #26
    00002C9A 39               [11] 7386 	add	hl, sp
    00002C9B 19               [11] 7387 	add	hl, de
    00002C9C 7E               [ 7] 7388 	ld	a, (hl)
    00002C9D 5F               [ 4] 7389 	ld	e, a
    00002C9E 07               [ 4] 7390 	rlca
    00002C9F 9F               [ 4] 7391 	sbc	a, a
    00002CA0 57               [ 4] 7392 	ld	d, a
    00002CA1 EB               [ 4] 7393 	ex	de, hl
    00002CA2 7D               [ 4] 7394 	ld	a, l
    00002CA3 DD 86 FC         [19] 7395 	add	a, -4 (ix)
    00002CA6 4F               [ 4] 7396 	ld	c, a
    00002CA7 7C               [ 4] 7397 	ld	a, h
    00002CA8 DD 8E FD         [19] 7398 	adc	a, -3 (ix)
    00002CAB 47               [ 4] 7399 	ld	b, a
    00002CAC ED 43r02r00      [20] 7400 	ld	((_g_Ball + 2)), bc
                                   7401 ;E:\Dropbox\FAUSTO\SVILUPPI\MSX\CODE\C\MSXgl\projects\exsoccer/exsoccer_s1_b2.c:1308: g_Ball.Y=g_Players[playerId].Y + distY + BallAlignCorrectY[calcDir];
    00002CB0 DD 6E F6         [19] 7402 	ld	l, -10 (ix)
    00002CB3 DD 66 F7         [19] 7403 	ld	h, -9 (ix)
    00002CB6 4E               [ 7] 7404 	ld	c, (hl)
    00002CB7 23               [ 6] 7405 	inc	hl
    00002CB8 46               [ 7] 7406 	ld	b, (hl)
    00002CB9 DD 6E FE         [19] 7407 	ld	l, -2 (ix)
                                   7408 ;	spillPairReg hl
                                   7409 ;	spillPairReg hl
    00002CBC 26 00            [ 7] 7410 	ld	h, #0x00
                                   7411 ;	spillPairReg hl
                                   7412 ;	spillPairReg hl
    00002CBE 09               [11] 7413 	add	hl, bc
    00002CBF 4D               [ 4] 7414 	ld	c, l
    00002CC0 44               [ 4] 7415 	ld	b, h
    00002CC1 DD 5E F9         [19] 7416 	ld	e, -7 (ix)
    00002CC4 16 00            [ 7] 7417 	ld	d, #0x00
    00002CC6 21 23 00         [10] 7418 	ld	hl, #35
    00002CC9 39               [11] 7419 	add	hl, sp
    00002CCA 19               [11] 7420 	add	hl, de
    00002CCB 7E               [ 7] 7421 	ld	a, (hl)
    00002CCC 6F               [ 4] 7422 	ld	l, a
                                   7423 ;	spillPairReg hl
                                   7424 ;	spillPairReg hl
    00002CCD 07               [ 4] 7425 	rlca
    00002CCE 9F               [ 4] 7426 	sbc	a, a
    00002CCF 67               [ 4] 7427 	ld	h, a
                                   7428 ;	spillPairReg hl
                                   7429 ;	spillPairReg hl
    00002CD0 09               [11] 7430 	add	hl, bc
    00002CD1 EB               [ 4] 7431 	ex	de, hl
    00002CD2 ED 53r00r00      [20] 7432 	ld	(_g_Ball), de
                                   7433 ;E:\Dropbox\FAUSTO\SVILUPPI\MSX\CODE\C\MSXgl\projects\exsoccer/exsoccer_s1_b2.c:1310: }
    00002CD6                       7434 00131$:
                                   7435 ;E:\Dropbox\FAUSTO\SVILUPPI\MSX\CODE\C\MSXgl\projects\exsoccer/exsoccer_s1_b2.c:1311: g_Ball.PreviousY=g_Ball.Y;
    00002CD6 ED 4Br00r00      [20] 7436 	ld	bc, (#_g_Ball + 0)
    00002CDA ED 43r07r00      [20] 7437 	ld	((_g_Ball + 7)), bc
                                   7438 ;E:\Dropbox\FAUSTO\SVILUPPI\MSX\CODE\C\MSXgl\projects\exsoccer/exsoccer_s1_b2.c:1312: g_Ball.Direction=dir;
    00002CDE 21r05r00         [10] 7439 	ld	hl, #(_g_Ball + 5)
    00002CE1 DD 7E F8         [19] 7440 	ld	a, -8 (ix)
    00002CE4 77               [ 7] 7441 	ld	(hl), a
                                   7442 ;E:\Dropbox\FAUSTO\SVILUPPI\MSX\CODE\C\MSXgl\projects\exsoccer/exsoccer_s1_b2.c:1313: }
    00002CE5 DD F9            [10] 7443 	ld	sp, ix
    00002CE7 DD E1            [14] 7444 	pop	ix
    00002CE9 C9               [10] 7445 	ret
                                   7446 ;E:\Dropbox\FAUSTO\SVILUPPI\MSX\CODE\C\MSXgl\projects\exsoccer/exsoccer_s1_b2.c:1314: void TickBallCollision(){
                                   7447 ;	---------------------------------
                                   7448 ; Function TickBallCollision
                                   7449 ; ---------------------------------
    00002CEA                       7450 _TickBallCollision::
    00002CEA DD E5            [15] 7451 	push	ix
    00002CEC DD 21 00 00      [14] 7452 	ld	ix,#0
    00002CF0 DD 39            [15] 7453 	add	ix,sp
    00002CF2 21 E7 FF         [10] 7454 	ld	hl, #-25
    00002CF5 39               [11] 7455 	add	hl, sp
    00002CF6 F9               [ 6] 7456 	ld	sp, hl
                                   7457 ;E:\Dropbox\FAUSTO\SVILUPPI\MSX\CODE\C\MSXgl\projects\exsoccer/exsoccer_s1_b2.c:1315: if(g_MatchStatus!=MATCH_IN_ACTION){
    00002CF7 3Ar00r00         [13] 7458 	ld	a, (_g_MatchStatus+0)
    00002CFA D6 0C            [ 7] 7459 	sub	a, #0x0c
                                   7460 ;E:\Dropbox\FAUSTO\SVILUPPI\MSX\CODE\C\MSXgl\projects\exsoccer/exsoccer_s1_b2.c:1316: return;
    00002CFC C2r75r30         [10] 7461 	jp	NZ,00166$
                                   7462 ;E:\Dropbox\FAUSTO\SVILUPPI\MSX\CODE\C\MSXgl\projects\exsoccer/exsoccer_s1_b2.c:1320: if (g_Ball.PossessionPlayerId != NO_VALUE) {
    00002CFF 01r06r00         [10] 7463 	ld	bc, #_g_Ball + 6
    00002D02 0A               [ 7] 7464 	ld	a, (bc)
    00002D03 3C               [ 4] 7465 	inc	a
    00002D04 28 0A            [12] 7466 	jr	Z, 00106$
                                   7467 ;E:\Dropbox\FAUSTO\SVILUPPI\MSX\CODE\C\MSXgl\projects\exsoccer/exsoccer_s1_b2.c:1321: if (g_Ball.PossessionTimer < 255) g_Ball.PossessionTimer++;
    00002D06 11r1Cr00         [10] 7468 	ld	de, #_g_Ball + 28
    00002D09 1A               [ 7] 7469 	ld	a, (de)
    00002D0A FE FF            [ 7] 7470 	cp	a, #0xff
    00002D0C 30 02            [12] 7471 	jr	NC, 00106$
    00002D0E 3C               [ 4] 7472 	inc	a
    00002D0F 12               [ 7] 7473 	ld	(de), a
    00002D10                       7474 00106$:
                                   7475 ;E:\Dropbox\FAUSTO\SVILUPPI\MSX\CODE\C\MSXgl\projects\exsoccer/exsoccer_s1_b2.c:1326: if (g_Ball.PossessionPlayerId == NO_VALUE) { // Ball in air
    00002D10 0A               [ 7] 7476 	ld	a, (bc)
    00002D11 DD 77 EB         [19] 7477 	ld	-21 (ix), a
    00002D14 3C               [ 4] 7478 	inc	a
    00002D15 3E 01            [ 7] 7479 	ld	a, #0x01
    00002D17 28 01            [12] 7480 	jr	Z, 00311$
    00002D19 AF               [ 4] 7481 	xor	a, a
    00002D1A                       7482 00311$:
    00002D1A DD 77 EC         [19] 7483 	ld	-20 (ix), a
                                   7484 ;E:\Dropbox\FAUSTO\SVILUPPI\MSX\CODE\C\MSXgl\projects\exsoccer/exsoccer_s1_b2.c:1329: if (g_Ball.ShotActive == 1) {
                                   7485 ;E:\Dropbox\FAUSTO\SVILUPPI\MSX\CODE\C\MSXgl\projects\exsoccer/exsoccer_s1_b2.c:1330: i16 diffStart = (i16)g_Ball.X - (i16)g_Ball.PassStartX; 
                                   7486 ;E:\Dropbox\FAUSTO\SVILUPPI\MSX\CODE\C\MSXgl\projects\exsoccer/exsoccer_s1_b2.c:1329: if (g_Ball.ShotActive == 1) {
    00002D1D 3Ar1Br00         [13] 7487 	ld	a, (#(_g_Ball + 27) + 0)
                                   7488 ;E:\Dropbox\FAUSTO\SVILUPPI\MSX\CODE\C\MSXgl\projects\exsoccer/exsoccer_s1_b2.c:1336: for(u8 i=0; i<14; i++){
    00002D20 DD 36 ED 00      [19] 7489 	ld	-19 (ix), #0x00
    00002D24 DD 77 EE         [19] 7490 	ld	-18 (ix), a
    00002D27 3Ar10r00         [13] 7491 	ld	a, (#(_g_Ball + 16) + 0)
    00002D2A 3C               [ 4] 7492 	inc	a
    00002D2B 3E 01            [ 7] 7493 	ld	a, #0x01
    00002D2D 28 01            [12] 7494 	jr	Z, 00313$
    00002D2F AF               [ 4] 7495 	xor	a, a
    00002D30                       7496 00313$:
    00002D30 DD 77 EF         [19] 7497 	ld	-17 (ix), a
    00002D33 DD 7E EB         [19] 7498 	ld	a, -21 (ix)
    00002D36 DD 77 F0         [19] 7499 	ld	-16 (ix), a
    00002D39 DD 36 FB 00      [19] 7500 	ld	-5 (ix), #0x00
    00002D3D                       7501 00165$:
    00002D3D DD 7E FB         [19] 7502 	ld	a, -5 (ix)
    00002D40 D6 0E            [ 7] 7503 	sub	a, #0x0e
    00002D42 D2r75r30         [10] 7504 	jp	NC, 00166$
                                   7505 ;E:\Dropbox\FAUSTO\SVILUPPI\MSX\CODE\C\MSXgl\projects\exsoccer/exsoccer_s1_b2.c:1337: if(g_Players[i].Status == PLAYER_STATUS_NONE) continue;
    00002D45 DD 4E FB         [19] 7506 	ld	c, -5 (ix)
    00002D48 06 00            [ 7] 7507 	ld	b, #0x00
    00002D4A 69               [ 4] 7508 	ld	l, c
    00002D4B 60               [ 4] 7509 	ld	h, b
    00002D4C 29               [11] 7510 	add	hl, hl
    00002D4D 29               [11] 7511 	add	hl, hl
    00002D4E 09               [11] 7512 	add	hl, bc
    00002D4F 29               [11] 7513 	add	hl, hl
    00002D50 29               [11] 7514 	add	hl, hl
    00002D51 09               [11] 7515 	add	hl, bc
    00002D52 EB               [ 4] 7516 	ex	de, hl
    00002D53 21r00r00         [10] 7517 	ld	hl, #_g_Players
    00002D56 19               [11] 7518 	add	hl, de
    00002D57 DD 75 F1         [19] 7519 	ld	-15 (ix), l
    00002D5A DD 74 F2         [19] 7520 	ld	-14 (ix), h
                                   7521 ;E:\Dropbox\FAUSTO\SVILUPPI\MSX\CODE\C\MSXgl\projects\exsoccer/exsoccer_s1_b2.c:1410: g_Players[i].Status = PLAYER_STATUS_POSITIONED; // Lock it
    00002D5D DD 7E F1         [19] 7522 	ld	a, -15 (ix)
    00002D60 C6 12            [ 7] 7523 	add	a, #0x12
    00002D62 DD 77 F3         [19] 7524 	ld	-13 (ix), a
    00002D65 DD 7E F2         [19] 7525 	ld	a, -14 (ix)
    00002D68 CE 00            [ 7] 7526 	adc	a, #0x00
    00002D6A DD 77 F4         [19] 7527 	ld	-12 (ix), a
                                   7528 ;E:\Dropbox\FAUSTO\SVILUPPI\MSX\CODE\C\MSXgl\projects\exsoccer/exsoccer_s1_b2.c:1337: if(g_Players[i].Status == PLAYER_STATUS_NONE) continue;
    00002D6D DD 6E F3         [19] 7529 	ld	l, -13 (ix)
    00002D70 DD 66 F4         [19] 7530 	ld	h, -12 (ix)
    00002D73 7E               [ 7] 7531 	ld	a, (hl)
    00002D74 23               [ 6] 7532 	inc	hl
    00002D75 B6               [ 7] 7533 	or	a, (hl)
    00002D76 CAr69r30         [10] 7534 	jp	Z, 00162$
                                   7535 ;E:\Dropbox\FAUSTO\SVILUPPI\MSX\CODE\C\MSXgl\projects\exsoccer/exsoccer_s1_b2.c:1338: if(g_Ball.PossessionPlayerId == i) continue; // Skip self
    00002D79 DD 7E EB         [19] 7536 	ld	a, -21 (ix)
    00002D7C DD 96 FB         [19] 7537 	sub	a, -5 (ix)
    00002D7F CAr69r30         [10] 7538 	jp	Z,00162$
                                   7539 ;E:\Dropbox\FAUSTO\SVILUPPI\MSX\CODE\C\MSXgl\projects\exsoccer/exsoccer_s1_b2.c:1343: u8 hitDist = 14;
    00002D82 DD 36 FD 0E      [19] 7540 	ld	-3 (ix), #0x0e
                                   7541 ;E:\Dropbox\FAUSTO\SVILUPPI\MSX\CODE\C\MSXgl\projects\exsoccer/exsoccer_s1_b2.c:1382: if (g_Players[i].Role == PLAYER_ROLE_GOALKEEPER) {
    00002D86 DD 4E F1         [19] 7542 	ld	c, -15 (ix)
    00002D89 DD 46 F2         [19] 7543 	ld	b, -14 (ix)
                                   7544 ;E:\Dropbox\FAUSTO\SVILUPPI\MSX\CODE\C\MSXgl\projects\exsoccer/exsoccer_s1_b2.c:1344: if (g_Players[i].Role == PLAYER_ROLE_GOALKEEPER) {
    00002D8C 21 0D 00         [10] 7545 	ld	hl, #13
    00002D8F 09               [11] 7546 	add	hl, bc
    00002D90 7E               [ 7] 7547 	ld	a, (hl)
    00002D91 DD 77 F5         [19] 7548 	ld	-11 (ix), a
    00002D94 B7               [ 4] 7549 	or	a, a
    00002D95 20 11            [12] 7550 	jr	NZ, 00125$
                                   7551 ;E:\Dropbox\FAUSTO\SVILUPPI\MSX\CODE\C\MSXgl\projects\exsoccer/exsoccer_s1_b2.c:1345: if (g_Ball.ShotActive) hitDist = 20; // 15px + tolerance
    00002D97 DD 7E EE         [19] 7552 	ld	a, -18 (ix)
    00002D9A B7               [ 4] 7553 	or	a, a
    00002D9B 28 07            [12] 7554 	jr	Z, 00122$
    00002D9D DD 36 FD 14      [19] 7555 	ld	-3 (ix), #0x14
    00002DA1 C3rA8r2D         [10] 7556 	jp	00125$
    00002DA4                       7557 00122$:
                                   7558 ;E:\Dropbox\FAUSTO\SVILUPPI\MSX\CODE\C\MSXgl\projects\exsoccer/exsoccer_s1_b2.c:1346: else hitDist = 14; 
    00002DA4 DD 36 FD 0E      [19] 7559 	ld	-3 (ix), #0x0e
    00002DA8                       7560 00125$:
                                   7561 ;E:\Dropbox\FAUSTO\SVILUPPI\MSX\CODE\C\MSXgl\projects\exsoccer/exsoccer_s1_b2.c:1350: u16 diffX = (g_Ball.X > g_Players[i].X) ? (g_Ball.X - g_Players[i].X) : (g_Players[i].X - g_Ball.X);
    00002DA8 21r02r00         [10] 7562 	ld	hl, #_g_Ball + 2
    00002DAB 7E               [ 7] 7563 	ld	a, (hl)
    00002DAC DD 77 F6         [19] 7564 	ld	-10 (ix), a
    00002DAF 23               [ 6] 7565 	inc	hl
    00002DB0 7E               [ 7] 7566 	ld	a, (hl)
    00002DB1 DD 77 F7         [19] 7567 	ld	-9 (ix), a
    00002DB4 DD 6E F1         [19] 7568 	ld	l, -15 (ix)
                                   7569 ;	spillPairReg hl
                                   7570 ;	spillPairReg hl
    00002DB7 DD 66 F2         [19] 7571 	ld	h, -14 (ix)
                                   7572 ;	spillPairReg hl
                                   7573 ;	spillPairReg hl
    00002DBA 23               [ 6] 7574 	inc	hl
    00002DBB 23               [ 6] 7575 	inc	hl
    00002DBC 7E               [ 7] 7576 	ld	a, (hl)
    00002DBD DD 77 F8         [19] 7577 	ld	-8 (ix), a
    00002DC0 23               [ 6] 7578 	inc	hl
    00002DC1 7E               [ 7] 7579 	ld	a, (hl)
    00002DC2 DD 77 F9         [19] 7580 	ld	-7 (ix), a
    00002DC5 DD 7E F8         [19] 7581 	ld	a, -8 (ix)
    00002DC8 DD 96 F6         [19] 7582 	sub	a, -10 (ix)
    00002DCB DD 7E F9         [19] 7583 	ld	a, -7 (ix)
    00002DCE DD 9E F7         [19] 7584 	sbc	a, -9 (ix)
    00002DD1 30 15            [12] 7585 	jr	NC, 00168$
    00002DD3 DD 7E F6         [19] 7586 	ld	a, -10 (ix)
    00002DD6 DD 96 F8         [19] 7587 	sub	a, -8 (ix)
    00002DD9 DD 77 FE         [19] 7588 	ld	-2 (ix), a
    00002DDC DD 7E F7         [19] 7589 	ld	a, -9 (ix)
    00002DDF DD 9E F9         [19] 7590 	sbc	a, -7 (ix)
    00002DE2 DD 77 FF         [19] 7591 	ld	-1 (ix), a
    00002DE5 C3rFAr2D         [10] 7592 	jp	00169$
    00002DE8                       7593 00168$:
    00002DE8 DD 7E F8         [19] 7594 	ld	a, -8 (ix)
    00002DEB DD 96 F6         [19] 7595 	sub	a, -10 (ix)
    00002DEE DD 77 FE         [19] 7596 	ld	-2 (ix), a
    00002DF1 DD 7E F9         [19] 7597 	ld	a, -7 (ix)
    00002DF4 DD 9E F7         [19] 7598 	sbc	a, -9 (ix)
    00002DF7 DD 77 FF         [19] 7599 	ld	-1 (ix), a
    00002DFA                       7600 00169$:
                                   7601 ;E:\Dropbox\FAUSTO\SVILUPPI\MSX\CODE\C\MSXgl\projects\exsoccer/exsoccer_s1_b2.c:1351: u16 diffY = (g_Ball.Y > g_Players[i].Y) ? (g_Ball.Y - g_Players[i].Y) : (g_Players[i].Y - g_Ball.Y);
    00002DFA ED 4Br00r00      [20] 7602 	ld	bc, (#_g_Ball + 0)
    00002DFE DD 6E F1         [19] 7603 	ld	l, -15 (ix)
    00002E01 DD 66 F2         [19] 7604 	ld	h, -14 (ix)
    00002E04 5E               [ 7] 7605 	ld	e, (hl)
    00002E05 23               [ 6] 7606 	inc	hl
    00002E06 56               [ 7] 7607 	ld	d, (hl)
    00002E07 7B               [ 4] 7608 	ld	a, e
    00002E08 91               [ 4] 7609 	sub	a, c
    00002E09 7A               [ 4] 7610 	ld	a, d
    00002E0A 98               [ 4] 7611 	sbc	a, b
    00002E0B 30 08            [12] 7612 	jr	NC, 00170$
    00002E0D 79               [ 4] 7613 	ld	a, c
    00002E0E 93               [ 4] 7614 	sub	a, e
    00002E0F 5F               [ 4] 7615 	ld	e, a
    00002E10 78               [ 4] 7616 	ld	a, b
    00002E11 9A               [ 4] 7617 	sbc	a, d
    00002E12 C3r1Ar2E         [10] 7618 	jp	00171$
    00002E15                       7619 00170$:
    00002E15 7B               [ 4] 7620 	ld	a, e
    00002E16 91               [ 4] 7621 	sub	a, c
    00002E17 5F               [ 4] 7622 	ld	e, a
    00002E18 7A               [ 4] 7623 	ld	a, d
    00002E19 98               [ 4] 7624 	sbc	a, b
    00002E1A                       7625 00171$:
    00002E1A 57               [ 4] 7626 	ld	d, a
                                   7627 ;E:\Dropbox\FAUSTO\SVILUPPI\MSX\CODE\C\MSXgl\projects\exsoccer/exsoccer_s1_b2.c:1353: if(diffX < hitDist && diffY < hitDist){ 
    00002E1B DD 6E FD         [19] 7628 	ld	l, -3 (ix)
                                   7629 ;	spillPairReg hl
                                   7630 ;	spillPairReg hl
    00002E1E 26 00            [ 7] 7631 	ld	h, #0x00
                                   7632 ;	spillPairReg hl
                                   7633 ;	spillPairReg hl
    00002E20 DD 7E FE         [19] 7634 	ld	a, -2 (ix)
    00002E23 95               [ 4] 7635 	sub	a, l
    00002E24 DD 7E FF         [19] 7636 	ld	a, -1 (ix)
    00002E27 9C               [ 4] 7637 	sbc	a, h
    00002E28 D2r69r30         [10] 7638 	jp	NC, 00162$
    00002E2B 7B               [ 4] 7639 	ld	a, e
    00002E2C 95               [ 4] 7640 	sub	a, l
    00002E2D 7A               [ 4] 7641 	ld	a, d
    00002E2E 9C               [ 4] 7642 	sbc	a, h
    00002E2F D2r69r30         [10] 7643 	jp	NC, 00162$
                                   7644 ;E:\Dropbox\FAUSTO\SVILUPPI\MSX\CODE\C\MSXgl\projects\exsoccer/exsoccer_s1_b2.c:1354: if (g_Ball.PossessionPlayerId == NO_VALUE) {
    00002E32 DD 7E EC         [19] 7645 	ld	a, -20 (ix)
    00002E35 B7               [ 4] 7646 	or	a, a
    00002E36 CAr0Br30         [10] 7647 	jp	Z, 00157$
                                   7648 ;E:\Dropbox\FAUSTO\SVILUPPI\MSX\CODE\C\MSXgl\projects\exsoccer/exsoccer_s1_b2.c:1373: if (g_Ball.ShotActive == 1 || g_Ball.PassTargetPlayerId != NO_VALUE) {
    00002E39 DD 7E EE         [19] 7649 	ld	a, -18 (ix)
    00002E3C DD 77 FA         [19] 7650 	ld	-6 (ix), a
    00002E3F DD 7E EE         [19] 7651 	ld	a, -18 (ix)
    00002E42 3D               [ 4] 7652 	dec	a
    00002E43 28 07            [12] 7653 	jr	Z, 00132$
    00002E45 DD CB EF 46      [20] 7654 	bit	0, -17 (ix)
    00002E49 C2rE5r2E         [10] 7655 	jp	NZ, 00133$
    00002E4C                       7656 00132$:
                                   7657 ;E:\Dropbox\FAUSTO\SVILUPPI\MSX\CODE\C\MSXgl\projects\exsoccer/exsoccer_s1_b2.c:1374: i16 dxStart = (i16)g_Ball.X - (i16)g_Ball.PassStartX;
    00002E4C DD 5E F6         [19] 7658 	ld	e, -10 (ix)
    00002E4F DD 56 F7         [19] 7659 	ld	d, -9 (ix)
    00002E52 2Ar11r00         [16] 7660 	ld	hl, (#(_g_Ball + 17) + 0)
    00002E55 7B               [ 4] 7661 	ld	a, e
    00002E56 95               [ 4] 7662 	sub	a, l
    00002E57 5F               [ 4] 7663 	ld	e, a
    00002E58 7A               [ 4] 7664 	ld	a, d
    00002E59 9C               [ 4] 7665 	sbc	a, h
    00002E5A DD 73 FC         [19] 7666 	ld	-4 (ix), e
    00002E5D DD 77 FD         [19] 7667 	ld	-3 (ix), a
                                   7668 ;E:\Dropbox\FAUSTO\SVILUPPI\MSX\CODE\C\MSXgl\projects\exsoccer/exsoccer_s1_b2.c:1375: i16 dyStart = (i16)g_Ball.Y - (i16)g_Ball.PassStartY;
    00002E60 33               [ 6] 7669 	inc	sp
    00002E61 33               [ 6] 7670 	inc	sp
    00002E62 C5               [11] 7671 	push	bc
    00002E63 21r13r00         [10] 7672 	ld	hl, #_g_Ball + 19
    00002E66 7E               [ 7] 7673 	ld	a, (hl)
    00002E67 DD 77 FE         [19] 7674 	ld	-2 (ix), a
    00002E6A 23               [ 6] 7675 	inc	hl
    00002E6B 7E               [ 7] 7676 	ld	a, (hl)
    00002E6C DD 77 FF         [19] 7677 	ld	-1 (ix), a
    00002E6F DD 7E FE         [19] 7678 	ld	a, -2 (ix)
    00002E72 DD 77 E9         [19] 7679 	ld	-23 (ix), a
    00002E75 DD 7E FF         [19] 7680 	ld	a, -1 (ix)
    00002E78 DD 77 EA         [19] 7681 	ld	-22 (ix), a
    00002E7B DD 7E E7         [19] 7682 	ld	a, -25 (ix)
    00002E7E DD 96 E9         [19] 7683 	sub	a, -23 (ix)
    00002E81 DD 77 FE         [19] 7684 	ld	-2 (ix), a
    00002E84 DD 7E E8         [19] 7685 	ld	a, -24 (ix)
    00002E87 DD 9E EA         [19] 7686 	sbc	a, -22 (ix)
    00002E8A DD 77 FF         [19] 7687 	ld	-1 (ix), a
                                   7688 ;E:\Dropbox\FAUSTO\SVILUPPI\MSX\CODE\C\MSXgl\projects\exsoccer/exsoccer_s1_b2.c:1376: if (dxStart < 0) dxStart = -dxStart;
    00002E8D DD 46 FD         [19] 7689 	ld	b, -3 (ix)
    00002E90 CB 78            [ 8] 7690 	bit	7, b
    00002E92 28 0E            [12] 7691 	jr	Z, 00127$
    00002E94 AF               [ 4] 7692 	xor	a, a
    00002E95 DD 96 FC         [19] 7693 	sub	a, -4 (ix)
    00002E98 DD 77 FC         [19] 7694 	ld	-4 (ix), a
    00002E9B 9F               [ 4] 7695 	sbc	a, a
    00002E9C DD 96 FD         [19] 7696 	sub	a, -3 (ix)
    00002E9F DD 77 FD         [19] 7697 	ld	-3 (ix), a
    00002EA2                       7698 00127$:
                                   7699 ;E:\Dropbox\FAUSTO\SVILUPPI\MSX\CODE\C\MSXgl\projects\exsoccer/exsoccer_s1_b2.c:1377: if (dyStart < 0) dyStart = -dyStart;
    00002EA2 DD 46 FF         [19] 7700 	ld	b, -1 (ix)
    00002EA5 CB 78            [ 8] 7701 	bit	7, b
    00002EA7 28 0E            [12] 7702 	jr	Z, 00129$
    00002EA9 AF               [ 4] 7703 	xor	a, a
    00002EAA DD 96 FE         [19] 7704 	sub	a, -2 (ix)
    00002EAD DD 77 FE         [19] 7705 	ld	-2 (ix), a
    00002EB0 9F               [ 4] 7706 	sbc	a, a
    00002EB1 DD 96 FF         [19] 7707 	sub	a, -1 (ix)
    00002EB4 DD 77 FF         [19] 7708 	ld	-1 (ix), a
    00002EB7                       7709 00129$:
                                   7710 ;E:\Dropbox\FAUSTO\SVILUPPI\MSX\CODE\C\MSXgl\projects\exsoccer/exsoccer_s1_b2.c:1378: if ((dxStart + dyStart) < 24) continue; 
    00002EB7 DD 7E FC         [19] 7711 	ld	a, -4 (ix)
    00002EBA DD 86 FE         [19] 7712 	add	a, -2 (ix)
    00002EBD DD 77 E9         [19] 7713 	ld	-23 (ix), a
    00002EC0 DD 7E FD         [19] 7714 	ld	a, -3 (ix)
    00002EC3 DD 8E FF         [19] 7715 	adc	a, -1 (ix)
    00002EC6 DD 77 EA         [19] 7716 	ld	-22 (ix), a
    00002EC9 DD 7E E9         [19] 7717 	ld	a, -23 (ix)
    00002ECC DD 77 FE         [19] 7718 	ld	-2 (ix), a
    00002ECF DD 7E EA         [19] 7719 	ld	a, -22 (ix)
    00002ED2 DD 77 FF         [19] 7720 	ld	-1 (ix), a
    00002ED5 DD 7E FE         [19] 7721 	ld	a, -2 (ix)
    00002ED8 D6 18            [ 7] 7722 	sub	a, #0x18
    00002EDA DD 7E FF         [19] 7723 	ld	a, -1 (ix)
    00002EDD 17               [ 4] 7724 	rla
    00002EDE 3F               [ 4] 7725 	ccf
    00002EDF 1F               [ 4] 7726 	rra
    00002EE0 DE 80            [ 7] 7727 	sbc	a, #0x80
    00002EE2 DAr69r30         [10] 7728 	jp	C, 00162$
    00002EE5                       7729 00133$:
                                   7730 ;E:\Dropbox\FAUSTO\SVILUPPI\MSX\CODE\C\MSXgl\projects\exsoccer/exsoccer_s1_b2.c:1420: g_Ball.Size = 2;
                                   7731 ;E:\Dropbox\FAUSTO\SVILUPPI\MSX\CODE\C\MSXgl\projects\exsoccer/exsoccer_s1_b2.c:1382: if (g_Players[i].Role == PLAYER_ROLE_GOALKEEPER) {
    00002EE5 DD 7E F5         [19] 7732 	ld	a, -11 (ix)
    00002EE8 B7               [ 4] 7733 	or	a, a
    00002EE9 C2rE3r2F         [10] 7734 	jp	NZ, 00151$
                                   7735 ;E:\Dropbox\FAUSTO\SVILUPPI\MSX\CODE\C\MSXgl\projects\exsoccer/exsoccer_s1_b2.c:1384: bool wasShot = (g_Ball.ShotActive != 0);
    00002EEC DD 7E FA         [19] 7736 	ld	a, -6 (ix)
    00002EEF D6 01            [ 7] 7737 	sub	a,#0x01
    00002EF1 3E 00            [ 7] 7738 	ld	a, #0x00
    00002EF3 17               [ 4] 7739 	rla
    00002EF4 EE 01            [ 7] 7740 	xor	a, #0x01
    00002EF6 DD 77 FD         [19] 7741 	ld	-3 (ix), a
                                   7742 ;E:\Dropbox\FAUSTO\SVILUPPI\MSX\CODE\C\MSXgl\projects\exsoccer/exsoccer_s1_b2.c:1398: u8 team = g_Players[i].TeamId;
    00002EF9 DD 7E F1         [19] 7743 	ld	a, -15 (ix)
    00002EFC C6 09            [ 7] 7744 	add	a, #0x09
    00002EFE DD 77 FE         [19] 7745 	ld	-2 (ix), a
    00002F01 DD 7E F2         [19] 7746 	ld	a, -14 (ix)
    00002F04 CE 00            [ 7] 7747 	adc	a, #0x00
    00002F06 DD 77 FF         [19] 7748 	ld	-1 (ix), a
                                   7749 ;E:\Dropbox\FAUSTO\SVILUPPI\MSX\CODE\C\MSXgl\projects\exsoccer/exsoccer_s1_b2.c:1387: if (g_Ball.ShotActive) {
    00002F09 DD 7E FA         [19] 7750 	ld	a, -6 (ix)
    00002F0C B7               [ 4] 7751 	or	a, a
    00002F0D CArB6r2F         [10] 7752 	jp	Z, 00149$
                                   7753 ;E:\Dropbox\FAUSTO\SVILUPPI\MSX\CODE\C\MSXgl\projects\exsoccer/exsoccer_s1_b2.c:1388: i16 signedDiffX = (i16)g_Ball.X - (i16)g_Players[i].X;
    00002F10 DD 7E F6         [19] 7754 	ld	a, -10 (ix)
    00002F13 DD 77 FB         [19] 7755 	ld	-5 (ix), a
    00002F16 DD 7E F7         [19] 7756 	ld	a, -9 (ix)
    00002F19 DD 77 FC         [19] 7757 	ld	-4 (ix), a
    00002F1C DD 7E F8         [19] 7758 	ld	a, -8 (ix)
    00002F1F DD 77 F5         [19] 7759 	ld	-11 (ix), a
    00002F22 DD 7E F9         [19] 7760 	ld	a, -7 (ix)
    00002F25 DD 77 F6         [19] 7761 	ld	-10 (ix), a
    00002F28 DD 7E FB         [19] 7762 	ld	a, -5 (ix)
    00002F2B DD 96 F5         [19] 7763 	sub	a, -11 (ix)
    00002F2E DD 77 F9         [19] 7764 	ld	-7 (ix), a
    00002F31 DD 7E FC         [19] 7765 	ld	a, -4 (ix)
    00002F34 DD 9E F6         [19] 7766 	sbc	a, -10 (ix)
    00002F37 DD 77 FA         [19] 7767 	ld	-6 (ix), a
    00002F3A DD 7E F9         [19] 7768 	ld	a, -7 (ix)
    00002F3D DD 77 FB         [19] 7769 	ld	-5 (ix), a
    00002F40 DD 7E FA         [19] 7770 	ld	a, -6 (ix)
    00002F43 DD 77 FC         [19] 7771 	ld	-4 (ix), a
                                   7772 ;E:\Dropbox\FAUSTO\SVILUPPI\MSX\CODE\C\MSXgl\projects\exsoccer/exsoccer_s1_b2.c:1391: if (signedDiffX >= -5 && signedDiffX <= 5) {
    00002F46 DD 7E FB         [19] 7773 	ld	a, -5 (ix)
    00002F49 DD 77 F9         [19] 7774 	ld	-7 (ix), a
    00002F4C DD 7E FC         [19] 7775 	ld	a, -4 (ix)
    00002F4F DD 77 FA         [19] 7776 	ld	-6 (ix), a
    00002F52 3E 05            [ 7] 7777 	ld	a, #0x05
    00002F54 DD BE F9         [19] 7778 	cp	a, -7 (ix)
    00002F57 3E 00            [ 7] 7779 	ld	a, #0x00
    00002F59 DD 9E FA         [19] 7780 	sbc	a, -6 (ix)
    00002F5C E2r61r2F         [10] 7781 	jp	PO, 00316$
    00002F5F EE 80            [ 7] 7782 	xor	a, #0x80
    00002F61                       7783 00316$:
    00002F61 07               [ 4] 7784 	rlca
    00002F62 E6 01            [ 7] 7785 	and	a,#0x01
    00002F64 47               [ 4] 7786 	ld	b, a
    00002F65 DD 7E FB         [19] 7787 	ld	a, -5 (ix)
    00002F68 D6 FB            [ 7] 7788 	sub	a, #0xfb
    00002F6A DD 7E FC         [19] 7789 	ld	a, -4 (ix)
    00002F6D 17               [ 4] 7790 	rla
    00002F6E 3F               [ 4] 7791 	ccf
    00002F6F 1F               [ 4] 7792 	rra
    00002F70 DE 7F            [ 7] 7793 	sbc	a, #0x7f
    00002F72 38 04            [12] 7794 	jr	C, 00145$
    00002F74 CB 40            [ 8] 7795 	bit	0, b
    00002F76 28 3E            [12] 7796 	jr	Z, 00149$
    00002F78                       7797 00145$:
                                   7798 ;E:\Dropbox\FAUSTO\SVILUPPI\MSX\CODE\C\MSXgl\projects\exsoccer/exsoccer_s1_b2.c:1398: u8 team = g_Players[i].TeamId;
    00002F78 DD 6E FE         [19] 7799 	ld	l, -2 (ix)
    00002F7B DD 66 FF         [19] 7800 	ld	h, -1 (ix)
    00002F7E 7E               [ 7] 7801 	ld	a, (hl)
                                   7802 ;E:\Dropbox\FAUSTO\SVILUPPI\MSX\CODE\C\MSXgl\projects\exsoccer/exsoccer_s1_b2.c:1402: if (team == TEAM_1) divePose = PLAYER_POSE_TEAM1_GK_DOWN_RIGHT;
    00002F7F 3D               [ 4] 7803 	dec	a
    00002F80 3E 01            [ 7] 7804 	ld	a, #0x01
    00002F82 28 01            [12] 7805 	jr	Z, 00318$
    00002F84 AF               [ 4] 7806 	xor	a, a
    00002F85                       7807 00318$:
    00002F85 4F               [ 4] 7808 	ld	c, a
                                   7809 ;E:\Dropbox\FAUSTO\SVILUPPI\MSX\CODE\C\MSXgl\projects\exsoccer/exsoccer_s1_b2.c:1401: if (signedDiffX > 5) { // Ball to Right
    00002F86 78               [ 4] 7810 	ld	a, b
    00002F87 B7               [ 4] 7811 	or	a, a
    00002F88 28 0E            [12] 7812 	jr	Z, 00142$
                                   7813 ;E:\Dropbox\FAUSTO\SVILUPPI\MSX\CODE\C\MSXgl\projects\exsoccer/exsoccer_s1_b2.c:1402: if (team == TEAM_1) divePose = PLAYER_POSE_TEAM1_GK_DOWN_RIGHT;
    00002F8A 79               [ 4] 7814 	ld	a, c
    00002F8B B7               [ 4] 7815 	or	a, a
    00002F8C 28 05            [12] 7816 	jr	Z, 00136$
    00002F8E 0E 3F            [ 7] 7817 	ld	c, #0x3f
    00002F90 C3rA0r2F         [10] 7818 	jp	00143$
    00002F93                       7819 00136$:
                                   7820 ;E:\Dropbox\FAUSTO\SVILUPPI\MSX\CODE\C\MSXgl\projects\exsoccer/exsoccer_s1_b2.c:1403: else divePose = PLAYER_POSE_TEAM2_GK_DOWN_RIGHT;
    00002F93 0E 3F            [ 7] 7821 	ld	c, #0x3f
    00002F95 C3rA0r2F         [10] 7822 	jp	00143$
    00002F98                       7823 00142$:
                                   7824 ;E:\Dropbox\FAUSTO\SVILUPPI\MSX\CODE\C\MSXgl\projects\exsoccer/exsoccer_s1_b2.c:1405: if (team == TEAM_1) divePose = PLAYER_POSE_TEAM1_GK_DOWN_LEFT;
    00002F98 79               [ 4] 7825 	ld	a, c
    00002F99 B7               [ 4] 7826 	or	a, a
                                   7827 ;E:\Dropbox\FAUSTO\SVILUPPI\MSX\CODE\C\MSXgl\projects\exsoccer/exsoccer_s1_b2.c:1406: else divePose = PLAYER_POSE_TEAM2_GK_DOWN_LEFT;
    00002F9A 0E A0            [ 7] 7828 	ld	c, #0xa0
    00002F9C 20 02            [12] 7829 	jr	NZ, 00143$
    00002F9E 0E 90            [ 7] 7830 	ld	c, #0x90
    00002FA0                       7831 00143$:
                                   7832 ;E:\Dropbox\FAUSTO\SVILUPPI\MSX\CODE\C\MSXgl\projects\exsoccer/exsoccer_s1_b2.c:1409: g_Players[i].PatternId = divePose;
    00002FA0 DD 6E F1         [19] 7833 	ld	l, -15 (ix)
    00002FA3 DD 66 F2         [19] 7834 	ld	h, -14 (ix)
    00002FA6 11 08 00         [10] 7835 	ld	de, #0x0008
    00002FA9 19               [11] 7836 	add	hl, de
    00002FAA 71               [ 7] 7837 	ld	(hl), c
                                   7838 ;E:\Dropbox\FAUSTO\SVILUPPI\MSX\CODE\C\MSXgl\projects\exsoccer/exsoccer_s1_b2.c:1410: g_Players[i].Status = PLAYER_STATUS_POSITIONED; // Lock it
    00002FAB DD 6E F3         [19] 7839 	ld	l, -13 (ix)
    00002FAE DD 66 F4         [19] 7840 	ld	h, -12 (ix)
    00002FB1 36 04            [10] 7841 	ld	(hl), #0x04
    00002FB3 23               [ 6] 7842 	inc	hl
    00002FB4 36 00            [10] 7843 	ld	(hl), #0x00
    00002FB6                       7844 00149$:
                                   7845 ;E:\Dropbox\FAUSTO\SVILUPPI\MSX\CODE\C\MSXgl\projects\exsoccer/exsoccer_s1_b2.c:1414: PutBallOnPlayerFeet(i);
    00002FB6 DD 7E ED         [19] 7846 	ld	a, -19 (ix)
    00002FB9 CDrC5r27         [17] 7847 	call	_PutBallOnPlayerFeet
                                   7848 ;E:\Dropbox\FAUSTO\SVILUPPI\MSX\CODE\C\MSXgl\projects\exsoccer/exsoccer_s1_b2.c:1415: GoalkeeperWithBall(g_Players[i].TeamId, !wasShot); 
    00002FBC DD 7E FD         [19] 7849 	ld	a, -3 (ix)
    00002FBF D6 01            [ 7] 7850 	sub	a,#0x01
    00002FC1 3E 00            [ 7] 7851 	ld	a, #0x00
    00002FC3 17               [ 4] 7852 	rla
    00002FC4 4F               [ 4] 7853 	ld	c, a
    00002FC5 DD 6E FE         [19] 7854 	ld	l, -2 (ix)
    00002FC8 DD 66 FF         [19] 7855 	ld	h, -1 (ix)
    00002FCB 46               [ 7] 7856 	ld	b, (hl)
    00002FCC 69               [ 4] 7857 	ld	l, c
                                   7858 ;	spillPairReg hl
                                   7859 ;	spillPairReg hl
    00002FCD 78               [ 4] 7860 	ld	a, b
    00002FCE CDr00r00         [17] 7861 	call	_GoalkeeperWithBall
                                   7862 ;E:\Dropbox\FAUSTO\SVILUPPI\MSX\CODE\C\MSXgl\projects\exsoccer/exsoccer_s1_b2.c:1418: g_Ball.PassTargetPlayerId = NO_VALUE;
    00002FD1 21r10r00         [10] 7863 	ld	hl, #(_g_Ball + 16)
    00002FD4 36 FF            [10] 7864 	ld	(hl), #0xff
                                   7865 ;E:\Dropbox\FAUSTO\SVILUPPI\MSX\CODE\C\MSXgl\projects\exsoccer/exsoccer_s1_b2.c:1419: g_Ball.ShotActive = 0;
    00002FD6 21r1Br00         [10] 7866 	ld	hl, #(_g_Ball + 27)
    00002FD9 36 00            [10] 7867 	ld	(hl), #0x00
                                   7868 ;E:\Dropbox\FAUSTO\SVILUPPI\MSX\CODE\C\MSXgl\projects\exsoccer/exsoccer_s1_b2.c:1420: g_Ball.Size = 2;
    00002FDB 21r04r00         [10] 7869 	ld	hl, #(_g_Ball + 4)
    00002FDE 36 02            [10] 7870 	ld	(hl), #0x02
                                   7871 ;E:\Dropbox\FAUSTO\SVILUPPI\MSX\CODE\C\MSXgl\projects\exsoccer/exsoccer_s1_b2.c:1422: return; // Stop checking
    00002FE0 C3r75r30         [10] 7872 	jp	00166$
    00002FE3                       7873 00151$:
                                   7874 ;E:\Dropbox\FAUSTO\SVILUPPI\MSX\CODE\C\MSXgl\projects\exsoccer/exsoccer_s1_b2.c:1426: g_Ball.PassTargetPlayerId = NO_VALUE; 
    00002FE3 21r10r00         [10] 7875 	ld	hl, #(_g_Ball + 16)
    00002FE6 36 FF            [10] 7876 	ld	(hl), #0xff
                                   7877 ;E:\Dropbox\FAUSTO\SVILUPPI\MSX\CODE\C\MSXgl\projects\exsoccer/exsoccer_s1_b2.c:1427: g_Ball.ShotActive = 0; 
    00002FE8 21r1Br00         [10] 7878 	ld	hl, #(_g_Ball + 27)
    00002FEB 36 00            [10] 7879 	ld	(hl), #0x00
                                   7880 ;E:\Dropbox\FAUSTO\SVILUPPI\MSX\CODE\C\MSXgl\projects\exsoccer/exsoccer_s1_b2.c:1428: g_Ball.KickMoveState = 0;
    00002FED 21r0Dr00         [10] 7881 	ld	hl, #(_g_Ball + 13)
    00002FF0 36 00            [10] 7882 	ld	(hl), #0x00
                                   7883 ;E:\Dropbox\FAUSTO\SVILUPPI\MSX\CODE\C\MSXgl\projects\exsoccer/exsoccer_s1_b2.c:1429: g_Ball.Size = 1; // On feet = small
    00002FF2 21r04r00         [10] 7884 	ld	hl, #(_g_Ball + 4)
    00002FF5 36 01            [10] 7885 	ld	(hl), #0x01
                                   7886 ;E:\Dropbox\FAUSTO\SVILUPPI\MSX\CODE\C\MSXgl\projects\exsoccer/exsoccer_s1_b2.c:1430: PutBallOnPlayerFeet(i);
    00002FF7 DD 7E ED         [19] 7887 	ld	a, -19 (ix)
    00002FFA CDrC5r27         [17] 7888 	call	_PutBallOnPlayerFeet
                                   7889 ;E:\Dropbox\FAUSTO\SVILUPPI\MSX\CODE\C\MSXgl\projects\exsoccer/exsoccer_s1_b2.c:1431: g_Players[i].Status = PLAYER_STATUS_HAS_BALL;
    00002FFD DD 6E F3         [19] 7890 	ld	l, -13 (ix)
    00003000 DD 66 F4         [19] 7891 	ld	h, -12 (ix)
    00003003 36 01            [10] 7892 	ld	(hl), #0x01
    00003005 23               [ 6] 7893 	inc	hl
    00003006 36 00            [10] 7894 	ld	(hl), #0x00
                                   7895 ;E:\Dropbox\FAUSTO\SVILUPPI\MSX\CODE\C\MSXgl\projects\exsoccer/exsoccer_s1_b2.c:1432: return; // Stop checking
    00003008 C3r75r30         [10] 7896 	jp	00166$
    0000300B                       7897 00157$:
                                   7898 ;E:\Dropbox\FAUSTO\SVILUPPI\MSX\CODE\C\MSXgl\projects\exsoccer/exsoccer_s1_b2.c:1436: u8 currentOwner = g_Ball.PossessionPlayerId;
    0000300B DD 4E F0         [19] 7899 	ld	c, -16 (ix)
                                   7900 ;E:\Dropbox\FAUSTO\SVILUPPI\MSX\CODE\C\MSXgl\projects\exsoccer/exsoccer_s1_b2.c:1398: u8 team = g_Players[i].TeamId;
    0000300E DD 6E F1         [19] 7901 	ld	l, -15 (ix)
    00003011 DD 66 F2         [19] 7902 	ld	h, -14 (ix)
    00003014 11 09 00         [10] 7903 	ld	de, #0x0009
    00003017 19               [11] 7904 	add	hl, de
                                   7905 ;E:\Dropbox\FAUSTO\SVILUPPI\MSX\CODE\C\MSXgl\projects\exsoccer/exsoccer_s1_b2.c:1439: if (g_Players[i].Role == PLAYER_ROLE_GOALKEEPER) {
    00003018 DD 7E F5         [19] 7906 	ld	a, -11 (ix)
    0000301B B7               [ 4] 7907 	or	a, a
    0000301C 20 20            [12] 7908 	jr	NZ, 00153$
                                   7909 ;E:\Dropbox\FAUSTO\SVILUPPI\MSX\CODE\C\MSXgl\projects\exsoccer/exsoccer_s1_b2.c:1440: PutBallOnPlayerFeet(i);
    0000301E E5               [11] 7910 	push	hl
    0000301F DD 7E ED         [19] 7911 	ld	a, -19 (ix)
    00003022 CDrC5r27         [17] 7912 	call	_PutBallOnPlayerFeet
    00003025 E1               [10] 7913 	pop	hl
                                   7914 ;E:\Dropbox\FAUSTO\SVILUPPI\MSX\CODE\C\MSXgl\projects\exsoccer/exsoccer_s1_b2.c:1441: GoalkeeperWithBall(g_Players[i].TeamId, 1); // Treat as steal (no recoil)
                                   7915 ;	spillPairReg hl
                                   7916 ;	spillPairReg hl
    00003026 7E               [ 7] 7917 	ld	a, (hl)
    00003027 2E 01            [ 7] 7918 	ld	l, #0x01
    00003029 CDr00r00         [17] 7919 	call	_GoalkeeperWithBall
                                   7920 ;E:\Dropbox\FAUSTO\SVILUPPI\MSX\CODE\C\MSXgl\projects\exsoccer/exsoccer_s1_b2.c:1444: g_Ball.PassTargetPlayerId = NO_VALUE;
    0000302C 21r10r00         [10] 7921 	ld	hl, #(_g_Ball + 16)
    0000302F 36 FF            [10] 7922 	ld	(hl), #0xff
                                   7923 ;E:\Dropbox\FAUSTO\SVILUPPI\MSX\CODE\C\MSXgl\projects\exsoccer/exsoccer_s1_b2.c:1445: g_Ball.ShotActive = 0;
    00003031 21r1Br00         [10] 7924 	ld	hl, #(_g_Ball + 27)
    00003034 36 00            [10] 7925 	ld	(hl), #0x00
                                   7926 ;E:\Dropbox\FAUSTO\SVILUPPI\MSX\CODE\C\MSXgl\projects\exsoccer/exsoccer_s1_b2.c:1446: g_Ball.Size = 2;
    00003036 21r04r00         [10] 7927 	ld	hl, #(_g_Ball + 4)
    00003039 36 02            [10] 7928 	ld	(hl), #0x02
                                   7929 ;E:\Dropbox\FAUSTO\SVILUPPI\MSX\CODE\C\MSXgl\projects\exsoccer/exsoccer_s1_b2.c:1447: return;
    0000303B C3r75r30         [10] 7930 	jp	00166$
    0000303E                       7931 00153$:
                                   7932 ;E:\Dropbox\FAUSTO\SVILUPPI\MSX\CODE\C\MSXgl\projects\exsoccer/exsoccer_s1_b2.c:1450: if (g_Players[i].TeamId != g_Players[currentOwner].TeamId) {
    0000303E 5E               [ 7] 7933 	ld	e, (hl)
    0000303F 06 00            [ 7] 7934 	ld	b, #0x00
    00003041 69               [ 4] 7935 	ld	l, c
    00003042 60               [ 4] 7936 	ld	h, b
    00003043 29               [11] 7937 	add	hl, hl
    00003044 29               [11] 7938 	add	hl, hl
    00003045 09               [11] 7939 	add	hl, bc
    00003046 29               [11] 7940 	add	hl, hl
    00003047 29               [11] 7941 	add	hl, hl
    00003048 09               [11] 7942 	add	hl, bc
    00003049 01r00r00         [10] 7943 	ld	bc, #_g_Players
    0000304C 09               [11] 7944 	add	hl, bc
    0000304D 01 09 00         [10] 7945 	ld	bc, #0x0009
    00003050 09               [11] 7946 	add	hl, bc
    00003051 4E               [ 7] 7947 	ld	c, (hl)
    00003052 7B               [ 4] 7948 	ld	a, e
    00003053 91               [ 4] 7949 	sub	a, c
    00003054 28 13            [12] 7950 	jr	Z, 00162$
                                   7951 ;E:\Dropbox\FAUSTO\SVILUPPI\MSX\CODE\C\MSXgl\projects\exsoccer/exsoccer_s1_b2.c:1452: PutBallOnPlayerFeet(i);
    00003056 DD 7E ED         [19] 7952 	ld	a, -19 (ix)
    00003059 CDrC5r27         [17] 7953 	call	_PutBallOnPlayerFeet
                                   7954 ;E:\Dropbox\FAUSTO\SVILUPPI\MSX\CODE\C\MSXgl\projects\exsoccer/exsoccer_s1_b2.c:1454: g_Ball.PassTargetPlayerId = NO_VALUE;
    0000305C 21r10r00         [10] 7955 	ld	hl, #(_g_Ball + 16)
    0000305F 36 FF            [10] 7956 	ld	(hl), #0xff
                                   7957 ;E:\Dropbox\FAUSTO\SVILUPPI\MSX\CODE\C\MSXgl\projects\exsoccer/exsoccer_s1_b2.c:1455: g_Ball.ShotActive = 0;
    00003061 21r1Br00         [10] 7958 	ld	hl, #(_g_Ball + 27)
    00003064 36 00            [10] 7959 	ld	(hl), #0x00
                                   7960 ;E:\Dropbox\FAUSTO\SVILUPPI\MSX\CODE\C\MSXgl\projects\exsoccer/exsoccer_s1_b2.c:1456: return;
    00003066 C3r75r30         [10] 7961 	jp	00166$
    00003069                       7962 00162$:
                                   7963 ;E:\Dropbox\FAUSTO\SVILUPPI\MSX\CODE\C\MSXgl\projects\exsoccer/exsoccer_s1_b2.c:1336: for(u8 i=0; i<14; i++){
    00003069 DD 34 FB         [23] 7964 	inc	-5 (ix)
    0000306C DD 7E FB         [19] 7965 	ld	a, -5 (ix)
    0000306F DD 77 ED         [19] 7966 	ld	-19 (ix), a
    00003072 C3r3Dr2D         [10] 7967 	jp	00165$
    00003075                       7968 00166$:
                                   7969 ;E:\Dropbox\FAUSTO\SVILUPPI\MSX\CODE\C\MSXgl\projects\exsoccer/exsoccer_s1_b2.c:1461: }
    00003075 DD F9            [10] 7970 	ld	sp, ix
    00003077 DD E1            [14] 7971 	pop	ix
    00003079 C9               [10] 7972 	ret
                                   7973 ;E:\Dropbox\FAUSTO\SVILUPPI\MSX\CODE\C\MSXgl\projects\exsoccer/exsoccer_s1_b2.c:1463: void HandleOffside(u8 offsidePlayerId) {
                                   7974 ;	---------------------------------
                                   7975 ; Function HandleOffside
                                   7976 ; ---------------------------------
    0000307A                       7977 _HandleOffside::
    0000307A 5F               [ 4] 7978 	ld	e, a
                                   7979 ;E:\Dropbox\FAUSTO\SVILUPPI\MSX\CODE\C\MSXgl\projects\exsoccer/exsoccer_s1_b2.c:1464: V9_PrintLayerAStringAtPos(10,18,"OFFSIDE");
    0000307B D5               [11] 7980 	push	de
    0000307C 21rB7r30         [10] 7981 	ld	hl, #___str_0
    0000307F E5               [11] 7982 	push	hl
    00003080 2E 12            [ 7] 7983 	ld	l, #0x12
                                   7984 ;	spillPairReg hl
                                   7985 ;	spillPairReg hl
    00003082 3E 0A            [ 7] 7986 	ld	a, #0x0a
    00003084 CDr00r00         [17] 7987 	call	_V9_PrintLayerAStringAtPos
    00003087 D1               [10] 7988 	pop	de
                                   7989 ;E:\Dropbox\FAUSTO\SVILUPPI\MSX\CODE\C\MSXgl\projects\exsoccer/exsoccer_s1_b2.c:1465: g_MatchStatus=MATCH_BEFORE_OFFSIDE;
    00003088 21r00r00         [10] 7990 	ld	hl, #_g_MatchStatus
    0000308B 36 0E            [10] 7991 	ld	(hl), #0x0e
                                   7992 ;E:\Dropbox\FAUSTO\SVILUPPI\MSX\CODE\C\MSXgl\projects\exsoccer/exsoccer_s1_b2.c:1466: u8 teamId = g_Players[offsidePlayerId].TeamId;
    0000308D 01r00r00         [10] 7993 	ld	bc, #_g_Players+0
    00003090 16 00            [ 7] 7994 	ld	d, #0x00
    00003092 6B               [ 4] 7995 	ld	l, e
    00003093 62               [ 4] 7996 	ld	h, d
    00003094 29               [11] 7997 	add	hl, hl
    00003095 29               [11] 7998 	add	hl, hl
    00003096 19               [11] 7999 	add	hl, de
    00003097 29               [11] 8000 	add	hl, hl
    00003098 29               [11] 8001 	add	hl, hl
    00003099 19               [11] 8002 	add	hl, de
    0000309A 09               [11] 8003 	add	hl, bc
    0000309B 11 09 00         [10] 8004 	ld	de, #0x0009
    0000309E 19               [11] 8005 	add	hl, de
    0000309F 7E               [ 7] 8006 	ld	a, (hl)
                                   8007 ;E:\Dropbox\FAUSTO\SVILUPPI\MSX\CODE\C\MSXgl\projects\exsoccer/exsoccer_s1_b2.c:1467: g_RestartKickTeamId = (teamId == TEAM_1) ? TEAM_2 : TEAM_1;
    000030A0 3D               [ 4] 8008 	dec	a
    000030A1 20 07            [12] 8009 	jr	NZ, 00103$
    000030A3 3E 02            [ 7] 8010 	ld	a, #0x02
    000030A5 0E 00            [ 7] 8011 	ld	c, #0x00
    000030A7 C3rAEr30         [10] 8012 	jp	00104$
    000030AA                       8013 00103$:
    000030AA 3E 01            [ 7] 8014 	ld	a, #0x01
    000030AC 0E 00            [ 7] 8015 	ld	c, #0x00
    000030AE                       8016 00104$:
    000030AE 32r00r00         [13] 8017 	ld	(_g_RestartKickTeamId+0), a
                                   8018 ;E:\Dropbox\FAUSTO\SVILUPPI\MSX\CODE\C\MSXgl\projects\exsoccer/exsoccer_s1_b2.c:1468: g_Timer = 0;
    000030B1 21r00r00         [10] 8019 	ld	hl, #_g_Timer
    000030B4 36 00            [10] 8020 	ld	(hl), #0x00
                                   8021 ;E:\Dropbox\FAUSTO\SVILUPPI\MSX\CODE\C\MSXgl\projects\exsoccer/exsoccer_s1_b2.c:1469: }
    000030B6 C9               [10] 8022 	ret
    000030B7                       8023 ___str_0:
    000030B7 4F 46 46 53 49 44 45  8024 	.ascii "OFFSIDE"
    000030BE 00                    8025 	.db 0x00
                                   8026 ;E:\Dropbox\FAUSTO\SVILUPPI\MSX\CODE\C\MSXgl\projects\exsoccer/exsoccer_s1_b2.c:1471: bool IsOffside(u8 playerId) {
                                   8027 ;	---------------------------------
                                   8028 ; Function IsOffside
                                   8029 ; ---------------------------------
    000030BF                       8030 _IsOffside::
    000030BF DD E5            [15] 8031 	push	ix
    000030C1 DD 21 00 00      [14] 8032 	ld	ix,#0
    000030C5 DD 39            [15] 8033 	add	ix,sp
    000030C7 21 F9 FF         [10] 8034 	ld	hl, #-7
    000030CA 39               [11] 8035 	add	hl, sp
    000030CB F9               [ 6] 8036 	ld	sp, hl
    000030CC 4F               [ 4] 8037 	ld	c, a
                                   8038 ;E:\Dropbox\FAUSTO\SVILUPPI\MSX\CODE\C\MSXgl\projects\exsoccer/exsoccer_s1_b2.c:1472: u8 teamId = g_Players[playerId].TeamId;
    000030CD 06 00            [ 7] 8039 	ld	b, #0x00
    000030CF 69               [ 4] 8040 	ld	l, c
    000030D0 60               [ 4] 8041 	ld	h, b
    000030D1 29               [11] 8042 	add	hl, hl
    000030D2 29               [11] 8043 	add	hl, hl
    000030D3 09               [11] 8044 	add	hl, bc
    000030D4 29               [11] 8045 	add	hl, hl
    000030D5 29               [11] 8046 	add	hl, hl
    000030D6 09               [11] 8047 	add	hl, bc
    000030D7 EB               [ 4] 8048 	ex	de, hl
    000030D8 21r00r00         [10] 8049 	ld	hl, #_g_Players
    000030DB 19               [11] 8050 	add	hl, de
    000030DC EB               [ 4] 8051 	ex	de, hl
    000030DD D5               [11] 8052 	push	de
    000030DE FD E1            [14] 8053 	pop	iy
    000030E0 FD 7E 09         [19] 8054 	ld	a, 9 (iy)
    000030E3 DD 77 F9         [19] 8055 	ld	-7 (ix), a
                                   8056 ;E:\Dropbox\FAUSTO\SVILUPPI\MSX\CODE\C\MSXgl\projects\exsoccer/exsoccer_s1_b2.c:1473: u16 playerY = g_Players[playerId].Y;
    000030E6 1A               [ 7] 8057 	ld	a, (de)
    000030E7 DD 77 FA         [19] 8058 	ld	-6 (ix), a
    000030EA 13               [ 6] 8059 	inc	de
    000030EB 1A               [ 7] 8060 	ld	a, (de)
    000030EC DD 77 FB         [19] 8061 	ld	-5 (ix), a
                                   8062 ;E:\Dropbox\FAUSTO\SVILUPPI\MSX\CODE\C\MSXgl\projects\exsoccer/exsoccer_s1_b2.c:1474: u8 opponentCount = 0;
    000030EF DD 36 FF 00      [19] 8063 	ld	-1 (ix), #0x00
                                   8064 ;E:\Dropbox\FAUSTO\SVILUPPI\MSX\CODE\C\MSXgl\projects\exsoccer/exsoccer_s1_b2.c:1478: if (teamId == TEAM_1) {
    000030F3 DD 7E F9         [19] 8065 	ld	a, -7 (ix)
    000030F6 3D               [ 4] 8066 	dec	a
    000030F7 3E 01            [ 7] 8067 	ld	a, #0x01
    000030F9 28 01            [12] 8068 	jr	Z, 00198$
    000030FB AF               [ 4] 8069 	xor	a, a
    000030FC                       8070 00198$:
    000030FC DD 77 FC         [19] 8071 	ld	-4 (ix), a
                                   8072 ;E:\Dropbox\FAUSTO\SVILUPPI\MSX\CODE\C\MSXgl\projects\exsoccer/exsoccer_s1_b2.c:1479: if (playerY >= FIELD_POS_Y_CENTER) return FALSE; // Own half
    000030FF DD 7E FA         [19] 8073 	ld	a, -6 (ix)
    00003102 DD 77 FD         [19] 8074 	ld	-3 (ix), a
    00003105 DD 7E FB         [19] 8075 	ld	a, -5 (ix)
    00003108 DD 77 FE         [19] 8076 	ld	-2 (ix), a
                                   8077 ;E:\Dropbox\FAUSTO\SVILUPPI\MSX\CODE\C\MSXgl\projects\exsoccer/exsoccer_s1_b2.c:1478: if (teamId == TEAM_1) {
    0000310B DD 7E FC         [19] 8078 	ld	a, -4 (ix)
    0000310E B7               [ 4] 8079 	or	a, a
    0000310F 28 10            [12] 8080 	jr	Z, 00106$
                                   8081 ;E:\Dropbox\FAUSTO\SVILUPPI\MSX\CODE\C\MSXgl\projects\exsoccer/exsoccer_s1_b2.c:1479: if (playerY >= FIELD_POS_Y_CENTER) return FALSE; // Own half
    00003111 DD 7E FD         [19] 8082 	ld	a, -3 (ix)
    00003114 D6 F3            [ 7] 8083 	sub	a, #0xf3
    00003116 DD 7E FE         [19] 8084 	ld	a, -2 (ix)
    00003119 DE 00            [ 7] 8085 	sbc	a, #0x00
    0000311B 38 14            [12] 8086 	jr	C, 00107$
    0000311D AF               [ 4] 8087 	xor	a, a
    0000311E C3rB1r31         [10] 8088 	jp	00129$
    00003121                       8089 00106$:
                                   8090 ;E:\Dropbox\FAUSTO\SVILUPPI\MSX\CODE\C\MSXgl\projects\exsoccer/exsoccer_s1_b2.c:1481: if (playerY <= FIELD_POS_Y_CENTER) return FALSE; // Own half
    00003121 3E F3            [ 7] 8091 	ld	a, #0xf3
    00003123 DD BE FD         [19] 8092 	cp	a, -3 (ix)
    00003126 3E 00            [ 7] 8093 	ld	a, #0x00
    00003128 DD 9E FE         [19] 8094 	sbc	a, -2 (ix)
    0000312B 38 04            [12] 8095 	jr	C, 00107$
    0000312D AF               [ 4] 8096 	xor	a, a
    0000312E C3rB1r31         [10] 8097 	jp	00129$
    00003131                       8098 00107$:
                                   8099 ;E:\Dropbox\FAUSTO\SVILUPPI\MSX\CODE\C\MSXgl\projects\exsoccer/exsoccer_s1_b2.c:1486: if (teamId == TEAM_1) {
    00003131 DD 7E FC         [19] 8100 	ld	a, -4 (ix)
    00003134 B7               [ 4] 8101 	or	a, a
    00003135 28 11            [12] 8102 	jr	Z, 00113$
                                   8103 ;E:\Dropbox\FAUSTO\SVILUPPI\MSX\CODE\C\MSXgl\projects\exsoccer/exsoccer_s1_b2.c:1487: if (playerY >= g_Ball.Y) return FALSE; 
    00003137 2Ar00r00         [16] 8104 	ld	hl, (#_g_Ball + 0)
    0000313A DD 7E FA         [19] 8105 	ld	a, -6 (ix)
    0000313D 95               [ 4] 8106 	sub	a, l
    0000313E DD 7E FB         [19] 8107 	ld	a, -5 (ix)
    00003141 9C               [ 4] 8108 	sbc	a, h
    00003142 38 15            [12] 8109 	jr	C, 00141$
    00003144 AF               [ 4] 8110 	xor	a, a
    00003145 C3rB1r31         [10] 8111 	jp	00129$
    00003148                       8112 00113$:
                                   8113 ;E:\Dropbox\FAUSTO\SVILUPPI\MSX\CODE\C\MSXgl\projects\exsoccer/exsoccer_s1_b2.c:1489: if (playerY <= g_Ball.Y) return FALSE;
    00003148 2Ar00r00         [16] 8114 	ld	hl, (#_g_Ball + 0)
    0000314B 7D               [ 4] 8115 	ld	a, l
    0000314C DD 96 FA         [19] 8116 	sub	a, -6 (ix)
    0000314F 7C               [ 4] 8117 	ld	a, h
    00003150 DD 9E FB         [19] 8118 	sbc	a, -5 (ix)
    00003153 38 04            [12] 8119 	jr	C, 00141$
    00003155 AF               [ 4] 8120 	xor	a, a
    00003156 C3rB1r31         [10] 8121 	jp	00129$
                                   8122 ;E:\Dropbox\FAUSTO\SVILUPPI\MSX\CODE\C\MSXgl\projects\exsoccer/exsoccer_s1_b2.c:1493: for (i = 0; i < 14; i++) {
    00003159                       8123 00141$:
    00003159 0E 00            [ 7] 8124 	ld	c, #0x00
    0000315B                       8125 00128$:
                                   8126 ;E:\Dropbox\FAUSTO\SVILUPPI\MSX\CODE\C\MSXgl\projects\exsoccer/exsoccer_s1_b2.c:1494: if (g_Players[i].TeamId == teamId) continue;
    0000315B 06 00            [ 7] 8127 	ld	b, #0x00
    0000315D 69               [ 4] 8128 	ld	l, c
    0000315E 60               [ 4] 8129 	ld	h, b
    0000315F 29               [11] 8130 	add	hl, hl
    00003160 29               [11] 8131 	add	hl, hl
    00003161 09               [11] 8132 	add	hl, bc
    00003162 29               [11] 8133 	add	hl, hl
    00003163 29               [11] 8134 	add	hl, hl
    00003164 09               [11] 8135 	add	hl, bc
    00003165 11r00r00         [10] 8136 	ld	de, #_g_Players
    00003168 19               [11] 8137 	add	hl, de
                                   8138 ;	spillPairReg hl
                                   8139 ;	spillPairReg hl
    00003169 5D               [ 4] 8140 	ld	e, l
    0000316A 54               [ 4] 8141 	ld	d, h
                                   8142 ;	spillPairReg hl
                                   8143 ;	spillPairReg hl
    0000316B C5               [11] 8144 	push	bc
    0000316C 01 09 00         [10] 8145 	ld	bc, #0x0009
    0000316F 09               [11] 8146 	add	hl, bc
    00003170 C1               [10] 8147 	pop	bc
    00003171 DD 7E F9         [19] 8148 	ld	a,-7 (ix)
    00003174 96               [ 7] 8149 	sub	a,(hl)
    00003175 28 27            [12] 8150 	jr	Z, 00124$
                                   8151 ;E:\Dropbox\FAUSTO\SVILUPPI\MSX\CODE\C\MSXgl\projects\exsoccer/exsoccer_s1_b2.c:1498: if (g_Players[i].Y <= playerY) opponentCount++;
    00003177 EB               [ 4] 8152 	ex	de,hl
    00003178 5E               [ 7] 8153 	ld	e, (hl)
    00003179 23               [ 6] 8154 	inc	hl
    0000317A 56               [ 7] 8155 	ld	d, (hl)
                                   8156 ;E:\Dropbox\FAUSTO\SVILUPPI\MSX\CODE\C\MSXgl\projects\exsoccer/exsoccer_s1_b2.c:1497: if (teamId == TEAM_1) { // Attacking UP
    0000317B DD 7E FC         [19] 8157 	ld	a, -4 (ix)
    0000317E B7               [ 4] 8158 	or	a, a
    0000317F 28 10            [12] 8159 	jr	Z, 00122$
                                   8160 ;E:\Dropbox\FAUSTO\SVILUPPI\MSX\CODE\C\MSXgl\projects\exsoccer/exsoccer_s1_b2.c:1498: if (g_Players[i].Y <= playerY) opponentCount++;
    00003181 DD 7E FA         [19] 8161 	ld	a, -6 (ix)
    00003184 93               [ 4] 8162 	sub	a, e
    00003185 DD 7E FB         [19] 8163 	ld	a, -5 (ix)
    00003188 9A               [ 4] 8164 	sbc	a, d
    00003189 38 13            [12] 8165 	jr	C, 00124$
    0000318B DD 34 FF         [23] 8166 	inc	-1 (ix)
    0000318E C3r9Er31         [10] 8167 	jp	00124$
    00003191                       8168 00122$:
                                   8169 ;E:\Dropbox\FAUSTO\SVILUPPI\MSX\CODE\C\MSXgl\projects\exsoccer/exsoccer_s1_b2.c:1500: if (g_Players[i].Y >= playerY) opponentCount++;
    00003191 7B               [ 4] 8170 	ld	a, e
    00003192 DD 96 FA         [19] 8171 	sub	a, -6 (ix)
    00003195 7A               [ 4] 8172 	ld	a, d
    00003196 DD 9E FB         [19] 8173 	sbc	a, -5 (ix)
    00003199 38 03            [12] 8174 	jr	C, 00124$
    0000319B DD 34 FF         [23] 8175 	inc	-1 (ix)
    0000319E                       8176 00124$:
                                   8177 ;E:\Dropbox\FAUSTO\SVILUPPI\MSX\CODE\C\MSXgl\projects\exsoccer/exsoccer_s1_b2.c:1493: for (i = 0; i < 14; i++) {
    0000319E 0C               [ 4] 8178 	inc	c
    0000319F 79               [ 4] 8179 	ld	a, c
    000031A0 D6 0E            [ 7] 8180 	sub	a, #0x0e
    000031A2 38 B7            [12] 8181 	jr	C, 00128$
                                   8182 ;E:\Dropbox\FAUSTO\SVILUPPI\MSX\CODE\C\MSXgl\projects\exsoccer/exsoccer_s1_b2.c:1504: if (opponentCount < 2) return TRUE;
    000031A4 DD 7E FF         [19] 8183 	ld	a, -1 (ix)
    000031A7 D6 02            [ 7] 8184 	sub	a, #0x02
    000031A9 30 05            [12] 8185 	jr	NC, 00127$
    000031AB 3E 01            [ 7] 8186 	ld	a, #0x01
    000031AD C3rB1r31         [10] 8187 	jp	00129$
    000031B0                       8188 00127$:
                                   8189 ;E:\Dropbox\FAUSTO\SVILUPPI\MSX\CODE\C\MSXgl\projects\exsoccer/exsoccer_s1_b2.c:1505: return FALSE;
    000031B0 AF               [ 4] 8190 	xor	a, a
    000031B1                       8191 00129$:
                                   8192 ;E:\Dropbox\FAUSTO\SVILUPPI\MSX\CODE\C\MSXgl\projects\exsoccer/exsoccer_s1_b2.c:1506: }
    000031B1 DD F9            [10] 8193 	ld	sp, ix
    000031B3 DD E1            [14] 8194 	pop	ix
    000031B5 C9               [10] 8195 	ret
                                   8196 ;E:\Dropbox\FAUSTO\SVILUPPI\MSX\CODE\C\MSXgl\projects\exsoccer/exsoccer_s1_b2.c:1508: void PerformPass(u8 toPlayerId) {
                                   8197 ;	---------------------------------
                                   8198 ; Function PerformPass
                                   8199 ; ---------------------------------
    000031B6                       8200 _PerformPass::
    000031B6 DD E5            [15] 8201 	push	ix
    000031B8 DD 21 00 00      [14] 8202 	ld	ix,#0
    000031BC DD 39            [15] 8203 	add	ix,sp
    000031BE 21 ED FF         [10] 8204 	ld	hl, #-19
    000031C1 39               [11] 8205 	add	hl, sp
    000031C2 F9               [ 6] 8206 	ld	sp, hl
    000031C3 DD 77 FF         [19] 8207 	ld	-1 (ix), a
                                   8208 ;E:\Dropbox\FAUSTO\SVILUPPI\MSX\CODE\C\MSXgl\projects\exsoccer/exsoccer_s1_b2.c:1510: u8 fromId = g_Ball.PossessionPlayerId;
    000031C6 3Ar06r00         [13] 8209 	ld	a, (#(_g_Ball + 6) + 0)
                                   8210 ;E:\Dropbox\FAUSTO\SVILUPPI\MSX\CODE\C\MSXgl\projects\exsoccer/exsoccer_s1_b2.c:1514: if (fromId == NO_VALUE) return;
    000031C9 DD 77 FE         [19] 8211 	ld	-2 (ix), a
    000031CC 3C               [ 4] 8212 	inc	a
    000031CD CAr49r36         [10] 8213 	jp	Z,00153$
    000031D0 C3rD3r31         [10] 8214 	jp	00102$
    000031D3                       8215 00102$:
                                   8216 ;E:\Dropbox\FAUSTO\SVILUPPI\MSX\CODE\C\MSXgl\projects\exsoccer/exsoccer_s1_b2.c:1515: if (toPlayerId == NO_VALUE) return;
    000031D3 DD 7E FF         [19] 8217 	ld	a, -1 (ix)
    000031D6 3C               [ 4] 8218 	inc	a
    000031D7 CAr49r36         [10] 8219 	jp	Z,00153$
    000031DA C3rDDr31         [10] 8220 	jp	00104$
    000031DD                       8221 00104$:
                                   8222 ;E:\Dropbox\FAUSTO\SVILUPPI\MSX\CODE\C\MSXgl\projects\exsoccer/exsoccer_s1_b2.c:1519: if (g_Players[fromId].Role != PLAYER_ROLE_GOALKEEPER) {
    000031DD 01r00r00         [10] 8223 	ld	bc, #_g_Players+0
    000031E0 DD 5E FE         [19] 8224 	ld	e, -2 (ix)
    000031E3 16 00            [ 7] 8225 	ld	d, #0x00
    000031E5 6B               [ 4] 8226 	ld	l, e
    000031E6 62               [ 4] 8227 	ld	h, d
    000031E7 29               [11] 8228 	add	hl, hl
    000031E8 29               [11] 8229 	add	hl, hl
    000031E9 19               [11] 8230 	add	hl, de
    000031EA 29               [11] 8231 	add	hl, hl
    000031EB 29               [11] 8232 	add	hl, hl
    000031EC 19               [11] 8233 	add	hl, de
    000031ED 09               [11] 8234 	add	hl, bc
    000031EE E3               [19] 8235 	ex	(sp), hl
    000031EF DD 7E ED         [19] 8236 	ld	a, -19 (ix)
    000031F2 C6 0D            [ 7] 8237 	add	a, #0x0d
    000031F4 DD 77 EF         [19] 8238 	ld	-17 (ix), a
    000031F7 DD 7E EE         [19] 8239 	ld	a, -18 (ix)
    000031FA CE 00            [ 7] 8240 	adc	a, #0x00
    000031FC DD 77 F0         [19] 8241 	ld	-16 (ix), a
    000031FF DD 6E EF         [19] 8242 	ld	l, -17 (ix)
    00003202 DD 66 F0         [19] 8243 	ld	h, -16 (ix)
    00003205 7E               [ 7] 8244 	ld	a, (hl)
    00003206 B7               [ 4] 8245 	or	a, a
    00003207 28 0C            [12] 8246 	jr	Z, 00108$
                                   8247 ;E:\Dropbox\FAUSTO\SVILUPPI\MSX\CODE\C\MSXgl\projects\exsoccer/exsoccer_s1_b2.c:1520: if (IsOffside(toPlayerId)) {
    00003209 C5               [11] 8248 	push	bc
    0000320A DD 7E FF         [19] 8249 	ld	a, -1 (ix)
    0000320D CDrBFr30         [17] 8250 	call	_IsOffside
    00003210 C1               [10] 8251 	pop	bc
    00003211 B7               [ 4] 8252 	or	a, a
                                   8253 ;E:\Dropbox\FAUSTO\SVILUPPI\MSX\CODE\C\MSXgl\projects\exsoccer/exsoccer_s1_b2.c:1522: return;
    00003212 C2r49r36         [10] 8254 	jp	NZ,00153$
    00003215                       8255 00108$:
                                   8256 ;E:\Dropbox\FAUSTO\SVILUPPI\MSX\CODE\C\MSXgl\projects\exsoccer/exsoccer_s1_b2.c:1527: dx = (i16)g_Players[toPlayerId].X - (i16)g_Players[fromId].X;
    00003215 DD 5E FF         [19] 8257 	ld	e, -1 (ix)
    00003218 16 00            [ 7] 8258 	ld	d, #0x00
    0000321A 6B               [ 4] 8259 	ld	l, e
    0000321B 62               [ 4] 8260 	ld	h, d
    0000321C 29               [11] 8261 	add	hl, hl
    0000321D 29               [11] 8262 	add	hl, hl
    0000321E 19               [11] 8263 	add	hl, de
    0000321F 29               [11] 8264 	add	hl, hl
    00003220 29               [11] 8265 	add	hl, hl
    00003221 19               [11] 8266 	add	hl, de
    00003222 09               [11] 8267 	add	hl, bc
    00003223 DD 75 F1         [19] 8268 	ld	-15 (ix), l
    00003226 DD 74 F2         [19] 8269 	ld	-14 (ix), h
    00003229 DD 7E F1         [19] 8270 	ld	a, -15 (ix)
    0000322C C6 02            [ 7] 8271 	add	a, #0x02
    0000322E DD 77 F3         [19] 8272 	ld	-13 (ix), a
    00003231 DD 7E F2         [19] 8273 	ld	a, -14 (ix)
    00003234 CE 00            [ 7] 8274 	adc	a, #0x00
    00003236 DD 77 F4         [19] 8275 	ld	-12 (ix), a
    00003239 DD 6E F3         [19] 8276 	ld	l, -13 (ix)
    0000323C DD 66 F4         [19] 8277 	ld	h, -12 (ix)
    0000323F 4E               [ 7] 8278 	ld	c, (hl)
    00003240 23               [ 6] 8279 	inc	hl
    00003241 46               [ 7] 8280 	ld	b, (hl)
    00003242 DD 7E ED         [19] 8281 	ld	a, -19 (ix)
    00003245 C6 02            [ 7] 8282 	add	a, #0x02
    00003247 DD 77 F5         [19] 8283 	ld	-11 (ix), a
    0000324A DD 7E EE         [19] 8284 	ld	a, -18 (ix)
    0000324D CE 00            [ 7] 8285 	adc	a, #0x00
    0000324F DD 77 F6         [19] 8286 	ld	-10 (ix), a
    00003252 DD 6E F5         [19] 8287 	ld	l, -11 (ix)
    00003255 DD 66 F6         [19] 8288 	ld	h, -10 (ix)
    00003258 5E               [ 7] 8289 	ld	e, (hl)
    00003259 23               [ 6] 8290 	inc	hl
    0000325A 56               [ 7] 8291 	ld	d, (hl)
    0000325B 79               [ 4] 8292 	ld	a, c
    0000325C 93               [ 4] 8293 	sub	a, e
    0000325D DD 77 F9         [19] 8294 	ld	-7 (ix), a
    00003260 78               [ 4] 8295 	ld	a, b
    00003261 9A               [ 4] 8296 	sbc	a, d
    00003262 DD 77 FA         [19] 8297 	ld	-6 (ix), a
                                   8298 ;E:\Dropbox\FAUSTO\SVILUPPI\MSX\CODE\C\MSXgl\projects\exsoccer/exsoccer_s1_b2.c:1528: dy = (i16)g_Players[toPlayerId].Y - (i16)g_Players[fromId].Y;
    00003265 DD 6E F1         [19] 8299 	ld	l, -15 (ix)
    00003268 DD 66 F2         [19] 8300 	ld	h, -14 (ix)
    0000326B 4E               [ 7] 8301 	ld	c, (hl)
    0000326C 23               [ 6] 8302 	inc	hl
    0000326D 46               [ 7] 8303 	ld	b, (hl)
    0000326E E1               [10] 8304 	pop	hl
    0000326F E5               [11] 8305 	push	hl
    00003270 5E               [ 7] 8306 	ld	e, (hl)
    00003271 23               [ 6] 8307 	inc	hl
    00003272 56               [ 7] 8308 	ld	d, (hl)
    00003273 79               [ 4] 8309 	ld	a, c
    00003274 93               [ 4] 8310 	sub	a, e
    00003275 DD 77 FD         [19] 8311 	ld	-3 (ix), a
    00003278 78               [ 4] 8312 	ld	a, b
    00003279 9A               [ 4] 8313 	sbc	a, d
    0000327A DD 77 FE         [19] 8314 	ld	-2 (ix), a
                                   8315 ;E:\Dropbox\FAUSTO\SVILUPPI\MSX\CODE\C\MSXgl\projects\exsoccer/exsoccer_s1_b2.c:1529: adx = (dx < 0) ? -dx : dx;
    0000327D DD 7E F9         [19] 8316 	ld	a, -7 (ix)
    00003280 DD 77 F7         [19] 8317 	ld	-9 (ix), a
    00003283 DD 7E FA         [19] 8318 	ld	a, -6 (ix)
    00003286 DD 77 F8         [19] 8319 	ld	-8 (ix), a
    00003289 DD CB F8 7E      [20] 8320 	bit	7, -8 (ix)
    0000328D 28 11            [12] 8321 	jr	Z, 00155$
    0000328F AF               [ 4] 8322 	xor	a, a
    00003290 DD 96 F9         [19] 8323 	sub	a, -7 (ix)
    00003293 DD 77 FB         [19] 8324 	ld	-5 (ix), a
    00003296 9F               [ 4] 8325 	sbc	a, a
    00003297 DD 96 FA         [19] 8326 	sub	a, -6 (ix)
    0000329A DD 77 FC         [19] 8327 	ld	-4 (ix), a
    0000329D C3rACr32         [10] 8328 	jp	00156$
    000032A0                       8329 00155$:
    000032A0 DD 7E F9         [19] 8330 	ld	a, -7 (ix)
    000032A3 DD 77 FB         [19] 8331 	ld	-5 (ix), a
    000032A6 DD 7E FA         [19] 8332 	ld	a, -6 (ix)
    000032A9 DD 77 FC         [19] 8333 	ld	-4 (ix), a
    000032AC                       8334 00156$:
    000032AC DD 4E FB         [19] 8335 	ld	c, -5 (ix)
    000032AF DD 46 FC         [19] 8336 	ld	b, -4 (ix)
                                   8337 ;E:\Dropbox\FAUSTO\SVILUPPI\MSX\CODE\C\MSXgl\projects\exsoccer/exsoccer_s1_b2.c:1530: ady = (dy < 0) ? -dy : dy;
    000032B2 DD 7E FD         [19] 8338 	ld	a, -3 (ix)
    000032B5 DD 77 F9         [19] 8339 	ld	-7 (ix), a
    000032B8 DD 7E FE         [19] 8340 	ld	a, -2 (ix)
    000032BB DD 77 FA         [19] 8341 	ld	-6 (ix), a
    000032BE DD CB FA 7E      [20] 8342 	bit	7, -6 (ix)
    000032C2 28 0C            [12] 8343 	jr	Z, 00157$
    000032C4 AF               [ 4] 8344 	xor	a, a
    000032C5 DD 96 FD         [19] 8345 	sub	a, -3 (ix)
    000032C8 5F               [ 4] 8346 	ld	e, a
    000032C9 9F               [ 4] 8347 	sbc	a, a
    000032CA DD 96 FE         [19] 8348 	sub	a, -2 (ix)
    000032CD C3rD6r32         [10] 8349 	jp	00158$
    000032D0                       8350 00157$:
    000032D0 DD 5E FD         [19] 8351 	ld	e, -3 (ix)
    000032D3 DD 7E FE         [19] 8352 	ld	a, -2 (ix)
    000032D6                       8353 00158$:
                                   8354 ;E:\Dropbox\FAUSTO\SVILUPPI\MSX\CODE\C\MSXgl\projects\exsoccer/exsoccer_s1_b2.c:1532: if (adx > ady * 2) {
    000032D6 DD 73 FB         [19] 8355 	ld	-5 (ix), e
    000032D9 DD 77 FC         [19] 8356 	ld	-4 (ix), a
    000032DC 6B               [ 4] 8357 	ld	l, e
    000032DD 67               [ 4] 8358 	ld	h, a
    000032DE 29               [11] 8359 	add	hl, hl
    000032DF DD 71 FD         [19] 8360 	ld	-3 (ix), c
    000032E2 DD 70 FE         [19] 8361 	ld	-2 (ix), b
    000032E5 7D               [ 4] 8362 	ld	a, l
    000032E6 DD 96 FD         [19] 8363 	sub	a, -3 (ix)
    000032E9 7C               [ 4] 8364 	ld	a, h
    000032EA DD 9E FE         [19] 8365 	sbc	a, -2 (ix)
    000032ED E2rF2r32         [10] 8366 	jp	PO, 00315$
    000032F0 EE 80            [ 7] 8367 	xor	a, #0x80
    000032F2                       8368 00315$:
    000032F2 F2r13r33         [10] 8369 	jp	P, 00116$
                                   8370 ;E:\Dropbox\FAUSTO\SVILUPPI\MSX\CODE\C\MSXgl\projects\exsoccer/exsoccer_s1_b2.c:1533: newDir = (dx > 0) ? DIRECTION_RIGHT : DIRECTION_LEFT;
    000032F5 AF               [ 4] 8371 	xor	a, a
    000032F6 DD BE F7         [19] 8372 	cp	a, -9 (ix)
    000032F9 DD 9E F8         [19] 8373 	sbc	a, -8 (ix)
    000032FC E2r01r33         [10] 8374 	jp	PO, 00316$
    000032FF EE 80            [ 7] 8375 	xor	a, #0x80
    00003301                       8376 00316$:
    00003301 F2r0Ar33         [10] 8377 	jp	P, 00159$
    00003304 01 03 00         [10] 8378 	ld	bc, #0x0003
    00003307 C3r0Dr33         [10] 8379 	jp	00160$
    0000330A                       8380 00159$:
    0000330A 01 07 00         [10] 8381 	ld	bc, #0x0007
    0000330D                       8382 00160$:
    0000330D DD 71 FE         [19] 8383 	ld	-2 (ix), c
    00003310 C3r7Fr33         [10] 8384 	jp	00117$
    00003313                       8385 00116$:
                                   8386 ;E:\Dropbox\FAUSTO\SVILUPPI\MSX\CODE\C\MSXgl\projects\exsoccer/exsoccer_s1_b2.c:1534: } else if (ady > adx * 2) {
    00003313 DD 6E FD         [19] 8387 	ld	l, -3 (ix)
    00003316 DD 66 FE         [19] 8388 	ld	h, -2 (ix)
    00003319 29               [11] 8389 	add	hl, hl
                                   8390 ;E:\Dropbox\FAUSTO\SVILUPPI\MSX\CODE\C\MSXgl\projects\exsoccer/exsoccer_s1_b2.c:1535: newDir = (dy > 0) ? DIRECTION_DOWN : DIRECTION_UP;
    0000331A AF               [ 4] 8391 	xor	a, a
    0000331B DD BE F9         [19] 8392 	cp	a, -7 (ix)
    0000331E DD 9E FA         [19] 8393 	sbc	a, -6 (ix)
    00003321 E2r26r33         [10] 8394 	jp	PO, 00317$
    00003324 EE 80            [ 7] 8395 	xor	a, #0x80
    00003326                       8396 00317$:
    00003326 07               [ 4] 8397 	rlca
    00003327 E6 01            [ 7] 8398 	and	a,#0x01
    00003329 4F               [ 4] 8399 	ld	c, a
                                   8400 ;E:\Dropbox\FAUSTO\SVILUPPI\MSX\CODE\C\MSXgl\projects\exsoccer/exsoccer_s1_b2.c:1534: } else if (ady > adx * 2) {
    0000332A 7D               [ 4] 8401 	ld	a, l
    0000332B DD 96 FB         [19] 8402 	sub	a, -5 (ix)
    0000332E 7C               [ 4] 8403 	ld	a, h
    0000332F DD 9E FC         [19] 8404 	sbc	a, -4 (ix)
    00003332 E2r37r33         [10] 8405 	jp	PO, 00318$
    00003335 EE 80            [ 7] 8406 	xor	a, #0x80
    00003337                       8407 00318$:
    00003337 F2r4Dr33         [10] 8408 	jp	P, 00113$
                                   8409 ;E:\Dropbox\FAUSTO\SVILUPPI\MSX\CODE\C\MSXgl\projects\exsoccer/exsoccer_s1_b2.c:1535: newDir = (dy > 0) ? DIRECTION_DOWN : DIRECTION_UP;
    0000333A 79               [ 4] 8410 	ld	a, c
    0000333B B7               [ 4] 8411 	or	a, a
    0000333C 28 06            [12] 8412 	jr	Z, 00161$
    0000333E 01 05 00         [10] 8413 	ld	bc, #0x0005
    00003341 C3r47r33         [10] 8414 	jp	00162$
    00003344                       8415 00161$:
    00003344 01 01 00         [10] 8416 	ld	bc, #0x0001
    00003347                       8417 00162$:
    00003347 DD 71 FE         [19] 8418 	ld	-2 (ix), c
    0000334A C3r7Fr33         [10] 8419 	jp	00117$
    0000334D                       8420 00113$:
                                   8421 ;E:\Dropbox\FAUSTO\SVILUPPI\MSX\CODE\C\MSXgl\projects\exsoccer/exsoccer_s1_b2.c:1537: if (dx > 0) newDir = (dy > 0) ? DIRECTION_DOWN_RIGHT : DIRECTION_UP_RIGHT;
    0000334D AF               [ 4] 8422 	xor	a, a
    0000334E DD BE F7         [19] 8423 	cp	a, -9 (ix)
    00003351 DD 9E F8         [19] 8424 	sbc	a, -8 (ix)
    00003354 E2r59r33         [10] 8425 	jp	PO, 00319$
    00003357 EE 80            [ 7] 8426 	xor	a, #0x80
    00003359                       8427 00319$:
    00003359 F2r6Fr33         [10] 8428 	jp	P, 00110$
    0000335C 79               [ 4] 8429 	ld	a, c
    0000335D B7               [ 4] 8430 	or	a, a
    0000335E 28 06            [12] 8431 	jr	Z, 00163$
    00003360 01 04 00         [10] 8432 	ld	bc, #0x0004
    00003363 C3r69r33         [10] 8433 	jp	00164$
    00003366                       8434 00163$:
    00003366 01 02 00         [10] 8435 	ld	bc, #0x0002
    00003369                       8436 00164$:
    00003369 DD 71 FE         [19] 8437 	ld	-2 (ix), c
    0000336C C3r7Fr33         [10] 8438 	jp	00117$
    0000336F                       8439 00110$:
                                   8440 ;E:\Dropbox\FAUSTO\SVILUPPI\MSX\CODE\C\MSXgl\projects\exsoccer/exsoccer_s1_b2.c:1538: else newDir = (dy > 0) ? DIRECTION_DOWN_LEFT : DIRECTION_UP_LEFT;
    0000336F 79               [ 4] 8441 	ld	a, c
    00003370 B7               [ 4] 8442 	or	a, a
    00003371 28 06            [12] 8443 	jr	Z, 00165$
    00003373 01 06 00         [10] 8444 	ld	bc, #0x0006
    00003376 C3r7Cr33         [10] 8445 	jp	00166$
    00003379                       8446 00165$:
    00003379 01 08 00         [10] 8447 	ld	bc, #0x0008
    0000337C                       8448 00166$:
    0000337C DD 71 FE         [19] 8449 	ld	-2 (ix), c
    0000337F                       8450 00117$:
                                   8451 ;E:\Dropbox\FAUSTO\SVILUPPI\MSX\CODE\C\MSXgl\projects\exsoccer/exsoccer_s1_b2.c:1540: g_Players[fromId].Direction = newDir;
    0000337F E1               [10] 8452 	pop	hl
    00003380 E5               [11] 8453 	push	hl
    00003381 11 0A 00         [10] 8454 	ld	de, #0x000a
    00003384 19               [11] 8455 	add	hl, de
    00003385 DD 7E FE         [19] 8456 	ld	a, -2 (ix)
    00003388 77               [ 7] 8457 	ld	(hl), a
                                   8458 ;E:\Dropbox\FAUSTO\SVILUPPI\MSX\CODE\C\MSXgl\projects\exsoccer/exsoccer_s1_b2.c:1543: if (newDir == DIRECTION_UP || newDir == DIRECTION_UP_LEFT || newDir == DIRECTION_UP_RIGHT) g_Players[fromId].PatternId = PLAYER_POSE_SHOT_FRONT;
    00003389 DD 7E FE         [19] 8459 	ld	a, -2 (ix)
    0000338C 3D               [ 4] 8460 	dec	a
    0000338D 28 0E            [12] 8461 	jr	Z, 00128$
    0000338F DD 7E FE         [19] 8462 	ld	a, -2 (ix)
    00003392 D6 08            [ 7] 8463 	sub	a, #0x08
    00003394 28 07            [12] 8464 	jr	Z, 00128$
    00003396 DD 7E FE         [19] 8465 	ld	a, -2 (ix)
    00003399 D6 02            [ 7] 8466 	sub	a, #0x02
    0000339B 20 1B            [12] 8467 	jr	NZ, 00129$
    0000339D                       8468 00128$:
    0000339D DD 7E ED         [19] 8469 	ld	a, -19 (ix)
    000033A0 C6 08            [ 7] 8470 	add	a, #0x08
    000033A2 DD 77 FC         [19] 8471 	ld	-4 (ix), a
    000033A5 DD 7E EE         [19] 8472 	ld	a, -18 (ix)
    000033A8 CE 00            [ 7] 8473 	adc	a, #0x00
    000033AA DD 77 FD         [19] 8474 	ld	-3 (ix), a
    000033AD DD 6E FC         [19] 8475 	ld	l, -4 (ix)
    000033B0 DD 66 FD         [19] 8476 	ld	h, -3 (ix)
    000033B3 36 18            [10] 8477 	ld	(hl), #0x18
    000033B5 C3rF9r33         [10] 8478 	jp	00130$
    000033B8                       8479 00129$:
                                   8480 ;E:\Dropbox\FAUSTO\SVILUPPI\MSX\CODE\C\MSXgl\projects\exsoccer/exsoccer_s1_b2.c:1544: else if (newDir == DIRECTION_DOWN || newDir == DIRECTION_DOWN_LEFT || newDir == DIRECTION_DOWN_RIGHT) g_Players[fromId].PatternId = PLAYER_POSE_SHOT_BACK;
    000033B8 DD 7E FE         [19] 8481 	ld	a, -2 (ix)
    000033BB D6 05            [ 7] 8482 	sub	a, #0x05
    000033BD 28 0E            [12] 8483 	jr	Z, 00123$
    000033BF DD 7E FE         [19] 8484 	ld	a, -2 (ix)
    000033C2 D6 06            [ 7] 8485 	sub	a, #0x06
    000033C4 28 07            [12] 8486 	jr	Z, 00123$
    000033C6 DD 7E FE         [19] 8487 	ld	a, -2 (ix)
    000033C9 D6 04            [ 7] 8488 	sub	a, #0x04
    000033CB 20 0B            [12] 8489 	jr	NZ, 00124$
    000033CD                       8490 00123$:
    000033CD E1               [10] 8491 	pop	hl
    000033CE E5               [11] 8492 	push	hl
    000033CF 11 08 00         [10] 8493 	ld	de, #0x0008
    000033D2 19               [11] 8494 	add	hl, de
    000033D3 36 15            [10] 8495 	ld	(hl), #0x15
    000033D5 C3rF9r33         [10] 8496 	jp	00130$
    000033D8                       8497 00124$:
                                   8498 ;E:\Dropbox\FAUSTO\SVILUPPI\MSX\CODE\C\MSXgl\projects\exsoccer/exsoccer_s1_b2.c:1545: else if (newDir == DIRECTION_LEFT) g_Players[fromId].PatternId = PLAYER_POSE_SHOT_LEFT;
    000033D8 DD 7E FE         [19] 8499 	ld	a, -2 (ix)
    000033DB D6 07            [ 7] 8500 	sub	a, #0x07
    000033DD 20 0B            [12] 8501 	jr	NZ, 00121$
    000033DF E1               [10] 8502 	pop	hl
    000033E0 E5               [11] 8503 	push	hl
    000033E1 11 08 00         [10] 8504 	ld	de, #0x0008
    000033E4 19               [11] 8505 	add	hl, de
    000033E5 36 A4            [10] 8506 	ld	(hl), #0xa4
    000033E7 C3rF9r33         [10] 8507 	jp	00130$
    000033EA                       8508 00121$:
                                   8509 ;E:\Dropbox\FAUSTO\SVILUPPI\MSX\CODE\C\MSXgl\projects\exsoccer/exsoccer_s1_b2.c:1546: else if (newDir == DIRECTION_RIGHT) g_Players[fromId].PatternId = PLAYER_POSE_SHOT_RIGHT;
    000033EA DD 7E FE         [19] 8510 	ld	a, -2 (ix)
    000033ED D6 03            [ 7] 8511 	sub	a, #0x03
    000033EF 20 08            [12] 8512 	jr	NZ, 00130$
    000033F1 E1               [10] 8513 	pop	hl
    000033F2 E5               [11] 8514 	push	hl
    000033F3 11 08 00         [10] 8515 	ld	de, #0x0008
    000033F6 19               [11] 8516 	add	hl, de
    000033F7 36 1B            [10] 8517 	ld	(hl), #0x1b
    000033F9                       8518 00130$:
                                   8519 ;E:\Dropbox\FAUSTO\SVILUPPI\MSX\CODE\C\MSXgl\projects\exsoccer/exsoccer_s1_b2.c:1548: g_Players[fromId].Status = PLAYER_STATUS_POSITIONED; // Lock pose for this frame
    000033F9 E1               [10] 8520 	pop	hl
    000033FA E5               [11] 8521 	push	hl
    000033FB 11 12 00         [10] 8522 	ld	de, #0x0012
    000033FE 19               [11] 8523 	add	hl, de
    000033FF 36 04            [10] 8524 	ld	(hl), #0x04
    00003401 23               [ 6] 8525 	inc	hl
    00003402 36 00            [10] 8526 	ld	(hl), #0x00
                                   8527 ;E:\Dropbox\FAUSTO\SVILUPPI\MSX\CODE\C\MSXgl\projects\exsoccer/exsoccer_s1_b2.c:1551: g_Players[fromId].TargetX = g_Players[fromId].X;
    00003404 DD 7E ED         [19] 8528 	ld	a, -19 (ix)
    00003407 C6 10            [ 7] 8529 	add	a, #0x10
    00003409 4F               [ 4] 8530 	ld	c, a
    0000340A DD 7E EE         [19] 8531 	ld	a, -18 (ix)
    0000340D CE 00            [ 7] 8532 	adc	a, #0x00
    0000340F 47               [ 4] 8533 	ld	b, a
    00003410 DD 6E F5         [19] 8534 	ld	l, -11 (ix)
    00003413 DD 66 F6         [19] 8535 	ld	h, -10 (ix)
    00003416 5E               [ 7] 8536 	ld	e, (hl)
    00003417 23               [ 6] 8537 	inc	hl
    00003418 56               [ 7] 8538 	ld	d, (hl)
    00003419 7B               [ 4] 8539 	ld	a, e
    0000341A 02               [ 7] 8540 	ld	(bc), a
    0000341B 03               [ 6] 8541 	inc	bc
    0000341C 7A               [ 4] 8542 	ld	a, d
    0000341D 02               [ 7] 8543 	ld	(bc), a
                                   8544 ;E:\Dropbox\FAUSTO\SVILUPPI\MSX\CODE\C\MSXgl\projects\exsoccer/exsoccer_s1_b2.c:1552: g_Players[fromId].TargetY = g_Players[fromId].Y;
    0000341E DD 7E ED         [19] 8545 	ld	a, -19 (ix)
    00003421 C6 0E            [ 7] 8546 	add	a, #0x0e
    00003423 4F               [ 4] 8547 	ld	c, a
    00003424 DD 7E EE         [19] 8548 	ld	a, -18 (ix)
    00003427 CE 00            [ 7] 8549 	adc	a, #0x00
    00003429 47               [ 4] 8550 	ld	b, a
    0000342A E1               [10] 8551 	pop	hl
    0000342B E5               [11] 8552 	push	hl
    0000342C 5E               [ 7] 8553 	ld	e, (hl)
    0000342D 23               [ 6] 8554 	inc	hl
    0000342E 56               [ 7] 8555 	ld	d, (hl)
    0000342F 7B               [ 4] 8556 	ld	a, e
    00003430 02               [ 7] 8557 	ld	(bc), a
    00003431 03               [ 6] 8558 	inc	bc
    00003432 7A               [ 4] 8559 	ld	a, d
    00003433 02               [ 7] 8560 	ld	(bc), a
                                   8561 ;E:\Dropbox\FAUSTO\SVILUPPI\MSX\CODE\C\MSXgl\projects\exsoccer/exsoccer_s1_b2.c:1555: SetPlayerBallPossession(NO_VALUE); 
    00003434 3E FF            [ 7] 8562 	ld	a, #0xff
    00003436 CDr00r00         [17] 8563 	call	_SetPlayerBallPossession
                                   8564 ;E:\Dropbox\FAUSTO\SVILUPPI\MSX\CODE\C\MSXgl\projects\exsoccer/exsoccer_s1_b2.c:1556: g_Ball.PossessionPlayerId = NO_VALUE; 
    00003439 21r06r00         [10] 8565 	ld	hl, #(_g_Ball + 6)
    0000343C 36 FF            [10] 8566 	ld	(hl), #0xff
                                   8567 ;E:\Dropbox\FAUSTO\SVILUPPI\MSX\CODE\C\MSXgl\projects\exsoccer/exsoccer_s1_b2.c:1558: g_Ball.PassTargetPlayerId = toPlayerId;
    0000343E 21r10r00         [10] 8568 	ld	hl, #(_g_Ball + 16)
    00003441 DD 7E FF         [19] 8569 	ld	a, -1 (ix)
    00003444 77               [ 7] 8570 	ld	(hl), a
                                   8571 ;E:\Dropbox\FAUSTO\SVILUPPI\MSX\CODE\C\MSXgl\projects\exsoccer/exsoccer_s1_b2.c:1559: g_Ball.ShotActive = 0; // Not a shot
    00003445 21r1Br00         [10] 8572 	ld	hl, #(_g_Ball + 27)
    00003448 36 00            [10] 8573 	ld	(hl), #0x00
                                   8574 ;E:\Dropbox\FAUSTO\SVILUPPI\MSX\CODE\C\MSXgl\projects\exsoccer/exsoccer_s1_b2.c:1562: if (g_Players[fromId].Role == PLAYER_ROLE_GOALKEEPER) {
    0000344A DD 6E EF         [19] 8575 	ld	l, -17 (ix)
    0000344D DD 66 F0         [19] 8576 	ld	h, -16 (ix)
    00003450 7E               [ 7] 8577 	ld	a, (hl)
                                   8578 ;E:\Dropbox\FAUSTO\SVILUPPI\MSX\CODE\C\MSXgl\projects\exsoccer/exsoccer_s1_b2.c:1563: DEBUG_LOGNUM("GK_PASS_X_PRE", g_Ball.X);
                                   8579 ;E:\Dropbox\FAUSTO\SVILUPPI\MSX\CODE\C\MSXgl\projects\exsoccer/exsoccer_s1_b2.c:1562: if (g_Players[fromId].Role == PLAYER_ROLE_GOALKEEPER) {
    00003451 DD 77 FD         [19] 8580 	ld	-3 (ix), a
    00003454 B7               [ 4] 8581 	or	a, a
    00003455 C2rF4r35         [10] 8582 	jp	NZ, 00152$
                                   8583 ;E:\Dropbox\FAUSTO\SVILUPPI\MSX\CODE\C\MSXgl\projects\exsoccer/exsoccer_s1_b2.c:1563: DEBUG_LOGNUM("GK_PASS_X_PRE", g_Ball.X);
    00003458 3Ar02r00         [13] 8584 	ld	a, (#(_g_Ball + 2) + 0)
    0000345B DD 77 FD         [19] 8585 	ld	-3 (ix), a
    0000345E F5               [11] 8586 	push	af
    0000345F 33               [ 6] 8587 	inc	sp
    00003460 21r4Er36         [10] 8588 	ld	hl, #___str_1
    00003463 CDr00r00         [17] 8589 	call	_DEBUG_LOGNUM
                                   8590 ;E:\Dropbox\FAUSTO\SVILUPPI\MSX\CODE\C\MSXgl\projects\exsoccer/exsoccer_s1_b2.c:1564: DEBUG_LOGNUM("GK_IS_GROUND", g_GkIsGroundKick);
    00003466 3Ar00r00         [13] 8591 	ld	a, (_g_GkIsGroundKick+0)
    00003469 F5               [11] 8592 	push	af
    0000346A 33               [ 6] 8593 	inc	sp
    0000346B 21r5Cr36         [10] 8594 	ld	hl, #___str_2
    0000346E CDr00r00         [17] 8595 	call	_DEBUG_LOGNUM
                                   8596 ;E:\Dropbox\FAUSTO\SVILUPPI\MSX\CODE\C\MSXgl\projects\exsoccer/exsoccer_s1_b2.c:1566: bool applyOffset = true;
    00003471 DD 36 FB 01      [19] 8597 	ld	-5 (ix), #0x01
                                   8598 ;E:\Dropbox\FAUSTO\SVILUPPI\MSX\CODE\C\MSXgl\projects\exsoccer/exsoccer_s1_b2.c:1568: if (g_GkIsGroundKick) {
    00003475 3Ar00r00         [13] 8599 	ld	a, (_g_GkIsGroundKick+0)
    00003478 B7               [ 4] 8600 	or	a, a
    00003479 28 24            [12] 8601 	jr	Z, 00134$
                                   8602 ;E:\Dropbox\FAUSTO\SVILUPPI\MSX\CODE\C\MSXgl\projects\exsoccer/exsoccer_s1_b2.c:1569: applyOffset = false;
    0000347B DD 36 FB 00      [19] 8603 	ld	-5 (ix), #0x00
                                   8604 ;E:\Dropbox\FAUSTO\SVILUPPI\MSX\CODE\C\MSXgl\projects\exsoccer/exsoccer_s1_b2.c:1575: g_Ball.X = g_Ball.X; 
    0000347F 21r02r00         [10] 8605 	ld	hl, #(_g_Ball + 2)
    00003482 7E               [ 7] 8606 	ld	a, (hl)
    00003483 DD 77 FC         [19] 8607 	ld	-4 (ix), a
    00003486 23               [ 6] 8608 	inc	hl
    00003487 7E               [ 7] 8609 	ld	a, (hl)
    00003488 DD 77 FD         [19] 8610 	ld	-3 (ix), a
    0000348B 21r02r00         [10] 8611 	ld	hl, #(_g_Ball + 2)
    0000348E DD 7E FC         [19] 8612 	ld	a, -4 (ix)
    00003491 77               [ 7] 8613 	ld	(hl), a
    00003492 23               [ 6] 8614 	inc	hl
    00003493 DD 7E FD         [19] 8615 	ld	a, -3 (ix)
    00003496 77               [ 7] 8616 	ld	(hl), a
                                   8617 ;E:\Dropbox\FAUSTO\SVILUPPI\MSX\CODE\C\MSXgl\projects\exsoccer/exsoccer_s1_b2.c:1576: g_Ball.Y = g_Ball.Y;
    00003497 ED 4Br00r00      [20] 8618 	ld	bc, (#_g_Ball + 0)
    0000349B ED 43r00r00      [20] 8619 	ld	(_g_Ball), bc
    0000349F                       8620 00134$:
                                   8621 ;E:\Dropbox\FAUSTO\SVILUPPI\MSX\CODE\C\MSXgl\projects\exsoccer/exsoccer_s1_b2.c:1580: if (g_MatchStatus == MATCH_CORNER_KICK || g_MatchStatus == MATCH_BEFORE_CORNER_KICK ||
    0000349F 3Ar00r00         [13] 8622 	ld	a,(_g_MatchStatus+0)
    000034A2 FE 09            [ 7] 8623 	cp	a,#0x09
    000034A4 28 0C            [12] 8624 	jr	Z, 00135$
                                   8625 ;E:\Dropbox\FAUSTO\SVILUPPI\MSX\CODE\C\MSXgl\projects\exsoccer/exsoccer_s1_b2.c:1581: g_MatchStatus == MATCH_GOAL_KICK || g_MatchStatus == MATCH_BEFORE_GOAL_KICK) {
    000034A6 FE 02            [ 7] 8626 	cp	a,#0x02
    000034A8 28 08            [12] 8627 	jr	Z, 00135$
    000034AA FE 0A            [ 7] 8628 	cp	a,#0x0a
    000034AC 28 04            [12] 8629 	jr	Z, 00135$
    000034AE D6 05            [ 7] 8630 	sub	a, #0x05
    000034B0 20 04            [12] 8631 	jr	NZ, 00136$
    000034B2                       8632 00135$:
                                   8633 ;E:\Dropbox\FAUSTO\SVILUPPI\MSX\CODE\C\MSXgl\projects\exsoccer/exsoccer_s1_b2.c:1582: applyOffset = false;
    000034B2 DD 36 FB 00      [19] 8634 	ld	-5 (ix), #0x00
    000034B6                       8635 00136$:
                                   8636 ;E:\Dropbox\FAUSTO\SVILUPPI\MSX\CODE\C\MSXgl\projects\exsoccer/exsoccer_s1_b2.c:1585: DEBUG_LOGNUM("GK_APPLY_OFF", applyOffset);
    000034B6 DD 7E FB         [19] 8637 	ld	a, -5 (ix)
    000034B9 F5               [11] 8638 	push	af
    000034BA 33               [ 6] 8639 	inc	sp
    000034BB 21r69r36         [10] 8640 	ld	hl, #___str_3
    000034BE CDr00r00         [17] 8641 	call	_DEBUG_LOGNUM
                                   8642 ;E:\Dropbox\FAUSTO\SVILUPPI\MSX\CODE\C\MSXgl\projects\exsoccer/exsoccer_s1_b2.c:1587: if (applyOffset) {
    000034C1 DD 7E FB         [19] 8643 	ld	a, -5 (ix)
    000034C4 B7               [ 4] 8644 	or	a, a
    000034C5 CArE8r35         [10] 8645 	jp	Z, 00150$
                                   8646 ;E:\Dropbox\FAUSTO\SVILUPPI\MSX\CODE\C\MSXgl\projects\exsoccer/exsoccer_s1_b2.c:1588: i8 offX = 0; i8 offY = 0;
    000034C8 DD 36 FC 00      [19] 8647 	ld	-4 (ix), #0x00
    000034CC DD 36 FD 00      [19] 8648 	ld	-3 (ix), #0x00
                                   8649 ;E:\Dropbox\FAUSTO\SVILUPPI\MSX\CODE\C\MSXgl\projects\exsoccer/exsoccer_s1_b2.c:1589: switch (newDir) {
    000034D0 3E 08            [ 7] 8650 	ld	a, #0x08
    000034D2 DD 96 FE         [19] 8651 	sub	a, -2 (ix)
    000034D5 38 6C            [12] 8652 	jr	C, 00148$
    000034D7 DD 4E FE         [19] 8653 	ld	c, -2 (ix)
    000034DA 06 00            [ 7] 8654 	ld	b, #0x00
    000034DC 21rE3r34         [10] 8655 	ld	hl, #00337$
    000034DF 09               [11] 8656 	add	hl, bc
    000034E0 09               [11] 8657 	add	hl, bc
    000034E1 09               [11] 8658 	add	hl, bc
    000034E2 E9               [ 4] 8659 	jp	(hl)
    000034E3                       8660 00337$:
    000034E3 C3r43r35         [10] 8661 	jp	00148$
    000034E6 C3rFEr34         [10] 8662 	jp	00140$
    000034E9 C3r25r35         [10] 8663 	jp	00145$
    000034EC C3r13r35         [10] 8664 	jp	00143$
    000034EF C3r3Br35         [10] 8665 	jp	00147$
    000034F2 C3r05r35         [10] 8666 	jp	00141$
    000034F5 C3r30r35         [10] 8667 	jp	00146$
    000034F8 C3r0Cr35         [10] 8668 	jp	00142$
    000034FB C3r1Ar35         [10] 8669 	jp	00144$
                                   8670 ;E:\Dropbox\FAUSTO\SVILUPPI\MSX\CODE\C\MSXgl\projects\exsoccer/exsoccer_s1_b2.c:1590: case DIRECTION_UP:        offY = -30; break;
    000034FE                       8671 00140$:
    000034FE DD 36 FD E2      [19] 8672 	ld	-3 (ix), #0xe2
    00003502 C3r43r35         [10] 8673 	jp	00148$
                                   8674 ;E:\Dropbox\FAUSTO\SVILUPPI\MSX\CODE\C\MSXgl\projects\exsoccer/exsoccer_s1_b2.c:1591: case DIRECTION_DOWN:      offY = 30; break;
    00003505                       8675 00141$:
    00003505 DD 36 FD 1E      [19] 8676 	ld	-3 (ix), #0x1e
    00003509 C3r43r35         [10] 8677 	jp	00148$
                                   8678 ;E:\Dropbox\FAUSTO\SVILUPPI\MSX\CODE\C\MSXgl\projects\exsoccer/exsoccer_s1_b2.c:1592: case DIRECTION_LEFT:      offX = -30; break;
    0000350C                       8679 00142$:
    0000350C DD 36 FC E2      [19] 8680 	ld	-4 (ix), #0xe2
    00003510 C3r43r35         [10] 8681 	jp	00148$
                                   8682 ;E:\Dropbox\FAUSTO\SVILUPPI\MSX\CODE\C\MSXgl\projects\exsoccer/exsoccer_s1_b2.c:1593: case DIRECTION_RIGHT:     offX = 30; break;
    00003513                       8683 00143$:
    00003513 DD 36 FC 1E      [19] 8684 	ld	-4 (ix), #0x1e
    00003517 C3r43r35         [10] 8685 	jp	00148$
                                   8686 ;E:\Dropbox\FAUSTO\SVILUPPI\MSX\CODE\C\MSXgl\projects\exsoccer/exsoccer_s1_b2.c:1594: case DIRECTION_UP_LEFT:   offX = -21; offY = -21; break;
    0000351A                       8687 00144$:
    0000351A DD 36 FC EB      [19] 8688 	ld	-4 (ix), #0xeb
    0000351E DD 36 FD EB      [19] 8689 	ld	-3 (ix), #0xeb
    00003522 C3r43r35         [10] 8690 	jp	00148$
                                   8691 ;E:\Dropbox\FAUSTO\SVILUPPI\MSX\CODE\C\MSXgl\projects\exsoccer/exsoccer_s1_b2.c:1595: case DIRECTION_UP_RIGHT:  offX = 21; offY = -21; break;
    00003525                       8692 00145$:
    00003525 DD 36 FC 15      [19] 8693 	ld	-4 (ix), #0x15
    00003529 DD 36 FD EB      [19] 8694 	ld	-3 (ix), #0xeb
    0000352D C3r43r35         [10] 8695 	jp	00148$
                                   8696 ;E:\Dropbox\FAUSTO\SVILUPPI\MSX\CODE\C\MSXgl\projects\exsoccer/exsoccer_s1_b2.c:1596: case DIRECTION_DOWN_LEFT: offX = -21; offY = 21; break;
    00003530                       8697 00146$:
    00003530 DD 36 FC EB      [19] 8698 	ld	-4 (ix), #0xeb
    00003534 DD 36 FD 15      [19] 8699 	ld	-3 (ix), #0x15
    00003538 C3r43r35         [10] 8700 	jp	00148$
                                   8701 ;E:\Dropbox\FAUSTO\SVILUPPI\MSX\CODE\C\MSXgl\projects\exsoccer/exsoccer_s1_b2.c:1597: case DIRECTION_DOWN_RIGHT:offX = 21; offY = 21; break;
    0000353B                       8702 00147$:
    0000353B DD 36 FC 15      [19] 8703 	ld	-4 (ix), #0x15
    0000353F DD 36 FD 15      [19] 8704 	ld	-3 (ix), #0x15
                                   8705 ;E:\Dropbox\FAUSTO\SVILUPPI\MSX\CODE\C\MSXgl\projects\exsoccer/exsoccer_s1_b2.c:1598: }
    00003543                       8706 00148$:
                                   8707 ;E:\Dropbox\FAUSTO\SVILUPPI\MSX\CODE\C\MSXgl\projects\exsoccer/exsoccer_s1_b2.c:1599: g_Ball.X += offX;
    00003543 21r02r00         [10] 8708 	ld	hl, #(_g_Ball + 2)
    00003546 7E               [ 7] 8709 	ld	a, (hl)
    00003547 DD 77 F8         [19] 8710 	ld	-8 (ix), a
    0000354A 23               [ 6] 8711 	inc	hl
    0000354B 7E               [ 7] 8712 	ld	a, (hl)
    0000354C DD 77 F9         [19] 8713 	ld	-7 (ix), a
    0000354F DD 7E FC         [19] 8714 	ld	a, -4 (ix)
    00003552 DD 77 FA         [19] 8715 	ld	-6 (ix), a
    00003555 07               [ 4] 8716 	rlca
    00003556 9F               [ 4] 8717 	sbc	a, a
    00003557 DD 77 FB         [19] 8718 	ld	-5 (ix), a
    0000355A DD 7E F8         [19] 8719 	ld	a, -8 (ix)
    0000355D DD 77 F6         [19] 8720 	ld	-10 (ix), a
    00003560 DD 7E F9         [19] 8721 	ld	a, -7 (ix)
    00003563 DD 77 F7         [19] 8722 	ld	-9 (ix), a
    00003566 DD 7E FA         [19] 8723 	ld	a, -6 (ix)
    00003569 DD 77 F8         [19] 8724 	ld	-8 (ix), a
    0000356C DD 7E FB         [19] 8725 	ld	a, -5 (ix)
    0000356F DD 77 F9         [19] 8726 	ld	-7 (ix), a
    00003572 DD 7E F6         [19] 8727 	ld	a, -10 (ix)
    00003575 DD 86 F8         [19] 8728 	add	a, -8 (ix)
    00003578 DD 77 FA         [19] 8729 	ld	-6 (ix), a
    0000357B DD 7E F7         [19] 8730 	ld	a, -9 (ix)
    0000357E DD 8E F9         [19] 8731 	adc	a, -7 (ix)
    00003581 DD 77 FB         [19] 8732 	ld	-5 (ix), a
    00003584 21r02r00         [10] 8733 	ld	hl, #(_g_Ball + 2)
    00003587 DD 7E FA         [19] 8734 	ld	a, -6 (ix)
    0000358A 77               [ 7] 8735 	ld	(hl), a
    0000358B 23               [ 6] 8736 	inc	hl
    0000358C DD 7E FB         [19] 8737 	ld	a, -5 (ix)
    0000358F 77               [ 7] 8738 	ld	(hl), a
                                   8739 ;E:\Dropbox\FAUSTO\SVILUPPI\MSX\CODE\C\MSXgl\projects\exsoccer/exsoccer_s1_b2.c:1600: g_Ball.Y += offY;
    00003590 21r00r00         [10] 8740 	ld	hl, #_g_Ball
    00003593 7E               [ 7] 8741 	ld	a, (hl)
    00003594 DD 77 F8         [19] 8742 	ld	-8 (ix), a
    00003597 23               [ 6] 8743 	inc	hl
    00003598 7E               [ 7] 8744 	ld	a, (hl)
    00003599 DD 77 F9         [19] 8745 	ld	-7 (ix), a
    0000359C DD 7E FD         [19] 8746 	ld	a, -3 (ix)
    0000359F DD 77 FA         [19] 8747 	ld	-6 (ix), a
    000035A2 07               [ 4] 8748 	rlca
    000035A3 9F               [ 4] 8749 	sbc	a, a
    000035A4 DD 77 FB         [19] 8750 	ld	-5 (ix), a
    000035A7 DD 7E F8         [19] 8751 	ld	a, -8 (ix)
    000035AA DD 77 FD         [19] 8752 	ld	-3 (ix), a
    000035AD DD 7E F9         [19] 8753 	ld	a, -7 (ix)
    000035B0 DD 77 FE         [19] 8754 	ld	-2 (ix), a
    000035B3 DD 7E FD         [19] 8755 	ld	a, -3 (ix)
    000035B6 DD 86 FA         [19] 8756 	add	a, -6 (ix)
    000035B9 DD 77 F8         [19] 8757 	ld	-8 (ix), a
    000035BC DD 7E FE         [19] 8758 	ld	a, -2 (ix)
    000035BF DD 8E FB         [19] 8759 	adc	a, -5 (ix)
    000035C2 DD 77 F9         [19] 8760 	ld	-7 (ix), a
    000035C5 DD 7E F8         [19] 8761 	ld	a, -8 (ix)
    000035C8 DD 77 FD         [19] 8762 	ld	-3 (ix), a
    000035CB DD 7E F9         [19] 8763 	ld	a, -7 (ix)
    000035CE DD 77 FE         [19] 8764 	ld	-2 (ix), a
    000035D1 21r00r00         [10] 8765 	ld	hl, #_g_Ball
    000035D4 DD 7E FD         [19] 8766 	ld	a, -3 (ix)
    000035D7 77               [ 7] 8767 	ld	(hl), a
    000035D8 23               [ 6] 8768 	inc	hl
    000035D9 DD 7E FE         [19] 8769 	ld	a, -2 (ix)
    000035DC 77               [ 7] 8770 	ld	(hl), a
                                   8771 ;E:\Dropbox\FAUSTO\SVILUPPI\MSX\CODE\C\MSXgl\projects\exsoccer/exsoccer_s1_b2.c:1601: DEBUG_LOGNUM("GK_OFF_X", offX);
    000035DD DD 7E FC         [19] 8772 	ld	a, -4 (ix)
    000035E0 F5               [11] 8773 	push	af
    000035E1 33               [ 6] 8774 	inc	sp
    000035E2 21r76r36         [10] 8775 	ld	hl, #___str_4
    000035E5 CDr00r00         [17] 8776 	call	_DEBUG_LOGNUM
    000035E8                       8777 00150$:
                                   8778 ;E:\Dropbox\FAUSTO\SVILUPPI\MSX\CODE\C\MSXgl\projects\exsoccer/exsoccer_s1_b2.c:1603: DEBUG_LOGNUM("GK_PASS_X_POST", g_Ball.X);
    000035E8 21r02r00         [10] 8779 	ld	hl, #(_g_Ball + 2)
    000035EB 46               [ 7] 8780 	ld	b, (hl)
    000035EC C5               [11] 8781 	push	bc
    000035ED 33               [ 6] 8782 	inc	sp
    000035EE 21r7Fr36         [10] 8783 	ld	hl, #___str_5
    000035F1 CDr00r00         [17] 8784 	call	_DEBUG_LOGNUM
    000035F4                       8785 00152$:
                                   8786 ;E:\Dropbox\FAUSTO\SVILUPPI\MSX\CODE\C\MSXgl\projects\exsoccer/exsoccer_s1_b2.c:1606: g_Ball.PassStartX = g_Ball.X;
    000035F4 ED 4Br02r00      [20] 8787 	ld	bc, (#(_g_Ball + 2) + 0)
    000035F8 ED 43r11r00      [20] 8788 	ld	((_g_Ball + 17)), bc
                                   8789 ;E:\Dropbox\FAUSTO\SVILUPPI\MSX\CODE\C\MSXgl\projects\exsoccer/exsoccer_s1_b2.c:1607: g_Ball.PassStartY = g_Ball.Y;
    000035FC ED 4Br00r00      [20] 8790 	ld	bc, (#_g_Ball + 0)
    00003600 ED 43r13r00      [20] 8791 	ld	((_g_Ball + 19)), bc
                                   8792 ;E:\Dropbox\FAUSTO\SVILUPPI\MSX\CODE\C\MSXgl\projects\exsoccer/exsoccer_s1_b2.c:1609: dx = (i16)g_Players[toPlayerId].X - (i16)g_Ball.X;
    00003604 DD 6E F3         [19] 8793 	ld	l, -13 (ix)
    00003607 DD 66 F4         [19] 8794 	ld	h, -12 (ix)
    0000360A 4E               [ 7] 8795 	ld	c, (hl)
    0000360B 23               [ 6] 8796 	inc	hl
    0000360C 46               [ 7] 8797 	ld	b, (hl)
    0000360D 2Ar02r00         [16] 8798 	ld	hl, (#(_g_Ball + 2) + 0)
    00003610 79               [ 4] 8799 	ld	a, c
    00003611 95               [ 4] 8800 	sub	a, l
    00003612 4F               [ 4] 8801 	ld	c, a
    00003613 78               [ 4] 8802 	ld	a, b
    00003614 9C               [ 4] 8803 	sbc	a, h
    00003615 47               [ 4] 8804 	ld	b, a
                                   8805 ;E:\Dropbox\FAUSTO\SVILUPPI\MSX\CODE\C\MSXgl\projects\exsoccer/exsoccer_s1_b2.c:1610: dy = (i16)g_Players[toPlayerId].Y - (i16)g_Ball.Y;
    00003616 DD 6E F1         [19] 8806 	ld	l, -15 (ix)
    00003619 DD 66 F2         [19] 8807 	ld	h, -14 (ix)
    0000361C 5E               [ 7] 8808 	ld	e, (hl)
    0000361D 23               [ 6] 8809 	inc	hl
    0000361E 56               [ 7] 8810 	ld	d, (hl)
    0000361F 2Ar00r00         [16] 8811 	ld	hl, (#_g_Ball + 0)
    00003622 7B               [ 4] 8812 	ld	a, e
    00003623 95               [ 4] 8813 	sub	a, l
    00003624 5F               [ 4] 8814 	ld	e, a
    00003625 7A               [ 4] 8815 	ld	a, d
    00003626 9C               [ 4] 8816 	sbc	a, h
    00003627 57               [ 4] 8817 	ld	d, a
                                   8818 ;E:\Dropbox\FAUSTO\SVILUPPI\MSX\CODE\C\MSXgl\projects\exsoccer/exsoccer_s1_b2.c:1611: g_Ball.PassTotalDist = (u16)((dx<0?-dx:dx) + (dy<0?-dy:dy)); 
                                   8819 ;	spillPairReg hl
                                   8820 ;	spillPairReg hl
    00003628 60               [ 4] 8821 	ld	h, b
                                   8822 ;	spillPairReg hl
                                   8823 ;	spillPairReg hl
    00003629 CB 7C            [ 8] 8824 	bit	7, h
    0000362B 28 06            [12] 8825 	jr	Z, 00167$
    0000362D AF               [ 4] 8826 	xor	a, a
    0000362E 91               [ 4] 8827 	sub	a, c
    0000362F 4F               [ 4] 8828 	ld	c, a
    00003630 9F               [ 4] 8829 	sbc	a, a
    00003631 90               [ 4] 8830 	sub	a, b
    00003632 47               [ 4] 8831 	ld	b, a
    00003633                       8832 00167$:
    00003633 6B               [ 4] 8833 	ld	l, e
                                   8834 ;	spillPairReg hl
                                   8835 ;	spillPairReg hl
    00003634 62               [ 4] 8836 	ld	h, d
                                   8837 ;	spillPairReg hl
                                   8838 ;	spillPairReg hl
    00003635 CB 7C            [ 8] 8839 	bit	7, h
    00003637 28 09            [12] 8840 	jr	Z, 00169$
    00003639 21 00 00         [10] 8841 	ld	hl, #0x0000
    0000363C BF               [ 4] 8842 	cp	a, a
    0000363D ED 52            [15] 8843 	sbc	hl, de
    0000363F C3r43r36         [10] 8844 	jp	00170$
    00003642                       8845 00169$:
    00003642 EB               [ 4] 8846 	ex	de, hl
    00003643                       8847 00170$:
    00003643 09               [11] 8848 	add	hl, bc
    00003644 EB               [ 4] 8849 	ex	de, hl
    00003645 ED 53r15r00      [20] 8850 	ld	((_g_Ball + 21)), de
    00003649                       8851 00153$:
                                   8852 ;E:\Dropbox\FAUSTO\SVILUPPI\MSX\CODE\C\MSXgl\projects\exsoccer/exsoccer_s1_b2.c:1612: }
    00003649 DD F9            [10] 8853 	ld	sp, ix
    0000364B DD E1            [14] 8854 	pop	ix
    0000364D C9               [10] 8855 	ret
    0000364E                       8856 ___str_1:
    0000364E 47 4B 5F 50 41 53 53  8857 	.ascii "GK_PASS_X_PRE"
             5F 58 5F 50 52 45
    0000365B 00                    8858 	.db 0x00
    0000365C                       8859 ___str_2:
    0000365C 47 4B 5F 49 53 5F 47  8860 	.ascii "GK_IS_GROUND"
             52 4F 55 4E 44
    00003668 00                    8861 	.db 0x00
    00003669                       8862 ___str_3:
    00003669 47 4B 5F 41 50 50 4C  8863 	.ascii "GK_APPLY_OFF"
             59 5F 4F 46 46
    00003675 00                    8864 	.db 0x00
    00003676                       8865 ___str_4:
    00003676 47 4B 5F 4F 46 46 5F  8866 	.ascii "GK_OFF_X"
             58
    0000367E 00                    8867 	.db 0x00
    0000367F                       8868 ___str_5:
    0000367F 47 4B 5F 50 41 53 53  8869 	.ascii "GK_PASS_X_POST"
             5F 58 5F 50 4F 53 54
    0000368D 00                    8870 	.db 0x00
                                   8871 ;E:\Dropbox\FAUSTO\SVILUPPI\MSX\CODE\C\MSXgl\projects\exsoccer/exsoccer_s1_b2.c:1790: void InitPalette()
                                   8872 ;	---------------------------------
                                   8873 ; Function InitPalette
                                   8874 ; ---------------------------------
    0000368E                       8875 _InitPalette::
                                   8876 ;E:\Dropbox\FAUSTO\SVILUPPI\MSX\CODE\C\MSXgl\projects\exsoccer/exsoccer_s1_b2.c:1792: V9_SetPalette(0, 16, g_GameFieldLayerATilesPalette);
    0000368E 21rF3r36         [10] 8877 	ld	hl, #_g_GameFieldLayerATilesPalette+0
                                   8878 ;E:\Dropbox\FAUSTO\SVILUPPI\MSX\CODE\C\MSXgl\projects\exsoccer/exsoccer_s1_b2.c:1028: if (playerTeamId == TEAM_1 && g_Ball.Y < limitY - 10) ballFar = true;
    00003691 01 00 00         [10] 8879 	ld	bc, #0x0
    00003694                       8880 00107$:
    00003694 78               [ 4] 8881 	ld	a, b
    00003695 D6 10            [ 7] 8882 	sub	a, #0x10
    00003697 30 1F            [12] 8883 	jr	NC, 00102$
    00003699 FD E5            [15] 8884 	push	iy
    0000369B E3               [19] 8885 	ex	(sp), hl
    0000369C 69               [ 4] 8886 	ld	l, c
                                   8887 ;	spillPairReg hl
                                   8888 ;	spillPairReg hl
    0000369D E3               [19] 8889 	ex	(sp), hl
    0000369E FD E1            [14] 8890 	pop	iy
    000036A0 0C               [ 4] 8891 	inc	c
    000036A1 E5               [11] 8892 	push	hl
    000036A2 C5               [11] 8893 	push	bc
    000036A3 5D               [ 4] 8894 	ld	e, l
    000036A4 54               [ 4] 8895 	ld	d, h
    000036A5 FD E5            [15] 8896 	push	iy
    000036A7 E3               [19] 8897 	ex	(sp), hl
    000036A8 7D               [ 4] 8898 	ld	a, l
    000036A9 E3               [19] 8899 	ex	(sp), hl
    000036AA FD E1            [14] 8900 	pop	iy
    000036AC CDr00r00         [17] 8901 	call	_V9_SetPaletteEntry
    000036AF C1               [10] 8902 	pop	bc
    000036B0 E1               [10] 8903 	pop	hl
    000036B1 23               [ 6] 8904 	inc	hl
    000036B2 23               [ 6] 8905 	inc	hl
    000036B3 23               [ 6] 8906 	inc	hl
    000036B4 04               [ 4] 8907 	inc	b
    000036B5 C3r94r36         [10] 8908 	jp	00107$
                                   8909 ;E:\Dropbox\FAUSTO\SVILUPPI\MSX\CODE\C\MSXgl\projects\exsoccer/exsoccer_s1_b2.c:1792: V9_SetPalette(0, 16, g_GameFieldLayerATilesPalette);
    000036B8                       8910 00102$:
                                   8911 ;E:\Dropbox\FAUSTO\SVILUPPI\MSX\CODE\C\MSXgl\projects\exsoccer/exsoccer_s1_b2.c:1793: V9_SetPalette(16, 16, g_GameFieldLayerBTilesPalette);
    000036B8 21r23r37         [10] 8912 	ld	hl, #_g_GameFieldLayerBTilesPalette+0
                                   8913 ;E:\Dropbox\FAUSTO\SVILUPPI\MSX\CODE\C\MSXgl\projects\exsoccer/exsoccer_s1_b2.c:1028: if (playerTeamId == TEAM_1 && g_Ball.Y < limitY - 10) ballFar = true;
    000036BB 01 10 00         [10] 8914 	ld	bc, #0x10
    000036BE                       8915 00110$:
    000036BE 78               [ 4] 8916 	ld	a, b
    000036BF D6 10            [ 7] 8917 	sub	a, #0x10
    000036C1 30 1F            [12] 8918 	jr	NC, 00104$
    000036C3 FD E5            [15] 8919 	push	iy
    000036C5 E3               [19] 8920 	ex	(sp), hl
    000036C6 69               [ 4] 8921 	ld	l, c
                                   8922 ;	spillPairReg hl
                                   8923 ;	spillPairReg hl
    000036C7 E3               [19] 8924 	ex	(sp), hl
    000036C8 FD E1            [14] 8925 	pop	iy
    000036CA 0C               [ 4] 8926 	inc	c
    000036CB E5               [11] 8927 	push	hl
    000036CC C5               [11] 8928 	push	bc
    000036CD 5D               [ 4] 8929 	ld	e, l
    000036CE 54               [ 4] 8930 	ld	d, h
    000036CF FD E5            [15] 8931 	push	iy
    000036D1 E3               [19] 8932 	ex	(sp), hl
    000036D2 7D               [ 4] 8933 	ld	a, l
    000036D3 E3               [19] 8934 	ex	(sp), hl
    000036D4 FD E1            [14] 8935 	pop	iy
    000036D6 CDr00r00         [17] 8936 	call	_V9_SetPaletteEntry
    000036D9 C1               [10] 8937 	pop	bc
    000036DA E1               [10] 8938 	pop	hl
    000036DB 23               [ 6] 8939 	inc	hl
    000036DC 23               [ 6] 8940 	inc	hl
    000036DD 23               [ 6] 8941 	inc	hl
    000036DE 04               [ 4] 8942 	inc	b
    000036DF C3rBEr36         [10] 8943 	jp	00110$
                                   8944 ;E:\Dropbox\FAUSTO\SVILUPPI\MSX\CODE\C\MSXgl\projects\exsoccer/exsoccer_s1_b2.c:1793: V9_SetPalette(16, 16, g_GameFieldLayerBTilesPalette);
    000036E2                       8945 00104$:
                                   8946 ;E:/Dropbox/FAUSTO/SVILUPPI/MSX/CODE/C/MSXgl/engine/src/v9990.h:1047: inline void V9_SelectPaletteP1(u8 a, u8 b) { V9_SetRegister(13, ((b & 0x3) << 2) + (a & 0x3)); }
    000036E2 3E 01            [ 7] 8947 	ld	a, #0x01
    000036E4 E6 03            [ 7] 8948 	and	a, #0x03
    000036E6 87               [ 4] 8949 	add	a, a
    000036E7 87               [ 4] 8950 	add	a, a
    000036E8 4F               [ 4] 8951 	ld	c, a
    000036E9 AF               [ 4] 8952 	xor	a, a
    000036EA E6 03            [ 7] 8953 	and	a, #0x03
    000036EC 81               [ 4] 8954 	add	a, c
    000036ED 6F               [ 4] 8955 	ld	l, a
                                   8956 ;	spillPairReg hl
                                   8957 ;	spillPairReg hl
    000036EE 3E 0D            [ 7] 8958 	ld	a, #0x0d
                                   8959 ;E:\Dropbox\FAUSTO\SVILUPPI\MSX\CODE\C\MSXgl\projects\exsoccer/exsoccer_s1_b2.c:1794: V9_SelectPaletteP1(0,1);
                                   8960 ;E:\Dropbox\FAUSTO\SVILUPPI\MSX\CODE\C\MSXgl\projects\exsoccer/exsoccer_s1_b2.c:1795: }
    000036F0 C3r00r00         [10] 8961 	jp	_V9_SetRegister
    000036F3                       8962 _g_GameFieldLayerATilesPalette:
    000036F3 00                    8963 	.db #0x00	; 0
    000036F4 00                    8964 	.db #0x00	; 0
    000036F5 00                    8965 	.db #0x00	; 0
    000036F6 01                    8966 	.db #0x01	; 1
    000036F7 01                    8967 	.db #0x01	; 1
    000036F8 01                    8968 	.db #0x01	; 1
    000036F9 01                    8969 	.db #0x01	; 1
    000036FA 01                    8970 	.db #0x01	; 1
    000036FB 01                    8971 	.db #0x01	; 1
    000036FC 01                    8972 	.db #0x01	; 1
    000036FD 01                    8973 	.db #0x01	; 1
    000036FE 01                    8974 	.db #0x01	; 1
    000036FF FF                    8975 	.db #0xff	; 255
    00003700 FF                    8976 	.db #0xff	; 255
    00003701 FF                    8977 	.db #0xff	; 255
    00003702 1E                    8978 	.db #0x1e	; 30
    00003703 1A                    8979 	.db #0x1a	; 26
    00003704 08                    8980 	.db #0x08	; 8
    00003705 01                    8981 	.db #0x01	; 1
    00003706 01                    8982 	.db #0x01	; 1
    00003707 01                    8983 	.db #0x01	; 1
    00003708 14                    8984 	.db #0x14	; 20
    00003709 09                    8985 	.db #0x09	; 9
    0000370A 14                    8986 	.db #0x14	; 20
    0000370B 1B                    8987 	.db #0x1b	; 27
    0000370C 13                    8988 	.db #0x13	; 19
    0000370D 09                    8989 	.db #0x09	; 9
    0000370E 01                    8990 	.db #0x01	; 1
    0000370F 01                    8991 	.db #0x01	; 1
    00003710 01                    8992 	.db #0x01	; 1
    00003711 01                    8993 	.db #0x01	; 1
    00003712 01                    8994 	.db #0x01	; 1
    00003713 01                    8995 	.db #0x01	; 1
    00003714 01                    8996 	.db #0x01	; 1
    00003715 01                    8997 	.db #0x01	; 1
    00003716 01                    8998 	.db #0x01	; 1
    00003717 01                    8999 	.db #0x01	; 1
    00003718 01                    9000 	.db #0x01	; 1
    00003719 01                    9001 	.db #0x01	; 1
    0000371A 01                    9002 	.db #0x01	; 1
    0000371B 01                    9003 	.db #0x01	; 1
    0000371C 01                    9004 	.db #0x01	; 1
    0000371D 01                    9005 	.db #0x01	; 1
    0000371E 01                    9006 	.db #0x01	; 1
    0000371F 01                    9007 	.db #0x01	; 1
    00003720 FF                    9008 	.db #0xff	; 255
    00003721 FF                    9009 	.db #0xff	; 255
    00003722 FF                    9010 	.db #0xff	; 255
    00003723                       9011 _g_GameFieldLayerBTilesPalette:
    00003723 00                    9012 	.db #0x00	; 0
    00003724 00                    9013 	.db #0x00	; 0
    00003725 00                    9014 	.db #0x00	; 0
    00003726 08                    9015 	.db #0x08	; 8
    00003727 17                    9016 	.db #0x17	; 23
    00003728 1B                    9017 	.db #0x1b	; 27
    00003729 01                    9018 	.db #0x01	; 1
    0000372A 01                    9019 	.db #0x01	; 1
    0000372B 01                    9020 	.db #0x01	; 1
    0000372C 01                    9021 	.db #0x01	; 1
    0000372D 01                    9022 	.db #0x01	; 1
    0000372E 01                    9023 	.db #0x01	; 1
    0000372F 01                    9024 	.db #0x01	; 1
    00003730 01                    9025 	.db #0x01	; 1
    00003731 01                    9026 	.db #0x01	; 1
    00003732 1E                    9027 	.db #0x1e	; 30
    00003733 1A                    9028 	.db #0x1a	; 26
    00003734 08                    9029 	.db #0x08	; 8
    00003735 01                    9030 	.db #0x01	; 1
    00003736 01                    9031 	.db #0x01	; 1
    00003737 01                    9032 	.db #0x01	; 1
    00003738 01                    9033 	.db #0x01	; 1
    00003739 01                    9034 	.db #0x01	; 1
    0000373A 01                    9035 	.db #0x01	; 1
    0000373B 01                    9036 	.db #0x01	; 1
    0000373C 01                    9037 	.db #0x01	; 1
    0000373D 01                    9038 	.db #0x01	; 1
    0000373E 1F                    9039 	.db #0x1f	; 31
    0000373F 00                    9040 	.db #0x00	; 0
    00003740 00                    9041 	.db #0x00	; 0
    00003741 1B                    9042 	.db #0x1b	; 27
    00003742 1B                    9043 	.db #0x1b	; 27
    00003743 1B                    9044 	.db #0x1b	; 27
    00003744 04                    9045 	.db #0x04	; 4
    00003745 04                    9046 	.db #0x04	; 4
    00003746 1B                    9047 	.db #0x1b	; 27
    00003747 00                    9048 	.db #0x00	; 0
    00003748 00                    9049 	.db #0x00	; 0
    00003749 00                    9050 	.db #0x00	; 0
    0000374A 1B                    9051 	.db #0x1b	; 27
    0000374B 1B                    9052 	.db #0x1b	; 27
    0000374C 1B                    9053 	.db #0x1b	; 27
    0000374D 00                    9054 	.db #0x00	; 0
    0000374E 17                    9055 	.db #0x17	; 23
    0000374F 00                    9056 	.db #0x00	; 0
    00003750 1B                    9057 	.db #0x1b	; 27
    00003751 13                    9058 	.db #0x13	; 19
    00003752 09                    9059 	.db #0x09	; 9
    00003753                       9060 _g_Sprites1_palette_ita:
    00003753 00                    9061 	.db #0x00	; 0
    00003754 00                    9062 	.db #0x00	; 0
    00003755 00                    9063 	.db #0x00	; 0
    00003756 14                    9064 	.db #0x14	; 20
    00003757 09                    9065 	.db #0x09	; 9
    00003758 14                    9066 	.db #0x14	; 20
    00003759 01                    9067 	.db #0x01	; 1
    0000375A 01                    9068 	.db #0x01	; 1
    0000375B 01                    9069 	.db #0x01	; 1
    0000375C 05                    9070 	.db #0x05	; 5
    0000375D 03                    9071 	.db #0x03	; 3
    0000375E 01                    9072 	.db #0x01	; 1
    0000375F 1B                    9073 	.db #0x1b	; 27
    00003760 1A                    9074 	.db #0x1a	; 26
    00003761 1B                    9075 	.db #0x1b	; 27
    00003762 1E                    9076 	.db #0x1e	; 30
    00003763 1A                    9077 	.db #0x1a	; 26
    00003764 08                    9078 	.db #0x08	; 8
    00003765 1B                    9079 	.db #0x1b	; 27
    00003766 1A                    9080 	.db #0x1a	; 26
    00003767 1B                    9081 	.db #0x1b	; 27
    00003768 09                    9082 	.db #0x09	; 9
    00003769 16                    9083 	.db #0x16	; 22
    0000376A 1B                    9084 	.db #0x1b	; 27
    0000376B 1B                    9085 	.db #0x1b	; 27
    0000376C 1A                    9086 	.db #0x1a	; 26
    0000376D 1B                    9087 	.db #0x1b	; 27
    0000376E 1B                    9088 	.db #0x1b	; 27
    0000376F 13                    9089 	.db #0x13	; 19
    00003770 09                    9090 	.db #0x09	; 9
    00003771 1F                    9091 	.db #0x1f	; 31
    00003772 1E                    9092 	.db #0x1e	; 30
    00003773 01                    9093 	.db #0x01	; 1
    00003774 1D                    9094 	.db #0x1d	; 29
    00003775 03                    9095 	.db #0x03	; 3
    00003776 02                    9096 	.db #0x02	; 2
    00003777 05                    9097 	.db #0x05	; 5
    00003778 03                    9098 	.db #0x03	; 3
    00003779 01                    9099 	.db #0x01	; 1
    0000377A 01                    9100 	.db #0x01	; 1
    0000377B 01                    9101 	.db #0x01	; 1
    0000377C 01                    9102 	.db #0x01	; 1
    0000377D 01                    9103 	.db #0x01	; 1
    0000377E 01                    9104 	.db #0x01	; 1
    0000377F 01                    9105 	.db #0x01	; 1
    00003780 01                    9106 	.db #0x01	; 1
    00003781 01                    9107 	.db #0x01	; 1
    00003782 01                    9108 	.db #0x01	; 1
    00003783                       9109 _g_Sprites1_palette_aus:
    00003783 00                    9110 	.db #0x00	; 0
    00003784 00                    9111 	.db #0x00	; 0
    00003785 00                    9112 	.db #0x00	; 0
    00003786 14                    9113 	.db #0x14	; 20
    00003787 09                    9114 	.db #0x09	; 9
    00003788 14                    9115 	.db #0x14	; 20
    00003789 01                    9116 	.db #0x01	; 1
    0000378A 01                    9117 	.db #0x01	; 1
    0000378B 01                    9118 	.db #0x01	; 1
    0000378C 05                    9119 	.db #0x05	; 5
    0000378D 03                    9120 	.db #0x03	; 3
    0000378E 01                    9121 	.db #0x01	; 1
    0000378F 1B                    9122 	.db #0x1b	; 27
    00003790 1A                    9123 	.db #0x1a	; 26
    00003791 1B                    9124 	.db #0x1b	; 27
    00003792 1E                    9125 	.db #0x1e	; 30
    00003793 1A                    9126 	.db #0x1a	; 26
    00003794 08                    9127 	.db #0x08	; 8
    00003795 1B                    9128 	.db #0x1b	; 27
    00003796 1A                    9129 	.db #0x1a	; 26
    00003797 1B                    9130 	.db #0x1b	; 27
    00003798 05                    9131 	.db #0x05	; 5
    00003799 03                    9132 	.db #0x03	; 3
    0000379A 01                    9133 	.db #0x01	; 1
    0000379B 1B                    9134 	.db #0x1b	; 27
    0000379C 1A                    9135 	.db #0x1a	; 26
    0000379D 1B                    9136 	.db #0x1b	; 27
    0000379E 1B                    9137 	.db #0x1b	; 27
    0000379F 13                    9138 	.db #0x13	; 19
    000037A0 09                    9139 	.db #0x09	; 9
    000037A1 1F                    9140 	.db #0x1f	; 31
    000037A2 1E                    9141 	.db #0x1e	; 30
    000037A3 01                    9142 	.db #0x01	; 1
    000037A4 1D                    9143 	.db #0x1d	; 29
    000037A5 03                    9144 	.db #0x03	; 3
    000037A6 02                    9145 	.db #0x02	; 2
    000037A7 05                    9146 	.db #0x05	; 5
    000037A8 03                    9147 	.db #0x03	; 3
    000037A9 01                    9148 	.db #0x01	; 1
    000037AA 01                    9149 	.db #0x01	; 1
    000037AB 01                    9150 	.db #0x01	; 1
    000037AC 01                    9151 	.db #0x01	; 1
    000037AD 01                    9152 	.db #0x01	; 1
    000037AE 01                    9153 	.db #0x01	; 1
    000037AF 01                    9154 	.db #0x01	; 1
    000037B0 01                    9155 	.db #0x01	; 1
    000037B1 01                    9156 	.db #0x01	; 1
    000037B2 01                    9157 	.db #0x01	; 1
    000037B3                       9158 _g_Sprites1_palette_fra:
    000037B3 00                    9159 	.db #0x00	; 0
    000037B4 00                    9160 	.db #0x00	; 0
    000037B5 00                    9161 	.db #0x00	; 0
    000037B6 14                    9162 	.db #0x14	; 20
    000037B7 09                    9163 	.db #0x09	; 9
    000037B8 14                    9164 	.db #0x14	; 20
    000037B9 01                    9165 	.db #0x01	; 1
    000037BA 01                    9166 	.db #0x01	; 1
    000037BB 01                    9167 	.db #0x01	; 1
    000037BC 05                    9168 	.db #0x05	; 5
    000037BD 03                    9169 	.db #0x03	; 3
    000037BE 01                    9170 	.db #0x01	; 1
    000037BF 1B                    9171 	.db #0x1b	; 27
    000037C0 1A                    9172 	.db #0x1a	; 26
    000037C1 1B                    9173 	.db #0x1b	; 27
    000037C2 1E                    9174 	.db #0x1e	; 30
    000037C3 1A                    9175 	.db #0x1a	; 26
    000037C4 08                    9176 	.db #0x08	; 8
    000037C5 1B                    9177 	.db #0x1b	; 27
    000037C6 1A                    9178 	.db #0x1a	; 26
    000037C7 1B                    9179 	.db #0x1b	; 27
    000037C8 04                    9180 	.db #0x04	; 4
    000037C9 04                    9181 	.db #0x04	; 4
    000037CA 1B                    9182 	.db #0x1b	; 27
    000037CB 1B                    9183 	.db #0x1b	; 27
    000037CC 1A                    9184 	.db #0x1a	; 26
    000037CD 1B                    9185 	.db #0x1b	; 27
    000037CE 1B                    9186 	.db #0x1b	; 27
    000037CF 13                    9187 	.db #0x13	; 19
    000037D0 09                    9188 	.db #0x09	; 9
    000037D1 1F                    9189 	.db #0x1f	; 31
    000037D2 1E                    9190 	.db #0x1e	; 30
    000037D3 01                    9191 	.db #0x01	; 1
    000037D4 1D                    9192 	.db #0x1d	; 29
    000037D5 03                    9193 	.db #0x03	; 3
    000037D6 02                    9194 	.db #0x02	; 2
    000037D7 05                    9195 	.db #0x05	; 5
    000037D8 03                    9196 	.db #0x03	; 3
    000037D9 01                    9197 	.db #0x01	; 1
    000037DA 01                    9198 	.db #0x01	; 1
    000037DB 01                    9199 	.db #0x01	; 1
    000037DC 01                    9200 	.db #0x01	; 1
    000037DD 01                    9201 	.db #0x01	; 1
    000037DE 01                    9202 	.db #0x01	; 1
    000037DF 01                    9203 	.db #0x01	; 1
    000037E0 01                    9204 	.db #0x01	; 1
    000037E1 01                    9205 	.db #0x01	; 1
    000037E2 01                    9206 	.db #0x01	; 1
    000037E3                       9207 _g_Sprites1_palette_ger:
    000037E3 00                    9208 	.db #0x00	; 0
    000037E4 00                    9209 	.db #0x00	; 0
    000037E5 00                    9210 	.db #0x00	; 0
    000037E6 14                    9211 	.db #0x14	; 20
    000037E7 09                    9212 	.db #0x09	; 9
    000037E8 14                    9213 	.db #0x14	; 20
    000037E9 01                    9214 	.db #0x01	; 1
    000037EA 01                    9215 	.db #0x01	; 1
    000037EB 01                    9216 	.db #0x01	; 1
    000037EC 05                    9217 	.db #0x05	; 5
    000037ED 03                    9218 	.db #0x03	; 3
    000037EE 01                    9219 	.db #0x01	; 1
    000037EF 1B                    9220 	.db #0x1b	; 27
    000037F0 1A                    9221 	.db #0x1a	; 26
    000037F1 1B                    9222 	.db #0x1b	; 27
    000037F2 1E                    9223 	.db #0x1e	; 30
    000037F3 1A                    9224 	.db #0x1a	; 26
    000037F4 08                    9225 	.db #0x08	; 8
    000037F5 05                    9226 	.db #0x05	; 5
    000037F6 03                    9227 	.db #0x03	; 3
    000037F7 01                    9228 	.db #0x01	; 1
    000037F8 1B                    9229 	.db #0x1b	; 27
    000037F9 1A                    9230 	.db #0x1a	; 26
    000037FA 1B                    9231 	.db #0x1b	; 27
    000037FB 1F                    9232 	.db #0x1f	; 31
    000037FC 00                    9233 	.db #0x00	; 0
    000037FD 00                    9234 	.db #0x00	; 0
    000037FE 1B                    9235 	.db #0x1b	; 27
    000037FF 13                    9236 	.db #0x13	; 19
    00003800 09                    9237 	.db #0x09	; 9
    00003801 1F                    9238 	.db #0x1f	; 31
    00003802 1E                    9239 	.db #0x1e	; 30
    00003803 01                    9240 	.db #0x01	; 1
    00003804 1D                    9241 	.db #0x1d	; 29
    00003805 03                    9242 	.db #0x03	; 3
    00003806 02                    9243 	.db #0x02	; 2
    00003807 05                    9244 	.db #0x05	; 5
    00003808 03                    9245 	.db #0x03	; 3
    00003809 01                    9246 	.db #0x01	; 1
    0000380A 01                    9247 	.db #0x01	; 1
    0000380B 01                    9248 	.db #0x01	; 1
    0000380C 01                    9249 	.db #0x01	; 1
    0000380D 01                    9250 	.db #0x01	; 1
    0000380E 01                    9251 	.db #0x01	; 1
    0000380F 01                    9252 	.db #0x01	; 1
    00003810 01                    9253 	.db #0x01	; 1
    00003811 01                    9254 	.db #0x01	; 1
    00003812 01                    9255 	.db #0x01	; 1
    00003813                       9256 _g_Sprites1_palette_gbr:
    00003813 00                    9257 	.db #0x00	; 0
    00003814 00                    9258 	.db #0x00	; 0
    00003815 00                    9259 	.db #0x00	; 0
    00003816 14                    9260 	.db #0x14	; 20
    00003817 09                    9261 	.db #0x09	; 9
    00003818 14                    9262 	.db #0x14	; 20
    00003819 01                    9263 	.db #0x01	; 1
    0000381A 01                    9264 	.db #0x01	; 1
    0000381B 01                    9265 	.db #0x01	; 1
    0000381C 05                    9266 	.db #0x05	; 5
    0000381D 03                    9267 	.db #0x03	; 3
    0000381E 01                    9268 	.db #0x01	; 1
    0000381F 1B                    9269 	.db #0x1b	; 27
    00003820 1A                    9270 	.db #0x1a	; 26
    00003821 1B                    9271 	.db #0x1b	; 27
    00003822 1E                    9272 	.db #0x1e	; 30
    00003823 1A                    9273 	.db #0x1a	; 26
    00003824 08                    9274 	.db #0x08	; 8
    00003825 01                    9275 	.db #0x01	; 1
    00003826 01                    9276 	.db #0x01	; 1
    00003827 01                    9277 	.db #0x01	; 1
    00003828 1B                    9278 	.db #0x1b	; 27
    00003829 1A                    9279 	.db #0x1a	; 26
    0000382A 1B                    9280 	.db #0x1b	; 27
    0000382B 01                    9281 	.db #0x01	; 1
    0000382C 01                    9282 	.db #0x01	; 1
    0000382D 01                    9283 	.db #0x01	; 1
    0000382E 1B                    9284 	.db #0x1b	; 27
    0000382F 13                    9285 	.db #0x13	; 19
    00003830 09                    9286 	.db #0x09	; 9
    00003831 1F                    9287 	.db #0x1f	; 31
    00003832 1E                    9288 	.db #0x1e	; 30
    00003833 01                    9289 	.db #0x01	; 1
    00003834 1D                    9290 	.db #0x1d	; 29
    00003835 03                    9291 	.db #0x03	; 3
    00003836 02                    9292 	.db #0x02	; 2
    00003837 05                    9293 	.db #0x05	; 5
    00003838 03                    9294 	.db #0x03	; 3
    00003839 01                    9295 	.db #0x01	; 1
    0000383A 01                    9296 	.db #0x01	; 1
    0000383B 01                    9297 	.db #0x01	; 1
    0000383C 01                    9298 	.db #0x01	; 1
    0000383D 01                    9299 	.db #0x01	; 1
    0000383E 01                    9300 	.db #0x01	; 1
    0000383F 01                    9301 	.db #0x01	; 1
    00003840 01                    9302 	.db #0x01	; 1
    00003841 01                    9303 	.db #0x01	; 1
    00003842 01                    9304 	.db #0x01	; 1
    00003843                       9305 _g_Sprites1_palette_bra:
    00003843 00                    9306 	.db #0x00	; 0
    00003844 00                    9307 	.db #0x00	; 0
    00003845 00                    9308 	.db #0x00	; 0
    00003846 14                    9309 	.db #0x14	; 20
    00003847 09                    9310 	.db #0x09	; 9
    00003848 14                    9311 	.db #0x14	; 20
    00003849 01                    9312 	.db #0x01	; 1
    0000384A 01                    9313 	.db #0x01	; 1
    0000384B 01                    9314 	.db #0x01	; 1
    0000384C 05                    9315 	.db #0x05	; 5
    0000384D 03                    9316 	.db #0x03	; 3
    0000384E 01                    9317 	.db #0x01	; 1
    0000384F 1B                    9318 	.db #0x1b	; 27
    00003850 1A                    9319 	.db #0x1a	; 26
    00003851 1B                    9320 	.db #0x1b	; 27
    00003852 1E                    9321 	.db #0x1e	; 30
    00003853 1A                    9322 	.db #0x1a	; 26
    00003854 08                    9323 	.db #0x08	; 8
    00003855 1B                    9324 	.db #0x1b	; 27
    00003856 13                    9325 	.db #0x13	; 19
    00003857 09                    9326 	.db #0x09	; 9
    00003858 00                    9327 	.db #0x00	; 0
    00003859 0A                    9328 	.db #0x0a	; 10
    0000385A 03                    9329 	.db #0x03	; 3
    0000385B 1B                    9330 	.db #0x1b	; 27
    0000385C 13                    9331 	.db #0x13	; 19
    0000385D 09                    9332 	.db #0x09	; 9
    0000385E 1B                    9333 	.db #0x1b	; 27
    0000385F 13                    9334 	.db #0x13	; 19
    00003860 09                    9335 	.db #0x09	; 9
    00003861 1F                    9336 	.db #0x1f	; 31
    00003862 1E                    9337 	.db #0x1e	; 30
    00003863 01                    9338 	.db #0x01	; 1
    00003864 1D                    9339 	.db #0x1d	; 29
    00003865 03                    9340 	.db #0x03	; 3
    00003866 02                    9341 	.db #0x02	; 2
    00003867 05                    9342 	.db #0x05	; 5
    00003868 03                    9343 	.db #0x03	; 3
    00003869 01                    9344 	.db #0x01	; 1
    0000386A 01                    9345 	.db #0x01	; 1
    0000386B 01                    9346 	.db #0x01	; 1
    0000386C 01                    9347 	.db #0x01	; 1
    0000386D 01                    9348 	.db #0x01	; 1
    0000386E 01                    9349 	.db #0x01	; 1
    0000386F 01                    9350 	.db #0x01	; 1
    00003870 01                    9351 	.db #0x01	; 1
    00003871 01                    9352 	.db #0x01	; 1
    00003872 01                    9353 	.db #0x01	; 1
    00003873                       9354 _g_Sprites1_palette_fio:
    00003873 00                    9355 	.db #0x00	; 0
    00003874 00                    9356 	.db #0x00	; 0
    00003875 00                    9357 	.db #0x00	; 0
    00003876 14                    9358 	.db #0x14	; 20
    00003877 09                    9359 	.db #0x09	; 9
    00003878 14                    9360 	.db #0x14	; 20
    00003879 01                    9361 	.db #0x01	; 1
    0000387A 01                    9362 	.db #0x01	; 1
    0000387B 01                    9363 	.db #0x01	; 1
    0000387C 05                    9364 	.db #0x05	; 5
    0000387D 03                    9365 	.db #0x03	; 3
    0000387E 01                    9366 	.db #0x01	; 1
    0000387F 1B                    9367 	.db #0x1b	; 27
    00003880 1A                    9368 	.db #0x1a	; 26
    00003881 1B                    9369 	.db #0x1b	; 27
    00003882 1E                    9370 	.db #0x1e	; 30
    00003883 1A                    9371 	.db #0x1a	; 26
    00003884 08                    9372 	.db #0x08	; 8
    00003885 1B                    9373 	.db #0x1b	; 27
    00003886 13                    9374 	.db #0x13	; 19
    00003887 09                    9375 	.db #0x09	; 9
    00003888 1B                    9376 	.db #0x1b	; 27
    00003889 02                    9377 	.db #0x02	; 2
    0000388A 14                    9378 	.db #0x14	; 20
    0000388B 1B                    9379 	.db #0x1b	; 27
    0000388C 13                    9380 	.db #0x13	; 19
    0000388D 09                    9381 	.db #0x09	; 9
    0000388E 1B                    9382 	.db #0x1b	; 27
    0000388F 13                    9383 	.db #0x13	; 19
    00003890 09                    9384 	.db #0x09	; 9
    00003891 1F                    9385 	.db #0x1f	; 31
    00003892 1E                    9386 	.db #0x1e	; 30
    00003893 01                    9387 	.db #0x01	; 1
    00003894 1D                    9388 	.db #0x1d	; 29
    00003895 03                    9389 	.db #0x03	; 3
    00003896 02                    9390 	.db #0x02	; 2
    00003897 05                    9391 	.db #0x05	; 5
    00003898 03                    9392 	.db #0x03	; 3
    00003899 01                    9393 	.db #0x01	; 1
    0000389A 01                    9394 	.db #0x01	; 1
    0000389B 01                    9395 	.db #0x01	; 1
    0000389C 01                    9396 	.db #0x01	; 1
    0000389D 01                    9397 	.db #0x01	; 1
    0000389E 01                    9398 	.db #0x01	; 1
    0000389F 01                    9399 	.db #0x01	; 1
    000038A0 01                    9400 	.db #0x01	; 1
    000038A1 01                    9401 	.db #0x01	; 1
    000038A2 01                    9402 	.db #0x01	; 1
                                   9403 ;E:\Dropbox\FAUSTO\SVILUPPI\MSX\CODE\C\MSXgl\projects\exsoccer/exsoccer_s1_b2.c:1799: void SetTeam1Palette(){
                                   9404 ;	---------------------------------
                                   9405 ; Function SetTeam1Palette
                                   9406 ; ---------------------------------
    000038A3                       9407 _SetTeam1Palette::
                                   9408 ;E:\Dropbox\FAUSTO\SVILUPPI\MSX\CODE\C\MSXgl\projects\exsoccer/exsoccer_s1_b2.c:1800: V9_SetPalette(32, 16, GetTeamPaletteById(g_Team1PaletteId));
    000038A3 3Ar00r00         [13] 9409 	ld	a, (_g_Team1PaletteId+0)
    000038A6 CDrFDr38         [17] 9410 	call	_GetTeamPaletteById
    000038A9 EB               [ 4] 9411 	ex	de, hl
                                   9412 ;E:\Dropbox\FAUSTO\SVILUPPI\MSX\CODE\C\MSXgl\projects\exsoccer/exsoccer_s1_b2.c:1028: if (playerTeamId == TEAM_1 && g_Ball.Y < limitY - 10) ballFar = true;
    000038AA 01 20 00         [10] 9413 	ld	bc, #0x20
    000038AD                       9414 00104$:
    000038AD 78               [ 4] 9415 	ld	a, b
    000038AE D6 10            [ 7] 9416 	sub	a, #0x10
    000038B0 D0               [11] 9417 	ret	NC
    000038B1 FD E5            [15] 9418 	push	iy
    000038B3 E3               [19] 9419 	ex	(sp), hl
    000038B4 69               [ 4] 9420 	ld	l, c
                                   9421 ;	spillPairReg hl
                                   9422 ;	spillPairReg hl
    000038B5 E3               [19] 9423 	ex	(sp), hl
    000038B6 FD E1            [14] 9424 	pop	iy
    000038B8 0C               [ 4] 9425 	inc	c
    000038B9 E5               [11] 9426 	push	hl
    000038BA C5               [11] 9427 	push	bc
    000038BB 5D               [ 4] 9428 	ld	e, l
    000038BC 54               [ 4] 9429 	ld	d, h
    000038BD FD E5            [15] 9430 	push	iy
    000038BF E3               [19] 9431 	ex	(sp), hl
    000038C0 7D               [ 4] 9432 	ld	a, l
    000038C1 E3               [19] 9433 	ex	(sp), hl
    000038C2 FD E1            [14] 9434 	pop	iy
    000038C4 CDr00r00         [17] 9435 	call	_V9_SetPaletteEntry
    000038C7 C1               [10] 9436 	pop	bc
    000038C8 E1               [10] 9437 	pop	hl
    000038C9 23               [ 6] 9438 	inc	hl
    000038CA 23               [ 6] 9439 	inc	hl
    000038CB 23               [ 6] 9440 	inc	hl
    000038CC 04               [ 4] 9441 	inc	b
                                   9442 ;E:\Dropbox\FAUSTO\SVILUPPI\MSX\CODE\C\MSXgl\projects\exsoccer/exsoccer_s1_b2.c:1800: V9_SetPalette(32, 16, GetTeamPaletteById(g_Team1PaletteId));
                                   9443 ;E:\Dropbox\FAUSTO\SVILUPPI\MSX\CODE\C\MSXgl\projects\exsoccer/exsoccer_s1_b2.c:1801: }
    000038CD C3rADr38         [10] 9444 	jp	00104$
                                   9445 ;E:\Dropbox\FAUSTO\SVILUPPI\MSX\CODE\C\MSXgl\projects\exsoccer/exsoccer_s1_b2.c:1802: void SetTeam2Palette(){
                                   9446 ;	---------------------------------
                                   9447 ; Function SetTeam2Palette
                                   9448 ; ---------------------------------
    000038D0                       9449 _SetTeam2Palette::
                                   9450 ;E:\Dropbox\FAUSTO\SVILUPPI\MSX\CODE\C\MSXgl\projects\exsoccer/exsoccer_s1_b2.c:1803: V9_SetPalette(48, 16, GetTeamPaletteById(g_Team2PaletteId));
    000038D0 3Ar00r00         [13] 9451 	ld	a, (_g_Team2PaletteId+0)
    000038D3 CDrFDr38         [17] 9452 	call	_GetTeamPaletteById
    000038D6 EB               [ 4] 9453 	ex	de, hl
                                   9454 ;E:\Dropbox\FAUSTO\SVILUPPI\MSX\CODE\C\MSXgl\projects\exsoccer/exsoccer_s1_b2.c:1028: if (playerTeamId == TEAM_1 && g_Ball.Y < limitY - 10) ballFar = true;
    000038D7 01 30 00         [10] 9455 	ld	bc, #0x30
    000038DA                       9456 00104$:
    000038DA 78               [ 4] 9457 	ld	a, b
    000038DB D6 10            [ 7] 9458 	sub	a, #0x10
    000038DD D0               [11] 9459 	ret	NC
    000038DE FD E5            [15] 9460 	push	iy
    000038E0 E3               [19] 9461 	ex	(sp), hl
    000038E1 69               [ 4] 9462 	ld	l, c
                                   9463 ;	spillPairReg hl
                                   9464 ;	spillPairReg hl
    000038E2 E3               [19] 9465 	ex	(sp), hl
    000038E3 FD E1            [14] 9466 	pop	iy
    000038E5 0C               [ 4] 9467 	inc	c
    000038E6 E5               [11] 9468 	push	hl
    000038E7 C5               [11] 9469 	push	bc
    000038E8 5D               [ 4] 9470 	ld	e, l
    000038E9 54               [ 4] 9471 	ld	d, h
    000038EA FD E5            [15] 9472 	push	iy
    000038EC E3               [19] 9473 	ex	(sp), hl
    000038ED 7D               [ 4] 9474 	ld	a, l
    000038EE E3               [19] 9475 	ex	(sp), hl
    000038EF FD E1            [14] 9476 	pop	iy
    000038F1 CDr00r00         [17] 9477 	call	_V9_SetPaletteEntry
    000038F4 C1               [10] 9478 	pop	bc
    000038F5 E1               [10] 9479 	pop	hl
    000038F6 23               [ 6] 9480 	inc	hl
    000038F7 23               [ 6] 9481 	inc	hl
    000038F8 23               [ 6] 9482 	inc	hl
    000038F9 04               [ 4] 9483 	inc	b
                                   9484 ;E:\Dropbox\FAUSTO\SVILUPPI\MSX\CODE\C\MSXgl\projects\exsoccer/exsoccer_s1_b2.c:1803: V9_SetPalette(48, 16, GetTeamPaletteById(g_Team2PaletteId));
                                   9485 ;E:\Dropbox\FAUSTO\SVILUPPI\MSX\CODE\C\MSXgl\projects\exsoccer/exsoccer_s1_b2.c:1804: }
    000038FA C3rDAr38         [10] 9486 	jp	00104$
                                   9487 ;E:\Dropbox\FAUSTO\SVILUPPI\MSX\CODE\C\MSXgl\projects\exsoccer/exsoccer_s1_b2.c:1805: const u16* GetTeamPaletteById(u8 id){
                                   9488 ;	---------------------------------
                                   9489 ; Function GetTeamPaletteById
                                   9490 ; ---------------------------------
    000038FD                       9491 _GetTeamPaletteById::
    000038FD 4F               [ 4] 9492 	ld	c, a
                                   9493 ;E:\Dropbox\FAUSTO\SVILUPPI\MSX\CODE\C\MSXgl\projects\exsoccer/exsoccer_s1_b2.c:1806: const u16* palette=g_Sprites1_palette_ita;
    000038FE 11r53r37         [10] 9494 	ld	de, #_g_Sprites1_palette_ita
                                   9495 ;E:\Dropbox\FAUSTO\SVILUPPI\MSX\CODE\C\MSXgl\projects\exsoccer/exsoccer_s1_b2.c:1807: switch (id){
    00003901 3E 05            [ 7] 9496 	ld	a, #0x05
    00003903 91               [ 4] 9497 	sub	a, c
    00003904 D8               [11] 9498 	ret	C
    00003905 06 00            [ 7] 9499 	ld	b, #0x00
    00003907 21r0Er39         [10] 9500 	ld	hl, #00123$
    0000390A 09               [11] 9501 	add	hl, bc
    0000390B 09               [11] 9502 	add	hl, bc
    0000390C 09               [11] 9503 	add	hl, bc
    0000390D E9               [ 4] 9504 	jp	(hl)
    0000390E                       9505 00123$:
    0000390E C3r20r39         [10] 9506 	jp	00101$
    00003911 C3r2Er39         [10] 9507 	jp	00105$
    00003914 C3r32r39         [10] 9508 	jp	00106$
    00003917 C3r3Er39         [10] 9509 	jp	00109$
    0000391A C3r36r39         [10] 9510 	jp	00107$
    0000391D C3r3Ar39         [10] 9511 	jp	00108$
                                   9512 ;E:\Dropbox\FAUSTO\SVILUPPI\MSX\CODE\C\MSXgl\projects\exsoccer/exsoccer_s1_b2.c:1808: case TEAM_AUS:
    00003920                       9513 00101$:
                                   9514 ;E:\Dropbox\FAUSTO\SVILUPPI\MSX\CODE\C\MSXgl\projects\exsoccer/exsoccer_s1_b2.c:1809: if(g_FioBre){
    00003920 3Ar00r00         [13] 9515 	ld	a, (_g_FioBre+0)
    00003923 B7               [ 4] 9516 	or	a, a
    00003924 28 04            [12] 9517 	jr	Z, 00103$
                                   9518 ;E:\Dropbox\FAUSTO\SVILUPPI\MSX\CODE\C\MSXgl\projects\exsoccer/exsoccer_s1_b2.c:1810: palette=g_Sprites1_palette_fio;
    00003926 11r73r38         [10] 9519 	ld	de, #_g_Sprites1_palette_fio
    00003929 C9               [10] 9520 	ret
    0000392A                       9521 00103$:
                                   9522 ;E:\Dropbox\FAUSTO\SVILUPPI\MSX\CODE\C\MSXgl\projects\exsoccer/exsoccer_s1_b2.c:1813: palette=g_Sprites1_palette_aus;
    0000392A 11r83r37         [10] 9523 	ld	de, #_g_Sprites1_palette_aus
                                   9524 ;E:\Dropbox\FAUSTO\SVILUPPI\MSX\CODE\C\MSXgl\projects\exsoccer/exsoccer_s1_b2.c:1815: break; 
    0000392D C9               [10] 9525 	ret
                                   9526 ;E:\Dropbox\FAUSTO\SVILUPPI\MSX\CODE\C\MSXgl\projects\exsoccer/exsoccer_s1_b2.c:1816: case TEAM_BRA:
    0000392E                       9527 00105$:
                                   9528 ;E:\Dropbox\FAUSTO\SVILUPPI\MSX\CODE\C\MSXgl\projects\exsoccer/exsoccer_s1_b2.c:1817: palette=g_Sprites1_palette_bra;
    0000392E 11r43r38         [10] 9529 	ld	de, #_g_Sprites1_palette_bra
                                   9530 ;E:\Dropbox\FAUSTO\SVILUPPI\MSX\CODE\C\MSXgl\projects\exsoccer/exsoccer_s1_b2.c:1818: break;
    00003931 C9               [10] 9531 	ret
                                   9532 ;E:\Dropbox\FAUSTO\SVILUPPI\MSX\CODE\C\MSXgl\projects\exsoccer/exsoccer_s1_b2.c:1819: case TEAM_ITA:
    00003932                       9533 00106$:
                                   9534 ;E:\Dropbox\FAUSTO\SVILUPPI\MSX\CODE\C\MSXgl\projects\exsoccer/exsoccer_s1_b2.c:1820: palette=g_Sprites1_palette_ita;
    00003932 11r53r37         [10] 9535 	ld	de, #_g_Sprites1_palette_ita
                                   9536 ;E:\Dropbox\FAUSTO\SVILUPPI\MSX\CODE\C\MSXgl\projects\exsoccer/exsoccer_s1_b2.c:1821: break;
    00003935 C9               [10] 9537 	ret
                                   9538 ;E:\Dropbox\FAUSTO\SVILUPPI\MSX\CODE\C\MSXgl\projects\exsoccer/exsoccer_s1_b2.c:1822: case TEAM_GBR:
    00003936                       9539 00107$:
                                   9540 ;E:\Dropbox\FAUSTO\SVILUPPI\MSX\CODE\C\MSXgl\projects\exsoccer/exsoccer_s1_b2.c:1823: palette=g_Sprites1_palette_gbr;
    00003936 11r13r38         [10] 9541 	ld	de, #_g_Sprites1_palette_gbr
                                   9542 ;E:\Dropbox\FAUSTO\SVILUPPI\MSX\CODE\C\MSXgl\projects\exsoccer/exsoccer_s1_b2.c:1824: break;
    00003939 C9               [10] 9543 	ret
                                   9544 ;E:\Dropbox\FAUSTO\SVILUPPI\MSX\CODE\C\MSXgl\projects\exsoccer/exsoccer_s1_b2.c:1825: case TEAM_GER:
    0000393A                       9545 00108$:
                                   9546 ;E:\Dropbox\FAUSTO\SVILUPPI\MSX\CODE\C\MSXgl\projects\exsoccer/exsoccer_s1_b2.c:1826: palette=g_Sprites1_palette_ger;
    0000393A 11rE3r37         [10] 9547 	ld	de, #_g_Sprites1_palette_ger
                                   9548 ;E:\Dropbox\FAUSTO\SVILUPPI\MSX\CODE\C\MSXgl\projects\exsoccer/exsoccer_s1_b2.c:1827: break;
    0000393D C9               [10] 9549 	ret
                                   9550 ;E:\Dropbox\FAUSTO\SVILUPPI\MSX\CODE\C\MSXgl\projects\exsoccer/exsoccer_s1_b2.c:1828: case TEAM_FRA:
    0000393E                       9551 00109$:
                                   9552 ;E:\Dropbox\FAUSTO\SVILUPPI\MSX\CODE\C\MSXgl\projects\exsoccer/exsoccer_s1_b2.c:1829: palette=g_Sprites1_palette_fra;
    0000393E 11rB3r37         [10] 9553 	ld	de, #_g_Sprites1_palette_fra
                                   9554 ;E:\Dropbox\FAUSTO\SVILUPPI\MSX\CODE\C\MSXgl\projects\exsoccer/exsoccer_s1_b2.c:1831: }
                                   9555 ;E:\Dropbox\FAUSTO\SVILUPPI\MSX\CODE\C\MSXgl\projects\exsoccer/exsoccer_s1_b2.c:1832: return palette;
                                   9556 ;E:\Dropbox\FAUSTO\SVILUPPI\MSX\CODE\C\MSXgl\projects\exsoccer/exsoccer_s1_b2.c:1833: }
    00003941 C9               [10] 9557 	ret
                                   9558 ;E:\Dropbox\FAUSTO\SVILUPPI\MSX\CODE\C\MSXgl\projects\exsoccer/exsoccer_s1_b2.c:1836: void TickFieldScrollingAction(){
                                   9559 ;	---------------------------------
                                   9560 ; Function TickFieldScrollingAction
                                   9561 ; ---------------------------------
    00003942                       9562 _TickFieldScrollingAction::
                                   9563 ;E:\Dropbox\FAUSTO\SVILUPPI\MSX\CODE\C\MSXgl\projects\exsoccer/exsoccer_s1_b2.c:1838: if(g_FieldScrollingActionInProgress!=NO_VALUE){
    00003942 3Ar00r00         [13] 9564 	ld	a, (_g_FieldScrollingActionInProgress+0)
    00003945 3C               [ 4] 9565 	inc	a
    00003946 C8               [11] 9566 	ret	Z
                                   9567 ;E:\Dropbox\FAUSTO\SVILUPPI\MSX\CODE\C\MSXgl\projects\exsoccer/exsoccer_s1_b2.c:1840: switch (g_FieldScrollingActionInProgress){
    00003947 3Ar00r00         [13] 9568 	ld	a, (_g_FieldScrollingActionInProgress+0)
    0000394A B7               [ 4] 9569 	or	a, a
    0000394B 28 11            [12] 9570 	jr	Z, 00101$
    0000394D 3Ar00r00         [13] 9571 	ld	a, (_g_FieldScrollingActionInProgress+0)
    00003950 3D               [ 4] 9572 	dec	a
    00003951 28 39            [12] 9573 	jr	Z, 00104$
    00003953 3Ar00r00         [13] 9574 	ld	a, (_g_FieldScrollingActionInProgress+0)
    00003956 D6 02            [ 7] 9575 	sub	a, #0x02
    00003958 CArFBr39         [10] 9576 	jp	Z,00114$
    0000395B C3r2Fr3A         [10] 9577 	jp	00117$
                                   9578 ;E:\Dropbox\FAUSTO\SVILUPPI\MSX\CODE\C\MSXgl\projects\exsoccer/exsoccer_s1_b2.c:1841: case FIELD_NORTH_ZONE:
    0000395E                       9579 00101$:
                                   9580 ;E:\Dropbox\FAUSTO\SVILUPPI\MSX\CODE\C\MSXgl\projects\exsoccer/exsoccer_s1_b2.c:1842: g_FieldCurrentYPosition=g_FieldCurrentYPosition-g_FieldScrollSpeed;
    0000395E 3Ar00r00         [13] 9581 	ld	a, (_g_FieldScrollSpeed+0)
    00003961 4F               [ 4] 9582 	ld	c, a
    00003962 06 00            [ 7] 9583 	ld	b, #0x00
    00003964 21r00r00         [10] 9584 	ld	hl, #_g_FieldCurrentYPosition
    00003967 7E               [ 7] 9585 	ld	a, (hl)
    00003968 91               [ 4] 9586 	sub	a, c
    00003969 77               [ 7] 9587 	ld	(hl), a
    0000396A 23               [ 6] 9588 	inc	hl
    0000396B 7E               [ 7] 9589 	ld	a, (hl)
    0000396C 98               [ 4] 9590 	sbc	a, b
    0000396D 77               [ 7] 9591 	ld	(hl), a
                                   9592 ;E:\Dropbox\FAUSTO\SVILUPPI\MSX\CODE\C\MSXgl\projects\exsoccer/exsoccer_s1_b2.c:1843: if(g_FieldCurrentYPosition<0){
    0000396E 3Ar01r00         [13] 9593 	ld	a, (_g_FieldCurrentYPosition+1)
    00003971 CB 7F            [ 8] 9594 	bit	7, a
    00003973 CAr2Fr3A         [10] 9595 	jp	Z, 00117$
                                   9596 ;E:\Dropbox\FAUSTO\SVILUPPI\MSX\CODE\C\MSXgl\projects\exsoccer/exsoccer_s1_b2.c:1844: g_FieldCurrentYPosition=1;
    00003976 21 01 00         [10] 9597 	ld	hl, #0x0001
    00003979 22r00r00         [16] 9598 	ld	(_g_FieldCurrentYPosition), hl
                                   9599 ;E:\Dropbox\FAUSTO\SVILUPPI\MSX\CODE\C\MSXgl\projects\exsoccer/exsoccer_s1_b2.c:1845: g_FieldScrollingActionInProgress=NO_VALUE;
    0000397C 21r00r00         [10] 9600 	ld	hl, #_g_FieldScrollingActionInProgress
    0000397F 36 FF            [10] 9601 	ld	(hl), #0xff
                                   9602 ;E:\Dropbox\FAUSTO\SVILUPPI\MSX\CODE\C\MSXgl\projects\exsoccer/exsoccer_s1_b2.c:1846: g_ActiveFieldZone=FIELD_NORTH_ZONE;
    00003981 FD 21r00r00      [14] 9603 	ld	iy, #_g_ActiveFieldZone
    00003985 FD 36 00 00      [19] 9604 	ld	0 (iy), #0x00
                                   9605 ;E:\Dropbox\FAUSTO\SVILUPPI\MSX\CODE\C\MSXgl\projects\exsoccer/exsoccer_s1_b2.c:1848: break;
    00003989 C3r2Fr3A         [10] 9606 	jp	00117$
                                   9607 ;E:\Dropbox\FAUSTO\SVILUPPI\MSX\CODE\C\MSXgl\projects\exsoccer/exsoccer_s1_b2.c:1849: case FIELD_CENTRAL_ZONE:
    0000398C                       9608 00104$:
                                   9609 ;E:\Dropbox\FAUSTO\SVILUPPI\MSX\CODE\C\MSXgl\projects\exsoccer/exsoccer_s1_b2.c:1850: if(g_FieldCurrentYPosition!=136){
    0000398C 3Ar00r00         [13] 9610 	ld	a, (_g_FieldCurrentYPosition+0)
    0000398F D6 88            [ 7] 9611 	sub	a, #0x88
    00003991 FD 21r00r00      [14] 9612 	ld	iy, #_g_FieldCurrentYPosition
    00003995 FD B6 01         [19] 9613 	or	a, 1 (iy)
    00003998 28 32            [12] 9614 	jr	Z, 00112$
                                   9615 ;E:\Dropbox\FAUSTO\SVILUPPI\MSX\CODE\C\MSXgl\projects\exsoccer/exsoccer_s1_b2.c:1842: g_FieldCurrentYPosition=g_FieldCurrentYPosition-g_FieldScrollSpeed;
    0000399A 3Ar00r00         [13] 9616 	ld	a, (_g_FieldScrollSpeed+0)
    0000399D 4F               [ 4] 9617 	ld	c, a
    0000399E 06 00            [ 7] 9618 	ld	b, #0x00
                                   9619 ;E:\Dropbox\FAUSTO\SVILUPPI\MSX\CODE\C\MSXgl\projects\exsoccer/exsoccer_s1_b2.c:1851: if(g_FieldCurrentYPosition>FIELD_CENTRAL_Y){
    000039A0 3E 8C            [ 7] 9620 	ld	a, #0x8c
    000039A2 FD BE 00         [19] 9621 	cp	a, 0 (iy)
    000039A5 3E 00            [ 7] 9622 	ld	a, #0x00
    000039A7 FD 9E 01         [19] 9623 	sbc	a, 1 (iy)
    000039AA E2rAFr39         [10] 9624 	jp	PO, 00186$
    000039AD EE 80            [ 7] 9625 	xor	a, #0x80
    000039AF                       9626 00186$:
    000039AF F2rBFr39         [10] 9627 	jp	P, 00106$
                                   9628 ;E:\Dropbox\FAUSTO\SVILUPPI\MSX\CODE\C\MSXgl\projects\exsoccer/exsoccer_s1_b2.c:1852: g_FieldCurrentYPosition=g_FieldCurrentYPosition-g_FieldScrollSpeed;
    000039B2 21r00r00         [10] 9629 	ld	hl, #_g_FieldCurrentYPosition
    000039B5 7E               [ 7] 9630 	ld	a, (hl)
    000039B6 91               [ 4] 9631 	sub	a, c
    000039B7 77               [ 7] 9632 	ld	(hl), a
    000039B8 23               [ 6] 9633 	inc	hl
    000039B9 7E               [ 7] 9634 	ld	a, (hl)
    000039BA 98               [ 4] 9635 	sbc	a, b
    000039BB 77               [ 7] 9636 	ld	(hl), a
    000039BC C3r2Fr3A         [10] 9637 	jp	00117$
    000039BF                       9638 00106$:
                                   9639 ;E:\Dropbox\FAUSTO\SVILUPPI\MSX\CODE\C\MSXgl\projects\exsoccer/exsoccer_s1_b2.c:1855: g_FieldCurrentYPosition=g_FieldCurrentYPosition+g_FieldScrollSpeed;
    000039BF 21r00r00         [10] 9640 	ld	hl, #_g_FieldCurrentYPosition
    000039C2 7E               [ 7] 9641 	ld	a, (hl)
    000039C3 81               [ 4] 9642 	add	a, c
    000039C4 77               [ 7] 9643 	ld	(hl), a
    000039C5 23               [ 6] 9644 	inc	hl
    000039C6 7E               [ 7] 9645 	ld	a, (hl)
    000039C7 88               [ 4] 9646 	adc	a, b
    000039C8 77               [ 7] 9647 	ld	(hl), a
    000039C9 C3r2Fr3A         [10] 9648 	jp	00117$
    000039CC                       9649 00112$:
                                   9650 ;E:\Dropbox\FAUSTO\SVILUPPI\MSX\CODE\C\MSXgl\projects\exsoccer/exsoccer_s1_b2.c:1860: g_FieldScrollingActionInProgress=NO_VALUE;
    000039CC 21r00r00         [10] 9651 	ld	hl, #_g_FieldScrollingActionInProgress
    000039CF 36 FF            [10] 9652 	ld	(hl), #0xff
                                   9653 ;E:\Dropbox\FAUSTO\SVILUPPI\MSX\CODE\C\MSXgl\projects\exsoccer/exsoccer_s1_b2.c:1861: g_ActiveFieldZone=FIELD_CENTRAL_ZONE;
    000039D1 FD 21r00r00      [14] 9654 	ld	iy, #_g_ActiveFieldZone
    000039D5 FD 36 00 01      [19] 9655 	ld	0 (iy), #0x01
                                   9656 ;E:\Dropbox\FAUSTO\SVILUPPI\MSX\CODE\C\MSXgl\projects\exsoccer/exsoccer_s1_b2.c:1862: if(g_MatchStatus==MATCH_NOT_STARTED){
    000039D9 3Ar00r00         [13] 9657 	ld	a, (_g_MatchStatus+0)
    000039DC B7               [ 4] 9658 	or	a, a
    000039DD 20 50            [12] 9659 	jr	NZ, 00117$
                                   9660 ;E:\Dropbox\FAUSTO\SVILUPPI\MSX\CODE\C\MSXgl\projects\exsoccer/exsoccer_s1_b2.c:1863: g_MatchStatus=MATCH_BEFORE_KICK_OFF;
    000039DF 21r00r00         [10] 9661 	ld	hl, #_g_MatchStatus
    000039E2 36 01            [10] 9662 	ld	(hl), #0x01
                                   9663 ;E:\Dropbox\FAUSTO\SVILUPPI\MSX\CODE\C\MSXgl\projects\exsoccer/exsoccer_s1_b2.c:1864: for(u8 i=0;i<15;i++){
    000039E4 0E 00            [ 7] 9664 	ld	c, #0x00
    000039E6                       9665 00121$:
    000039E6 79               [ 4] 9666 	ld	a, c
    000039E7 D6 0F            [ 7] 9667 	sub	a, #0x0f
    000039E9 30 0A            [12] 9668 	jr	NC, 00108$
                                   9669 ;E:\Dropbox\FAUSTO\SVILUPPI\MSX\CODE\C\MSXgl\projects\exsoccer/exsoccer_s1_b2.c:1865: SetPlayerTarget(i);
    000039EB C5               [11] 9670 	push	bc
    000039EC 79               [ 4] 9671 	ld	a, c
    000039ED CDr00r00         [17] 9672 	call	_SetPlayerTarget
    000039F0 C1               [10] 9673 	pop	bc
                                   9674 ;E:\Dropbox\FAUSTO\SVILUPPI\MSX\CODE\C\MSXgl\projects\exsoccer/exsoccer_s1_b2.c:1864: for(u8 i=0;i<15;i++){
    000039F1 0C               [ 4] 9675 	inc	c
    000039F2 C3rE6r39         [10] 9676 	jp	00121$
    000039F5                       9677 00108$:
                                   9678 ;E:\Dropbox\FAUSTO\SVILUPPI\MSX\CODE\C\MSXgl\projects\exsoccer/exsoccer_s1_b2.c:1867: TickPlayerToOwnTarget();
    000039F5 CDr00r00         [17] 9679 	call	_TickPlayerToOwnTarget
                                   9680 ;E:\Dropbox\FAUSTO\SVILUPPI\MSX\CODE\C\MSXgl\projects\exsoccer/exsoccer_s1_b2.c:1871: break;
    000039F8 C3r2Fr3A         [10] 9681 	jp	00117$
                                   9682 ;E:\Dropbox\FAUSTO\SVILUPPI\MSX\CODE\C\MSXgl\projects\exsoccer/exsoccer_s1_b2.c:1872: case FIELD_SOUTH_ZONE:
    000039FB                       9683 00114$:
                                   9684 ;E:\Dropbox\FAUSTO\SVILUPPI\MSX\CODE\C\MSXgl\projects\exsoccer/exsoccer_s1_b2.c:1873: g_FieldCurrentYPosition=g_FieldCurrentYPosition+g_FieldScrollSpeed;
    000039FB 3Ar00r00         [13] 9685 	ld	a, (_g_FieldScrollSpeed+0)
    000039FE 4F               [ 4] 9686 	ld	c, a
    000039FF 06 00            [ 7] 9687 	ld	b, #0x00
    00003A01 79               [ 4] 9688 	ld	a, c
    00003A02 FD 21r00r00      [14] 9689 	ld	iy, #_g_FieldCurrentYPosition
    00003A06 FD 86 00         [19] 9690 	add	a, 0 (iy)
    00003A09 32r00r00         [13] 9691 	ld	(_g_FieldCurrentYPosition+0), a
    00003A0C 78               [ 4] 9692 	ld	a, b
    00003A0D FD 8E 01         [19] 9693 	adc	a, 1 (iy)
    00003A10 32r01r00         [13] 9694 	ld	(_g_FieldCurrentYPosition+1), a
                                   9695 ;E:\Dropbox\FAUSTO\SVILUPPI\MSX\CODE\C\MSXgl\projects\exsoccer/exsoccer_s1_b2.c:1874: if(g_FieldCurrentYPosition>=FIELD_BOTTOM_Y){
    00003A13 3Ar00r00         [13] 9696 	ld	a, (_g_FieldCurrentYPosition+0)
    00003A16 D6 18            [ 7] 9697 	sub	a, #0x18
    00003A18 3Ar01r00         [13] 9698 	ld	a, (_g_FieldCurrentYPosition+1)
    00003A1B 17               [ 4] 9699 	rla
    00003A1C 3F               [ 4] 9700 	ccf
    00003A1D 1F               [ 4] 9701 	rra
    00003A1E DE 81            [ 7] 9702 	sbc	a, #0x81
    00003A20 38 0D            [12] 9703 	jr	C, 00117$
                                   9704 ;E:\Dropbox\FAUSTO\SVILUPPI\MSX\CODE\C\MSXgl\projects\exsoccer/exsoccer_s1_b2.c:1875: g_ActiveFieldZone=FIELD_SOUTH_ZONE;
    00003A22 21r00r00         [10] 9705 	ld	hl, #_g_ActiveFieldZone
    00003A25 36 02            [10] 9706 	ld	(hl), #0x02
                                   9707 ;E:\Dropbox\FAUSTO\SVILUPPI\MSX\CODE\C\MSXgl\projects\exsoccer/exsoccer_s1_b2.c:1876: g_FieldScrollingActionInProgress=NO_VALUE;
    00003A27 FD 21r00r00      [14] 9708 	ld	iy, #_g_FieldScrollingActionInProgress
    00003A2B FD 36 00 FF      [19] 9709 	ld	0 (iy), #0xff
                                   9710 ;E:\Dropbox\FAUSTO\SVILUPPI\MSX\CODE\C\MSXgl\projects\exsoccer/exsoccer_s1_b2.c:1879: }
    00003A2F                       9711 00117$:
                                   9712 ;E:\Dropbox\FAUSTO\SVILUPPI\MSX\CODE\C\MSXgl\projects\exsoccer/exsoccer_s1_b2.c:1880: V9_SetScrollingBY(g_FieldCurrentYPosition);
    00003A2F 2Ar00r00         [16] 9713 	ld	hl, (_g_FieldCurrentYPosition)
                                   9714 ;E:\Dropbox\FAUSTO\SVILUPPI\MSX\CODE\C\MSXgl\projects\exsoccer/exsoccer_s1_b2.c:1882: }
    00003A32 C3r00r00         [10] 9715 	jp	_V9_SetScrollingBY
                                   9716 ;E:\Dropbox\FAUSTO\SVILUPPI\MSX\CODE\C\MSXgl\projects\exsoccer/exsoccer_s1_b2.c:1883: void TickShowKickOff(){
                                   9717 ;	---------------------------------
                                   9718 ; Function TickShowKickOff
                                   9719 ; ---------------------------------
    00003A35                       9720 _TickShowKickOff::
                                   9721 ;E:\Dropbox\FAUSTO\SVILUPPI\MSX\CODE\C\MSXgl\projects\exsoccer/exsoccer_s1_b2.c:1884: if(g_MatchStatus==MATCH_KICK_OFF){
    00003A35 3Ar00r00         [13] 9722 	ld	a, (_g_MatchStatus+0)
    00003A38 D6 07            [ 7] 9723 	sub	a, #0x07
    00003A3A 20 4F            [12] 9724 	jr	NZ, 00109$
                                   9725 ;E:\Dropbox\FAUSTO\SVILUPPI\MSX\CODE\C\MSXgl\projects\exsoccer/exsoccer_s1_b2.c:1885: if(g_Timer==1){
    00003A3C 3Ar00r00         [13] 9726 	ld	a, (_g_Timer+0)
    00003A3F 3D               [ 4] 9727 	dec	a
    00003A40 20 10            [12] 9728 	jr	NZ, 00102$
                                   9729 ;E:\Dropbox\FAUSTO\SVILUPPI\MSX\CODE\C\MSXgl\projects\exsoccer/exsoccer_s1_b2.c:1886: V9_PrintLayerAStringAtPos(12,18,"KICK OFF");
    00003A42 21rC2r3A         [10] 9730 	ld	hl, #___str_6
    00003A45 E5               [11] 9731 	push	hl
    00003A46 2E 12            [ 7] 9732 	ld	l, #0x12
                                   9733 ;	spillPairReg hl
                                   9734 ;	spillPairReg hl
    00003A48 3E 0C            [ 7] 9735 	ld	a, #0x0c
    00003A4A CDr00r00         [17] 9736 	call	_V9_PrintLayerAStringAtPos
                                   9737 ;E:\Dropbox\FAUSTO\SVILUPPI\MSX\CODE\C\MSXgl\projects\exsoccer/exsoccer_s1_b2.c:1887: g_Timer=2;
    00003A4D 21r00r00         [10] 9738 	ld	hl, #_g_Timer
    00003A50 36 02            [10] 9739 	ld	(hl), #0x02
    00003A52                       9740 00102$:
                                   9741 ;E:\Dropbox\FAUSTO\SVILUPPI\MSX\CODE\C\MSXgl\projects\exsoccer/exsoccer_s1_b2.c:1889: if(g_Timer==3){
    00003A52 3Ar00r00         [13] 9742 	ld	a, (_g_Timer+0)
    00003A55 D6 03            [ 7] 9743 	sub	a, #0x03
    00003A57 20 32            [12] 9744 	jr	NZ, 00109$
                                   9745 ;E:\Dropbox\FAUSTO\SVILUPPI\MSX\CODE\C\MSXgl\projects\exsoccer/exsoccer_s1_b2.c:1890: ClearTextFromLayerA(12,18,9);
    00003A59 3E 09            [ 7] 9746 	ld	a, #0x09
    00003A5B F5               [11] 9747 	push	af
    00003A5C 33               [ 6] 9748 	inc	sp
    00003A5D 2E 12            [ 7] 9749 	ld	l, #0x12
                                   9750 ;	spillPairReg hl
                                   9751 ;	spillPairReg hl
    00003A5F 3E 0C            [ 7] 9752 	ld	a, #0x0c
    00003A61 CDr00r00         [17] 9753 	call	_ClearTextFromLayerA
                                   9754 ;E:\Dropbox\FAUSTO\SVILUPPI\MSX\CODE\C\MSXgl\projects\exsoccer/exsoccer_s1_b2.c:1891: g_Timer=NO_VALUE;
    00003A64 21r00r00         [10] 9755 	ld	hl, #_g_Timer
    00003A67 36 FF            [10] 9756 	ld	(hl), #0xff
                                   9757 ;E:\Dropbox\FAUSTO\SVILUPPI\MSX\CODE\C\MSXgl\projects\exsoccer/exsoccer_s1_b2.c:1893: if(g_RestartKickTeamId==TEAM_1){
    00003A69 3Ar00r00         [13] 9758 	ld	a, (_g_RestartKickTeamId+0)
    00003A6C 3D               [ 4] 9759 	dec	a
    00003A6D 20 0B            [12] 9760 	jr	NZ, 00104$
                                   9761 ;E:\Dropbox\FAUSTO\SVILUPPI\MSX\CODE\C\MSXgl\projects\exsoccer/exsoccer_s1_b2.c:1894: playerId=GetPlayerIdByRole(TEAM_1,PLAYER_ROLE_RIGHT_HALFFIELDER);
    00003A6F 2E 04            [ 7] 9762 	ld	l, #0x04
                                   9763 ;	spillPairReg hl
                                   9764 ;	spillPairReg hl
    00003A71 3E 01            [ 7] 9765 	ld	a, #0x01
    00003A73 CDr00r00         [17] 9766 	call	_GetPlayerIdByRole
    00003A76 4F               [ 4] 9767 	ld	c, a
    00003A77 C3r82r3A         [10] 9768 	jp	00105$
    00003A7A                       9769 00104$:
                                   9770 ;E:\Dropbox\FAUSTO\SVILUPPI\MSX\CODE\C\MSXgl\projects\exsoccer/exsoccer_s1_b2.c:1897: playerId=GetPlayerIdByRole(TEAM_2,PLAYER_ROLE_LEFT_HALFFIELDER);
    00003A7A 2E 03            [ 7] 9771 	ld	l, #0x03
                                   9772 ;	spillPairReg hl
                                   9773 ;	spillPairReg hl
    00003A7C 3E 02            [ 7] 9774 	ld	a, #0x02
    00003A7E CDr00r00         [17] 9775 	call	_GetPlayerIdByRole
    00003A81 4F               [ 4] 9776 	ld	c, a
    00003A82                       9777 00105$:
                                   9778 ;E:\Dropbox\FAUSTO\SVILUPPI\MSX\CODE\C\MSXgl\projects\exsoccer/exsoccer_s1_b2.c:1899: PutBallOnPlayerFeet(playerId);
    00003A82 79               [ 4] 9779 	ld	a, c
    00003A83 CDrC5r27         [17] 9780 	call	_PutBallOnPlayerFeet
                                   9781 ;E:\Dropbox\FAUSTO\SVILUPPI\MSX\CODE\C\MSXgl\projects\exsoccer/exsoccer_s1_b2.c:1900: g_MatchStatus=MATCH_IN_ACTION;
    00003A86 21r00r00         [10] 9782 	ld	hl, #_g_MatchStatus
    00003A89 36 0C            [10] 9783 	ld	(hl), #0x0c
    00003A8B                       9784 00109$:
                                   9785 ;E:\Dropbox\FAUSTO\SVILUPPI\MSX\CODE\C\MSXgl\projects\exsoccer/exsoccer_s1_b2.c:1903: if(g_MatchStatus==MATCH_BEFORE_OFFSIDE){
    00003A8B 3Ar00r00         [13] 9786 	ld	a, (_g_MatchStatus+0)
    00003A8E D6 0E            [ 7] 9787 	sub	a, #0x0e
    00003A90 C0               [11] 9788 	ret	NZ
                                   9789 ;E:\Dropbox\FAUSTO\SVILUPPI\MSX\CODE\C\MSXgl\projects\exsoccer/exsoccer_s1_b2.c:1904: if(g_Timer >= 2) { 
    00003A91 3Ar00r00         [13] 9790 	ld	a, (_g_Timer+0)
    00003A94 D6 02            [ 7] 9791 	sub	a, #0x02
    00003A96 D8               [11] 9792 	ret	C
                                   9793 ;E:\Dropbox\FAUSTO\SVILUPPI\MSX\CODE\C\MSXgl\projects\exsoccer/exsoccer_s1_b2.c:1905: ClearTextFromLayerA(10,18,7);
    00003A97 3E 07            [ 7] 9794 	ld	a, #0x07
    00003A99 F5               [11] 9795 	push	af
    00003A9A 33               [ 6] 9796 	inc	sp
    00003A9B 2E 12            [ 7] 9797 	ld	l, #0x12
                                   9798 ;	spillPairReg hl
                                   9799 ;	spillPairReg hl
    00003A9D 3E 0A            [ 7] 9800 	ld	a, #0x0a
    00003A9F CDr00r00         [17] 9801 	call	_ClearTextFromLayerA
                                   9802 ;E:\Dropbox\FAUSTO\SVILUPPI\MSX\CODE\C\MSXgl\projects\exsoccer/exsoccer_s1_b2.c:1906: g_Timer = NO_VALUE;
    00003AA2 21r00r00         [10] 9803 	ld	hl, #_g_Timer
    00003AA5 36 FF            [10] 9804 	ld	(hl), #0xff
                                   9805 ;E:\Dropbox\FAUSTO\SVILUPPI\MSX\CODE\C\MSXgl\projects\exsoccer/exsoccer_s1_b2.c:1908: u8 team = g_RestartKickTeamId; 
    00003AA7 3Ar00r00         [13] 9806 	ld	a, (_g_RestartKickTeamId+0)
                                   9807 ;E:\Dropbox\FAUSTO\SVILUPPI\MSX\CODE\C\MSXgl\projects\exsoccer/exsoccer_s1_b2.c:1909: u8 newOwner = GetClosestPlayerToBall(team, NO_VALUE);
                                   9808 ;	spillPairReg hl
                                   9809 ;	spillPairReg hl
    00003AAA 2E FF            [ 7] 9810 	ld	l, #0xff
    00003AAC CDr00r00         [17] 9811 	call	_GetClosestPlayerToBall
                                   9812 ;E:\Dropbox\FAUSTO\SVILUPPI\MSX\CODE\C\MSXgl\projects\exsoccer/exsoccer_s1_b2.c:1910: if (newOwner != NO_VALUE) {
    00003AAF 4F               [ 4] 9813 	ld	c, a
    00003AB0 3C               [ 4] 9814 	inc	a
    00003AB1 28 09            [12] 9815 	jr	Z, 00111$
                                   9816 ;E:\Dropbox\FAUSTO\SVILUPPI\MSX\CODE\C\MSXgl\projects\exsoccer/exsoccer_s1_b2.c:1911: PutBallOnPlayerFeet(newOwner);
    00003AB3 79               [ 4] 9817 	ld	a, c
    00003AB4 CDrC5r27         [17] 9818 	call	_PutBallOnPlayerFeet
                                   9819 ;E:\Dropbox\FAUSTO\SVILUPPI\MSX\CODE\C\MSXgl\projects\exsoccer/exsoccer_s1_b2.c:1912: g_Ball.KickMoveState = NO_VALUE;
    00003AB7 21r0Dr00         [10] 9820 	ld	hl, #(_g_Ball + 13)
    00003ABA 36 FF            [10] 9821 	ld	(hl), #0xff
    00003ABC                       9822 00111$:
                                   9823 ;E:\Dropbox\FAUSTO\SVILUPPI\MSX\CODE\C\MSXgl\projects\exsoccer/exsoccer_s1_b2.c:1915: g_MatchStatus = MATCH_IN_ACTION;
    00003ABC 21r00r00         [10] 9824 	ld	hl, #_g_MatchStatus
    00003ABF 36 0C            [10] 9825 	ld	(hl), #0x0c
                                   9826 ;E:\Dropbox\FAUSTO\SVILUPPI\MSX\CODE\C\MSXgl\projects\exsoccer/exsoccer_s1_b2.c:1918: }
    00003AC1 C9               [10] 9827 	ret
    00003AC2                       9828 ___str_6:
    00003AC2 4B 49 43 4B 20 4F 46  9829 	.ascii "KICK OFF"
             46
    00003ACA 00                    9830 	.db 0x00
                                   9831 ;E:\Dropbox\FAUSTO\SVILUPPI\MSX\CODE\C\MSXgl\projects\exsoccer/exsoccer_s1_b2.c:1920: void ResetBallInfo(bool resetPossessionPlayer){
                                   9832 ;	---------------------------------
                                   9833 ; Function ResetBallInfo
                                   9834 ; ---------------------------------
    00003ACB                       9835 _ResetBallInfo::
    00003ACB 4F               [ 4] 9836 	ld	c, a
                                   9837 ;E:\Dropbox\FAUSTO\SVILUPPI\MSX\CODE\C\MSXgl\projects\exsoccer/exsoccer_s1_b2.c:1921: g_Ball.PreviousY=g_Ball.Y;
    00003ACC ED 5Br00r00      [20] 9838 	ld	de, (#_g_Ball + 0)
    00003AD0 ED 53r07r00      [20] 9839 	ld	((_g_Ball + 7)), de
                                   9840 ;E:\Dropbox\FAUSTO\SVILUPPI\MSX\CODE\C\MSXgl\projects\exsoccer/exsoccer_s1_b2.c:1922: g_Ball.KickMoveState=NO_VALUE;
    00003AD4 21r0Dr00         [10] 9841 	ld	hl, #(_g_Ball + 13)
    00003AD7 36 FF            [10] 9842 	ld	(hl), #0xff
                                   9843 ;E:\Dropbox\FAUSTO\SVILUPPI\MSX\CODE\C\MSXgl\projects\exsoccer/exsoccer_s1_b2.c:1923: g_Ball.Size=1;
    00003AD9 21r04r00         [10] 9844 	ld	hl, #(_g_Ball + 4)
    00003ADC 36 01            [10] 9845 	ld	(hl), #0x01
                                   9846 ;E:\Dropbox\FAUSTO\SVILUPPI\MSX\CODE\C\MSXgl\projects\exsoccer/exsoccer_s1_b2.c:1924: g_Ball.Direction=DIRECTION_NONE;
    00003ADE 21r05r00         [10] 9847 	ld	hl, #(_g_Ball + 5)
    00003AE1 36 00            [10] 9848 	ld	(hl), #0x00
                                   9849 ;E:\Dropbox\FAUSTO\SVILUPPI\MSX\CODE\C\MSXgl\projects\exsoccer/exsoccer_s1_b2.c:1925: if(resetPossessionPlayer){
    00003AE3 79               [ 4] 9850 	ld	a, c
    00003AE4 B7               [ 4] 9851 	or	a, a
    00003AE5 C8               [11] 9852 	ret	Z
                                   9853 ;E:\Dropbox\FAUSTO\SVILUPPI\MSX\CODE\C\MSXgl\projects\exsoccer/exsoccer_s1_b2.c:1926: g_Ball.PossessionPlayerId=NO_VALUE;
    00003AE6 21r06r00         [10] 9854 	ld	hl, #(_g_Ball + 6)
    00003AE9 36 FF            [10] 9855 	ld	(hl), #0xff
                                   9856 ;E:\Dropbox\FAUSTO\SVILUPPI\MSX\CODE\C\MSXgl\projects\exsoccer/exsoccer_s1_b2.c:1928: }
    00003AEB C9               [10] 9857 	ret
                                   9858 	.area _SEG1
                                   9859 	.area _INITIALIZER
                                   9860 	.area _CABS (ABS)
