                                      1 ;--------------------------------------------------------
                                      2 ; File Created by SDCC : free open source ANSI-C Compiler
                                      3 ; Version 4.2.0 #13081 (MINGW64)
                                      4 ;--------------------------------------------------------
                                      5 	.module exsoccer_s2_b0
                                      6 	.optsdcc -mz80
                                      7 	
                                      8 ;--------------------------------------------------------
                                      9 ; Public variables in this module
                                     10 ;--------------------------------------------------------
                                     11 	.globl _Math_Abs32
                                     12 	.globl _PerformPass
                                     13 	.globl _GetOffsideLineY
                                     14 	.globl _CornerKick
                                     15 	.globl _GoalKick
                                     16 	.globl _BallThrowIn
                                     17 	.globl _BallInGoal
                                     18 	.globl _SetPlayerBallPossession
                                     19 	.globl _SetPlayerTarget
                                     20 	.globl _UpdatePlayerPatternByDirection
                                     21 	.globl _V9_SetScrollingBY
                                     22 	.globl _V9_Poke16_CurrentAddr
                                     23 	.globl _V9_WriteVRAM_CurrentAddr
                                     24 	.globl _V9_SetWriteAddress
                                     25 	.globl _Keyboard_IsKeyPressed
                                     26 	.globl _Joystick_Read
                                     27 	.globl _g_SLTSL
                                     28 	.globl _g_GRPACY
                                     29 	.globl _g_GRPACX
                                     30 	.globl _g_LOGOPR
                                     31 	.globl _g_CMASK
                                     32 	.globl _g_CLOC
                                     33 	.globl _g_FNKSTR
                                     34 	.globl _g_ATRBYT
                                     35 	.globl _g_BDRCLR
                                     36 	.globl _g_BAKCLR
                                     37 	.globl _g_FORCLR
                                     38 	.globl _g_CSRX
                                     39 	.globl _g_CSRY
                                     40 	.globl _g_CLIKSW
                                     41 	.globl _g_MLTPAT
                                     42 	.globl _g_MLTATR
                                     43 	.globl _g_MLTCGP
                                     44 	.globl _g_MLTCOL
                                     45 	.globl _g_MLTNAM
                                     46 	.globl _g_GRPPAT
                                     47 	.globl _g_GRPATR
                                     48 	.globl _g_GRPCGP
                                     49 	.globl _g_GRPCOL
                                     50 	.globl _g_GRPNAM
                                     51 	.globl _g_T32PAT
                                     52 	.globl _g_T32ATR
                                     53 	.globl _g_T32CGP
                                     54 	.globl _g_T32COL
                                     55 	.globl _g_T32NAM
                                     56 	.globl _g_TXTPAT
                                     57 	.globl _g_TXTATR
                                     58 	.globl _g_TXTCGP
                                     59 	.globl _g_TXTCOL
                                     60 	.globl _g_TXTNAM
                                     61 	.globl _g_CLMLST
                                     62 	.globl _g_CRTCNT
                                     63 	.globl _g_LINLEN
                                     64 	.globl _g_LINL32
                                     65 	.globl _g_LINL40
                                     66 	.globl _g_BDOS
                                     67 	.globl _g_MASTER
                                     68 	.globl _g_RAMAD3
                                     69 	.globl _g_RAMAD2
                                     70 	.globl _g_RAMAD1
                                     71 	.globl _g_RAMAD0
                                     72 	.globl _g_BREAKV
                                     73 	.globl _g_DISKVE
                                     74 	.globl _g_KANJTABLE
                                     75 	.globl _g_STRSRC
                                     76 	.globl _g_SUBRID
                                     77 	.globl _g_CHAR_16
                                     78 	.globl _g_MSXMID
                                     79 	.globl _g_MSXVER
                                     80 	.globl _g_ROMVersion
                                     81 	.globl _g_BASRVN
                                     82 	.globl _g_VDP_DW
                                     83 	.globl _g_VDP_DR
                                     84 	.globl _g_CGTABL
                                     85 	.globl _g_SVFFFD
                                     86 	.globl _g_RG27SAV
                                     87 	.globl _g_RG26SAV
                                     88 	.globl _g_RG25SAV
                                     89 	.globl _g_SVFFF8
                                     90 	.globl _g_MINROM
                                     91 	.globl _g_RG23SAV
                                     92 	.globl _g_RG22SAV
                                     93 	.globl _g_RG21SAV
                                     94 	.globl _g_RG20SAV
                                     95 	.globl _g_RG19SAV
                                     96 	.globl _g_RG18SAV
                                     97 	.globl _g_RG17SAV
                                     98 	.globl _g_RG16SAV
                                     99 	.globl _g_RG15SAV
                                    100 	.globl _g_RG14SAV
                                    101 	.globl _g_RG13SAV
                                    102 	.globl _g_RG12SAV
                                    103 	.globl _g_RG11SAV
                                    104 	.globl _g_RG10SAV
                                    105 	.globl _g_RG09SAV
                                    106 	.globl _g_RG08SAV
                                    107 	.globl _g_PROCNM
                                    108 	.globl _g_SLTWRK
                                    109 	.globl _g_SLTATR
                                    110 	.globl _g_SLTTBL
                                    111 	.globl _g_EXPTBL
                                    112 	.globl _g_MNROM
                                    113 	.globl _g_DRWANG
                                    114 	.globl _g_DRWSCL
                                    115 	.globl _g_DRWFLG
                                    116 	.globl _g_GYPOS
                                    117 	.globl _g_GXPOS
                                    118 	.globl _g_BRDATR
                                    119 	.globl _g_CASPRV
                                    120 	.globl _g_OLDSCR
                                    121 	.globl _g_SCRMOD
                                    122 	.globl _g_FLBMEM
                                    123 	.globl _g_KANAMD
                                    124 	.globl _g_KANAST
                                    125 	.globl _g_CAPST
                                    126 	.globl _g_CSTYLE
                                    127 	.globl _g_CSRSW
                                    128 	.globl _g_INSFLG
                                    129 	.globl _g_ESCCNT
                                    130 	.globl _g_GRPHED
                                    131 	.globl _g_WINWID
                                    132 	.globl _g_LOWLIM
                                    133 	.globl _g_INTCNT
                                    134 	.globl _g_INTVAL
                                    135 	.globl _g_JIFFY
                                    136 	.globl _g_PADX
                                    137 	.globl _g_PADY
                                    138 	.globl _g_INTFLG
                                    139 	.globl _g_RTYCNT
                                    140 	.globl _g_TRPTBL
                                    141 	.globl _g_HIMEM
                                    142 	.globl _g_BOTTOM
                                    143 	.globl _g_PATWRK
                                    144 	.globl _g_LINWRK
                                    145 	.globl _g_KEYBUF
                                    146 	.globl _g_NEWKEY
                                    147 	.globl _g_OLDKEY
                                    148 	.globl _g_CLIKFL
                                    149 	.globl _g_ONGSBF
                                    150 	.globl _g_FNKFLG
                                    151 	.globl _g_FNKSWI
                                    152 	.globl _g_CODSAV
                                    153 	.globl _g_FSTPOS
                                    154 	.globl _g_LINTTB
                                    155 	.globl _g_BASROM
                                    156 	.globl _g_ENSTOP
                                    157 	.globl _g_VCBC
                                    158 	.globl _g_VCBB
                                    159 	.globl _g_VCBA
                                    160 	.globl _g_PLYCNT
                                    161 	.globl _g_MUSICF
                                    162 	.globl _g_QUEUEN
                                    163 	.globl _g_MCLPTR
                                    164 	.globl _g_MCLLEN
                                    165 	.globl _g_SAVVOL
                                    166 	.globl _g_VOICEN
                                    167 	.globl _g_SAVSP
                                    168 	.globl _g_PRSCNT
                                    169 	.globl _g_LSTMOD
                                    170 	.globl _g_LSTCOM
                                    171 	.globl _g_COMMSK
                                    172 	.globl _g_ESTBLS
                                    173 	.globl _g_FLAGS
                                    174 	.globl _g_ERRORS
                                    175 	.globl _g_DATCNT
                                    176 	.globl _g_DEVNUM
                                    177 	.globl _g_OLDINT
                                    178 	.globl _g_OLDSTT
                                    179 	.globl _g_MEXBIh
                                    180 	.globl _g_RSIQLN
                                    181 	.globl _g_RSFCB
                                    182 	.globl _g_TOCNT
                                    183 	.globl _g_RSTMP
                                    184 	.globl _g_YSAVE
                                    185 	.globl _g_XSAVE
                                    186 	.globl _g_NORUSE
                                    187 	.globl _g_MODE
                                    188 	.globl _g_ROMA
                                    189 	.globl _g_CHRCNT
                                    190 	.globl _g_EXBRSA
                                    191 	.globl _g_AVCSAV
                                    192 	.globl _g_ACPAGE
                                    193 	.globl _g_DPPAGE
                                    194 	.globl _g_RS2IQ
                                    195 	.globl _g_VOICCQ
                                    196 	.globl _g_VOICBQ
                                    197 	.globl _g_VOICAQ
                                    198 	.globl _g_QUEBAK
                                    199 	.globl _g_QUETAB
                                    200 	.globl _g_ASPCT2
                                    201 	.globl _g_ASPCT1
                                    202 	.globl _g_HEADER
                                    203 	.globl _g_HIGH
                                    204 	.globl _g_LOW
                                    205 	.globl _g_CS240
                                    206 	.globl _g_CS120
                                    207 	.globl _g_GETPNT
                                    208 	.globl _g_PUTPNT
                                    209 	.globl _g_REPCNT
                                    210 	.globl _g_SCNCNT
                                    211 	.globl _g_FRCNEW
                                    212 	.globl _g_QUEUES
                                    213 	.globl _g_MINUPD
                                    214 	.globl _g_MAXUPD
                                    215 	.globl _g_TRGFLG
                                    216 	.globl _g_STATFL
                                    217 	.globl _g_RG7SAV
                                    218 	.globl _g_RG6SAV
                                    219 	.globl _g_RG5SAV
                                    220 	.globl _g_RG4SAV
                                    221 	.globl _g_RG3SAV
                                    222 	.globl _g_RG2SAV
                                    223 	.globl _g_RG1SAV
                                    224 	.globl _g_RG0SAV
                                    225 	.globl _g_CNSDFG
                                    226 	.globl _g_USRTAB
                                    227 	.globl _g_CLPRIM
                                    228 	.globl _g_WRPRIM
                                    229 	.globl _g_RDPRIM
                                    230 	.globl _V9_PrintLayerAStringAtPos
                                    231 	.globl _TickAI
                                    232 	.globl _TickP1
                                    233 	.globl _TickFieldScrollingAction
                                    234 	.globl _TickShowKickOff
                                    235 	.globl _GetPlayerIdByRole
                                    236 	.globl _PutBallOnPlayerFeet
                                    237 	.globl _UpdateSpritesPositions
                                    238 	.globl _PutBallSprite
                                    239 	.globl _ShowHeaderInfo
                                    240 	.globl _V9_PutLayerATileAtPos
                                    241 	.globl _V9_PutLayerBTileAtPos
                                    242 	.globl _PutPlayerSprite
                                    243 	.globl _ResetPlayersInfo
                                    244 	.globl _ClearTextFromLayerA
                                    245 	.globl _TickPlayerToOwnTarget
                                    246 	.globl _GetNumberString
                                    247 	.globl _IsTeamJoystickTriggerPressed
                                    248 	.globl _GetJoystick1Direction
                                    249 	.globl _GetJoystick2Direction
                                    250 	.globl _ShowFieldZone
                                    251 	.globl _TickCheckBallBoundaries
                                    252 	.globl _TimeUp
                                    253 	.globl _GetClosestPlayerToBall
                                    254 	.globl _GetBestPassTarget
                                    255 	.globl _UpdatePassTarget
                                    256 	.globl _GoalkeeperWithBall
                                    257 	.globl _TickGoalkeeperAnimation
                                    258 	.globl _PerformShot
                                    259 	.globl _TickBallFlying
                                    260 ;--------------------------------------------------------
                                    261 ; special function registers
                                    262 ;--------------------------------------------------------
                         000000A8   263 _g_PortPrimarySlot	=	0x00a8
                         000000A9   264 _g_PortReadKeyboard	=	0x00a9
                         000000AA   265 _g_PortAccessKeyboard	=	0x00aa
                         000000AB   266 _g_PortControl	=	0x00ab
                         00000098   267 _g_VDP_DataPort	=	0x0098
                         00000099   268 _g_VDP_RegPort	=	0x0099
                         00000099   269 _g_VDP_AddrPort	=	0x0099
                         00000099   270 _g_VDP_StatPort	=	0x0099
                         000000A0   271 _g_PSG_RegPort	=	0x00a0
                         000000A1   272 _g_PSG_DataPort	=	0x00a1
                         000000A2   273 _g_PSG_StatPort	=	0x00a2
                         00000010   274 _g_PSG_Ext_RegPort	=	0x0010
                         00000011   275 _g_PSG_Ext_DataPort	=	0x0011
                         00000012   276 _g_PSG_Ext_StatPort	=	0x0012
                         0000007C   277 _g_MSXMusic_IndexPort	=	0x007c
                         0000007D   278 _g_MSXMusic_DataPort	=	0x007d
                         000000C0   279 _g_MSXAudio_IndexPort	=	0x00c0
                         000000C1   280 _g_MSXAudio_DataPort	=	0x00c1
                         000000C2   281 _g_MSXAudio_IndexPort2	=	0x00c2
                         000000C3   282 _g_MSXAudio_DataPort2	=	0x00c3
                         000000B4   283 _g_RTC_AddrPort	=	0x00b4
                         000000B5   284 _g_RTC_DataPort	=	0x00b5
                         00000060   285 _g_V9_VRAMPort	=	0x0060
                         00000061   286 _g_V9_PalettePort	=	0x0061
                         00000062   287 _g_V9_CmdDataPort	=	0x0062
                         00000063   288 _g_V9_RegDataPort	=	0x0063
                         00000064   289 _g_V9_RegSelectPort	=	0x0064
                         00000065   290 _g_V9_SatusPort	=	0x0065
                         00000066   291 _g_V9_IntFlagPort	=	0x0066
                         00000067   292 _g_V9_SysCtrlPort	=	0x0067
                         00000068   293 _g_V9_KanjiAddrLPort	=	0x0068
                         00000069   294 _g_V9_KanjiAddrHPort	=	0x0069
                         00000069   295 _g_V9_KanjiDataPort	=	0x0069
                         0000006A   296 _g_V9_Kanji2AddrLPort	=	0x006a
                         0000006B   297 _g_V9_Kanji2AddrHPort	=	0x006b
                         0000006B   298 _g_V9_Kanji2DataPort	=	0x006b
                         0000006F   299 _g_V9_OutputCtrPort	=	0x006f
                                    300 ;--------------------------------------------------------
                                    301 ; ram data
                                    302 ;--------------------------------------------------------
                                    303 	.area _DATA
                         0000F3AE   304 _g_LINL40	=	0xf3ae
                         0000F3AF   305 _g_LINL32	=	0xf3af
                         0000F3B0   306 _g_LINLEN	=	0xf3b0
                         0000F3B1   307 _g_CRTCNT	=	0xf3b1
                         0000F3B2   308 _g_CLMLST	=	0xf3b2
                         0000F3B3   309 _g_TXTNAM	=	0xf3b3
                         0000F3B5   310 _g_TXTCOL	=	0xf3b5
                         0000F3B7   311 _g_TXTCGP	=	0xf3b7
                         0000F3B9   312 _g_TXTATR	=	0xf3b9
                         0000F3BB   313 _g_TXTPAT	=	0xf3bb
                         0000F3BD   314 _g_T32NAM	=	0xf3bd
                         0000F3BF   315 _g_T32COL	=	0xf3bf
                         0000F3C1   316 _g_T32CGP	=	0xf3c1
                         0000F3C3   317 _g_T32ATR	=	0xf3c3
                         0000F3C5   318 _g_T32PAT	=	0xf3c5
                         0000F3C7   319 _g_GRPNAM	=	0xf3c7
                         0000F3C9   320 _g_GRPCOL	=	0xf3c9
                         0000F3CB   321 _g_GRPCGP	=	0xf3cb
                         0000F3CD   322 _g_GRPATR	=	0xf3cd
                         0000F3CF   323 _g_GRPPAT	=	0xf3cf
                         0000F3D1   324 _g_MLTNAM	=	0xf3d1
                         0000F3D3   325 _g_MLTCOL	=	0xf3d3
                         0000F3D5   326 _g_MLTCGP	=	0xf3d5
                         0000F3D7   327 _g_MLTATR	=	0xf3d7
                         0000F3D9   328 _g_MLTPAT	=	0xf3d9
                         0000F3DB   329 _g_CLIKSW	=	0xf3db
                         0000F3DC   330 _g_CSRY	=	0xf3dc
                         0000F3DD   331 _g_CSRX	=	0xf3dd
                         0000F3E9   332 _g_FORCLR	=	0xf3e9
                         0000F3EA   333 _g_BAKCLR	=	0xf3ea
                         0000F3EB   334 _g_BDRCLR	=	0xf3eb
                         0000F3F2   335 _g_ATRBYT	=	0xf3f2
                         0000F87F   336 _g_FNKSTR	=	0xf87f
                         0000F92A   337 _g_CLOC	=	0xf92a
                         0000F92C   338 _g_CMASK	=	0xf92c
                         0000FB02   339 _g_LOGOPR	=	0xfb02
                         0000FCB7   340 _g_GRPACX	=	0xfcb7
                         0000FCB9   341 _g_GRPACY	=	0xfcb9
                         0000FFFF   342 _g_SLTSL	=	0xffff
    00000000                        343 _PutBallSprite_s_StopCooldown_65538_1287:
    00000000                        344 	.ds 1
    00000001                        345 _GetNumberString_str_65536_1386:
    00000001                        346 	.ds 5
    00000006                        347 _UpdatePassTarget_passUpdateTimer_65536_1454:
    00000006                        348 	.ds 1
                                    349 ;--------------------------------------------------------
                                    350 ; ram data
                                    351 ;--------------------------------------------------------
                                    352 	.area _INITIALIZED
    00000000                        353 _s_GkAnimTimer:
    00000000                        354 	.ds 1
    00000001                        355 _s_GkAnimPlayerId:
    00000001                        356 	.ds 1
    00000002                        357 _s_GkRecoilY:
    00000002                        358 	.ds 1
                                    359 ;--------------------------------------------------------
                                    360 ; absolute external ram data
                                    361 ;--------------------------------------------------------
                                    362 	.area _DABS (ABS)
                                    363 ;--------------------------------------------------------
                                    364 ; global & static initialisations
                                    365 ;--------------------------------------------------------
                                    366 	.area _HOME
                                    367 	.area _GSINIT
                                    368 	.area _GSFINAL
                                    369 	.area _GSINIT
                                    370 ;E:\Dropbox\FAUSTO\SVILUPPI\MSX\CODE\C\MSXgl\projects\exsoccer/exsoccer_s2_b0.c:894: static u8 s_StopCooldown = 0;
    00000000 FD 21r00r00      [14]  371 	ld	iy, #_PutBallSprite_s_StopCooldown_65538_1287
    00000004 FD 36 00 00      [19]  372 	ld	0 (iy), #0x00
                                    373 ;E:\Dropbox\FAUSTO\SVILUPPI\MSX\CODE\C\MSXgl\projects\exsoccer/exsoccer_s2_b0.c:1503: static u8 passUpdateTimer = 0;
    00000008 FD 21r06r00      [14]  374 	ld	iy, #_UpdatePassTarget_passUpdateTimer_65536_1454
    0000000C FD 36 00 00      [19]  375 	ld	0 (iy), #0x00
                                    376 ;--------------------------------------------------------
                                    377 ; Home
                                    378 ;--------------------------------------------------------
                                    379 	.area _HOME
                                    380 	.area _HOME
                                    381 ;--------------------------------------------------------
                                    382 ; code
                                    383 ;--------------------------------------------------------
                                    384 	.area _SEG2
                                    385 ;E:\Dropbox\FAUSTO\SVILUPPI\MSX\CODE\C\MSXgl\projects\exsoccer/exsoccer_s2_b0.c:41: void V9_PrintLayerAStringAtPos(u8 x, u8 y, const c8* str)
                                    386 ;	---------------------------------
                                    387 ; Function V9_PrintLayerAStringAtPos
                                    388 ; ---------------------------------
    00000000                        389 _V9_PrintLayerAStringAtPos::
    00000000 DD E5            [15]  390 	push	ix
    00000002 DD 21 00 00      [14]  391 	ld	ix,#0
    00000006 DD 39            [15]  392 	add	ix,sp
    00000008 4F               [ 4]  393 	ld	c, a
    00000009 45               [ 4]  394 	ld	b, l
                                    395 ;E:\Dropbox\FAUSTO\SVILUPPI\MSX\CODE\C\MSXgl\projects\exsoccer/exsoccer_s2_b0.c:44: while (*str != 0){
    0000000A DD 5E 04         [19]  396 	ld	e, 4 (ix)
    0000000D DD 56 05         [19]  397 	ld	d, 5 (ix)
    00000010                        398 00101$:
    00000010 1A               [ 7]  399 	ld	a, (de)
    00000011 B7               [ 4]  400 	or	a, a
    00000012 28 12            [12]  401 	jr	Z, 00104$
                                    402 ;E:\Dropbox\FAUSTO\SVILUPPI\MSX\CODE\C\MSXgl\projects\exsoccer/exsoccer_s2_b0.c:45: V9_PutLayerATileAtPos(x,y,*(str++));
    00000014 13               [ 6]  403 	inc	de
    00000015 26 00            [ 7]  404 	ld	h, #0x00
                                    405 ;	spillPairReg hl
                                    406 ;	spillPairReg hl
    00000017 C5               [11]  407 	push	bc
    00000018 D5               [11]  408 	push	de
    00000019 6F               [ 4]  409 	ld	l, a
                                    410 ;	spillPairReg hl
                                    411 ;	spillPairReg hl
    0000001A E5               [11]  412 	push	hl
    0000001B 68               [ 4]  413 	ld	l, b
                                    414 ;	spillPairReg hl
                                    415 ;	spillPairReg hl
    0000001C 79               [ 4]  416 	ld	a, c
    0000001D CDr85r21         [17]  417 	call	_V9_PutLayerATileAtPos
    00000020 D1               [10]  418 	pop	de
    00000021 C1               [10]  419 	pop	bc
                                    420 ;E:\Dropbox\FAUSTO\SVILUPPI\MSX\CODE\C\MSXgl\projects\exsoccer/exsoccer_s2_b0.c:46: x++;
    00000022 0C               [ 4]  421 	inc	c
                                    422 ;E:\Dropbox\FAUSTO\SVILUPPI\MSX\CODE\C\MSXgl\projects\exsoccer/exsoccer_s2_b0.c:47: pos++;
    00000023 C3r10r00         [10]  423 	jp	00101$
    00000026                        424 00104$:
                                    425 ;E:\Dropbox\FAUSTO\SVILUPPI\MSX\CODE\C\MSXgl\projects\exsoccer/exsoccer_s2_b0.c:50: }
    00000026 DD E1            [14]  426 	pop	ix
    00000028 E1               [10]  427 	pop	hl
    00000029 F1               [10]  428 	pop	af
    0000002A E9               [ 4]  429 	jp	(hl)
                         0000F380   430 _g_RDPRIM	=	0xf380
                         0000F385   431 _g_WRPRIM	=	0xf385
                         0000F38C   432 _g_CLPRIM	=	0xf38c
                         0000F39A   433 _g_USRTAB	=	0xf39a
                         0000F3DE   434 _g_CNSDFG	=	0xf3de
                         0000F3DF   435 _g_RG0SAV	=	0xf3df
                         0000F3E0   436 _g_RG1SAV	=	0xf3e0
                         0000F3E1   437 _g_RG2SAV	=	0xf3e1
                         0000F3E2   438 _g_RG3SAV	=	0xf3e2
                         0000F3E3   439 _g_RG4SAV	=	0xf3e3
                         0000F3E4   440 _g_RG5SAV	=	0xf3e4
                         0000F3E5   441 _g_RG6SAV	=	0xf3e5
                         0000F3E6   442 _g_RG7SAV	=	0xf3e6
                         0000F3E7   443 _g_STATFL	=	0xf3e7
                         0000F3E8   444 _g_TRGFLG	=	0xf3e8
                         0000F3EC   445 _g_MAXUPD	=	0xf3ec
                         0000F3EF   446 _g_MINUPD	=	0xf3ef
                         0000F3F3   447 _g_QUEUES	=	0xf3f3
                         0000F3F5   448 _g_FRCNEW	=	0xf3f5
                         0000F3F6   449 _g_SCNCNT	=	0xf3f6
                         0000F3F7   450 _g_REPCNT	=	0xf3f7
                         0000F3F8   451 _g_PUTPNT	=	0xf3f8
                         0000F3FA   452 _g_GETPNT	=	0xf3fa
                         0000F3FC   453 _g_CS120	=	0xf3fc
                         0000F401   454 _g_CS240	=	0xf401
                         0000F406   455 _g_LOW	=	0xf406
                         0000F408   456 _g_HIGH	=	0xf408
                         0000F40A   457 _g_HEADER	=	0xf40a
                         0000F40B   458 _g_ASPCT1	=	0xf40b
                         0000F40D   459 _g_ASPCT2	=	0xf40d
                         0000F959   460 _g_QUETAB	=	0xf959
                         0000F971   461 _g_QUEBAK	=	0xf971
                         0000F975   462 _g_VOICAQ	=	0xf975
                         0000F9F5   463 _g_VOICBQ	=	0xf9f5
                         0000FA75   464 _g_VOICCQ	=	0xfa75
                         0000FAF5   465 _g_RS2IQ	=	0xfaf5
                         0000FAF5   466 _g_DPPAGE	=	0xfaf5
                         0000FAF6   467 _g_ACPAGE	=	0xfaf6
                         0000FAF7   468 _g_AVCSAV	=	0xfaf7
                         0000FAF8   469 _g_EXBRSA	=	0xfaf8
                         0000FAF9   470 _g_CHRCNT	=	0xfaf9
                         0000FAFA   471 _g_ROMA	=	0xfafa
                         0000FAFC   472 _g_MODE	=	0xfafc
                         0000FAFD   473 _g_NORUSE	=	0xfafd
                         0000FAFE   474 _g_XSAVE	=	0xfafe
                         0000FB00   475 _g_YSAVE	=	0xfb00
                         0000FB03   476 _g_RSTMP	=	0xfb03
                         0000FB03   477 _g_TOCNT	=	0xfb03
                         0000FB04   478 _g_RSFCB	=	0xfb04
                         0000FB06   479 _g_RSIQLN	=	0xfb06
                         0000FB07   480 _g_MEXBIh	=	0xfb07
                         0000FB0C   481 _g_OLDSTT	=	0xfb0c
                         0000FB0C   482 _g_OLDINT	=	0xfb0c
                         0000FB16   483 _g_DEVNUM	=	0xfb16
                         0000FB17   484 _g_DATCNT	=	0xfb17
                         0000FB1A   485 _g_ERRORS	=	0xfb1a
                         0000FB1B   486 _g_FLAGS	=	0xfb1b
                         0000FB1C   487 _g_ESTBLS	=	0xfb1c
                         0000FB1D   488 _g_COMMSK	=	0xfb1d
                         0000FB1E   489 _g_LSTCOM	=	0xfb1e
                         0000FB1F   490 _g_LSTMOD	=	0xfb1f
                         0000FB35   491 _g_PRSCNT	=	0xfb35
                         0000FB36   492 _g_SAVSP	=	0xfb36
                         0000FB38   493 _g_VOICEN	=	0xfb38
                         0000FB39   494 _g_SAVVOL	=	0xfb39
                         0000FB3B   495 _g_MCLLEN	=	0xfb3b
                         0000FB3C   496 _g_MCLPTR	=	0xfb3c
                         0000FB3E   497 _g_QUEUEN	=	0xfb3e
                         0000FB3F   498 _g_MUSICF	=	0xfb3f
                         0000FB40   499 _g_PLYCNT	=	0xfb40
                         0000FB41   500 _g_VCBA	=	0xfb41
                         0000FB66   501 _g_VCBB	=	0xfb66
                         0000FB8B   502 _g_VCBC	=	0xfb8b
                         0000FBB0   503 _g_ENSTOP	=	0xfbb0
                         0000FBB1   504 _g_BASROM	=	0xfbb1
                         0000FBB2   505 _g_LINTTB	=	0xfbb2
                         0000FBCA   506 _g_FSTPOS	=	0xfbca
                         0000FBCC   507 _g_CODSAV	=	0xfbcc
                         0000FBCD   508 _g_FNKSWI	=	0xfbcd
                         0000FBCE   509 _g_FNKFLG	=	0xfbce
                         0000FBD8   510 _g_ONGSBF	=	0xfbd8
                         0000FBD9   511 _g_CLIKFL	=	0xfbd9
                         0000FBDA   512 _g_OLDKEY	=	0xfbda
                         0000FBE5   513 _g_NEWKEY	=	0xfbe5
                         0000FBF0   514 _g_KEYBUF	=	0xfbf0
                         0000FC18   515 _g_LINWRK	=	0xfc18
                         0000FC40   516 _g_PATWRK	=	0xfc40
                         0000FC48   517 _g_BOTTOM	=	0xfc48
                         0000FC4A   518 _g_HIMEM	=	0xfc4a
                         0000FC4C   519 _g_TRPTBL	=	0xfc4c
                         0000FC9A   520 _g_RTYCNT	=	0xfc9a
                         0000FC9B   521 _g_INTFLG	=	0xfc9b
                         0000FC9C   522 _g_PADY	=	0xfc9c
                         0000FC9D   523 _g_PADX	=	0xfc9d
                         0000FC9E   524 _g_JIFFY	=	0xfc9e
                         0000FCA0   525 _g_INTVAL	=	0xfca0
                         0000FCA2   526 _g_INTCNT	=	0xfca2
                         0000FCA4   527 _g_LOWLIM	=	0xfca4
                         0000FCA5   528 _g_WINWID	=	0xfca5
                         0000FCA6   529 _g_GRPHED	=	0xfca6
                         0000FCA7   530 _g_ESCCNT	=	0xfca7
                         0000FCA8   531 _g_INSFLG	=	0xfca8
                         0000FCA9   532 _g_CSRSW	=	0xfca9
                         0000FCAA   533 _g_CSTYLE	=	0xfcaa
                         0000FCAB   534 _g_CAPST	=	0xfcab
                         0000FCAC   535 _g_KANAST	=	0xfcac
                         0000FCAD   536 _g_KANAMD	=	0xfcad
                         0000FCAE   537 _g_FLBMEM	=	0xfcae
                         0000FCAF   538 _g_SCRMOD	=	0xfcaf
                         0000FCB0   539 _g_OLDSCR	=	0xfcb0
                         0000FCB1   540 _g_CASPRV	=	0xfcb1
                         0000FCB2   541 _g_BRDATR	=	0xfcb2
                         0000FCB3   542 _g_GXPOS	=	0xfcb3
                         0000FCB5   543 _g_GYPOS	=	0xfcb5
                         0000FCBB   544 _g_DRWFLG	=	0xfcbb
                         0000FCBC   545 _g_DRWSCL	=	0xfcbc
                         0000FCBD   546 _g_DRWANG	=	0xfcbd
                         0000FCC1   547 _g_MNROM	=	0xfcc1
                         0000FCC1   548 _g_EXPTBL	=	0xfcc1
                         0000FCC5   549 _g_SLTTBL	=	0xfcc5
                         0000FCC9   550 _g_SLTATR	=	0xfcc9
                         0000FD09   551 _g_SLTWRK	=	0xfd09
                         0000FD89   552 _g_PROCNM	=	0xfd89
                         0000FFE7   553 _g_RG08SAV	=	0xffe7
                         0000FFE8   554 _g_RG09SAV	=	0xffe8
                         0000FFE9   555 _g_RG10SAV	=	0xffe9
                         0000FFEA   556 _g_RG11SAV	=	0xffea
                         0000FFEB   557 _g_RG12SAV	=	0xffeb
                         0000FFEC   558 _g_RG13SAV	=	0xffec
                         0000FFED   559 _g_RG14SAV	=	0xffed
                         0000FFEE   560 _g_RG15SAV	=	0xffee
                         0000FFEF   561 _g_RG16SAV	=	0xffef
                         0000FFF0   562 _g_RG17SAV	=	0xfff0
                         0000FFF1   563 _g_RG18SAV	=	0xfff1
                         0000FFF2   564 _g_RG19SAV	=	0xfff2
                         0000FFF3   565 _g_RG20SAV	=	0xfff3
                         0000FFF4   566 _g_RG21SAV	=	0xfff4
                         0000FFF5   567 _g_RG22SAV	=	0xfff5
                         0000FFF6   568 _g_RG23SAV	=	0xfff6
                         0000FFF7   569 _g_MINROM	=	0xfff7
                         0000FFF8   570 _g_SVFFF8	=	0xfff8
                         0000FFFA   571 _g_RG25SAV	=	0xfffa
                         0000FFFB   572 _g_RG26SAV	=	0xfffb
                         0000FFFC   573 _g_RG27SAV	=	0xfffc
                         0000FFFD   574 _g_SVFFFD	=	0xfffd
                         00000004   575 _g_CGTABL	=	0x0004
                         00000006   576 _g_VDP_DR	=	0x0006
                         00000007   577 _g_VDP_DW	=	0x0007
                         0000002B   578 _g_BASRVN	=	0x002b
                         0000002B   579 _g_ROMVersion	=	0x002b
                         0000002D   580 _g_MSXVER	=	0x002d
                         0000002E   581 _g_MSXMID	=	0x002e
                         00000034   582 _g_CHAR_16	=	0x0034
                         00000000   583 _g_SUBRID	=	0x0000
                         00000002   584 _g_STRSRC	=	0x0002
                         0000F30F   585 _g_KANJTABLE	=	0xf30f
                         0000F323   586 _g_DISKVE	=	0xf323
                         0000F325   587 _g_BREAKV	=	0xf325
                         0000F341   588 _g_RAMAD0	=	0xf341
                         0000F342   589 _g_RAMAD1	=	0xf342
                         0000F343   590 _g_RAMAD2	=	0xf343
                         0000F344   591 _g_RAMAD3	=	0xf344
                         0000F348   592 _g_MASTER	=	0xf348
                         0000F37D   593 _g_BDOS	=	0xf37d
                                    594 ;E:\Dropbox\FAUSTO\SVILUPPI\MSX\CODE\C\MSXgl\projects\exsoccer/exsoccer_s2_b0.c:61: void TickAI(u8 playerId){
                                    595 ;	---------------------------------
                                    596 ; Function TickAI
                                    597 ; ---------------------------------
    0000002B                        598 _TickAI::
    0000002B DD E5            [15]  599 	push	ix
    0000002D DD 21 00 00      [14]  600 	ld	ix,#0
    00000031 DD 39            [15]  601 	add	ix,sp
    00000033 21 DF FF         [10]  602 	ld	hl, #-33
    00000036 39               [11]  603 	add	hl, sp
    00000037 F9               [ 6]  604 	ld	sp, hl
    00000038 DD 77 FD         [19]  605 	ld	-3 (ix), a
                                    606 ;E:\Dropbox\FAUSTO\SVILUPPI\MSX\CODE\C\MSXgl\projects\exsoccer/exsoccer_s2_b0.c:62: if(g_MatchStatus==MATCH_IN_ACTION || g_MatchStatus == MATCH_BALL_ON_GOALKEEPER){
    0000003B 3Ar00r00         [13]  607 	ld	a,(_g_MatchStatus+0)
    0000003E FE 0C            [ 7]  608 	cp	a,#0x0c
    00000040 28 05            [12]  609 	jr	Z, 00536$
    00000042 D6 0D            [ 7]  610 	sub	a, #0x0d
    00000044 C2r89r17         [10]  611 	jp	NZ,00545$
    00000047                        612 00536$:
                                    613 ;E:\Dropbox\FAUSTO\SVILUPPI\MSX\CODE\C\MSXgl\projects\exsoccer/exsoccer_s2_b0.c:68: u16 refX = g_Players[playerId].X;
    00000047 DD 4E FD         [19]  614 	ld	c, -3 (ix)
    0000004A 06 00            [ 7]  615 	ld	b, #0x00
    0000004C 69               [ 4]  616 	ld	l, c
    0000004D 60               [ 4]  617 	ld	h, b
    0000004E 29               [11]  618 	add	hl, hl
    0000004F 29               [11]  619 	add	hl, hl
    00000050 29               [11]  620 	add	hl, hl
    00000051 29               [11]  621 	add	hl, hl
    00000052 09               [11]  622 	add	hl, bc
    00000053 DD 75 FE         [19]  623 	ld	-2 (ix), l
    00000056 DD 74 FF         [19]  624 	ld	-1 (ix), h
                                    625 ;E:\Dropbox\FAUSTO\SVILUPPI\MSX\CODE\C\MSXgl\projects\exsoccer/exsoccer_s2_b0.c:65: if (playerId == REFEREE) {
    00000059 DD 7E FD         [19]  626 	ld	a, -3 (ix)
    0000005C D6 0E            [ 7]  627 	sub	a, #0x0e
    0000005E C2r3Cr03         [10]  628 	jp	NZ,00160$
                                    629 ;E:\Dropbox\FAUSTO\SVILUPPI\MSX\CODE\C\MSXgl\projects\exsoccer/exsoccer_s2_b0.c:66: u16 ballX = g_Ball.X;
    00000061 11r00r00         [10]  630 	ld	de, #_g_Ball+0
    00000064 ED 4Br02r00      [20]  631 	ld	bc, (#_g_Ball + 2)
                                    632 ;E:\Dropbox\FAUSTO\SVILUPPI\MSX\CODE\C\MSXgl\projects\exsoccer/exsoccer_s2_b0.c:67: u16 ballY = g_Ball.Y;
    00000068 1A               [ 7]  633 	ld	a, (de)
    00000069 DD 77 FB         [19]  634 	ld	-5 (ix), a
    0000006C 13               [ 6]  635 	inc	de
    0000006D 1A               [ 7]  636 	ld	a, (de)
    0000006E DD 77 FC         [19]  637 	ld	-4 (ix), a
                                    638 ;E:\Dropbox\FAUSTO\SVILUPPI\MSX\CODE\C\MSXgl\projects\exsoccer/exsoccer_s2_b0.c:68: u16 refX = g_Players[playerId].X;
    00000071 3Er00            [ 7]  639 	ld	a, #<(_g_Players)
    00000073 DD 86 FE         [19]  640 	add	a, -2 (ix)
    00000076 DD 77 F0         [19]  641 	ld	-16 (ix), a
    00000079 3Es00            [ 7]  642 	ld	a, #>(_g_Players)
    0000007B DD 8E FF         [19]  643 	adc	a, -1 (ix)
    0000007E DD 77 F1         [19]  644 	ld	-15 (ix), a
    00000081 DD 7E F0         [19]  645 	ld	a, -16 (ix)
    00000084 C6 02            [ 7]  646 	add	a, #0x02
    00000086 DD 77 F2         [19]  647 	ld	-14 (ix), a
    00000089 DD 7E F1         [19]  648 	ld	a, -15 (ix)
    0000008C CE 00            [ 7]  649 	adc	a, #0x00
    0000008E DD 77 F3         [19]  650 	ld	-13 (ix), a
    00000091 DD 6E F2         [19]  651 	ld	l, -14 (ix)
    00000094 DD 66 F3         [19]  652 	ld	h, -13 (ix)
    00000097 7E               [ 7]  653 	ld	a, (hl)
    00000098 DD 77 F4         [19]  654 	ld	-12 (ix), a
    0000009B 23               [ 6]  655 	inc	hl
    0000009C 7E               [ 7]  656 	ld	a, (hl)
    0000009D DD 77 F5         [19]  657 	ld	-11 (ix), a
                                    658 ;E:\Dropbox\FAUSTO\SVILUPPI\MSX\CODE\C\MSXgl\projects\exsoccer/exsoccer_s2_b0.c:69: u16 refY = g_Players[playerId].Y;
    000000A0 DD 6E F0         [19]  659 	ld	l, -16 (ix)
    000000A3 DD 66 F1         [19]  660 	ld	h, -15 (ix)
    000000A6 7E               [ 7]  661 	ld	a, (hl)
    000000A7 DD 77 FE         [19]  662 	ld	-2 (ix), a
    000000AA 23               [ 6]  663 	inc	hl
    000000AB 7E               [ 7]  664 	ld	a, (hl)
    000000AC DD 77 FF         [19]  665 	ld	-1 (ix), a
                                    666 ;E:\Dropbox\FAUSTO\SVILUPPI\MSX\CODE\C\MSXgl\projects\exsoccer/exsoccer_s2_b0.c:81: if (ballX < 128) targetX = ballX + 60; // Ball Left -> Ref Right
    000000AF DD 71 F7         [19]  667 	ld	-9 (ix), c
    000000B2 DD 70 F8         [19]  668 	ld	-8 (ix), b
    000000B5 DD 7E F7         [19]  669 	ld	a, -9 (ix)
    000000B8 D6 80            [ 7]  670 	sub	a, #0x80
    000000BA DD 7E F8         [19]  671 	ld	a, -8 (ix)
    000000BD DE 00            [ 7]  672 	sbc	a, #0x00
    000000BF 30 1F            [12]  673 	jr	NC, 00102$
    000000C1 DD 7E F7         [19]  674 	ld	a, -9 (ix)
    000000C4 C6 3C            [ 7]  675 	add	a, #0x3c
    000000C6 DD 77 F9         [19]  676 	ld	-7 (ix), a
    000000C9 DD 7E F8         [19]  677 	ld	a, -8 (ix)
    000000CC CE 00            [ 7]  678 	adc	a, #0x00
    000000CE DD 77 FA         [19]  679 	ld	-6 (ix), a
    000000D1 DD 7E F9         [19]  680 	ld	a, -7 (ix)
    000000D4 DD 77 F6         [19]  681 	ld	-10 (ix), a
    000000D7 DD 7E FA         [19]  682 	ld	a, -6 (ix)
    000000DA DD 77 F7         [19]  683 	ld	-9 (ix), a
    000000DD C3rFCr00         [10]  684 	jp	00103$
    000000E0                        685 00102$:
                                    686 ;E:\Dropbox\FAUSTO\SVILUPPI\MSX\CODE\C\MSXgl\projects\exsoccer/exsoccer_s2_b0.c:82: else targetX = ballX - 60;             // Ball Right -> Ref Left
    000000E0 DD 7E F7         [19]  687 	ld	a, -9 (ix)
    000000E3 C6 C4            [ 7]  688 	add	a, #0xc4
    000000E5 DD 77 F9         [19]  689 	ld	-7 (ix), a
    000000E8 DD 7E F8         [19]  690 	ld	a, -8 (ix)
    000000EB CE FF            [ 7]  691 	adc	a, #0xff
    000000ED DD 77 FA         [19]  692 	ld	-6 (ix), a
    000000F0 DD 7E F9         [19]  693 	ld	a, -7 (ix)
    000000F3 DD 77 F6         [19]  694 	ld	-10 (ix), a
    000000F6 DD 7E FA         [19]  695 	ld	a, -6 (ix)
    000000F9 DD 77 F7         [19]  696 	ld	-9 (ix), a
    000000FC                        697 00103$:
                                    698 ;E:\Dropbox\FAUSTO\SVILUPPI\MSX\CODE\C\MSXgl\projects\exsoccer/exsoccer_s2_b0.c:85: if (targetX < FIELD_BOUND_X_LEFT + 10) targetX = FIELD_BOUND_X_LEFT + 10;
    000000FC DD 7E F6         [19]  699 	ld	a, -10 (ix)
    000000FF D6 14            [ 7]  700 	sub	a, #0x14
    00000101 DD 7E F7         [19]  701 	ld	a, -9 (ix)
    00000104 DE 00            [ 7]  702 	sbc	a, #0x00
    00000106 30 08            [12]  703 	jr	NC, 00105$
    00000108 DD 36 F6 14      [19]  704 	ld	-10 (ix), #0x14
    0000010C DD 36 F7 00      [19]  705 	ld	-9 (ix), #0
    00000110                        706 00105$:
                                    707 ;E:\Dropbox\FAUSTO\SVILUPPI\MSX\CODE\C\MSXgl\projects\exsoccer/exsoccer_s2_b0.c:86: if (targetX > FIELD_BOUND_X_RIGHT - 10) targetX = FIELD_BOUND_X_RIGHT - 10;
    00000110 3E EC            [ 7]  708 	ld	a, #0xec
    00000112 DD BE F6         [19]  709 	cp	a, -10 (ix)
    00000115 3E 00            [ 7]  710 	ld	a, #0x00
    00000117 DD 9E F7         [19]  711 	sbc	a, -9 (ix)
    0000011A 30 08            [12]  712 	jr	NC, 00107$
    0000011C DD 36 F6 EC      [19]  713 	ld	-10 (ix), #0xec
    00000120 DD 36 F7 00      [19]  714 	ld	-9 (ix), #0
    00000124                        715 00107$:
                                    716 ;E:\Dropbox\FAUSTO\SVILUPPI\MSX\CODE\C\MSXgl\projects\exsoccer/exsoccer_s2_b0.c:91: u8 moveDir = DIRECTION_NONE;
    00000124 DD 36 F8 00      [19]  717 	ld	-8 (ix), #0x00
                                    718 ;E:\Dropbox\FAUSTO\SVILUPPI\MSX\CODE\C\MSXgl\projects\exsoccer/exsoccer_s2_b0.c:92: i16 diffY = (i16)targetY - (i16)refY;
    00000128 DD 7E FB         [19]  719 	ld	a, -5 (ix)
    0000012B DD 77 F9         [19]  720 	ld	-7 (ix), a
    0000012E DD 7E FC         [19]  721 	ld	a, -4 (ix)
    00000131 DD 77 FA         [19]  722 	ld	-6 (ix), a
    00000134 DD 7E FE         [19]  723 	ld	a, -2 (ix)
    00000137 DD 77 FB         [19]  724 	ld	-5 (ix), a
    0000013A DD 7E FF         [19]  725 	ld	a, -1 (ix)
    0000013D DD 77 FC         [19]  726 	ld	-4 (ix), a
    00000140 DD 7E F9         [19]  727 	ld	a, -7 (ix)
    00000143 DD 96 FB         [19]  728 	sub	a, -5 (ix)
    00000146 DD 77 FE         [19]  729 	ld	-2 (ix), a
    00000149 DD 7E FA         [19]  730 	ld	a, -6 (ix)
    0000014C DD 9E FC         [19]  731 	sbc	a, -4 (ix)
    0000014F DD 77 FF         [19]  732 	ld	-1 (ix), a
                                    733 ;E:\Dropbox\FAUSTO\SVILUPPI\MSX\CODE\C\MSXgl\projects\exsoccer/exsoccer_s2_b0.c:93: i16 diffX = (i16)targetX - (i16)refX;
    00000152 DD 7E F6         [19]  734 	ld	a, -10 (ix)
    00000155 DD 77 FB         [19]  735 	ld	-5 (ix), a
    00000158 DD 7E F7         [19]  736 	ld	a, -9 (ix)
    0000015B DD 77 FC         [19]  737 	ld	-4 (ix), a
    0000015E DD 7E F4         [19]  738 	ld	a, -12 (ix)
    00000161 DD 77 F9         [19]  739 	ld	-7 (ix), a
    00000164 DD 7E F5         [19]  740 	ld	a, -11 (ix)
    00000167 DD 77 FA         [19]  741 	ld	-6 (ix), a
    0000016A DD 7E FB         [19]  742 	ld	a, -5 (ix)
    0000016D DD 96 F9         [19]  743 	sub	a, -7 (ix)
    00000170 DD 77 F6         [19]  744 	ld	-10 (ix), a
    00000173 DD 7E FC         [19]  745 	ld	a, -4 (ix)
    00000176 DD 9E FA         [19]  746 	sbc	a, -6 (ix)
    00000179 DD 77 F7         [19]  747 	ld	-9 (ix), a
    0000017C DD 7E F6         [19]  748 	ld	a, -10 (ix)
    0000017F DD 77 FB         [19]  749 	ld	-5 (ix), a
    00000182 DD 7E F7         [19]  750 	ld	a, -9 (ix)
    00000185 DD 77 FC         [19]  751 	ld	-4 (ix), a
                                    752 ;E:\Dropbox\FAUSTO\SVILUPPI\MSX\CODE\C\MSXgl\projects\exsoccer/exsoccer_s2_b0.c:96: if (diffY < -8) moveDir = DIRECTION_UP;
    00000188 DD 7E FE         [19]  753 	ld	a, -2 (ix)
    0000018B D6 F8            [ 7]  754 	sub	a, #0xf8
    0000018D DD 7E FF         [19]  755 	ld	a, -1 (ix)
    00000190 17               [ 4]  756 	rla
    00000191 3F               [ 4]  757 	ccf
    00000192 1F               [ 4]  758 	rra
    00000193 DE 7F            [ 7]  759 	sbc	a, #0x7f
    00000195 30 07            [12]  760 	jr	NC, 00111$
    00000197 DD 36 F8 01      [19]  761 	ld	-8 (ix), #0x01
    0000019B C3rB4r01         [10]  762 	jp	00112$
    0000019E                        763 00111$:
                                    764 ;E:\Dropbox\FAUSTO\SVILUPPI\MSX\CODE\C\MSXgl\projects\exsoccer/exsoccer_s2_b0.c:97: else if (diffY > 8) moveDir = DIRECTION_DOWN;
    0000019E 3E 08            [ 7]  765 	ld	a, #0x08
    000001A0 DD BE FE         [19]  766 	cp	a, -2 (ix)
    000001A3 3E 00            [ 7]  767 	ld	a, #0x00
    000001A5 DD 9E FF         [19]  768 	sbc	a, -1 (ix)
    000001A8 E2rADr01         [10]  769 	jp	PO, 01676$
    000001AB EE 80            [ 7]  770 	xor	a, #0x80
    000001AD                        771 01676$:
    000001AD F2rB4r01         [10]  772 	jp	P, 00112$
    000001B0 DD 36 F8 05      [19]  773 	ld	-8 (ix), #0x05
    000001B4                        774 00112$:
                                    775 ;E:\Dropbox\FAUSTO\SVILUPPI\MSX\CODE\C\MSXgl\projects\exsoccer/exsoccer_s2_b0.c:100: bool moveX = false;
    000001B4 0E 00            [ 7]  776 	ld	c, #0x00
                                    777 ;E:\Dropbox\FAUSTO\SVILUPPI\MSX\CODE\C\MSXgl\projects\exsoccer/exsoccer_s2_b0.c:101: if (diffX < -16) moveX = true; // Need to go Left
    000001B6 DD 7E FB         [19]  778 	ld	a, -5 (ix)
    000001B9 D6 F0            [ 7]  779 	sub	a, #0xf0
    000001BB DD 7E FC         [19]  780 	ld	a, -4 (ix)
    000001BE 17               [ 4]  781 	rla
    000001BF 3F               [ 4]  782 	ccf
    000001C0 1F               [ 4]  783 	rra
    000001C1 DE 7F            [ 7]  784 	sbc	a, #0x7f
    000001C3 30 05            [12]  785 	jr	NC, 00116$
    000001C5 0E 01            [ 7]  786 	ld	c, #0x01
    000001C7 C3rE0r01         [10]  787 	jp	00117$
    000001CA                        788 00116$:
                                    789 ;E:\Dropbox\FAUSTO\SVILUPPI\MSX\CODE\C\MSXgl\projects\exsoccer/exsoccer_s2_b0.c:102: else if (diffX > 16) moveX = true; // Need to go Right
    000001CA DD 46 FB         [19]  790 	ld	b, -5 (ix)
    000001CD DD 5E FC         [19]  791 	ld	e, -4 (ix)
    000001D0 3E 10            [ 7]  792 	ld	a, #0x10
    000001D2 B8               [ 4]  793 	cp	a, b
    000001D3 3E 00            [ 7]  794 	ld	a, #0x00
    000001D5 9B               [ 4]  795 	sbc	a, e
    000001D6 E2rDBr01         [10]  796 	jp	PO, 01677$
    000001D9 EE 80            [ 7]  797 	xor	a, #0x80
    000001DB                        798 01677$:
    000001DB F2rE0r01         [10]  799 	jp	P, 00117$
    000001DE 0E 01            [ 7]  800 	ld	c, #0x01
    000001E0                        801 00117$:
                                    802 ;E:\Dropbox\FAUSTO\SVILUPPI\MSX\CODE\C\MSXgl\projects\exsoccer/exsoccer_s2_b0.c:104: if (moveX) {
    000001E0 79               [ 4]  803 	ld	a, c
    000001E1 B7               [ 4]  804 	or	a, a
    000001E2 28 51            [12]  805 	jr	Z, 00134$
                                    806 ;E:\Dropbox\FAUSTO\SVILUPPI\MSX\CODE\C\MSXgl\projects\exsoccer/exsoccer_s2_b0.c:102: else if (diffX > 16) moveX = true; // Need to go Right
    000001E4 DD 4E FB         [19]  807 	ld	c, -5 (ix)
    000001E7 DD 46 FC         [19]  808 	ld	b, -4 (ix)
                                    809 ;E:\Dropbox\FAUSTO\SVILUPPI\MSX\CODE\C\MSXgl\projects\exsoccer/exsoccer_s2_b0.c:106: if (diffX > 0) moveDir = DIRECTION_UP_RIGHT;
    000001EA AF               [ 4]  810 	xor	a, a
    000001EB B9               [ 4]  811 	cp	a, c
    000001EC 98               [ 4]  812 	sbc	a, b
    000001ED E2rF2r01         [10]  813 	jp	PO, 01678$
    000001F0 EE 80            [ 7]  814 	xor	a, #0x80
    000001F2                        815 01678$:
    000001F2 07               [ 4]  816 	rlca
    000001F3 E6 01            [ 7]  817 	and	a,#0x01
    000001F5 4F               [ 4]  818 	ld	c, a
                                    819 ;E:\Dropbox\FAUSTO\SVILUPPI\MSX\CODE\C\MSXgl\projects\exsoccer/exsoccer_s2_b0.c:105: if (moveDir == DIRECTION_UP) {
    000001F6 DD 7E F8         [19]  820 	ld	a, -8 (ix)
    000001F9 3D               [ 4]  821 	dec	a
    000001FA 20 12            [12]  822 	jr	NZ, 00131$
                                    823 ;E:\Dropbox\FAUSTO\SVILUPPI\MSX\CODE\C\MSXgl\projects\exsoccer/exsoccer_s2_b0.c:106: if (diffX > 0) moveDir = DIRECTION_UP_RIGHT;
    000001FC 79               [ 4]  824 	ld	a, c
    000001FD B7               [ 4]  825 	or	a, a
    000001FE 28 07            [12]  826 	jr	Z, 00119$
    00000200 DD 36 F8 02      [19]  827 	ld	-8 (ix), #0x02
    00000204 C3r35r02         [10]  828 	jp	00134$
    00000207                        829 00119$:
                                    830 ;E:\Dropbox\FAUSTO\SVILUPPI\MSX\CODE\C\MSXgl\projects\exsoccer/exsoccer_s2_b0.c:107: else moveDir = DIRECTION_UP_LEFT;
    00000207 DD 36 F8 08      [19]  831 	ld	-8 (ix), #0x08
    0000020B C3r35r02         [10]  832 	jp	00134$
    0000020E                        833 00131$:
                                    834 ;E:\Dropbox\FAUSTO\SVILUPPI\MSX\CODE\C\MSXgl\projects\exsoccer/exsoccer_s2_b0.c:108: } else if (moveDir == DIRECTION_DOWN) {
    0000020E DD 7E F8         [19]  835 	ld	a, -8 (ix)
                                    836 ;E:\Dropbox\FAUSTO\SVILUPPI\MSX\CODE\C\MSXgl\projects\exsoccer/exsoccer_s2_b0.c:109: if (diffX > 0) moveDir = DIRECTION_DOWN_RIGHT;
    00000211 D6 05            [ 7]  837 	sub	a,#0x05
    00000213 20 11            [12]  838 	jr	NZ, 00128$
    00000215 B1               [ 4]  839 	or	a,c
    00000216 28 07            [12]  840 	jr	Z, 00122$
    00000218 DD 36 F8 04      [19]  841 	ld	-8 (ix), #0x04
    0000021C C3r35r02         [10]  842 	jp	00134$
    0000021F                        843 00122$:
                                    844 ;E:\Dropbox\FAUSTO\SVILUPPI\MSX\CODE\C\MSXgl\projects\exsoccer/exsoccer_s2_b0.c:110: else moveDir = DIRECTION_DOWN_LEFT;
    0000021F DD 36 F8 06      [19]  845 	ld	-8 (ix), #0x06
    00000223 C3r35r02         [10]  846 	jp	00134$
    00000226                        847 00128$:
                                    848 ;E:\Dropbox\FAUSTO\SVILUPPI\MSX\CODE\C\MSXgl\projects\exsoccer/exsoccer_s2_b0.c:112: if (diffX > 0) moveDir = DIRECTION_RIGHT;
    00000226 79               [ 4]  849 	ld	a, c
    00000227 B7               [ 4]  850 	or	a, a
    00000228 28 07            [12]  851 	jr	Z, 00125$
    0000022A DD 36 F8 03      [19]  852 	ld	-8 (ix), #0x03
    0000022E C3r35r02         [10]  853 	jp	00134$
    00000231                        854 00125$:
                                    855 ;E:\Dropbox\FAUSTO\SVILUPPI\MSX\CODE\C\MSXgl\projects\exsoccer/exsoccer_s2_b0.c:113: else moveDir = DIRECTION_LEFT;
    00000231 DD 36 F8 07      [19]  856 	ld	-8 (ix), #0x07
    00000235                        857 00134$:
                                    858 ;E:\Dropbox\FAUSTO\SVILUPPI\MSX\CODE\C\MSXgl\projects\exsoccer/exsoccer_s2_b0.c:117: g_Players[playerId].Direction = moveDir;
    00000235 DD 7E F0         [19]  859 	ld	a, -16 (ix)
    00000238 C6 06            [ 7]  860 	add	a, #0x06
    0000023A 4F               [ 4]  861 	ld	c, a
    0000023B DD 7E F1         [19]  862 	ld	a, -15 (ix)
    0000023E CE 00            [ 7]  863 	adc	a, #0x00
    00000240 47               [ 4]  864 	ld	b, a
    00000241 DD 7E F8         [19]  865 	ld	a, -8 (ix)
                                    866 ;E:\Dropbox\FAUSTO\SVILUPPI\MSX\CODE\C\MSXgl\projects\exsoccer/exsoccer_s2_b0.c:120: if (g_Players[playerId].Direction == DIRECTION_UP ||
    00000244 02               [ 7]  867 	ld	(bc), a
    00000245 5F               [ 4]  868 	ld	e, a
    00000246 DD 7E F8         [19]  869 	ld	a, -8 (ix)
    00000249 3D               [ 4]  870 	dec	a
    0000024A 28 09            [12]  871 	jr	Z, 00135$
                                    872 ;E:\Dropbox\FAUSTO\SVILUPPI\MSX\CODE\C\MSXgl\projects\exsoccer/exsoccer_s2_b0.c:121: g_Players[playerId].Direction == DIRECTION_UP_RIGHT ||
                                    873 ;E:\Dropbox\FAUSTO\SVILUPPI\MSX\CODE\C\MSXgl\projects\exsoccer/exsoccer_s2_b0.c:122: g_Players[playerId].Direction == DIRECTION_UP_LEFT) {
    0000024C 7B               [ 4]  874 	ld	a,e
    0000024D FE 02            [ 7]  875 	cp	a,#0x02
    0000024F 28 04            [12]  876 	jr	Z, 00135$
    00000251 D6 08            [ 7]  877 	sub	a, #0x08
    00000253 20 13            [12]  878 	jr	NZ, 00136$
    00000255                        879 00135$:
                                    880 ;E:\Dropbox\FAUSTO\SVILUPPI\MSX\CODE\C\MSXgl\projects\exsoccer/exsoccer_s2_b0.c:123: g_Players[playerId].Y--;
    00000255 DD 6E F0         [19]  881 	ld	l, -16 (ix)
    00000258 DD 66 F1         [19]  882 	ld	h, -15 (ix)
    0000025B 5E               [ 7]  883 	ld	e, (hl)
    0000025C 23               [ 6]  884 	inc	hl
    0000025D 56               [ 7]  885 	ld	d, (hl)
    0000025E 1B               [ 6]  886 	dec	de
    0000025F DD 6E F0         [19]  887 	ld	l, -16 (ix)
    00000262 DD 66 F1         [19]  888 	ld	h, -15 (ix)
    00000265 73               [ 7]  889 	ld	(hl), e
    00000266 23               [ 6]  890 	inc	hl
    00000267 72               [ 7]  891 	ld	(hl), d
    00000268                        892 00136$:
                                    893 ;E:\Dropbox\FAUSTO\SVILUPPI\MSX\CODE\C\MSXgl\projects\exsoccer/exsoccer_s2_b0.c:120: if (g_Players[playerId].Direction == DIRECTION_UP ||
    00000268 0A               [ 7]  894 	ld	a, (bc)
                                    895 ;E:\Dropbox\FAUSTO\SVILUPPI\MSX\CODE\C\MSXgl\projects\exsoccer/exsoccer_s2_b0.c:125: if (g_Players[playerId].Direction == DIRECTION_DOWN ||
    00000269 FE 05            [ 7]  896 	cp	a, #0x05
    0000026B 28 08            [12]  897 	jr	Z, 00139$
                                    898 ;E:\Dropbox\FAUSTO\SVILUPPI\MSX\CODE\C\MSXgl\projects\exsoccer/exsoccer_s2_b0.c:126: g_Players[playerId].Direction == DIRECTION_DOWN_RIGHT ||
    0000026D FE 04            [ 7]  899 	cp	a, #0x04
    0000026F 28 04            [12]  900 	jr	Z, 00139$
                                    901 ;E:\Dropbox\FAUSTO\SVILUPPI\MSX\CODE\C\MSXgl\projects\exsoccer/exsoccer_s2_b0.c:127: g_Players[playerId].Direction == DIRECTION_DOWN_LEFT) {
    00000271 D6 06            [ 7]  902 	sub	a, #0x06
    00000273 20 13            [12]  903 	jr	NZ, 00140$
    00000275                        904 00139$:
                                    905 ;E:\Dropbox\FAUSTO\SVILUPPI\MSX\CODE\C\MSXgl\projects\exsoccer/exsoccer_s2_b0.c:128: g_Players[playerId].Y++;
    00000275 DD 6E F0         [19]  906 	ld	l, -16 (ix)
    00000278 DD 66 F1         [19]  907 	ld	h, -15 (ix)
    0000027B 5E               [ 7]  908 	ld	e, (hl)
    0000027C 23               [ 6]  909 	inc	hl
    0000027D 56               [ 7]  910 	ld	d, (hl)
    0000027E 13               [ 6]  911 	inc	de
    0000027F DD 6E F0         [19]  912 	ld	l, -16 (ix)
    00000282 DD 66 F1         [19]  913 	ld	h, -15 (ix)
    00000285 73               [ 7]  914 	ld	(hl), e
    00000286 23               [ 6]  915 	inc	hl
    00000287 72               [ 7]  916 	ld	(hl), d
    00000288                        917 00140$:
                                    918 ;E:\Dropbox\FAUSTO\SVILUPPI\MSX\CODE\C\MSXgl\projects\exsoccer/exsoccer_s2_b0.c:120: if (g_Players[playerId].Direction == DIRECTION_UP ||
    00000288 0A               [ 7]  919 	ld	a, (bc)
                                    920 ;E:\Dropbox\FAUSTO\SVILUPPI\MSX\CODE\C\MSXgl\projects\exsoccer/exsoccer_s2_b0.c:130: if (g_Players[playerId].Direction == DIRECTION_LEFT ||
    00000289 FE 07            [ 7]  921 	cp	a, #0x07
    0000028B 28 08            [12]  922 	jr	Z, 00143$
                                    923 ;E:\Dropbox\FAUSTO\SVILUPPI\MSX\CODE\C\MSXgl\projects\exsoccer/exsoccer_s2_b0.c:131: g_Players[playerId].Direction == DIRECTION_UP_LEFT ||
    0000028D FE 08            [ 7]  924 	cp	a, #0x08
    0000028F 28 04            [12]  925 	jr	Z, 00143$
                                    926 ;E:\Dropbox\FAUSTO\SVILUPPI\MSX\CODE\C\MSXgl\projects\exsoccer/exsoccer_s2_b0.c:132: g_Players[playerId].Direction == DIRECTION_DOWN_LEFT) {
    00000291 D6 06            [ 7]  927 	sub	a, #0x06
    00000293 20 13            [12]  928 	jr	NZ, 00144$
    00000295                        929 00143$:
                                    930 ;E:\Dropbox\FAUSTO\SVILUPPI\MSX\CODE\C\MSXgl\projects\exsoccer/exsoccer_s2_b0.c:133: g_Players[playerId].X--;
    00000295 DD 6E F2         [19]  931 	ld	l, -14 (ix)
    00000298 DD 66 F3         [19]  932 	ld	h, -13 (ix)
    0000029B 5E               [ 7]  933 	ld	e, (hl)
    0000029C 23               [ 6]  934 	inc	hl
    0000029D 56               [ 7]  935 	ld	d, (hl)
    0000029E 1B               [ 6]  936 	dec	de
    0000029F DD 6E F2         [19]  937 	ld	l, -14 (ix)
    000002A2 DD 66 F3         [19]  938 	ld	h, -13 (ix)
    000002A5 73               [ 7]  939 	ld	(hl), e
    000002A6 23               [ 6]  940 	inc	hl
    000002A7 72               [ 7]  941 	ld	(hl), d
    000002A8                        942 00144$:
                                    943 ;E:\Dropbox\FAUSTO\SVILUPPI\MSX\CODE\C\MSXgl\projects\exsoccer/exsoccer_s2_b0.c:120: if (g_Players[playerId].Direction == DIRECTION_UP ||
    000002A8 0A               [ 7]  944 	ld	a, (bc)
                                    945 ;E:\Dropbox\FAUSTO\SVILUPPI\MSX\CODE\C\MSXgl\projects\exsoccer/exsoccer_s2_b0.c:135: if (g_Players[playerId].Direction == DIRECTION_RIGHT ||
    000002A9 FE 03            [ 7]  946 	cp	a, #0x03
    000002AB 28 08            [12]  947 	jr	Z, 00147$
                                    948 ;E:\Dropbox\FAUSTO\SVILUPPI\MSX\CODE\C\MSXgl\projects\exsoccer/exsoccer_s2_b0.c:136: g_Players[playerId].Direction == DIRECTION_UP_RIGHT ||
    000002AD FE 02            [ 7]  949 	cp	a, #0x02
    000002AF 28 04            [12]  950 	jr	Z, 00147$
                                    951 ;E:\Dropbox\FAUSTO\SVILUPPI\MSX\CODE\C\MSXgl\projects\exsoccer/exsoccer_s2_b0.c:137: g_Players[playerId].Direction == DIRECTION_DOWN_RIGHT) {
    000002B1 D6 04            [ 7]  952 	sub	a, #0x04
    000002B3 20 13            [12]  953 	jr	NZ, 00148$
    000002B5                        954 00147$:
                                    955 ;E:\Dropbox\FAUSTO\SVILUPPI\MSX\CODE\C\MSXgl\projects\exsoccer/exsoccer_s2_b0.c:138: g_Players[playerId].X++;
    000002B5 DD 6E F2         [19]  956 	ld	l, -14 (ix)
    000002B8 DD 66 F3         [19]  957 	ld	h, -13 (ix)
    000002BB 4E               [ 7]  958 	ld	c, (hl)
    000002BC 23               [ 6]  959 	inc	hl
    000002BD 46               [ 7]  960 	ld	b, (hl)
    000002BE 03               [ 6]  961 	inc	bc
    000002BF DD 6E F2         [19]  962 	ld	l, -14 (ix)
    000002C2 DD 66 F3         [19]  963 	ld	h, -13 (ix)
    000002C5 71               [ 7]  964 	ld	(hl), c
    000002C6 23               [ 6]  965 	inc	hl
    000002C7 70               [ 7]  966 	ld	(hl), b
    000002C8                        967 00148$:
                                    968 ;E:\Dropbox\FAUSTO\SVILUPPI\MSX\CODE\C\MSXgl\projects\exsoccer/exsoccer_s2_b0.c:142: if(g_Players[playerId].Y < FIELD_BOUND_Y_TOP) g_Players[playerId].Y = FIELD_BOUND_Y_TOP;
    000002C8 DD 6E F0         [19]  969 	ld	l, -16 (ix)
    000002CB DD 66 F1         [19]  970 	ld	h, -15 (ix)
    000002CE 4E               [ 7]  971 	ld	c, (hl)
    000002CF 23               [ 6]  972 	inc	hl
    000002D0 46               [ 7]  973 	ld	b, (hl)
    000002D1 79               [ 4]  974 	ld	a, c
    000002D2 D6 32            [ 7]  975 	sub	a, #0x32
    000002D4 78               [ 4]  976 	ld	a, b
    000002D5 DE 00            [ 7]  977 	sbc	a, #0x00
    000002D7 30 0B            [12]  978 	jr	NC, 00152$
    000002D9 DD 6E F0         [19]  979 	ld	l, -16 (ix)
    000002DC DD 66 F1         [19]  980 	ld	h, -15 (ix)
    000002DF 36 32            [10]  981 	ld	(hl), #0x32
    000002E1 23               [ 6]  982 	inc	hl
    000002E2 36 00            [10]  983 	ld	(hl), #0x00
    000002E4                        984 00152$:
                                    985 ;E:\Dropbox\FAUSTO\SVILUPPI\MSX\CODE\C\MSXgl\projects\exsoccer/exsoccer_s2_b0.c:143: if(g_Players[playerId].Y > FIELD_BOUND_Y_BOTTOM) g_Players[playerId].Y = FIELD_BOUND_Y_BOTTOM;
    000002E4 DD 6E F0         [19]  986 	ld	l, -16 (ix)
    000002E7 DD 66 F1         [19]  987 	ld	h, -15 (ix)
    000002EA 4E               [ 7]  988 	ld	c, (hl)
    000002EB 23               [ 6]  989 	inc	hl
    000002EC 46               [ 7]  990 	ld	b, (hl)
    000002ED 3E AE            [ 7]  991 	ld	a, #0xae
    000002EF B9               [ 4]  992 	cp	a, c
    000002F0 3E 01            [ 7]  993 	ld	a, #0x01
    000002F2 98               [ 4]  994 	sbc	a, b
    000002F3 30 0B            [12]  995 	jr	NC, 00154$
    000002F5 DD 6E F0         [19]  996 	ld	l, -16 (ix)
    000002F8 DD 66 F1         [19]  997 	ld	h, -15 (ix)
    000002FB 36 AE            [10]  998 	ld	(hl), #0xae
    000002FD 23               [ 6]  999 	inc	hl
    000002FE 36 01            [10] 1000 	ld	(hl), #0x01
    00000300                       1001 00154$:
                                   1002 ;E:\Dropbox\FAUSTO\SVILUPPI\MSX\CODE\C\MSXgl\projects\exsoccer/exsoccer_s2_b0.c:144: if(g_Players[playerId].X < FIELD_BOUND_X_LEFT) g_Players[playerId].X = FIELD_BOUND_X_LEFT;
    00000300 DD 6E F2         [19] 1003 	ld	l, -14 (ix)
    00000303 DD 66 F3         [19] 1004 	ld	h, -13 (ix)
    00000306 4E               [ 7] 1005 	ld	c, (hl)
    00000307 23               [ 6] 1006 	inc	hl
    00000308 46               [ 7] 1007 	ld	b, (hl)
    00000309 79               [ 4] 1008 	ld	a, c
    0000030A D6 0A            [ 7] 1009 	sub	a, #0x0a
    0000030C 78               [ 4] 1010 	ld	a, b
    0000030D DE 00            [ 7] 1011 	sbc	a, #0x00
    0000030F 30 0B            [12] 1012 	jr	NC, 00156$
    00000311 DD 6E F2         [19] 1013 	ld	l, -14 (ix)
    00000314 DD 66 F3         [19] 1014 	ld	h, -13 (ix)
    00000317 36 0A            [10] 1015 	ld	(hl), #0x0a
    00000319 23               [ 6] 1016 	inc	hl
    0000031A 36 00            [10] 1017 	ld	(hl), #0x00
    0000031C                       1018 00156$:
                                   1019 ;E:\Dropbox\FAUSTO\SVILUPPI\MSX\CODE\C\MSXgl\projects\exsoccer/exsoccer_s2_b0.c:145: if(g_Players[playerId].X > FIELD_BOUND_X_RIGHT) g_Players[playerId].X = FIELD_BOUND_X_RIGHT;
    0000031C DD 6E F2         [19] 1020 	ld	l, -14 (ix)
    0000031F DD 66 F3         [19] 1021 	ld	h, -13 (ix)
    00000322 4E               [ 7] 1022 	ld	c, (hl)
    00000323 23               [ 6] 1023 	inc	hl
    00000324 46               [ 7] 1024 	ld	b, (hl)
    00000325 3E F6            [ 7] 1025 	ld	a, #0xf6
    00000327 B9               [ 4] 1026 	cp	a, c
    00000328 3E 00            [ 7] 1027 	ld	a, #0x00
    0000032A 98               [ 4] 1028 	sbc	a, b
    0000032B D2r89r17         [10] 1029 	jp	NC,00545$
    0000032E DD 6E F2         [19] 1030 	ld	l, -14 (ix)
    00000331 DD 66 F3         [19] 1031 	ld	h, -13 (ix)
    00000334 36 F6            [10] 1032 	ld	(hl), #0xf6
    00000336 23               [ 6] 1033 	inc	hl
    00000337 36 00            [10] 1034 	ld	(hl), #0x00
                                   1035 ;E:\Dropbox\FAUSTO\SVILUPPI\MSX\CODE\C\MSXgl\projects\exsoccer/exsoccer_s2_b0.c:150: return;
    00000339 C3r89r17         [10] 1036 	jp	00545$
    0000033C                       1037 00160$:
                                   1038 ;E:\Dropbox\FAUSTO\SVILUPPI\MSX\CODE\C\MSXgl\projects\exsoccer/exsoccer_s2_b0.c:153: u8 playerTeamId = g_Players[playerId].TeamId;
    0000033C 3Er00            [ 7] 1039 	ld	a, #<(_g_Players)
    0000033E DD 86 FE         [19] 1040 	add	a, -2 (ix)
    00000341 DD 77 DF         [19] 1041 	ld	-33 (ix), a
    00000344 3Es00            [ 7] 1042 	ld	a, #>(_g_Players)
    00000346 DD 8E FF         [19] 1043 	adc	a, -1 (ix)
    00000349 DD 77 E0         [19] 1044 	ld	-32 (ix), a
    0000034C C1               [10] 1045 	pop	bc
    0000034D C5               [11] 1046 	push	bc
    0000034E 21 05 00         [10] 1047 	ld	hl, #5
    00000351 09               [11] 1048 	add	hl, bc
    00000352 7E               [ 7] 1049 	ld	a, (hl)
    00000353 DD 77 E1         [19] 1050 	ld	-31 (ix), a
                                   1051 ;E:\Dropbox\FAUSTO\SVILUPPI\MSX\CODE\C\MSXgl\projects\exsoccer/exsoccer_s2_b0.c:154: bool ballPossessionByPlayerTeam = false;
    00000356 DD 36 FA 00      [19] 1052 	ld	-6 (ix), #0x00
                                   1053 ;E:\Dropbox\FAUSTO\SVILUPPI\MSX\CODE\C\MSXgl\projects\exsoccer/exsoccer_s2_b0.c:156: if (g_MatchStatus == MATCH_BALL_ON_GOALKEEPER) {
    0000035A 3Ar00r00         [13] 1054 	ld	a, (_g_MatchStatus+0)
    0000035D D6 0D            [ 7] 1055 	sub	a, #0x0d
    0000035F 20 43            [12] 1056 	jr	NZ, 00173$
                                   1057 ;E:\Dropbox\FAUSTO\SVILUPPI\MSX\CODE\C\MSXgl\projects\exsoccer/exsoccer_s2_b0.c:159: if (g_Ball.PossessionPlayerId != NO_VALUE) {
    00000361 3Ar06r00         [13] 1058 	ld	a, (#(_g_Ball + 6) + 0)
    00000364 DD 77 FF         [19] 1059 	ld	-1 (ix), a
    00000367 3C               [ 4] 1060 	inc	a
    00000368 CArF3r03         [10] 1061 	jp	Z,00174$
                                   1062 ;E:\Dropbox\FAUSTO\SVILUPPI\MSX\CODE\C\MSXgl\projects\exsoccer/exsoccer_s2_b0.c:160: if (g_Players[g_Ball.PossessionPlayerId].TeamId == playerTeamId) ballPossessionByPlayerTeam = true;
    0000036B DD 4E FF         [19] 1063 	ld	c, -1 (ix)
    0000036E 06 00            [ 7] 1064 	ld	b, #0x00
    00000370 69               [ 4] 1065 	ld	l, c
    00000371 60               [ 4] 1066 	ld	h, b
    00000372 29               [11] 1067 	add	hl, hl
    00000373 29               [11] 1068 	add	hl, hl
    00000374 29               [11] 1069 	add	hl, hl
    00000375 29               [11] 1070 	add	hl, hl
    00000376 09               [11] 1071 	add	hl, bc
    00000377 DD 75 FB         [19] 1072 	ld	-5 (ix), l
    0000037A DD 74 FC         [19] 1073 	ld	-4 (ix), h
    0000037D 3Er00            [ 7] 1074 	ld	a, #<(_g_Players)
    0000037F DD 86 FB         [19] 1075 	add	a, -5 (ix)
    00000382 DD 77 FE         [19] 1076 	ld	-2 (ix), a
    00000385 3Es00            [ 7] 1077 	ld	a, #>(_g_Players)
    00000387 DD 8E FC         [19] 1078 	adc	a, -4 (ix)
    0000038A DD 77 FF         [19] 1079 	ld	-1 (ix), a
    0000038D DD 6E FE         [19] 1080 	ld	l, -2 (ix)
    00000390 DD 66 FF         [19] 1081 	ld	h, -1 (ix)
    00000393 11 05 00         [10] 1082 	ld	de, #0x0005
    00000396 19               [11] 1083 	add	hl, de
    00000397 DD 7E E1         [19] 1084 	ld	a,-31 (ix)
    0000039A 96               [ 7] 1085 	sub	a,(hl)
    0000039B 20 56            [12] 1086 	jr	NZ, 00174$
    0000039D DD 36 FA 01      [19] 1087 	ld	-6 (ix), #0x01
    000003A1 C3rF3r03         [10] 1088 	jp	00174$
    000003A4                       1089 00173$:
                                   1090 ;E:\Dropbox\FAUSTO\SVILUPPI\MSX\CODE\C\MSXgl\projects\exsoccer/exsoccer_s2_b0.c:164: if (g_Ball.PossessionPlayerId != NO_VALUE) {
    000003A4 3Ar06r00         [13] 1091 	ld	a, (#_g_Ball + 6)
    000003A7 DD 77 FF         [19] 1092 	ld	-1 (ix), a
    000003AA 3C               [ 4] 1093 	inc	a
    000003AB 28 39            [12] 1094 	jr	Z, 00170$
                                   1095 ;E:\Dropbox\FAUSTO\SVILUPPI\MSX\CODE\C\MSXgl\projects\exsoccer/exsoccer_s2_b0.c:165: if (g_Players[g_Ball.PossessionPlayerId].TeamId == playerTeamId) {
    000003AD DD 4E FF         [19] 1096 	ld	c, -1 (ix)
    000003B0 06 00            [ 7] 1097 	ld	b, #0x00
    000003B2 69               [ 4] 1098 	ld	l, c
    000003B3 60               [ 4] 1099 	ld	h, b
    000003B4 29               [11] 1100 	add	hl, hl
    000003B5 29               [11] 1101 	add	hl, hl
    000003B6 29               [11] 1102 	add	hl, hl
    000003B7 29               [11] 1103 	add	hl, hl
    000003B8 09               [11] 1104 	add	hl, bc
    000003B9 DD 75 FB         [19] 1105 	ld	-5 (ix), l
    000003BC DD 74 FC         [19] 1106 	ld	-4 (ix), h
    000003BF 3Er00            [ 7] 1107 	ld	a, #<(_g_Players)
    000003C1 DD 86 FB         [19] 1108 	add	a, -5 (ix)
    000003C4 DD 77 FE         [19] 1109 	ld	-2 (ix), a
    000003C7 3Es00            [ 7] 1110 	ld	a, #>(_g_Players)
    000003C9 DD 8E FC         [19] 1111 	adc	a, -4 (ix)
    000003CC DD 77 FF         [19] 1112 	ld	-1 (ix), a
    000003CF DD 6E FE         [19] 1113 	ld	l, -2 (ix)
    000003D2 DD 66 FF         [19] 1114 	ld	h, -1 (ix)
    000003D5 11 05 00         [10] 1115 	ld	de, #0x0005
    000003D8 19               [11] 1116 	add	hl, de
    000003D9 DD 7E E1         [19] 1117 	ld	a,-31 (ix)
    000003DC 96               [ 7] 1118 	sub	a,(hl)
    000003DD 20 14            [12] 1119 	jr	NZ, 00174$
                                   1120 ;E:\Dropbox\FAUSTO\SVILUPPI\MSX\CODE\C\MSXgl\projects\exsoccer/exsoccer_s2_b0.c:166: ballPossessionByPlayerTeam = true;
    000003DF DD 36 FA 01      [19] 1121 	ld	-6 (ix), #0x01
    000003E3 C3rF3r03         [10] 1122 	jp	00174$
    000003E6                       1123 00170$:
                                   1124 ;E:\Dropbox\FAUSTO\SVILUPPI\MSX\CODE\C\MSXgl\projects\exsoccer/exsoccer_s2_b0.c:170: if (g_Ball.LastTouchTeamId == playerTeamId) {
    000003E6 21r0Er00         [10] 1125 	ld	hl, #_g_Ball + 14
    000003E9 DD 7E E1         [19] 1126 	ld	a,-31 (ix)
    000003EC 96               [ 7] 1127 	sub	a,(hl)
    000003ED 20 04            [12] 1128 	jr	NZ, 00174$
                                   1129 ;E:\Dropbox\FAUSTO\SVILUPPI\MSX\CODE\C\MSXgl\projects\exsoccer/exsoccer_s2_b0.c:171: ballPossessionByPlayerTeam = true;
    000003EF DD 36 FA 01      [19] 1130 	ld	-6 (ix), #0x01
    000003F3                       1131 00174$:
                                   1132 ;E:\Dropbox\FAUSTO\SVILUPPI\MSX\CODE\C\MSXgl\projects\exsoccer/exsoccer_s2_b0.c:179: if (ballPossessionByPlayerTeam) {
    000003F3 DD 7E FA         [19] 1133 	ld	a, -6 (ix)
    000003F6 B7               [ 4] 1134 	or	a, a
    000003F7 CArAAr0F         [10] 1135 	jp	Z, 00398$
                                   1136 ;E:\Dropbox\FAUSTO\SVILUPPI\MSX\CODE\C\MSXgl\projects\exsoccer/exsoccer_s2_b0.c:182: if (g_Ball.PossessionPlayerId == playerId) {
    000003FA 3Ar06r00         [13] 1137 	ld	a, (#_g_Ball + 6)
    000003FD DD 77 FF         [19] 1138 	ld	-1 (ix), a
    00000400 DD 7E FD         [19] 1139 	ld	a, -3 (ix)
    00000403 DD 96 FF         [19] 1140 	sub	a, -1 (ix)
    00000406 C2r17r0C         [10] 1141 	jp	NZ,00325$
                                   1142 ;E:\Dropbox\FAUSTO\SVILUPPI\MSX\CODE\C\MSXgl\projects\exsoccer/exsoccer_s2_b0.c:188: if (playerTeamId == TEAM_1) { 
    00000409 DD 7E E1         [19] 1143 	ld	a, -31 (ix)
    0000040C 3D               [ 4] 1144 	dec	a
    0000040D 3E 01            [ 7] 1145 	ld	a, #0x01
    0000040F 28 01            [12] 1146 	jr	Z, 01712$
    00000411 AF               [ 4] 1147 	xor	a, a
    00000412                       1148 01712$:
    00000412 DD 77 E2         [19] 1149 	ld	-30 (ix), a
    00000415 B7               [ 4] 1150 	or	a, a
    00000416 28 0B            [12] 1151 	jr	Z, 00176$
                                   1152 ;E:\Dropbox\FAUSTO\SVILUPPI\MSX\CODE\C\MSXgl\projects\exsoccer/exsoccer_s2_b0.c:189: targetY_Goal = goalTopY - 20; 
    00000418 DD 36 E3 37      [19] 1153 	ld	-29 (ix), #0x37
    0000041C DD 36 E4 00      [19] 1154 	ld	-28 (ix), #0
    00000420 C3r2Br04         [10] 1155 	jp	00177$
    00000423                       1156 00176$:
                                   1157 ;E:\Dropbox\FAUSTO\SVILUPPI\MSX\CODE\C\MSXgl\projects\exsoccer/exsoccer_s2_b0.c:191: targetY_Goal = goalBottomY + 20;
    00000423 DD 36 E3 A9      [19] 1158 	ld	-29 (ix), #0xa9
    00000427 DD 36 E4 01      [19] 1159 	ld	-28 (ix), #0x01
    0000042B                       1160 00177$:
                                   1161 ;E:\Dropbox\FAUSTO\SVILUPPI\MSX\CODE\C\MSXgl\projects\exsoccer/exsoccer_s2_b0.c:195: targetX_Goal = g_Players[playerId].X;
    0000042B E1               [10] 1162 	pop	hl
    0000042C E5               [11] 1163 	push	hl
    0000042D 23               [ 6] 1164 	inc	hl
    0000042E 23               [ 6] 1165 	inc	hl
    0000042F 7E               [ 7] 1166 	ld	a, (hl)
    00000430 DD 77 E5         [19] 1167 	ld	-27 (ix), a
    00000433 23               [ 6] 1168 	inc	hl
    00000434 7E               [ 7] 1169 	ld	a, (hl)
    00000435 DD 77 E6         [19] 1170 	ld	-26 (ix), a
    00000438 DD 7E E5         [19] 1171 	ld	a, -27 (ix)
    0000043B DD 77 E7         [19] 1172 	ld	-25 (ix), a
    0000043E DD 7E E6         [19] 1173 	ld	a, -26 (ix)
    00000441 DD 77 E8         [19] 1174 	ld	-24 (ix), a
                                   1175 ;E:\Dropbox\FAUSTO\SVILUPPI\MSX\CODE\C\MSXgl\projects\exsoccer/exsoccer_s2_b0.c:196: if (targetX_Goal > 100 && targetX_Goal < 156) {
    00000444 DD 46 E7         [19] 1176 	ld	b, -25 (ix)
    00000447 DD 5E E8         [19] 1177 	ld	e, -24 (ix)
    0000044A 3E 64            [ 7] 1178 	ld	a, #0x64
    0000044C B8               [ 4] 1179 	cp	a, b
    0000044D 3E 00            [ 7] 1180 	ld	a, #0x00
    0000044F 9B               [ 4] 1181 	sbc	a, e
    00000450 30 25            [12] 1182 	jr	NC, 00182$
    00000452 78               [ 4] 1183 	ld	a, b
    00000453 D6 9C            [ 7] 1184 	sub	a, #0x9c
    00000455 7B               [ 4] 1185 	ld	a, e
    00000456 DE 00            [ 7] 1186 	sbc	a, #0x00
    00000458 30 1D            [12] 1187 	jr	NC, 00182$
                                   1188 ;E:\Dropbox\FAUSTO\SVILUPPI\MSX\CODE\C\MSXgl\projects\exsoccer/exsoccer_s2_b0.c:197: if ((g_Players[playerId].Role % 2) != 0) targetX_Goal = 60; // Go Left
    0000045A C1               [10] 1189 	pop	bc
    0000045B C5               [11] 1190 	push	bc
    0000045C 21 09 00         [10] 1191 	ld	hl, #9
    0000045F 09               [11] 1192 	add	hl, bc
    00000460 7E               [ 7] 1193 	ld	a, (hl)
    00000461 0F               [ 4] 1194 	rrca
    00000462 30 0B            [12] 1195 	jr	NC, 00179$
    00000464 DD 36 E7 3C      [19] 1196 	ld	-25 (ix), #0x3c
    00000468 DD 36 E8 00      [19] 1197 	ld	-24 (ix), #0
    0000046C C3r77r04         [10] 1198 	jp	00182$
    0000046F                       1199 00179$:
                                   1200 ;E:\Dropbox\FAUSTO\SVILUPPI\MSX\CODE\C\MSXgl\projects\exsoccer/exsoccer_s2_b0.c:198: else targetX_Goal = 190; // Go Right
    0000046F DD 36 E7 BE      [19] 1201 	ld	-25 (ix), #0xbe
    00000473 DD 36 E8 00      [19] 1202 	ld	-24 (ix), #0
    00000477                       1203 00182$:
                                   1204 ;E:\Dropbox\FAUSTO\SVILUPPI\MSX\CODE\C\MSXgl\projects\exsoccer/exsoccer_s2_b0.c:201: if (targetX_Goal < FIELD_BOUND_X_LEFT + 20) targetX_Goal = FIELD_BOUND_X_LEFT + 20;
    00000477 DD 7E E7         [19] 1205 	ld	a, -25 (ix)
    0000047A D6 1E            [ 7] 1206 	sub	a, #0x1e
    0000047C DD 7E E8         [19] 1207 	ld	a, -24 (ix)
    0000047F DE 00            [ 7] 1208 	sbc	a, #0x00
    00000481 30 08            [12] 1209 	jr	NC, 00185$
    00000483 DD 36 E7 1E      [19] 1210 	ld	-25 (ix), #0x1e
    00000487 DD 36 E8 00      [19] 1211 	ld	-24 (ix), #0
    0000048B                       1212 00185$:
                                   1213 ;E:\Dropbox\FAUSTO\SVILUPPI\MSX\CODE\C\MSXgl\projects\exsoccer/exsoccer_s2_b0.c:202: if (targetX_Goal > FIELD_BOUND_X_RIGHT - 20) targetX_Goal = FIELD_BOUND_X_RIGHT - 20;
    0000048B 3E E2            [ 7] 1214 	ld	a, #0xe2
    0000048D DD BE E7         [19] 1215 	cp	a, -25 (ix)
    00000490 3E 00            [ 7] 1216 	ld	a, #0x00
    00000492 DD 9E E8         [19] 1217 	sbc	a, -24 (ix)
    00000495 30 08            [12] 1218 	jr	NC, 00187$
    00000497 DD 36 E7 E2      [19] 1219 	ld	-25 (ix), #0xe2
    0000049B DD 36 E8 00      [19] 1220 	ld	-24 (ix), #0
    0000049F                       1221 00187$:
                                   1222 ;E:\Dropbox\FAUSTO\SVILUPPI\MSX\CODE\C\MSXgl\projects\exsoccer/exsoccer_s2_b0.c:206: bool obstacleRight = false;
    0000049F DD 36 E9 00      [19] 1223 	ld	-23 (ix), #0x00
                                   1224 ;E:\Dropbox\FAUSTO\SVILUPPI\MSX\CODE\C\MSXgl\projects\exsoccer/exsoccer_s2_b0.c:207: bool obstacleLeft = false;
    000004A3 DD 36 EA 00      [19] 1225 	ld	-22 (ix), #0x00
                                   1226 ;E:\Dropbox\FAUSTO\SVILUPPI\MSX\CODE\C\MSXgl\projects\exsoccer/exsoccer_s2_b0.c:208: bool obstacleFront = false;
    000004A7 DD 36 EB 00      [19] 1227 	ld	-21 (ix), #0x00
                                   1228 ;E:\Dropbox\FAUSTO\SVILUPPI\MSX\CODE\C\MSXgl\projects\exsoccer/exsoccer_s2_b0.c:209: bool obstacleFrontNonGK = false;
    000004AB DD 36 EC 00      [19] 1229 	ld	-20 (ix), #0x00
                                   1230 ;E:\Dropbox\FAUSTO\SVILUPPI\MSX\CODE\C\MSXgl\projects\exsoccer/exsoccer_s2_b0.c:210: bool dangerousOpponent = false;
    000004AF DD 36 ED 00      [19] 1231 	ld	-19 (ix), #0x00
                                   1232 ;E:\Dropbox\FAUSTO\SVILUPPI\MSX\CODE\C\MSXgl\projects\exsoccer/exsoccer_s2_b0.c:213: for(i=0; i<14; i++) { 
    000004B3 E1               [10] 1233 	pop	hl
    000004B4 E5               [11] 1234 	push	hl
    000004B5 7E               [ 7] 1235 	ld	a, (hl)
    000004B6 DD 77 EE         [19] 1236 	ld	-18 (ix), a
    000004B9 23               [ 6] 1237 	inc	hl
    000004BA 7E               [ 7] 1238 	ld	a, (hl)
    000004BB DD 77 EF         [19] 1239 	ld	-17 (ix), a
    000004BE AF               [ 4] 1240 	xor	a, a
    000004BF DD 77 FE         [19] 1241 	ld	-2 (ix), a
    000004C2 DD 77 FF         [19] 1242 	ld	-1 (ix), a
    000004C5                       1243 00539$:
                                   1244 ;E:\Dropbox\FAUSTO\SVILUPPI\MSX\CODE\C\MSXgl\projects\exsoccer/exsoccer_s2_b0.c:214: if (g_Players[i].TeamId == playerTeamId) continue;
    000004C5 DD 4E FE         [19] 1245 	ld	c, -2 (ix)
    000004C8 DD 46 FF         [19] 1246 	ld	b, -1 (ix)
    000004CB 69               [ 4] 1247 	ld	l, c
    000004CC 60               [ 4] 1248 	ld	h, b
    000004CD 29               [11] 1249 	add	hl, hl
    000004CE 29               [11] 1250 	add	hl, hl
    000004CF 29               [11] 1251 	add	hl, hl
    000004D0 29               [11] 1252 	add	hl, hl
    000004D1 09               [11] 1253 	add	hl, bc
    000004D2 DD 75 FB         [19] 1254 	ld	-5 (ix), l
    000004D5 DD 74 FC         [19] 1255 	ld	-4 (ix), h
    000004D8 DD 7E FB         [19] 1256 	ld	a, -5 (ix)
    000004DB C6r00            [ 7] 1257 	add	a, #<(_g_Players)
    000004DD DD 77 F0         [19] 1258 	ld	-16 (ix), a
    000004E0 DD 7E FC         [19] 1259 	ld	a, -4 (ix)
    000004E3 CEs00            [ 7] 1260 	adc	a, #>(_g_Players)
    000004E5 DD 77 F1         [19] 1261 	ld	-15 (ix), a
    000004E8 DD 4E F0         [19] 1262 	ld	c, -16 (ix)
    000004EB DD 46 F1         [19] 1263 	ld	b, -15 (ix)
    000004EE 21 05 00         [10] 1264 	ld	hl, #5
    000004F1 09               [11] 1265 	add	hl, bc
    000004F2 DD 7E E1         [19] 1266 	ld	a,-31 (ix)
    000004F5 96               [ 7] 1267 	sub	a,(hl)
    000004F6 CArD3r06         [10] 1268 	jp	Z,00228$
                                   1269 ;E:\Dropbox\FAUSTO\SVILUPPI\MSX\CODE\C\MSXgl\projects\exsoccer/exsoccer_s2_b0.c:215: if (g_Players[i].Status == PLAYER_STATUS_NONE) continue;
    000004F9 DD 4E F0         [19] 1270 	ld	c, -16 (ix)
    000004FC DD 46 F1         [19] 1271 	ld	b, -15 (ix)
    000004FF 21 0E 00         [10] 1272 	ld	hl, #14
    00000502 09               [11] 1273 	add	hl, bc
    00000503 7E               [ 7] 1274 	ld	a, (hl)
    00000504 23               [ 6] 1275 	inc	hl
    00000505 B6               [ 7] 1276 	or	a, (hl)
    00000506 CArD3r06         [10] 1277 	jp	Z, 00228$
                                   1278 ;E:\Dropbox\FAUSTO\SVILUPPI\MSX\CODE\C\MSXgl\projects\exsoccer/exsoccer_s2_b0.c:216: if (i == playerId) continue;
    00000509 DD 4E FD         [19] 1279 	ld	c, -3 (ix)
    0000050C 06 00            [ 7] 1280 	ld	b, #0x00
    0000050E DD 6E FE         [19] 1281 	ld	l, -2 (ix)
    00000511 DD 66 FF         [19] 1282 	ld	h, -1 (ix)
    00000514 BF               [ 4] 1283 	cp	a, a
    00000515 ED 42            [15] 1284 	sbc	hl, bc
    00000517 CArD3r06         [10] 1285 	jp	Z,00228$
                                   1286 ;E:\Dropbox\FAUSTO\SVILUPPI\MSX\CODE\C\MSXgl\projects\exsoccer/exsoccer_s2_b0.c:218: i16 relX = (i16)g_Players[i].X - (i16)g_Players[playerId].X;
    0000051A DD 6E F0         [19] 1287 	ld	l, -16 (ix)
                                   1288 ;	spillPairReg hl
                                   1289 ;	spillPairReg hl
    0000051D DD 66 F1         [19] 1290 	ld	h, -15 (ix)
                                   1291 ;	spillPairReg hl
                                   1292 ;	spillPairReg hl
    00000520 23               [ 6] 1293 	inc	hl
    00000521 23               [ 6] 1294 	inc	hl
    00000522 5E               [ 7] 1295 	ld	e, (hl)
    00000523 23               [ 6] 1296 	inc	hl
    00000524 56               [ 7] 1297 	ld	d, (hl)
    00000525 EB               [ 4] 1298 	ex	de, hl
    00000526 DD 4E E5         [19] 1299 	ld	c, -27 (ix)
    00000529 DD 46 E6         [19] 1300 	ld	b, -26 (ix)
    0000052C BF               [ 4] 1301 	cp	a, a
    0000052D ED 42            [15] 1302 	sbc	hl, bc
    0000052F DD 75 F2         [19] 1303 	ld	-14 (ix), l
    00000532 DD 74 F3         [19] 1304 	ld	-13 (ix), h
                                   1305 ;E:\Dropbox\FAUSTO\SVILUPPI\MSX\CODE\C\MSXgl\projects\exsoccer/exsoccer_s2_b0.c:219: i16 relY = (i16)g_Players[i].Y - (i16)g_Players[playerId].Y;
    00000535 DD 6E F0         [19] 1306 	ld	l, -16 (ix)
    00000538 DD 66 F1         [19] 1307 	ld	h, -15 (ix)
    0000053B 5E               [ 7] 1308 	ld	e, (hl)
    0000053C 23               [ 6] 1309 	inc	hl
    0000053D 56               [ 7] 1310 	ld	d, (hl)
    0000053E EB               [ 4] 1311 	ex	de, hl
    0000053F DD 4E EE         [19] 1312 	ld	c, -18 (ix)
    00000542 DD 46 EF         [19] 1313 	ld	b, -17 (ix)
    00000545 BF               [ 4] 1314 	cp	a, a
    00000546 ED 42            [15] 1315 	sbc	hl, bc
    00000548 DD 75 F4         [19] 1316 	ld	-12 (ix), l
    0000054B DD 74 F5         [19] 1317 	ld	-11 (ix), h
                                   1318 ;E:\Dropbox\FAUSTO\SVILUPPI\MSX\CODE\C\MSXgl\projects\exsoccer/exsoccer_s2_b0.c:225: bool isFront = false;
    0000054E DD 36 F6 00      [19] 1319 	ld	-10 (ix), #0x00
                                   1320 ;E:\Dropbox\FAUSTO\SVILUPPI\MSX\CODE\C\MSXgl\projects\exsoccer/exsoccer_s2_b0.c:226: bool isBehind = false;
    00000552 DD 36 FC 00      [19] 1321 	ld	-4 (ix), #0x00
                                   1322 ;E:\Dropbox\FAUSTO\SVILUPPI\MSX\CODE\C\MSXgl\projects\exsoccer/exsoccer_s2_b0.c:229: if (relY < 0 && relY > -obstacleDetDist) isFront = true;
    00000556 DD 7E F4         [19] 1323 	ld	a, -12 (ix)
    00000559 DD 77 F7         [19] 1324 	ld	-9 (ix), a
    0000055C DD 7E F5         [19] 1325 	ld	a, -11 (ix)
    0000055F DD 77 F8         [19] 1326 	ld	-8 (ix), a
                                   1327 ;E:\Dropbox\FAUSTO\SVILUPPI\MSX\CODE\C\MSXgl\projects\exsoccer/exsoccer_s2_b0.c:228: if (playerTeamId == TEAM_1) { // Moving UP (Y decreases)
    00000562 DD 7E E2         [19] 1328 	ld	a, -30 (ix)
    00000565 B7               [ 4] 1329 	or	a, a
    00000566 28 2B            [12] 1330 	jr	Z, 00205$
                                   1331 ;E:\Dropbox\FAUSTO\SVILUPPI\MSX\CODE\C\MSXgl\projects\exsoccer/exsoccer_s2_b0.c:229: if (relY < 0 && relY > -obstacleDetDist) isFront = true;
    00000568 DD 7E F8         [19] 1332 	ld	a, -8 (ix)
    0000056B 07               [ 4] 1333 	rlca
    0000056C E6 01            [ 7] 1334 	and	a,#0x01
    0000056E 4F               [ 4] 1335 	ld	c, a
    0000056F B7               [ 4] 1336 	or	a, a
    00000570 28 16            [12] 1337 	jr	Z, 00195$
    00000572 3E E0            [ 7] 1338 	ld	a, #0xe0
    00000574 DD BE F7         [19] 1339 	cp	a, -9 (ix)
    00000577 3E FF            [ 7] 1340 	ld	a, #0xff
    00000579 DD 9E F8         [19] 1341 	sbc	a, -8 (ix)
    0000057C E2r81r05         [10] 1342 	jp	PO, 01716$
    0000057F EE 80            [ 7] 1343 	xor	a, #0x80
    00000581                       1344 01716$:
    00000581 F2r88r05         [10] 1345 	jp	P, 00195$
    00000584 DD 36 F6 01      [19] 1346 	ld	-10 (ix), #0x01
    00000588                       1347 00195$:
                                   1348 ;E:\Dropbox\FAUSTO\SVILUPPI\MSX\CODE\C\MSXgl\projects\exsoccer/exsoccer_s2_b0.c:230: if (relY >= 0) isBehind = true;
    00000588 CB 41            [ 8] 1349 	bit	0, c
    0000058A 20 35            [12] 1350 	jr	NZ, 00206$
    0000058C DD 36 FC 01      [19] 1351 	ld	-4 (ix), #0x01
    00000590 C3rC1r05         [10] 1352 	jp	00206$
    00000593                       1353 00205$:
                                   1354 ;E:\Dropbox\FAUSTO\SVILUPPI\MSX\CODE\C\MSXgl\projects\exsoccer/exsoccer_s2_b0.c:232: if (relY > 0 && relY < obstacleDetDist) isFront = true;
    00000593 AF               [ 4] 1355 	xor	a, a
    00000594 DD BE F7         [19] 1356 	cp	a, -9 (ix)
    00000597 DD 9E F8         [19] 1357 	sbc	a, -8 (ix)
    0000059A E2r9Fr05         [10] 1358 	jp	PO, 01717$
    0000059D EE 80            [ 7] 1359 	xor	a, #0x80
    0000059F                       1360 01717$:
    0000059F 07               [ 4] 1361 	rlca
    000005A0 E6 01            [ 7] 1362 	and	a,#0x01
    000005A2 4F               [ 4] 1363 	ld	c, a
    000005A3 B7               [ 4] 1364 	or	a, a
    000005A4 28 13            [12] 1365 	jr	Z, 00200$
    000005A6 DD 7E F4         [19] 1366 	ld	a, -12 (ix)
    000005A9 D6 20            [ 7] 1367 	sub	a, #0x20
    000005AB DD 7E F5         [19] 1368 	ld	a, -11 (ix)
    000005AE 17               [ 4] 1369 	rla
    000005AF 3F               [ 4] 1370 	ccf
    000005B0 1F               [ 4] 1371 	rra
    000005B1 DE 80            [ 7] 1372 	sbc	a, #0x80
    000005B3 30 04            [12] 1373 	jr	NC, 00200$
    000005B5 DD 36 F6 01      [19] 1374 	ld	-10 (ix), #0x01
    000005B9                       1375 00200$:
                                   1376 ;E:\Dropbox\FAUSTO\SVILUPPI\MSX\CODE\C\MSXgl\projects\exsoccer/exsoccer_s2_b0.c:233: if (relY <= 0) isBehind = true;
    000005B9 CB 41            [ 8] 1377 	bit	0, c
    000005BB 20 04            [12] 1378 	jr	NZ, 00206$
    000005BD DD 36 FC 01      [19] 1379 	ld	-4 (ix), #0x01
    000005C1                       1380 00206$:
                                   1381 ;E:\Dropbox\FAUSTO\SVILUPPI\MSX\CODE\C\MSXgl\projects\exsoccer/exsoccer_s2_b0.c:238: u8 safeDist = isBehind ? 12 : 16; 
    000005C1 DD 7E FC         [19] 1382 	ld	a, -4 (ix)
    000005C4 B7               [ 4] 1383 	or	a, a
    000005C5 28 06            [12] 1384 	jr	Z, 00547$
    000005C7 01 0C 00         [10] 1385 	ld	bc, #0x000c
    000005CA C3rD0r05         [10] 1386 	jp	00548$
    000005CD                       1387 00547$:
    000005CD 01 10 00         [10] 1388 	ld	bc, #0x0010
    000005D0                       1389 00548$:
                                   1390 ;E:\Dropbox\FAUSTO\SVILUPPI\MSX\CODE\C\MSXgl\projects\exsoccer/exsoccer_s2_b0.c:239: if (relX > -safeDist && relX < safeDist && relY > -safeDist && relY < safeDist) {
    000005D0 79               [ 4] 1391 	ld	a, c
    000005D1 06 00            [ 7] 1392 	ld	b, #0x00
    000005D3 ED 44            [ 8] 1393 	neg
    000005D5 DD 77 F9         [19] 1394 	ld	-7 (ix), a
    000005D8 9F               [ 4] 1395 	sbc	a, a
    000005D9 90               [ 4] 1396 	sub	a, b
    000005DA DD 77 FA         [19] 1397 	ld	-6 (ix), a
    000005DD DD 7E F2         [19] 1398 	ld	a, -14 (ix)
    000005E0 DD 77 FB         [19] 1399 	ld	-5 (ix), a
    000005E3 DD 7E F3         [19] 1400 	ld	a, -13 (ix)
    000005E6 DD 77 FC         [19] 1401 	ld	-4 (ix), a
    000005E9 DD 7E F9         [19] 1402 	ld	a, -7 (ix)
    000005EC DD 96 FB         [19] 1403 	sub	a, -5 (ix)
    000005EF DD 7E FA         [19] 1404 	ld	a, -6 (ix)
    000005F2 DD 9E FC         [19] 1405 	sbc	a, -4 (ix)
    000005F5 E2rFAr05         [10] 1406 	jp	PO, 01718$
    000005F8 EE 80            [ 7] 1407 	xor	a, #0x80
    000005FA                       1408 01718$:
    000005FA F2r37r06         [10] 1409 	jp	P, 00208$
    000005FD 06 00            [ 7] 1410 	ld	b, #0x00
    000005FF DD 7E F2         [19] 1411 	ld	a, -14 (ix)
    00000602 91               [ 4] 1412 	sub	a, c
    00000603 DD 7E F3         [19] 1413 	ld	a, -13 (ix)
    00000606 98               [ 4] 1414 	sbc	a, b
    00000607 E2r0Cr06         [10] 1415 	jp	PO, 01719$
    0000060A EE 80            [ 7] 1416 	xor	a, #0x80
    0000060C                       1417 01719$:
    0000060C F2r37r06         [10] 1418 	jp	P, 00208$
    0000060F DD 7E F9         [19] 1419 	ld	a, -7 (ix)
    00000612 DD 96 F7         [19] 1420 	sub	a, -9 (ix)
    00000615 DD 7E FA         [19] 1421 	ld	a, -6 (ix)
    00000618 DD 9E F8         [19] 1422 	sbc	a, -8 (ix)
    0000061B E2r20r06         [10] 1423 	jp	PO, 01720$
    0000061E EE 80            [ 7] 1424 	xor	a, #0x80
    00000620                       1425 01720$:
    00000620 F2r37r06         [10] 1426 	jp	P, 00208$
    00000623 DD 7E F4         [19] 1427 	ld	a, -12 (ix)
    00000626 91               [ 4] 1428 	sub	a, c
    00000627 DD 7E F5         [19] 1429 	ld	a, -11 (ix)
    0000062A 98               [ 4] 1430 	sbc	a, b
    0000062B E2r30r06         [10] 1431 	jp	PO, 01721$
    0000062E EE 80            [ 7] 1432 	xor	a, #0x80
    00000630                       1433 01721$:
    00000630 F2r37r06         [10] 1434 	jp	P, 00208$
                                   1435 ;E:\Dropbox\FAUSTO\SVILUPPI\MSX\CODE\C\MSXgl\projects\exsoccer/exsoccer_s2_b0.c:240: dangerousOpponent = true;
    00000633 DD 36 ED 01      [19] 1436 	ld	-19 (ix), #0x01
    00000637                       1437 00208$:
                                   1438 ;E:\Dropbox\FAUSTO\SVILUPPI\MSX\CODE\C\MSXgl\projects\exsoccer/exsoccer_s2_b0.c:244: if (isFront && relX > -10 && relX < 10) {
    00000637 DD 7E F6         [19] 1439 	ld	a, -10 (ix)
    0000063A B7               [ 4] 1440 	or	a, a
    0000063B 28 37            [12] 1441 	jr	Z, 00215$
    0000063D 3E F6            [ 7] 1442 	ld	a, #0xf6
    0000063F DD BE F2         [19] 1443 	cp	a, -14 (ix)
    00000642 3E FF            [ 7] 1444 	ld	a, #0xff
    00000644 DD 9E F3         [19] 1445 	sbc	a, -13 (ix)
    00000647 E2r4Cr06         [10] 1446 	jp	PO, 01722$
    0000064A EE 80            [ 7] 1447 	xor	a, #0x80
    0000064C                       1448 01722$:
    0000064C F2r74r06         [10] 1449 	jp	P, 00215$
    0000064F DD 7E FB         [19] 1450 	ld	a, -5 (ix)
    00000652 D6 0A            [ 7] 1451 	sub	a, #0x0a
    00000654 DD 7E FC         [19] 1452 	ld	a, -4 (ix)
    00000657 17               [ 4] 1453 	rla
    00000658 3F               [ 4] 1454 	ccf
    00000659 1F               [ 4] 1455 	rra
    0000065A DE 80            [ 7] 1456 	sbc	a, #0x80
    0000065C 30 16            [12] 1457 	jr	NC, 00215$
                                   1458 ;E:\Dropbox\FAUSTO\SVILUPPI\MSX\CODE\C\MSXgl\projects\exsoccer/exsoccer_s2_b0.c:245: obstacleFront = true;
    0000065E DD 36 EB 01      [19] 1459 	ld	-21 (ix), #0x01
                                   1460 ;E:\Dropbox\FAUSTO\SVILUPPI\MSX\CODE\C\MSXgl\projects\exsoccer/exsoccer_s2_b0.c:246: if (g_Players[i].Role != PLAYER_ROLE_GOALKEEPER) obstacleFrontNonGK = true;
    00000662 DD 4E F0         [19] 1461 	ld	c, -16 (ix)
    00000665 DD 46 F1         [19] 1462 	ld	b, -15 (ix)
    00000668 21 09 00         [10] 1463 	ld	hl, #9
    0000066B 09               [11] 1464 	add	hl, bc
    0000066C 7E               [ 7] 1465 	ld	a, (hl)
    0000066D B7               [ 4] 1466 	or	a, a
    0000066E 28 04            [12] 1467 	jr	Z, 00215$
    00000670 DD 36 EC 01      [19] 1468 	ld	-20 (ix), #0x01
    00000674                       1469 00215$:
                                   1470 ;E:\Dropbox\FAUSTO\SVILUPPI\MSX\CODE\C\MSXgl\projects\exsoccer/exsoccer_s2_b0.c:249: if (isFront || (relY < 18 && relY > -18)) { 
    00000674 DD 7E F6         [19] 1471 	ld	a, -10 (ix)
    00000677 B7               [ 4] 1472 	or	a, a
    00000678 20 21            [12] 1473 	jr	NZ, 00224$
    0000067A DD 7E F7         [19] 1474 	ld	a, -9 (ix)
    0000067D D6 12            [ 7] 1475 	sub	a, #0x12
    0000067F DD 7E F8         [19] 1476 	ld	a, -8 (ix)
    00000682 17               [ 4] 1477 	rla
    00000683 3F               [ 4] 1478 	ccf
    00000684 1F               [ 4] 1479 	rra
    00000685 DE 80            [ 7] 1480 	sbc	a, #0x80
    00000687 30 4A            [12] 1481 	jr	NC, 00228$
    00000689 3E EE            [ 7] 1482 	ld	a, #0xee
    0000068B DD BE F4         [19] 1483 	cp	a, -12 (ix)
    0000068E 3E FF            [ 7] 1484 	ld	a, #0xff
    00000690 DD 9E F5         [19] 1485 	sbc	a, -11 (ix)
    00000693 E2r98r06         [10] 1486 	jp	PO, 01723$
    00000696 EE 80            [ 7] 1487 	xor	a, #0x80
    00000698                       1488 01723$:
    00000698 F2rD3r06         [10] 1489 	jp	P, 00228$
    0000069B                       1490 00224$:
                                   1491 ;E:\Dropbox\FAUSTO\SVILUPPI\MSX\CODE\C\MSXgl\projects\exsoccer/exsoccer_s2_b0.c:250: if (relX >= 0 && relX < 24) obstacleRight = true; // Obstacle is to my right
    0000069B DD 7E FC         [19] 1492 	ld	a, -4 (ix)
    0000069E 07               [ 4] 1493 	rlca
    0000069F E6 01            [ 7] 1494 	and	a,#0x01
    000006A1 5F               [ 4] 1495 	ld	e, a
    000006A2 CB 43            [ 8] 1496 	bit	0, e
    000006A4 20 13            [12] 1497 	jr	NZ, 00219$
    000006A6 DD 7E FB         [19] 1498 	ld	a, -5 (ix)
    000006A9 D6 18            [ 7] 1499 	sub	a, #0x18
    000006AB DD 7E FC         [19] 1500 	ld	a, -4 (ix)
    000006AE 17               [ 4] 1501 	rla
    000006AF 3F               [ 4] 1502 	ccf
    000006B0 1F               [ 4] 1503 	rra
    000006B1 DE 80            [ 7] 1504 	sbc	a, #0x80
    000006B3 30 04            [12] 1505 	jr	NC, 00219$
    000006B5 DD 36 E9 01      [19] 1506 	ld	-23 (ix), #0x01
    000006B9                       1507 00219$:
                                   1508 ;E:\Dropbox\FAUSTO\SVILUPPI\MSX\CODE\C\MSXgl\projects\exsoccer/exsoccer_s2_b0.c:251: if (relX < 0 && relX > -24) obstacleLeft = true; // Obstacle is to my left
    000006B9 7B               [ 4] 1509 	ld	a, e
    000006BA B7               [ 4] 1510 	or	a, a
    000006BB 28 16            [12] 1511 	jr	Z, 00228$
    000006BD 3E E8            [ 7] 1512 	ld	a, #0xe8
    000006BF DD BE F2         [19] 1513 	cp	a, -14 (ix)
    000006C2 3E FF            [ 7] 1514 	ld	a, #0xff
    000006C4 DD 9E F3         [19] 1515 	sbc	a, -13 (ix)
    000006C7 E2rCCr06         [10] 1516 	jp	PO, 01724$
    000006CA EE 80            [ 7] 1517 	xor	a, #0x80
    000006CC                       1518 01724$:
    000006CC F2rD3r06         [10] 1519 	jp	P, 00228$
    000006CF DD 36 EA 01      [19] 1520 	ld	-22 (ix), #0x01
    000006D3                       1521 00228$:
                                   1522 ;E:\Dropbox\FAUSTO\SVILUPPI\MSX\CODE\C\MSXgl\projects\exsoccer/exsoccer_s2_b0.c:213: for(i=0; i<14; i++) { 
    000006D3 DD 34 FE         [23] 1523 	inc	-2 (ix)
    000006D6 20 03            [12] 1524 	jr	NZ, 01725$
    000006D8 DD 34 FF         [23] 1525 	inc	-1 (ix)
    000006DB                       1526 01725$:
    000006DB DD 7E FE         [19] 1527 	ld	a, -2 (ix)
    000006DE D6 0E            [ 7] 1528 	sub	a, #0x0e
    000006E0 DD 7E FF         [19] 1529 	ld	a, -1 (ix)
    000006E3 17               [ 4] 1530 	rla
    000006E4 3F               [ 4] 1531 	ccf
    000006E5 1F               [ 4] 1532 	rra
    000006E6 DE 80            [ 7] 1533 	sbc	a, #0x80
    000006E8 DArC5r04         [10] 1534 	jp	C, 00539$
                                   1535 ;E:\Dropbox\FAUSTO\SVILUPPI\MSX\CODE\C\MSXgl\projects\exsoccer/exsoccer_s2_b0.c:260: bool isHumanControlled = false;
    000006EB DD 36 FE 00      [19] 1536 	ld	-2 (ix), #0x00
                                   1537 ;E:\Dropbox\FAUSTO\SVILUPPI\MSX\CODE\C\MSXgl\projects\exsoccer/exsoccer_s2_b0.c:261: if ((playerTeamId == TEAM_1 && g_Team1ActivePlayer == playerId) || 
    000006EF DD 7E E2         [19] 1538 	ld	a, -30 (ix)
    000006F2 B7               [ 4] 1539 	or	a, a
    000006F3 28 08            [12] 1540 	jr	Z, 00242$
    000006F5 3Ar00r00         [13] 1541 	ld	a, (_g_Team1ActivePlayer+0)
    000006F8 DD 96 FD         [19] 1542 	sub	a, -3 (ix)
    000006FB 28 15            [12] 1543 	jr	Z, 00237$
    000006FD                       1544 00242$:
                                   1545 ;E:\Dropbox\FAUSTO\SVILUPPI\MSX\CODE\C\MSXgl\projects\exsoccer/exsoccer_s2_b0.c:262: (playerTeamId == TEAM_2 && g_GameWith2Players && g_Team2ActivePlayer == playerId)) {
    000006FD DD 7E E1         [19] 1546 	ld	a, -31 (ix)
    00000700 D6 02            [ 7] 1547 	sub	a, #0x02
    00000702 20 12            [12] 1548 	jr	NZ, 00238$
    00000704 3Ar00r00         [13] 1549 	ld	a, (_g_GameWith2Players+0)
    00000707 B7               [ 4] 1550 	or	a, a
    00000708 28 0C            [12] 1551 	jr	Z, 00238$
    0000070A 3Ar00r00         [13] 1552 	ld	a, (_g_Team2ActivePlayer+0)
    0000070D DD 96 FD         [19] 1553 	sub	a, -3 (ix)
    00000710 20 04            [12] 1554 	jr	NZ, 00238$
    00000712                       1555 00237$:
                                   1556 ;E:\Dropbox\FAUSTO\SVILUPPI\MSX\CODE\C\MSXgl\projects\exsoccer/exsoccer_s2_b0.c:263: isHumanControlled = true;
    00000712 DD 36 FE 01      [19] 1557 	ld	-2 (ix), #0x01
    00000716                       1558 00238$:
                                   1559 ;E:\Dropbox\FAUSTO\SVILUPPI\MSX\CODE\C\MSXgl\projects\exsoccer/exsoccer_s2_b0.c:266: if (!isHumanControlled) {
    00000716 DD 7E FE         [19] 1560 	ld	a, -2 (ix)
    00000719 B7               [ 4] 1561 	or	a, a
    0000071A C2r42r08         [10] 1562 	jp	NZ, 00265$
                                   1563 ;E:\Dropbox\FAUSTO\SVILUPPI\MSX\CODE\C\MSXgl\projects\exsoccer/exsoccer_s2_b0.c:268: bool inRealShootingRange = false;
    0000071D DD 36 F9 00      [19] 1564 	ld	-7 (ix), #0x00
                                   1565 ;E:\Dropbox\FAUSTO\SVILUPPI\MSX\CODE\C\MSXgl\projects\exsoccer/exsoccer_s2_b0.c:269: bool inDangerousZone = false;
    00000721 DD 36 FA 00      [19] 1566 	ld	-6 (ix), #0x00
                                   1567 ;E:\Dropbox\FAUSTO\SVILUPPI\MSX\CODE\C\MSXgl\projects\exsoccer/exsoccer_s2_b0.c:272: if (playerTeamId == TEAM_1) {
    00000725 DD 7E E2         [19] 1568 	ld	a, -30 (ix)
    00000728 B7               [ 4] 1569 	or	a, a
    00000729 28 37            [12] 1570 	jr	Z, 00252$
                                   1571 ;E:\Dropbox\FAUSTO\SVILUPPI\MSX\CODE\C\MSXgl\projects\exsoccer/exsoccer_s2_b0.c:276: if (g_Players[playerId].Y < (FIELD_BOUND_Y_TOP + 90)) inRealShootingRange = true;
    0000072B DD 7E EE         [19] 1572 	ld	a, -18 (ix)
    0000072E DD 77 FB         [19] 1573 	ld	-5 (ix), a
    00000731 DD 7E EF         [19] 1574 	ld	a, -17 (ix)
    00000734 DD 77 FC         [19] 1575 	ld	-4 (ix), a
    00000737 DD 7E EE         [19] 1576 	ld	a, -18 (ix)
    0000073A D6 8C            [ 7] 1577 	sub	a, #0x8c
    0000073C DD 7E EF         [19] 1578 	ld	a, -17 (ix)
    0000073F DE 00            [ 7] 1579 	sbc	a, #0x00
    00000741 30 04            [12] 1580 	jr	NC, 00244$
    00000743 DD 36 F9 01      [19] 1581 	ld	-7 (ix), #0x01
    00000747                       1582 00244$:
                                   1583 ;E:\Dropbox\FAUSTO\SVILUPPI\MSX\CODE\C\MSXgl\projects\exsoccer/exsoccer_s2_b0.c:279: if (g_Players[playerId].Y < (FIELD_BOUND_Y_TOP + 60)) inDangerousZone = true; 
    00000747 DD 7E FB         [19] 1584 	ld	a, -5 (ix)
    0000074A D6 6E            [ 7] 1585 	sub	a, #0x6e
    0000074C DD 7E FC         [19] 1586 	ld	a, -4 (ix)
    0000074F DE 00            [ 7] 1587 	sbc	a, #0x00
    00000751 30 04            [12] 1588 	jr	NC, 00246$
    00000753 DD 36 FA 01      [19] 1589 	ld	-6 (ix), #0x01
    00000757                       1590 00246$:
                                   1591 ;E:\Dropbox\FAUSTO\SVILUPPI\MSX\CODE\C\MSXgl\projects\exsoccer/exsoccer_s2_b0.c:280: goalTargetY = FIELD_BOUND_Y_TOP - 10; 
    00000757 DD 36 FB 28      [19] 1592 	ld	-5 (ix), #0x28
    0000075B DD 36 FC 00      [19] 1593 	ld	-4 (ix), #0
    0000075F C3r96r07         [10] 1594 	jp	00253$
    00000762                       1595 00252$:
                                   1596 ;E:\Dropbox\FAUSTO\SVILUPPI\MSX\CODE\C\MSXgl\projects\exsoccer/exsoccer_s2_b0.c:284: if (g_Players[playerId].Y > (FIELD_BOUND_Y_BOTTOM - 90)) inRealShootingRange = true;
    00000762 DD 7E EE         [19] 1597 	ld	a, -18 (ix)
    00000765 DD 77 FB         [19] 1598 	ld	-5 (ix), a
    00000768 DD 7E EF         [19] 1599 	ld	a, -17 (ix)
    0000076B DD 77 FC         [19] 1600 	ld	-4 (ix), a
    0000076E 3E 54            [ 7] 1601 	ld	a, #0x54
    00000770 DD BE FB         [19] 1602 	cp	a, -5 (ix)
    00000773 3E 01            [ 7] 1603 	ld	a, #0x01
    00000775 DD 9E FC         [19] 1604 	sbc	a, -4 (ix)
    00000778 30 04            [12] 1605 	jr	NC, 00248$
    0000077A DD 36 F9 01      [19] 1606 	ld	-7 (ix), #0x01
    0000077E                       1607 00248$:
                                   1608 ;E:\Dropbox\FAUSTO\SVILUPPI\MSX\CODE\C\MSXgl\projects\exsoccer/exsoccer_s2_b0.c:287: if (g_Players[playerId].Y > (FIELD_BOUND_Y_BOTTOM - 60)) inDangerousZone = true;
    0000077E 3E 72            [ 7] 1609 	ld	a, #0x72
    00000780 DD BE FB         [19] 1610 	cp	a, -5 (ix)
    00000783 3E 01            [ 7] 1611 	ld	a, #0x01
    00000785 DD 9E FC         [19] 1612 	sbc	a, -4 (ix)
    00000788 30 04            [12] 1613 	jr	NC, 00250$
    0000078A DD 36 FA 01      [19] 1614 	ld	-6 (ix), #0x01
    0000078E                       1615 00250$:
                                   1616 ;E:\Dropbox\FAUSTO\SVILUPPI\MSX\CODE\C\MSXgl\projects\exsoccer/exsoccer_s2_b0.c:288: goalTargetY = FIELD_BOUND_Y_BOTTOM + 10; 
    0000078E DD 36 FB B8      [19] 1617 	ld	-5 (ix), #0xb8
    00000792 DD 36 FC 01      [19] 1618 	ld	-4 (ix), #0x01
    00000796                       1619 00253$:
                                   1620 ;E:\Dropbox\FAUSTO\SVILUPPI\MSX\CODE\C\MSXgl\projects\exsoccer/exsoccer_s2_b0.c:292: if (g_Players[playerId].Role == PLAYER_ROLE_GOALKEEPER) {
    00000796 C1               [10] 1621 	pop	bc
    00000797 C5               [11] 1622 	push	bc
    00000798 21 09 00         [10] 1623 	ld	hl, #9
    0000079B 09               [11] 1624 	add	hl, bc
    0000079C 7E               [ 7] 1625 	ld	a, (hl)
    0000079D DD 77 FF         [19] 1626 	ld	-1 (ix), a
    000007A0 B7               [ 4] 1627 	or	a, a
    000007A1 20 08            [12] 1628 	jr	NZ, 00255$
                                   1629 ;E:\Dropbox\FAUSTO\SVILUPPI\MSX\CODE\C\MSXgl\projects\exsoccer/exsoccer_s2_b0.c:293: inRealShootingRange = false;
    000007A3 DD 36 F9 00      [19] 1630 	ld	-7 (ix), #0x00
                                   1631 ;E:\Dropbox\FAUSTO\SVILUPPI\MSX\CODE\C\MSXgl\projects\exsoccer/exsoccer_s2_b0.c:294: inDangerousZone = false;
    000007A7 DD 36 FA 00      [19] 1632 	ld	-6 (ix), #0x00
    000007AB                       1633 00255$:
                                   1634 ;E:\Dropbox\FAUSTO\SVILUPPI\MSX\CODE\C\MSXgl\projects\exsoccer/exsoccer_s2_b0.c:297: if (inRealShootingRange) {
    000007AB DD 7E F9         [19] 1635 	ld	a, -7 (ix)
    000007AE B7               [ 4] 1636 	or	a, a
    000007AF CAr42r08         [10] 1637 	jp	Z, 00265$
                                   1638 ;E:\Dropbox\FAUSTO\SVILUPPI\MSX\CODE\C\MSXgl\projects\exsoccer/exsoccer_s2_b0.c:306: bool clearShot = !obstacleFrontNonGK;
    000007B2 DD 7E EC         [19] 1639 	ld	a, -20 (ix)
    000007B5 D6 01            [ 7] 1640 	sub	a,#0x01
    000007B7 3E 00            [ 7] 1641 	ld	a, #0x00
    000007B9 17               [ 4] 1642 	rla
    000007BA DD 77 FF         [19] 1643 	ld	-1 (ix), a
                                   1644 ;E:\Dropbox\FAUSTO\SVILUPPI\MSX\CODE\C\MSXgl\projects\exsoccer/exsoccer_s2_b0.c:309: if (inDangerousZone) clearShot = true;
    000007BD DD 7E FA         [19] 1645 	ld	a, -6 (ix)
    000007C0 B7               [ 4] 1646 	or	a, a
    000007C1 28 04            [12] 1647 	jr	Z, 00257$
    000007C3 DD 36 FF 01      [19] 1648 	ld	-1 (ix), #0x01
    000007C7                       1649 00257$:
                                   1650 ;E:\Dropbox\FAUSTO\SVILUPPI\MSX\CODE\C\MSXgl\projects\exsoccer/exsoccer_s2_b0.c:313: if (clearShot) {
    000007C7 DD 7E FF         [19] 1651 	ld	a, -1 (ix)
    000007CA B7               [ 4] 1652 	or	a, a
    000007CB 28 75            [12] 1653 	jr	Z, 00265$
                                   1654 ;E:\Dropbox\FAUSTO\SVILUPPI\MSX\CODE\C\MSXgl\projects\exsoccer/exsoccer_s2_b0.c:314: u16 shotX = 86 + ((g_FrameCounter + playerId * 13) % 68);
    000007CD DD 7E FD         [19] 1655 	ld	a, -3 (ix)
    000007D0 DD 77 FE         [19] 1656 	ld	-2 (ix), a
    000007D3 DD 36 FF 00      [19] 1657 	ld	-1 (ix), #0x00
    000007D7 4F               [ 4] 1658 	ld	c, a
    000007D8 06 00            [ 7] 1659 	ld	b, #0x00
    000007DA 69               [ 4] 1660 	ld	l, c
    000007DB 60               [ 4] 1661 	ld	h, b
    000007DC 29               [11] 1662 	add	hl, hl
    000007DD 09               [11] 1663 	add	hl, bc
    000007DE 29               [11] 1664 	add	hl, hl
    000007DF 29               [11] 1665 	add	hl, hl
    000007E0 09               [11] 1666 	add	hl, bc
    000007E1 DD 75 FE         [19] 1667 	ld	-2 (ix), l
    000007E4 DD 74 FF         [19] 1668 	ld	-1 (ix), h
    000007E7 2Ar00r00         [16] 1669 	ld	hl, (_g_FrameCounter)
    000007EA DD 75 F7         [19] 1670 	ld	-9 (ix), l
    000007ED DD 74 F8         [19] 1671 	ld	-8 (ix), h
    000007F0 DD 7E FE         [19] 1672 	ld	a, -2 (ix)
    000007F3 DD 77 F9         [19] 1673 	ld	-7 (ix), a
    000007F6 DD 7E FF         [19] 1674 	ld	a, -1 (ix)
    000007F9 DD 77 FA         [19] 1675 	ld	-6 (ix), a
    000007FC DD 7E F9         [19] 1676 	ld	a, -7 (ix)
    000007FF DD 86 F7         [19] 1677 	add	a, -9 (ix)
    00000802 DD 77 FE         [19] 1678 	ld	-2 (ix), a
    00000805 DD 7E FA         [19] 1679 	ld	a, -6 (ix)
    00000808 DD 8E F8         [19] 1680 	adc	a, -8 (ix)
    0000080B DD 77 FF         [19] 1681 	ld	-1 (ix), a
    0000080E 11 44 00         [10] 1682 	ld	de, #0x0044
    00000811 DD 6E FE         [19] 1683 	ld	l, -2 (ix)
                                   1684 ;	spillPairReg hl
                                   1685 ;	spillPairReg hl
    00000814 DD 66 FF         [19] 1686 	ld	h, -1 (ix)
                                   1687 ;	spillPairReg hl
                                   1688 ;	spillPairReg hl
    00000817 CDr00r00         [17] 1689 	call	__moduint
    0000081A DD 73 F9         [19] 1690 	ld	-7 (ix), e
    0000081D DD 72 FA         [19] 1691 	ld	-6 (ix), d
    00000820 DD 7E F9         [19] 1692 	ld	a, -7 (ix)
    00000823 C6 56            [ 7] 1693 	add	a, #0x56
    00000825 DD 77 FE         [19] 1694 	ld	-2 (ix), a
    00000828 DD 7E FA         [19] 1695 	ld	a, -6 (ix)
    0000082B CE 00            [ 7] 1696 	adc	a, #0x00
    0000082D DD 77 FF         [19] 1697 	ld	-1 (ix), a
                                   1698 ;E:\Dropbox\FAUSTO\SVILUPPI\MSX\CODE\C\MSXgl\projects\exsoccer/exsoccer_s2_b0.c:315: PerformShot(shotX, goalTargetY);
    00000830 DD 5E FB         [19] 1699 	ld	e, -5 (ix)
    00000833 DD 56 FC         [19] 1700 	ld	d, -4 (ix)
    00000836 DD 6E FE         [19] 1701 	ld	l, -2 (ix)
                                   1702 ;	spillPairReg hl
                                   1703 ;	spillPairReg hl
    00000839 DD 66 FF         [19] 1704 	ld	h, -1 (ix)
                                   1705 ;	spillPairReg hl
                                   1706 ;	spillPairReg hl
    0000083C CDrBCr33         [17] 1707 	call	_PerformShot
                                   1708 ;E:\Dropbox\FAUSTO\SVILUPPI\MSX\CODE\C\MSXgl\projects\exsoccer/exsoccer_s2_b0.c:316: return;
    0000083F C3r89r17         [10] 1709 	jp	00545$
    00000842                       1710 00265$:
                                   1711 ;E:\Dropbox\FAUSTO\SVILUPPI\MSX\CODE\C\MSXgl\projects\exsoccer/exsoccer_s2_b0.c:322: bool shouldPass = false;
    00000842 DD 36 FB 00      [19] 1712 	ld	-5 (ix), #0x00
                                   1713 ;E:\Dropbox\FAUSTO\SVILUPPI\MSX\CODE\C\MSXgl\projects\exsoccer/exsoccer_s2_b0.c:323: bool isPanicPass = false;
    00000846 DD 36 FF 00      [19] 1714 	ld	-1 (ix), #0x00
                                   1715 ;E:\Dropbox\FAUSTO\SVILUPPI\MSX\CODE\C\MSXgl\projects\exsoccer/exsoccer_s2_b0.c:329: bool checkPassing = false;
    0000084A DD 36 FC 00      [19] 1716 	ld	-4 (ix), #0x00
                                   1717 ;E:\Dropbox\FAUSTO\SVILUPPI\MSX\CODE\C\MSXgl\projects\exsoccer/exsoccer_s2_b0.c:331: if (dangerousOpponent) {
    0000084E DD 7E ED         [19] 1718 	ld	a, -19 (ix)
    00000851 B7               [ 4] 1719 	or	a, a
    00000852 28 0B            [12] 1720 	jr	Z, 00276$
                                   1721 ;E:\Dropbox\FAUSTO\SVILUPPI\MSX\CODE\C\MSXgl\projects\exsoccer/exsoccer_s2_b0.c:333: shouldPass = true;
    00000854 DD 36 FB 01      [19] 1722 	ld	-5 (ix), #0x01
                                   1723 ;E:\Dropbox\FAUSTO\SVILUPPI\MSX\CODE\C\MSXgl\projects\exsoccer/exsoccer_s2_b0.c:334: isPanicPass = true;
    00000858 DD 36 FF 01      [19] 1724 	ld	-1 (ix), #0x01
    0000085C C3rCEr08         [10] 1725 	jp	00277$
    0000085F                       1726 00276$:
                                   1727 ;E:\Dropbox\FAUSTO\SVILUPPI\MSX\CODE\C\MSXgl\projects\exsoccer/exsoccer_s2_b0.c:336: else if (obstacleFront) {
    0000085F DD 7E EB         [19] 1728 	ld	a, -21 (ix)
    00000862 B7               [ 4] 1729 	or	a, a
    00000863 28 5E            [12] 1730 	jr	Z, 00273$
                                   1731 ;E:\Dropbox\FAUSTO\SVILUPPI\MSX\CODE\C\MSXgl\projects\exsoccer/exsoccer_s2_b0.c:339: bool canGoRight = (g_Players[playerId].X < FIELD_BOUND_X_RIGHT - 20) && !obstacleRight;
    00000865 DD 7E E5         [19] 1732 	ld	a, -27 (ix)
    00000868 D6 E2            [ 7] 1733 	sub	a, #0xe2
    0000086A DD 7E E6         [19] 1734 	ld	a, -26 (ix)
    0000086D DE 00            [ 7] 1735 	sbc	a, #0x00
    0000086F 30 06            [12] 1736 	jr	NC, 00549$
    00000871 DD 7E E9         [19] 1737 	ld	a, -23 (ix)
    00000874 B7               [ 4] 1738 	or	a, a
    00000875 28 07            [12] 1739 	jr	Z, 00550$
    00000877                       1740 00549$:
    00000877 DD 36 FB 00      [19] 1741 	ld	-5 (ix), #0x00
    0000087B C3r82r08         [10] 1742 	jp	00551$
    0000087E                       1743 00550$:
    0000087E DD 36 FB 01      [19] 1744 	ld	-5 (ix), #0x01
    00000882                       1745 00551$:
    00000882 DD 7E FB         [19] 1746 	ld	a, -5 (ix)
    00000885 DD 77 FA         [19] 1747 	ld	-6 (ix), a
                                   1748 ;E:\Dropbox\FAUSTO\SVILUPPI\MSX\CODE\C\MSXgl\projects\exsoccer/exsoccer_s2_b0.c:340: bool canGoLeft = (g_Players[playerId].X > FIELD_BOUND_X_LEFT + 20) && !obstacleLeft;
    00000888 3E 1E            [ 7] 1749 	ld	a, #0x1e
    0000088A DD BE E5         [19] 1750 	cp	a, -27 (ix)
    0000088D 3E 00            [ 7] 1751 	ld	a, #0x00
    0000088F DD 9E E6         [19] 1752 	sbc	a, -26 (ix)
    00000892 30 06            [12] 1753 	jr	NC, 00552$
    00000894 DD 7E EA         [19] 1754 	ld	a, -22 (ix)
    00000897 B7               [ 4] 1755 	or	a, a
    00000898 28 07            [12] 1756 	jr	Z, 00553$
    0000089A                       1757 00552$:
    0000089A DD 36 FB 00      [19] 1758 	ld	-5 (ix), #0x00
    0000089E C3rA5r08         [10] 1759 	jp	00554$
    000008A1                       1760 00553$:
    000008A1 DD 36 FB 01      [19] 1761 	ld	-5 (ix), #0x01
    000008A5                       1762 00554$:
    000008A5 DD 4E FB         [19] 1763 	ld	c, -5 (ix)
                                   1764 ;E:\Dropbox\FAUSTO\SVILUPPI\MSX\CODE\C\MSXgl\projects\exsoccer/exsoccer_s2_b0.c:342: if (canGoRight || canGoLeft) {
    000008A8 DD 7E FA         [19] 1765 	ld	a, -6 (ix)
    000008AB B7               [ 4] 1766 	or	a,a
    000008AC 20 03            [12] 1767 	jr	NZ, 00266$
    000008AE B1               [ 4] 1768 	or	a,c
    000008AF 28 07            [12] 1769 	jr	Z, 00267$
    000008B1                       1770 00266$:
                                   1771 ;E:\Dropbox\FAUSTO\SVILUPPI\MSX\CODE\C\MSXgl\projects\exsoccer/exsoccer_s2_b0.c:344: shouldPass = false;
    000008B1 DD 36 FB 00      [19] 1772 	ld	-5 (ix), #0x00
    000008B5 C3rCEr08         [10] 1773 	jp	00277$
    000008B8                       1774 00267$:
                                   1775 ;E:\Dropbox\FAUSTO\SVILUPPI\MSX\CODE\C\MSXgl\projects\exsoccer/exsoccer_s2_b0.c:347: shouldPass = true;
    000008B8 DD 36 FB 01      [19] 1776 	ld	-5 (ix), #0x01
                                   1777 ;E:\Dropbox\FAUSTO\SVILUPPI\MSX\CODE\C\MSXgl\projects\exsoccer/exsoccer_s2_b0.c:348: isPanicPass = true;
    000008BC DD 36 FF 01      [19] 1778 	ld	-1 (ix), #0x01
    000008C0 C3rCEr08         [10] 1779 	jp	00277$
    000008C3                       1780 00273$:
                                   1781 ;E:\Dropbox\FAUSTO\SVILUPPI\MSX\CODE\C\MSXgl\projects\exsoccer/exsoccer_s2_b0.c:354: if ((g_FrameCounter & 1) == 0) checkPassing = true;
    000008C3 2Ar00r00         [16] 1782 	ld	hl, (_g_FrameCounter)
    000008C6 CB 45            [ 8] 1783 	bit	0, l
    000008C8 20 04            [12] 1784 	jr	NZ, 00277$
    000008CA DD 36 FC 01      [19] 1785 	ld	-4 (ix), #0x01
    000008CE                       1786 00277$:
                                   1787 ;E:\Dropbox\FAUSTO\SVILUPPI\MSX\CODE\C\MSXgl\projects\exsoccer/exsoccer_s2_b0.c:357: if (checkPassing) {
    000008CE DD 7E FC         [19] 1788 	ld	a, -4 (ix)
    000008D1 B7               [ 4] 1789 	or	a, a
    000008D2 28 08            [12] 1790 	jr	Z, 00279$
                                   1791 ;E:\Dropbox\FAUSTO\SVILUPPI\MSX\CODE\C\MSXgl\projects\exsoccer/exsoccer_s2_b0.c:360: shouldPass = true; 
    000008D4 DD 36 FB 01      [19] 1792 	ld	-5 (ix), #0x01
                                   1793 ;E:\Dropbox\FAUSTO\SVILUPPI\MSX\CODE\C\MSXgl\projects\exsoccer/exsoccer_s2_b0.c:361: isPanicPass = false;
    000008D8 DD 36 FF 00      [19] 1794 	ld	-1 (ix), #0x00
    000008DC                       1795 00279$:
                                   1796 ;E:\Dropbox\FAUSTO\SVILUPPI\MSX\CODE\C\MSXgl\projects\exsoccer/exsoccer_s2_b0.c:364: if (shouldPass) {
    000008DC DD 7E FB         [19] 1797 	ld	a, -5 (ix)
    000008DF B7               [ 4] 1798 	or	a, a
    000008E0 CAr30r0B         [10] 1799 	jp	Z, 00312$
                                   1800 ;E:\Dropbox\FAUSTO\SVILUPPI\MSX\CODE\C\MSXgl\projects\exsoccer/exsoccer_s2_b0.c:365: if (!isHumanControlled) {
    000008E3 DD 7E FE         [19] 1801 	ld	a, -2 (ix)
    000008E6 B7               [ 4] 1802 	or	a, a
    000008E7 C2r30r0B         [10] 1803 	jp	NZ, 00312$
                                   1804 ;E:\Dropbox\FAUSTO\SVILUPPI\MSX\CODE\C\MSXgl\projects\exsoccer/exsoccer_s2_b0.c:366: u8 bestT = NO_VALUE;
    000008EA DD 36 FE FF      [19] 1805 	ld	-2 (ix), #0xff
                                   1806 ;E:\Dropbox\FAUSTO\SVILUPPI\MSX\CODE\C\MSXgl\projects\exsoccer/exsoccer_s2_b0.c:367: i32 bestScore = -2100000000;
    000008EE DD 36 F5 00      [19] 1807 	ld	-11 (ix), #0x00
    000008F2 DD 36 F6 8B      [19] 1808 	ld	-10 (ix), #0x8b
    000008F6 DD 36 F7 D4      [19] 1809 	ld	-9 (ix), #0xd4
    000008FA DD 36 F8 82      [19] 1810 	ld	-8 (ix), #0x82
                                   1811 ;E:\Dropbox\FAUSTO\SVILUPPI\MSX\CODE\C\MSXgl\projects\exsoccer/exsoccer_s2_b0.c:369: for(t=0; t<14; t++) {
    000008FE DD 7E EE         [19] 1812 	ld	a, -18 (ix)
    00000901 DD 77 F9         [19] 1813 	ld	-7 (ix), a
    00000904 DD 7E EF         [19] 1814 	ld	a, -17 (ix)
    00000907 DD 77 FA         [19] 1815 	ld	-6 (ix), a
    0000090A AF               [ 4] 1816 	xor	a, a
    0000090B DD 77 FB         [19] 1817 	ld	-5 (ix), a
    0000090E DD 77 FC         [19] 1818 	ld	-4 (ix), a
    00000911                       1819 00540$:
                                   1820 ;E:\Dropbox\FAUSTO\SVILUPPI\MSX\CODE\C\MSXgl\projects\exsoccer/exsoccer_s2_b0.c:370: if(g_Players[t].TeamId != playerTeamId) continue;
    00000911 DD 4E FB         [19] 1821 	ld	c, -5 (ix)
    00000914 DD 46 FC         [19] 1822 	ld	b, -4 (ix)
    00000917 69               [ 4] 1823 	ld	l, c
    00000918 60               [ 4] 1824 	ld	h, b
    00000919 29               [11] 1825 	add	hl, hl
    0000091A 29               [11] 1826 	add	hl, hl
    0000091B 29               [11] 1827 	add	hl, hl
    0000091C 29               [11] 1828 	add	hl, hl
    0000091D 09               [11] 1829 	add	hl, bc
    0000091E EB               [ 4] 1830 	ex	de, hl
    0000091F 21r00r00         [10] 1831 	ld	hl, #_g_Players
    00000922 19               [11] 1832 	add	hl, de
    00000923 DD 75 F3         [19] 1833 	ld	-13 (ix), l
    00000926 DD 74 F4         [19] 1834 	ld	-12 (ix), h
    00000929 4D               [ 4] 1835 	ld	c, l
    0000092A 44               [ 4] 1836 	ld	b, h
    0000092B 21 05 00         [10] 1837 	ld	hl, #5
    0000092E 09               [11] 1838 	add	hl, bc
    0000092F DD 7E E1         [19] 1839 	ld	a,-31 (ix)
    00000932 96               [ 7] 1840 	sub	a,(hl)
    00000933 C2rBCr0A         [10] 1841 	jp	NZ,00303$
                                   1842 ;E:\Dropbox\FAUSTO\SVILUPPI\MSX\CODE\C\MSXgl\projects\exsoccer/exsoccer_s2_b0.c:371: if(t == playerId) continue;
    00000936 DD 4E FD         [19] 1843 	ld	c, -3 (ix)
    00000939 06 00            [ 7] 1844 	ld	b, #0x00
    0000093B DD 6E FB         [19] 1845 	ld	l, -5 (ix)
    0000093E DD 66 FC         [19] 1846 	ld	h, -4 (ix)
    00000941 BF               [ 4] 1847 	cp	a, a
    00000942 ED 42            [15] 1848 	sbc	hl, bc
    00000944 CArBCr0A         [10] 1849 	jp	Z,00303$
                                   1850 ;E:\Dropbox\FAUSTO\SVILUPPI\MSX\CODE\C\MSXgl\projects\exsoccer/exsoccer_s2_b0.c:372: if(g_Players[t].Status == PLAYER_STATUS_NONE) continue;
    00000947 DD 4E F3         [19] 1851 	ld	c, -13 (ix)
    0000094A DD 46 F4         [19] 1852 	ld	b, -12 (ix)
    0000094D 21 0E 00         [10] 1853 	ld	hl, #14
    00000950 09               [11] 1854 	add	hl, bc
    00000951 7E               [ 7] 1855 	ld	a, (hl)
    00000952 23               [ 6] 1856 	inc	hl
    00000953 B6               [ 7] 1857 	or	a, (hl)
    00000954 CArBCr0A         [10] 1858 	jp	Z, 00303$
                                   1859 ;E:\Dropbox\FAUSTO\SVILUPPI\MSX\CODE\C\MSXgl\projects\exsoccer/exsoccer_s2_b0.c:373: if(g_Players[t].Role == PLAYER_ROLE_GOALKEEPER) continue;
    00000957 DD 4E F3         [19] 1860 	ld	c, -13 (ix)
    0000095A DD 46 F4         [19] 1861 	ld	b, -12 (ix)
    0000095D 21 09 00         [10] 1862 	ld	hl, #9
    00000960 09               [11] 1863 	add	hl, bc
    00000961 7E               [ 7] 1864 	ld	a, (hl)
    00000962 B7               [ 4] 1865 	or	a, a
    00000963 CArBCr0A         [10] 1866 	jp	Z, 00303$
                                   1867 ;E:\Dropbox\FAUSTO\SVILUPPI\MSX\CODE\C\MSXgl\projects\exsoccer/exsoccer_s2_b0.c:375: i16 dx = (i16)g_Players[t].X - (i16)g_Players[playerId].X;
    00000966 DD 6E F3         [19] 1868 	ld	l, -13 (ix)
                                   1869 ;	spillPairReg hl
                                   1870 ;	spillPairReg hl
    00000969 DD 66 F4         [19] 1871 	ld	h, -12 (ix)
                                   1872 ;	spillPairReg hl
                                   1873 ;	spillPairReg hl
    0000096C 23               [ 6] 1874 	inc	hl
    0000096D 23               [ 6] 1875 	inc	hl
    0000096E 4E               [ 7] 1876 	ld	c, (hl)
    0000096F 23               [ 6] 1877 	inc	hl
    00000970 46               [ 7] 1878 	ld	b, (hl)
    00000971 79               [ 4] 1879 	ld	a, c
    00000972 DD 5E E5         [19] 1880 	ld	e, -27 (ix)
    00000975 DD 56 E6         [19] 1881 	ld	d, -26 (ix)
    00000978 93               [ 4] 1882 	sub	a, e
    00000979 4F               [ 4] 1883 	ld	c, a
    0000097A 78               [ 4] 1884 	ld	a, b
    0000097B 9A               [ 4] 1885 	sbc	a, d
    0000097C 47               [ 4] 1886 	ld	b, a
                                   1887 ;E:\Dropbox\FAUSTO\SVILUPPI\MSX\CODE\C\MSXgl\projects\exsoccer/exsoccer_s2_b0.c:376: i16 dy = (i16)g_Players[t].Y - (i16)g_Players[playerId].Y;
    0000097D DD 6E F3         [19] 1888 	ld	l, -13 (ix)
    00000980 DD 66 F4         [19] 1889 	ld	h, -12 (ix)
    00000983 7E               [ 7] 1890 	ld	a, (hl)
    00000984 DD 77 EF         [19] 1891 	ld	-17 (ix), a
    00000987 23               [ 6] 1892 	inc	hl
    00000988 7E               [ 7] 1893 	ld	a, (hl)
    00000989 DD 77 F0         [19] 1894 	ld	-16 (ix), a
    0000098C DD 6E EF         [19] 1895 	ld	l, -17 (ix)
                                   1896 ;	spillPairReg hl
                                   1897 ;	spillPairReg hl
    0000098F DD 66 F0         [19] 1898 	ld	h, -16 (ix)
                                   1899 ;	spillPairReg hl
                                   1900 ;	spillPairReg hl
    00000992 DD 5E F9         [19] 1901 	ld	e, -7 (ix)
    00000995 DD 56 FA         [19] 1902 	ld	d, -6 (ix)
    00000998 BF               [ 4] 1903 	cp	a, a
    00000999 ED 52            [15] 1904 	sbc	hl, de
    0000099B DD 75 F1         [19] 1905 	ld	-15 (ix), l
    0000099E DD 74 F2         [19] 1906 	ld	-14 (ix), h
                                   1907 ;E:\Dropbox\FAUSTO\SVILUPPI\MSX\CODE\C\MSXgl\projects\exsoccer/exsoccer_s2_b0.c:377: u16 adx = (dx < 0) ? -dx : dx;
    000009A1 59               [ 4] 1908 	ld	e, c
    000009A2 50               [ 4] 1909 	ld	d, b
    000009A3 CB 7A            [ 8] 1910 	bit	7, d
    000009A5 28 08            [12] 1911 	jr	Z, 00555$
    000009A7 AF               [ 4] 1912 	xor	a, a
    000009A8 91               [ 4] 1913 	sub	a, c
    000009A9 4F               [ 4] 1914 	ld	c, a
    000009AA 9F               [ 4] 1915 	sbc	a, a
    000009AB 90               [ 4] 1916 	sub	a, b
    000009AC C3rB0r09         [10] 1917 	jp	00556$
    000009AF                       1918 00555$:
    000009AF 78               [ 4] 1919 	ld	a, b
    000009B0                       1920 00556$:
    000009B0 DD 71 F3         [19] 1921 	ld	-13 (ix), c
    000009B3 DD 77 F4         [19] 1922 	ld	-12 (ix), a
                                   1923 ;E:\Dropbox\FAUSTO\SVILUPPI\MSX\CODE\C\MSXgl\projects\exsoccer/exsoccer_s2_b0.c:378: u16 ady = (dy < 0) ? -dy : dy;
    000009B6 DD 46 F2         [19] 1924 	ld	b, -14 (ix)
    000009B9 CB 78            [ 8] 1925 	bit	7, b
    000009BB 28 11            [12] 1926 	jr	Z, 00557$
    000009BD AF               [ 4] 1927 	xor	a, a
    000009BE DD 96 F1         [19] 1928 	sub	a, -15 (ix)
    000009C1 DD 77 ED         [19] 1929 	ld	-19 (ix), a
    000009C4 9F               [ 4] 1930 	sbc	a, a
    000009C5 DD 96 F2         [19] 1931 	sub	a, -14 (ix)
    000009C8 DD 77 EE         [19] 1932 	ld	-18 (ix), a
    000009CB C3rDAr09         [10] 1933 	jp	00558$
    000009CE                       1934 00557$:
    000009CE DD 7E F1         [19] 1935 	ld	a, -15 (ix)
    000009D1 DD 77 ED         [19] 1936 	ld	-19 (ix), a
    000009D4 DD 7E F2         [19] 1937 	ld	a, -14 (ix)
    000009D7 DD 77 EE         [19] 1938 	ld	-18 (ix), a
    000009DA                       1939 00558$:
    000009DA DD 4E ED         [19] 1940 	ld	c, -19 (ix)
    000009DD DD 46 EE         [19] 1941 	ld	b, -18 (ix)
                                   1942 ;E:\Dropbox\FAUSTO\SVILUPPI\MSX\CODE\C\MSXgl\projects\exsoccer/exsoccer_s2_b0.c:379: if (adx < 40 && ady < 40) continue; // Minimum pass distance
    000009E0 DD 7E F3         [19] 1943 	ld	a, -13 (ix)
    000009E3 D6 28            [ 7] 1944 	sub	a, #0x28
    000009E5 DD 7E F4         [19] 1945 	ld	a, -12 (ix)
    000009E8 DE 00            [ 7] 1946 	sbc	a, #0x00
    000009EA 30 09            [12] 1947 	jr	NC, 00289$
    000009EC 79               [ 4] 1948 	ld	a, c
    000009ED D6 28            [ 7] 1949 	sub	a, #0x28
    000009EF 78               [ 4] 1950 	ld	a, b
    000009F0 DE 00            [ 7] 1951 	sbc	a, #0x00
    000009F2 DArBCr0A         [10] 1952 	jp	C, 00303$
    000009F5                       1953 00289$:
                                   1954 ;E:\Dropbox\FAUSTO\SVILUPPI\MSX\CODE\C\MSXgl\projects\exsoccer/exsoccer_s2_b0.c:382: if (g_Players[t].Y < g_FieldCurrentYPosition - 40 || 
    000009F5 3Ar00r00         [13] 1955 	ld	a, (_g_FieldCurrentYPosition+0)
    000009F8 C6 D8            [ 7] 1956 	add	a, #0xd8
    000009FA 5F               [ 4] 1957 	ld	e, a
    000009FB 3Ar01r00         [13] 1958 	ld	a, (_g_FieldCurrentYPosition+1)
    000009FE CE FF            [ 7] 1959 	adc	a, #0xff
    00000A00 57               [ 4] 1960 	ld	d, a
    00000A01 DD 4E EF         [19] 1961 	ld	c, -17 (ix)
    00000A04 DD 46 F0         [19] 1962 	ld	b, -16 (ix)
    00000A07 79               [ 4] 1963 	ld	a, c
    00000A08 93               [ 4] 1964 	sub	a, e
    00000A09 78               [ 4] 1965 	ld	a, b
    00000A0A 9A               [ 4] 1966 	sbc	a, d
    00000A0B DArBCr0A         [10] 1967 	jp	C, 00303$
                                   1968 ;E:\Dropbox\FAUSTO\SVILUPPI\MSX\CODE\C\MSXgl\projects\exsoccer/exsoccer_s2_b0.c:383: g_Players[t].Y > (g_FieldCurrentYPosition + 252)) continue;
    00000A0E 2Ar00r00         [16] 1969 	ld	hl, (_g_FieldCurrentYPosition)
    00000A11 11 FC 00         [10] 1970 	ld	de, #0x00fc
    00000A14 19               [11] 1971 	add	hl, de
    00000A15 AF               [ 4] 1972 	xor	a, a
    00000A16 ED 42            [15] 1973 	sbc	hl, bc
    00000A18 DArBCr0A         [10] 1974 	jp	C, 00303$
                                   1975 ;E:\Dropbox\FAUSTO\SVILUPPI\MSX\CODE\C\MSXgl\projects\exsoccer/exsoccer_s2_b0.c:385: i32 advanceScore = (playerTeamId == TEAM_1) ? -dy : dy;
    00000A1B DD 7E E2         [19] 1976 	ld	a, -30 (ix)
    00000A1E B7               [ 4] 1977 	or	a, a
    00000A1F 28 0C            [12] 1978 	jr	Z, 00559$
    00000A21 AF               [ 4] 1979 	xor	a, a
    00000A22 DD 96 F1         [19] 1980 	sub	a, -15 (ix)
    00000A25 4F               [ 4] 1981 	ld	c, a
    00000A26 9F               [ 4] 1982 	sbc	a, a
    00000A27 DD 96 F2         [19] 1983 	sub	a, -14 (ix)
    00000A2A C3r33r0A         [10] 1984 	jp	00560$
    00000A2D                       1985 00559$:
    00000A2D DD 4E F1         [19] 1986 	ld	c, -15 (ix)
    00000A30 DD 7E F2         [19] 1987 	ld	a, -14 (ix)
    00000A33                       1988 00560$:
    00000A33 47               [ 4] 1989 	ld	b, a
    00000A34 07               [ 4] 1990 	rlca
    00000A35 9F               [ 4] 1991 	sbc	a, a
    00000A36 5F               [ 4] 1992 	ld	e, a
    00000A37 57               [ 4] 1993 	ld	d, a
                                   1994 ;E:\Dropbox\FAUSTO\SVILUPPI\MSX\CODE\C\MSXgl\projects\exsoccer/exsoccer_s2_b0.c:388: if (!isPanicPass) {
    00000A38 DD 7E FF         [19] 1995 	ld	a, -1 (ix)
    00000A3B B7               [ 4] 1996 	or	a, a
    00000A3C 20 14            [12] 1997 	jr	NZ, 00299$
                                   1998 ;E:\Dropbox\FAUSTO\SVILUPPI\MSX\CODE\C\MSXgl\projects\exsoccer/exsoccer_s2_b0.c:389: if (advanceScore < 40) continue; // Must gain at least 40px ground
    00000A3E 79               [ 4] 1999 	ld	a, c
    00000A3F D6 28            [ 7] 2000 	sub	a, #0x28
    00000A41 78               [ 4] 2001 	ld	a, b
    00000A42 DE 00            [ 7] 2002 	sbc	a, #0x00
    00000A44 7B               [ 4] 2003 	ld	a, e
    00000A45 DE 00            [ 7] 2004 	sbc	a, #0x00
    00000A47 7A               [ 4] 2005 	ld	a, d
    00000A48 17               [ 4] 2006 	rla
    00000A49 3F               [ 4] 2007 	ccf
    00000A4A 1F               [ 4] 2008 	rra
    00000A4B DE 80            [ 7] 2009 	sbc	a, #0x80
    00000A4D 30 14            [12] 2010 	jr	NC, 00300$
    00000A4F C3rBCr0A         [10] 2011 	jp	00303$
    00000A52                       2012 00299$:
                                   2013 ;E:\Dropbox\FAUSTO\SVILUPPI\MSX\CODE\C\MSXgl\projects\exsoccer/exsoccer_s2_b0.c:392: if (advanceScore < -150) continue;
    00000A52 79               [ 4] 2014 	ld	a, c
    00000A53 D6 6A            [ 7] 2015 	sub	a, #0x6a
    00000A55 78               [ 4] 2016 	ld	a, b
    00000A56 DE FF            [ 7] 2017 	sbc	a, #0xff
    00000A58 7B               [ 4] 2018 	ld	a, e
    00000A59 DE FF            [ 7] 2019 	sbc	a, #0xff
    00000A5B 7A               [ 4] 2020 	ld	a, d
    00000A5C 17               [ 4] 2021 	rla
    00000A5D 3F               [ 4] 2022 	ccf
    00000A5E 1F               [ 4] 2023 	rra
    00000A5F DE 7F            [ 7] 2024 	sbc	a, #0x7f
    00000A61 38 59            [12] 2025 	jr	C, 00303$
    00000A63                       2026 00300$:
                                   2027 ;E:\Dropbox\FAUSTO\SVILUPPI\MSX\CODE\C\MSXgl\projects\exsoccer/exsoccer_s2_b0.c:395: i32 score = advanceScore - (adx/4); // Minimal lateral penalty
    00000A63 DD 6E F3         [19] 2028 	ld	l, -13 (ix)
    00000A66 DD 66 F4         [19] 2029 	ld	h, -12 (ix)
    00000A69 CB 3C            [ 8] 2030 	srl	h
    00000A6B CB 1D            [ 8] 2031 	rr	l
    00000A6D CB 3C            [ 8] 2032 	srl	h
    00000A6F CB 1D            [ 8] 2033 	rr	l
    00000A71 DD 75 F1         [19] 2034 	ld	-15 (ix), l
    00000A74 DD 74 F2         [19] 2035 	ld	-14 (ix), h
    00000A77 AF               [ 4] 2036 	xor	a, a
    00000A78 DD 77 F3         [19] 2037 	ld	-13 (ix), a
    00000A7B DD 77 F4         [19] 2038 	ld	-12 (ix), a
    00000A7E 79               [ 4] 2039 	ld	a, c
    00000A7F DD 96 F1         [19] 2040 	sub	a, -15 (ix)
    00000A82 4F               [ 4] 2041 	ld	c, a
    00000A83 78               [ 4] 2042 	ld	a, b
    00000A84 DD 9E F2         [19] 2043 	sbc	a, -14 (ix)
    00000A87 47               [ 4] 2044 	ld	b, a
    00000A88 7B               [ 4] 2045 	ld	a, e
    00000A89 DD 9E F3         [19] 2046 	sbc	a, -13 (ix)
    00000A8C 5F               [ 4] 2047 	ld	e, a
    00000A8D 7A               [ 4] 2048 	ld	a, d
    00000A8E DD 9E F4         [19] 2049 	sbc	a, -12 (ix)
    00000A91 57               [ 4] 2050 	ld	d, a
                                   2051 ;E:\Dropbox\FAUSTO\SVILUPPI\MSX\CODE\C\MSXgl\projects\exsoccer/exsoccer_s2_b0.c:397: if (score > bestScore) {
    00000A92 DD 7E F5         [19] 2052 	ld	a, -11 (ix)
    00000A95 91               [ 4] 2053 	sub	a, c
    00000A96 DD 7E F6         [19] 2054 	ld	a, -10 (ix)
    00000A99 98               [ 4] 2055 	sbc	a, b
    00000A9A DD 7E F7         [19] 2056 	ld	a, -9 (ix)
    00000A9D 9B               [ 4] 2057 	sbc	a, e
    00000A9E DD 7E F8         [19] 2058 	ld	a, -8 (ix)
    00000AA1 9A               [ 4] 2059 	sbc	a, d
    00000AA2 E2rA7r0A         [10] 2060 	jp	PO, 01736$
    00000AA5 EE 80            [ 7] 2061 	xor	a, #0x80
    00000AA7                       2062 01736$:
    00000AA7 F2rBCr0A         [10] 2063 	jp	P, 00303$
                                   2064 ;E:\Dropbox\FAUSTO\SVILUPPI\MSX\CODE\C\MSXgl\projects\exsoccer/exsoccer_s2_b0.c:398: bestScore = score;
    00000AAA DD 71 F5         [19] 2065 	ld	-11 (ix), c
    00000AAD DD 70 F6         [19] 2066 	ld	-10 (ix), b
    00000AB0 DD 73 F7         [19] 2067 	ld	-9 (ix), e
    00000AB3 DD 72 F8         [19] 2068 	ld	-8 (ix), d
                                   2069 ;E:\Dropbox\FAUSTO\SVILUPPI\MSX\CODE\C\MSXgl\projects\exsoccer/exsoccer_s2_b0.c:399: bestT = t;
    00000AB6 DD 7E FB         [19] 2070 	ld	a, -5 (ix)
    00000AB9 DD 77 FE         [19] 2071 	ld	-2 (ix), a
    00000ABC                       2072 00303$:
                                   2073 ;E:\Dropbox\FAUSTO\SVILUPPI\MSX\CODE\C\MSXgl\projects\exsoccer/exsoccer_s2_b0.c:369: for(t=0; t<14; t++) {
    00000ABC DD 34 FB         [23] 2074 	inc	-5 (ix)
    00000ABF 20 03            [12] 2075 	jr	NZ, 01737$
    00000AC1 DD 34 FC         [23] 2076 	inc	-4 (ix)
    00000AC4                       2077 01737$:
    00000AC4 DD 7E FB         [19] 2078 	ld	a, -5 (ix)
    00000AC7 D6 0E            [ 7] 2079 	sub	a, #0x0e
    00000AC9 DD 7E FC         [19] 2080 	ld	a, -4 (ix)
    00000ACC 17               [ 4] 2081 	rla
    00000ACD 3F               [ 4] 2082 	ccf
    00000ACE 1F               [ 4] 2083 	rra
    00000ACF DE 80            [ 7] 2084 	sbc	a, #0x80
    00000AD1 DAr11r09         [10] 2085 	jp	C, 00540$
                                   2086 ;E:\Dropbox\FAUSTO\SVILUPPI\MSX\CODE\C\MSXgl\projects\exsoccer/exsoccer_s2_b0.c:404: if (bestT != NO_VALUE) {
    00000AD4 DD 7E FE         [19] 2087 	ld	a, -2 (ix)
    00000AD7 3C               [ 4] 2088 	inc	a
    00000AD8 28 56            [12] 2089 	jr	Z, 00312$
                                   2090 ;E:\Dropbox\FAUSTO\SVILUPPI\MSX\CODE\C\MSXgl\projects\exsoccer/exsoccer_s2_b0.c:407: i32 threshold = isPanicPass ? -80 : 10;
    00000ADA DD 7E FF         [19] 2091 	ld	a, -1 (ix)
    00000ADD B7               [ 4] 2092 	or	a, a
    00000ADE 28 0B            [12] 2093 	jr	Z, 00561$
    00000AE0 DD 36 FB B0      [19] 2094 	ld	-5 (ix), #0xb0
    00000AE4 DD 36 FC FF      [19] 2095 	ld	-4 (ix), #0xff
    00000AE8 C3rF3r0A         [10] 2096 	jp	00562$
    00000AEB                       2097 00561$:
    00000AEB DD 36 FB 0A      [19] 2098 	ld	-5 (ix), #0x0a
    00000AEF DD 36 FC 00      [19] 2099 	ld	-4 (ix), #0
    00000AF3                       2100 00562$:
    00000AF3 DD 7E FB         [19] 2101 	ld	a, -5 (ix)
    00000AF6 DD 77 F9         [19] 2102 	ld	-7 (ix), a
    00000AF9 DD 7E FC         [19] 2103 	ld	a, -4 (ix)
    00000AFC DD 77 FA         [19] 2104 	ld	-6 (ix), a
    00000AFF 07               [ 4] 2105 	rlca
    00000B00 9F               [ 4] 2106 	sbc	a, a
    00000B01 DD 77 FB         [19] 2107 	ld	-5 (ix), a
    00000B04 DD 77 FC         [19] 2108 	ld	-4 (ix), a
                                   2109 ;E:\Dropbox\FAUSTO\SVILUPPI\MSX\CODE\C\MSXgl\projects\exsoccer/exsoccer_s2_b0.c:409: if (bestScore > threshold) {
    00000B07 DD 7E F9         [19] 2110 	ld	a, -7 (ix)
    00000B0A DD 96 F5         [19] 2111 	sub	a, -11 (ix)
    00000B0D DD 7E FA         [19] 2112 	ld	a, -6 (ix)
    00000B10 DD 9E F6         [19] 2113 	sbc	a, -10 (ix)
    00000B13 DD 7E FB         [19] 2114 	ld	a, -5 (ix)
    00000B16 DD 9E F7         [19] 2115 	sbc	a, -9 (ix)
    00000B19 DD 7E FC         [19] 2116 	ld	a, -4 (ix)
    00000B1C DD 9E F8         [19] 2117 	sbc	a, -8 (ix)
    00000B1F E2r24r0B         [10] 2118 	jp	PO, 01739$
    00000B22 EE 80            [ 7] 2119 	xor	a, #0x80
    00000B24                       2120 01739$:
    00000B24 F2r30r0B         [10] 2121 	jp	P, 00312$
                                   2122 ;E:\Dropbox\FAUSTO\SVILUPPI\MSX\CODE\C\MSXgl\projects\exsoccer/exsoccer_s2_b0.c:410: PerformPass(bestT);
    00000B27 DD 7E FE         [19] 2123 	ld	a, -2 (ix)
    00000B2A CDr00r00         [17] 2124 	call	_PerformPass
                                   2125 ;E:\Dropbox\FAUSTO\SVILUPPI\MSX\CODE\C\MSXgl\projects\exsoccer/exsoccer_s2_b0.c:411: return; // End tick
    00000B2D C3r89r17         [10] 2126 	jp	00545$
    00000B30                       2127 00312$:
                                   2128 ;E:\Dropbox\FAUSTO\SVILUPPI\MSX\CODE\C\MSXgl\projects\exsoccer/exsoccer_s2_b0.c:417: u16 finalTargetX = targetX_Goal;
    00000B30 DD 7E E7         [19] 2129 	ld	a, -25 (ix)
    00000B33 DD 77 FE         [19] 2130 	ld	-2 (ix), a
    00000B36 DD 7E E8         [19] 2131 	ld	a, -24 (ix)
    00000B39 DD 77 FF         [19] 2132 	ld	-1 (ix), a
                                   2133 ;E:\Dropbox\FAUSTO\SVILUPPI\MSX\CODE\C\MSXgl\projects\exsoccer/exsoccer_s2_b0.c:418: u16 finalTargetY = targetY_Goal;
    00000B3C DD 7E E3         [19] 2134 	ld	a, -29 (ix)
    00000B3F DD 77 FB         [19] 2135 	ld	-5 (ix), a
    00000B42 DD 7E E4         [19] 2136 	ld	a, -28 (ix)
    00000B45 DD 77 FC         [19] 2137 	ld	-4 (ix), a
                                   2138 ;E:\Dropbox\FAUSTO\SVILUPPI\MSX\CODE\C\MSXgl\projects\exsoccer/exsoccer_s2_b0.c:420: if (obstacleFront) {
    00000B48 DD 7E EB         [19] 2139 	ld	a, -21 (ix)
    00000B4B B7               [ 4] 2140 	or	a, a
    00000B4C CArD6r0B         [10] 2141 	jp	Z, 00323$
                                   2142 ;E:\Dropbox\FAUSTO\SVILUPPI\MSX\CODE\C\MSXgl\projects\exsoccer/exsoccer_s2_b0.c:421: if (!obstacleRight) {
    00000B4F DD 7E E9         [19] 2143 	ld	a, -23 (ix)
    00000B52 B7               [ 4] 2144 	or	a, a
    00000B53 20 3F            [12] 2145 	jr	NZ, 00320$
                                   2146 ;E:\Dropbox\FAUSTO\SVILUPPI\MSX\CODE\C\MSXgl\projects\exsoccer/exsoccer_s2_b0.c:422: finalTargetX = g_Players[playerId].X + 24;
    00000B55 DD 7E E5         [19] 2147 	ld	a, -27 (ix)
    00000B58 DD 77 F9         [19] 2148 	ld	-7 (ix), a
    00000B5B DD 7E E6         [19] 2149 	ld	a, -26 (ix)
    00000B5E DD 77 FA         [19] 2150 	ld	-6 (ix), a
    00000B61 DD 7E F9         [19] 2151 	ld	a, -7 (ix)
    00000B64 C6 18            [ 7] 2152 	add	a, #0x18
    00000B66 DD 77 FE         [19] 2153 	ld	-2 (ix), a
    00000B69 DD 7E FA         [19] 2154 	ld	a, -6 (ix)
    00000B6C CE 00            [ 7] 2155 	adc	a, #0x00
    00000B6E DD 77 FF         [19] 2156 	ld	-1 (ix), a
                                   2157 ;E:\Dropbox\FAUSTO\SVILUPPI\MSX\CODE\C\MSXgl\projects\exsoccer/exsoccer_s2_b0.c:423: if (finalTargetX > FIELD_BOUND_X_RIGHT) finalTargetX = FIELD_BOUND_X_RIGHT;
    00000B71 DD 7E FE         [19] 2158 	ld	a, -2 (ix)
    00000B74 DD 77 F9         [19] 2159 	ld	-7 (ix), a
    00000B77 DD 7E FF         [19] 2160 	ld	a, -1 (ix)
    00000B7A DD 77 FA         [19] 2161 	ld	-6 (ix), a
    00000B7D 3E F6            [ 7] 2162 	ld	a, #0xf6
    00000B7F DD BE F9         [19] 2163 	cp	a, -7 (ix)
    00000B82 3E 00            [ 7] 2164 	ld	a, #0x00
    00000B84 DD 9E FA         [19] 2165 	sbc	a, -6 (ix)
    00000B87 30 4D            [12] 2166 	jr	NC, 00323$
    00000B89 DD 36 FE F6      [19] 2167 	ld	-2 (ix), #0xf6
    00000B8D DD 36 FF 00      [19] 2168 	ld	-1 (ix), #0
    00000B91 C3rD6r0B         [10] 2169 	jp	00323$
    00000B94                       2170 00320$:
                                   2171 ;E:\Dropbox\FAUSTO\SVILUPPI\MSX\CODE\C\MSXgl\projects\exsoccer/exsoccer_s2_b0.c:424: } else if (!obstacleLeft) {
    00000B94 DD 7E EA         [19] 2172 	ld	a, -22 (ix)
    00000B97 B7               [ 4] 2173 	or	a, a
    00000B98 20 3C            [12] 2174 	jr	NZ, 00323$
                                   2175 ;E:\Dropbox\FAUSTO\SVILUPPI\MSX\CODE\C\MSXgl\projects\exsoccer/exsoccer_s2_b0.c:425: finalTargetX = g_Players[playerId].X - 24; 
    00000B9A DD 7E E5         [19] 2176 	ld	a, -27 (ix)
    00000B9D DD 77 F9         [19] 2177 	ld	-7 (ix), a
    00000BA0 DD 7E E6         [19] 2178 	ld	a, -26 (ix)
    00000BA3 DD 77 FA         [19] 2179 	ld	-6 (ix), a
    00000BA6 DD 7E F9         [19] 2180 	ld	a, -7 (ix)
    00000BA9 C6 E8            [ 7] 2181 	add	a, #0xe8
    00000BAB DD 77 FE         [19] 2182 	ld	-2 (ix), a
    00000BAE DD 7E FA         [19] 2183 	ld	a, -6 (ix)
    00000BB1 CE FF            [ 7] 2184 	adc	a, #0xff
    00000BB3 DD 77 FF         [19] 2185 	ld	-1 (ix), a
                                   2186 ;E:\Dropbox\FAUSTO\SVILUPPI\MSX\CODE\C\MSXgl\projects\exsoccer/exsoccer_s2_b0.c:426: if (finalTargetX < FIELD_BOUND_X_LEFT) finalTargetX = FIELD_BOUND_X_LEFT;
    00000BB6 DD 7E FE         [19] 2187 	ld	a, -2 (ix)
    00000BB9 DD 77 F9         [19] 2188 	ld	-7 (ix), a
    00000BBC DD 7E FF         [19] 2189 	ld	a, -1 (ix)
    00000BBF DD 77 FA         [19] 2190 	ld	-6 (ix), a
    00000BC2 DD 7E F9         [19] 2191 	ld	a, -7 (ix)
    00000BC5 D6 0A            [ 7] 2192 	sub	a, #0x0a
    00000BC7 DD 7E FA         [19] 2193 	ld	a, -6 (ix)
    00000BCA DE 00            [ 7] 2194 	sbc	a, #0x00
    00000BCC 30 08            [12] 2195 	jr	NC, 00323$
    00000BCE DD 36 FE 0A      [19] 2196 	ld	-2 (ix), #0x0a
    00000BD2 DD 36 FF 00      [19] 2197 	ld	-1 (ix), #0
    00000BD6                       2198 00323$:
                                   2199 ;E:\Dropbox\FAUSTO\SVILUPPI\MSX\CODE\C\MSXgl\projects\exsoccer/exsoccer_s2_b0.c:429: g_Players[playerId].TargetY = finalTargetY;
    00000BD6 DD 7E DF         [19] 2200 	ld	a, -33 (ix)
    00000BD9 C6 0A            [ 7] 2201 	add	a, #0x0a
    00000BDB DD 77 F9         [19] 2202 	ld	-7 (ix), a
    00000BDE DD 7E E0         [19] 2203 	ld	a, -32 (ix)
    00000BE1 CE 00            [ 7] 2204 	adc	a, #0x00
    00000BE3 DD 77 FA         [19] 2205 	ld	-6 (ix), a
    00000BE6 DD 6E F9         [19] 2206 	ld	l, -7 (ix)
    00000BE9 DD 66 FA         [19] 2207 	ld	h, -6 (ix)
    00000BEC DD 7E FB         [19] 2208 	ld	a, -5 (ix)
    00000BEF 77               [ 7] 2209 	ld	(hl), a
    00000BF0 23               [ 6] 2210 	inc	hl
    00000BF1 DD 7E FC         [19] 2211 	ld	a, -4 (ix)
    00000BF4 77               [ 7] 2212 	ld	(hl), a
                                   2213 ;E:\Dropbox\FAUSTO\SVILUPPI\MSX\CODE\C\MSXgl\projects\exsoccer/exsoccer_s2_b0.c:430: g_Players[playerId].TargetX = finalTargetX;
    00000BF5 DD 7E DF         [19] 2214 	ld	a, -33 (ix)
    00000BF8 C6 0C            [ 7] 2215 	add	a, #0x0c
    00000BFA DD 77 FB         [19] 2216 	ld	-5 (ix), a
    00000BFD DD 7E E0         [19] 2217 	ld	a, -32 (ix)
    00000C00 CE 00            [ 7] 2218 	adc	a, #0x00
    00000C02 DD 77 FC         [19] 2219 	ld	-4 (ix), a
    00000C05 DD 6E FB         [19] 2220 	ld	l, -5 (ix)
    00000C08 DD 66 FC         [19] 2221 	ld	h, -4 (ix)
    00000C0B DD 7E FE         [19] 2222 	ld	a, -2 (ix)
    00000C0E 77               [ 7] 2223 	ld	(hl), a
    00000C0F 23               [ 6] 2224 	inc	hl
    00000C10 DD 7E FF         [19] 2225 	ld	a, -1 (ix)
    00000C13 77               [ 7] 2226 	ld	(hl), a
                                   2227 ;E:\Dropbox\FAUSTO\SVILUPPI\MSX\CODE\C\MSXgl\projects\exsoccer/exsoccer_s2_b0.c:431: return; // IMPORTANT: Ball Carrier handled. Stop.
    00000C14 C3r89r17         [10] 2228 	jp	00545$
    00000C17                       2229 00325$:
                                   2230 ;E:\Dropbox\FAUSTO\SVILUPPI\MSX\CODE\C\MSXgl\projects\exsoccer/exsoccer_s2_b0.c:437: if (g_Ball.PossessionPlayerId == NO_VALUE) {
    00000C17 DD 7E FF         [19] 2231 	ld	a, -1 (ix)
    00000C1A 3C               [ 4] 2232 	inc	a
    00000C1B 20 3C            [12] 2233 	jr	NZ, 00329$
                                   2234 ;E:\Dropbox\FAUSTO\SVILUPPI\MSX\CODE\C\MSXgl\projects\exsoccer/exsoccer_s2_b0.c:439: if (GetClosestPlayerToBall(playerTeamId, NO_VALUE) == playerId) {
    00000C1D 2E FF            [ 7] 2235 	ld	l, #0xff
                                   2236 ;	spillPairReg hl
                                   2237 ;	spillPairReg hl
    00000C1F DD 7E E1         [19] 2238 	ld	a, -31 (ix)
    00000C22 CDr5Dr2B         [17] 2239 	call	_GetClosestPlayerToBall
    00000C25 4F               [ 4] 2240 	ld	c, a
    00000C26 DD 7E FD         [19] 2241 	ld	a, -3 (ix)
    00000C29 91               [ 4] 2242 	sub	a, c
    00000C2A 20 2D            [12] 2243 	jr	NZ, 00329$
                                   2244 ;E:\Dropbox\FAUSTO\SVILUPPI\MSX\CODE\C\MSXgl\projects\exsoccer/exsoccer_s2_b0.c:440: g_Players[playerId].TargetX = g_Ball.X;
    00000C2C DD 7E DF         [19] 2245 	ld	a, -33 (ix)
    00000C2F C6 0C            [ 7] 2246 	add	a, #0x0c
    00000C31 4F               [ 4] 2247 	ld	c, a
    00000C32 DD 7E E0         [19] 2248 	ld	a, -32 (ix)
    00000C35 CE 00            [ 7] 2249 	adc	a, #0x00
    00000C37 47               [ 4] 2250 	ld	b, a
    00000C38 ED 5Br02r00      [20] 2251 	ld	de, (#_g_Ball + 2)
    00000C3C 7B               [ 4] 2252 	ld	a, e
    00000C3D 02               [ 7] 2253 	ld	(bc), a
    00000C3E 03               [ 6] 2254 	inc	bc
    00000C3F 7A               [ 4] 2255 	ld	a, d
    00000C40 02               [ 7] 2256 	ld	(bc), a
                                   2257 ;E:\Dropbox\FAUSTO\SVILUPPI\MSX\CODE\C\MSXgl\projects\exsoccer/exsoccer_s2_b0.c:441: g_Players[playerId].TargetY = g_Ball.Y;
    00000C41 DD 7E DF         [19] 2258 	ld	a, -33 (ix)
    00000C44 C6 0A            [ 7] 2259 	add	a, #0x0a
    00000C46 4F               [ 4] 2260 	ld	c, a
    00000C47 DD 7E E0         [19] 2261 	ld	a, -32 (ix)
    00000C4A CE 00            [ 7] 2262 	adc	a, #0x00
    00000C4C 47               [ 4] 2263 	ld	b, a
    00000C4D ED 5Br00r00      [20] 2264 	ld	de, (#_g_Ball + 0)
    00000C51 7B               [ 4] 2265 	ld	a, e
    00000C52 02               [ 7] 2266 	ld	(bc), a
    00000C53 03               [ 6] 2267 	inc	bc
    00000C54 7A               [ 4] 2268 	ld	a, d
    00000C55 02               [ 7] 2269 	ld	(bc), a
                                   2270 ;E:\Dropbox\FAUSTO\SVILUPPI\MSX\CODE\C\MSXgl\projects\exsoccer/exsoccer_s2_b0.c:442: return;
    00000C56 C3r89r17         [10] 2271 	jp	00545$
    00000C59                       2272 00329$:
                                   2273 ;E:\Dropbox\FAUSTO\SVILUPPI\MSX\CODE\C\MSXgl\projects\exsoccer/exsoccer_s2_b0.c:451: if (g_Players[playerId].Role == PLAYER_ROLE_LEFT_STRIKER || 
    00000C59 DD 7E DF         [19] 2274 	ld	a, -33 (ix)
    00000C5C C6 09            [ 7] 2275 	add	a, #0x09
    00000C5E 4F               [ 4] 2276 	ld	c, a
    00000C5F DD 7E E0         [19] 2277 	ld	a, -32 (ix)
    00000C62 CE 00            [ 7] 2278 	adc	a, #0x00
    00000C64 47               [ 4] 2279 	ld	b, a
    00000C65 0A               [ 7] 2280 	ld	a, (bc)
    00000C66 FE 05            [ 7] 2281 	cp	a, #0x05
    00000C68 28 04            [12] 2282 	jr	Z, 00365$
                                   2283 ;E:\Dropbox\FAUSTO\SVILUPPI\MSX\CODE\C\MSXgl\projects\exsoccer/exsoccer_s2_b0.c:452: g_Players[playerId].Role == PLAYER_ROLE_RIGHT_STRIKER) {
    00000C6A FE 06            [ 7] 2284 	cp	a, #0x06
    00000C6C 20 36            [12] 2285 	jr	NZ, 00366$
    00000C6E                       2286 00365$:
                                   2287 ;E:\Dropbox\FAUSTO\SVILUPPI\MSX\CODE\C\MSXgl\projects\exsoccer/exsoccer_s2_b0.c:429: g_Players[playerId].TargetY = finalTargetY;
    00000C6E E1               [10] 2288 	pop	hl
    00000C6F E5               [11] 2289 	push	hl
    00000C70 11 0A 00         [10] 2290 	ld	de, #0x000a
    00000C73 19               [11] 2291 	add	hl, de
                                   2292 ;E:\Dropbox\FAUSTO\SVILUPPI\MSX\CODE\C\MSXgl\projects\exsoccer/exsoccer_s2_b0.c:455: if (playerTeamId == TEAM_1) g_Players[playerId].TargetY = GK_BOX_Y_TOP_MAX - 10;
    00000C74 DD 7E E1         [19] 2293 	ld	a, -31 (ix)
    00000C77 3D               [ 4] 2294 	dec	a
    00000C78 20 08            [12] 2295 	jr	NZ, 00331$
    00000C7A 36 41            [10] 2296 	ld	(hl), #0x41
    00000C7C 23               [ 6] 2297 	inc	hl
    00000C7D 36 00            [10] 2298 	ld	(hl), #0x00
    00000C7F C3r87r0C         [10] 2299 	jp	00332$
    00000C82                       2300 00331$:
                                   2301 ;E:\Dropbox\FAUSTO\SVILUPPI\MSX\CODE\C\MSXgl\projects\exsoccer/exsoccer_s2_b0.c:456: else g_Players[playerId].TargetY = GK_BOX_Y_BOTTOM_MIN + 10;
    00000C82 36 9F            [10] 2302 	ld	(hl), #0x9f
    00000C84 23               [ 6] 2303 	inc	hl
    00000C85 36 01            [10] 2304 	ld	(hl), #0x01
    00000C87                       2305 00332$:
                                   2306 ;E:\Dropbox\FAUSTO\SVILUPPI\MSX\CODE\C\MSXgl\projects\exsoccer/exsoccer_s2_b0.c:458: if (g_Players[playerId].Role == PLAYER_ROLE_LEFT_STRIKER) g_Players[playerId].TargetX = 64;
    00000C87 0A               [ 7] 2307 	ld	a, (bc)
    00000C88 4F               [ 4] 2308 	ld	c, a
                                   2309 ;E:\Dropbox\FAUSTO\SVILUPPI\MSX\CODE\C\MSXgl\projects\exsoccer/exsoccer_s2_b0.c:430: g_Players[playerId].TargetX = finalTargetX;
    00000C89 E1               [10] 2310 	pop	hl
    00000C8A E5               [11] 2311 	push	hl
    00000C8B 11 0C 00         [10] 2312 	ld	de, #0x000c
    00000C8E 19               [11] 2313 	add	hl, de
                                   2314 ;E:\Dropbox\FAUSTO\SVILUPPI\MSX\CODE\C\MSXgl\projects\exsoccer/exsoccer_s2_b0.c:458: if (g_Players[playerId].Role == PLAYER_ROLE_LEFT_STRIKER) g_Players[playerId].TargetX = 64;
    00000C8F 79               [ 4] 2315 	ld	a, c
    00000C90 D6 05            [ 7] 2316 	sub	a, #0x05
    00000C92 20 08            [12] 2317 	jr	NZ, 00334$
    00000C94 36 40            [10] 2318 	ld	(hl), #0x40
    00000C96 23               [ 6] 2319 	inc	hl
    00000C97 36 00            [10] 2320 	ld	(hl), #0x00
    00000C99 C3rC5r0D         [10] 2321 	jp	00726$
    00000C9C                       2322 00334$:
                                   2323 ;E:\Dropbox\FAUSTO\SVILUPPI\MSX\CODE\C\MSXgl\projects\exsoccer/exsoccer_s2_b0.c:459: else g_Players[playerId].TargetX = 192;
    00000C9C 36 C0            [10] 2324 	ld	(hl), #0xc0
    00000C9E 23               [ 6] 2325 	inc	hl
    00000C9F 36 00            [10] 2326 	ld	(hl), #0x00
    00000CA1 C3rC5r0D         [10] 2327 	jp	00726$
    00000CA4                       2328 00366$:
                                   2329 ;E:\Dropbox\FAUSTO\SVILUPPI\MSX\CODE\C\MSXgl\projects\exsoccer/exsoccer_s2_b0.c:461: } else if (g_Players[playerId].Role == PLAYER_ROLE_LEFT_HALFFIELDER || 
    00000CA4 FE 03            [ 7] 2330 	cp	a, #0x03
    00000CA6 28 04            [12] 2331 	jr	Z, 00361$
                                   2332 ;E:\Dropbox\FAUSTO\SVILUPPI\MSX\CODE\C\MSXgl\projects\exsoccer/exsoccer_s2_b0.c:462: g_Players[playerId].Role == PLAYER_ROLE_RIGHT_HALFFIELDER) {
    00000CA8 FE 04            [ 7] 2333 	cp	a, #0x04
    00000CAA 20 68            [12] 2334 	jr	NZ, 00362$
    00000CAC                       2335 00361$:
                                   2336 ;E:\Dropbox\FAUSTO\SVILUPPI\MSX\CODE\C\MSXgl\projects\exsoccer/exsoccer_s2_b0.c:429: g_Players[playerId].TargetY = finalTargetY;
    00000CAC DD 7E DF         [19] 2337 	ld	a, -33 (ix)
    00000CAF C6 0A            [ 7] 2338 	add	a, #0x0a
    00000CB1 DD 77 FB         [19] 2339 	ld	-5 (ix), a
    00000CB4 DD 7E E0         [19] 2340 	ld	a, -32 (ix)
    00000CB7 CE 00            [ 7] 2341 	adc	a, #0x00
    00000CB9 DD 77 FC         [19] 2342 	ld	-4 (ix), a
                                   2343 ;E:\Dropbox\FAUSTO\SVILUPPI\MSX\CODE\C\MSXgl\projects\exsoccer/exsoccer_s2_b0.c:441: g_Players[playerId].TargetY = g_Ball.Y;
    00000CBC 2Ar00r00         [16] 2344 	ld	hl, (#_g_Ball + 0)
                                   2345 ;E:\Dropbox\FAUSTO\SVILUPPI\MSX\CODE\C\MSXgl\projects\exsoccer/exsoccer_s2_b0.c:465: if (playerTeamId == TEAM_1) g_Players[playerId].TargetY = g_Ball.Y - 60;
    00000CBF DD 75 FE         [19] 2346 	ld	-2 (ix), l
    00000CC2 DD 74 FF         [19] 2347 	ld	-1 (ix), h
    00000CC5 DD 7E E1         [19] 2348 	ld	a, -31 (ix)
    00000CC8 3D               [ 4] 2349 	dec	a
    00000CC9 20 18            [12] 2350 	jr	NZ, 00337$
    00000CCB DD 7E FE         [19] 2351 	ld	a, -2 (ix)
    00000CCE C6 C4            [ 7] 2352 	add	a, #0xc4
    00000CD0 5F               [ 4] 2353 	ld	e, a
    00000CD1 DD 7E FF         [19] 2354 	ld	a, -1 (ix)
    00000CD4 CE FF            [ 7] 2355 	adc	a, #0xff
    00000CD6 57               [ 4] 2356 	ld	d, a
    00000CD7 DD 6E FB         [19] 2357 	ld	l, -5 (ix)
    00000CDA DD 66 FC         [19] 2358 	ld	h, -4 (ix)
    00000CDD 73               [ 7] 2359 	ld	(hl), e
    00000CDE 23               [ 6] 2360 	inc	hl
    00000CDF 72               [ 7] 2361 	ld	(hl), d
    00000CE0 C3rF7r0C         [10] 2362 	jp	00338$
    00000CE3                       2363 00337$:
                                   2364 ;E:\Dropbox\FAUSTO\SVILUPPI\MSX\CODE\C\MSXgl\projects\exsoccer/exsoccer_s2_b0.c:466: else g_Players[playerId].TargetY = g_Ball.Y + 60;
    00000CE3 DD 6E FE         [19] 2365 	ld	l, -2 (ix)
    00000CE6 DD 66 FF         [19] 2366 	ld	h, -1 (ix)
    00000CE9 11 3C 00         [10] 2367 	ld	de, #0x003c
    00000CEC 19               [11] 2368 	add	hl, de
    00000CED EB               [ 4] 2369 	ex	de, hl
    00000CEE DD 6E FB         [19] 2370 	ld	l, -5 (ix)
    00000CF1 DD 66 FC         [19] 2371 	ld	h, -4 (ix)
    00000CF4 73               [ 7] 2372 	ld	(hl), e
    00000CF5 23               [ 6] 2373 	inc	hl
    00000CF6 72               [ 7] 2374 	ld	(hl), d
    00000CF7                       2375 00338$:
                                   2376 ;E:\Dropbox\FAUSTO\SVILUPPI\MSX\CODE\C\MSXgl\projects\exsoccer/exsoccer_s2_b0.c:468: if (g_Players[playerId].Role == PLAYER_ROLE_LEFT_HALFFIELDER) g_Players[playerId].TargetX = 48;
    00000CF7 0A               [ 7] 2377 	ld	a, (bc)
    00000CF8 4F               [ 4] 2378 	ld	c, a
                                   2379 ;E:\Dropbox\FAUSTO\SVILUPPI\MSX\CODE\C\MSXgl\projects\exsoccer/exsoccer_s2_b0.c:430: g_Players[playerId].TargetX = finalTargetX;
    00000CF9 E1               [10] 2380 	pop	hl
    00000CFA E5               [11] 2381 	push	hl
    00000CFB 11 0C 00         [10] 2382 	ld	de, #0x000c
    00000CFE 19               [11] 2383 	add	hl, de
                                   2384 ;E:\Dropbox\FAUSTO\SVILUPPI\MSX\CODE\C\MSXgl\projects\exsoccer/exsoccer_s2_b0.c:468: if (g_Players[playerId].Role == PLAYER_ROLE_LEFT_HALFFIELDER) g_Players[playerId].TargetX = 48;
    00000CFF 79               [ 4] 2385 	ld	a, c
    00000D00 D6 03            [ 7] 2386 	sub	a, #0x03
    00000D02 20 08            [12] 2387 	jr	NZ, 00340$
    00000D04 36 30            [10] 2388 	ld	(hl), #0x30
    00000D06 23               [ 6] 2389 	inc	hl
    00000D07 36 00            [10] 2390 	ld	(hl), #0x00
    00000D09 C3rC5r0D         [10] 2391 	jp	00726$
    00000D0C                       2392 00340$:
                                   2393 ;E:\Dropbox\FAUSTO\SVILUPPI\MSX\CODE\C\MSXgl\projects\exsoccer/exsoccer_s2_b0.c:469: else g_Players[playerId].TargetX = 208;
    00000D0C 36 D0            [10] 2394 	ld	(hl), #0xd0
    00000D0E 23               [ 6] 2395 	inc	hl
    00000D0F 36 00            [10] 2396 	ld	(hl), #0x00
    00000D11 C3rC5r0D         [10] 2397 	jp	00726$
    00000D14                       2398 00362$:
                                   2399 ;E:\Dropbox\FAUSTO\SVILUPPI\MSX\CODE\C\MSXgl\projects\exsoccer/exsoccer_s2_b0.c:471: } else if (g_Players[playerId].Role == PLAYER_ROLE_LEFT_DEFENDER || 
    00000D14 FE 01            [ 7] 2400 	cp	a, #0x01
    00000D16 28 05            [12] 2401 	jr	Z, 00357$
                                   2402 ;E:\Dropbox\FAUSTO\SVILUPPI\MSX\CODE\C\MSXgl\projects\exsoccer/exsoccer_s2_b0.c:472: g_Players[playerId].Role == PLAYER_ROLE_RIGHT_DEFENDER) {
    00000D18 FE 02            [ 7] 2403 	cp	a, #0x02
    00000D1A C2r9Br0D         [10] 2404 	jp	NZ,00358$
    00000D1D                       2405 00357$:
                                   2406 ;E:\Dropbox\FAUSTO\SVILUPPI\MSX\CODE\C\MSXgl\projects\exsoccer/exsoccer_s2_b0.c:429: g_Players[playerId].TargetY = finalTargetY;
    00000D1D DD 7E DF         [19] 2407 	ld	a, -33 (ix)
    00000D20 C6 0A            [ 7] 2408 	add	a, #0x0a
    00000D22 DD 77 FE         [19] 2409 	ld	-2 (ix), a
    00000D25 DD 7E E0         [19] 2410 	ld	a, -32 (ix)
    00000D28 CE 00            [ 7] 2411 	adc	a, #0x00
    00000D2A DD 77 FF         [19] 2412 	ld	-1 (ix), a
                                   2413 ;E:\Dropbox\FAUSTO\SVILUPPI\MSX\CODE\C\MSXgl\projects\exsoccer/exsoccer_s2_b0.c:441: g_Players[playerId].TargetY = g_Ball.Y;
    00000D2D ED 5Br00r00      [20] 2414 	ld	de, (#_g_Ball + 0)
                                   2415 ;E:\Dropbox\FAUSTO\SVILUPPI\MSX\CODE\C\MSXgl\projects\exsoccer/exsoccer_s2_b0.c:465: if (playerTeamId == TEAM_1) g_Players[playerId].TargetY = g_Ball.Y - 60;
                                   2416 ;E:\Dropbox\FAUSTO\SVILUPPI\MSX\CODE\C\MSXgl\projects\exsoccer/exsoccer_s2_b0.c:475: if (playerTeamId == TEAM_1) {
    00000D31 DD 7E E1         [19] 2417 	ld	a, -31 (ix)
    00000D34 3D               [ 4] 2418 	dec	a
    00000D35 20 24            [12] 2419 	jr	NZ, 00347$
                                   2420 ;E:\Dropbox\FAUSTO\SVILUPPI\MSX\CODE\C\MSXgl\projects\exsoccer/exsoccer_s2_b0.c:476: g_Players[playerId].TargetY = g_Ball.Y + 30;
    00000D37 21 1E 00         [10] 2421 	ld	hl, #0x001e
    00000D3A 19               [11] 2422 	add	hl, de
    00000D3B EB               [ 4] 2423 	ex	de, hl
    00000D3C DD 6E FE         [19] 2424 	ld	l, -2 (ix)
    00000D3F DD 66 FF         [19] 2425 	ld	h, -1 (ix)
    00000D42 73               [ 7] 2426 	ld	(hl), e
    00000D43 23               [ 6] 2427 	inc	hl
    00000D44 72               [ 7] 2428 	ld	(hl), d
                                   2429 ;E:\Dropbox\FAUSTO\SVILUPPI\MSX\CODE\C\MSXgl\projects\exsoccer/exsoccer_s2_b0.c:478: if (g_Players[playerId].TargetY < (midFieldY - 30)) g_Players[playerId].TargetY = (midFieldY - 30);
    00000D45 7B               [ 4] 2430 	ld	a, e
    00000D46 D6 D2            [ 7] 2431 	sub	a, #0xd2
    00000D48 7A               [ 4] 2432 	ld	a, d
    00000D49 DE 00            [ 7] 2433 	sbc	a, #0x00
    00000D4B 30 33            [12] 2434 	jr	NC, 00348$
    00000D4D DD 6E FE         [19] 2435 	ld	l, -2 (ix)
    00000D50 DD 66 FF         [19] 2436 	ld	h, -1 (ix)
    00000D53 36 D2            [10] 2437 	ld	(hl), #0xd2
    00000D55 23               [ 6] 2438 	inc	hl
    00000D56 36 00            [10] 2439 	ld	(hl), #0x00
    00000D58 C3r80r0D         [10] 2440 	jp	00348$
    00000D5B                       2441 00347$:
                                   2442 ;E:\Dropbox\FAUSTO\SVILUPPI\MSX\CODE\C\MSXgl\projects\exsoccer/exsoccer_s2_b0.c:480: g_Players[playerId].TargetY = g_Ball.Y - 30;
    00000D5B 7B               [ 4] 2443 	ld	a, e
    00000D5C C6 E2            [ 7] 2444 	add	a, #0xe2
    00000D5E 6F               [ 4] 2445 	ld	l, a
                                   2446 ;	spillPairReg hl
                                   2447 ;	spillPairReg hl
    00000D5F 7A               [ 4] 2448 	ld	a, d
    00000D60 CE FF            [ 7] 2449 	adc	a, #0xff
    00000D62 67               [ 4] 2450 	ld	h, a
                                   2451 ;	spillPairReg hl
                                   2452 ;	spillPairReg hl
    00000D63 EB               [ 4] 2453 	ex	de, hl
    00000D64 DD 6E FE         [19] 2454 	ld	l, -2 (ix)
    00000D67 DD 66 FF         [19] 2455 	ld	h, -1 (ix)
    00000D6A 73               [ 7] 2456 	ld	(hl), e
    00000D6B 23               [ 6] 2457 	inc	hl
    00000D6C 72               [ 7] 2458 	ld	(hl), d
                                   2459 ;E:\Dropbox\FAUSTO\SVILUPPI\MSX\CODE\C\MSXgl\projects\exsoccer/exsoccer_s2_b0.c:481: if (g_Players[playerId].TargetY > (midFieldY + 30)) g_Players[playerId].TargetY = (midFieldY + 30);
    00000D6D 3E 0E            [ 7] 2460 	ld	a, #0x0e
    00000D6F BB               [ 4] 2461 	cp	a, e
    00000D70 3E 01            [ 7] 2462 	ld	a, #0x01
    00000D72 9A               [ 4] 2463 	sbc	a, d
    00000D73 30 0B            [12] 2464 	jr	NC, 00348$
    00000D75 DD 6E FE         [19] 2465 	ld	l, -2 (ix)
    00000D78 DD 66 FF         [19] 2466 	ld	h, -1 (ix)
    00000D7B 36 0E            [10] 2467 	ld	(hl), #0x0e
    00000D7D 23               [ 6] 2468 	inc	hl
    00000D7E 36 01            [10] 2469 	ld	(hl), #0x01
    00000D80                       2470 00348$:
                                   2471 ;E:\Dropbox\FAUSTO\SVILUPPI\MSX\CODE\C\MSXgl\projects\exsoccer/exsoccer_s2_b0.c:484: if (g_Players[playerId].Role == PLAYER_ROLE_LEFT_DEFENDER) g_Players[playerId].TargetX = 80;
    00000D80 0A               [ 7] 2472 	ld	a, (bc)
    00000D81 4F               [ 4] 2473 	ld	c, a
                                   2474 ;E:\Dropbox\FAUSTO\SVILUPPI\MSX\CODE\C\MSXgl\projects\exsoccer/exsoccer_s2_b0.c:430: g_Players[playerId].TargetX = finalTargetX;
    00000D82 E1               [10] 2475 	pop	hl
    00000D83 E5               [11] 2476 	push	hl
    00000D84 11 0C 00         [10] 2477 	ld	de, #0x000c
    00000D87 19               [11] 2478 	add	hl, de
                                   2479 ;E:\Dropbox\FAUSTO\SVILUPPI\MSX\CODE\C\MSXgl\projects\exsoccer/exsoccer_s2_b0.c:484: if (g_Players[playerId].Role == PLAYER_ROLE_LEFT_DEFENDER) g_Players[playerId].TargetX = 80;
    00000D88 0D               [ 4] 2480 	dec	c
    00000D89 20 08            [12] 2481 	jr	NZ, 00350$
    00000D8B 36 50            [10] 2482 	ld	(hl), #0x50
    00000D8D 23               [ 6] 2483 	inc	hl
    00000D8E 36 00            [10] 2484 	ld	(hl), #0x00
    00000D90 C3rC5r0D         [10] 2485 	jp	00726$
    00000D93                       2486 00350$:
                                   2487 ;E:\Dropbox\FAUSTO\SVILUPPI\MSX\CODE\C\MSXgl\projects\exsoccer/exsoccer_s2_b0.c:485: else g_Players[playerId].TargetX = 176;
    00000D93 36 B0            [10] 2488 	ld	(hl), #0xb0
    00000D95 23               [ 6] 2489 	inc	hl
    00000D96 36 00            [10] 2490 	ld	(hl), #0x00
    00000D98 C3rC5r0D         [10] 2491 	jp	00726$
    00000D9B                       2492 00358$:
                                   2493 ;E:\Dropbox\FAUSTO\SVILUPPI\MSX\CODE\C\MSXgl\projects\exsoccer/exsoccer_s2_b0.c:487: } else if (g_Players[playerId].Role == PLAYER_ROLE_GOALKEEPER) {
    00000D9B B7               [ 4] 2494 	or	a, a
    00000D9C 20 27            [12] 2495 	jr	NZ, 00726$
                                   2496 ;E:\Dropbox\FAUSTO\SVILUPPI\MSX\CODE\C\MSXgl\projects\exsoccer/exsoccer_s2_b0.c:488: g_Players[playerId].TargetX = FIELD_POS_X_CENTER;
    00000D9E E1               [10] 2497 	pop	hl
    00000D9F E5               [11] 2498 	push	hl
    00000DA0 11 0C 00         [10] 2499 	ld	de, #0x000c
    00000DA3 19               [11] 2500 	add	hl, de
    00000DA4 36 78            [10] 2501 	ld	(hl), #0x78
    00000DA6 23               [ 6] 2502 	inc	hl
    00000DA7 36 00            [10] 2503 	ld	(hl), #0x00
                                   2504 ;E:\Dropbox\FAUSTO\SVILUPPI\MSX\CODE\C\MSXgl\projects\exsoccer/exsoccer_s2_b0.c:429: g_Players[playerId].TargetY = finalTargetY;
    00000DA9 E1               [10] 2505 	pop	hl
    00000DAA E5               [11] 2506 	push	hl
    00000DAB 11 0A 00         [10] 2507 	ld	de, #0x000a
    00000DAE 19               [11] 2508 	add	hl, de
                                   2509 ;E:\Dropbox\FAUSTO\SVILUPPI\MSX\CODE\C\MSXgl\projects\exsoccer/exsoccer_s2_b0.c:489: if (playerTeamId == TEAM_1) g_Players[playerId].TargetY = GK_BOX_Y_BOTTOM_MIN + 20;
    00000DAF DD 7E E1         [19] 2510 	ld	a, -31 (ix)
    00000DB2 3D               [ 4] 2511 	dec	a
    00000DB3 20 08            [12] 2512 	jr	NZ, 00353$
    00000DB5 36 A9            [10] 2513 	ld	(hl), #0xa9
    00000DB7 23               [ 6] 2514 	inc	hl
    00000DB8 36 01            [10] 2515 	ld	(hl), #0x01
    00000DBA C3r89r17         [10] 2516 	jp	00545$
    00000DBD                       2517 00353$:
                                   2518 ;E:\Dropbox\FAUSTO\SVILUPPI\MSX\CODE\C\MSXgl\projects\exsoccer/exsoccer_s2_b0.c:490: else g_Players[playerId].TargetY = GK_BOX_Y_TOP_MAX - 20;
    00000DBD 36 37            [10] 2519 	ld	(hl), #0x37
    00000DBF 23               [ 6] 2520 	inc	hl
    00000DC0 36 00            [10] 2521 	ld	(hl), #0x00
                                   2522 ;E:\Dropbox\FAUSTO\SVILUPPI\MSX\CODE\C\MSXgl\projects\exsoccer/exsoccer_s2_b0.c:491: return; // GK Done
    00000DC2 C3r89r17         [10] 2523 	jp	00545$
                                   2524 ;E:\Dropbox\FAUSTO\SVILUPPI\MSX\CODE\C\MSXgl\projects\exsoccer/exsoccer_s2_b0.c:495: for(u8 i=0; i<14; i++) {
    00000DC5                       2525 00726$:
    00000DC5 DD 36 FF 00      [19] 2526 	ld	-1 (ix), #0x00
    00000DC9                       2527 00542$:
    00000DC9 DD 7E FF         [19] 2528 	ld	a, -1 (ix)
    00000DCC D6 0E            [ 7] 2529 	sub	a, #0x0e
    00000DCE D2r24r0F         [10] 2530 	jp	NC, 00389$
                                   2531 ;E:\Dropbox\FAUSTO\SVILUPPI\MSX\CODE\C\MSXgl\projects\exsoccer/exsoccer_s2_b0.c:496: if (i == playerId) continue;
    00000DD1 DD 7E FD         [19] 2532 	ld	a, -3 (ix)
    00000DD4 DD 96 FF         [19] 2533 	sub	a, -1 (ix)
    00000DD7 CAr1Er0F         [10] 2534 	jp	Z,00388$
                                   2535 ;E:\Dropbox\FAUSTO\SVILUPPI\MSX\CODE\C\MSXgl\projects\exsoccer/exsoccer_s2_b0.c:497: if (g_Players[i].Status == PLAYER_STATUS_NONE) continue;
    00000DDA DD 4E FF         [19] 2536 	ld	c, -1 (ix)
    00000DDD 06 00            [ 7] 2537 	ld	b, #0x00
    00000DDF 69               [ 4] 2538 	ld	l, c
    00000DE0 60               [ 4] 2539 	ld	h, b
    00000DE1 29               [11] 2540 	add	hl, hl
    00000DE2 29               [11] 2541 	add	hl, hl
    00000DE3 29               [11] 2542 	add	hl, hl
    00000DE4 29               [11] 2543 	add	hl, hl
    00000DE5 09               [11] 2544 	add	hl, bc
    00000DE6 EB               [ 4] 2545 	ex	de, hl
    00000DE7 21r00r00         [10] 2546 	ld	hl, #_g_Players
    00000DEA 19               [11] 2547 	add	hl, de
    00000DEB DD 75 F9         [19] 2548 	ld	-7 (ix), l
    00000DEE DD 74 FA         [19] 2549 	ld	-6 (ix), h
    00000DF1 01 0E 00         [10] 2550 	ld	bc,#14
    00000DF4 09               [11] 2551 	add	hl,bc
    00000DF5 7E               [ 7] 2552 	ld	a, (hl)
    00000DF6 23               [ 6] 2553 	inc	hl
    00000DF7 B6               [ 7] 2554 	or	a, (hl)
    00000DF8 CAr1Er0F         [10] 2555 	jp	Z, 00388$
                                   2556 ;E:\Dropbox\FAUSTO\SVILUPPI\MSX\CODE\C\MSXgl\projects\exsoccer/exsoccer_s2_b0.c:498: if (g_Players[i].TeamId != playerTeamId) continue;
    00000DFB DD 4E F9         [19] 2557 	ld	c, -7 (ix)
    00000DFE DD 46 FA         [19] 2558 	ld	b, -6 (ix)
    00000E01 21 05 00         [10] 2559 	ld	hl, #5
    00000E04 09               [11] 2560 	add	hl, bc
    00000E05 DD 7E E1         [19] 2561 	ld	a,-31 (ix)
    00000E08 96               [ 7] 2562 	sub	a,(hl)
    00000E09 C2r1Er0F         [10] 2563 	jp	NZ,00388$
                                   2564 ;E:\Dropbox\FAUSTO\SVILUPPI\MSX\CODE\C\MSXgl\projects\exsoccer/exsoccer_s2_b0.c:499: if (g_Players[i].Role == PLAYER_ROLE_GOALKEEPER) continue;
    00000E0C DD 4E F9         [19] 2565 	ld	c, -7 (ix)
    00000E0F DD 46 FA         [19] 2566 	ld	b, -6 (ix)
    00000E12 21 09 00         [10] 2567 	ld	hl, #9
    00000E15 09               [11] 2568 	add	hl, bc
    00000E16 7E               [ 7] 2569 	ld	a, (hl)
    00000E17 B7               [ 4] 2570 	or	a, a
    00000E18 CAr1Er0F         [10] 2571 	jp	Z, 00388$
                                   2572 ;E:\Dropbox\FAUSTO\SVILUPPI\MSX\CODE\C\MSXgl\projects\exsoccer/exsoccer_s2_b0.c:501: i16 dx = (i16)g_Players[playerId].TargetX - (i16)g_Players[i].X;
    00000E1B DD 7E DF         [19] 2573 	ld	a, -33 (ix)
    00000E1E C6 0C            [ 7] 2574 	add	a, #0x0c
    00000E20 4F               [ 4] 2575 	ld	c, a
    00000E21 DD 7E E0         [19] 2576 	ld	a, -32 (ix)
    00000E24 CE 00            [ 7] 2577 	adc	a, #0x00
    00000E26 47               [ 4] 2578 	ld	b, a
    00000E27 0A               [ 7] 2579 	ld	a, (bc)
    00000E28 DD 77 F5         [19] 2580 	ld	-11 (ix), a
    00000E2B 03               [ 6] 2581 	inc	bc
    00000E2C 0A               [ 7] 2582 	ld	a, (bc)
    00000E2D DD 77 F6         [19] 2583 	ld	-10 (ix), a
    00000E30 0B               [ 6] 2584 	dec	bc
    00000E31 DD 5E F5         [19] 2585 	ld	e, -11 (ix)
    00000E34 DD 56 F6         [19] 2586 	ld	d, -10 (ix)
    00000E37 DD 6E F9         [19] 2587 	ld	l, -7 (ix)
                                   2588 ;	spillPairReg hl
                                   2589 ;	spillPairReg hl
    00000E3A DD 66 FA         [19] 2590 	ld	h, -6 (ix)
                                   2591 ;	spillPairReg hl
                                   2592 ;	spillPairReg hl
    00000E3D 23               [ 6] 2593 	inc	hl
    00000E3E 23               [ 6] 2594 	inc	hl
    00000E3F 7E               [ 7] 2595 	ld	a, (hl)
    00000E40 23               [ 6] 2596 	inc	hl
    00000E41 66               [ 7] 2597 	ld	h, (hl)
                                   2598 ;	spillPairReg hl
    00000E42 6F               [ 4] 2599 	ld	l, a
                                   2600 ;	spillPairReg hl
                                   2601 ;	spillPairReg hl
    00000E43 7B               [ 4] 2602 	ld	a, e
    00000E44 95               [ 4] 2603 	sub	a, l
    00000E45 5F               [ 4] 2604 	ld	e, a
    00000E46 7A               [ 4] 2605 	ld	a, d
    00000E47 9C               [ 4] 2606 	sbc	a, h
    00000E48 DD 73 FB         [19] 2607 	ld	-5 (ix), e
    00000E4B DD 77 FC         [19] 2608 	ld	-4 (ix), a
                                   2609 ;E:\Dropbox\FAUSTO\SVILUPPI\MSX\CODE\C\MSXgl\projects\exsoccer/exsoccer_s2_b0.c:502: i16 dy = (i16)g_Players[playerId].TargetY - (i16)g_Players[i].Y;
    00000E4E DD 7E DF         [19] 2610 	ld	a, -33 (ix)
    00000E51 C6 0A            [ 7] 2611 	add	a, #0x0a
    00000E53 DD 77 F7         [19] 2612 	ld	-9 (ix), a
    00000E56 DD 7E E0         [19] 2613 	ld	a, -32 (ix)
    00000E59 CE 00            [ 7] 2614 	adc	a, #0x00
    00000E5B DD 77 F8         [19] 2615 	ld	-8 (ix), a
    00000E5E DD 6E F7         [19] 2616 	ld	l, -9 (ix)
    00000E61 DD 66 F8         [19] 2617 	ld	h, -8 (ix)
    00000E64 5E               [ 7] 2618 	ld	e, (hl)
    00000E65 23               [ 6] 2619 	inc	hl
    00000E66 56               [ 7] 2620 	ld	d, (hl)
    00000E67 DD 6E F9         [19] 2621 	ld	l, -7 (ix)
    00000E6A DD 66 FA         [19] 2622 	ld	h, -6 (ix)
    00000E6D 7E               [ 7] 2623 	ld	a, (hl)
    00000E6E 23               [ 6] 2624 	inc	hl
    00000E6F 66               [ 7] 2625 	ld	h, (hl)
                                   2626 ;	spillPairReg hl
    00000E70 6F               [ 4] 2627 	ld	l, a
                                   2628 ;	spillPairReg hl
                                   2629 ;	spillPairReg hl
    00000E71 7B               [ 4] 2630 	ld	a, e
    00000E72 95               [ 4] 2631 	sub	a, l
    00000E73 5F               [ 4] 2632 	ld	e, a
    00000E74 7A               [ 4] 2633 	ld	a, d
    00000E75 9C               [ 4] 2634 	sbc	a, h
    00000E76 57               [ 4] 2635 	ld	d, a
                                   2636 ;E:\Dropbox\FAUSTO\SVILUPPI\MSX\CODE\C\MSXgl\projects\exsoccer/exsoccer_s2_b0.c:503: if (dx > -75 && dx < 75 && dy > -75 && dy < 75) {
    00000E77 3E B5            [ 7] 2637 	ld	a, #0xb5
    00000E79 DD BE FB         [19] 2638 	cp	a, -5 (ix)
    00000E7C 3E FF            [ 7] 2639 	ld	a, #0xff
    00000E7E DD 9E FC         [19] 2640 	sbc	a, -4 (ix)
    00000E81 E2r86r0E         [10] 2641 	jp	PO, 01770$
    00000E84 EE 80            [ 7] 2642 	xor	a, #0x80
    00000E86                       2643 01770$:
    00000E86 F2r1Er0F         [10] 2644 	jp	P, 00388$
    00000E89 DD 7E FB         [19] 2645 	ld	a, -5 (ix)
    00000E8C DD 77 F9         [19] 2646 	ld	-7 (ix), a
    00000E8F DD 7E FC         [19] 2647 	ld	a, -4 (ix)
    00000E92 DD 77 FA         [19] 2648 	ld	-6 (ix), a
    00000E95 DD 7E F9         [19] 2649 	ld	a, -7 (ix)
    00000E98 D6 4B            [ 7] 2650 	sub	a, #0x4b
    00000E9A DD 7E FA         [19] 2651 	ld	a, -6 (ix)
    00000E9D 17               [ 4] 2652 	rla
    00000E9E 3F               [ 4] 2653 	ccf
    00000E9F 1F               [ 4] 2654 	rra
    00000EA0 DE 80            [ 7] 2655 	sbc	a, #0x80
    00000EA2 30 7A            [12] 2656 	jr	NC, 00388$
    00000EA4 3E B5            [ 7] 2657 	ld	a, #0xb5
    00000EA6 BB               [ 4] 2658 	cp	a, e
    00000EA7 3E FF            [ 7] 2659 	ld	a, #0xff
    00000EA9 9A               [ 4] 2660 	sbc	a, d
    00000EAA E2rAFr0E         [10] 2661 	jp	PO, 01771$
    00000EAD EE 80            [ 7] 2662 	xor	a, #0x80
    00000EAF                       2663 01771$:
    00000EAF F2r1Er0F         [10] 2664 	jp	P, 00388$
    00000EB2 DD 73 FB         [19] 2665 	ld	-5 (ix), e
    00000EB5 DD 72 FC         [19] 2666 	ld	-4 (ix), d
    00000EB8 DD 7E FB         [19] 2667 	ld	a, -5 (ix)
    00000EBB D6 4B            [ 7] 2668 	sub	a, #0x4b
    00000EBD DD 7E FC         [19] 2669 	ld	a, -4 (ix)
    00000EC0 17               [ 4] 2670 	rla
    00000EC1 3F               [ 4] 2671 	ccf
    00000EC2 1F               [ 4] 2672 	rra
    00000EC3 DE 80            [ 7] 2673 	sbc	a, #0x80
    00000EC5 30 57            [12] 2674 	jr	NC, 00388$
                                   2675 ;E:\Dropbox\FAUSTO\SVILUPPI\MSX\CODE\C\MSXgl\projects\exsoccer/exsoccer_s2_b0.c:504: if (dx >= 0) g_Players[playerId].TargetX += 12; else g_Players[playerId].TargetX -= 12;
    00000EC7 DD 5E F5         [19] 2676 	ld	e, -11 (ix)
    00000ECA DD 56 F6         [19] 2677 	ld	d, -10 (ix)
    00000ECD DD CB FA 7E      [20] 2678 	bit	7, -6 (ix)
    00000ED1 20 0D            [12] 2679 	jr	NZ, 00378$
    00000ED3 21 0C 00         [10] 2680 	ld	hl, #0x000c
    00000ED6 19               [11] 2681 	add	hl, de
    00000ED7 EB               [ 4] 2682 	ex	de, hl
    00000ED8 7B               [ 4] 2683 	ld	a, e
    00000ED9 02               [ 7] 2684 	ld	(bc), a
    00000EDA 03               [ 6] 2685 	inc	bc
    00000EDB 7A               [ 4] 2686 	ld	a, d
    00000EDC 02               [ 7] 2687 	ld	(bc), a
    00000EDD C3rEDr0E         [10] 2688 	jp	00379$
    00000EE0                       2689 00378$:
    00000EE0 7B               [ 4] 2690 	ld	a, e
    00000EE1 C6 F4            [ 7] 2691 	add	a, #0xf4
    00000EE3 5F               [ 4] 2692 	ld	e, a
    00000EE4 7A               [ 4] 2693 	ld	a, d
    00000EE5 CE FF            [ 7] 2694 	adc	a, #0xff
    00000EE7 57               [ 4] 2695 	ld	d, a
    00000EE8 7B               [ 4] 2696 	ld	a, e
    00000EE9 02               [ 7] 2697 	ld	(bc), a
    00000EEA 03               [ 6] 2698 	inc	bc
    00000EEB 7A               [ 4] 2699 	ld	a, d
    00000EEC 02               [ 7] 2700 	ld	(bc), a
    00000EED                       2701 00379$:
                                   2702 ;E:\Dropbox\FAUSTO\SVILUPPI\MSX\CODE\C\MSXgl\projects\exsoccer/exsoccer_s2_b0.c:502: i16 dy = (i16)g_Players[playerId].TargetY - (i16)g_Players[i].Y;
    00000EED DD 6E F7         [19] 2703 	ld	l, -9 (ix)
    00000EF0 DD 66 F8         [19] 2704 	ld	h, -8 (ix)
    00000EF3 4E               [ 7] 2705 	ld	c, (hl)
    00000EF4 23               [ 6] 2706 	inc	hl
    00000EF5 46               [ 7] 2707 	ld	b, (hl)
                                   2708 ;E:\Dropbox\FAUSTO\SVILUPPI\MSX\CODE\C\MSXgl\projects\exsoccer/exsoccer_s2_b0.c:505: if (dy >= 0) g_Players[playerId].TargetY += 12; else g_Players[playerId].TargetY -= 12;
    00000EF6 DD CB FC 7E      [20] 2709 	bit	7, -4 (ix)
    00000EFA 20 11            [12] 2710 	jr	NZ, 00381$
    00000EFC 21 0C 00         [10] 2711 	ld	hl, #0x000c
    00000EFF 09               [11] 2712 	add	hl, bc
    00000F00 EB               [ 4] 2713 	ex	de, hl
    00000F01 DD 6E F7         [19] 2714 	ld	l, -9 (ix)
    00000F04 DD 66 F8         [19] 2715 	ld	h, -8 (ix)
    00000F07 73               [ 7] 2716 	ld	(hl), e
    00000F08 23               [ 6] 2717 	inc	hl
    00000F09 72               [ 7] 2718 	ld	(hl), d
    00000F0A C3r1Er0F         [10] 2719 	jp	00388$
    00000F0D                       2720 00381$:
    00000F0D 79               [ 4] 2721 	ld	a, c
    00000F0E C6 F4            [ 7] 2722 	add	a, #0xf4
    00000F10 4F               [ 4] 2723 	ld	c, a
    00000F11 78               [ 4] 2724 	ld	a, b
    00000F12 CE FF            [ 7] 2725 	adc	a, #0xff
    00000F14 47               [ 4] 2726 	ld	b, a
    00000F15 DD 6E F7         [19] 2727 	ld	l, -9 (ix)
    00000F18 DD 66 F8         [19] 2728 	ld	h, -8 (ix)
    00000F1B 71               [ 7] 2729 	ld	(hl), c
    00000F1C 23               [ 6] 2730 	inc	hl
    00000F1D 70               [ 7] 2731 	ld	(hl), b
    00000F1E                       2732 00388$:
                                   2733 ;E:\Dropbox\FAUSTO\SVILUPPI\MSX\CODE\C\MSXgl\projects\exsoccer/exsoccer_s2_b0.c:495: for(u8 i=0; i<14; i++) {
    00000F1E DD 34 FF         [23] 2734 	inc	-1 (ix)
    00000F21 C3rC9r0D         [10] 2735 	jp	00542$
    00000F24                       2736 00389$:
                                   2737 ;E:\Dropbox\FAUSTO\SVILUPPI\MSX\CODE\C\MSXgl\projects\exsoccer/exsoccer_s2_b0.c:510: u16 offsideY = GetOffsideLineY(playerTeamId);
    00000F24 DD 7E E1         [19] 2738 	ld	a, -31 (ix)
    00000F27 CDr00r00         [17] 2739 	call	_GetOffsideLineY
    00000F2A 4B               [ 4] 2740 	ld	c, e
    00000F2B 42               [ 4] 2741 	ld	b, d
                                   2742 ;E:\Dropbox\FAUSTO\SVILUPPI\MSX\CODE\C\MSXgl\projects\exsoccer/exsoccer_s2_b0.c:429: g_Players[playerId].TargetY = finalTargetY;
    00000F2C DD 7E DF         [19] 2743 	ld	a, -33 (ix)
    00000F2F C6 0A            [ 7] 2744 	add	a, #0x0a
    00000F31 5F               [ 4] 2745 	ld	e, a
    00000F32 DD 7E E0         [19] 2746 	ld	a, -32 (ix)
    00000F35 CE 00            [ 7] 2747 	adc	a, #0x00
    00000F37 57               [ 4] 2748 	ld	d, a
                                   2749 ;E:\Dropbox\FAUSTO\SVILUPPI\MSX\CODE\C\MSXgl\projects\exsoccer/exsoccer_s2_b0.c:441: g_Players[playerId].TargetY = g_Ball.Y;
    00000F38 21r00r00         [10] 2750 	ld	hl, #_g_Ball
    00000F3B 7E               [ 7] 2751 	ld	a, (hl)
    00000F3C DD 77 FB         [19] 2752 	ld	-5 (ix), a
    00000F3F 23               [ 6] 2753 	inc	hl
    00000F40 7E               [ 7] 2754 	ld	a, (hl)
    00000F41 DD 77 FC         [19] 2755 	ld	-4 (ix), a
                                   2756 ;E:\Dropbox\FAUSTO\SVILUPPI\MSX\CODE\C\MSXgl\projects\exsoccer/exsoccer_s2_b0.c:519: if (g_Players[playerId].TargetY < (effectiveLimit + 10)) { 
    00000F44 6B               [ 4] 2757 	ld	l, e
    00000F45 62               [ 4] 2758 	ld	h, d
    00000F46 23               [ 6] 2759 	inc	hl
    00000F47 7E               [ 7] 2760 	ld	a, (hl)
    00000F48 2B               [ 6] 2761 	dec	hl
    00000F49 6E               [ 7] 2762 	ld	l, (hl)
                                   2763 ;	spillPairReg hl
    00000F4A DD 75 FE         [19] 2764 	ld	-2 (ix), l
    00000F4D DD 77 FF         [19] 2765 	ld	-1 (ix), a
                                   2766 ;E:\Dropbox\FAUSTO\SVILUPPI\MSX\CODE\C\MSXgl\projects\exsoccer/exsoccer_s2_b0.c:513: if (playerTeamId == TEAM_1) { // Attacking UP (TargetY decreases)
    00000F50 DD 7E E1         [19] 2767 	ld	a, -31 (ix)
    00000F53 3D               [ 4] 2768 	dec	a
    00000F54 20 29            [12] 2769 	jr	NZ, 00395$
                                   2770 ;E:\Dropbox\FAUSTO\SVILUPPI\MSX\CODE\C\MSXgl\projects\exsoccer/exsoccer_s2_b0.c:517: effectiveLimit = (g_Ball.Y < offsideY) ? g_Ball.Y : offsideY;
    00000F56 DD 7E FB         [19] 2771 	ld	a, -5 (ix)
    00000F59 91               [ 4] 2772 	sub	a, c
    00000F5A DD 7E FC         [19] 2773 	ld	a, -4 (ix)
    00000F5D 98               [ 4] 2774 	sbc	a, b
    00000F5E 30 06            [12] 2775 	jr	NC, 00563$
    00000F60 DD 4E FB         [19] 2776 	ld	c, -5 (ix)
    00000F63 DD 46 FC         [19] 2777 	ld	b, -4 (ix)
    00000F66                       2778 00563$:
                                   2779 ;E:\Dropbox\FAUSTO\SVILUPPI\MSX\CODE\C\MSXgl\projects\exsoccer/exsoccer_s2_b0.c:519: if (g_Players[playerId].TargetY < (effectiveLimit + 10)) { 
    00000F66 21 0A 00         [10] 2780 	ld	hl, #0x000a
    00000F69 09               [11] 2781 	add	hl, bc
    00000F6A 4D               [ 4] 2782 	ld	c, l
    00000F6B 44               [ 4] 2783 	ld	b, h
    00000F6C DD 7E FE         [19] 2784 	ld	a, -2 (ix)
    00000F6F 91               [ 4] 2785 	sub	a, c
    00000F70 DD 7E FF         [19] 2786 	ld	a, -1 (ix)
    00000F73 98               [ 4] 2787 	sbc	a, b
    00000F74 D2r89r17         [10] 2788 	jp	NC,00545$
                                   2789 ;E:\Dropbox\FAUSTO\SVILUPPI\MSX\CODE\C\MSXgl\projects\exsoccer/exsoccer_s2_b0.c:520: g_Players[playerId].TargetY = effectiveLimit + 10;
    00000F77 79               [ 4] 2790 	ld	a, c
    00000F78 12               [ 7] 2791 	ld	(de), a
    00000F79 13               [ 6] 2792 	inc	de
    00000F7A 78               [ 4] 2793 	ld	a, b
    00000F7B 12               [ 7] 2794 	ld	(de), a
    00000F7C C3r89r17         [10] 2795 	jp	00545$
    00000F7F                       2796 00395$:
                                   2797 ;E:\Dropbox\FAUSTO\SVILUPPI\MSX\CODE\C\MSXgl\projects\exsoccer/exsoccer_s2_b0.c:524: effectiveLimit = (g_Ball.Y > offsideY) ? g_Ball.Y : offsideY;
    00000F7F 79               [ 4] 2798 	ld	a, c
    00000F80 DD 96 FB         [19] 2799 	sub	a, -5 (ix)
    00000F83 78               [ 4] 2800 	ld	a, b
    00000F84 DD 9E FC         [19] 2801 	sbc	a, -4 (ix)
    00000F87 30 06            [12] 2802 	jr	NC, 00565$
    00000F89 DD 4E FB         [19] 2803 	ld	c, -5 (ix)
    00000F8C DD 46 FC         [19] 2804 	ld	b, -4 (ix)
    00000F8F                       2805 00565$:
                                   2806 ;E:\Dropbox\FAUSTO\SVILUPPI\MSX\CODE\C\MSXgl\projects\exsoccer/exsoccer_s2_b0.c:526: if (g_Players[playerId].TargetY > (effectiveLimit - 10)) {
    00000F8F 79               [ 4] 2807 	ld	a, c
    00000F90 C6 F6            [ 7] 2808 	add	a, #0xf6
    00000F92 4F               [ 4] 2809 	ld	c, a
    00000F93 78               [ 4] 2810 	ld	a, b
    00000F94 CE FF            [ 7] 2811 	adc	a, #0xff
    00000F96 47               [ 4] 2812 	ld	b, a
    00000F97 79               [ 4] 2813 	ld	a, c
    00000F98 DD 96 FE         [19] 2814 	sub	a, -2 (ix)
    00000F9B 78               [ 4] 2815 	ld	a, b
    00000F9C DD 9E FF         [19] 2816 	sbc	a, -1 (ix)
    00000F9F D2r89r17         [10] 2817 	jp	NC,00545$
                                   2818 ;E:\Dropbox\FAUSTO\SVILUPPI\MSX\CODE\C\MSXgl\projects\exsoccer/exsoccer_s2_b0.c:527: g_Players[playerId].TargetY = effectiveLimit - 10;
    00000FA2 79               [ 4] 2819 	ld	a, c
    00000FA3 12               [ 7] 2820 	ld	(de), a
    00000FA4 13               [ 6] 2821 	inc	de
    00000FA5 78               [ 4] 2822 	ld	a, b
    00000FA6 12               [ 7] 2823 	ld	(de), a
                                   2824 ;E:\Dropbox\FAUSTO\SVILUPPI\MSX\CODE\C\MSXgl\projects\exsoccer/exsoccer_s2_b0.c:532: return; 
    00000FA7 C3r89r17         [10] 2825 	jp	00545$
    00000FAA                       2826 00398$:
                                   2827 ;E:\Dropbox\FAUSTO\SVILUPPI\MSX\CODE\C\MSXgl\projects\exsoccer/exsoccer_s2_b0.c:541: if (g_Players[playerId].Role == PLAYER_ROLE_GOALKEEPER) {
    00000FAA DD 7E DF         [19] 2828 	ld	a, -33 (ix)
    00000FAD C6 09            [ 7] 2829 	add	a, #0x09
    00000FAF DD 77 F5         [19] 2830 	ld	-11 (ix), a
    00000FB2 DD 7E E0         [19] 2831 	ld	a, -32 (ix)
    00000FB5 CE 00            [ 7] 2832 	adc	a, #0x00
    00000FB7 DD 77 F6         [19] 2833 	ld	-10 (ix), a
    00000FBA DD 6E F5         [19] 2834 	ld	l, -11 (ix)
    00000FBD DD 66 F6         [19] 2835 	ld	h, -10 (ix)
    00000FC0 7E               [ 7] 2836 	ld	a, (hl)
    00000FC1 B7               [ 4] 2837 	or	a, a
    00000FC2 C2r20r11         [10] 2838 	jp	NZ, 00421$
                                   2839 ;E:\Dropbox\FAUSTO\SVILUPPI\MSX\CODE\C\MSXgl\projects\exsoccer/exsoccer_s2_b0.c:547: if (playerTeamId == TEAM_1) { 
    00000FC5 DD 7E E1         [19] 2840 	ld	a, -31 (ix)
    00000FC8 3D               [ 4] 2841 	dec	a
    00000FC9 20 16            [12] 2842 	jr	NZ, 00400$
                                   2843 ;E:\Dropbox\FAUSTO\SVILUPPI\MSX\CODE\C\MSXgl\projects\exsoccer/exsoccer_s2_b0.c:548: gkTargetY = FIELD_POS_Y_TEAM1_GOALKEEPER;
    00000FCB 01 A8 01         [10] 2844 	ld	bc, #0x01a8
                                   2845 ;E:\Dropbox\FAUSTO\SVILUPPI\MSX\CODE\C\MSXgl\projects\exsoccer/exsoccer_s2_b0.c:549: boxYMin = GK_BOX_Y_BOTTOM_MIN; boxYMax = GK_BOX_Y_BOTTOM_MAX;
    00000FCE DD 36 FB 95      [19] 2846 	ld	-5 (ix), #0x95
    00000FD2 DD 36 FC 01      [19] 2847 	ld	-4 (ix), #0x01
    00000FD6 DD 36 FE B3      [19] 2848 	ld	-2 (ix), #0xb3
    00000FDA DD 36 FF 01      [19] 2849 	ld	-1 (ix), #0x01
    00000FDE C3rF4r0F         [10] 2850 	jp	00401$
    00000FE1                       2851 00400$:
                                   2852 ;E:\Dropbox\FAUSTO\SVILUPPI\MSX\CODE\C\MSXgl\projects\exsoccer/exsoccer_s2_b0.c:551: gkTargetY = FIELD_POS_Y_TEAM2_GOALKEEPER;
    00000FE1 01 32 00         [10] 2853 	ld	bc, #0x0032
                                   2854 ;E:\Dropbox\FAUSTO\SVILUPPI\MSX\CODE\C\MSXgl\projects\exsoccer/exsoccer_s2_b0.c:552: boxYMin = GK_BOX_Y_TOP_MIN; boxYMax = GK_BOX_Y_TOP_MAX;
    00000FE4 DD 36 FB 23      [19] 2855 	ld	-5 (ix), #0x23
    00000FE8 DD 36 FC 00      [19] 2856 	ld	-4 (ix), #0
    00000FEC DD 36 FE 4B      [19] 2857 	ld	-2 (ix), #0x4b
    00000FF0 DD 36 FF 00      [19] 2858 	ld	-1 (ix), #0
    00000FF4                       2859 00401$:
                                   2860 ;E:\Dropbox\FAUSTO\SVILUPPI\MSX\CODE\C\MSXgl\projects\exsoccer/exsoccer_s2_b0.c:555: u8 closestId = GetClosestPlayerToBall(playerTeamId, NO_VALUE);
    00000FF4 C5               [11] 2861 	push	bc
    00000FF5 2E FF            [ 7] 2862 	ld	l, #0xff
                                   2863 ;	spillPairReg hl
                                   2864 ;	spillPairReg hl
    00000FF7 DD 7E E1         [19] 2865 	ld	a, -31 (ix)
    00000FFA CDr5Dr2B         [17] 2866 	call	_GetClosestPlayerToBall
    00000FFD C1               [10] 2867 	pop	bc
    00000FFE DD 77 F5         [19] 2868 	ld	-11 (ix), a
                                   2869 ;E:\Dropbox\FAUSTO\SVILUPPI\MSX\CODE\C\MSXgl\projects\exsoccer/exsoccer_s2_b0.c:556: bool ballInBox = (g_Ball.X > (boxXMin-5) && g_Ball.X < (boxXMax+5) && 
    00001001 21r02r00         [10] 2870 	ld	hl, #_g_Ball + 2
    00001004 7E               [ 7] 2871 	ld	a, (hl)
    00001005 DD 77 F6         [19] 2872 	ld	-10 (ix), a
    00001008 23               [ 6] 2873 	inc	hl
    00001009 7E               [ 7] 2874 	ld	a, (hl)
    0000100A DD 77 F7         [19] 2875 	ld	-9 (ix), a
    0000100D DD 7E F6         [19] 2876 	ld	a, -10 (ix)
    00001010 DD 77 F8         [19] 2877 	ld	-8 (ix), a
    00001013 DD 7E F7         [19] 2878 	ld	a, -9 (ix)
    00001016 DD 77 F9         [19] 2879 	ld	-7 (ix), a
    00001019 3E 4B            [ 7] 2880 	ld	a, #0x4b
    0000101B DD BE F8         [19] 2881 	cp	a, -8 (ix)
    0000101E 3E 00            [ 7] 2882 	ld	a, #0x00
    00001020 DD 9E F9         [19] 2883 	sbc	a, -7 (ix)
    00001023 30 32            [12] 2884 	jr	NC, 00567$
    00001025 DD 7E F8         [19] 2885 	ld	a, -8 (ix)
    00001028 D6 A5            [ 7] 2886 	sub	a, #0xa5
    0000102A DD 7E F9         [19] 2887 	ld	a, -7 (ix)
    0000102D DE 00            [ 7] 2888 	sbc	a, #0x00
    0000102F 30 26            [12] 2889 	jr	NC, 00567$
    00001031 2Ar00r00         [16] 2890 	ld	hl, (#_g_Ball + 0)
    00001034 DD 7E FB         [19] 2891 	ld	a, -5 (ix)
    00001037 DD 56 FC         [19] 2892 	ld	d, -4 (ix)
    0000103A C6 FB            [ 7] 2893 	add	a, #0xfb
    0000103C 5F               [ 4] 2894 	ld	e, a
    0000103D 7A               [ 4] 2895 	ld	a, d
    0000103E CE FF            [ 7] 2896 	adc	a, #0xff
    00001040 57               [ 4] 2897 	ld	d, a
    00001041 7B               [ 4] 2898 	ld	a, e
    00001042 95               [ 4] 2899 	sub	a, l
    00001043 7A               [ 4] 2900 	ld	a, d
    00001044 9C               [ 4] 2901 	sbc	a, h
    00001045 30 10            [12] 2902 	jr	NC, 00567$
    00001047 DD 5E FE         [19] 2903 	ld	e, -2 (ix)
    0000104A DD 56 FF         [19] 2904 	ld	d, -1 (ix)
    0000104D 13               [ 6] 2905 	inc	de
    0000104E 13               [ 6] 2906 	inc	de
    0000104F 13               [ 6] 2907 	inc	de
    00001050 13               [ 6] 2908 	inc	de
    00001051 13               [ 6] 2909 	inc	de
    00001052 AF               [ 4] 2910 	xor	a, a
    00001053 ED 52            [15] 2911 	sbc	hl, de
    00001055 38 07            [12] 2912 	jr	C, 00568$
    00001057                       2913 00567$:
    00001057 DD 36 FA 00      [19] 2914 	ld	-6 (ix), #0x00
    0000105B C3r62r10         [10] 2915 	jp	00569$
    0000105E                       2916 00568$:
    0000105E DD 36 FA 01      [19] 2917 	ld	-6 (ix), #0x01
    00001062                       2918 00569$:
                                   2919 ;E:\Dropbox\FAUSTO\SVILUPPI\MSX\CODE\C\MSXgl\projects\exsoccer/exsoccer_s2_b0.c:559: if (ballInBox && closestId == playerId) {
    00001062 DD 7E FA         [19] 2920 	ld	a, -6 (ix)
    00001065 B7               [ 4] 2921 	or	a, a
    00001066 28 1B            [12] 2922 	jr	Z, 00409$
    00001068 DD 7E FD         [19] 2923 	ld	a, -3 (ix)
    0000106B DD 96 F5         [19] 2924 	sub	a, -11 (ix)
    0000106E 20 13            [12] 2925 	jr	NZ, 00409$
                                   2926 ;E:\Dropbox\FAUSTO\SVILUPPI\MSX\CODE\C\MSXgl\projects\exsoccer/exsoccer_s2_b0.c:560: gkTargetX = g_Ball.X;
    00001070 DD 7E F6         [19] 2927 	ld	a, -10 (ix)
    00001073 DD 6E F7         [19] 2928 	ld	l, -9 (ix)
                                   2929 ;	spillPairReg hl
                                   2930 ;	spillPairReg hl
    00001076 DD 77 F9         [19] 2931 	ld	-7 (ix), a
    00001079 DD 75 FA         [19] 2932 	ld	-6 (ix), l
                                   2933 ;E:\Dropbox\FAUSTO\SVILUPPI\MSX\CODE\C\MSXgl\projects\exsoccer/exsoccer_s2_b0.c:561: gkTargetY = g_Ball.Y;
    0000107C ED 4Br00r00      [20] 2934 	ld	bc, (#_g_Ball + 0)
    00001080 C3rBDr10         [10] 2935 	jp	00410$
    00001083                       2936 00409$:
                                   2937 ;E:\Dropbox\FAUSTO\SVILUPPI\MSX\CODE\C\MSXgl\projects\exsoccer/exsoccer_s2_b0.c:563: if (g_Ball.X > gkTargetX + 24) gkTargetX += 16;
    00001083 3E 90            [ 7] 2938 	ld	a, #0x90
    00001085 DD BE F8         [19] 2939 	cp	a, -8 (ix)
    00001088 3E 00            [ 7] 2940 	ld	a, #0x00
    0000108A DD 9E F9         [19] 2941 	sbc	a, -7 (ix)
    0000108D 30 0B            [12] 2942 	jr	NC, 00406$
    0000108F DD 36 F9 88      [19] 2943 	ld	-7 (ix), #0x88
    00001093 DD 36 FA 00      [19] 2944 	ld	-6 (ix), #0
    00001097 C3rBDr10         [10] 2945 	jp	00410$
    0000109A                       2946 00406$:
                                   2947 ;E:\Dropbox\FAUSTO\SVILUPPI\MSX\CODE\C\MSXgl\projects\exsoccer/exsoccer_s2_b0.c:564: else if (g_Ball.X < gkTargetX - 24) gkTargetX -= 16;
    0000109A DD 7E F8         [19] 2948 	ld	a, -8 (ix)
    0000109D D6 60            [ 7] 2949 	sub	a, #0x60
    0000109F DD 7E F9         [19] 2950 	ld	a, -7 (ix)
    000010A2 DE 00            [ 7] 2951 	sbc	a, #0x00
    000010A4 30 0B            [12] 2952 	jr	NC, 00403$
    000010A6 DD 36 F9 68      [19] 2953 	ld	-7 (ix), #0x68
    000010AA DD 36 FA 00      [19] 2954 	ld	-6 (ix), #0
    000010AE C3rBDr10         [10] 2955 	jp	00410$
    000010B1                       2956 00403$:
                                   2957 ;E:\Dropbox\FAUSTO\SVILUPPI\MSX\CODE\C\MSXgl\projects\exsoccer/exsoccer_s2_b0.c:565: else gkTargetX = g_Ball.X; 
    000010B1 DD 7E F6         [19] 2958 	ld	a, -10 (ix)
    000010B4 DD 5E F7         [19] 2959 	ld	e, -9 (ix)
    000010B7 DD 77 F9         [19] 2960 	ld	-7 (ix), a
    000010BA DD 73 FA         [19] 2961 	ld	-6 (ix), e
    000010BD                       2962 00410$:
                                   2963 ;E:\Dropbox\FAUSTO\SVILUPPI\MSX\CODE\C\MSXgl\projects\exsoccer/exsoccer_s2_b0.c:568: if (gkTargetX < boxXMin) gkTargetX = boxXMin;
    000010BD DD 7E F9         [19] 2964 	ld	a, -7 (ix)
    000010C0 D6 50            [ 7] 2965 	sub	a, #0x50
    000010C2 DD 7E FA         [19] 2966 	ld	a, -6 (ix)
    000010C5 DE 00            [ 7] 2967 	sbc	a, #0x00
    000010C7 30 08            [12] 2968 	jr	NC, 00413$
    000010C9 DD 36 F9 50      [19] 2969 	ld	-7 (ix), #0x50
    000010CD DD 36 FA 00      [19] 2970 	ld	-6 (ix), #0
    000010D1                       2971 00413$:
                                   2972 ;E:\Dropbox\FAUSTO\SVILUPPI\MSX\CODE\C\MSXgl\projects\exsoccer/exsoccer_s2_b0.c:569: if (gkTargetX > boxXMax) gkTargetX = boxXMax;
    000010D1 3E A0            [ 7] 2973 	ld	a, #0xa0
    000010D3 DD BE F9         [19] 2974 	cp	a, -7 (ix)
    000010D6 3E 00            [ 7] 2975 	ld	a, #0x00
    000010D8 DD 9E FA         [19] 2976 	sbc	a, -6 (ix)
    000010DB 30 08            [12] 2977 	jr	NC, 00415$
    000010DD DD 36 F9 A0      [19] 2978 	ld	-7 (ix), #0xa0
    000010E1 DD 36 FA 00      [19] 2979 	ld	-6 (ix), #0
    000010E5                       2980 00415$:
                                   2981 ;E:\Dropbox\FAUSTO\SVILUPPI\MSX\CODE\C\MSXgl\projects\exsoccer/exsoccer_s2_b0.c:570: if (gkTargetY < boxYMin) gkTargetY = boxYMin;
    000010E5 79               [ 4] 2982 	ld	a, c
    000010E6 DD 96 FB         [19] 2983 	sub	a, -5 (ix)
    000010E9 78               [ 4] 2984 	ld	a, b
    000010EA DD 9E FC         [19] 2985 	sbc	a, -4 (ix)
    000010ED 30 06            [12] 2986 	jr	NC, 00417$
    000010EF DD 4E FB         [19] 2987 	ld	c, -5 (ix)
    000010F2 DD 46 FC         [19] 2988 	ld	b, -4 (ix)
    000010F5                       2989 00417$:
                                   2990 ;E:\Dropbox\FAUSTO\SVILUPPI\MSX\CODE\C\MSXgl\projects\exsoccer/exsoccer_s2_b0.c:571: if (gkTargetY > boxYMax) gkTargetY = boxYMax;
    000010F5 DD 7E FE         [19] 2991 	ld	a, -2 (ix)
    000010F8 91               [ 4] 2992 	sub	a, c
    000010F9 DD 7E FF         [19] 2993 	ld	a, -1 (ix)
    000010FC 98               [ 4] 2994 	sbc	a, b
    000010FD 30 06            [12] 2995 	jr	NC, 00419$
    000010FF DD 4E FE         [19] 2996 	ld	c, -2 (ix)
    00001102 DD 46 FF         [19] 2997 	ld	b, -1 (ix)
    00001105                       2998 00419$:
                                   2999 ;E:\Dropbox\FAUSTO\SVILUPPI\MSX\CODE\C\MSXgl\projects\exsoccer/exsoccer_s2_b0.c:573: g_Players[playerId].TargetX = gkTargetX;
    00001105 E1               [10] 3000 	pop	hl
    00001106 E5               [11] 3001 	push	hl
    00001107 11 0C 00         [10] 3002 	ld	de, #0x000c
    0000110A 19               [11] 3003 	add	hl, de
    0000110B DD 7E F9         [19] 3004 	ld	a, -7 (ix)
    0000110E 77               [ 7] 3005 	ld	(hl), a
    0000110F 23               [ 6] 3006 	inc	hl
    00001110 DD 7E FA         [19] 3007 	ld	a, -6 (ix)
    00001113 77               [ 7] 3008 	ld	(hl), a
                                   3009 ;E:\Dropbox\FAUSTO\SVILUPPI\MSX\CODE\C\MSXgl\projects\exsoccer/exsoccer_s2_b0.c:574: g_Players[playerId].TargetY = gkTargetY;
    00001114 E1               [10] 3010 	pop	hl
    00001115 E5               [11] 3011 	push	hl
    00001116 11 0A 00         [10] 3012 	ld	de, #0x000a
    00001119 19               [11] 3013 	add	hl, de
    0000111A 71               [ 7] 3014 	ld	(hl), c
    0000111B 23               [ 6] 3015 	inc	hl
    0000111C 70               [ 7] 3016 	ld	(hl), b
                                   3017 ;E:\Dropbox\FAUSTO\SVILUPPI\MSX\CODE\C\MSXgl\projects\exsoccer/exsoccer_s2_b0.c:575: return; 
    0000111D C3r89r17         [10] 3018 	jp	00545$
    00001120                       3019 00421$:
                                   3020 ;E:\Dropbox\FAUSTO\SVILUPPI\MSX\CODE\C\MSXgl\projects\exsoccer/exsoccer_s2_b0.c:579: u8 playerClosesestToBallId = GetClosestPlayerToBall(playerTeamId, NO_VALUE);
    00001120 2E FF            [ 7] 3021 	ld	l, #0xff
                                   3022 ;	spillPairReg hl
                                   3023 ;	spillPairReg hl
    00001122 DD 7E E1         [19] 3024 	ld	a, -31 (ix)
    00001125 CDr5Dr2B         [17] 3025 	call	_GetClosestPlayerToBall
    00001128 47               [ 4] 3026 	ld	b, a
                                   3027 ;E:\Dropbox\FAUSTO\SVILUPPI\MSX\CODE\C\MSXgl\projects\exsoccer/exsoccer_s2_b0.c:581: bool amIEffectiveChaser = (playerClosesestToBallId == playerId);
    00001129 DD 7E FD         [19] 3028 	ld	a, -3 (ix)
    0000112C 90               [ 4] 3029 	sub	a, b
    0000112D 3E 01            [ 7] 3030 	ld	a, #0x01
    0000112F 28 01            [12] 3031 	jr	Z, 01779$
    00001131 AF               [ 4] 3032 	xor	a, a
    00001132                       3033 01779$:
    00001132 DD 77 F7         [19] 3034 	ld	-9 (ix), a
                                   3035 ;E:\Dropbox\FAUSTO\SVILUPPI\MSX\CODE\C\MSXgl\projects\exsoccer/exsoccer_s2_b0.c:583: if (g_Players[playerClosesestToBallId].Role == PLAYER_ROLE_GOALKEEPER) {
    00001135 58               [ 4] 3036 	ld	e, b
    00001136 16 00            [ 7] 3037 	ld	d, #0x00
    00001138 6B               [ 4] 3038 	ld	l, e
    00001139 62               [ 4] 3039 	ld	h, d
    0000113A 29               [11] 3040 	add	hl, hl
    0000113B 29               [11] 3041 	add	hl, hl
    0000113C 29               [11] 3042 	add	hl, hl
    0000113D 29               [11] 3043 	add	hl, hl
    0000113E 19               [11] 3044 	add	hl, de
    0000113F 11r00r00         [10] 3045 	ld	de, #_g_Players
    00001142 19               [11] 3046 	add	hl, de
    00001143 DD 75 F8         [19] 3047 	ld	-8 (ix), l
    00001146 DD 74 F9         [19] 3048 	ld	-7 (ix), h
    00001149 11 09 00         [10] 3049 	ld	de, #9
    0000114C 19               [11] 3050 	add	hl, de
    0000114D 7E               [ 7] 3051 	ld	a, (hl)
    0000114E B7               [ 4] 3052 	or	a, a
    0000114F C2rD0r11         [10] 3053 	jp	NZ, 00433$
                                   3054 ;E:\Dropbox\FAUSTO\SVILUPPI\MSX\CODE\C\MSXgl\projects\exsoccer/exsoccer_s2_b0.c:584: u16 limitY = (playerTeamId == TEAM_1) ? GK_BOX_Y_BOTTOM_MIN : GK_BOX_Y_TOP_MAX;
    00001152 DD 7E E1         [19] 3055 	ld	a, -31 (ix)
    00001155 3D               [ 4] 3056 	dec	a
    00001156 3E 01            [ 7] 3057 	ld	a, #0x01
    00001158 28 01            [12] 3058 	jr	Z, 01781$
    0000115A AF               [ 4] 3059 	xor	a, a
    0000115B                       3060 01781$:
    0000115B 4F               [ 4] 3061 	ld	c, a
    0000115C B7               [ 4] 3062 	or	a, a
    0000115D 28 06            [12] 3063 	jr	Z, 00576$
    0000115F 11 95 01         [10] 3064 	ld	de, #0x0195
    00001162 C3r68r11         [10] 3065 	jp	00577$
    00001165                       3066 00576$:
    00001165 11 4B 00         [10] 3067 	ld	de, #0x004b
    00001168                       3068 00577$:
                                   3069 ;E:\Dropbox\FAUSTO\SVILUPPI\MSX\CODE\C\MSXgl\projects\exsoccer/exsoccer_s2_b0.c:585: bool ballFar = false;
    00001168 DD 36 FA 00      [19] 3070 	ld	-6 (ix), #0x00
                                   3071 ;E:\Dropbox\FAUSTO\SVILUPPI\MSX\CODE\C\MSXgl\projects\exsoccer/exsoccer_s2_b0.c:586: if (playerTeamId == TEAM_1 && g_Ball.Y < limitY - 10) ballFar = true;
    0000116C 79               [ 4] 3072 	ld	a, c
    0000116D B7               [ 4] 3073 	or	a, a
    0000116E 28 2B            [12] 3074 	jr	Z, 00423$
    00001170 21r00r00         [10] 3075 	ld	hl, #_g_Ball
    00001173 7E               [ 7] 3076 	ld	a, (hl)
    00001174 DD 77 FE         [19] 3077 	ld	-2 (ix), a
    00001177 23               [ 6] 3078 	inc	hl
    00001178 7E               [ 7] 3079 	ld	a, (hl)
    00001179 DD 77 FF         [19] 3080 	ld	-1 (ix), a
    0000117C 7B               [ 4] 3081 	ld	a, e
    0000117D 4A               [ 4] 3082 	ld	c, d
    0000117E C6 F6            [ 7] 3083 	add	a, #0xf6
    00001180 DD 77 FB         [19] 3084 	ld	-5 (ix), a
    00001183 79               [ 4] 3085 	ld	a, c
    00001184 CE FF            [ 7] 3086 	adc	a, #0xff
    00001186 DD 77 FC         [19] 3087 	ld	-4 (ix), a
    00001189 DD 7E FE         [19] 3088 	ld	a, -2 (ix)
    0000118C DD 96 FB         [19] 3089 	sub	a, -5 (ix)
    0000118F DD 7E FF         [19] 3090 	ld	a, -1 (ix)
    00001192 DD 9E FC         [19] 3091 	sbc	a, -4 (ix)
    00001195 30 04            [12] 3092 	jr	NC, 00423$
    00001197 DD 36 FA 01      [19] 3093 	ld	-6 (ix), #0x01
    0000119B                       3094 00423$:
                                   3095 ;E:\Dropbox\FAUSTO\SVILUPPI\MSX\CODE\C\MSXgl\projects\exsoccer/exsoccer_s2_b0.c:587: if (playerTeamId == TEAM_2 && g_Ball.Y > limitY + 10) ballFar = true;
    0000119B DD 7E E1         [19] 3096 	ld	a, -31 (ix)
    0000119E D6 02            [ 7] 3097 	sub	a, #0x02
    000011A0 20 14            [12] 3098 	jr	NZ, 00426$
    000011A2 2Ar00r00         [16] 3099 	ld	hl, (#_g_Ball + 0)
    000011A5 7B               [ 4] 3100 	ld	a, e
    000011A6 C6 0A            [ 7] 3101 	add	a, #0x0a
    000011A8 4F               [ 4] 3102 	ld	c, a
    000011A9 30 01            [12] 3103 	jr	NC, 01784$
    000011AB 14               [ 4] 3104 	inc	d
    000011AC                       3105 01784$:
    000011AC 79               [ 4] 3106 	ld	a, c
    000011AD 95               [ 4] 3107 	sub	a, l
    000011AE 7A               [ 4] 3108 	ld	a, d
    000011AF 9C               [ 4] 3109 	sbc	a, h
    000011B0 30 04            [12] 3110 	jr	NC, 00426$
    000011B2 DD 36 FA 01      [19] 3111 	ld	-6 (ix), #0x01
    000011B6                       3112 00426$:
                                   3113 ;E:\Dropbox\FAUSTO\SVILUPPI\MSX\CODE\C\MSXgl\projects\exsoccer/exsoccer_s2_b0.c:589: if (ballFar) {
    000011B6 DD 7E FA         [19] 3114 	ld	a, -6 (ix)
    000011B9 B7               [ 4] 3115 	or	a, a
    000011BA 28 14            [12] 3116 	jr	Z, 00433$
                                   3117 ;E:\Dropbox\FAUSTO\SVILUPPI\MSX\CODE\C\MSXgl\projects\exsoccer/exsoccer_s2_b0.c:590: u8 nextClosest = GetClosestPlayerToBall(playerTeamId, playerClosesestToBallId);
    000011BC C5               [11] 3118 	push	bc
    000011BD 68               [ 4] 3119 	ld	l, b
                                   3120 ;	spillPairReg hl
                                   3121 ;	spillPairReg hl
    000011BE DD 7E E1         [19] 3122 	ld	a, -31 (ix)
    000011C1 CDr5Dr2B         [17] 3123 	call	_GetClosestPlayerToBall
    000011C4 C1               [10] 3124 	pop	bc
    000011C5 4F               [ 4] 3125 	ld	c, a
                                   3126 ;E:\Dropbox\FAUSTO\SVILUPPI\MSX\CODE\C\MSXgl\projects\exsoccer/exsoccer_s2_b0.c:591: if (nextClosest == playerId) amIEffectiveChaser = true;
    000011C6 DD 7E FD         [19] 3127 	ld	a, -3 (ix)
    000011C9 91               [ 4] 3128 	sub	a, c
    000011CA 20 04            [12] 3129 	jr	NZ, 00433$
    000011CC DD 36 F7 01      [19] 3130 	ld	-9 (ix), #0x01
    000011D0                       3131 00433$:
                                   3132 ;E:\Dropbox\FAUSTO\SVILUPPI\MSX\CODE\C\MSXgl\projects\exsoccer/exsoccer_s2_b0.c:595: if (amIEffectiveChaser) {
    000011D0 DD 7E F7         [19] 3133 	ld	a, -9 (ix)
    000011D3 B7               [ 4] 3134 	or	a, a
    000011D4 CArB8r13         [10] 3135 	jp	Z, 00534$
                                   3136 ;E:\Dropbox\FAUSTO\SVILUPPI\MSX\CODE\C\MSXgl\projects\exsoccer/exsoccer_s2_b0.c:597: if (g_Ball.PossessionPlayerId == NO_VALUE) {
    000011D7 21r06r00         [10] 3137 	ld	hl, #_g_Ball + 6
    000011DA 4E               [ 7] 3138 	ld	c, (hl)
                                   3139 ;E:\Dropbox\FAUSTO\SVILUPPI\MSX\CODE\C\MSXgl\projects\exsoccer/exsoccer_s2_b0.c:598: g_Players[playerId].TargetX = g_Ball.X;
    000011DB 21r02r00         [10] 3140 	ld	hl, #_g_Ball + 2
    000011DE 7E               [ 7] 3141 	ld	a, (hl)
    000011DF DD 77 FB         [19] 3142 	ld	-5 (ix), a
    000011E2 23               [ 6] 3143 	inc	hl
    000011E3 7E               [ 7] 3144 	ld	a, (hl)
    000011E4 DD 77 FC         [19] 3145 	ld	-4 (ix), a
                                   3146 ;E:\Dropbox\FAUSTO\SVILUPPI\MSX\CODE\C\MSXgl\projects\exsoccer/exsoccer_s2_b0.c:597: if (g_Ball.PossessionPlayerId == NO_VALUE) {
    000011E7 0C               [ 4] 3147 	inc	c
    000011E8 20 27            [12] 3148 	jr	NZ, 00461$
                                   3149 ;E:\Dropbox\FAUSTO\SVILUPPI\MSX\CODE\C\MSXgl\projects\exsoccer/exsoccer_s2_b0.c:598: g_Players[playerId].TargetX = g_Ball.X;
    000011EA E1               [10] 3150 	pop	hl
    000011EB E5               [11] 3151 	push	hl
    000011EC 11 0C 00         [10] 3152 	ld	de, #0x000c
    000011EF 19               [11] 3153 	add	hl, de
    000011F0 DD 7E FB         [19] 3154 	ld	a, -5 (ix)
    000011F3 77               [ 7] 3155 	ld	(hl), a
    000011F4 23               [ 6] 3156 	inc	hl
    000011F5 DD 7E FC         [19] 3157 	ld	a, -4 (ix)
    000011F8 77               [ 7] 3158 	ld	(hl), a
                                   3159 ;E:\Dropbox\FAUSTO\SVILUPPI\MSX\CODE\C\MSXgl\projects\exsoccer/exsoccer_s2_b0.c:599: g_Players[playerId].TargetY = g_Ball.Y;
    000011F9 DD 7E DF         [19] 3160 	ld	a, -33 (ix)
    000011FC C6 0A            [ 7] 3161 	add	a, #0x0a
    000011FE 4F               [ 4] 3162 	ld	c, a
    000011FF DD 7E E0         [19] 3163 	ld	a, -32 (ix)
    00001202 CE 00            [ 7] 3164 	adc	a, #0x00
    00001204 47               [ 4] 3165 	ld	b, a
    00001205 ED 5Br00r00      [20] 3166 	ld	de, (#_g_Ball + 0)
    00001209 7B               [ 4] 3167 	ld	a, e
    0000120A 02               [ 7] 3168 	ld	(bc), a
    0000120B 03               [ 6] 3169 	inc	bc
    0000120C 7A               [ 4] 3170 	ld	a, d
    0000120D 02               [ 7] 3171 	ld	(bc), a
    0000120E C3r89r17         [10] 3172 	jp	00545$
    00001211                       3173 00461$:
                                   3174 ;E:\Dropbox\FAUSTO\SVILUPPI\MSX\CODE\C\MSXgl\projects\exsoccer/exsoccer_s2_b0.c:605: i16 dx = (i16)g_Players[playerId].X - (i16)g_Ball.X;
    00001211 E1               [10] 3175 	pop	hl
    00001212 E5               [11] 3176 	push	hl
    00001213 23               [ 6] 3177 	inc	hl
    00001214 23               [ 6] 3178 	inc	hl
    00001215 5E               [ 7] 3179 	ld	e, (hl)
    00001216 23               [ 6] 3180 	inc	hl
    00001217 56               [ 7] 3181 	ld	d, (hl)
    00001218 EB               [ 4] 3182 	ex	de, hl
    00001219 DD 4E FB         [19] 3183 	ld	c, -5 (ix)
    0000121C DD 46 FC         [19] 3184 	ld	b, -4 (ix)
    0000121F BF               [ 4] 3185 	cp	a, a
    00001220 ED 42            [15] 3186 	sbc	hl, bc
    00001222 EB               [ 4] 3187 	ex	de, hl
    00001223 DD 73 FE         [19] 3188 	ld	-2 (ix), e
    00001226 DD 72 FF         [19] 3189 	ld	-1 (ix), d
                                   3190 ;E:\Dropbox\FAUSTO\SVILUPPI\MSX\CODE\C\MSXgl\projects\exsoccer/exsoccer_s2_b0.c:606: i16 dy = (i16)g_Players[playerId].Y - (i16)g_Ball.Y;
    00001229 E1               [10] 3191 	pop	hl
    0000122A E5               [11] 3192 	push	hl
    0000122B 4E               [ 7] 3193 	ld	c, (hl)
    0000122C 23               [ 6] 3194 	inc	hl
    0000122D 46               [ 7] 3195 	ld	b, (hl)
    0000122E ED 5Br00r00      [20] 3196 	ld	de, (#_g_Ball + 0)
    00001232 6B               [ 4] 3197 	ld	l, e
                                   3198 ;	spillPairReg hl
                                   3199 ;	spillPairReg hl
    00001233 62               [ 4] 3200 	ld	h, d
                                   3201 ;	spillPairReg hl
                                   3202 ;	spillPairReg hl
    00001234 79               [ 4] 3203 	ld	a, c
    00001235 95               [ 4] 3204 	sub	a, l
    00001236 4F               [ 4] 3205 	ld	c, a
    00001237 78               [ 4] 3206 	ld	a, b
    00001238 9C               [ 4] 3207 	sbc	a, h
    00001239 47               [ 4] 3208 	ld	b, a
                                   3209 ;E:\Dropbox\FAUSTO\SVILUPPI\MSX\CODE\C\MSXgl\projects\exsoccer/exsoccer_s2_b0.c:607: if (dx > -12 && dx < 12 && dy > -12 && dy < 12) {
    0000123A 3E F4            [ 7] 3210 	ld	a, #0xf4
    0000123C DD BE FE         [19] 3211 	cp	a, -2 (ix)
    0000123F 3E FF            [ 7] 3212 	ld	a, #0xff
    00001241 DD 9E FF         [19] 3213 	sbc	a, -1 (ix)
    00001244 E2r49r12         [10] 3214 	jp	PO, 01789$
    00001247 EE 80            [ 7] 3215 	xor	a, #0x80
    00001249                       3216 01789$:
    00001249 F2rB7r12         [10] 3217 	jp	P, 00445$
                                   3218 ;	spillPairReg hl
                                   3219 ;	spillPairReg hl
                                   3220 ;	spillPairReg hl
                                   3221 ;	spillPairReg hl
    0000124C DD 7E FE         [19] 3222 	ld	a, -2 (ix)
    0000124F DD 66 FF         [19] 3223 	ld	h, -1 (ix)
    00001252 D6 0C            [ 7] 3224 	sub	a, #0x0c
    00001254 7C               [ 4] 3225 	ld	a, h
    00001255 17               [ 4] 3226 	rla
    00001256 3F               [ 4] 3227 	ccf
    00001257 1F               [ 4] 3228 	rra
    00001258 DE 80            [ 7] 3229 	sbc	a, #0x80
    0000125A 30 5B            [12] 3230 	jr	NC, 00445$
    0000125C 3E F4            [ 7] 3231 	ld	a, #0xf4
    0000125E B9               [ 4] 3232 	cp	a, c
    0000125F 3E FF            [ 7] 3233 	ld	a, #0xff
    00001261 98               [ 4] 3234 	sbc	a, b
    00001262 E2r67r12         [10] 3235 	jp	PO, 01790$
    00001265 EE 80            [ 7] 3236 	xor	a, #0x80
    00001267                       3237 01790$:
    00001267 F2rB7r12         [10] 3238 	jp	P, 00445$
    0000126A 79               [ 4] 3239 	ld	a, c
    0000126B D6 0C            [ 7] 3240 	sub	a, #0x0c
    0000126D 78               [ 4] 3241 	ld	a, b
    0000126E 17               [ 4] 3242 	rla
    0000126F 3F               [ 4] 3243 	ccf
    00001270 1F               [ 4] 3244 	rra
    00001271 DE 80            [ 7] 3245 	sbc	a, #0x80
    00001273 30 42            [12] 3246 	jr	NC, 00445$
                                   3247 ;E:\Dropbox\FAUSTO\SVILUPPI\MSX\CODE\C\MSXgl\projects\exsoccer/exsoccer_s2_b0.c:612: bool isHumanControlled = false;
    00001275 DD 36 FF 00      [19] 3248 	ld	-1 (ix), #0x00
                                   3249 ;E:\Dropbox\FAUSTO\SVILUPPI\MSX\CODE\C\MSXgl\projects\exsoccer/exsoccer_s2_b0.c:613: if ((playerTeamId == TEAM_1 && g_Team1ActivePlayer == playerId) || 
    00001279 DD 7E E1         [19] 3250 	ld	a, -31 (ix)
    0000127C 3D               [ 4] 3251 	dec	a
    0000127D 20 08            [12] 3252 	jr	NZ, 00439$
    0000127F 3Ar00r00         [13] 3253 	ld	a, (_g_Team1ActivePlayer+0)
    00001282 DD 96 FD         [19] 3254 	sub	a, -3 (ix)
    00001285 28 15            [12] 3255 	jr	Z, 00434$
    00001287                       3256 00439$:
                                   3257 ;E:\Dropbox\FAUSTO\SVILUPPI\MSX\CODE\C\MSXgl\projects\exsoccer/exsoccer_s2_b0.c:614: (playerTeamId == TEAM_2 && g_GameWith2Players && g_Team2ActivePlayer == playerId)) {
    00001287 DD 7E E1         [19] 3258 	ld	a, -31 (ix)
    0000128A D6 02            [ 7] 3259 	sub	a, #0x02
    0000128C 20 12            [12] 3260 	jr	NZ, 00435$
    0000128E 3Ar00r00         [13] 3261 	ld	a, (_g_GameWith2Players+0)
    00001291 B7               [ 4] 3262 	or	a, a
    00001292 28 0C            [12] 3263 	jr	Z, 00435$
    00001294 3Ar00r00         [13] 3264 	ld	a, (_g_Team2ActivePlayer+0)
    00001297 DD 96 FD         [19] 3265 	sub	a, -3 (ix)
    0000129A 20 04            [12] 3266 	jr	NZ, 00435$
    0000129C                       3267 00434$:
                                   3268 ;E:\Dropbox\FAUSTO\SVILUPPI\MSX\CODE\C\MSXgl\projects\exsoccer/exsoccer_s2_b0.c:615: isHumanControlled = true;
    0000129C DD 36 FF 01      [19] 3269 	ld	-1 (ix), #0x01
    000012A0                       3270 00435$:
                                   3271 ;E:\Dropbox\FAUSTO\SVILUPPI\MSX\CODE\C\MSXgl\projects\exsoccer/exsoccer_s2_b0.c:618: if (!isHumanControlled) {
    000012A0 DD 7E FF         [19] 3272 	ld	a, -1 (ix)
    000012A3 B7               [ 4] 3273 	or	a, a
    000012A4 20 11            [12] 3274 	jr	NZ, 00445$
                                   3275 ;E:\Dropbox\FAUSTO\SVILUPPI\MSX\CODE\C\MSXgl\projects\exsoccer/exsoccer_s2_b0.c:621: if ((g_FrameCounter % 4) == 0) {
    000012A6 2Ar00r00         [16] 3276 	ld	hl, (_g_FrameCounter)
    000012A9 7D               [ 4] 3277 	ld	a, l
    000012AA E6 03            [ 7] 3278 	and	a, #0x03
    000012AC 20 09            [12] 3279 	jr	NZ, 00445$
                                   3280 ;E:\Dropbox\FAUSTO\SVILUPPI\MSX\CODE\C\MSXgl\projects\exsoccer/exsoccer_s2_b0.c:622: PutBallOnPlayerFeet(playerId);
    000012AE DD 7E FD         [19] 3281 	ld	a, -3 (ix)
    000012B1 CDr3Cr19         [17] 3282 	call	_PutBallOnPlayerFeet
                                   3283 ;E:\Dropbox\FAUSTO\SVILUPPI\MSX\CODE\C\MSXgl\projects\exsoccer/exsoccer_s2_b0.c:623: return;
    000012B4 C3r89r17         [10] 3284 	jp	00545$
    000012B7                       3285 00445$:
                                   3286 ;E:\Dropbox\FAUSTO\SVILUPPI\MSX\CODE\C\MSXgl\projects\exsoccer/exsoccer_s2_b0.c:630: i16 targetX = g_Ball.X;
    000012B7 DD 4E FB         [19] 3287 	ld	c, -5 (ix)
    000012BA DD 46 FC         [19] 3288 	ld	b, -4 (ix)
                                   3289 ;E:\Dropbox\FAUSTO\SVILUPPI\MSX\CODE\C\MSXgl\projects\exsoccer/exsoccer_s2_b0.c:631: i16 targetY = g_Ball.Y;
    000012BD DD 73 FE         [19] 3290 	ld	-2 (ix), e
    000012C0 DD 72 FF         [19] 3291 	ld	-1 (ix), d
                                   3292 ;E:\Dropbox\FAUSTO\SVILUPPI\MSX\CODE\C\MSXgl\projects\exsoccer/exsoccer_s2_b0.c:633: if (g_Ball.KickMoveState != 0) {
    000012C3 3Ar0Dr00         [13] 3293 	ld	a, (#_g_Ball + 13)
    000012C6 B7               [ 4] 3294 	or	a, a
    000012C7 CAr9Dr13         [10] 3295 	jp	Z, 00459$
                                   3296 ;E:\Dropbox\FAUSTO\SVILUPPI\MSX\CODE\C\MSXgl\projects\exsoccer/exsoccer_s2_b0.c:635: switch(g_Ball.Direction) {
    000012CA 21r05r00         [10] 3297 	ld	hl, #_g_Ball + 5
    000012CD 5E               [ 7] 3298 	ld	e, (hl)
    000012CE 3E 08            [ 7] 3299 	ld	a, #0x08
    000012D0 93               [ 4] 3300 	sub	a, e
    000012D1 DAr9Dr13         [10] 3301 	jp	C, 00459$
    000012D4 16 00            [ 7] 3302 	ld	d, #0x00
    000012D6 21rDDr12         [10] 3303 	ld	hl, #01800$
    000012D9 19               [11] 3304 	add	hl, de
    000012DA 19               [11] 3305 	add	hl, de
    000012DB 19               [11] 3306 	add	hl, de
    000012DC E9               [ 4] 3307 	jp	(hl)
    000012DD                       3308 01800$:
    000012DD C3r9Dr13         [10] 3309 	jp	00459$
    000012E0 C3rF8r12         [10] 3310 	jp	00449$
    000012E3 C3r34r13         [10] 3311 	jp	00453$
    000012E6 C3r2Br13         [10] 3312 	jp	00452$
    000012E9 C3r6Cr13         [10] 3313 	jp	00455$
    000012EC C3r0Dr13         [10] 3314 	jp	00450$
    000012EF C3r85r13         [10] 3315 	jp	00456$
    000012F2 C3r20r13         [10] 3316 	jp	00451$
    000012F5 C3r4Fr13         [10] 3317 	jp	00454$
                                   3318 ;E:\Dropbox\FAUSTO\SVILUPPI\MSX\CODE\C\MSXgl\projects\exsoccer/exsoccer_s2_b0.c:636: case DIRECTION_UP: targetY -= 16; break;
    000012F8                       3319 00449$:
    000012F8 DD 7E FE         [19] 3320 	ld	a, -2 (ix)
    000012FB DD 56 FF         [19] 3321 	ld	d, -1 (ix)
    000012FE C6 F0            [ 7] 3322 	add	a, #0xf0
    00001300 5F               [ 4] 3323 	ld	e, a
    00001301 7A               [ 4] 3324 	ld	a, d
    00001302 CE FF            [ 7] 3325 	adc	a, #0xff
    00001304 DD 73 FE         [19] 3326 	ld	-2 (ix), e
    00001307 DD 77 FF         [19] 3327 	ld	-1 (ix), a
    0000130A C3r9Dr13         [10] 3328 	jp	00459$
                                   3329 ;E:\Dropbox\FAUSTO\SVILUPPI\MSX\CODE\C\MSXgl\projects\exsoccer/exsoccer_s2_b0.c:637: case DIRECTION_DOWN: targetY += 16; break;
    0000130D                       3330 00450$:
    0000130D DD 5E FE         [19] 3331 	ld	e, -2 (ix)
    00001310 DD 56 FF         [19] 3332 	ld	d, -1 (ix)
    00001313 21 10 00         [10] 3333 	ld	hl, #0x0010
    00001316 19               [11] 3334 	add	hl, de
    00001317 DD 75 FE         [19] 3335 	ld	-2 (ix), l
    0000131A DD 74 FF         [19] 3336 	ld	-1 (ix), h
    0000131D C3r9Dr13         [10] 3337 	jp	00459$
                                   3338 ;E:\Dropbox\FAUSTO\SVILUPPI\MSX\CODE\C\MSXgl\projects\exsoccer/exsoccer_s2_b0.c:638: case DIRECTION_LEFT: targetX -= 16; break;
    00001320                       3339 00451$:
    00001320 79               [ 4] 3340 	ld	a, c
    00001321 C6 F0            [ 7] 3341 	add	a, #0xf0
    00001323 4F               [ 4] 3342 	ld	c, a
    00001324 78               [ 4] 3343 	ld	a, b
    00001325 CE FF            [ 7] 3344 	adc	a, #0xff
    00001327 47               [ 4] 3345 	ld	b, a
    00001328 C3r9Dr13         [10] 3346 	jp	00459$
                                   3347 ;E:\Dropbox\FAUSTO\SVILUPPI\MSX\CODE\C\MSXgl\projects\exsoccer/exsoccer_s2_b0.c:639: case DIRECTION_RIGHT: targetX += 16; break;
    0000132B                       3348 00452$:
    0000132B 21 10 00         [10] 3349 	ld	hl, #0x0010
    0000132E 09               [11] 3350 	add	hl, bc
    0000132F 4D               [ 4] 3351 	ld	c, l
    00001330 44               [ 4] 3352 	ld	b, h
    00001331 C3r9Dr13         [10] 3353 	jp	00459$
                                   3354 ;E:\Dropbox\FAUSTO\SVILUPPI\MSX\CODE\C\MSXgl\projects\exsoccer/exsoccer_s2_b0.c:640: case DIRECTION_UP_RIGHT: targetY -= 12; targetX += 12; break;
    00001334                       3355 00453$:
    00001334 DD 7E FE         [19] 3356 	ld	a, -2 (ix)
    00001337 DD 56 FF         [19] 3357 	ld	d, -1 (ix)
    0000133A C6 F4            [ 7] 3358 	add	a, #0xf4
    0000133C 5F               [ 4] 3359 	ld	e, a
    0000133D 7A               [ 4] 3360 	ld	a, d
    0000133E CE FF            [ 7] 3361 	adc	a, #0xff
    00001340 DD 73 FE         [19] 3362 	ld	-2 (ix), e
    00001343 DD 77 FF         [19] 3363 	ld	-1 (ix), a
    00001346 21 0C 00         [10] 3364 	ld	hl, #0x000c
    00001349 09               [11] 3365 	add	hl, bc
    0000134A 4D               [ 4] 3366 	ld	c, l
    0000134B 44               [ 4] 3367 	ld	b, h
    0000134C C3r9Dr13         [10] 3368 	jp	00459$
                                   3369 ;E:\Dropbox\FAUSTO\SVILUPPI\MSX\CODE\C\MSXgl\projects\exsoccer/exsoccer_s2_b0.c:641: case DIRECTION_UP_LEFT: targetY -= 12; targetX -= 12; break;
    0000134F                       3370 00454$:
    0000134F DD 7E FE         [19] 3371 	ld	a, -2 (ix)
    00001352 DD 56 FF         [19] 3372 	ld	d, -1 (ix)
    00001355 C6 F4            [ 7] 3373 	add	a, #0xf4
    00001357 5F               [ 4] 3374 	ld	e, a
    00001358 7A               [ 4] 3375 	ld	a, d
    00001359 CE FF            [ 7] 3376 	adc	a, #0xff
    0000135B DD 73 FE         [19] 3377 	ld	-2 (ix), e
    0000135E DD 77 FF         [19] 3378 	ld	-1 (ix), a
    00001361 79               [ 4] 3379 	ld	a, c
    00001362 C6 F4            [ 7] 3380 	add	a, #0xf4
    00001364 4F               [ 4] 3381 	ld	c, a
    00001365 78               [ 4] 3382 	ld	a, b
    00001366 CE FF            [ 7] 3383 	adc	a, #0xff
    00001368 47               [ 4] 3384 	ld	b, a
    00001369 C3r9Dr13         [10] 3385 	jp	00459$
                                   3386 ;E:\Dropbox\FAUSTO\SVILUPPI\MSX\CODE\C\MSXgl\projects\exsoccer/exsoccer_s2_b0.c:642: case DIRECTION_DOWN_RIGHT: targetY += 12; targetX += 12; break;
    0000136C                       3387 00455$:
    0000136C DD 5E FE         [19] 3388 	ld	e, -2 (ix)
    0000136F DD 56 FF         [19] 3389 	ld	d, -1 (ix)
    00001372 21 0C 00         [10] 3390 	ld	hl, #0x000c
    00001375 19               [11] 3391 	add	hl, de
    00001376 DD 75 FE         [19] 3392 	ld	-2 (ix), l
    00001379 DD 74 FF         [19] 3393 	ld	-1 (ix), h
    0000137C 21 0C 00         [10] 3394 	ld	hl, #0x000c
    0000137F 09               [11] 3395 	add	hl, bc
    00001380 4D               [ 4] 3396 	ld	c, l
    00001381 44               [ 4] 3397 	ld	b, h
    00001382 C3r9Dr13         [10] 3398 	jp	00459$
                                   3399 ;E:\Dropbox\FAUSTO\SVILUPPI\MSX\CODE\C\MSXgl\projects\exsoccer/exsoccer_s2_b0.c:643: case DIRECTION_DOWN_LEFT: targetY += 12; targetX -= 12; break;
    00001385                       3400 00456$:
    00001385 DD 5E FE         [19] 3401 	ld	e, -2 (ix)
    00001388 DD 56 FF         [19] 3402 	ld	d, -1 (ix)
    0000138B 21 0C 00         [10] 3403 	ld	hl, #0x000c
    0000138E 19               [11] 3404 	add	hl, de
    0000138F DD 75 FE         [19] 3405 	ld	-2 (ix), l
    00001392 DD 74 FF         [19] 3406 	ld	-1 (ix), h
    00001395 79               [ 4] 3407 	ld	a, c
    00001396 C6 F4            [ 7] 3408 	add	a, #0xf4
    00001398 4F               [ 4] 3409 	ld	c, a
    00001399 78               [ 4] 3410 	ld	a, b
    0000139A CE FF            [ 7] 3411 	adc	a, #0xff
    0000139C 47               [ 4] 3412 	ld	b, a
                                   3413 ;E:\Dropbox\FAUSTO\SVILUPPI\MSX\CODE\C\MSXgl\projects\exsoccer/exsoccer_s2_b0.c:644: }
    0000139D                       3414 00459$:
                                   3415 ;E:\Dropbox\FAUSTO\SVILUPPI\MSX\CODE\C\MSXgl\projects\exsoccer/exsoccer_s2_b0.c:646: g_Players[playerId].TargetX = targetX;
    0000139D E1               [10] 3416 	pop	hl
    0000139E E5               [11] 3417 	push	hl
    0000139F 11 0C 00         [10] 3418 	ld	de, #0x000c
    000013A2 19               [11] 3419 	add	hl, de
    000013A3 71               [ 7] 3420 	ld	(hl), c
    000013A4 23               [ 6] 3421 	inc	hl
    000013A5 70               [ 7] 3422 	ld	(hl), b
                                   3423 ;E:\Dropbox\FAUSTO\SVILUPPI\MSX\CODE\C\MSXgl\projects\exsoccer/exsoccer_s2_b0.c:647: g_Players[playerId].TargetY = targetY;
    000013A6 E1               [10] 3424 	pop	hl
    000013A7 E5               [11] 3425 	push	hl
    000013A8 11 0A 00         [10] 3426 	ld	de, #0x000a
    000013AB 19               [11] 3427 	add	hl, de
    000013AC DD 7E FE         [19] 3428 	ld	a, -2 (ix)
    000013AF 77               [ 7] 3429 	ld	(hl), a
    000013B0 23               [ 6] 3430 	inc	hl
    000013B1 DD 7E FF         [19] 3431 	ld	a, -1 (ix)
    000013B4 77               [ 7] 3432 	ld	(hl), a
    000013B5 C3r89r17         [10] 3433 	jp	00545$
    000013B8                       3434 00534$:
                                   3435 ;E:\Dropbox\FAUSTO\SVILUPPI\MSX\CODE\C\MSXgl\projects\exsoccer/exsoccer_s2_b0.c:652: u16 defGoalY = (playerTeamId == TEAM_1) ? FIELD_BOUND_Y_BOTTOM : FIELD_BOUND_Y_TOP;
    000013B8 DD 7E E1         [19] 3436 	ld	a, -31 (ix)
    000013BB 3D               [ 4] 3437 	dec	a
    000013BC 3E 01            [ 7] 3438 	ld	a, #0x01
    000013BE 28 01            [12] 3439 	jr	Z, 01802$
    000013C0 AF               [ 4] 3440 	xor	a, a
    000013C1                       3441 01802$:
    000013C1 DD 77 FC         [19] 3442 	ld	-4 (ix), a
    000013C4 B7               [ 4] 3443 	or	a, a
    000013C5 28 06            [12] 3444 	jr	Z, 00578$
    000013C7 11 AE 01         [10] 3445 	ld	de, #0x01ae
    000013CA C3rD0r13         [10] 3446 	jp	00579$
    000013CD                       3447 00578$:
    000013CD 11 32 00         [10] 3448 	ld	de, #0x0032
    000013D0                       3449 00579$:
                                   3450 ;E:\Dropbox\FAUSTO\SVILUPPI\MSX\CODE\C\MSXgl\projects\exsoccer/exsoccer_s2_b0.c:653: bool chaserBeaten = false;
    000013D0 DD 36 FE 00      [19] 3451 	ld	-2 (ix), #0x00
                                   3452 ;E:\Dropbox\FAUSTO\SVILUPPI\MSX\CODE\C\MSXgl\projects\exsoccer/exsoccer_s2_b0.c:654: bool opponentHasBall = (g_Ball.PossessionPlayerId != NO_VALUE && g_Players[g_Ball.PossessionPlayerId].TeamId != playerTeamId);
    000013D4 3Ar06r00         [13] 3453 	ld	a, (#_g_Ball + 6)
    000013D7 FE FF            [ 7] 3454 	cp	a, #0xff
    000013D9 28 1B            [12] 3455 	jr	Z, 00580$
    000013DB D5               [11] 3456 	push	de
    000013DC 5F               [ 4] 3457 	ld	e, a
    000013DD 16 00            [ 7] 3458 	ld	d, #0x00
    000013DF 6B               [ 4] 3459 	ld	l, e
    000013E0 62               [ 4] 3460 	ld	h, d
    000013E1 29               [11] 3461 	add	hl, hl
    000013E2 29               [11] 3462 	add	hl, hl
    000013E3 29               [11] 3463 	add	hl, hl
    000013E4 29               [11] 3464 	add	hl, hl
    000013E5 19               [11] 3465 	add	hl, de
    000013E6 11r00r00         [10] 3466 	ld	de, #_g_Players
    000013E9 19               [11] 3467 	add	hl, de
    000013EA 23               [ 6] 3468 	inc	hl
    000013EB 23               [ 6] 3469 	inc	hl
    000013EC 23               [ 6] 3470 	inc	hl
    000013ED 23               [ 6] 3471 	inc	hl
    000013EE 23               [ 6] 3472 	inc	hl
    000013EF D1               [10] 3473 	pop	de
    000013F0 DD 7E E1         [19] 3474 	ld	a,-31 (ix)
    000013F3 96               [ 7] 3475 	sub	a,(hl)
    000013F4 20 05            [12] 3476 	jr	NZ, 00581$
    000013F6                       3477 00580$:
    000013F6 0E 00            [ 7] 3478 	ld	c, #0x00
    000013F8 C3rFDr13         [10] 3479 	jp	00582$
    000013FB                       3480 00581$:
    000013FB 0E 01            [ 7] 3481 	ld	c, #0x01
    000013FD                       3482 00582$:
    000013FD DD 71 FF         [19] 3483 	ld	-1 (ix), c
                                   3484 ;E:\Dropbox\FAUSTO\SVILUPPI\MSX\CODE\C\MSXgl\projects\exsoccer/exsoccer_s2_b0.c:656: if (opponentHasBall && playerClosesestToBallId != NO_VALUE) {
    00001400 79               [ 4] 3485 	ld	a, c
    00001401 B7               [ 4] 3486 	or	a, a
    00001402 28 2B            [12] 3487 	jr	Z, 00471$
    00001404 04               [ 4] 3488 	inc	b
    00001405 28 28            [12] 3489 	jr	Z, 00471$
                                   3490 ;E:\Dropbox\FAUSTO\SVILUPPI\MSX\CODE\C\MSXgl\projects\exsoccer/exsoccer_s2_b0.c:657: u16 chaserY = g_Players[playerClosesestToBallId].Y;
    00001407 DD 6E F8         [19] 3491 	ld	l, -8 (ix)
    0000140A DD 66 F9         [19] 3492 	ld	h, -7 (ix)
    0000140D 4E               [ 7] 3493 	ld	c, (hl)
    0000140E 23               [ 6] 3494 	inc	hl
    0000140F 46               [ 7] 3495 	ld	b, (hl)
                                   3496 ;E:\Dropbox\FAUSTO\SVILUPPI\MSX\CODE\C\MSXgl\projects\exsoccer/exsoccer_s2_b0.c:658: if (playerTeamId == TEAM_1) { if (g_Ball.Y > chaserY) chaserBeaten = true; } 
    00001410 2Ar00r00         [16] 3497 	ld	hl, (#_g_Ball + 0)
    00001413 DD 7E FC         [19] 3498 	ld	a, -4 (ix)
    00001416 B7               [ 4] 3499 	or	a, a
    00001417 28 0D            [12] 3500 	jr	Z, 00468$
    00001419 79               [ 4] 3501 	ld	a, c
    0000141A 95               [ 4] 3502 	sub	a, l
    0000141B 78               [ 4] 3503 	ld	a, b
    0000141C 9C               [ 4] 3504 	sbc	a, h
    0000141D 30 10            [12] 3505 	jr	NC, 00471$
    0000141F DD 36 FE 01      [19] 3506 	ld	-2 (ix), #0x01
    00001423 C3r2Fr14         [10] 3507 	jp	00471$
    00001426                       3508 00468$:
                                   3509 ;E:\Dropbox\FAUSTO\SVILUPPI\MSX\CODE\C\MSXgl\projects\exsoccer/exsoccer_s2_b0.c:659: else { if (g_Ball.Y < chaserY) chaserBeaten = true; }
    00001426 AF               [ 4] 3510 	xor	a, a
    00001427 ED 42            [15] 3511 	sbc	hl, bc
    00001429 30 04            [12] 3512 	jr	NC, 00471$
    0000142B DD 36 FE 01      [19] 3513 	ld	-2 (ix), #0x01
    0000142F                       3514 00471$:
                                   3515 ;E:\Dropbox\FAUSTO\SVILUPPI\MSX\CODE\C\MSXgl\projects\exsoccer/exsoccer_s2_b0.c:429: g_Players[playerId].TargetY = finalTargetY;
    0000142F DD 7E DF         [19] 3516 	ld	a, -33 (ix)
    00001432 C6 0A            [ 7] 3517 	add	a, #0x0a
    00001434 4F               [ 4] 3518 	ld	c, a
    00001435 DD 7E E0         [19] 3519 	ld	a, -32 (ix)
    00001438 CE 00            [ 7] 3520 	adc	a, #0x00
    0000143A 47               [ 4] 3521 	ld	b, a
                                   3522 ;E:\Dropbox\FAUSTO\SVILUPPI\MSX\CODE\C\MSXgl\projects\exsoccer/exsoccer_s2_b0.c:430: g_Players[playerId].TargetX = finalTargetX;
    0000143B DD 7E DF         [19] 3523 	ld	a, -33 (ix)
    0000143E C6 0C            [ 7] 3524 	add	a, #0x0c
    00001440 DD 77 FA         [19] 3525 	ld	-6 (ix), a
    00001443 DD 7E E0         [19] 3526 	ld	a, -32 (ix)
    00001446 CE 00            [ 7] 3527 	adc	a, #0x00
    00001448 DD 77 FB         [19] 3528 	ld	-5 (ix), a
                                   3529 ;E:\Dropbox\FAUSTO\SVILUPPI\MSX\CODE\C\MSXgl\projects\exsoccer/exsoccer_s2_b0.c:663: g_Players[playerId].TargetX = g_Ball.X;
                                   3530 ;E:\Dropbox\FAUSTO\SVILUPPI\MSX\CODE\C\MSXgl\projects\exsoccer/exsoccer_s2_b0.c:662: if (opponentHasBall && chaserBeaten) {
    0000144B DD 7E FF         [19] 3531 	ld	a, -1 (ix)
    0000144E B7               [ 4] 3532 	or	a, a
    0000144F 28 36            [12] 3533 	jr	Z, 00511$
    00001451 DD 7E FE         [19] 3534 	ld	a, -2 (ix)
    00001454 B7               [ 4] 3535 	or	a, a
    00001455 28 30            [12] 3536 	jr	Z, 00511$
                                   3537 ;E:\Dropbox\FAUSTO\SVILUPPI\MSX\CODE\C\MSXgl\projects\exsoccer/exsoccer_s2_b0.c:663: g_Players[playerId].TargetX = g_Ball.X;
    00001457 ED 5Br02r00      [20] 3538 	ld	de, (#(_g_Ball + 2) + 0)
    0000145B DD 6E FA         [19] 3539 	ld	l, -6 (ix)
    0000145E DD 66 FB         [19] 3540 	ld	h, -5 (ix)
    00001461 73               [ 7] 3541 	ld	(hl), e
    00001462 23               [ 6] 3542 	inc	hl
    00001463 72               [ 7] 3543 	ld	(hl), d
                                   3544 ;E:\Dropbox\FAUSTO\SVILUPPI\MSX\CODE\C\MSXgl\projects\exsoccer/exsoccer_s2_b0.c:658: if (playerTeamId == TEAM_1) { if (g_Ball.Y > chaserY) chaserBeaten = true; } 
    00001464 2Ar00r00         [16] 3545 	ld	hl, (#_g_Ball + 0)
                                   3546 ;E:\Dropbox\FAUSTO\SVILUPPI\MSX\CODE\C\MSXgl\projects\exsoccer/exsoccer_s2_b0.c:664: if (playerTeamId == TEAM_1) g_Players[playerId].TargetY = g_Ball.Y + 15;
    00001467 DD 7E FC         [19] 3547 	ld	a, -4 (ix)
    0000146A B7               [ 4] 3548 	or	a, a
    0000146B 28 0D            [12] 3549 	jr	Z, 00474$
    0000146D 11 0F 00         [10] 3550 	ld	de, #0x000f
    00001470 19               [11] 3551 	add	hl, de
    00001471 EB               [ 4] 3552 	ex	de, hl
    00001472 7B               [ 4] 3553 	ld	a, e
    00001473 02               [ 7] 3554 	ld	(bc), a
    00001474 03               [ 6] 3555 	inc	bc
    00001475 7A               [ 4] 3556 	ld	a, d
    00001476 02               [ 7] 3557 	ld	(bc), a
    00001477 C3r2Fr16         [10] 3558 	jp	00800$
    0000147A                       3559 00474$:
                                   3560 ;E:\Dropbox\FAUSTO\SVILUPPI\MSX\CODE\C\MSXgl\projects\exsoccer/exsoccer_s2_b0.c:665: else g_Players[playerId].TargetY = g_Ball.Y - 15;
    0000147A 11 F1 FF         [10] 3561 	ld	de, #0xfff1
    0000147D 19               [11] 3562 	add	hl, de
    0000147E EB               [ 4] 3563 	ex	de,hl
    0000147F 7B               [ 4] 3564 	ld	a, e
    00001480 02               [ 7] 3565 	ld	(bc), a
    00001481 03               [ 6] 3566 	inc	bc
    00001482 7A               [ 4] 3567 	ld	a, d
    00001483 02               [ 7] 3568 	ld	(bc), a
    00001484 C3r2Fr16         [10] 3569 	jp	00800$
    00001487                       3570 00511$:
                                   3571 ;E:\Dropbox\FAUSTO\SVILUPPI\MSX\CODE\C\MSXgl\projects\exsoccer/exsoccer_s2_b0.c:541: if (g_Players[playerId].Role == PLAYER_ROLE_GOALKEEPER) {
    00001487 DD 6E F5         [19] 3572 	ld	l, -11 (ix)
    0000148A DD 66 F6         [19] 3573 	ld	h, -10 (ix)
    0000148D 7E               [ 7] 3574 	ld	a, (hl)
                                   3575 ;E:\Dropbox\FAUSTO\SVILUPPI\MSX\CODE\C\MSXgl\projects\exsoccer/exsoccer_s2_b0.c:669: if (g_Players[playerId].Role >= PLAYER_ROLE_LEFT_STRIKER) g_Players[playerId].TargetY = FIELD_POS_Y_CENTER - 40;
    0000148E DD 77 FE         [19] 3576 	ld	-2 (ix), a
    00001491 D6 05            [ 7] 3577 	sub	a, #0x05
    00001493 3E 00            [ 7] 3578 	ld	a, #0x00
    00001495 17               [ 4] 3579 	rla
    00001496 DD 77 FF         [19] 3580 	ld	-1 (ix), a
                                   3581 ;E:\Dropbox\FAUSTO\SVILUPPI\MSX\CODE\C\MSXgl\projects\exsoccer/exsoccer_s2_b0.c:668: if (playerTeamId == TEAM_1) { // Defend Bottom (High Y)
    00001499 DD 7E FC         [19] 3582 	ld	a, -4 (ix)
    0000149C B7               [ 4] 3583 	or	a, a
    0000149D CAr35r15         [10] 3584 	jp	Z, 00501$
                                   3585 ;E:\Dropbox\FAUSTO\SVILUPPI\MSX\CODE\C\MSXgl\projects\exsoccer/exsoccer_s2_b0.c:669: if (g_Players[playerId].Role >= PLAYER_ROLE_LEFT_STRIKER) g_Players[playerId].TargetY = FIELD_POS_Y_CENTER - 40;
    000014A0 DD CB FF 46      [20] 3586 	bit	0, -1 (ix)
    000014A4 20 0A            [12] 3587 	jr	NZ, 00480$
    000014A6 69               [ 4] 3588 	ld	l, c
    000014A7 60               [ 4] 3589 	ld	h, b
    000014A8 36 CB            [10] 3590 	ld	(hl), #0xcb
    000014AA 23               [ 6] 3591 	inc	hl
    000014AB 36 00            [10] 3592 	ld	(hl), #0x00
    000014AD C3rF1r14         [10] 3593 	jp	00481$
    000014B0                       3594 00480$:
                                   3595 ;E:\Dropbox\FAUSTO\SVILUPPI\MSX\CODE\C\MSXgl\projects\exsoccer/exsoccer_s2_b0.c:658: if (playerTeamId == TEAM_1) { if (g_Ball.Y > chaserY) chaserBeaten = true; } 
    000014B0 21r00r00         [10] 3596 	ld	hl, #_g_Ball
    000014B3 7E               [ 7] 3597 	ld	a, (hl)
    000014B4 DD 77 F8         [19] 3598 	ld	-8 (ix), a
    000014B7 23               [ 6] 3599 	inc	hl
    000014B8 7E               [ 7] 3600 	ld	a, (hl)
    000014B9 DD 77 F9         [19] 3601 	ld	-7 (ix), a
                                   3602 ;E:\Dropbox\FAUSTO\SVILUPPI\MSX\CODE\C\MSXgl\projects\exsoccer/exsoccer_s2_b0.c:670: else if (g_Players[playerId].Role >= PLAYER_ROLE_LEFT_HALFFIELDER) g_Players[playerId].TargetY = (g_Ball.Y + defGoalY) / 2 - 50; 
    000014BC DD 7E FE         [19] 3603 	ld	a, -2 (ix)
    000014BF D6 03            [ 7] 3604 	sub	a, #0x03
    000014C1 38 1E            [12] 3605 	jr	C, 00477$
    000014C3 DD 7E F8         [19] 3606 	ld	a, -8 (ix)
    000014C6 83               [ 4] 3607 	add	a, e
    000014C7 5F               [ 4] 3608 	ld	e, a
    000014C8 DD 7E F9         [19] 3609 	ld	a, -7 (ix)
    000014CB 8A               [ 4] 3610 	adc	a, d
    000014CC 57               [ 4] 3611 	ld	d, a
    000014CD CB 3A            [ 8] 3612 	srl	d
    000014CF CB 1B            [ 8] 3613 	rr	e
    000014D1 7B               [ 4] 3614 	ld	a, e
    000014D2 C6 CE            [ 7] 3615 	add	a, #0xce
    000014D4 5F               [ 4] 3616 	ld	e, a
    000014D5 7A               [ 4] 3617 	ld	a, d
    000014D6 CE FF            [ 7] 3618 	adc	a, #0xff
    000014D8 57               [ 4] 3619 	ld	d, a
    000014D9 69               [ 4] 3620 	ld	l, c
    000014DA 60               [ 4] 3621 	ld	h, b
    000014DB 73               [ 7] 3622 	ld	(hl), e
    000014DC 23               [ 6] 3623 	inc	hl
    000014DD 72               [ 7] 3624 	ld	(hl), d
    000014DE C3rF1r14         [10] 3625 	jp	00481$
    000014E1                       3626 00477$:
                                   3627 ;E:\Dropbox\FAUSTO\SVILUPPI\MSX\CODE\C\MSXgl\projects\exsoccer/exsoccer_s2_b0.c:671: else g_Players[playerId].TargetY = g_Ball.Y + 40; 
    000014E1 DD 5E F8         [19] 3628 	ld	e, -8 (ix)
    000014E4 DD 56 F9         [19] 3629 	ld	d, -7 (ix)
    000014E7 21 28 00         [10] 3630 	ld	hl, #0x0028
    000014EA 19               [11] 3631 	add	hl, de
    000014EB EB               [ 4] 3632 	ex	de, hl
    000014EC 69               [ 4] 3633 	ld	l, c
    000014ED 60               [ 4] 3634 	ld	h, b
    000014EE 73               [ 7] 3635 	ld	(hl), e
    000014EF 23               [ 6] 3636 	inc	hl
    000014F0 72               [ 7] 3637 	ld	(hl), d
    000014F1                       3638 00481$:
                                   3639 ;E:\Dropbox\FAUSTO\SVILUPPI\MSX\CODE\C\MSXgl\projects\exsoccer/exsoccer_s2_b0.c:673: if (g_Players[playerId].Role <= PLAYER_ROLE_RIGHT_DEFENDER && g_Players[playerId].TargetY < 300) 
    000014F1 DD 6E F5         [19] 3640 	ld	l, -11 (ix)
    000014F4 DD 66 F6         [19] 3641 	ld	h, -10 (ix)
    000014F7 5E               [ 7] 3642 	ld	e, (hl)
    000014F8 3E 02            [ 7] 3643 	ld	a, #0x02
    000014FA 93               [ 4] 3644 	sub	a, e
    000014FB 38 14            [12] 3645 	jr	C, 00483$
    000014FD 69               [ 4] 3646 	ld	l, c
    000014FE 60               [ 4] 3647 	ld	h, b
    000014FF 5E               [ 7] 3648 	ld	e, (hl)
    00001500 23               [ 6] 3649 	inc	hl
    00001501 56               [ 7] 3650 	ld	d, (hl)
    00001502 7B               [ 4] 3651 	ld	a, e
    00001503 D6 2C            [ 7] 3652 	sub	a, #0x2c
    00001505 7A               [ 4] 3653 	ld	a, d
    00001506 DE 01            [ 7] 3654 	sbc	a, #0x01
    00001508 30 07            [12] 3655 	jr	NC, 00483$
                                   3656 ;E:\Dropbox\FAUSTO\SVILUPPI\MSX\CODE\C\MSXgl\projects\exsoccer/exsoccer_s2_b0.c:674: g_Players[playerId].TargetY = 300;
    0000150A 69               [ 4] 3657 	ld	l, c
    0000150B 60               [ 4] 3658 	ld	h, b
    0000150C 36 2C            [10] 3659 	ld	(hl), #0x2c
    0000150E 23               [ 6] 3660 	inc	hl
    0000150F 36 01            [10] 3661 	ld	(hl), #0x01
    00001511                       3662 00483$:
                                   3663 ;E:\Dropbox\FAUSTO\SVILUPPI\MSX\CODE\C\MSXgl\projects\exsoccer/exsoccer_s2_b0.c:677: if (g_Players[playerId].TargetY > 380 && g_Ball.Y < 380) {
    00001511 69               [ 4] 3664 	ld	l, c
    00001512 60               [ 4] 3665 	ld	h, b
    00001513 5E               [ 7] 3666 	ld	e, (hl)
    00001514 23               [ 6] 3667 	inc	hl
    00001515 56               [ 7] 3668 	ld	d, (hl)
    00001516 3E 7C            [ 7] 3669 	ld	a, #0x7c
    00001518 BB               [ 4] 3670 	cp	a, e
    00001519 3E 01            [ 7] 3671 	ld	a, #0x01
    0000151B 9A               [ 4] 3672 	sbc	a, d
    0000151C D2rC3r15         [10] 3673 	jp	NC, 00502$
    0000151F 2Ar00r00         [16] 3674 	ld	hl, (#_g_Ball + 0)
    00001522 11 7C 01         [10] 3675 	ld	de, #0x017c
    00001525 BF               [ 4] 3676 	cp	a, a
    00001526 ED 52            [15] 3677 	sbc	hl, de
    00001528 D2rC3r15         [10] 3678 	jp	NC, 00502$
                                   3679 ;E:\Dropbox\FAUSTO\SVILUPPI\MSX\CODE\C\MSXgl\projects\exsoccer/exsoccer_s2_b0.c:678: g_Players[playerId].TargetY = 380;
    0000152B 3E 7C            [ 7] 3680 	ld	a, #0x7c
    0000152D 02               [ 7] 3681 	ld	(bc), a
    0000152E 03               [ 6] 3682 	inc	bc
    0000152F 3E 01            [ 7] 3683 	ld	a, #0x01
    00001531 02               [ 7] 3684 	ld	(bc), a
    00001532 C3rC3r15         [10] 3685 	jp	00502$
    00001535                       3686 00501$:
                                   3687 ;E:\Dropbox\FAUSTO\SVILUPPI\MSX\CODE\C\MSXgl\projects\exsoccer/exsoccer_s2_b0.c:682: if (g_Players[playerId].Role >= PLAYER_ROLE_LEFT_STRIKER) g_Players[playerId].TargetY = FIELD_POS_Y_CENTER + 40;
    00001535 DD CB FF 46      [20] 3688 	bit	0, -1 (ix)
    00001539 20 0A            [12] 3689 	jr	NZ, 00492$
    0000153B 69               [ 4] 3690 	ld	l, c
    0000153C 60               [ 4] 3691 	ld	h, b
    0000153D 36 1B            [10] 3692 	ld	(hl), #0x1b
    0000153F 23               [ 6] 3693 	inc	hl
    00001540 36 01            [10] 3694 	ld	(hl), #0x01
    00001542 C3r85r15         [10] 3695 	jp	00493$
    00001545                       3696 00492$:
                                   3697 ;E:\Dropbox\FAUSTO\SVILUPPI\MSX\CODE\C\MSXgl\projects\exsoccer/exsoccer_s2_b0.c:658: if (playerTeamId == TEAM_1) { if (g_Ball.Y > chaserY) chaserBeaten = true; } 
    00001545 21r00r00         [10] 3698 	ld	hl, #_g_Ball
    00001548 7E               [ 7] 3699 	ld	a, (hl)
    00001549 DD 77 F8         [19] 3700 	ld	-8 (ix), a
    0000154C 23               [ 6] 3701 	inc	hl
    0000154D 7E               [ 7] 3702 	ld	a, (hl)
    0000154E DD 77 F9         [19] 3703 	ld	-7 (ix), a
                                   3704 ;E:\Dropbox\FAUSTO\SVILUPPI\MSX\CODE\C\MSXgl\projects\exsoccer/exsoccer_s2_b0.c:683: else if (g_Players[playerId].Role >= PLAYER_ROLE_LEFT_HALFFIELDER) g_Players[playerId].TargetY = (g_Ball.Y + defGoalY) / 2 + 50;
    00001551 DD 7E FE         [19] 3705 	ld	a, -2 (ix)
    00001554 D6 03            [ 7] 3706 	sub	a, #0x03
    00001556 38 1B            [12] 3707 	jr	C, 00489$
    00001558 DD 7E F8         [19] 3708 	ld	a, -8 (ix)
    0000155B 83               [ 4] 3709 	add	a, e
    0000155C 5F               [ 4] 3710 	ld	e, a
    0000155D DD 7E F9         [19] 3711 	ld	a, -7 (ix)
    00001560 8A               [ 4] 3712 	adc	a, d
    00001561 57               [ 4] 3713 	ld	d, a
    00001562 CB 3A            [ 8] 3714 	srl	d
    00001564 CB 1B            [ 8] 3715 	rr	e
    00001566 21 32 00         [10] 3716 	ld	hl, #0x0032
    00001569 19               [11] 3717 	add	hl, de
    0000156A EB               [ 4] 3718 	ex	de, hl
    0000156B 69               [ 4] 3719 	ld	l, c
    0000156C 60               [ 4] 3720 	ld	h, b
    0000156D 73               [ 7] 3721 	ld	(hl), e
    0000156E 23               [ 6] 3722 	inc	hl
    0000156F 72               [ 7] 3723 	ld	(hl), d
    00001570 C3r85r15         [10] 3724 	jp	00493$
    00001573                       3725 00489$:
                                   3726 ;E:\Dropbox\FAUSTO\SVILUPPI\MSX\CODE\C\MSXgl\projects\exsoccer/exsoccer_s2_b0.c:684: else g_Players[playerId].TargetY = g_Ball.Y - 40;
    00001573 DD 7E F8         [19] 3727 	ld	a, -8 (ix)
    00001576 DD 56 F9         [19] 3728 	ld	d, -7 (ix)
    00001579 C6 D8            [ 7] 3729 	add	a, #0xd8
    0000157B 5F               [ 4] 3730 	ld	e, a
    0000157C 7A               [ 4] 3731 	ld	a, d
    0000157D CE FF            [ 7] 3732 	adc	a, #0xff
    0000157F 57               [ 4] 3733 	ld	d, a
    00001580 69               [ 4] 3734 	ld	l, c
    00001581 60               [ 4] 3735 	ld	h, b
    00001582 73               [ 7] 3736 	ld	(hl), e
    00001583 23               [ 6] 3737 	inc	hl
    00001584 72               [ 7] 3738 	ld	(hl), d
    00001585                       3739 00493$:
                                   3740 ;E:\Dropbox\FAUSTO\SVILUPPI\MSX\CODE\C\MSXgl\projects\exsoccer/exsoccer_s2_b0.c:686: if (g_Players[playerId].Role <= PLAYER_ROLE_RIGHT_DEFENDER && g_Players[playerId].TargetY > 180) 
    00001585 DD 6E F5         [19] 3741 	ld	l, -11 (ix)
    00001588 DD 66 F6         [19] 3742 	ld	h, -10 (ix)
    0000158B 5E               [ 7] 3743 	ld	e, (hl)
    0000158C 3E 02            [ 7] 3744 	ld	a, #0x02
    0000158E 93               [ 4] 3745 	sub	a, e
    0000158F 38 14            [12] 3746 	jr	C, 00495$
    00001591 69               [ 4] 3747 	ld	l, c
    00001592 60               [ 4] 3748 	ld	h, b
    00001593 5E               [ 7] 3749 	ld	e, (hl)
    00001594 23               [ 6] 3750 	inc	hl
    00001595 56               [ 7] 3751 	ld	d, (hl)
    00001596 3E B4            [ 7] 3752 	ld	a, #0xb4
    00001598 BB               [ 4] 3753 	cp	a, e
    00001599 3E 00            [ 7] 3754 	ld	a, #0x00
    0000159B 9A               [ 4] 3755 	sbc	a, d
    0000159C 30 07            [12] 3756 	jr	NC, 00495$
                                   3757 ;E:\Dropbox\FAUSTO\SVILUPPI\MSX\CODE\C\MSXgl\projects\exsoccer/exsoccer_s2_b0.c:687: g_Players[playerId].TargetY = 180;
    0000159E 69               [ 4] 3758 	ld	l, c
    0000159F 60               [ 4] 3759 	ld	h, b
    000015A0 36 B4            [10] 3760 	ld	(hl), #0xb4
    000015A2 23               [ 6] 3761 	inc	hl
    000015A3 36 00            [10] 3762 	ld	(hl), #0x00
    000015A5                       3763 00495$:
                                   3764 ;E:\Dropbox\FAUSTO\SVILUPPI\MSX\CODE\C\MSXgl\projects\exsoccer/exsoccer_s2_b0.c:690: if (g_Players[playerId].TargetY < 100 && g_Ball.Y > 100) {
    000015A5 69               [ 4] 3765 	ld	l, c
    000015A6 60               [ 4] 3766 	ld	h, b
    000015A7 5E               [ 7] 3767 	ld	e, (hl)
    000015A8 23               [ 6] 3768 	inc	hl
    000015A9 56               [ 7] 3769 	ld	d, (hl)
    000015AA 7B               [ 4] 3770 	ld	a, e
    000015AB D6 64            [ 7] 3771 	sub	a, #0x64
    000015AD 7A               [ 4] 3772 	ld	a, d
    000015AE DE 00            [ 7] 3773 	sbc	a, #0x00
    000015B0 30 11            [12] 3774 	jr	NC, 00502$
    000015B2 2Ar00r00         [16] 3775 	ld	hl, (#_g_Ball + 0)
    000015B5 3E 64            [ 7] 3776 	ld	a, #0x64
    000015B7 BD               [ 4] 3777 	cp	a, l
    000015B8 3E 00            [ 7] 3778 	ld	a, #0x00
    000015BA 9C               [ 4] 3779 	sbc	a, h
    000015BB 30 06            [12] 3780 	jr	NC, 00502$
                                   3781 ;E:\Dropbox\FAUSTO\SVILUPPI\MSX\CODE\C\MSXgl\projects\exsoccer/exsoccer_s2_b0.c:691: g_Players[playerId].TargetY = 100;
    000015BD 3E 64            [ 7] 3782 	ld	a, #0x64
    000015BF 02               [ 7] 3783 	ld	(bc), a
    000015C0 03               [ 6] 3784 	inc	bc
    000015C1 AF               [ 4] 3785 	xor	a, a
    000015C2 02               [ 7] 3786 	ld	(bc), a
    000015C3                       3787 00502$:
                                   3788 ;E:\Dropbox\FAUSTO\SVILUPPI\MSX\CODE\C\MSXgl\projects\exsoccer/exsoccer_s2_b0.c:695: if (g_Players[playerId].Role % 2 != 0) g_Players[playerId].TargetX = g_Ball.X - 40; 
    000015C3 DD 6E F5         [19] 3789 	ld	l, -11 (ix)
    000015C6 DD 66 F6         [19] 3790 	ld	h, -10 (ix)
    000015C9 7E               [ 7] 3791 	ld	a, (hl)
    000015CA E6 01            [ 7] 3792 	and	a, #0x01
    000015CC 4F               [ 4] 3793 	ld	c, a
                                   3794 ;E:\Dropbox\FAUSTO\SVILUPPI\MSX\CODE\C\MSXgl\projects\exsoccer/exsoccer_s2_b0.c:663: g_Players[playerId].TargetX = g_Ball.X;
                                   3795 ;E:\Dropbox\FAUSTO\SVILUPPI\MSX\CODE\C\MSXgl\projects\exsoccer/exsoccer_s2_b0.c:695: if (g_Players[playerId].Role % 2 != 0) g_Players[playerId].TargetX = g_Ball.X - 40; 
    000015CD AF               [ 4] 3796 	xor	a, a
    000015CE ED 5Br02r00      [20] 3797 	ld	de, (#(_g_Ball + 2) + 0)
    000015D2 B1               [ 4] 3798 	or	a, c
    000015D3 28 14            [12] 3799 	jr	Z, 00504$
    000015D5 7B               [ 4] 3800 	ld	a, e
    000015D6 C6 D8            [ 7] 3801 	add	a, #0xd8
    000015D8 4F               [ 4] 3802 	ld	c, a
    000015D9 7A               [ 4] 3803 	ld	a, d
    000015DA CE FF            [ 7] 3804 	adc	a, #0xff
    000015DC 47               [ 4] 3805 	ld	b, a
    000015DD DD 6E FA         [19] 3806 	ld	l, -6 (ix)
    000015E0 DD 66 FB         [19] 3807 	ld	h, -5 (ix)
    000015E3 71               [ 7] 3808 	ld	(hl), c
    000015E4 23               [ 6] 3809 	inc	hl
    000015E5 70               [ 7] 3810 	ld	(hl), b
    000015E6 C3rF7r15         [10] 3811 	jp	00505$
    000015E9                       3812 00504$:
                                   3813 ;E:\Dropbox\FAUSTO\SVILUPPI\MSX\CODE\C\MSXgl\projects\exsoccer/exsoccer_s2_b0.c:696: else g_Players[playerId].TargetX = g_Ball.X + 40; 
    000015E9 21 28 00         [10] 3814 	ld	hl, #0x0028
    000015EC 19               [11] 3815 	add	hl, de
    000015ED EB               [ 4] 3816 	ex	de, hl
    000015EE DD 6E FA         [19] 3817 	ld	l, -6 (ix)
    000015F1 DD 66 FB         [19] 3818 	ld	h, -5 (ix)
    000015F4 73               [ 7] 3819 	ld	(hl), e
    000015F5 23               [ 6] 3820 	inc	hl
    000015F6 72               [ 7] 3821 	ld	(hl), d
    000015F7                       3822 00505$:
                                   3823 ;E:\Dropbox\FAUSTO\SVILUPPI\MSX\CODE\C\MSXgl\projects\exsoccer/exsoccer_s2_b0.c:698: if (g_Players[playerId].TargetX < FIELD_BOUND_X_LEFT + 20) g_Players[playerId].TargetX = FIELD_BOUND_X_LEFT + 20;
    000015F7 DD 6E FA         [19] 3824 	ld	l, -6 (ix)
    000015FA DD 66 FB         [19] 3825 	ld	h, -5 (ix)
    000015FD 4E               [ 7] 3826 	ld	c, (hl)
    000015FE 23               [ 6] 3827 	inc	hl
    000015FF 46               [ 7] 3828 	ld	b, (hl)
    00001600 79               [ 4] 3829 	ld	a, c
    00001601 D6 1E            [ 7] 3830 	sub	a, #0x1e
    00001603 78               [ 4] 3831 	ld	a, b
    00001604 DE 00            [ 7] 3832 	sbc	a, #0x00
    00001606 30 0B            [12] 3833 	jr	NC, 00507$
    00001608 DD 6E FA         [19] 3834 	ld	l, -6 (ix)
    0000160B DD 66 FB         [19] 3835 	ld	h, -5 (ix)
    0000160E 36 1E            [10] 3836 	ld	(hl), #0x1e
    00001610 23               [ 6] 3837 	inc	hl
    00001611 36 00            [10] 3838 	ld	(hl), #0x00
    00001613                       3839 00507$:
                                   3840 ;E:\Dropbox\FAUSTO\SVILUPPI\MSX\CODE\C\MSXgl\projects\exsoccer/exsoccer_s2_b0.c:699: if (g_Players[playerId].TargetX > FIELD_BOUND_X_RIGHT - 20) g_Players[playerId].TargetX = FIELD_BOUND_X_RIGHT - 20;
    00001613 DD 6E FA         [19] 3841 	ld	l, -6 (ix)
    00001616 DD 66 FB         [19] 3842 	ld	h, -5 (ix)
    00001619 4E               [ 7] 3843 	ld	c, (hl)
    0000161A 23               [ 6] 3844 	inc	hl
    0000161B 46               [ 7] 3845 	ld	b, (hl)
    0000161C 3E E2            [ 7] 3846 	ld	a, #0xe2
    0000161E B9               [ 4] 3847 	cp	a, c
    0000161F 3E 00            [ 7] 3848 	ld	a, #0x00
    00001621 98               [ 4] 3849 	sbc	a, b
    00001622 30 0B            [12] 3850 	jr	NC, 00800$
    00001624 DD 6E FA         [19] 3851 	ld	l, -6 (ix)
    00001627 DD 66 FB         [19] 3852 	ld	h, -5 (ix)
    0000162A 36 E2            [10] 3853 	ld	(hl), #0xe2
    0000162C 23               [ 6] 3854 	inc	hl
    0000162D 36 00            [10] 3855 	ld	(hl), #0x00
                                   3856 ;E:\Dropbox\FAUSTO\SVILUPPI\MSX\CODE\C\MSXgl\projects\exsoccer/exsoccer_s2_b0.c:703: for(u8 i=0; i<14; i++) {
    0000162F                       3857 00800$:
    0000162F DD 36 FF 00      [19] 3858 	ld	-1 (ix), #0x00
    00001633                       3859 00544$:
    00001633 DD 7E FF         [19] 3860 	ld	a, -1 (ix)
    00001636 D6 0E            [ 7] 3861 	sub	a, #0x0e
    00001638 D2r89r17         [10] 3862 	jp	NC, 00545$
                                   3863 ;E:\Dropbox\FAUSTO\SVILUPPI\MSX\CODE\C\MSXgl\projects\exsoccer/exsoccer_s2_b0.c:704: if (i == playerId) continue;
    0000163B DD 7E FF         [19] 3864 	ld	a, -1 (ix)
    0000163E DD 96 FD         [19] 3865 	sub	a, -3 (ix)
    00001641 CAr83r17         [10] 3866 	jp	Z,00531$
                                   3867 ;E:\Dropbox\FAUSTO\SVILUPPI\MSX\CODE\C\MSXgl\projects\exsoccer/exsoccer_s2_b0.c:705: if (g_Players[i].TeamId != playerTeamId) continue;
    00001644 DD 4E FF         [19] 3868 	ld	c, -1 (ix)
    00001647 06 00            [ 7] 3869 	ld	b, #0x00
    00001649 69               [ 4] 3870 	ld	l, c
    0000164A 60               [ 4] 3871 	ld	h, b
    0000164B 29               [11] 3872 	add	hl, hl
    0000164C 29               [11] 3873 	add	hl, hl
    0000164D 29               [11] 3874 	add	hl, hl
    0000164E 29               [11] 3875 	add	hl, hl
    0000164F 09               [11] 3876 	add	hl, bc
    00001650 EB               [ 4] 3877 	ex	de, hl
    00001651 21r00r00         [10] 3878 	ld	hl, #_g_Players
    00001654 19               [11] 3879 	add	hl, de
    00001655 EB               [ 4] 3880 	ex	de, hl
    00001656 4B               [ 4] 3881 	ld	c, e
    00001657 42               [ 4] 3882 	ld	b, d
    00001658 21 05 00         [10] 3883 	ld	hl, #5
    0000165B 09               [11] 3884 	add	hl, bc
    0000165C DD 7E E1         [19] 3885 	ld	a,-31 (ix)
    0000165F 96               [ 7] 3886 	sub	a,(hl)
    00001660 C2r83r17         [10] 3887 	jp	NZ,00531$
                                   3888 ;E:\Dropbox\FAUSTO\SVILUPPI\MSX\CODE\C\MSXgl\projects\exsoccer/exsoccer_s2_b0.c:706: if (g_Players[i].Role == PLAYER_ROLE_GOALKEEPER) continue;
    00001663 4B               [ 4] 3889 	ld	c, e
    00001664 42               [ 4] 3890 	ld	b, d
    00001665 21 09 00         [10] 3891 	ld	hl, #9
    00001668 09               [11] 3892 	add	hl, bc
    00001669 7E               [ 7] 3893 	ld	a, (hl)
    0000166A B7               [ 4] 3894 	or	a, a
    0000166B CAr83r17         [10] 3895 	jp	Z, 00531$
                                   3896 ;E:\Dropbox\FAUSTO\SVILUPPI\MSX\CODE\C\MSXgl\projects\exsoccer/exsoccer_s2_b0.c:707: i16 dx = (i16)g_Players[playerId].TargetX - (i16)g_Players[i].X;
    0000166E DD 7E DF         [19] 3897 	ld	a, -33 (ix)
    00001671 C6 0C            [ 7] 3898 	add	a, #0x0c
    00001673 DD 77 F3         [19] 3899 	ld	-13 (ix), a
    00001676 DD 7E E0         [19] 3900 	ld	a, -32 (ix)
    00001679 CE 00            [ 7] 3901 	adc	a, #0x00
    0000167B DD 77 F4         [19] 3902 	ld	-12 (ix), a
    0000167E DD 6E F3         [19] 3903 	ld	l, -13 (ix)
    00001681 DD 66 F4         [19] 3904 	ld	h, -12 (ix)
    00001684 7E               [ 7] 3905 	ld	a, (hl)
    00001685 DD 77 FB         [19] 3906 	ld	-5 (ix), a
    00001688 23               [ 6] 3907 	inc	hl
    00001689 7E               [ 7] 3908 	ld	a, (hl)
    0000168A DD 77 FC         [19] 3909 	ld	-4 (ix), a
    0000168D DD 4E FB         [19] 3910 	ld	c, -5 (ix)
    00001690 DD 46 FC         [19] 3911 	ld	b, -4 (ix)
    00001693 6B               [ 4] 3912 	ld	l, e
                                   3913 ;	spillPairReg hl
                                   3914 ;	spillPairReg hl
    00001694 62               [ 4] 3915 	ld	h, d
                                   3916 ;	spillPairReg hl
                                   3917 ;	spillPairReg hl
    00001695 23               [ 6] 3918 	inc	hl
    00001696 23               [ 6] 3919 	inc	hl
    00001697 7E               [ 7] 3920 	ld	a, (hl)
    00001698 23               [ 6] 3921 	inc	hl
    00001699 66               [ 7] 3922 	ld	h, (hl)
                                   3923 ;	spillPairReg hl
    0000169A 6F               [ 4] 3924 	ld	l, a
                                   3925 ;	spillPairReg hl
                                   3926 ;	spillPairReg hl
    0000169B 79               [ 4] 3927 	ld	a, c
    0000169C 95               [ 4] 3928 	sub	a, l
    0000169D 4F               [ 4] 3929 	ld	c, a
    0000169E 78               [ 4] 3930 	ld	a, b
    0000169F 9C               [ 4] 3931 	sbc	a, h
    000016A0 47               [ 4] 3932 	ld	b, a
                                   3933 ;E:\Dropbox\FAUSTO\SVILUPPI\MSX\CODE\C\MSXgl\projects\exsoccer/exsoccer_s2_b0.c:708: i16 dy = (i16)g_Players[playerId].TargetY - (i16)g_Players[i].Y;
    000016A1 DD 7E DF         [19] 3934 	ld	a, -33 (ix)
    000016A4 C6 0A            [ 7] 3935 	add	a, #0x0a
    000016A6 DD 77 F5         [19] 3936 	ld	-11 (ix), a
    000016A9 DD 7E E0         [19] 3937 	ld	a, -32 (ix)
    000016AC CE 00            [ 7] 3938 	adc	a, #0x00
    000016AE DD 77 F6         [19] 3939 	ld	-10 (ix), a
    000016B1 DD 6E F5         [19] 3940 	ld	l, -11 (ix)
    000016B4 DD 66 F6         [19] 3941 	ld	h, -10 (ix)
    000016B7 23               [ 6] 3942 	inc	hl
    000016B8 7E               [ 7] 3943 	ld	a, (hl)
    000016B9 2B               [ 6] 3944 	dec	hl
    000016BA 6E               [ 7] 3945 	ld	l, (hl)
                                   3946 ;	spillPairReg hl
    000016BB DD 75 F9         [19] 3947 	ld	-7 (ix), l
    000016BE DD 77 FA         [19] 3948 	ld	-6 (ix), a
    000016C1 EB               [ 4] 3949 	ex	de,hl
    000016C2 5E               [ 7] 3950 	ld	e, (hl)
    000016C3 23               [ 6] 3951 	inc	hl
    000016C4 56               [ 7] 3952 	ld	d, (hl)
    000016C5 DD 7E F9         [19] 3953 	ld	a, -7 (ix)
    000016C8 93               [ 4] 3954 	sub	a, e
    000016C9 5F               [ 4] 3955 	ld	e, a
    000016CA DD 7E FA         [19] 3956 	ld	a, -6 (ix)
    000016CD 9A               [ 4] 3957 	sbc	a, d
    000016CE 57               [ 4] 3958 	ld	d, a
                                   3959 ;E:\Dropbox\FAUSTO\SVILUPPI\MSX\CODE\C\MSXgl\projects\exsoccer/exsoccer_s2_b0.c:709: if (dx > -60 && dx < 60 && dy > -60 && dy < 60) {
    000016CF 3E C4            [ 7] 3960 	ld	a, #0xc4
    000016D1 B9               [ 4] 3961 	cp	a, c
    000016D2 3E FF            [ 7] 3962 	ld	a, #0xff
    000016D4 98               [ 4] 3963 	sbc	a, b
    000016D5 E2rDAr16         [10] 3964 	jp	PO, 01810$
    000016D8 EE 80            [ 7] 3965 	xor	a, #0x80
    000016DA                       3966 01810$:
    000016DA F2r83r17         [10] 3967 	jp	P, 00531$
    000016DD 79               [ 4] 3968 	ld	a, c
    000016DE D6 3C            [ 7] 3969 	sub	a, #0x3c
    000016E0 78               [ 4] 3970 	ld	a, b
    000016E1 17               [ 4] 3971 	rla
    000016E2 3F               [ 4] 3972 	ccf
    000016E3 1F               [ 4] 3973 	rra
    000016E4 DE 80            [ 7] 3974 	sbc	a, #0x80
    000016E6 D2r83r17         [10] 3975 	jp	NC, 00531$
    000016E9 3E C4            [ 7] 3976 	ld	a, #0xc4
    000016EB BB               [ 4] 3977 	cp	a, e
    000016EC 3E FF            [ 7] 3978 	ld	a, #0xff
    000016EE 9A               [ 4] 3979 	sbc	a, d
    000016EF E2rF4r16         [10] 3980 	jp	PO, 01811$
    000016F2 EE 80            [ 7] 3981 	xor	a, #0x80
    000016F4                       3982 01811$:
    000016F4 F2r83r17         [10] 3983 	jp	P, 00531$
    000016F7 DD 73 F7         [19] 3984 	ld	-9 (ix), e
    000016FA DD 72 F8         [19] 3985 	ld	-8 (ix), d
    000016FD DD 7E F7         [19] 3986 	ld	a, -9 (ix)
    00001700 D6 3C            [ 7] 3987 	sub	a, #0x3c
    00001702 DD 7E F8         [19] 3988 	ld	a, -8 (ix)
    00001705 17               [ 4] 3989 	rla
    00001706 3F               [ 4] 3990 	ccf
    00001707 1F               [ 4] 3991 	rra
    00001708 DE 80            [ 7] 3992 	sbc	a, #0x80
    0000170A 30 77            [12] 3993 	jr	NC, 00531$
                                   3994 ;E:\Dropbox\FAUSTO\SVILUPPI\MSX\CODE\C\MSXgl\projects\exsoccer/exsoccer_s2_b0.c:710: if (dx >= 0) g_Players[playerId].TargetX += 12; else g_Players[playerId].TargetX -= 12;
    0000170C DD 7E FB         [19] 3995 	ld	a, -5 (ix)
    0000170F DD 77 F9         [19] 3996 	ld	-7 (ix), a
    00001712 DD 7E FC         [19] 3997 	ld	a, -4 (ix)
    00001715 DD 77 FA         [19] 3998 	ld	-6 (ix), a
    00001718 CB 78            [ 8] 3999 	bit	7, b
    0000171A 20 17            [12] 4000 	jr	NZ, 00521$
    0000171C DD 6E F9         [19] 4001 	ld	l, -7 (ix)
    0000171F DD 66 FA         [19] 4002 	ld	h, -6 (ix)
    00001722 11 0C 00         [10] 4003 	ld	de, #0x000c
    00001725 19               [11] 4004 	add	hl, de
    00001726 EB               [ 4] 4005 	ex	de, hl
    00001727 DD 6E F3         [19] 4006 	ld	l, -13 (ix)
    0000172A DD 66 F4         [19] 4007 	ld	h, -12 (ix)
    0000172D 73               [ 7] 4008 	ld	(hl), e
    0000172E 23               [ 6] 4009 	inc	hl
    0000172F 72               [ 7] 4010 	ld	(hl), d
    00001730 C3r52r17         [10] 4011 	jp	00522$
    00001733                       4012 00521$:
    00001733 DD 7E F9         [19] 4013 	ld	a, -7 (ix)
    00001736 C6 F4            [ 7] 4014 	add	a, #0xf4
    00001738 DD 77 FB         [19] 4015 	ld	-5 (ix), a
    0000173B DD 7E FA         [19] 4016 	ld	a, -6 (ix)
    0000173E CE FF            [ 7] 4017 	adc	a, #0xff
    00001740 DD 77 FC         [19] 4018 	ld	-4 (ix), a
    00001743 DD 4E FB         [19] 4019 	ld	c, -5 (ix)
    00001746 DD 46 FC         [19] 4020 	ld	b, -4 (ix)
    00001749 DD 6E F3         [19] 4021 	ld	l, -13 (ix)
    0000174C DD 66 F4         [19] 4022 	ld	h, -12 (ix)
    0000174F 71               [ 7] 4023 	ld	(hl), c
    00001750 23               [ 6] 4024 	inc	hl
    00001751 70               [ 7] 4025 	ld	(hl), b
    00001752                       4026 00522$:
                                   4027 ;E:\Dropbox\FAUSTO\SVILUPPI\MSX\CODE\C\MSXgl\projects\exsoccer/exsoccer_s2_b0.c:708: i16 dy = (i16)g_Players[playerId].TargetY - (i16)g_Players[i].Y;
    00001752 DD 6E F5         [19] 4028 	ld	l, -11 (ix)
    00001755 DD 66 F6         [19] 4029 	ld	h, -10 (ix)
    00001758 4E               [ 7] 4030 	ld	c, (hl)
    00001759 23               [ 6] 4031 	inc	hl
    0000175A 46               [ 7] 4032 	ld	b, (hl)
                                   4033 ;E:\Dropbox\FAUSTO\SVILUPPI\MSX\CODE\C\MSXgl\projects\exsoccer/exsoccer_s2_b0.c:711: if (dy >= 0) g_Players[playerId].TargetY += 12; else g_Players[playerId].TargetY -= 12;
    0000175B DD CB F8 7E      [20] 4034 	bit	7, -8 (ix)
    0000175F 20 11            [12] 4035 	jr	NZ, 00524$
    00001761 21 0C 00         [10] 4036 	ld	hl, #0x000c
    00001764 09               [11] 4037 	add	hl, bc
    00001765 EB               [ 4] 4038 	ex	de, hl
    00001766 DD 6E F5         [19] 4039 	ld	l, -11 (ix)
    00001769 DD 66 F6         [19] 4040 	ld	h, -10 (ix)
    0000176C 73               [ 7] 4041 	ld	(hl), e
    0000176D 23               [ 6] 4042 	inc	hl
    0000176E 72               [ 7] 4043 	ld	(hl), d
    0000176F C3r83r17         [10] 4044 	jp	00531$
    00001772                       4045 00524$:
    00001772 79               [ 4] 4046 	ld	a, c
    00001773 C6 F4            [ 7] 4047 	add	a, #0xf4
    00001775 4F               [ 4] 4048 	ld	c, a
    00001776 78               [ 4] 4049 	ld	a, b
    00001777 CE FF            [ 7] 4050 	adc	a, #0xff
    00001779 47               [ 4] 4051 	ld	b, a
    0000177A DD 6E F5         [19] 4052 	ld	l, -11 (ix)
    0000177D DD 66 F6         [19] 4053 	ld	h, -10 (ix)
    00001780 71               [ 7] 4054 	ld	(hl), c
    00001781 23               [ 6] 4055 	inc	hl
    00001782 70               [ 7] 4056 	ld	(hl), b
    00001783                       4057 00531$:
                                   4058 ;E:\Dropbox\FAUSTO\SVILUPPI\MSX\CODE\C\MSXgl\projects\exsoccer/exsoccer_s2_b0.c:703: for(u8 i=0; i<14; i++) {
    00001783 DD 34 FF         [23] 4059 	inc	-1 (ix)
    00001786 C3r33r16         [10] 4060 	jp	00544$
    00001789                       4061 00545$:
                                   4062 ;E:\Dropbox\FAUSTO\SVILUPPI\MSX\CODE\C\MSXgl\projects\exsoccer/exsoccer_s2_b0.c:716: }
    00001789 DD F9            [10] 4063 	ld	sp, ix
    0000178B DD E1            [14] 4064 	pop	ix
    0000178D C9               [10] 4065 	ret
                                   4066 ;E:\Dropbox\FAUSTO\SVILUPPI\MSX\CODE\C\MSXgl\projects\exsoccer/exsoccer_s2_b0.c:717: void TickP1(){
                                   4067 ;	---------------------------------
                                   4068 ; Function TickP1
                                   4069 ; ---------------------------------
    0000178E                       4070 _TickP1::
                                   4071 ;E:\Dropbox\FAUSTO\SVILUPPI\MSX\CODE\C\MSXgl\projects\exsoccer/exsoccer_s2_b0.c:718: TickFieldScrollingAction();
                                   4072 ;E:\Dropbox\FAUSTO\SVILUPPI\MSX\CODE\C\MSXgl\projects\exsoccer/exsoccer_s2_b0.c:719: }
    0000178E C3r91r17         [10] 4073 	jp	_TickFieldScrollingAction
                                   4074 ;E:\Dropbox\FAUSTO\SVILUPPI\MSX\CODE\C\MSXgl\projects\exsoccer/exsoccer_s2_b0.c:720: void TickFieldScrollingAction(){
                                   4075 ;	---------------------------------
                                   4076 ; Function TickFieldScrollingAction
                                   4077 ; ---------------------------------
    00001791                       4078 _TickFieldScrollingAction::
                                   4079 ;E:\Dropbox\FAUSTO\SVILUPPI\MSX\CODE\C\MSXgl\projects\exsoccer/exsoccer_s2_b0.c:722: if(g_FieldScrollingActionInProgress!=NO_VALUE){
    00001791 3Ar00r00         [13] 4080 	ld	a, (_g_FieldScrollingActionInProgress+0)
    00001794 3C               [ 4] 4081 	inc	a
    00001795 C8               [11] 4082 	ret	Z
                                   4083 ;E:\Dropbox\FAUSTO\SVILUPPI\MSX\CODE\C\MSXgl\projects\exsoccer/exsoccer_s2_b0.c:724: switch (g_FieldScrollingActionInProgress){
    00001796 3Ar00r00         [13] 4084 	ld	a, (_g_FieldScrollingActionInProgress+0)
    00001799 B7               [ 4] 4085 	or	a, a
    0000179A 28 11            [12] 4086 	jr	Z, 00101$
    0000179C 3Ar00r00         [13] 4087 	ld	a, (_g_FieldScrollingActionInProgress+0)
    0000179F 3D               [ 4] 4088 	dec	a
    000017A0 28 39            [12] 4089 	jr	Z, 00104$
    000017A2 3Ar00r00         [13] 4090 	ld	a, (_g_FieldScrollingActionInProgress+0)
    000017A5 D6 02            [ 7] 4091 	sub	a, #0x02
    000017A7 CAr4Ar18         [10] 4092 	jp	Z,00114$
    000017AA C3r7Er18         [10] 4093 	jp	00117$
                                   4094 ;E:\Dropbox\FAUSTO\SVILUPPI\MSX\CODE\C\MSXgl\projects\exsoccer/exsoccer_s2_b0.c:725: case FIELD_NORTH_ZONE:
    000017AD                       4095 00101$:
                                   4096 ;E:\Dropbox\FAUSTO\SVILUPPI\MSX\CODE\C\MSXgl\projects\exsoccer/exsoccer_s2_b0.c:726: g_FieldCurrentYPosition=g_FieldCurrentYPosition-g_FieldScrollSpeed;
    000017AD 3Ar00r00         [13] 4097 	ld	a, (_g_FieldScrollSpeed+0)
    000017B0 4F               [ 4] 4098 	ld	c, a
    000017B1 06 00            [ 7] 4099 	ld	b, #0x00
    000017B3 21r00r00         [10] 4100 	ld	hl, #_g_FieldCurrentYPosition
    000017B6 7E               [ 7] 4101 	ld	a, (hl)
    000017B7 91               [ 4] 4102 	sub	a, c
    000017B8 77               [ 7] 4103 	ld	(hl), a
    000017B9 23               [ 6] 4104 	inc	hl
    000017BA 7E               [ 7] 4105 	ld	a, (hl)
    000017BB 98               [ 4] 4106 	sbc	a, b
    000017BC 77               [ 7] 4107 	ld	(hl), a
                                   4108 ;E:\Dropbox\FAUSTO\SVILUPPI\MSX\CODE\C\MSXgl\projects\exsoccer/exsoccer_s2_b0.c:727: if(g_FieldCurrentYPosition<0){
    000017BD 3Ar01r00         [13] 4109 	ld	a, (_g_FieldCurrentYPosition+1)
    000017C0 CB 7F            [ 8] 4110 	bit	7, a
    000017C2 CAr7Er18         [10] 4111 	jp	Z, 00117$
                                   4112 ;E:\Dropbox\FAUSTO\SVILUPPI\MSX\CODE\C\MSXgl\projects\exsoccer/exsoccer_s2_b0.c:728: g_FieldCurrentYPosition=1;
    000017C5 21 01 00         [10] 4113 	ld	hl, #0x0001
    000017C8 22r00r00         [16] 4114 	ld	(_g_FieldCurrentYPosition), hl
                                   4115 ;E:\Dropbox\FAUSTO\SVILUPPI\MSX\CODE\C\MSXgl\projects\exsoccer/exsoccer_s2_b0.c:729: g_FieldScrollingActionInProgress=NO_VALUE;
    000017CB 21r00r00         [10] 4116 	ld	hl, #_g_FieldScrollingActionInProgress
    000017CE 36 FF            [10] 4117 	ld	(hl), #0xff
                                   4118 ;E:\Dropbox\FAUSTO\SVILUPPI\MSX\CODE\C\MSXgl\projects\exsoccer/exsoccer_s2_b0.c:730: g_ActiveFieldZone=FIELD_NORTH_ZONE;
    000017D0 FD 21r00r00      [14] 4119 	ld	iy, #_g_ActiveFieldZone
    000017D4 FD 36 00 00      [19] 4120 	ld	0 (iy), #0x00
                                   4121 ;E:\Dropbox\FAUSTO\SVILUPPI\MSX\CODE\C\MSXgl\projects\exsoccer/exsoccer_s2_b0.c:732: break;
    000017D8 C3r7Er18         [10] 4122 	jp	00117$
                                   4123 ;E:\Dropbox\FAUSTO\SVILUPPI\MSX\CODE\C\MSXgl\projects\exsoccer/exsoccer_s2_b0.c:733: case FIELD_CENTRAL_ZONE:
    000017DB                       4124 00104$:
                                   4125 ;E:\Dropbox\FAUSTO\SVILUPPI\MSX\CODE\C\MSXgl\projects\exsoccer/exsoccer_s2_b0.c:734: if(g_FieldCurrentYPosition!=136){
    000017DB 3Ar00r00         [13] 4126 	ld	a, (_g_FieldCurrentYPosition+0)
    000017DE D6 88            [ 7] 4127 	sub	a, #0x88
    000017E0 FD 21r00r00      [14] 4128 	ld	iy, #_g_FieldCurrentYPosition
    000017E4 FD B6 01         [19] 4129 	or	a, 1 (iy)
    000017E7 28 32            [12] 4130 	jr	Z, 00112$
                                   4131 ;E:\Dropbox\FAUSTO\SVILUPPI\MSX\CODE\C\MSXgl\projects\exsoccer/exsoccer_s2_b0.c:726: g_FieldCurrentYPosition=g_FieldCurrentYPosition-g_FieldScrollSpeed;
    000017E9 3Ar00r00         [13] 4132 	ld	a, (_g_FieldScrollSpeed+0)
    000017EC 4F               [ 4] 4133 	ld	c, a
    000017ED 06 00            [ 7] 4134 	ld	b, #0x00
                                   4135 ;E:\Dropbox\FAUSTO\SVILUPPI\MSX\CODE\C\MSXgl\projects\exsoccer/exsoccer_s2_b0.c:735: if(g_FieldCurrentYPosition>FIELD_CENTRAL_Y){
    000017EF 3E 8C            [ 7] 4136 	ld	a, #0x8c
    000017F1 FD BE 00         [19] 4137 	cp	a, 0 (iy)
    000017F4 3E 00            [ 7] 4138 	ld	a, #0x00
    000017F6 FD 9E 01         [19] 4139 	sbc	a, 1 (iy)
    000017F9 E2rFEr17         [10] 4140 	jp	PO, 00186$
    000017FC EE 80            [ 7] 4141 	xor	a, #0x80
    000017FE                       4142 00186$:
    000017FE F2r0Er18         [10] 4143 	jp	P, 00106$
                                   4144 ;E:\Dropbox\FAUSTO\SVILUPPI\MSX\CODE\C\MSXgl\projects\exsoccer/exsoccer_s2_b0.c:736: g_FieldCurrentYPosition=g_FieldCurrentYPosition-g_FieldScrollSpeed;
    00001801 21r00r00         [10] 4145 	ld	hl, #_g_FieldCurrentYPosition
    00001804 7E               [ 7] 4146 	ld	a, (hl)
    00001805 91               [ 4] 4147 	sub	a, c
    00001806 77               [ 7] 4148 	ld	(hl), a
    00001807 23               [ 6] 4149 	inc	hl
    00001808 7E               [ 7] 4150 	ld	a, (hl)
    00001809 98               [ 4] 4151 	sbc	a, b
    0000180A 77               [ 7] 4152 	ld	(hl), a
    0000180B C3r7Er18         [10] 4153 	jp	00117$
    0000180E                       4154 00106$:
                                   4155 ;E:\Dropbox\FAUSTO\SVILUPPI\MSX\CODE\C\MSXgl\projects\exsoccer/exsoccer_s2_b0.c:739: g_FieldCurrentYPosition=g_FieldCurrentYPosition+g_FieldScrollSpeed;
    0000180E 21r00r00         [10] 4156 	ld	hl, #_g_FieldCurrentYPosition
    00001811 7E               [ 7] 4157 	ld	a, (hl)
    00001812 81               [ 4] 4158 	add	a, c
    00001813 77               [ 7] 4159 	ld	(hl), a
    00001814 23               [ 6] 4160 	inc	hl
    00001815 7E               [ 7] 4161 	ld	a, (hl)
    00001816 88               [ 4] 4162 	adc	a, b
    00001817 77               [ 7] 4163 	ld	(hl), a
    00001818 C3r7Er18         [10] 4164 	jp	00117$
    0000181B                       4165 00112$:
                                   4166 ;E:\Dropbox\FAUSTO\SVILUPPI\MSX\CODE\C\MSXgl\projects\exsoccer/exsoccer_s2_b0.c:744: g_FieldScrollingActionInProgress=NO_VALUE;
    0000181B 21r00r00         [10] 4167 	ld	hl, #_g_FieldScrollingActionInProgress
    0000181E 36 FF            [10] 4168 	ld	(hl), #0xff
                                   4169 ;E:\Dropbox\FAUSTO\SVILUPPI\MSX\CODE\C\MSXgl\projects\exsoccer/exsoccer_s2_b0.c:745: g_ActiveFieldZone=FIELD_CENTRAL_ZONE;
    00001820 FD 21r00r00      [14] 4170 	ld	iy, #_g_ActiveFieldZone
    00001824 FD 36 00 01      [19] 4171 	ld	0 (iy), #0x01
                                   4172 ;E:\Dropbox\FAUSTO\SVILUPPI\MSX\CODE\C\MSXgl\projects\exsoccer/exsoccer_s2_b0.c:746: if(g_MatchStatus==MATCH_NOT_STARTED){
    00001828 3Ar00r00         [13] 4173 	ld	a, (_g_MatchStatus+0)
    0000182B B7               [ 4] 4174 	or	a, a
    0000182C 20 50            [12] 4175 	jr	NZ, 00117$
                                   4176 ;E:\Dropbox\FAUSTO\SVILUPPI\MSX\CODE\C\MSXgl\projects\exsoccer/exsoccer_s2_b0.c:747: g_MatchStatus=MATCH_BEFORE_KICK_OFF;
    0000182E 21r00r00         [10] 4177 	ld	hl, #_g_MatchStatus
    00001831 36 01            [10] 4178 	ld	(hl), #0x01
                                   4179 ;E:\Dropbox\FAUSTO\SVILUPPI\MSX\CODE\C\MSXgl\projects\exsoccer/exsoccer_s2_b0.c:748: for(u8 i=0;i<15;i++){
    00001833 0E 00            [ 7] 4180 	ld	c, #0x00
    00001835                       4181 00121$:
    00001835 79               [ 4] 4182 	ld	a, c
    00001836 D6 0F            [ 7] 4183 	sub	a, #0x0f
    00001838 30 0A            [12] 4184 	jr	NC, 00108$
                                   4185 ;E:\Dropbox\FAUSTO\SVILUPPI\MSX\CODE\C\MSXgl\projects\exsoccer/exsoccer_s2_b0.c:749: SetPlayerTarget(i);
    0000183A C5               [11] 4186 	push	bc
    0000183B 79               [ 4] 4187 	ld	a, c
    0000183C CDr00r00         [17] 4188 	call	_SetPlayerTarget
    0000183F C1               [10] 4189 	pop	bc
                                   4190 ;E:\Dropbox\FAUSTO\SVILUPPI\MSX\CODE\C\MSXgl\projects\exsoccer/exsoccer_s2_b0.c:748: for(u8 i=0;i<15;i++){
    00001840 0C               [ 4] 4191 	inc	c
    00001841 C3r35r18         [10] 4192 	jp	00121$
    00001844                       4193 00108$:
                                   4194 ;E:\Dropbox\FAUSTO\SVILUPPI\MSX\CODE\C\MSXgl\projects\exsoccer/exsoccer_s2_b0.c:751: TickPlayerToOwnTarget();
    00001844 CDr38r24         [17] 4195 	call	_TickPlayerToOwnTarget
                                   4196 ;E:\Dropbox\FAUSTO\SVILUPPI\MSX\CODE\C\MSXgl\projects\exsoccer/exsoccer_s2_b0.c:755: break;
    00001847 C3r7Er18         [10] 4197 	jp	00117$
                                   4198 ;E:\Dropbox\FAUSTO\SVILUPPI\MSX\CODE\C\MSXgl\projects\exsoccer/exsoccer_s2_b0.c:756: case FIELD_SOUTH_ZONE:
    0000184A                       4199 00114$:
                                   4200 ;E:\Dropbox\FAUSTO\SVILUPPI\MSX\CODE\C\MSXgl\projects\exsoccer/exsoccer_s2_b0.c:757: g_FieldCurrentYPosition=g_FieldCurrentYPosition+g_FieldScrollSpeed;
    0000184A 3Ar00r00         [13] 4201 	ld	a, (_g_FieldScrollSpeed+0)
    0000184D 4F               [ 4] 4202 	ld	c, a
    0000184E 06 00            [ 7] 4203 	ld	b, #0x00
    00001850 79               [ 4] 4204 	ld	a, c
    00001851 FD 21r00r00      [14] 4205 	ld	iy, #_g_FieldCurrentYPosition
    00001855 FD 86 00         [19] 4206 	add	a, 0 (iy)
    00001858 32r00r00         [13] 4207 	ld	(_g_FieldCurrentYPosition+0), a
    0000185B 78               [ 4] 4208 	ld	a, b
    0000185C FD 8E 01         [19] 4209 	adc	a, 1 (iy)
    0000185F 32r01r00         [13] 4210 	ld	(_g_FieldCurrentYPosition+1), a
                                   4211 ;E:\Dropbox\FAUSTO\SVILUPPI\MSX\CODE\C\MSXgl\projects\exsoccer/exsoccer_s2_b0.c:758: if(g_FieldCurrentYPosition>=FIELD_BOTTOM_Y){
    00001862 3Ar00r00         [13] 4212 	ld	a, (_g_FieldCurrentYPosition+0)
    00001865 D6 18            [ 7] 4213 	sub	a, #0x18
    00001867 3Ar01r00         [13] 4214 	ld	a, (_g_FieldCurrentYPosition+1)
    0000186A 17               [ 4] 4215 	rla
    0000186B 3F               [ 4] 4216 	ccf
    0000186C 1F               [ 4] 4217 	rra
    0000186D DE 81            [ 7] 4218 	sbc	a, #0x81
    0000186F 38 0D            [12] 4219 	jr	C, 00117$
                                   4220 ;E:\Dropbox\FAUSTO\SVILUPPI\MSX\CODE\C\MSXgl\projects\exsoccer/exsoccer_s2_b0.c:759: g_ActiveFieldZone=FIELD_SOUTH_ZONE;
    00001871 21r00r00         [10] 4221 	ld	hl, #_g_ActiveFieldZone
    00001874 36 02            [10] 4222 	ld	(hl), #0x02
                                   4223 ;E:\Dropbox\FAUSTO\SVILUPPI\MSX\CODE\C\MSXgl\projects\exsoccer/exsoccer_s2_b0.c:760: g_FieldScrollingActionInProgress=NO_VALUE;
    00001876 FD 21r00r00      [14] 4224 	ld	iy, #_g_FieldScrollingActionInProgress
    0000187A FD 36 00 FF      [19] 4225 	ld	0 (iy), #0xff
                                   4226 ;E:\Dropbox\FAUSTO\SVILUPPI\MSX\CODE\C\MSXgl\projects\exsoccer/exsoccer_s2_b0.c:763: }
    0000187E                       4227 00117$:
                                   4228 ;E:\Dropbox\FAUSTO\SVILUPPI\MSX\CODE\C\MSXgl\projects\exsoccer/exsoccer_s2_b0.c:764: V9_SetScrollingBY(g_FieldCurrentYPosition);
    0000187E 2Ar00r00         [16] 4229 	ld	hl, (_g_FieldCurrentYPosition)
                                   4230 ;E:\Dropbox\FAUSTO\SVILUPPI\MSX\CODE\C\MSXgl\projects\exsoccer/exsoccer_s2_b0.c:766: }
    00001881 C3r00r00         [10] 4231 	jp	_V9_SetScrollingBY
                                   4232 ;E:\Dropbox\FAUSTO\SVILUPPI\MSX\CODE\C\MSXgl\projects\exsoccer/exsoccer_s2_b0.c:767: void TickShowKickOff(){
                                   4233 ;	---------------------------------
                                   4234 ; Function TickShowKickOff
                                   4235 ; ---------------------------------
    00001884                       4236 _TickShowKickOff::
                                   4237 ;E:\Dropbox\FAUSTO\SVILUPPI\MSX\CODE\C\MSXgl\projects\exsoccer/exsoccer_s2_b0.c:768: if(g_MatchStatus==MATCH_KICK_OFF){
    00001884 3Ar00r00         [13] 4238 	ld	a, (_g_MatchStatus+0)
    00001887 D6 07            [ 7] 4239 	sub	a, #0x07
    00001889 C0               [11] 4240 	ret	NZ
                                   4241 ;E:\Dropbox\FAUSTO\SVILUPPI\MSX\CODE\C\MSXgl\projects\exsoccer/exsoccer_s2_b0.c:769: if(g_Timer==1){
    0000188A 3Ar00r00         [13] 4242 	ld	a, (_g_Timer+0)
    0000188D 3D               [ 4] 4243 	dec	a
    0000188E 20 10            [12] 4244 	jr	NZ, 00102$
                                   4245 ;E:\Dropbox\FAUSTO\SVILUPPI\MSX\CODE\C\MSXgl\projects\exsoccer/exsoccer_s2_b0.c:770: V9_PrintLayerAStringAtPos(12,18,"KICK OFF");
    00001890 21rD9r18         [10] 4246 	ld	hl, #___str_0
    00001893 E5               [11] 4247 	push	hl
    00001894 2E 12            [ 7] 4248 	ld	l, #0x12
                                   4249 ;	spillPairReg hl
                                   4250 ;	spillPairReg hl
    00001896 3E 0C            [ 7] 4251 	ld	a, #0x0c
    00001898 CDr00r00         [17] 4252 	call	_V9_PrintLayerAStringAtPos
                                   4253 ;E:\Dropbox\FAUSTO\SVILUPPI\MSX\CODE\C\MSXgl\projects\exsoccer/exsoccer_s2_b0.c:771: g_Timer=2;
    0000189B 21r00r00         [10] 4254 	ld	hl, #_g_Timer
    0000189E 36 02            [10] 4255 	ld	(hl), #0x02
    000018A0                       4256 00102$:
                                   4257 ;E:\Dropbox\FAUSTO\SVILUPPI\MSX\CODE\C\MSXgl\projects\exsoccer/exsoccer_s2_b0.c:773: if(g_Timer==3){
    000018A0 3Ar00r00         [13] 4258 	ld	a, (_g_Timer+0)
    000018A3 D6 03            [ 7] 4259 	sub	a, #0x03
    000018A5 C0               [11] 4260 	ret	NZ
                                   4261 ;E:\Dropbox\FAUSTO\SVILUPPI\MSX\CODE\C\MSXgl\projects\exsoccer/exsoccer_s2_b0.c:774: ClearTextFromLayerA(12,18,9);
    000018A6 3E 09            [ 7] 4262 	ld	a, #0x09
    000018A8 F5               [11] 4263 	push	af
    000018A9 33               [ 6] 4264 	inc	sp
    000018AA 2E 12            [ 7] 4265 	ld	l, #0x12
                                   4266 ;	spillPairReg hl
                                   4267 ;	spillPairReg hl
    000018AC 3E 0C            [ 7] 4268 	ld	a, #0x0c
    000018AE CDr17r24         [17] 4269 	call	_ClearTextFromLayerA
                                   4270 ;E:\Dropbox\FAUSTO\SVILUPPI\MSX\CODE\C\MSXgl\projects\exsoccer/exsoccer_s2_b0.c:775: g_Timer=NO_VALUE;
    000018B1 21r00r00         [10] 4271 	ld	hl, #_g_Timer
    000018B4 36 FF            [10] 4272 	ld	(hl), #0xff
                                   4273 ;E:\Dropbox\FAUSTO\SVILUPPI\MSX\CODE\C\MSXgl\projects\exsoccer/exsoccer_s2_b0.c:777: if(g_RestartKickTeamId==TEAM_1){
    000018B6 3Ar00r00         [13] 4274 	ld	a, (_g_RestartKickTeamId+0)
    000018B9 3D               [ 4] 4275 	dec	a
    000018BA 20 0B            [12] 4276 	jr	NZ, 00104$
                                   4277 ;E:\Dropbox\FAUSTO\SVILUPPI\MSX\CODE\C\MSXgl\projects\exsoccer/exsoccer_s2_b0.c:778: playerId=GetPlayerIdByRole(TEAM_1,PLAYER_ROLE_RIGHT_HALFFIELDER);
    000018BC 2E 04            [ 7] 4278 	ld	l, #0x04
                                   4279 ;	spillPairReg hl
                                   4280 ;	spillPairReg hl
    000018BE 3E 01            [ 7] 4281 	ld	a, #0x01
    000018C0 CDrE2r18         [17] 4282 	call	_GetPlayerIdByRole
    000018C3 4F               [ 4] 4283 	ld	c, a
    000018C4 C3rCFr18         [10] 4284 	jp	00105$
    000018C7                       4285 00104$:
                                   4286 ;E:\Dropbox\FAUSTO\SVILUPPI\MSX\CODE\C\MSXgl\projects\exsoccer/exsoccer_s2_b0.c:781: playerId=GetPlayerIdByRole(TEAM_2,PLAYER_ROLE_LEFT_HALFFIELDER);
    000018C7 2E 03            [ 7] 4287 	ld	l, #0x03
                                   4288 ;	spillPairReg hl
                                   4289 ;	spillPairReg hl
    000018C9 3E 02            [ 7] 4290 	ld	a, #0x02
    000018CB CDrE2r18         [17] 4291 	call	_GetPlayerIdByRole
    000018CE 4F               [ 4] 4292 	ld	c, a
    000018CF                       4293 00105$:
                                   4294 ;E:\Dropbox\FAUSTO\SVILUPPI\MSX\CODE\C\MSXgl\projects\exsoccer/exsoccer_s2_b0.c:783: PutBallOnPlayerFeet(playerId);
    000018CF 79               [ 4] 4295 	ld	a, c
    000018D0 CDr3Cr19         [17] 4296 	call	_PutBallOnPlayerFeet
                                   4297 ;E:\Dropbox\FAUSTO\SVILUPPI\MSX\CODE\C\MSXgl\projects\exsoccer/exsoccer_s2_b0.c:784: g_MatchStatus=MATCH_IN_ACTION;
    000018D3 21r00r00         [10] 4298 	ld	hl, #_g_MatchStatus
    000018D6 36 0C            [10] 4299 	ld	(hl), #0x0c
                                   4300 ;E:\Dropbox\FAUSTO\SVILUPPI\MSX\CODE\C\MSXgl\projects\exsoccer/exsoccer_s2_b0.c:787: }
    000018D8 C9               [10] 4301 	ret
    000018D9                       4302 ___str_0:
    000018D9 4B 49 43 4B 20 4F 46  4303 	.ascii "KICK OFF"
             46
    000018E1 00                    4304 	.db 0x00
                                   4305 ;E:\Dropbox\FAUSTO\SVILUPPI\MSX\CODE\C\MSXgl\projects\exsoccer/exsoccer_s2_b0.c:791: u8 GetPlayerIdByRole(u8 teamId, u8 role){
                                   4306 ;	---------------------------------
                                   4307 ; Function GetPlayerIdByRole
                                   4308 ; ---------------------------------
    000018E2                       4309 _GetPlayerIdByRole::
    000018E2 DD E5            [15] 4310 	push	ix
    000018E4 DD 21 00 00      [14] 4311 	ld	ix,#0
    000018E8 DD 39            [15] 4312 	add	ix,sp
    000018EA F5               [11] 4313 	push	af
    000018EB 3B               [ 6] 4314 	dec	sp
    000018EC 4F               [ 4] 4315 	ld	c, a
    000018ED DD 75 FF         [19] 4316 	ld	-1 (ix), l
                                   4317 ;E:\Dropbox\FAUSTO\SVILUPPI\MSX\CODE\C\MSXgl\projects\exsoccer/exsoccer_s2_b0.c:792: u8 playerId=NO_VALUE;
    000018F0 DD 36 FD FF      [19] 4318 	ld	-3 (ix), #0xff
                                   4319 ;E:\Dropbox\FAUSTO\SVILUPPI\MSX\CODE\C\MSXgl\projects\exsoccer/exsoccer_s2_b0.c:793: for(u8 i=0;i<14;i++){
    000018F4 DD 36 FE 00      [19] 4320 	ld	-2 (ix), #0x00
    000018F8 06 00            [ 7] 4321 	ld	b, #0x00
    000018FA                       4322 00106$:
    000018FA 78               [ 4] 4323 	ld	a, b
    000018FB D6 0E            [ 7] 4324 	sub	a, #0x0e
    000018FD 30 35            [12] 4325 	jr	NC, 00104$
                                   4326 ;E:\Dropbox\FAUSTO\SVILUPPI\MSX\CODE\C\MSXgl\projects\exsoccer/exsoccer_s2_b0.c:794: if(g_Players[i].Role==role && g_Players[i].TeamId==teamId){
    000018FF 58               [ 4] 4327 	ld	e, b
    00001900 16 00            [ 7] 4328 	ld	d, #0x00
    00001902 6B               [ 4] 4329 	ld	l, e
    00001903 62               [ 4] 4330 	ld	h, d
    00001904 29               [11] 4331 	add	hl, hl
    00001905 29               [11] 4332 	add	hl, hl
    00001906 29               [11] 4333 	add	hl, hl
    00001907 29               [11] 4334 	add	hl, hl
    00001908 19               [11] 4335 	add	hl, de
    00001909 11r00r00         [10] 4336 	ld	de, #_g_Players
    0000190C 19               [11] 4337 	add	hl, de
                                   4338 ;	spillPairReg hl
                                   4339 ;	spillPairReg hl
    0000190D 5D               [ 4] 4340 	ld	e, l
    0000190E 54               [ 4] 4341 	ld	d, h
                                   4342 ;	spillPairReg hl
                                   4343 ;	spillPairReg hl
    0000190F C5               [11] 4344 	push	bc
    00001910 01 09 00         [10] 4345 	ld	bc, #0x0009
    00001913 09               [11] 4346 	add	hl, bc
    00001914 C1               [10] 4347 	pop	bc
                                   4348 ;	spillPairReg hl
    00001915 DD 7E FF         [19] 4349 	ld	a,-1 (ix)
    00001918 96               [ 7] 4350 	sub	a,(hl)
    00001919 20 12            [12] 4351 	jr	NZ, 00107$
    0000191B 21 05 00         [10] 4352 	ld	hl, #5
    0000191E 19               [11] 4353 	add	hl, de
    0000191F 5E               [ 7] 4354 	ld	e, (hl)
    00001920 79               [ 4] 4355 	ld	a, c
    00001921 93               [ 4] 4356 	sub	a, e
    00001922 20 09            [12] 4357 	jr	NZ, 00107$
                                   4358 ;E:\Dropbox\FAUSTO\SVILUPPI\MSX\CODE\C\MSXgl\projects\exsoccer/exsoccer_s2_b0.c:795: playerId=i;
    00001924 DD 7E FE         [19] 4359 	ld	a, -2 (ix)
    00001927 DD 77 FD         [19] 4360 	ld	-3 (ix), a
                                   4361 ;E:\Dropbox\FAUSTO\SVILUPPI\MSX\CODE\C\MSXgl\projects\exsoccer/exsoccer_s2_b0.c:796: break;
    0000192A C3r34r19         [10] 4362 	jp	00104$
    0000192D                       4363 00107$:
                                   4364 ;E:\Dropbox\FAUSTO\SVILUPPI\MSX\CODE\C\MSXgl\projects\exsoccer/exsoccer_s2_b0.c:793: for(u8 i=0;i<14;i++){
    0000192D 04               [ 4] 4365 	inc	b
    0000192E DD 70 FE         [19] 4366 	ld	-2 (ix), b
    00001931 C3rFAr18         [10] 4367 	jp	00106$
    00001934                       4368 00104$:
                                   4369 ;E:\Dropbox\FAUSTO\SVILUPPI\MSX\CODE\C\MSXgl\projects\exsoccer/exsoccer_s2_b0.c:799: return playerId;
    00001934 DD 7E FD         [19] 4370 	ld	a, -3 (ix)
                                   4371 ;E:\Dropbox\FAUSTO\SVILUPPI\MSX\CODE\C\MSXgl\projects\exsoccer/exsoccer_s2_b0.c:800: }
    00001937 DD F9            [10] 4372 	ld	sp, ix
    00001939 DD E1            [14] 4373 	pop	ix
    0000193B C9               [10] 4374 	ret
                                   4375 ;E:\Dropbox\FAUSTO\SVILUPPI\MSX\CODE\C\MSXgl\projects\exsoccer/exsoccer_s2_b0.c:801: void PutBallOnPlayerFeet(u8 playerId){
                                   4376 ;	---------------------------------
                                   4377 ; Function PutBallOnPlayerFeet
                                   4378 ; ---------------------------------
    0000193C                       4379 _PutBallOnPlayerFeet::
    0000193C DD E5            [15] 4380 	push	ix
    0000193E DD 21 00 00      [14] 4381 	ld	ix,#0
    00001942 DD 39            [15] 4382 	add	ix,sp
    00001944 21 CB FF         [10] 4383 	ld	hl, #-53
    00001947 39               [11] 4384 	add	hl, sp
    00001948 F9               [ 6] 4385 	ld	sp, hl
    00001949 4F               [ 4] 4386 	ld	c, a
                                   4387 ;E:\Dropbox\FAUSTO\SVILUPPI\MSX\CODE\C\MSXgl\projects\exsoccer/exsoccer_s2_b0.c:802: g_Ball.PossessionPlayerId=playerId;
    0000194A 21r06r00         [10] 4388 	ld	hl, #(_g_Ball + 6)
    0000194D 71               [ 7] 4389 	ld	(hl), c
                                   4390 ;E:\Dropbox\FAUSTO\SVILUPPI\MSX\CODE\C\MSXgl\projects\exsoccer/exsoccer_s2_b0.c:803: g_Ball.LastTouchTeamId=g_Players[playerId].TeamId;
    0000194E 11r00r00         [10] 4391 	ld	de, #_g_Players+0
    00001951 06 00            [ 7] 4392 	ld	b, #0x00
    00001953 69               [ 4] 4393 	ld	l, c
    00001954 60               [ 4] 4394 	ld	h, b
    00001955 29               [11] 4395 	add	hl, hl
    00001956 29               [11] 4396 	add	hl, hl
    00001957 29               [11] 4397 	add	hl, hl
    00001958 29               [11] 4398 	add	hl, hl
    00001959 09               [11] 4399 	add	hl, bc
    0000195A 19               [11] 4400 	add	hl, de
    0000195B DD 75 F9         [19] 4401 	ld	-7 (ix), l
    0000195E DD 74 FA         [19] 4402 	ld	-6 (ix), h
    00001961 11 05 00         [10] 4403 	ld	de, #5
    00001964 19               [11] 4404 	add	hl, de
    00001965 7E               [ 7] 4405 	ld	a, (hl)
    00001966 32r0Er00         [13] 4406 	ld	(#(_g_Ball + 14)),a
                                   4407 ;E:\Dropbox\FAUSTO\SVILUPPI\MSX\CODE\C\MSXgl\projects\exsoccer/exsoccer_s2_b0.c:804: g_Ball.PassTargetPlayerId = NO_VALUE; // Clear any pending pass
    00001969 21r10r00         [10] 4408 	ld	hl, #(_g_Ball + 16)
    0000196C 36 FF            [10] 4409 	ld	(hl), #0xff
                                   4410 ;E:\Dropbox\FAUSTO\SVILUPPI\MSX\CODE\C\MSXgl\projects\exsoccer/exsoccer_s2_b0.c:805: g_Ball.ShotActive = 0; // Clear any pending shot
    0000196E 21r1Br00         [10] 4411 	ld	hl, #(_g_Ball + 27)
    00001971 36 00            [10] 4412 	ld	(hl), #0x00
                                   4413 ;E:\Dropbox\FAUSTO\SVILUPPI\MSX\CODE\C\MSXgl\projects\exsoccer/exsoccer_s2_b0.c:806: SetPlayerBallPossession(g_Ball.PossessionPlayerId);
    00001973 79               [ 4] 4414 	ld	a, c
    00001974 CDr00r00         [17] 4415 	call	_SetPlayerBallPossession
                                   4416 ;E:\Dropbox\FAUSTO\SVILUPPI\MSX\CODE\C\MSXgl\projects\exsoccer/exsoccer_s2_b0.c:810: const u8 BallBaseDistX[] = { 0, 0, 4, 6, 4, 0, 4, 6, 4 };
    00001977 DD 36 CD 00      [19] 4417 	ld	-51 (ix), #0x00
    0000197B DD 36 CE 00      [19] 4418 	ld	-50 (ix), #0x00
    0000197F DD 36 CF 04      [19] 4419 	ld	-49 (ix), #0x04
    00001983 DD 36 D0 06      [19] 4420 	ld	-48 (ix), #0x06
    00001987 DD 36 D1 04      [19] 4421 	ld	-47 (ix), #0x04
    0000198B DD 36 D2 00      [19] 4422 	ld	-46 (ix), #0x00
    0000198F DD 36 D3 04      [19] 4423 	ld	-45 (ix), #0x04
    00001993 DD 36 D4 06      [19] 4424 	ld	-44 (ix), #0x06
    00001997 DD 36 D5 04      [19] 4425 	ld	-43 (ix), #0x04
                                   4426 ;E:\Dropbox\FAUSTO\SVILUPPI\MSX\CODE\C\MSXgl\projects\exsoccer/exsoccer_s2_b0.c:811: const u8 BallBaseDistY[] = { 0, 6, 4, 0, 4, 6, 4, 2, 4 };
    0000199B 21 0B 00         [10] 4427 	ld	hl, #11
    0000199E 39               [11] 4428 	add	hl, sp
    0000199F 4D               [ 4] 4429 	ld	c, l
    000019A0 44               [ 4] 4430 	ld	b, h
    000019A1 AF               [ 4] 4431 	xor	a, a
    000019A2 02               [ 7] 4432 	ld	(bc), a
    000019A3 DD 36 D7 06      [19] 4433 	ld	-41 (ix), #0x06
    000019A7 DD 36 D8 04      [19] 4434 	ld	-40 (ix), #0x04
    000019AB DD 36 D9 00      [19] 4435 	ld	-39 (ix), #0x00
    000019AF DD 36 DA 04      [19] 4436 	ld	-38 (ix), #0x04
    000019B3 DD 36 DB 06      [19] 4437 	ld	-37 (ix), #0x06
    000019B7 DD 36 DC 04      [19] 4438 	ld	-36 (ix), #0x04
    000019BB DD 36 DD 02      [19] 4439 	ld	-35 (ix), #0x02
    000019BF DD 36 DE 04      [19] 4440 	ld	-34 (ix), #0x04
                                   4441 ;E:\Dropbox\FAUSTO\SVILUPPI\MSX\CODE\C\MSXgl\projects\exsoccer/exsoccer_s2_b0.c:813: const u8 DribbleAnimOffsets[] = {5, 4, 2, 0};
    000019C3 DD 36 DF 05      [19] 4442 	ld	-33 (ix), #0x05
    000019C7 DD 36 E0 04      [19] 4443 	ld	-32 (ix), #0x04
    000019CB DD 36 E1 02      [19] 4444 	ld	-31 (ix), #0x02
    000019CF DD 36 E2 00      [19] 4445 	ld	-30 (ix), #0x00
                                   4446 ;E:\Dropbox\FAUSTO\SVILUPPI\MSX\CODE\C\MSXgl\projects\exsoccer/exsoccer_s2_b0.c:814: const u8 DribbleAnimOffsetsDiag[] = {3, 3, 1, 0};
    000019D3 DD 36 E3 03      [19] 4447 	ld	-29 (ix), #0x03
    000019D7 DD 36 E4 03      [19] 4448 	ld	-28 (ix), #0x03
    000019DB DD 36 E5 01      [19] 4449 	ld	-27 (ix), #0x01
    000019DF DD 36 E6 00      [19] 4450 	ld	-26 (ix), #0x00
                                   4451 ;E:\Dropbox\FAUSTO\SVILUPPI\MSX\CODE\C\MSXgl\projects\exsoccer/exsoccer_s2_b0.c:818: const i8 BallAlignCorrectX[] = { 0, 0, 0, 0, 2, 0, -2, 0, 0 };
    000019E3 DD 36 E7 00      [19] 4452 	ld	-25 (ix), #0x00
    000019E7 DD 36 E8 00      [19] 4453 	ld	-24 (ix), #0x00
    000019EB DD 36 E9 00      [19] 4454 	ld	-23 (ix), #0x00
    000019EF DD 36 EA 00      [19] 4455 	ld	-22 (ix), #0x00
    000019F3 DD 36 EB 02      [19] 4456 	ld	-21 (ix), #0x02
    000019F7 DD 36 EC 00      [19] 4457 	ld	-20 (ix), #0x00
    000019FB DD 36 ED FE      [19] 4458 	ld	-19 (ix), #0xfe
    000019FF DD 36 EE 00      [19] 4459 	ld	-18 (ix), #0x00
    00001A03 DD 36 EF 00      [19] 4460 	ld	-17 (ix), #0x00
                                   4461 ;E:\Dropbox\FAUSTO\SVILUPPI\MSX\CODE\C\MSXgl\projects\exsoccer/exsoccer_s2_b0.c:819: const i8 BallAlignCorrectY[] = { 0, 0, 0, 4, 2, 4, 2, 4, 0 };
    00001A07 DD 36 F0 00      [19] 4462 	ld	-16 (ix), #0x00
    00001A0B DD 36 F1 00      [19] 4463 	ld	-15 (ix), #0x00
    00001A0F DD 36 F2 00      [19] 4464 	ld	-14 (ix), #0x00
    00001A13 DD 36 F3 04      [19] 4465 	ld	-13 (ix), #0x04
    00001A17 DD 36 F4 02      [19] 4466 	ld	-12 (ix), #0x02
    00001A1B DD 36 F5 04      [19] 4467 	ld	-11 (ix), #0x04
    00001A1F DD 36 F6 02      [19] 4468 	ld	-10 (ix), #0x02
    00001A23 DD 36 F7 04      [19] 4469 	ld	-9 (ix), #0x04
    00001A27 DD 36 F8 00      [19] 4470 	ld	-8 (ix), #0x00
                                   4471 ;E:\Dropbox\FAUSTO\SVILUPPI\MSX\CODE\C\MSXgl\projects\exsoccer/exsoccer_s2_b0.c:821: u8 dir = g_Players[playerId].Direction;
    00001A2B DD 5E F9         [19] 4472 	ld	e, -7 (ix)
    00001A2E DD 56 FA         [19] 4473 	ld	d, -6 (ix)
    00001A31 21 06 00         [10] 4474 	ld	hl, #6
    00001A34 19               [11] 4475 	add	hl, de
    00001A35 7E               [ 7] 4476 	ld	a, (hl)
                                   4477 ;E:\Dropbox\FAUSTO\SVILUPPI\MSX\CODE\C\MSXgl\projects\exsoccer/exsoccer_s2_b0.c:822: if(dir == DIRECTION_NONE) dir = g_Players[playerId].PreviousDirection; // Fallback se fermo
    00001A36 DD 77 FB         [19] 4478 	ld	-5 (ix), a
    00001A39 B7               [ 4] 4479 	or	a, a
    00001A3A 20 0E            [12] 4480 	jr	NZ, 00102$
    00001A3C DD 5E F9         [19] 4481 	ld	e, -7 (ix)
    00001A3F DD 56 FA         [19] 4482 	ld	d, -6 (ix)
    00001A42 21 07 00         [10] 4483 	ld	hl, #7
    00001A45 19               [11] 4484 	add	hl, de
    00001A46 7E               [ 7] 4485 	ld	a, (hl)
    00001A47 DD 77 FB         [19] 4486 	ld	-5 (ix), a
    00001A4A                       4487 00102$:
                                   4488 ;E:\Dropbox\FAUSTO\SVILUPPI\MSX\CODE\C\MSXgl\projects\exsoccer/exsoccer_s2_b0.c:825: u8 animStep = g_Ball.KickMoveState;
    00001A4A 21r0Dr00         [10] 4489 	ld	hl, #_g_Ball + 13
    00001A4D 5E               [ 7] 4490 	ld	e, (hl)
                                   4491 ;E:\Dropbox\FAUSTO\SVILUPPI\MSX\CODE\C\MSXgl\projects\exsoccer/exsoccer_s2_b0.c:826: if (animStep > 3) animStep = 3; // Default/Reset to 3 (Close) if NO_VALUE (255)
    00001A4E 3E 03            [ 7] 4492 	ld	a, #0x03
    00001A50 93               [ 4] 4493 	sub	a, e
    00001A51 30 02            [12] 4494 	jr	NC, 00104$
    00001A53 1E 03            [ 7] 4495 	ld	e, #0x03
    00001A55                       4496 00104$:
                                   4497 ;E:\Dropbox\FAUSTO\SVILUPPI\MSX\CODE\C\MSXgl\projects\exsoccer/exsoccer_s2_b0.c:828: u8 currentOffset = DribbleAnimOffsets[animStep];
    00001A55 D5               [11] 4498 	push	de
    00001A56 16 00            [ 7] 4499 	ld	d, #0x00
    00001A58 21 16 00         [10] 4500 	ld	hl, #22
    00001A5B 39               [11] 4501 	add	hl, sp
    00001A5C 19               [11] 4502 	add	hl, de
    00001A5D D1               [10] 4503 	pop	de
    00001A5E 7E               [ 7] 4504 	ld	a, (hl)
    00001A5F DD 77 FC         [19] 4505 	ld	-4 (ix), a
                                   4506 ;E:\Dropbox\FAUSTO\SVILUPPI\MSX\CODE\C\MSXgl\projects\exsoccer/exsoccer_s2_b0.c:829: u8 currentOffsetDiag = DribbleAnimOffsetsDiag[animStep];
    00001A62 16 00            [ 7] 4507 	ld	d, #0x00
    00001A64 21 18 00         [10] 4508 	ld	hl, #24
    00001A67 39               [11] 4509 	add	hl, sp
    00001A68 19               [11] 4510 	add	hl, de
    00001A69 7E               [ 7] 4511 	ld	a, (hl)
    00001A6A DD 77 FF         [19] 4512 	ld	-1 (ix), a
                                   4513 ;E:\Dropbox\FAUSTO\SVILUPPI\MSX\CODE\C\MSXgl\projects\exsoccer/exsoccer_s2_b0.c:831: u8 distX = BallBaseDistX[dir] + ((dir==DIRECTION_UP || dir==DIRECTION_DOWN) ? 0 : (dir == DIRECTION_LEFT || dir == DIRECTION_RIGHT ? currentOffset : currentOffsetDiag));
    00001A6D DD 5E FB         [19] 4514 	ld	e, -5 (ix)
    00001A70 16 00            [ 7] 4515 	ld	d, #0x00
    00001A72 21 02 00         [10] 4516 	ld	hl, #2
    00001A75 39               [11] 4517 	add	hl, sp
    00001A76 19               [11] 4518 	add	hl, de
    00001A77 6E               [ 7] 4519 	ld	l, (hl)
                                   4520 ;	spillPairReg hl
    00001A78 DD 7E FB         [19] 4521 	ld	a, -5 (ix)
    00001A7B 3D               [ 4] 4522 	dec	a
    00001A7C 3E 01            [ 7] 4523 	ld	a, #0x01
    00001A7E 28 01            [12] 4524 	jr	Z, 00176$
    00001A80 AF               [ 4] 4525 	xor	a, a
    00001A81                       4526 00176$:
    00001A81 DD 77 CC         [19] 4527 	ld	-52 (ix), a
    00001A84 DD 7E FB         [19] 4528 	ld	a, -5 (ix)
    00001A87 D6 07            [ 7] 4529 	sub	a, #0x07
    00001A89 3E 01            [ 7] 4530 	ld	a, #0x01
    00001A8B 28 01            [12] 4531 	jr	Z, 00178$
    00001A8D AF               [ 4] 4532 	xor	a, a
    00001A8E                       4533 00178$:
    00001A8E 5F               [ 4] 4534 	ld	e, a
    00001A8F DD CB CC 46      [20] 4535 	bit	0, -52 (ix)
    00001A93 20 07            [12] 4536 	jr	NZ, 00119$
    00001A95 DD 7E FB         [19] 4537 	ld	a, -5 (ix)
    00001A98 D6 05            [ 7] 4538 	sub	a, #0x05
    00001A9A 20 04            [12] 4539 	jr	NZ, 00116$
    00001A9C                       4540 00119$:
    00001A9C AF               [ 4] 4541 	xor	a, a
    00001A9D C3rB4r1A         [10] 4542 	jp	00117$
    00001AA0                       4543 00116$:
    00001AA0 CB 43            [ 8] 4544 	bit	0, e
    00001AA2 20 07            [12] 4545 	jr	NZ, 00124$
    00001AA4 DD 7E FB         [19] 4546 	ld	a, -5 (ix)
    00001AA7 D6 03            [ 7] 4547 	sub	a, #0x03
    00001AA9 20 06            [12] 4548 	jr	NZ, 00121$
    00001AAB                       4549 00124$:
    00001AAB DD 7E FC         [19] 4550 	ld	a, -4 (ix)
    00001AAE C3rB4r1A         [10] 4551 	jp	00122$
    00001AB1                       4552 00121$:
    00001AB1 DD 7E FF         [19] 4553 	ld	a, -1 (ix)
    00001AB4                       4554 00122$:
    00001AB4                       4555 00117$:
    00001AB4 85               [ 4] 4556 	add	a, l
    00001AB5 DD 77 FD         [19] 4557 	ld	-3 (ix), a
                                   4558 ;E:\Dropbox\FAUSTO\SVILUPPI\MSX\CODE\C\MSXgl\projects\exsoccer/exsoccer_s2_b0.c:832: u8 distY = BallBaseDistY[dir] + ((dir==DIRECTION_LEFT || dir==DIRECTION_RIGHT) ? 0 : (dir == DIRECTION_UP || dir == DIRECTION_DOWN ? currentOffset : currentOffsetDiag));
    00001AB8 DD 6E FB         [19] 4559 	ld	l, -5 (ix)
    00001ABB 26 00            [ 7] 4560 	ld	h, #0x00
    00001ABD 09               [11] 4561 	add	hl, bc
    00001ABE 7E               [ 7] 4562 	ld	a, (hl)
    00001ABF DD 77 FE         [19] 4563 	ld	-2 (ix), a
    00001AC2 CB 43            [ 8] 4564 	bit	0, e
    00001AC4 20 07            [12] 4565 	jr	NZ, 00129$
    00001AC6 DD 7E FB         [19] 4566 	ld	a, -5 (ix)
    00001AC9 D6 03            [ 7] 4567 	sub	a, #0x03
    00001ACB 20 07            [12] 4568 	jr	NZ, 00126$
    00001ACD                       4569 00129$:
    00001ACD 21 00 00         [10] 4570 	ld	hl, #0x0000
    00001AD0 E3               [19] 4571 	ex	(sp), hl
    00001AD1 C3rF1r1A         [10] 4572 	jp	00127$
    00001AD4                       4573 00126$:
    00001AD4 DD CB CC 46      [20] 4574 	bit	0, -52 (ix)
    00001AD8 20 07            [12] 4575 	jr	NZ, 00134$
    00001ADA DD 7E FB         [19] 4576 	ld	a, -5 (ix)
    00001ADD D6 05            [ 7] 4577 	sub	a, #0x05
    00001ADF 20 06            [12] 4578 	jr	NZ, 00131$
    00001AE1                       4579 00134$:
    00001AE1 DD 7E FC         [19] 4580 	ld	a, -4 (ix)
    00001AE4 DD 77 FF         [19] 4581 	ld	-1 (ix), a
    00001AE7                       4582 00131$:
    00001AE7 DD 7E FF         [19] 4583 	ld	a, -1 (ix)
    00001AEA DD 77 CB         [19] 4584 	ld	-53 (ix), a
    00001AED DD 36 CC 00      [19] 4585 	ld	-52 (ix), #0x00
    00001AF1                       4586 00127$:
    00001AF1 DD 7E CB         [19] 4587 	ld	a, -53 (ix)
    00001AF4 DD 4E FE         [19] 4588 	ld	c, -2 (ix)
    00001AF7 81               [ 4] 4589 	add	a, c
    00001AF8 4F               [ 4] 4590 	ld	c, a
                                   4591 ;E:\Dropbox\FAUSTO\SVILUPPI\MSX\CODE\C\MSXgl\projects\exsoccer/exsoccer_s2_b0.c:834: switch (dir){
    00001AF9 3E 08            [ 7] 4592 	ld	a, #0x08
    00001AFB DD 96 FB         [19] 4593 	sub	a, -5 (ix)
    00001AFE DAr94r1D         [10] 4594 	jp	C, 00113$
    00001B01 DD 5E FB         [19] 4595 	ld	e, -5 (ix)
    00001B04 16 00            [ 7] 4596 	ld	d, #0x00
    00001B06 21r0Dr1B         [10] 4597 	ld	hl, #00187$
    00001B09 19               [11] 4598 	add	hl, de
    00001B0A 19               [11] 4599 	add	hl, de
    00001B0B 19               [11] 4600 	add	hl, de
    00001B0C E9               [ 4] 4601 	jp	(hl)
    00001B0D                       4602 00187$:
    00001B0D C3r94r1D         [10] 4603 	jp	00113$
    00001B10 C3r28r1B         [10] 4604 	jp	00105$
    00001B13 C3rA5r1C         [10] 4605 	jp	00110$
    00001B16 C3r08r1C         [10] 4606 	jp	00108$
    00001B19 C3r48r1D         [10] 4607 	jp	00112$
    00001B1C C3r73r1B         [10] 4608 	jp	00106$
    00001B1F C3rF6r1C         [10] 4609 	jp	00111$
    00001B22 C3rBCr1B         [10] 4610 	jp	00107$
    00001B25 C3r51r1C         [10] 4611 	jp	00109$
                                   4612 ;E:\Dropbox\FAUSTO\SVILUPPI\MSX\CODE\C\MSXgl\projects\exsoccer/exsoccer_s2_b0.c:835: case DIRECTION_UP:
    00001B28                       4613 00105$:
                                   4614 ;E:\Dropbox\FAUSTO\SVILUPPI\MSX\CODE\C\MSXgl\projects\exsoccer/exsoccer_s2_b0.c:836: g_Ball.X=g_Players[playerId].X + BallAlignCorrectX[dir];
    00001B28 DD 6E F9         [19] 4615 	ld	l, -7 (ix)
                                   4616 ;	spillPairReg hl
                                   4617 ;	spillPairReg hl
    00001B2B DD 66 FA         [19] 4618 	ld	h, -6 (ix)
                                   4619 ;	spillPairReg hl
                                   4620 ;	spillPairReg hl
    00001B2E 23               [ 6] 4621 	inc	hl
    00001B2F 23               [ 6] 4622 	inc	hl
    00001B30 5E               [ 7] 4623 	ld	e, (hl)
    00001B31 23               [ 6] 4624 	inc	hl
    00001B32 56               [ 7] 4625 	ld	d, (hl)
    00001B33 D5               [11] 4626 	push	de
    00001B34 DD 5E FB         [19] 4627 	ld	e, -5 (ix)
    00001B37 16 00            [ 7] 4628 	ld	d, #0x00
    00001B39 21 1E 00         [10] 4629 	ld	hl, #30
    00001B3C 39               [11] 4630 	add	hl, sp
    00001B3D 19               [11] 4631 	add	hl, de
    00001B3E D1               [10] 4632 	pop	de
    00001B3F 7E               [ 7] 4633 	ld	a, (hl)
    00001B40 6F               [ 4] 4634 	ld	l, a
                                   4635 ;	spillPairReg hl
                                   4636 ;	spillPairReg hl
    00001B41 07               [ 4] 4637 	rlca
    00001B42 9F               [ 4] 4638 	sbc	a, a
    00001B43 67               [ 4] 4639 	ld	h, a
                                   4640 ;	spillPairReg hl
                                   4641 ;	spillPairReg hl
    00001B44 19               [11] 4642 	add	hl, de
    00001B45 EB               [ 4] 4643 	ex	de, hl
    00001B46 ED 53r02r00      [20] 4644 	ld	((_g_Ball + 2)), de
                                   4645 ;E:\Dropbox\FAUSTO\SVILUPPI\MSX\CODE\C\MSXgl\projects\exsoccer/exsoccer_s2_b0.c:837: g_Ball.Y=g_Players[playerId].Y - distY + BallAlignCorrectY[dir];
    00001B4A DD 6E F9         [19] 4646 	ld	l, -7 (ix)
    00001B4D DD 66 FA         [19] 4647 	ld	h, -6 (ix)
    00001B50 5E               [ 7] 4648 	ld	e, (hl)
    00001B51 23               [ 6] 4649 	inc	hl
    00001B52 56               [ 7] 4650 	ld	d, (hl)
    00001B53 06 00            [ 7] 4651 	ld	b, #0x00
    00001B55 7B               [ 4] 4652 	ld	a, e
    00001B56 91               [ 4] 4653 	sub	a, c
    00001B57 4F               [ 4] 4654 	ld	c, a
    00001B58 7A               [ 4] 4655 	ld	a, d
    00001B59 98               [ 4] 4656 	sbc	a, b
    00001B5A 47               [ 4] 4657 	ld	b, a
    00001B5B DD 5E FB         [19] 4658 	ld	e, -5 (ix)
    00001B5E 16 00            [ 7] 4659 	ld	d, #0x00
    00001B60 21 25 00         [10] 4660 	ld	hl, #37
    00001B63 39               [11] 4661 	add	hl, sp
    00001B64 19               [11] 4662 	add	hl, de
    00001B65 7E               [ 7] 4663 	ld	a, (hl)
    00001B66 6F               [ 4] 4664 	ld	l, a
                                   4665 ;	spillPairReg hl
                                   4666 ;	spillPairReg hl
    00001B67 07               [ 4] 4667 	rlca
    00001B68 9F               [ 4] 4668 	sbc	a, a
    00001B69 67               [ 4] 4669 	ld	h, a
                                   4670 ;	spillPairReg hl
                                   4671 ;	spillPairReg hl
    00001B6A 09               [11] 4672 	add	hl, bc
    00001B6B EB               [ 4] 4673 	ex	de, hl
    00001B6C ED 53r00r00      [20] 4674 	ld	(_g_Ball), de
                                   4675 ;E:\Dropbox\FAUSTO\SVILUPPI\MSX\CODE\C\MSXgl\projects\exsoccer/exsoccer_s2_b0.c:838: break;
    00001B70 C3r94r1D         [10] 4676 	jp	00113$
                                   4677 ;E:\Dropbox\FAUSTO\SVILUPPI\MSX\CODE\C\MSXgl\projects\exsoccer/exsoccer_s2_b0.c:839: case DIRECTION_DOWN:
    00001B73                       4678 00106$:
                                   4679 ;E:\Dropbox\FAUSTO\SVILUPPI\MSX\CODE\C\MSXgl\projects\exsoccer/exsoccer_s2_b0.c:840: g_Ball.X=g_Players[playerId].X + BallAlignCorrectX[dir];
    00001B73 DD 6E F9         [19] 4680 	ld	l, -7 (ix)
                                   4681 ;	spillPairReg hl
                                   4682 ;	spillPairReg hl
    00001B76 DD 66 FA         [19] 4683 	ld	h, -6 (ix)
                                   4684 ;	spillPairReg hl
                                   4685 ;	spillPairReg hl
    00001B79 23               [ 6] 4686 	inc	hl
    00001B7A 23               [ 6] 4687 	inc	hl
    00001B7B 5E               [ 7] 4688 	ld	e, (hl)
    00001B7C 23               [ 6] 4689 	inc	hl
    00001B7D 56               [ 7] 4690 	ld	d, (hl)
    00001B7E D5               [11] 4691 	push	de
    00001B7F DD 5E FB         [19] 4692 	ld	e, -5 (ix)
    00001B82 16 00            [ 7] 4693 	ld	d, #0x00
    00001B84 21 1E 00         [10] 4694 	ld	hl, #30
    00001B87 39               [11] 4695 	add	hl, sp
    00001B88 19               [11] 4696 	add	hl, de
    00001B89 D1               [10] 4697 	pop	de
    00001B8A 7E               [ 7] 4698 	ld	a, (hl)
    00001B8B 6F               [ 4] 4699 	ld	l, a
                                   4700 ;	spillPairReg hl
                                   4701 ;	spillPairReg hl
    00001B8C 07               [ 4] 4702 	rlca
    00001B8D 9F               [ 4] 4703 	sbc	a, a
    00001B8E 67               [ 4] 4704 	ld	h, a
                                   4705 ;	spillPairReg hl
                                   4706 ;	spillPairReg hl
    00001B8F 19               [11] 4707 	add	hl, de
    00001B90 EB               [ 4] 4708 	ex	de, hl
    00001B91 ED 53r02r00      [20] 4709 	ld	((_g_Ball + 2)), de
                                   4710 ;E:\Dropbox\FAUSTO\SVILUPPI\MSX\CODE\C\MSXgl\projects\exsoccer/exsoccer_s2_b0.c:841: g_Ball.Y=g_Players[playerId].Y + distY + BallAlignCorrectY[dir];
    00001B95 DD 6E F9         [19] 4711 	ld	l, -7 (ix)
    00001B98 DD 66 FA         [19] 4712 	ld	h, -6 (ix)
    00001B9B 5E               [ 7] 4713 	ld	e, (hl)
    00001B9C 23               [ 6] 4714 	inc	hl
    00001B9D 56               [ 7] 4715 	ld	d, (hl)
    00001B9E 06 00            [ 7] 4716 	ld	b, #0x00
    00001BA0 EB               [ 4] 4717 	ex	de, hl
    00001BA1 09               [11] 4718 	add	hl, bc
    00001BA2 4D               [ 4] 4719 	ld	c, l
    00001BA3 44               [ 4] 4720 	ld	b, h
    00001BA4 DD 5E FB         [19] 4721 	ld	e, -5 (ix)
    00001BA7 16 00            [ 7] 4722 	ld	d, #0x00
    00001BA9 21 25 00         [10] 4723 	ld	hl, #37
    00001BAC 39               [11] 4724 	add	hl, sp
    00001BAD 19               [11] 4725 	add	hl, de
    00001BAE 7E               [ 7] 4726 	ld	a, (hl)
    00001BAF 6F               [ 4] 4727 	ld	l, a
                                   4728 ;	spillPairReg hl
                                   4729 ;	spillPairReg hl
    00001BB0 07               [ 4] 4730 	rlca
    00001BB1 9F               [ 4] 4731 	sbc	a, a
    00001BB2 67               [ 4] 4732 	ld	h, a
                                   4733 ;	spillPairReg hl
                                   4734 ;	spillPairReg hl
    00001BB3 09               [11] 4735 	add	hl, bc
    00001BB4 EB               [ 4] 4736 	ex	de, hl
    00001BB5 ED 53r00r00      [20] 4737 	ld	(_g_Ball), de
                                   4738 ;E:\Dropbox\FAUSTO\SVILUPPI\MSX\CODE\C\MSXgl\projects\exsoccer/exsoccer_s2_b0.c:842: break;
    00001BB9 C3r94r1D         [10] 4739 	jp	00113$
                                   4740 ;E:\Dropbox\FAUSTO\SVILUPPI\MSX\CODE\C\MSXgl\projects\exsoccer/exsoccer_s2_b0.c:843: case DIRECTION_LEFT:
    00001BBC                       4741 00107$:
                                   4742 ;E:\Dropbox\FAUSTO\SVILUPPI\MSX\CODE\C\MSXgl\projects\exsoccer/exsoccer_s2_b0.c:844: g_Ball.X=g_Players[playerId].X - distX + BallAlignCorrectX[dir];
    00001BBC DD 6E F9         [19] 4743 	ld	l, -7 (ix)
                                   4744 ;	spillPairReg hl
                                   4745 ;	spillPairReg hl
    00001BBF DD 66 FA         [19] 4746 	ld	h, -6 (ix)
                                   4747 ;	spillPairReg hl
                                   4748 ;	spillPairReg hl
    00001BC2 23               [ 6] 4749 	inc	hl
    00001BC3 23               [ 6] 4750 	inc	hl
    00001BC4 4E               [ 7] 4751 	ld	c, (hl)
    00001BC5 23               [ 6] 4752 	inc	hl
    00001BC6 46               [ 7] 4753 	ld	b, (hl)
    00001BC7 DD 5E FD         [19] 4754 	ld	e, -3 (ix)
    00001BCA 16 00            [ 7] 4755 	ld	d, #0x00
    00001BCC 79               [ 4] 4756 	ld	a, c
    00001BCD 93               [ 4] 4757 	sub	a, e
    00001BCE 4F               [ 4] 4758 	ld	c, a
    00001BCF 78               [ 4] 4759 	ld	a, b
    00001BD0 9A               [ 4] 4760 	sbc	a, d
    00001BD1 47               [ 4] 4761 	ld	b, a
    00001BD2 DD 5E FB         [19] 4762 	ld	e, -5 (ix)
    00001BD5 16 00            [ 7] 4763 	ld	d, #0x00
    00001BD7 21 1C 00         [10] 4764 	ld	hl, #28
    00001BDA 39               [11] 4765 	add	hl, sp
    00001BDB 19               [11] 4766 	add	hl, de
    00001BDC 7E               [ 7] 4767 	ld	a, (hl)
    00001BDD 6F               [ 4] 4768 	ld	l, a
                                   4769 ;	spillPairReg hl
                                   4770 ;	spillPairReg hl
    00001BDE 07               [ 4] 4771 	rlca
    00001BDF 9F               [ 4] 4772 	sbc	a, a
    00001BE0 67               [ 4] 4773 	ld	h, a
                                   4774 ;	spillPairReg hl
                                   4775 ;	spillPairReg hl
    00001BE1 09               [11] 4776 	add	hl, bc
    00001BE2 EB               [ 4] 4777 	ex	de, hl
    00001BE3 ED 53r02r00      [20] 4778 	ld	((_g_Ball + 2)), de
                                   4779 ;E:\Dropbox\FAUSTO\SVILUPPI\MSX\CODE\C\MSXgl\projects\exsoccer/exsoccer_s2_b0.c:845: g_Ball.Y=g_Players[playerId].Y + BallAlignCorrectY[dir];
    00001BE7 DD 6E F9         [19] 4780 	ld	l, -7 (ix)
    00001BEA DD 66 FA         [19] 4781 	ld	h, -6 (ix)
    00001BED 4E               [ 7] 4782 	ld	c, (hl)
    00001BEE 23               [ 6] 4783 	inc	hl
    00001BEF 46               [ 7] 4784 	ld	b, (hl)
    00001BF0 DD 5E FB         [19] 4785 	ld	e, -5 (ix)
    00001BF3 16 00            [ 7] 4786 	ld	d, #0x00
    00001BF5 21 25 00         [10] 4787 	ld	hl, #37
    00001BF8 39               [11] 4788 	add	hl, sp
    00001BF9 19               [11] 4789 	add	hl, de
    00001BFA 7E               [ 7] 4790 	ld	a, (hl)
    00001BFB 6F               [ 4] 4791 	ld	l, a
                                   4792 ;	spillPairReg hl
                                   4793 ;	spillPairReg hl
    00001BFC 07               [ 4] 4794 	rlca
    00001BFD 9F               [ 4] 4795 	sbc	a, a
    00001BFE 67               [ 4] 4796 	ld	h, a
                                   4797 ;	spillPairReg hl
                                   4798 ;	spillPairReg hl
    00001BFF 09               [11] 4799 	add	hl, bc
    00001C00 EB               [ 4] 4800 	ex	de, hl
    00001C01 ED 53r00r00      [20] 4801 	ld	(_g_Ball), de
                                   4802 ;E:\Dropbox\FAUSTO\SVILUPPI\MSX\CODE\C\MSXgl\projects\exsoccer/exsoccer_s2_b0.c:846: break;
    00001C05 C3r94r1D         [10] 4803 	jp	00113$
                                   4804 ;E:\Dropbox\FAUSTO\SVILUPPI\MSX\CODE\C\MSXgl\projects\exsoccer/exsoccer_s2_b0.c:847: case DIRECTION_RIGHT:
    00001C08                       4805 00108$:
                                   4806 ;E:\Dropbox\FAUSTO\SVILUPPI\MSX\CODE\C\MSXgl\projects\exsoccer/exsoccer_s2_b0.c:848: g_Ball.X=g_Players[playerId].X + distX + BallAlignCorrectX[dir];
    00001C08 DD 6E F9         [19] 4807 	ld	l, -7 (ix)
                                   4808 ;	spillPairReg hl
                                   4809 ;	spillPairReg hl
    00001C0B DD 66 FA         [19] 4810 	ld	h, -6 (ix)
                                   4811 ;	spillPairReg hl
                                   4812 ;	spillPairReg hl
    00001C0E 23               [ 6] 4813 	inc	hl
    00001C0F 23               [ 6] 4814 	inc	hl
    00001C10 4E               [ 7] 4815 	ld	c, (hl)
    00001C11 23               [ 6] 4816 	inc	hl
    00001C12 46               [ 7] 4817 	ld	b, (hl)
    00001C13 DD 6E FD         [19] 4818 	ld	l, -3 (ix)
                                   4819 ;	spillPairReg hl
                                   4820 ;	spillPairReg hl
    00001C16 26 00            [ 7] 4821 	ld	h, #0x00
                                   4822 ;	spillPairReg hl
                                   4823 ;	spillPairReg hl
    00001C18 09               [11] 4824 	add	hl, bc
    00001C19 4D               [ 4] 4825 	ld	c, l
    00001C1A 44               [ 4] 4826 	ld	b, h
    00001C1B DD 5E FB         [19] 4827 	ld	e, -5 (ix)
    00001C1E 16 00            [ 7] 4828 	ld	d, #0x00
    00001C20 21 1C 00         [10] 4829 	ld	hl, #28
    00001C23 39               [11] 4830 	add	hl, sp
    00001C24 19               [11] 4831 	add	hl, de
    00001C25 7E               [ 7] 4832 	ld	a, (hl)
    00001C26 6F               [ 4] 4833 	ld	l, a
                                   4834 ;	spillPairReg hl
                                   4835 ;	spillPairReg hl
    00001C27 07               [ 4] 4836 	rlca
    00001C28 9F               [ 4] 4837 	sbc	a, a
    00001C29 67               [ 4] 4838 	ld	h, a
                                   4839 ;	spillPairReg hl
                                   4840 ;	spillPairReg hl
    00001C2A 09               [11] 4841 	add	hl, bc
    00001C2B EB               [ 4] 4842 	ex	de, hl
    00001C2C ED 53r02r00      [20] 4843 	ld	((_g_Ball + 2)), de
                                   4844 ;E:\Dropbox\FAUSTO\SVILUPPI\MSX\CODE\C\MSXgl\projects\exsoccer/exsoccer_s2_b0.c:849: g_Ball.Y=g_Players[playerId].Y + BallAlignCorrectY[dir];
    00001C30 DD 6E F9         [19] 4845 	ld	l, -7 (ix)
    00001C33 DD 66 FA         [19] 4846 	ld	h, -6 (ix)
    00001C36 4E               [ 7] 4847 	ld	c, (hl)
    00001C37 23               [ 6] 4848 	inc	hl
    00001C38 46               [ 7] 4849 	ld	b, (hl)
    00001C39 DD 5E FB         [19] 4850 	ld	e, -5 (ix)
    00001C3C 16 00            [ 7] 4851 	ld	d, #0x00
    00001C3E 21 25 00         [10] 4852 	ld	hl, #37
    00001C41 39               [11] 4853 	add	hl, sp
    00001C42 19               [11] 4854 	add	hl, de
    00001C43 7E               [ 7] 4855 	ld	a, (hl)
    00001C44 6F               [ 4] 4856 	ld	l, a
                                   4857 ;	spillPairReg hl
                                   4858 ;	spillPairReg hl
    00001C45 07               [ 4] 4859 	rlca
    00001C46 9F               [ 4] 4860 	sbc	a, a
    00001C47 67               [ 4] 4861 	ld	h, a
                                   4862 ;	spillPairReg hl
                                   4863 ;	spillPairReg hl
    00001C48 09               [11] 4864 	add	hl, bc
    00001C49 EB               [ 4] 4865 	ex	de, hl
    00001C4A ED 53r00r00      [20] 4866 	ld	(_g_Ball), de
                                   4867 ;E:\Dropbox\FAUSTO\SVILUPPI\MSX\CODE\C\MSXgl\projects\exsoccer/exsoccer_s2_b0.c:850: break;
    00001C4E C3r94r1D         [10] 4868 	jp	00113$
                                   4869 ;E:\Dropbox\FAUSTO\SVILUPPI\MSX\CODE\C\MSXgl\projects\exsoccer/exsoccer_s2_b0.c:851: case DIRECTION_UP_LEFT:
    00001C51                       4870 00109$:
                                   4871 ;E:\Dropbox\FAUSTO\SVILUPPI\MSX\CODE\C\MSXgl\projects\exsoccer/exsoccer_s2_b0.c:852: g_Ball.X=g_Players[playerId].X - distX + BallAlignCorrectX[dir];
    00001C51 DD 6E F9         [19] 4872 	ld	l, -7 (ix)
                                   4873 ;	spillPairReg hl
                                   4874 ;	spillPairReg hl
    00001C54 DD 66 FA         [19] 4875 	ld	h, -6 (ix)
                                   4876 ;	spillPairReg hl
                                   4877 ;	spillPairReg hl
    00001C57 23               [ 6] 4878 	inc	hl
    00001C58 23               [ 6] 4879 	inc	hl
    00001C59 7E               [ 7] 4880 	ld	a, (hl)
    00001C5A 23               [ 6] 4881 	inc	hl
    00001C5B 66               [ 7] 4882 	ld	h, (hl)
                                   4883 ;	spillPairReg hl
    00001C5C 6F               [ 4] 4884 	ld	l, a
                                   4885 ;	spillPairReg hl
                                   4886 ;	spillPairReg hl
    00001C5D DD 5E FD         [19] 4887 	ld	e, -3 (ix)
    00001C60 16 00            [ 7] 4888 	ld	d, #0x00
    00001C62 BF               [ 4] 4889 	cp	a, a
    00001C63 ED 52            [15] 4890 	sbc	hl, de
    00001C65 E5               [11] 4891 	push	hl
    00001C66 DD 5E FB         [19] 4892 	ld	e, -5 (ix)
    00001C69 16 00            [ 7] 4893 	ld	d, #0x00
    00001C6B 21 1E 00         [10] 4894 	ld	hl, #30
    00001C6E 39               [11] 4895 	add	hl, sp
    00001C6F 19               [11] 4896 	add	hl, de
    00001C70 D1               [10] 4897 	pop	de
    00001C71 7E               [ 7] 4898 	ld	a, (hl)
    00001C72 6F               [ 4] 4899 	ld	l, a
                                   4900 ;	spillPairReg hl
                                   4901 ;	spillPairReg hl
    00001C73 07               [ 4] 4902 	rlca
    00001C74 9F               [ 4] 4903 	sbc	a, a
    00001C75 67               [ 4] 4904 	ld	h, a
                                   4905 ;	spillPairReg hl
                                   4906 ;	spillPairReg hl
    00001C76 19               [11] 4907 	add	hl, de
    00001C77 EB               [ 4] 4908 	ex	de, hl
    00001C78 ED 53r02r00      [20] 4909 	ld	((_g_Ball + 2)), de
                                   4910 ;E:\Dropbox\FAUSTO\SVILUPPI\MSX\CODE\C\MSXgl\projects\exsoccer/exsoccer_s2_b0.c:853: g_Ball.Y=g_Players[playerId].Y - distY + BallAlignCorrectY[dir];
    00001C7C DD 6E F9         [19] 4911 	ld	l, -7 (ix)
    00001C7F DD 66 FA         [19] 4912 	ld	h, -6 (ix)
    00001C82 5E               [ 7] 4913 	ld	e, (hl)
    00001C83 23               [ 6] 4914 	inc	hl
    00001C84 56               [ 7] 4915 	ld	d, (hl)
    00001C85 06 00            [ 7] 4916 	ld	b, #0x00
    00001C87 7B               [ 4] 4917 	ld	a, e
    00001C88 91               [ 4] 4918 	sub	a, c
    00001C89 4F               [ 4] 4919 	ld	c, a
    00001C8A 7A               [ 4] 4920 	ld	a, d
    00001C8B 98               [ 4] 4921 	sbc	a, b
    00001C8C 47               [ 4] 4922 	ld	b, a
    00001C8D DD 5E FB         [19] 4923 	ld	e, -5 (ix)
    00001C90 16 00            [ 7] 4924 	ld	d, #0x00
    00001C92 21 25 00         [10] 4925 	ld	hl, #37
    00001C95 39               [11] 4926 	add	hl, sp
    00001C96 19               [11] 4927 	add	hl, de
    00001C97 7E               [ 7] 4928 	ld	a, (hl)
    00001C98 6F               [ 4] 4929 	ld	l, a
                                   4930 ;	spillPairReg hl
                                   4931 ;	spillPairReg hl
    00001C99 07               [ 4] 4932 	rlca
    00001C9A 9F               [ 4] 4933 	sbc	a, a
    00001C9B 67               [ 4] 4934 	ld	h, a
                                   4935 ;	spillPairReg hl
                                   4936 ;	spillPairReg hl
    00001C9C 09               [11] 4937 	add	hl, bc
    00001C9D EB               [ 4] 4938 	ex	de, hl
    00001C9E ED 53r00r00      [20] 4939 	ld	(_g_Ball), de
                                   4940 ;E:\Dropbox\FAUSTO\SVILUPPI\MSX\CODE\C\MSXgl\projects\exsoccer/exsoccer_s2_b0.c:854: break;
    00001CA2 C3r94r1D         [10] 4941 	jp	00113$
                                   4942 ;E:\Dropbox\FAUSTO\SVILUPPI\MSX\CODE\C\MSXgl\projects\exsoccer/exsoccer_s2_b0.c:855: case DIRECTION_UP_RIGHT:
    00001CA5                       4943 00110$:
                                   4944 ;E:\Dropbox\FAUSTO\SVILUPPI\MSX\CODE\C\MSXgl\projects\exsoccer/exsoccer_s2_b0.c:856: g_Ball.X=g_Players[playerId].X + distX + BallAlignCorrectX[dir];
    00001CA5 DD 6E F9         [19] 4945 	ld	l, -7 (ix)
                                   4946 ;	spillPairReg hl
                                   4947 ;	spillPairReg hl
    00001CA8 DD 66 FA         [19] 4948 	ld	h, -6 (ix)
                                   4949 ;	spillPairReg hl
                                   4950 ;	spillPairReg hl
    00001CAB 23               [ 6] 4951 	inc	hl
    00001CAC 23               [ 6] 4952 	inc	hl
    00001CAD 5E               [ 7] 4953 	ld	e, (hl)
    00001CAE 23               [ 6] 4954 	inc	hl
    00001CAF 56               [ 7] 4955 	ld	d, (hl)
    00001CB0 DD 6E FD         [19] 4956 	ld	l, -3 (ix)
                                   4957 ;	spillPairReg hl
                                   4958 ;	spillPairReg hl
    00001CB3 26 00            [ 7] 4959 	ld	h, #0x00
                                   4960 ;	spillPairReg hl
                                   4961 ;	spillPairReg hl
    00001CB5 19               [11] 4962 	add	hl, de
    00001CB6 E5               [11] 4963 	push	hl
    00001CB7 DD 5E FB         [19] 4964 	ld	e, -5 (ix)
    00001CBA 16 00            [ 7] 4965 	ld	d, #0x00
    00001CBC 21 1E 00         [10] 4966 	ld	hl, #30
    00001CBF 39               [11] 4967 	add	hl, sp
    00001CC0 19               [11] 4968 	add	hl, de
    00001CC1 D1               [10] 4969 	pop	de
    00001CC2 7E               [ 7] 4970 	ld	a, (hl)
    00001CC3 6F               [ 4] 4971 	ld	l, a
                                   4972 ;	spillPairReg hl
                                   4973 ;	spillPairReg hl
    00001CC4 07               [ 4] 4974 	rlca
    00001CC5 9F               [ 4] 4975 	sbc	a, a
    00001CC6 67               [ 4] 4976 	ld	h, a
                                   4977 ;	spillPairReg hl
                                   4978 ;	spillPairReg hl
    00001CC7 19               [11] 4979 	add	hl, de
    00001CC8 EB               [ 4] 4980 	ex	de, hl
    00001CC9 ED 53r02r00      [20] 4981 	ld	((_g_Ball + 2)), de
                                   4982 ;E:\Dropbox\FAUSTO\SVILUPPI\MSX\CODE\C\MSXgl\projects\exsoccer/exsoccer_s2_b0.c:857: g_Ball.Y=g_Players[playerId].Y - distY + BallAlignCorrectY[dir];
    00001CCD DD 6E F9         [19] 4983 	ld	l, -7 (ix)
    00001CD0 DD 66 FA         [19] 4984 	ld	h, -6 (ix)
    00001CD3 5E               [ 7] 4985 	ld	e, (hl)
    00001CD4 23               [ 6] 4986 	inc	hl
    00001CD5 56               [ 7] 4987 	ld	d, (hl)
    00001CD6 06 00            [ 7] 4988 	ld	b, #0x00
    00001CD8 7B               [ 4] 4989 	ld	a, e
    00001CD9 91               [ 4] 4990 	sub	a, c
    00001CDA 4F               [ 4] 4991 	ld	c, a
    00001CDB 7A               [ 4] 4992 	ld	a, d
    00001CDC 98               [ 4] 4993 	sbc	a, b
    00001CDD 47               [ 4] 4994 	ld	b, a
    00001CDE DD 5E FB         [19] 4995 	ld	e, -5 (ix)
    00001CE1 16 00            [ 7] 4996 	ld	d, #0x00
    00001CE3 21 25 00         [10] 4997 	ld	hl, #37
    00001CE6 39               [11] 4998 	add	hl, sp
    00001CE7 19               [11] 4999 	add	hl, de
    00001CE8 7E               [ 7] 5000 	ld	a, (hl)
    00001CE9 6F               [ 4] 5001 	ld	l, a
                                   5002 ;	spillPairReg hl
                                   5003 ;	spillPairReg hl
    00001CEA 07               [ 4] 5004 	rlca
    00001CEB 9F               [ 4] 5005 	sbc	a, a
    00001CEC 67               [ 4] 5006 	ld	h, a
                                   5007 ;	spillPairReg hl
                                   5008 ;	spillPairReg hl
    00001CED 09               [11] 5009 	add	hl, bc
    00001CEE EB               [ 4] 5010 	ex	de, hl
    00001CEF ED 53r00r00      [20] 5011 	ld	(_g_Ball), de
                                   5012 ;E:\Dropbox\FAUSTO\SVILUPPI\MSX\CODE\C\MSXgl\projects\exsoccer/exsoccer_s2_b0.c:858: break;
    00001CF3 C3r94r1D         [10] 5013 	jp	00113$
                                   5014 ;E:\Dropbox\FAUSTO\SVILUPPI\MSX\CODE\C\MSXgl\projects\exsoccer/exsoccer_s2_b0.c:859: case DIRECTION_DOWN_LEFT:
    00001CF6                       5015 00111$:
                                   5016 ;E:\Dropbox\FAUSTO\SVILUPPI\MSX\CODE\C\MSXgl\projects\exsoccer/exsoccer_s2_b0.c:860: g_Ball.X=g_Players[playerId].X - distX + BallAlignCorrectX[dir];
    00001CF6 DD 6E F9         [19] 5017 	ld	l, -7 (ix)
                                   5018 ;	spillPairReg hl
                                   5019 ;	spillPairReg hl
    00001CF9 DD 66 FA         [19] 5020 	ld	h, -6 (ix)
                                   5021 ;	spillPairReg hl
                                   5022 ;	spillPairReg hl
    00001CFC 23               [ 6] 5023 	inc	hl
    00001CFD 23               [ 6] 5024 	inc	hl
    00001CFE 7E               [ 7] 5025 	ld	a, (hl)
    00001CFF 23               [ 6] 5026 	inc	hl
    00001D00 66               [ 7] 5027 	ld	h, (hl)
                                   5028 ;	spillPairReg hl
    00001D01 6F               [ 4] 5029 	ld	l, a
                                   5030 ;	spillPairReg hl
                                   5031 ;	spillPairReg hl
    00001D02 DD 5E FD         [19] 5032 	ld	e, -3 (ix)
    00001D05 16 00            [ 7] 5033 	ld	d, #0x00
    00001D07 BF               [ 4] 5034 	cp	a, a
    00001D08 ED 52            [15] 5035 	sbc	hl, de
    00001D0A E5               [11] 5036 	push	hl
    00001D0B DD 5E FB         [19] 5037 	ld	e, -5 (ix)
    00001D0E 16 00            [ 7] 5038 	ld	d, #0x00
    00001D10 21 1E 00         [10] 5039 	ld	hl, #30
    00001D13 39               [11] 5040 	add	hl, sp
    00001D14 19               [11] 5041 	add	hl, de
    00001D15 D1               [10] 5042 	pop	de
    00001D16 7E               [ 7] 5043 	ld	a, (hl)
    00001D17 6F               [ 4] 5044 	ld	l, a
                                   5045 ;	spillPairReg hl
                                   5046 ;	spillPairReg hl
    00001D18 07               [ 4] 5047 	rlca
    00001D19 9F               [ 4] 5048 	sbc	a, a
    00001D1A 67               [ 4] 5049 	ld	h, a
                                   5050 ;	spillPairReg hl
                                   5051 ;	spillPairReg hl
    00001D1B 19               [11] 5052 	add	hl, de
    00001D1C EB               [ 4] 5053 	ex	de, hl
    00001D1D ED 53r02r00      [20] 5054 	ld	((_g_Ball + 2)), de
                                   5055 ;E:\Dropbox\FAUSTO\SVILUPPI\MSX\CODE\C\MSXgl\projects\exsoccer/exsoccer_s2_b0.c:861: g_Ball.Y=g_Players[playerId].Y + distY + BallAlignCorrectY[dir];
    00001D21 DD 6E F9         [19] 5056 	ld	l, -7 (ix)
    00001D24 DD 66 FA         [19] 5057 	ld	h, -6 (ix)
    00001D27 5E               [ 7] 5058 	ld	e, (hl)
    00001D28 23               [ 6] 5059 	inc	hl
    00001D29 56               [ 7] 5060 	ld	d, (hl)
    00001D2A 06 00            [ 7] 5061 	ld	b, #0x00
    00001D2C EB               [ 4] 5062 	ex	de, hl
    00001D2D 09               [11] 5063 	add	hl, bc
    00001D2E 4D               [ 4] 5064 	ld	c, l
    00001D2F 44               [ 4] 5065 	ld	b, h
    00001D30 DD 5E FB         [19] 5066 	ld	e, -5 (ix)
    00001D33 16 00            [ 7] 5067 	ld	d, #0x00
    00001D35 21 25 00         [10] 5068 	ld	hl, #37
    00001D38 39               [11] 5069 	add	hl, sp
    00001D39 19               [11] 5070 	add	hl, de
    00001D3A 7E               [ 7] 5071 	ld	a, (hl)
    00001D3B 6F               [ 4] 5072 	ld	l, a
                                   5073 ;	spillPairReg hl
                                   5074 ;	spillPairReg hl
    00001D3C 07               [ 4] 5075 	rlca
    00001D3D 9F               [ 4] 5076 	sbc	a, a
    00001D3E 67               [ 4] 5077 	ld	h, a
                                   5078 ;	spillPairReg hl
                                   5079 ;	spillPairReg hl
    00001D3F 09               [11] 5080 	add	hl, bc
    00001D40 EB               [ 4] 5081 	ex	de, hl
    00001D41 ED 53r00r00      [20] 5082 	ld	(_g_Ball), de
                                   5083 ;E:\Dropbox\FAUSTO\SVILUPPI\MSX\CODE\C\MSXgl\projects\exsoccer/exsoccer_s2_b0.c:862: break;
    00001D45 C3r94r1D         [10] 5084 	jp	00113$
                                   5085 ;E:\Dropbox\FAUSTO\SVILUPPI\MSX\CODE\C\MSXgl\projects\exsoccer/exsoccer_s2_b0.c:863: case DIRECTION_DOWN_RIGHT:
    00001D48                       5086 00112$:
                                   5087 ;E:\Dropbox\FAUSTO\SVILUPPI\MSX\CODE\C\MSXgl\projects\exsoccer/exsoccer_s2_b0.c:864: g_Ball.X=g_Players[playerId].X + distX + BallAlignCorrectX[dir];
    00001D48 DD 6E F9         [19] 5088 	ld	l, -7 (ix)
                                   5089 ;	spillPairReg hl
                                   5090 ;	spillPairReg hl
    00001D4B DD 66 FA         [19] 5091 	ld	h, -6 (ix)
                                   5092 ;	spillPairReg hl
                                   5093 ;	spillPairReg hl
    00001D4E 23               [ 6] 5094 	inc	hl
    00001D4F 23               [ 6] 5095 	inc	hl
    00001D50 5E               [ 7] 5096 	ld	e, (hl)
    00001D51 23               [ 6] 5097 	inc	hl
    00001D52 56               [ 7] 5098 	ld	d, (hl)
    00001D53 DD 6E FD         [19] 5099 	ld	l, -3 (ix)
                                   5100 ;	spillPairReg hl
                                   5101 ;	spillPairReg hl
    00001D56 26 00            [ 7] 5102 	ld	h, #0x00
                                   5103 ;	spillPairReg hl
                                   5104 ;	spillPairReg hl
    00001D58 19               [11] 5105 	add	hl, de
    00001D59 E5               [11] 5106 	push	hl
    00001D5A DD 5E FB         [19] 5107 	ld	e, -5 (ix)
    00001D5D 16 00            [ 7] 5108 	ld	d, #0x00
    00001D5F 21 1E 00         [10] 5109 	ld	hl, #30
    00001D62 39               [11] 5110 	add	hl, sp
    00001D63 19               [11] 5111 	add	hl, de
    00001D64 D1               [10] 5112 	pop	de
    00001D65 7E               [ 7] 5113 	ld	a, (hl)
    00001D66 6F               [ 4] 5114 	ld	l, a
                                   5115 ;	spillPairReg hl
                                   5116 ;	spillPairReg hl
    00001D67 07               [ 4] 5117 	rlca
    00001D68 9F               [ 4] 5118 	sbc	a, a
    00001D69 67               [ 4] 5119 	ld	h, a
                                   5120 ;	spillPairReg hl
                                   5121 ;	spillPairReg hl
    00001D6A 19               [11] 5122 	add	hl, de
    00001D6B EB               [ 4] 5123 	ex	de, hl
    00001D6C ED 53r02r00      [20] 5124 	ld	((_g_Ball + 2)), de
                                   5125 ;E:\Dropbox\FAUSTO\SVILUPPI\MSX\CODE\C\MSXgl\projects\exsoccer/exsoccer_s2_b0.c:865: g_Ball.Y=g_Players[playerId].Y + distY + BallAlignCorrectY[dir];
    00001D70 DD 6E F9         [19] 5126 	ld	l, -7 (ix)
    00001D73 DD 66 FA         [19] 5127 	ld	h, -6 (ix)
    00001D76 5E               [ 7] 5128 	ld	e, (hl)
    00001D77 23               [ 6] 5129 	inc	hl
    00001D78 56               [ 7] 5130 	ld	d, (hl)
    00001D79 06 00            [ 7] 5131 	ld	b, #0x00
    00001D7B EB               [ 4] 5132 	ex	de, hl
    00001D7C 09               [11] 5133 	add	hl, bc
    00001D7D 4D               [ 4] 5134 	ld	c, l
    00001D7E 44               [ 4] 5135 	ld	b, h
    00001D7F DD 5E FB         [19] 5136 	ld	e, -5 (ix)
    00001D82 16 00            [ 7] 5137 	ld	d, #0x00
    00001D84 21 25 00         [10] 5138 	ld	hl, #37
    00001D87 39               [11] 5139 	add	hl, sp
    00001D88 19               [11] 5140 	add	hl, de
    00001D89 7E               [ 7] 5141 	ld	a, (hl)
    00001D8A 6F               [ 4] 5142 	ld	l, a
                                   5143 ;	spillPairReg hl
                                   5144 ;	spillPairReg hl
    00001D8B 07               [ 4] 5145 	rlca
    00001D8C 9F               [ 4] 5146 	sbc	a, a
    00001D8D 67               [ 4] 5147 	ld	h, a
                                   5148 ;	spillPairReg hl
                                   5149 ;	spillPairReg hl
    00001D8E 09               [11] 5150 	add	hl, bc
    00001D8F EB               [ 4] 5151 	ex	de, hl
    00001D90 ED 53r00r00      [20] 5152 	ld	(_g_Ball), de
                                   5153 ;E:\Dropbox\FAUSTO\SVILUPPI\MSX\CODE\C\MSXgl\projects\exsoccer/exsoccer_s2_b0.c:867: }
    00001D94                       5154 00113$:
                                   5155 ;E:\Dropbox\FAUSTO\SVILUPPI\MSX\CODE\C\MSXgl\projects\exsoccer/exsoccer_s2_b0.c:868: g_Ball.PreviousY=g_Ball.Y;
    00001D94 ED 4Br00r00      [20] 5156 	ld	bc, (#_g_Ball + 0)
    00001D98 ED 43r07r00      [20] 5157 	ld	((_g_Ball + 7)), bc
                                   5158 ;E:\Dropbox\FAUSTO\SVILUPPI\MSX\CODE\C\MSXgl\projects\exsoccer/exsoccer_s2_b0.c:869: g_Ball.Direction=dir;
    00001D9C 21r05r00         [10] 5159 	ld	hl, #(_g_Ball + 5)
    00001D9F DD 7E FB         [19] 5160 	ld	a, -5 (ix)
    00001DA2 77               [ 7] 5161 	ld	(hl), a
                                   5162 ;E:\Dropbox\FAUSTO\SVILUPPI\MSX\CODE\C\MSXgl\projects\exsoccer/exsoccer_s2_b0.c:870: }
    00001DA3 DD F9            [10] 5163 	ld	sp, ix
    00001DA5 DD E1            [14] 5164 	pop	ix
    00001DA7 C9               [10] 5165 	ret
                                   5166 ;E:\Dropbox\FAUSTO\SVILUPPI\MSX\CODE\C\MSXgl\projects\exsoccer/exsoccer_s2_b0.c:872: void UpdateSpritesPositions(){
                                   5167 ;	---------------------------------
                                   5168 ; Function UpdateSpritesPositions
                                   5169 ; ---------------------------------
    00001DA8                       5170 _UpdateSpritesPositions::
                                   5171 ;E:\Dropbox\FAUSTO\SVILUPPI\MSX\CODE\C\MSXgl\projects\exsoccer/exsoccer_s2_b0.c:873: for (u8 i=0;i<15;i++){
    00001DA8 0E 00            [ 7] 5172 	ld	c, #0x00
    00001DAA                       5173 00103$:
    00001DAA 79               [ 4] 5174 	ld	a, c
    00001DAB D6 0F            [ 7] 5175 	sub	a, #0x0f
    00001DAD D2rBAr1D         [10] 5176 	jp	NC,_PutBallSprite
                                   5177 ;E:\Dropbox\FAUSTO\SVILUPPI\MSX\CODE\C\MSXgl\projects\exsoccer/exsoccer_s2_b0.c:874: PutPlayerSprite(i);
    00001DB0 C5               [11] 5178 	push	bc
    00001DB1 79               [ 4] 5179 	ld	a, c
    00001DB2 CDrFBr21         [17] 5180 	call	_PutPlayerSprite
    00001DB5 C1               [10] 5181 	pop	bc
                                   5182 ;E:\Dropbox\FAUSTO\SVILUPPI\MSX\CODE\C\MSXgl\projects\exsoccer/exsoccer_s2_b0.c:873: for (u8 i=0;i<15;i++){
    00001DB6 0C               [ 4] 5183 	inc	c
                                   5184 ;E:\Dropbox\FAUSTO\SVILUPPI\MSX\CODE\C\MSXgl\projects\exsoccer/exsoccer_s2_b0.c:876: PutBallSprite();
                                   5185 ;E:\Dropbox\FAUSTO\SVILUPPI\MSX\CODE\C\MSXgl\projects\exsoccer/exsoccer_s2_b0.c:877: }
    00001DB7 C3rAAr1D         [10] 5186 	jp	00103$
                                   5187 ;E:\Dropbox\FAUSTO\SVILUPPI\MSX\CODE\C\MSXgl\projects\exsoccer/exsoccer_s2_b0.c:878: void PutBallSprite(){
                                   5188 ;	---------------------------------
                                   5189 ; Function PutBallSprite
                                   5190 ; ---------------------------------
    00001DBA                       5191 _PutBallSprite::
    00001DBA DD E5            [15] 5192 	push	ix
    00001DBC DD 21 00 00      [14] 5193 	ld	ix,#0
    00001DC0 DD 39            [15] 5194 	add	ix,sp
    00001DC2 21 F5 FF         [10] 5195 	ld	hl, #-11
    00001DC5 39               [11] 5196 	add	hl, sp
    00001DC6 F9               [ 6] 5197 	ld	sp, hl
                                   5198 ;E:\Dropbox\FAUSTO\SVILUPPI\MSX\CODE\C\MSXgl\projects\exsoccer/exsoccer_s2_b0.c:880: attr.D=0;
    00001DC7 21 03 00         [10] 5199 	ld	hl, #3
    00001DCA 39               [11] 5200 	add	hl, sp
    00001DCB CB A6            [15] 5201 	res	4, (hl)
                                   5202 ;E:\Dropbox\FAUSTO\SVILUPPI\MSX\CODE\C\MSXgl\projects\exsoccer/exsoccer_s2_b0.c:881: attr.SC=0;
    00001DCD 21 03 00         [10] 5203 	ld	hl, #3
    00001DD0 39               [11] 5204 	add	hl, sp
    00001DD1 7E               [ 7] 5205 	ld	a, (hl)
    00001DD2 E6 3F            [ 7] 5206 	and	a, #0x3f
    00001DD4 77               [ 7] 5207 	ld	(hl), a
                                   5208 ;E:\Dropbox\FAUSTO\SVILUPPI\MSX\CODE\C\MSXgl\projects\exsoccer/exsoccer_s2_b0.c:882: attr.Y = g_Ball.Y-g_FieldCurrentYPosition;
    00001DD5 3Ar00r00         [13] 5209 	ld	a, (#_g_Ball + 0)
    00001DD8 DD 77 FF         [19] 5210 	ld	-1 (ix), a
    00001DDB 3Ar00r00         [13] 5211 	ld	a, (_g_FieldCurrentYPosition+0)
    00001DDE DD 77 FE         [19] 5212 	ld	-2 (ix), a
    00001DE1 DD 7E FF         [19] 5213 	ld	a, -1 (ix)
    00001DE4 DD 96 FE         [19] 5214 	sub	a, -2 (ix)
    00001DE7 DD 77 F5         [19] 5215 	ld	-11 (ix), a
                                   5216 ;E:\Dropbox\FAUSTO\SVILUPPI\MSX\CODE\C\MSXgl\projects\exsoccer/exsoccer_s2_b0.c:885: u8 logicalSize = g_Ball.Size;
    00001DEA 3Ar04r00         [13] 5217 	ld	a, (#_g_Ball + 4)
    00001DED DD 77 F9         [19] 5218 	ld	-7 (ix), a
                                   5219 ;E:\Dropbox\FAUSTO\SVILUPPI\MSX\CODE\C\MSXgl\projects\exsoccer/exsoccer_s2_b0.c:887: if (g_Ball.PossessionPlayerId != NO_VALUE) logicalSize = 1;
    00001DF0 3Ar06r00         [13] 5220 	ld	a, (#_g_Ball + 6)
    00001DF3 3C               [ 4] 5221 	inc	a
    00001DF4 28 04            [12] 5222 	jr	Z, 00102$
    00001DF6 DD 36 F9 01      [19] 5223 	ld	-7 (ix), #0x01
    00001DFA                       5224 00102$:
                                   5225 ;E:\Dropbox\FAUSTO\SVILUPPI\MSX\CODE\C\MSXgl\projects\exsoccer/exsoccer_s2_b0.c:889: if (logicalSize == 0) logicalSize = 1;
    00001DFA DD 7E F9         [19] 5226 	ld	a, -7 (ix)
    00001DFD B7               [ 4] 5227 	or	a, a
    00001DFE 20 04            [12] 5228 	jr	NZ, 00104$
    00001E00 DD 36 F9 01      [19] 5229 	ld	-7 (ix), #0x01
    00001E04                       5230 00104$:
                                   5231 ;E:\Dropbox\FAUSTO\SVILUPPI\MSX\CODE\C\MSXgl\projects\exsoccer/exsoccer_s2_b0.c:890: if (logicalSize > 4) logicalSize = 4;
    00001E04 3E 04            [ 7] 5232 	ld	a, #0x04
    00001E06 DD 96 F9         [19] 5233 	sub	a, -7 (ix)
    00001E09 30 04            [12] 5234 	jr	NC, 00106$
    00001E0B DD 36 F9 04      [19] 5235 	ld	-7 (ix), #0x04
    00001E0F                       5236 00106$:
                                   5237 ;E:\Dropbox\FAUSTO\SVILUPPI\MSX\CODE\C\MSXgl\projects\exsoccer/exsoccer_s2_b0.c:895: bool rawMovement = (g_Ball.OldX != g_Ball.X || g_Ball.OldY != g_Ball.Y);
    00001E0F 21r09r00         [10] 5238 	ld	hl, #(_g_Ball + 9)
    00001E12 7E               [ 7] 5239 	ld	a, (hl)
    00001E13 DD 77 FE         [19] 5240 	ld	-2 (ix), a
    00001E16 23               [ 6] 5241 	inc	hl
    00001E17 7E               [ 7] 5242 	ld	a, (hl)
    00001E18 DD 77 FF         [19] 5243 	ld	-1 (ix), a
    00001E1B 21r02r00         [10] 5244 	ld	hl, #(_g_Ball + 2)
    00001E1E 7E               [ 7] 5245 	ld	a, (hl)
    00001E1F DD 77 FA         [19] 5246 	ld	-6 (ix), a
    00001E22 23               [ 6] 5247 	inc	hl
    00001E23 7E               [ 7] 5248 	ld	a, (hl)
    00001E24 DD 77 FB         [19] 5249 	ld	-5 (ix), a
    00001E27 DD 7E FE         [19] 5250 	ld	a, -2 (ix)
    00001E2A DD 96 FA         [19] 5251 	sub	a, -6 (ix)
    00001E2D 20 32            [12] 5252 	jr	NZ, 00123$
    00001E2F DD 7E FF         [19] 5253 	ld	a, -1 (ix)
    00001E32 DD 96 FB         [19] 5254 	sub	a, -5 (ix)
    00001E35 20 2A            [12] 5255 	jr	NZ, 00123$
    00001E37 21r0Br00         [10] 5256 	ld	hl, #(_g_Ball + 11)
    00001E3A 7E               [ 7] 5257 	ld	a, (hl)
    00001E3B DD 77 FC         [19] 5258 	ld	-4 (ix), a
    00001E3E 23               [ 6] 5259 	inc	hl
    00001E3F 7E               [ 7] 5260 	ld	a, (hl)
    00001E40 DD 77 FD         [19] 5261 	ld	-3 (ix), a
    00001E43 21r00r00         [10] 5262 	ld	hl, #_g_Ball
    00001E46 7E               [ 7] 5263 	ld	a, (hl)
    00001E47 DD 77 FE         [19] 5264 	ld	-2 (ix), a
    00001E4A 23               [ 6] 5265 	inc	hl
    00001E4B 7E               [ 7] 5266 	ld	a, (hl)
    00001E4C DD 77 FF         [19] 5267 	ld	-1 (ix), a
    00001E4F DD 7E FC         [19] 5268 	ld	a, -4 (ix)
    00001E52 DD 96 FE         [19] 5269 	sub	a, -2 (ix)
    00001E55 20 0A            [12] 5270 	jr	NZ, 00123$
    00001E57 DD 7E FD         [19] 5271 	ld	a, -3 (ix)
    00001E5A DD 96 FF         [19] 5272 	sub	a, -1 (ix)
    00001E5D 0E 00            [ 7] 5273 	ld	c, #0x00
    00001E5F 28 02            [12] 5274 	jr	Z, 00124$
    00001E61                       5275 00123$:
    00001E61 0E 01            [ 7] 5276 	ld	c, #0x01
    00001E63                       5277 00124$:
                                   5278 ;E:\Dropbox\FAUSTO\SVILUPPI\MSX\CODE\C\MSXgl\projects\exsoccer/exsoccer_s2_b0.c:898: g_Ball.OldX = g_Ball.X;
    00001E63 21r09r00         [10] 5279 	ld	hl, #(_g_Ball + 9)
    00001E66 DD 7E FA         [19] 5280 	ld	a, -6 (ix)
    00001E69 77               [ 7] 5281 	ld	(hl), a
    00001E6A 23               [ 6] 5282 	inc	hl
    00001E6B DD 7E FB         [19] 5283 	ld	a, -5 (ix)
    00001E6E 77               [ 7] 5284 	ld	(hl), a
                                   5285 ;E:\Dropbox\FAUSTO\SVILUPPI\MSX\CODE\C\MSXgl\projects\exsoccer/exsoccer_s2_b0.c:899: g_Ball.OldY = g_Ball.Y;
    00001E6F ED 5Br00r00      [20] 5286 	ld	de, (#_g_Ball + 0)
    00001E73 ED 53r0Br00      [20] 5287 	ld	((_g_Ball + 11)), de
                                   5288 ;E:\Dropbox\FAUSTO\SVILUPPI\MSX\CODE\C\MSXgl\projects\exsoccer/exsoccer_s2_b0.c:901: if (rawMovement) {
    00001E77 79               [ 4] 5289 	ld	a, c
    00001E78 B7               [ 4] 5290 	or	a, a
    00001E79 28 08            [12] 5291 	jr	Z, 00110$
                                   5292 ;E:\Dropbox\FAUSTO\SVILUPPI\MSX\CODE\C\MSXgl\projects\exsoccer/exsoccer_s2_b0.c:902: s_StopCooldown = 15; // Keep animation active for ~1/4 sec after last move
    00001E7B 21r00r00         [10] 5293 	ld	hl, #_PutBallSprite_s_StopCooldown_65538_1287
    00001E7E 36 0F            [10] 5294 	ld	(hl), #0x0f
    00001E80 C3r8Dr1E         [10] 5295 	jp	00111$
    00001E83                       5296 00110$:
                                   5297 ;E:\Dropbox\FAUSTO\SVILUPPI\MSX\CODE\C\MSXgl\projects\exsoccer/exsoccer_s2_b0.c:904: if (s_StopCooldown > 0) s_StopCooldown--;
    00001E83 3Ar00r00         [13] 5298 	ld	a, (_PutBallSprite_s_StopCooldown_65538_1287+0)
    00001E86 B7               [ 4] 5299 	or	a, a
    00001E87 28 04            [12] 5300 	jr	Z, 00111$
    00001E89 21r00r00         [10] 5301 	ld	hl, #_PutBallSprite_s_StopCooldown_65538_1287
    00001E8C 35               [11] 5302 	dec	(hl)
    00001E8D                       5303 00111$:
                                   5304 ;E:\Dropbox\FAUSTO\SVILUPPI\MSX\CODE\C\MSXgl\projects\exsoccer/exsoccer_s2_b0.c:907: bool isAnimating = (s_StopCooldown > 0);
    00001E8D 3Ar00r00         [13] 5305 	ld	a, (_PutBallSprite_s_StopCooldown_65538_1287+0)
    00001E90 B7               [ 4] 5306 	or	a, a
    00001E91 28 06            [12] 5307 	jr	Z, 00125$
    00001E93 11 01 00         [10] 5308 	ld	de, #0x0001
    00001E96 C3r9Cr1E         [10] 5309 	jp	00126$
    00001E99                       5310 00125$:
    00001E99 11 00 00         [10] 5311 	ld	de, #0x0000
    00001E9C                       5312 00126$:
    00001E9C 7B               [ 4] 5313 	ld	a, e
                                   5314 ;E:\Dropbox\FAUSTO\SVILUPPI\MSX\CODE\C\MSXgl\projects\exsoccer/exsoccer_s2_b0.c:911: bool useAlt = isAnimating && ((g_FrameCounter & 8) != 0);
    00001E9D B7               [ 4] 5315 	or	a, a
    00001E9E 28 07            [12] 5316 	jr	Z, 00127$
    00001EA0 2Ar00r00         [16] 5317 	ld	hl, (_g_FrameCounter)
    00001EA3 CB 5D            [ 8] 5318 	bit	3, l
    00001EA5 20 05            [12] 5319 	jr	NZ, 00128$
    00001EA7                       5320 00127$:
    00001EA7 0E 00            [ 7] 5321 	ld	c, #0x00
    00001EA9 C3rAEr1E         [10] 5322 	jp	00129$
    00001EAC                       5323 00128$:
    00001EAC 0E 01            [ 7] 5324 	ld	c, #0x01
    00001EAE                       5325 00129$:
                                   5326 ;E:\Dropbox\FAUSTO\SVILUPPI\MSX\CODE\C\MSXgl\projects\exsoccer/exsoccer_s2_b0.c:915: attr.Pattern = useAlt ? BALL_SIZE_2 : BALL_SIZE_1;
                                   5327 ;E:\Dropbox\FAUSTO\SVILUPPI\MSX\CODE\C\MSXgl\projects\exsoccer/exsoccer_s2_b0.c:913: switch (logicalSize){
    00001EAE DD 7E F9         [19] 5328 	ld	a, -7 (ix)
    00001EB1 3D               [ 4] 5329 	dec	a
    00001EB2 28 18            [12] 5330 	jr	Z, 00112$
    00001EB4 DD 7E F9         [19] 5331 	ld	a, -7 (ix)
    00001EB7 D6 02            [ 7] 5332 	sub	a, #0x02
    00001EB9 28 24            [12] 5333 	jr	Z, 00113$
    00001EBB DD 7E F9         [19] 5334 	ld	a, -7 (ix)
    00001EBE D6 03            [ 7] 5335 	sub	a, #0x03
    00001EC0 28 3D            [12] 5336 	jr	Z, 00114$
    00001EC2 DD 7E F9         [19] 5337 	ld	a, -7 (ix)
    00001EC5 D6 04            [ 7] 5338 	sub	a, #0x04
    00001EC7 28 49            [12] 5339 	jr	Z, 00115$
    00001EC9 C3r25r1F         [10] 5340 	jp	00116$
                                   5341 ;E:\Dropbox\FAUSTO\SVILUPPI\MSX\CODE\C\MSXgl\projects\exsoccer/exsoccer_s2_b0.c:914: case 1:
    00001ECC                       5342 00112$:
                                   5343 ;E:\Dropbox\FAUSTO\SVILUPPI\MSX\CODE\C\MSXgl\projects\exsoccer/exsoccer_s2_b0.c:915: attr.Pattern = useAlt ? BALL_SIZE_2 : BALL_SIZE_1;
    00001ECC 79               [ 4] 5344 	ld	a, c
    00001ECD B7               [ 4] 5345 	or	a, a
    00001ECE 28 06            [12] 5346 	jr	Z, 00130$
    00001ED0 01 3A 00         [10] 5347 	ld	bc, #0x003a
    00001ED3 C3rD9r1E         [10] 5348 	jp	00131$
    00001ED6                       5349 00130$:
    00001ED6 01 39 00         [10] 5350 	ld	bc, #0x0039
    00001ED9                       5351 00131$:
    00001ED9 DD 71 F6         [19] 5352 	ld	-10 (ix), c
                                   5353 ;E:\Dropbox\FAUSTO\SVILUPPI\MSX\CODE\C\MSXgl\projects\exsoccer/exsoccer_s2_b0.c:916: break;
    00001EDC C3r29r1F         [10] 5354 	jp	00117$
                                   5355 ;E:\Dropbox\FAUSTO\SVILUPPI\MSX\CODE\C\MSXgl\projects\exsoccer/exsoccer_s2_b0.c:917: case 2:
    00001EDF                       5356 00113$:
                                   5357 ;E:\Dropbox\FAUSTO\SVILUPPI\MSX\CODE\C\MSXgl\projects\exsoccer/exsoccer_s2_b0.c:918: attr.Pattern = useAlt ? BALL_SIZE_4 : BALL_SIZE_3;
    00001EDF 79               [ 4] 5358 	ld	a, c
    00001EE0 B7               [ 4] 5359 	or	a, a
    00001EE1 28 0B            [12] 5360 	jr	Z, 00132$
    00001EE3 DD 36 FE 3C      [19] 5361 	ld	-2 (ix), #0x3c
    00001EE7 DD 36 FF 00      [19] 5362 	ld	-1 (ix), #0
    00001EEB C3rF6r1E         [10] 5363 	jp	00133$
    00001EEE                       5364 00132$:
    00001EEE DD 36 FE 3B      [19] 5365 	ld	-2 (ix), #0x3b
    00001EF2 DD 36 FF 00      [19] 5366 	ld	-1 (ix), #0
    00001EF6                       5367 00133$:
    00001EF6 DD 7E FE         [19] 5368 	ld	a, -2 (ix)
    00001EF9 DD 77 F6         [19] 5369 	ld	-10 (ix), a
                                   5370 ;E:\Dropbox\FAUSTO\SVILUPPI\MSX\CODE\C\MSXgl\projects\exsoccer/exsoccer_s2_b0.c:919: break;
    00001EFC C3r29r1F         [10] 5371 	jp	00117$
                                   5372 ;E:\Dropbox\FAUSTO\SVILUPPI\MSX\CODE\C\MSXgl\projects\exsoccer/exsoccer_s2_b0.c:920: case 3:
    00001EFF                       5373 00114$:
                                   5374 ;E:\Dropbox\FAUSTO\SVILUPPI\MSX\CODE\C\MSXgl\projects\exsoccer/exsoccer_s2_b0.c:921: attr.Pattern = useAlt ? BALL_SIZE_6 : BALL_SIZE_5;
    00001EFF 79               [ 4] 5375 	ld	a, c
    00001F00 B7               [ 4] 5376 	or	a, a
    00001F01 28 06            [12] 5377 	jr	Z, 00134$
    00001F03 01 3E 00         [10] 5378 	ld	bc, #0x003e
    00001F06 C3r0Cr1F         [10] 5379 	jp	00135$
    00001F09                       5380 00134$:
    00001F09 01 3D 00         [10] 5381 	ld	bc, #0x003d
    00001F0C                       5382 00135$:
    00001F0C DD 71 F6         [19] 5383 	ld	-10 (ix), c
                                   5384 ;E:\Dropbox\FAUSTO\SVILUPPI\MSX\CODE\C\MSXgl\projects\exsoccer/exsoccer_s2_b0.c:922: break;
    00001F0F C3r29r1F         [10] 5385 	jp	00117$
                                   5386 ;E:\Dropbox\FAUSTO\SVILUPPI\MSX\CODE\C\MSXgl\projects\exsoccer/exsoccer_s2_b0.c:923: case 4:
    00001F12                       5387 00115$:
                                   5388 ;E:\Dropbox\FAUSTO\SVILUPPI\MSX\CODE\C\MSXgl\projects\exsoccer/exsoccer_s2_b0.c:924: attr.Pattern = useAlt ? BALL_SIZE_8 : BALL_SIZE_7;
    00001F12 79               [ 4] 5389 	ld	a, c
    00001F13 B7               [ 4] 5390 	or	a, a
    00001F14 28 06            [12] 5391 	jr	Z, 00136$
    00001F16 01 74 00         [10] 5392 	ld	bc, #0x0074
    00001F19 C3r1Fr1F         [10] 5393 	jp	00137$
    00001F1C                       5394 00136$:
    00001F1C 01 3F 00         [10] 5395 	ld	bc, #0x003f
    00001F1F                       5396 00137$:
    00001F1F DD 71 F6         [19] 5397 	ld	-10 (ix), c
                                   5398 ;E:\Dropbox\FAUSTO\SVILUPPI\MSX\CODE\C\MSXgl\projects\exsoccer/exsoccer_s2_b0.c:925: break;
    00001F22 C3r29r1F         [10] 5399 	jp	00117$
                                   5400 ;E:\Dropbox\FAUSTO\SVILUPPI\MSX\CODE\C\MSXgl\projects\exsoccer/exsoccer_s2_b0.c:926: default:
    00001F25                       5401 00116$:
                                   5402 ;E:\Dropbox\FAUSTO\SVILUPPI\MSX\CODE\C\MSXgl\projects\exsoccer/exsoccer_s2_b0.c:927: attr.Pattern = BALL_SIZE_1;
    00001F25 DD 36 F6 39      [19] 5403 	ld	-10 (ix), #0x39
                                   5404 ;E:\Dropbox\FAUSTO\SVILUPPI\MSX\CODE\C\MSXgl\projects\exsoccer/exsoccer_s2_b0.c:928: }
    00001F29                       5405 00117$:
                                   5406 ;E:\Dropbox\FAUSTO\SVILUPPI\MSX\CODE\C\MSXgl\projects\exsoccer/exsoccer_s2_b0.c:930: attr.X = g_Ball.X;
    00001F29 ED 4Br02r00      [20] 5407 	ld	bc, (#(_g_Ball + 2) + 0)
    00001F2D 21 02 00         [10] 5408 	ld	hl, #2
    00001F30 39               [11] 5409 	add	hl, sp
    00001F31 71               [ 7] 5410 	ld	(hl), c
    00001F32 23               [ 6] 5411 	inc	hl
    00001F33 78               [ 4] 5412 	ld	a, b
    00001F34 E6 03            [ 7] 5413 	and	a, #0x03
    00001F36 5F               [ 4] 5414 	ld	e,a
    00001F37 7E               [ 7] 5415 	ld	a, (hl)
    00001F38 E6 FC            [ 7] 5416 	and	a, #0xfc
    00001F3A B3               [ 4] 5417 	or	a, e
    00001F3B 77               [ 7] 5418 	ld	(hl), a
                                   5419 ;E:\Dropbox\FAUSTO\SVILUPPI\MSX\CODE\C\MSXgl\projects\exsoccer/exsoccer_s2_b0.c:931: attr.P = attr.D;
    00001F3C 21 03 00         [10] 5420 	ld	hl, #3
    00001F3F 39               [11] 5421 	add	hl, sp
    00001F40 7E               [ 7] 5422 	ld	a, (hl)
    00001F41 07               [ 4] 5423 	rlca
    00001F42 07               [ 4] 5424 	rlca
    00001F43 07               [ 4] 5425 	rlca
    00001F44 07               [ 4] 5426 	rlca
    00001F45 E6 01            [ 7] 5427 	and	a, #0x01
    00001F47 21 03 00         [10] 5428 	ld	hl, #3
    00001F4A 39               [11] 5429 	add	hl, sp
    00001F4B 0F               [ 4] 5430 	rrca
    00001F4C 0F               [ 4] 5431 	rrca
    00001F4D 0F               [ 4] 5432 	rrca
    00001F4E E6 20            [ 7] 5433 	and	a, #0x20
    00001F50 4F               [ 4] 5434 	ld	c, a
    00001F51 7E               [ 7] 5435 	ld	a, (hl)
    00001F52 E6 DF            [ 7] 5436 	and	a, #0xdf
    00001F54 B1               [ 4] 5437 	or	a, c
    00001F55 77               [ 7] 5438 	ld	(hl), a
                                   5439 ;E:\Dropbox\FAUSTO\SVILUPPI\MSX\CODE\C\MSXgl\projects\exsoccer/exsoccer_s2_b0.c:932: V9_SetSpriteP1(15, &attr);
                                   5440 ;E:/Dropbox/FAUSTO/SVILUPPI/MSX/CODE/C/MSXgl/engine/src/v9990.h:781: inline void V9_SetSpriteP1(u8 id, const V9_Sprite* attr) { V9_WriteVRAM(V9_P1_SPAT + (id * 4), (const u8*)attr, 4); }
                                   5441 ;E:/Dropbox/FAUSTO/SVILUPPI/MSX/CODE/C/MSXgl/engine/src/v9990.h:371: inline void V9_WriteVRAM(u32 addr, const u8* src, u16 count) { V9_SetWriteAddress(addr); V9_WriteVRAM_CurrentAddr(src, count); }
    00001F56 11 3C FE         [10] 5442 	ld	de, #0xfe3c
    00001F59 21 03 00         [10] 5443 	ld	hl, #0x0003
    00001F5C CDr00r00         [17] 5444 	call	_V9_SetWriteAddress
    00001F5F 11 04 00         [10] 5445 	ld	de, #0x0004
    00001F62 21 00 00         [10] 5446 	ld	hl, #0
    00001F65 39               [11] 5447 	add	hl, sp
    00001F66 CDr00r00         [17] 5448 	call	_V9_WriteVRAM_CurrentAddr
                                   5449 ;E:\Dropbox\FAUSTO\SVILUPPI\MSX\CODE\C\MSXgl\projects\exsoccer/exsoccer_s2_b0.c:932: V9_SetSpriteP1(15, &attr);
                                   5450 ;E:\Dropbox\FAUSTO\SVILUPPI\MSX\CODE\C\MSXgl\projects\exsoccer/exsoccer_s2_b0.c:933: }
    00001F69 DD F9            [10] 5451 	ld	sp, ix
    00001F6B DD E1            [14] 5452 	pop	ix
    00001F6D C9               [10] 5453 	ret
                                   5454 ;E:\Dropbox\FAUSTO\SVILUPPI\MSX\CODE\C\MSXgl\projects\exsoccer/exsoccer_s2_b0.c:934: void ShowHeaderInfo(){
                                   5455 ;	---------------------------------
                                   5456 ; Function ShowHeaderInfo
                                   5457 ; ---------------------------------
    00001F6E                       5458 _ShowHeaderInfo::
    00001F6E DD E5            [15] 5459 	push	ix
    00001F70 DD 21 00 00      [14] 5460 	ld	ix,#0
    00001F74 DD 39            [15] 5461 	add	ix,sp
    00001F76 F5               [11] 5462 	push	af
                                   5463 ;E:\Dropbox\FAUSTO\SVILUPPI\MSX\CODE\C\MSXgl\projects\exsoccer/exsoccer_s2_b0.c:935: u8 pos1=5;
    00001F77 DD 36 FE 05      [19] 5464 	ld	-2 (ix), #0x05
                                   5465 ;E:\Dropbox\FAUSTO\SVILUPPI\MSX\CODE\C\MSXgl\projects\exsoccer/exsoccer_s2_b0.c:936: u8 pos2=10;
    00001F7B DD 36 FF 0A      [19] 5466 	ld	-1 (ix), #0x0a
                                   5467 ;E:\Dropbox\FAUSTO\SVILUPPI\MSX\CODE\C\MSXgl\projects\exsoccer/exsoccer_s2_b0.c:937: if(g_Team1Score>=10){
    00001F7F 3Ar00r00         [13] 5468 	ld	a, (_g_Team1Score+0)
    00001F82 D6 0A            [ 7] 5469 	sub	a, #0x0a
    00001F84 38 04            [12] 5470 	jr	C, 00102$
                                   5471 ;E:\Dropbox\FAUSTO\SVILUPPI\MSX\CODE\C\MSXgl\projects\exsoccer/exsoccer_s2_b0.c:938: pos1--;
    00001F86 DD 36 FE 04      [19] 5472 	ld	-2 (ix), #0x04
    00001F8A                       5473 00102$:
                                   5474 ;E:\Dropbox\FAUSTO\SVILUPPI\MSX\CODE\C\MSXgl\projects\exsoccer/exsoccer_s2_b0.c:940: if(g_Team2Score>=10){
    00001F8A 3Ar00r00         [13] 5475 	ld	a, (_g_Team2Score+0)
    00001F8D D6 0A            [ 7] 5476 	sub	a, #0x0a
    00001F8F 38 04            [12] 5477 	jr	C, 00104$
                                   5478 ;E:\Dropbox\FAUSTO\SVILUPPI\MSX\CODE\C\MSXgl\projects\exsoccer/exsoccer_s2_b0.c:941: pos2--;
    00001F91 DD 36 FF 09      [19] 5479 	ld	-1 (ix), #0x09
    00001F95                       5480 00104$:
                                   5481 ;E:\Dropbox\FAUSTO\SVILUPPI\MSX\CODE\C\MSXgl\projects\exsoccer/exsoccer_s2_b0.c:943: switch (g_Team1PaletteId){
    00001F95 3E 05            [ 7] 5482 	ld	a, #0x05
    00001F97 FD 21r00r00      [14] 5483 	ld	iy, #_g_Team1PaletteId
    00001F9B FD 96 00         [19] 5484 	sub	a, 0 (iy)
    00001F9E DAr28r20         [10] 5485 	jp	C, 00117$
    00001FA1 FD 4E 00         [19] 5486 	ld	c, 0 (iy)
    00001FA4 06 00            [ 7] 5487 	ld	b, #0x00
    00001FA6 21rADr1F         [10] 5488 	ld	hl, #00181$
    00001FA9 09               [11] 5489 	add	hl, bc
    00001FAA 09               [11] 5490 	add	hl, bc
    00001FAB 09               [11] 5491 	add	hl, bc
    00001FAC E9               [ 4] 5492 	jp	(hl)
    00001FAD                       5493 00181$:
    00001FAD C3rBFr1F         [10] 5494 	jp	00105$
    00001FB0 C3rDDr1F         [10] 5495 	jp	00109$
    00001FB3 C3rE9r1F         [10] 5496 	jp	00110$
    00001FB6 C3r1Fr20         [10] 5497 	jp	00116$
    00001FB9 C3r07r20         [10] 5498 	jp	00114$
    00001FBC C3r13r20         [10] 5499 	jp	00115$
                                   5500 ;E:\Dropbox\FAUSTO\SVILUPPI\MSX\CODE\C\MSXgl\projects\exsoccer/exsoccer_s2_b0.c:944: case TEAM_AUS:
    00001FBF                       5501 00105$:
                                   5502 ;E:\Dropbox\FAUSTO\SVILUPPI\MSX\CODE\C\MSXgl\projects\exsoccer/exsoccer_s2_b0.c:945: if(g_FioBre){
    00001FBF 3Ar00r00         [13] 5503 	ld	a, (_g_FioBre+0)
    00001FC2 B7               [ 4] 5504 	or	a, a
    00001FC3 28 0C            [12] 5505 	jr	Z, 00107$
                                   5506 ;E:\Dropbox\FAUSTO\SVILUPPI\MSX\CODE\C\MSXgl\projects\exsoccer/exsoccer_s2_b0.c:946: V9_PrintLayerAStringAtPos(0,0,"FIO");
    00001FC5 21r63r21         [10] 5507 	ld	hl, #___str_1
    00001FC8 E5               [11] 5508 	push	hl
                                   5509 ;	spillPairReg hl
                                   5510 ;	spillPairReg hl
    00001FC9 AF               [ 4] 5511 	xor	a, a
    00001FCA 6F               [ 4] 5512 	ld	l, a
    00001FCB CDr00r00         [17] 5513 	call	_V9_PrintLayerAStringAtPos
    00001FCE C3r28r20         [10] 5514 	jp	00117$
    00001FD1                       5515 00107$:
                                   5516 ;E:\Dropbox\FAUSTO\SVILUPPI\MSX\CODE\C\MSXgl\projects\exsoccer/exsoccer_s2_b0.c:949: V9_PrintLayerAStringAtPos(0,0,"AUS");
    00001FD1 21r67r21         [10] 5517 	ld	hl, #___str_2
    00001FD4 E5               [11] 5518 	push	hl
                                   5519 ;	spillPairReg hl
                                   5520 ;	spillPairReg hl
    00001FD5 AF               [ 4] 5521 	xor	a, a
    00001FD6 6F               [ 4] 5522 	ld	l, a
    00001FD7 CDr00r00         [17] 5523 	call	_V9_PrintLayerAStringAtPos
                                   5524 ;E:\Dropbox\FAUSTO\SVILUPPI\MSX\CODE\C\MSXgl\projects\exsoccer/exsoccer_s2_b0.c:951: break; 
    00001FDA C3r28r20         [10] 5525 	jp	00117$
                                   5526 ;E:\Dropbox\FAUSTO\SVILUPPI\MSX\CODE\C\MSXgl\projects\exsoccer/exsoccer_s2_b0.c:952: case TEAM_BRA:
    00001FDD                       5527 00109$:
                                   5528 ;E:\Dropbox\FAUSTO\SVILUPPI\MSX\CODE\C\MSXgl\projects\exsoccer/exsoccer_s2_b0.c:953: V9_PrintLayerAStringAtPos(0,0,"BRA");
    00001FDD 21r6Br21         [10] 5529 	ld	hl, #___str_3
    00001FE0 E5               [11] 5530 	push	hl
                                   5531 ;	spillPairReg hl
                                   5532 ;	spillPairReg hl
    00001FE1 AF               [ 4] 5533 	xor	a, a
    00001FE2 6F               [ 4] 5534 	ld	l, a
    00001FE3 CDr00r00         [17] 5535 	call	_V9_PrintLayerAStringAtPos
                                   5536 ;E:\Dropbox\FAUSTO\SVILUPPI\MSX\CODE\C\MSXgl\projects\exsoccer/exsoccer_s2_b0.c:954: break;
    00001FE6 C3r28r20         [10] 5537 	jp	00117$
                                   5538 ;E:\Dropbox\FAUSTO\SVILUPPI\MSX\CODE\C\MSXgl\projects\exsoccer/exsoccer_s2_b0.c:955: case TEAM_ITA:
    00001FE9                       5539 00110$:
                                   5540 ;E:\Dropbox\FAUSTO\SVILUPPI\MSX\CODE\C\MSXgl\projects\exsoccer/exsoccer_s2_b0.c:956: if(g_FioBre){
    00001FE9 3Ar00r00         [13] 5541 	ld	a, (_g_FioBre+0)
    00001FEC B7               [ 4] 5542 	or	a, a
    00001FED 28 0C            [12] 5543 	jr	Z, 00112$
                                   5544 ;E:\Dropbox\FAUSTO\SVILUPPI\MSX\CODE\C\MSXgl\projects\exsoccer/exsoccer_s2_b0.c:957: V9_PrintLayerAStringAtPos(0,0,"BRE");
    00001FEF 21r6Fr21         [10] 5545 	ld	hl, #___str_4
    00001FF2 E5               [11] 5546 	push	hl
                                   5547 ;	spillPairReg hl
                                   5548 ;	spillPairReg hl
    00001FF3 AF               [ 4] 5549 	xor	a, a
    00001FF4 6F               [ 4] 5550 	ld	l, a
    00001FF5 CDr00r00         [17] 5551 	call	_V9_PrintLayerAStringAtPos
    00001FF8 C3r28r20         [10] 5552 	jp	00117$
    00001FFB                       5553 00112$:
                                   5554 ;E:\Dropbox\FAUSTO\SVILUPPI\MSX\CODE\C\MSXgl\projects\exsoccer/exsoccer_s2_b0.c:960: V9_PrintLayerAStringAtPos(0,0,"AUS");
    00001FFB 21r67r21         [10] 5555 	ld	hl, #___str_2
    00001FFE E5               [11] 5556 	push	hl
                                   5557 ;	spillPairReg hl
                                   5558 ;	spillPairReg hl
    00001FFF AF               [ 4] 5559 	xor	a, a
    00002000 6F               [ 4] 5560 	ld	l, a
    00002001 CDr00r00         [17] 5561 	call	_V9_PrintLayerAStringAtPos
                                   5562 ;E:\Dropbox\FAUSTO\SVILUPPI\MSX\CODE\C\MSXgl\projects\exsoccer/exsoccer_s2_b0.c:962: break;
    00002004 C3r28r20         [10] 5563 	jp	00117$
                                   5564 ;E:\Dropbox\FAUSTO\SVILUPPI\MSX\CODE\C\MSXgl\projects\exsoccer/exsoccer_s2_b0.c:963: case TEAM_GBR:
    00002007                       5565 00114$:
                                   5566 ;E:\Dropbox\FAUSTO\SVILUPPI\MSX\CODE\C\MSXgl\projects\exsoccer/exsoccer_s2_b0.c:964: V9_PrintLayerAStringAtPos(0,0,"GBR");
    00002007 21r73r21         [10] 5567 	ld	hl, #___str_5
    0000200A E5               [11] 5568 	push	hl
                                   5569 ;	spillPairReg hl
                                   5570 ;	spillPairReg hl
    0000200B AF               [ 4] 5571 	xor	a, a
    0000200C 6F               [ 4] 5572 	ld	l, a
    0000200D CDr00r00         [17] 5573 	call	_V9_PrintLayerAStringAtPos
                                   5574 ;E:\Dropbox\FAUSTO\SVILUPPI\MSX\CODE\C\MSXgl\projects\exsoccer/exsoccer_s2_b0.c:965: break;
    00002010 C3r28r20         [10] 5575 	jp	00117$
                                   5576 ;E:\Dropbox\FAUSTO\SVILUPPI\MSX\CODE\C\MSXgl\projects\exsoccer/exsoccer_s2_b0.c:966: case TEAM_GER:
    00002013                       5577 00115$:
                                   5578 ;E:\Dropbox\FAUSTO\SVILUPPI\MSX\CODE\C\MSXgl\projects\exsoccer/exsoccer_s2_b0.c:967: V9_PrintLayerAStringAtPos(0,0,"GER");
    00002013 21r77r21         [10] 5579 	ld	hl, #___str_6
    00002016 E5               [11] 5580 	push	hl
                                   5581 ;	spillPairReg hl
                                   5582 ;	spillPairReg hl
    00002017 AF               [ 4] 5583 	xor	a, a
    00002018 6F               [ 4] 5584 	ld	l, a
    00002019 CDr00r00         [17] 5585 	call	_V9_PrintLayerAStringAtPos
                                   5586 ;E:\Dropbox\FAUSTO\SVILUPPI\MSX\CODE\C\MSXgl\projects\exsoccer/exsoccer_s2_b0.c:968: break;
    0000201C C3r28r20         [10] 5587 	jp	00117$
                                   5588 ;E:\Dropbox\FAUSTO\SVILUPPI\MSX\CODE\C\MSXgl\projects\exsoccer/exsoccer_s2_b0.c:969: case TEAM_FRA:
    0000201F                       5589 00116$:
                                   5590 ;E:\Dropbox\FAUSTO\SVILUPPI\MSX\CODE\C\MSXgl\projects\exsoccer/exsoccer_s2_b0.c:970: V9_PrintLayerAStringAtPos(0,0,"FRA");
    0000201F 21r7Br21         [10] 5591 	ld	hl, #___str_7
    00002022 E5               [11] 5592 	push	hl
                                   5593 ;	spillPairReg hl
                                   5594 ;	spillPairReg hl
    00002023 AF               [ 4] 5595 	xor	a, a
    00002024 6F               [ 4] 5596 	ld	l, a
    00002025 CDr00r00         [17] 5597 	call	_V9_PrintLayerAStringAtPos
                                   5598 ;E:\Dropbox\FAUSTO\SVILUPPI\MSX\CODE\C\MSXgl\projects\exsoccer/exsoccer_s2_b0.c:972: }
    00002028                       5599 00117$:
                                   5600 ;E:\Dropbox\FAUSTO\SVILUPPI\MSX\CODE\C\MSXgl\projects\exsoccer/exsoccer_s2_b0.c:973: V9_PrintLayerAStringAtPos(pos1,0,GetNumberString(g_Team1Score));
    00002028 3Ar00r00         [13] 5601 	ld	a, (_g_Team1Score+0)
    0000202B 6F               [ 4] 5602 	ld	l, a
                                   5603 ;	spillPairReg hl
                                   5604 ;	spillPairReg hl
    0000202C 26 00            [ 7] 5605 	ld	h, #0x00
                                   5606 ;	spillPairReg hl
                                   5607 ;	spillPairReg hl
    0000202E CDr2Dr29         [17] 5608 	call	_GetNumberString
    00002031 D5               [11] 5609 	push	de
    00002032 2E 00            [ 7] 5610 	ld	l, #0x00
                                   5611 ;	spillPairReg hl
                                   5612 ;	spillPairReg hl
    00002034 DD 7E FE         [19] 5613 	ld	a, -2 (ix)
    00002037 CDr00r00         [17] 5614 	call	_V9_PrintLayerAStringAtPos
                                   5615 ;E:\Dropbox\FAUSTO\SVILUPPI\MSX\CODE\C\MSXgl\projects\exsoccer/exsoccer_s2_b0.c:974: V9_PrintLayerAStringAtPos(7,0,"-");
    0000203A 21r7Fr21         [10] 5616 	ld	hl, #___str_8
    0000203D E5               [11] 5617 	push	hl
    0000203E 2E 00            [ 7] 5618 	ld	l, #0x00
                                   5619 ;	spillPairReg hl
                                   5620 ;	spillPairReg hl
    00002040 3E 07            [ 7] 5621 	ld	a, #0x07
    00002042 CDr00r00         [17] 5622 	call	_V9_PrintLayerAStringAtPos
                                   5623 ;E:\Dropbox\FAUSTO\SVILUPPI\MSX\CODE\C\MSXgl\projects\exsoccer/exsoccer_s2_b0.c:975: V9_PrintLayerAStringAtPos(pos2,0,GetNumberString(g_Team2Score));
    00002045 3Ar00r00         [13] 5624 	ld	a, (_g_Team2Score+0)
    00002048 6F               [ 4] 5625 	ld	l, a
                                   5626 ;	spillPairReg hl
                                   5627 ;	spillPairReg hl
    00002049 26 00            [ 7] 5628 	ld	h, #0x00
                                   5629 ;	spillPairReg hl
                                   5630 ;	spillPairReg hl
    0000204B CDr2Dr29         [17] 5631 	call	_GetNumberString
    0000204E D5               [11] 5632 	push	de
    0000204F 2E 00            [ 7] 5633 	ld	l, #0x00
                                   5634 ;	spillPairReg hl
                                   5635 ;	spillPairReg hl
    00002051 DD 7E FF         [19] 5636 	ld	a, -1 (ix)
    00002054 CDr00r00         [17] 5637 	call	_V9_PrintLayerAStringAtPos
                                   5638 ;E:\Dropbox\FAUSTO\SVILUPPI\MSX\CODE\C\MSXgl\projects\exsoccer/exsoccer_s2_b0.c:976: switch (g_Team2PaletteId){
    00002057 3E 05            [ 7] 5639 	ld	a, #0x05
    00002059 FD 21r00r00      [14] 5640 	ld	iy, #_g_Team2PaletteId
    0000205D FD 96 00         [19] 5641 	sub	a, 0 (iy)
    00002060 DArFAr20         [10] 5642 	jp	C, 00130$
    00002063 FD 4E 00         [19] 5643 	ld	c, 0 (iy)
    00002066 06 00            [ 7] 5644 	ld	b, #0x00
    00002068 21r6Fr20         [10] 5645 	ld	hl, #00182$
    0000206B 09               [11] 5646 	add	hl, bc
    0000206C 09               [11] 5647 	add	hl, bc
    0000206D 09               [11] 5648 	add	hl, bc
    0000206E E9               [ 4] 5649 	jp	(hl)
    0000206F                       5650 00182$:
    0000206F C3r81r20         [10] 5651 	jp	00118$
    00002072 C3rA3r20         [10] 5652 	jp	00122$
    00002075 C3rB1r20         [10] 5653 	jp	00123$
    00002078 C3rEFr20         [10] 5654 	jp	00129$
    0000207B C3rD3r20         [10] 5655 	jp	00127$
    0000207E C3rE1r20         [10] 5656 	jp	00128$
                                   5657 ;E:\Dropbox\FAUSTO\SVILUPPI\MSX\CODE\C\MSXgl\projects\exsoccer/exsoccer_s2_b0.c:977: case TEAM_AUS:
    00002081                       5658 00118$:
                                   5659 ;E:\Dropbox\FAUSTO\SVILUPPI\MSX\CODE\C\MSXgl\projects\exsoccer/exsoccer_s2_b0.c:978: if(g_FioBre){
    00002081 3Ar00r00         [13] 5660 	ld	a, (_g_FioBre+0)
    00002084 B7               [ 4] 5661 	or	a, a
    00002085 28 0E            [12] 5662 	jr	Z, 00120$
                                   5663 ;E:\Dropbox\FAUSTO\SVILUPPI\MSX\CODE\C\MSXgl\projects\exsoccer/exsoccer_s2_b0.c:979: V9_PrintLayerAStringAtPos(12,0,"FIO");
    00002087 21r63r21         [10] 5664 	ld	hl, #___str_1
    0000208A E5               [11] 5665 	push	hl
    0000208B 2E 00            [ 7] 5666 	ld	l, #0x00
                                   5667 ;	spillPairReg hl
                                   5668 ;	spillPairReg hl
    0000208D 3E 0C            [ 7] 5669 	ld	a, #0x0c
    0000208F CDr00r00         [17] 5670 	call	_V9_PrintLayerAStringAtPos
    00002092 C3rFAr20         [10] 5671 	jp	00130$
    00002095                       5672 00120$:
                                   5673 ;E:\Dropbox\FAUSTO\SVILUPPI\MSX\CODE\C\MSXgl\projects\exsoccer/exsoccer_s2_b0.c:982: V9_PrintLayerAStringAtPos(12,0,"AUS");
    00002095 21r67r21         [10] 5674 	ld	hl, #___str_2
    00002098 E5               [11] 5675 	push	hl
    00002099 2E 00            [ 7] 5676 	ld	l, #0x00
                                   5677 ;	spillPairReg hl
                                   5678 ;	spillPairReg hl
    0000209B 3E 0C            [ 7] 5679 	ld	a, #0x0c
    0000209D CDr00r00         [17] 5680 	call	_V9_PrintLayerAStringAtPos
                                   5681 ;E:\Dropbox\FAUSTO\SVILUPPI\MSX\CODE\C\MSXgl\projects\exsoccer/exsoccer_s2_b0.c:984: break; 
    000020A0 C3rFAr20         [10] 5682 	jp	00130$
                                   5683 ;E:\Dropbox\FAUSTO\SVILUPPI\MSX\CODE\C\MSXgl\projects\exsoccer/exsoccer_s2_b0.c:985: case TEAM_BRA:
    000020A3                       5684 00122$:
                                   5685 ;E:\Dropbox\FAUSTO\SVILUPPI\MSX\CODE\C\MSXgl\projects\exsoccer/exsoccer_s2_b0.c:986: V9_PrintLayerAStringAtPos(12,0,"BRA");
    000020A3 21r6Br21         [10] 5686 	ld	hl, #___str_3
    000020A6 E5               [11] 5687 	push	hl
    000020A7 2E 00            [ 7] 5688 	ld	l, #0x00
                                   5689 ;	spillPairReg hl
                                   5690 ;	spillPairReg hl
    000020A9 3E 0C            [ 7] 5691 	ld	a, #0x0c
    000020AB CDr00r00         [17] 5692 	call	_V9_PrintLayerAStringAtPos
                                   5693 ;E:\Dropbox\FAUSTO\SVILUPPI\MSX\CODE\C\MSXgl\projects\exsoccer/exsoccer_s2_b0.c:987: break;
    000020AE C3rFAr20         [10] 5694 	jp	00130$
                                   5695 ;E:\Dropbox\FAUSTO\SVILUPPI\MSX\CODE\C\MSXgl\projects\exsoccer/exsoccer_s2_b0.c:988: case TEAM_ITA:
    000020B1                       5696 00123$:
                                   5697 ;E:\Dropbox\FAUSTO\SVILUPPI\MSX\CODE\C\MSXgl\projects\exsoccer/exsoccer_s2_b0.c:989: if(g_FioBre){
    000020B1 3Ar00r00         [13] 5698 	ld	a, (_g_FioBre+0)
    000020B4 B7               [ 4] 5699 	or	a, a
    000020B5 28 0E            [12] 5700 	jr	Z, 00125$
                                   5701 ;E:\Dropbox\FAUSTO\SVILUPPI\MSX\CODE\C\MSXgl\projects\exsoccer/exsoccer_s2_b0.c:990: V9_PrintLayerAStringAtPos(12,0,"BRE");
    000020B7 21r6Fr21         [10] 5702 	ld	hl, #___str_4
    000020BA E5               [11] 5703 	push	hl
    000020BB 2E 00            [ 7] 5704 	ld	l, #0x00
                                   5705 ;	spillPairReg hl
                                   5706 ;	spillPairReg hl
    000020BD 3E 0C            [ 7] 5707 	ld	a, #0x0c
    000020BF CDr00r00         [17] 5708 	call	_V9_PrintLayerAStringAtPos
    000020C2 C3rFAr20         [10] 5709 	jp	00130$
    000020C5                       5710 00125$:
                                   5711 ;E:\Dropbox\FAUSTO\SVILUPPI\MSX\CODE\C\MSXgl\projects\exsoccer/exsoccer_s2_b0.c:993: V9_PrintLayerAStringAtPos(12,0,"AUS");
    000020C5 21r67r21         [10] 5712 	ld	hl, #___str_2
    000020C8 E5               [11] 5713 	push	hl
    000020C9 2E 00            [ 7] 5714 	ld	l, #0x00
                                   5715 ;	spillPairReg hl
                                   5716 ;	spillPairReg hl
    000020CB 3E 0C            [ 7] 5717 	ld	a, #0x0c
    000020CD CDr00r00         [17] 5718 	call	_V9_PrintLayerAStringAtPos
                                   5719 ;E:\Dropbox\FAUSTO\SVILUPPI\MSX\CODE\C\MSXgl\projects\exsoccer/exsoccer_s2_b0.c:995: break;
    000020D0 C3rFAr20         [10] 5720 	jp	00130$
                                   5721 ;E:\Dropbox\FAUSTO\SVILUPPI\MSX\CODE\C\MSXgl\projects\exsoccer/exsoccer_s2_b0.c:996: case TEAM_GBR:
    000020D3                       5722 00127$:
                                   5723 ;E:\Dropbox\FAUSTO\SVILUPPI\MSX\CODE\C\MSXgl\projects\exsoccer/exsoccer_s2_b0.c:997: V9_PrintLayerAStringAtPos(12,0,"GBR");
    000020D3 21r73r21         [10] 5724 	ld	hl, #___str_5
    000020D6 E5               [11] 5725 	push	hl
    000020D7 2E 00            [ 7] 5726 	ld	l, #0x00
                                   5727 ;	spillPairReg hl
                                   5728 ;	spillPairReg hl
    000020D9 3E 0C            [ 7] 5729 	ld	a, #0x0c
    000020DB CDr00r00         [17] 5730 	call	_V9_PrintLayerAStringAtPos
                                   5731 ;E:\Dropbox\FAUSTO\SVILUPPI\MSX\CODE\C\MSXgl\projects\exsoccer/exsoccer_s2_b0.c:998: break;
    000020DE C3rFAr20         [10] 5732 	jp	00130$
                                   5733 ;E:\Dropbox\FAUSTO\SVILUPPI\MSX\CODE\C\MSXgl\projects\exsoccer/exsoccer_s2_b0.c:999: case TEAM_GER:
    000020E1                       5734 00128$:
                                   5735 ;E:\Dropbox\FAUSTO\SVILUPPI\MSX\CODE\C\MSXgl\projects\exsoccer/exsoccer_s2_b0.c:1000: V9_PrintLayerAStringAtPos(12,0,"GER");
    000020E1 21r77r21         [10] 5736 	ld	hl, #___str_6
    000020E4 E5               [11] 5737 	push	hl
    000020E5 2E 00            [ 7] 5738 	ld	l, #0x00
                                   5739 ;	spillPairReg hl
                                   5740 ;	spillPairReg hl
    000020E7 3E 0C            [ 7] 5741 	ld	a, #0x0c
    000020E9 CDr00r00         [17] 5742 	call	_V9_PrintLayerAStringAtPos
                                   5743 ;E:\Dropbox\FAUSTO\SVILUPPI\MSX\CODE\C\MSXgl\projects\exsoccer/exsoccer_s2_b0.c:1001: break;
    000020EC C3rFAr20         [10] 5744 	jp	00130$
                                   5745 ;E:\Dropbox\FAUSTO\SVILUPPI\MSX\CODE\C\MSXgl\projects\exsoccer/exsoccer_s2_b0.c:1002: case TEAM_FRA:
    000020EF                       5746 00129$:
                                   5747 ;E:\Dropbox\FAUSTO\SVILUPPI\MSX\CODE\C\MSXgl\projects\exsoccer/exsoccer_s2_b0.c:1003: V9_PrintLayerAStringAtPos(12,0,"FRA");
    000020EF 21r7Br21         [10] 5748 	ld	hl, #___str_7
    000020F2 E5               [11] 5749 	push	hl
    000020F3 2E 00            [ 7] 5750 	ld	l, #0x00
                                   5751 ;	spillPairReg hl
                                   5752 ;	spillPairReg hl
    000020F5 3E 0C            [ 7] 5753 	ld	a, #0x0c
    000020F7 CDr00r00         [17] 5754 	call	_V9_PrintLayerAStringAtPos
                                   5755 ;E:\Dropbox\FAUSTO\SVILUPPI\MSX\CODE\C\MSXgl\projects\exsoccer/exsoccer_s2_b0.c:1005: }
    000020FA                       5756 00130$:
                                   5757 ;E:\Dropbox\FAUSTO\SVILUPPI\MSX\CODE\C\MSXgl\projects\exsoccer/exsoccer_s2_b0.c:1006: u8 minutes=g_SecondsToEndOfMatch / 60;
    000020FA 3Ar00r00         [13] 5758 	ld	a, (_g_SecondsToEndOfMatch+0)
    000020FD 6F               [ 4] 5759 	ld	l, a
                                   5760 ;	spillPairReg hl
                                   5761 ;	spillPairReg hl
    000020FE 26 00            [ 7] 5762 	ld	h, #0x00
                                   5763 ;	spillPairReg hl
                                   5764 ;	spillPairReg hl
    00002100 11 3C 00         [10] 5765 	ld	de, #0x003c
    00002103 CDr00r00         [17] 5766 	call	__divsint
                                   5767 ;E:\Dropbox\FAUSTO\SVILUPPI\MSX\CODE\C\MSXgl\projects\exsoccer/exsoccer_s2_b0.c:1007: u8 seconds=g_SecondsToEndOfMatch - minutes*60;
    00002106 7B               [ 4] 5768 	ld	a, e
    00002107 4F               [ 4] 5769 	ld	c, a
    00002108 87               [ 4] 5770 	add	a, a
    00002109 87               [ 4] 5771 	add	a, a
    0000210A 87               [ 4] 5772 	add	a, a
    0000210B 87               [ 4] 5773 	add	a, a
    0000210C 91               [ 4] 5774 	sub	a, c
    0000210D 87               [ 4] 5775 	add	a, a
    0000210E 87               [ 4] 5776 	add	a, a
    0000210F 4F               [ 4] 5777 	ld	c, a
    00002110 3Ar00r00         [13] 5778 	ld	a, (_g_SecondsToEndOfMatch+0)
    00002113 91               [ 4] 5779 	sub	a, c
    00002114 4F               [ 4] 5780 	ld	c, a
                                   5781 ;E:\Dropbox\FAUSTO\SVILUPPI\MSX\CODE\C\MSXgl\projects\exsoccer/exsoccer_s2_b0.c:1008: V9_PrintLayerAStringAtPos(28,0,GetNumberString(minutes));
    00002115 16 00            [ 7] 5782 	ld	d, #0x00
    00002117 C5               [11] 5783 	push	bc
    00002118 EB               [ 4] 5784 	ex	de, hl
    00002119 CDr2Dr29         [17] 5785 	call	_GetNumberString
    0000211C D5               [11] 5786 	push	de
    0000211D 2E 00            [ 7] 5787 	ld	l, #0x00
                                   5788 ;	spillPairReg hl
                                   5789 ;	spillPairReg hl
    0000211F 3E 1C            [ 7] 5790 	ld	a, #0x1c
    00002121 CDr00r00         [17] 5791 	call	_V9_PrintLayerAStringAtPos
    00002124 21r81r21         [10] 5792 	ld	hl, #___str_9
    00002127 E5               [11] 5793 	push	hl
    00002128 2E 00            [ 7] 5794 	ld	l, #0x00
                                   5795 ;	spillPairReg hl
                                   5796 ;	spillPairReg hl
    0000212A 3E 1D            [ 7] 5797 	ld	a, #0x1d
    0000212C CDr00r00         [17] 5798 	call	_V9_PrintLayerAStringAtPos
    0000212F C1               [10] 5799 	pop	bc
                                   5800 ;E:\Dropbox\FAUSTO\SVILUPPI\MSX\CODE\C\MSXgl\projects\exsoccer/exsoccer_s2_b0.c:1011: V9_PrintLayerAStringAtPos(30,0,GetNumberString(seconds));
    00002130 69               [ 4] 5801 	ld	l, c
                                   5802 ;	spillPairReg hl
                                   5803 ;	spillPairReg hl
    00002131 26 00            [ 7] 5804 	ld	h, #0x00
                                   5805 ;	spillPairReg hl
                                   5806 ;	spillPairReg hl
                                   5807 ;E:\Dropbox\FAUSTO\SVILUPPI\MSX\CODE\C\MSXgl\projects\exsoccer/exsoccer_s2_b0.c:1010: if(seconds>=10){
    00002133 79               [ 4] 5808 	ld	a, c
    00002134 D6 0A            [ 7] 5809 	sub	a, #0x0a
    00002136 38 0E            [12] 5810 	jr	C, 00132$
                                   5811 ;E:\Dropbox\FAUSTO\SVILUPPI\MSX\CODE\C\MSXgl\projects\exsoccer/exsoccer_s2_b0.c:1011: V9_PrintLayerAStringAtPos(30,0,GetNumberString(seconds));
    00002138 CDr2Dr29         [17] 5812 	call	_GetNumberString
    0000213B D5               [11] 5813 	push	de
    0000213C 2E 00            [ 7] 5814 	ld	l, #0x00
                                   5815 ;	spillPairReg hl
                                   5816 ;	spillPairReg hl
    0000213E 3E 1E            [ 7] 5817 	ld	a, #0x1e
    00002140 CDr00r00         [17] 5818 	call	_V9_PrintLayerAStringAtPos
    00002143 C3r5Er21         [10] 5819 	jp	00134$
    00002146                       5820 00132$:
                                   5821 ;E:\Dropbox\FAUSTO\SVILUPPI\MSX\CODE\C\MSXgl\projects\exsoccer/exsoccer_s2_b0.c:1014: V9_PrintLayerAStringAtPos(30,0,"0");
    00002146 01r83r21         [10] 5822 	ld	bc, #___str_10+0
    00002149 E5               [11] 5823 	push	hl
    0000214A C5               [11] 5824 	push	bc
    0000214B 2E 00            [ 7] 5825 	ld	l, #0x00
                                   5826 ;	spillPairReg hl
                                   5827 ;	spillPairReg hl
    0000214D 3E 1E            [ 7] 5828 	ld	a, #0x1e
    0000214F CDr00r00         [17] 5829 	call	_V9_PrintLayerAStringAtPos
    00002152 E1               [10] 5830 	pop	hl
                                   5831 ;E:\Dropbox\FAUSTO\SVILUPPI\MSX\CODE\C\MSXgl\projects\exsoccer/exsoccer_s2_b0.c:1015: V9_PrintLayerAStringAtPos(31,0,GetNumberString(seconds));
    00002153 CDr2Dr29         [17] 5832 	call	_GetNumberString
    00002156 D5               [11] 5833 	push	de
    00002157 2E 00            [ 7] 5834 	ld	l, #0x00
                                   5835 ;	spillPairReg hl
                                   5836 ;	spillPairReg hl
    00002159 3E 1F            [ 7] 5837 	ld	a, #0x1f
    0000215B CDr00r00         [17] 5838 	call	_V9_PrintLayerAStringAtPos
    0000215E                       5839 00134$:
                                   5840 ;E:\Dropbox\FAUSTO\SVILUPPI\MSX\CODE\C\MSXgl\projects\exsoccer/exsoccer_s2_b0.c:1017: }
    0000215E DD F9            [10] 5841 	ld	sp, ix
    00002160 DD E1            [14] 5842 	pop	ix
    00002162 C9               [10] 5843 	ret
    00002163                       5844 ___str_1:
    00002163 46 49 4F              5845 	.ascii "FIO"
    00002166 00                    5846 	.db 0x00
    00002167                       5847 ___str_2:
    00002167 41 55 53              5848 	.ascii "AUS"
    0000216A 00                    5849 	.db 0x00
    0000216B                       5850 ___str_3:
    0000216B 42 52 41              5851 	.ascii "BRA"
    0000216E 00                    5852 	.db 0x00
    0000216F                       5853 ___str_4:
    0000216F 42 52 45              5854 	.ascii "BRE"
    00002172 00                    5855 	.db 0x00
    00002173                       5856 ___str_5:
    00002173 47 42 52              5857 	.ascii "GBR"
    00002176 00                    5858 	.db 0x00
    00002177                       5859 ___str_6:
    00002177 47 45 52              5860 	.ascii "GER"
    0000217A 00                    5861 	.db 0x00
    0000217B                       5862 ___str_7:
    0000217B 46 52 41              5863 	.ascii "FRA"
    0000217E 00                    5864 	.db 0x00
    0000217F                       5865 ___str_8:
    0000217F 2D                    5866 	.ascii "-"
    00002180 00                    5867 	.db 0x00
    00002181                       5868 ___str_9:
    00002181 3A                    5869 	.ascii ":"
    00002182 00                    5870 	.db 0x00
    00002183                       5871 ___str_10:
    00002183 30                    5872 	.ascii "0"
    00002184 00                    5873 	.db 0x00
                                   5874 ;E:\Dropbox\FAUSTO\SVILUPPI\MSX\CODE\C\MSXgl\projects\exsoccer/exsoccer_s2_b0.c:1020: void V9_PutLayerATileAtPos(u8 x, u8 y, u16 tileId) {
                                   5875 ;	---------------------------------
                                   5876 ; Function V9_PutLayerATileAtPos
                                   5877 ; ---------------------------------
    00002185                       5878 _V9_PutLayerATileAtPos::
    00002185 DD E5            [15] 5879 	push	ix
    00002187 DD 21 00 00      [14] 5880 	ld	ix,#0
    0000218B DD 39            [15] 5881 	add	ix,sp
    0000218D 5F               [ 4] 5882 	ld	e, a
                                   5883 ;E:\Dropbox\FAUSTO\SVILUPPI\MSX\CODE\C\MSXgl\projects\exsoccer/exsoccer_s2_b0.c:1021: V9_Poke16(V9_CellAddrP1A(x,y), tileId);
    0000218E DD 4E 04         [19] 5884 	ld	c, 4 (ix)
    00002191 DD 46 05         [19] 5885 	ld	b, 5 (ix)
                                   5886 ;E:/Dropbox/FAUSTO/SVILUPPI/MSX/CODE/C/MSXgl/engine/src/v9990.h:1426: inline u32 V9_CellAddrP1A(u8 x, u8 y) { return V9_P1_PNT_A + (((64 * y) + x) * 2); }
    00002194 26 00            [ 7] 5887 	ld	h, #0x00
                                   5888 ;	spillPairReg hl
                                   5889 ;	spillPairReg hl
    00002196 29               [11] 5890 	add	hl, hl
    00002197 29               [11] 5891 	add	hl, hl
    00002198 29               [11] 5892 	add	hl, hl
    00002199 29               [11] 5893 	add	hl, hl
    0000219A 29               [11] 5894 	add	hl, hl
    0000219B 29               [11] 5895 	add	hl, hl
    0000219C 16 00            [ 7] 5896 	ld	d, #0x00
    0000219E 19               [11] 5897 	add	hl, de
    0000219F 29               [11] 5898 	add	hl, hl
    000021A0 7C               [ 4] 5899 	ld	a, h
    000021A1 07               [ 4] 5900 	rlca
    000021A2 9F               [ 4] 5901 	sbc	a, a
    000021A3 5F               [ 4] 5902 	ld	e, a
    000021A4 57               [ 4] 5903 	ld	d, a
    000021A5 7C               [ 4] 5904 	ld	a, h
    000021A6 C6 C0            [ 7] 5905 	add	a, #0xc0
    000021A8 67               [ 4] 5906 	ld	h, a
                                   5907 ;	spillPairReg hl
                                   5908 ;	spillPairReg hl
    000021A9 7B               [ 4] 5909 	ld	a, e
    000021AA CE 07            [ 7] 5910 	adc	a, #0x07
    000021AC 5F               [ 4] 5911 	ld	e, a
    000021AD 30 01            [12] 5912 	jr	NC, 00105$
    000021AF 14               [ 4] 5913 	inc	d
    000021B0                       5914 00105$:
                                   5915 ;E:/Dropbox/FAUSTO/SVILUPPI/MSX/CODE/C/MSXgl/engine/src/v9990.h:396: inline void V9_Poke16(u32 addr, u16 val) { V9_SetWriteAddress(addr); V9_Poke16_CurrentAddr(val); }
    000021B0 C5               [11] 5916 	push	bc
    000021B1 EB               [ 4] 5917 	ex	de, hl
    000021B2 CDr00r00         [17] 5918 	call	_V9_SetWriteAddress
    000021B5 C1               [10] 5919 	pop	bc
    000021B6 69               [ 4] 5920 	ld	l, c
                                   5921 ;	spillPairReg hl
                                   5922 ;	spillPairReg hl
    000021B7 60               [ 4] 5923 	ld	h, b
                                   5924 ;	spillPairReg hl
                                   5925 ;	spillPairReg hl
    000021B8 CDr00r00         [17] 5926 	call	_V9_Poke16_CurrentAddr
                                   5927 ;E:\Dropbox\FAUSTO\SVILUPPI\MSX\CODE\C\MSXgl\projects\exsoccer/exsoccer_s2_b0.c:1021: V9_Poke16(V9_CellAddrP1A(x,y), tileId);
                                   5928 ;E:\Dropbox\FAUSTO\SVILUPPI\MSX\CODE\C\MSXgl\projects\exsoccer/exsoccer_s2_b0.c:1022: }
    000021BB DD E1            [14] 5929 	pop	ix
    000021BD E1               [10] 5930 	pop	hl
    000021BE F1               [10] 5931 	pop	af
    000021BF E9               [ 4] 5932 	jp	(hl)
                                   5933 ;E:\Dropbox\FAUSTO\SVILUPPI\MSX\CODE\C\MSXgl\projects\exsoccer/exsoccer_s2_b0.c:1023: void V9_PutLayerBTileAtPos(u8 x, u8 y, u16 tileId) {
                                   5934 ;	---------------------------------
                                   5935 ; Function V9_PutLayerBTileAtPos
                                   5936 ; ---------------------------------
    000021C0                       5937 _V9_PutLayerBTileAtPos::
    000021C0 DD E5            [15] 5938 	push	ix
    000021C2 DD 21 00 00      [14] 5939 	ld	ix,#0
    000021C6 DD 39            [15] 5940 	add	ix,sp
    000021C8 5F               [ 4] 5941 	ld	e, a
                                   5942 ;E:\Dropbox\FAUSTO\SVILUPPI\MSX\CODE\C\MSXgl\projects\exsoccer/exsoccer_s2_b0.c:1024: V9_Poke16(V9_CellAddrP1B(x,y), tileId);
    000021C9 DD 4E 04         [19] 5943 	ld	c, 4 (ix)
    000021CC DD 46 05         [19] 5944 	ld	b, 5 (ix)
                                   5945 ;E:/Dropbox/FAUSTO/SVILUPPI/MSX/CODE/C/MSXgl/engine/src/v9990.h:1437: inline u32 V9_CellAddrP1B(u8 x, u8 y) { return V9_P1_PNT_B + (((64 * y) + x) * 2); }
    000021CF 26 00            [ 7] 5946 	ld	h, #0x00
                                   5947 ;	spillPairReg hl
                                   5948 ;	spillPairReg hl
    000021D1 29               [11] 5949 	add	hl, hl
    000021D2 29               [11] 5950 	add	hl, hl
    000021D3 29               [11] 5951 	add	hl, hl
    000021D4 29               [11] 5952 	add	hl, hl
    000021D5 29               [11] 5953 	add	hl, hl
    000021D6 29               [11] 5954 	add	hl, hl
    000021D7 16 00            [ 7] 5955 	ld	d, #0x00
    000021D9 19               [11] 5956 	add	hl, de
    000021DA 29               [11] 5957 	add	hl, hl
    000021DB 7C               [ 4] 5958 	ld	a, h
    000021DC 07               [ 4] 5959 	rlca
    000021DD 9F               [ 4] 5960 	sbc	a, a
    000021DE 5F               [ 4] 5961 	ld	e, a
    000021DF 57               [ 4] 5962 	ld	d, a
    000021E0 7C               [ 4] 5963 	ld	a, h
    000021E1 C6 E0            [ 7] 5964 	add	a, #0xe0
    000021E3 67               [ 4] 5965 	ld	h, a
                                   5966 ;	spillPairReg hl
                                   5967 ;	spillPairReg hl
    000021E4 7B               [ 4] 5968 	ld	a, e
    000021E5 CE 07            [ 7] 5969 	adc	a, #0x07
    000021E7 5F               [ 4] 5970 	ld	e, a
    000021E8 30 01            [12] 5971 	jr	NC, 00105$
    000021EA 14               [ 4] 5972 	inc	d
    000021EB                       5973 00105$:
                                   5974 ;E:/Dropbox/FAUSTO/SVILUPPI/MSX/CODE/C/MSXgl/engine/src/v9990.h:396: inline void V9_Poke16(u32 addr, u16 val) { V9_SetWriteAddress(addr); V9_Poke16_CurrentAddr(val); }
    000021EB C5               [11] 5975 	push	bc
    000021EC EB               [ 4] 5976 	ex	de, hl
    000021ED CDr00r00         [17] 5977 	call	_V9_SetWriteAddress
    000021F0 C1               [10] 5978 	pop	bc
    000021F1 69               [ 4] 5979 	ld	l, c
                                   5980 ;	spillPairReg hl
                                   5981 ;	spillPairReg hl
    000021F2 60               [ 4] 5982 	ld	h, b
                                   5983 ;	spillPairReg hl
                                   5984 ;	spillPairReg hl
    000021F3 CDr00r00         [17] 5985 	call	_V9_Poke16_CurrentAddr
                                   5986 ;E:\Dropbox\FAUSTO\SVILUPPI\MSX\CODE\C\MSXgl\projects\exsoccer/exsoccer_s2_b0.c:1024: V9_Poke16(V9_CellAddrP1B(x,y), tileId);
                                   5987 ;E:\Dropbox\FAUSTO\SVILUPPI\MSX\CODE\C\MSXgl\projects\exsoccer/exsoccer_s2_b0.c:1025: }
    000021F6 DD E1            [14] 5988 	pop	ix
    000021F8 E1               [10] 5989 	pop	hl
    000021F9 F1               [10] 5990 	pop	af
    000021FA E9               [ 4] 5991 	jp	(hl)
                                   5992 ;E:\Dropbox\FAUSTO\SVILUPPI\MSX\CODE\C\MSXgl\projects\exsoccer/exsoccer_s2_b0.c:1026: void PutPlayerSprite(u8 playerId){
                                   5993 ;	---------------------------------
                                   5994 ; Function PutPlayerSprite
                                   5995 ; ---------------------------------
    000021FB                       5996 _PutPlayerSprite::
    000021FB DD E5            [15] 5997 	push	ix
    000021FD DD 21 00 00      [14] 5998 	ld	ix,#0
    00002201 DD 39            [15] 5999 	add	ix,sp
    00002203 21 F4 FF         [10] 6000 	ld	hl, #-12
    00002206 39               [11] 6001 	add	hl, sp
    00002207 F9               [ 6] 6002 	ld	sp, hl
    00002208 4F               [ 4] 6003 	ld	c, a
                                   6004 ;E:\Dropbox\FAUSTO\SVILUPPI\MSX\CODE\C\MSXgl\projects\exsoccer/exsoccer_s2_b0.c:1028: attr.D=0;
    00002209 21 00 00         [10] 6005 	ld	hl, #0
    0000220C 39               [11] 6006 	add	hl, sp
    0000220D EB               [ 4] 6007 	ex	de, hl
    0000220E 21 03 00         [10] 6008 	ld	hl, #3
    00002211 39               [11] 6009 	add	hl, sp
    00002212 CB A6            [15] 6010 	res	4, (hl)
                                   6011 ;E:\Dropbox\FAUSTO\SVILUPPI\MSX\CODE\C\MSXgl\projects\exsoccer/exsoccer_s2_b0.c:1029: attr.SC=2;
    00002214 21 03 00         [10] 6012 	ld	hl, #3
    00002217 39               [11] 6013 	add	hl, sp
    00002218 7E               [ 7] 6014 	ld	a, (hl)
    00002219 E6 3F            [ 7] 6015 	and	a, #0x3f
    0000221B F6 80            [ 7] 6016 	or	a, #0x80
    0000221D 77               [ 7] 6017 	ld	(hl), a
                                   6018 ;E:\Dropbox\FAUSTO\SVILUPPI\MSX\CODE\C\MSXgl\projects\exsoccer/exsoccer_s2_b0.c:1030: u16 minY=g_FieldCurrentYPosition+16;
    0000221E 3Ar00r00         [13] 6019 	ld	a, (_g_FieldCurrentYPosition+0)
    00002221 C6 10            [ 7] 6020 	add	a, #0x10
    00002223 DD 77 FE         [19] 6021 	ld	-2 (ix), a
    00002226 3Ar01r00         [13] 6022 	ld	a, (_g_FieldCurrentYPosition+1)
    00002229 CE 00            [ 7] 6023 	adc	a, #0x00
    0000222B DD 77 FF         [19] 6024 	ld	-1 (ix), a
    0000222E DD 7E FE         [19] 6025 	ld	a, -2 (ix)
    00002231 DD 77 F8         [19] 6026 	ld	-8 (ix), a
    00002234 DD 7E FF         [19] 6027 	ld	a, -1 (ix)
    00002237 DD 77 F9         [19] 6028 	ld	-7 (ix), a
                                   6029 ;E:\Dropbox\FAUSTO\SVILUPPI\MSX\CODE\C\MSXgl\projects\exsoccer/exsoccer_s2_b0.c:1031: u16 maxY=g_FieldCurrentYPosition+235;
    0000223A 3Ar00r00         [13] 6030 	ld	a, (_g_FieldCurrentYPosition+0)
    0000223D C6 EB            [ 7] 6031 	add	a, #0xeb
    0000223F DD 77 FE         [19] 6032 	ld	-2 (ix), a
    00002242 3Ar01r00         [13] 6033 	ld	a, (_g_FieldCurrentYPosition+1)
    00002245 CE 00            [ 7] 6034 	adc	a, #0x00
    00002247 DD 77 FF         [19] 6035 	ld	-1 (ix), a
    0000224A DD 7E FE         [19] 6036 	ld	a, -2 (ix)
    0000224D DD 77 FA         [19] 6037 	ld	-6 (ix), a
    00002250 DD 7E FF         [19] 6038 	ld	a, -1 (ix)
    00002253 DD 77 FB         [19] 6039 	ld	-5 (ix), a
                                   6040 ;E:\Dropbox\FAUSTO\SVILUPPI\MSX\CODE\C\MSXgl\projects\exsoccer/exsoccer_s2_b0.c:1033: attr.Y = g_Players[playerId].Y-g_FieldCurrentYPosition;
    00002256 06 00            [ 7] 6041 	ld	b, #0x00
    00002258 69               [ 4] 6042 	ld	l, c
    00002259 60               [ 4] 6043 	ld	h, b
    0000225A 29               [11] 6044 	add	hl, hl
    0000225B 29               [11] 6045 	add	hl, hl
    0000225C 29               [11] 6046 	add	hl, hl
    0000225D 29               [11] 6047 	add	hl, hl
    0000225E 09               [11] 6048 	add	hl, bc
    0000225F 3Er00            [ 7] 6049 	ld	a, #<(_g_Players)
    00002261 85               [ 4] 6050 	add	a, l
    00002262 DD 77 FC         [19] 6051 	ld	-4 (ix), a
    00002265 3Es00            [ 7] 6052 	ld	a, #>(_g_Players)
    00002267 8C               [ 4] 6053 	adc	a, h
    00002268 DD 77 FD         [19] 6054 	ld	-3 (ix), a
    0000226B DD 6E FC         [19] 6055 	ld	l, -4 (ix)
    0000226E DD 66 FD         [19] 6056 	ld	h, -3 (ix)
    00002271 6E               [ 7] 6057 	ld	l, (hl)
                                   6058 ;	spillPairReg hl
    00002272 3Ar00r00         [13] 6059 	ld	a, (_g_FieldCurrentYPosition+0)
    00002275 47               [ 4] 6060 	ld	b, a
    00002276 7D               [ 4] 6061 	ld	a, l
    00002277 90               [ 4] 6062 	sub	a, b
    00002278 12               [ 7] 6063 	ld	(de), a
                                   6064 ;E:\Dropbox\FAUSTO\SVILUPPI\MSX\CODE\C\MSXgl\projects\exsoccer/exsoccer_s2_b0.c:1034: if(g_Players[playerId].TeamId==TEAM_2){
    00002279 DD 7E FC         [19] 6065 	ld	a, -4 (ix)
    0000227C C6 05            [ 7] 6066 	add	a, #0x05
    0000227E DD 77 FE         [19] 6067 	ld	-2 (ix), a
    00002281 DD 7E FD         [19] 6068 	ld	a, -3 (ix)
    00002284 CE 00            [ 7] 6069 	adc	a, #0x00
    00002286 DD 77 FF         [19] 6070 	ld	-1 (ix), a
    00002289 DD 6E FE         [19] 6071 	ld	l, -2 (ix)
    0000228C DD 66 FF         [19] 6072 	ld	h, -1 (ix)
    0000228F 7E               [ 7] 6073 	ld	a, (hl)
    00002290 D6 02            [ 7] 6074 	sub	a, #0x02
    00002292 20 08            [12] 6075 	jr	NZ, 00102$
                                   6076 ;E:\Dropbox\FAUSTO\SVILUPPI\MSX\CODE\C\MSXgl\projects\exsoccer/exsoccer_s2_b0.c:1035: attr.SC=3;
    00002294 21 03 00         [10] 6077 	ld	hl, #3
    00002297 39               [11] 6078 	add	hl, sp
    00002298 7E               [ 7] 6079 	ld	a, (hl)
    00002299 F6 C0            [ 7] 6080 	or	a, #0xc0
    0000229B 77               [ 7] 6081 	ld	(hl), a
    0000229C                       6082 00102$:
                                   6083 ;E:\Dropbox\FAUSTO\SVILUPPI\MSX\CODE\C\MSXgl\projects\exsoccer/exsoccer_s2_b0.c:1037: if(g_Players[playerId].Role==PLAYER_ROLE_GOALKEEPER){
    0000229C DD 6E FC         [19] 6084 	ld	l, -4 (ix)
                                   6085 ;	spillPairReg hl
                                   6086 ;	spillPairReg hl
    0000229F DD 66 FD         [19] 6087 	ld	h, -3 (ix)
                                   6088 ;	spillPairReg hl
                                   6089 ;	spillPairReg hl
    000022A2 C5               [11] 6090 	push	bc
    000022A3 01 09 00         [10] 6091 	ld	bc, #0x0009
    000022A6 09               [11] 6092 	add	hl, bc
    000022A7 C1               [10] 6093 	pop	bc
    000022A8 7E               [ 7] 6094 	ld	a, (hl)
    000022A9 B7               [ 4] 6095 	or	a, a
    000022AA 20 08            [12] 6096 	jr	NZ, 00104$
                                   6097 ;E:\Dropbox\FAUSTO\SVILUPPI\MSX\CODE\C\MSXgl\projects\exsoccer/exsoccer_s2_b0.c:1038: attr.SC=0;
    000022AC 21 03 00         [10] 6098 	ld	hl, #3
    000022AF 39               [11] 6099 	add	hl, sp
    000022B0 7E               [ 7] 6100 	ld	a, (hl)
    000022B1 E6 3F            [ 7] 6101 	and	a, #0x3f
    000022B3 77               [ 7] 6102 	ld	(hl), a
    000022B4                       6103 00104$:
                                   6104 ;E:\Dropbox\FAUSTO\SVILUPPI\MSX\CODE\C\MSXgl\projects\exsoccer/exsoccer_s2_b0.c:1040: if(g_Players[playerId].TeamId==REFEREE){
    000022B4 DD 6E FE         [19] 6105 	ld	l, -2 (ix)
    000022B7 DD 66 FF         [19] 6106 	ld	h, -1 (ix)
    000022BA 7E               [ 7] 6107 	ld	a, (hl)
    000022BB D6 0E            [ 7] 6108 	sub	a, #0x0e
    000022BD 20 0A            [12] 6109 	jr	NZ, 00106$
                                   6110 ;E:\Dropbox\FAUSTO\SVILUPPI\MSX\CODE\C\MSXgl\projects\exsoccer/exsoccer_s2_b0.c:1041: attr.SC=1;
    000022BF 21 03 00         [10] 6111 	ld	hl, #3
    000022C2 39               [11] 6112 	add	hl, sp
    000022C3 7E               [ 7] 6113 	ld	a, (hl)
    000022C4 E6 3F            [ 7] 6114 	and	a, #0x3f
    000022C6 F6 40            [ 7] 6115 	or	a, #0x40
    000022C8 77               [ 7] 6116 	ld	(hl), a
    000022C9                       6117 00106$:
                                   6118 ;E:\Dropbox\FAUSTO\SVILUPPI\MSX\CODE\C\MSXgl\projects\exsoccer/exsoccer_s2_b0.c:1044: if(g_Players[playerId].Y>maxY){
    000022C9 DD 6E FC         [19] 6119 	ld	l, -4 (ix)
    000022CC DD 66 FD         [19] 6120 	ld	h, -3 (ix)
    000022CF 46               [ 7] 6121 	ld	b, (hl)
    000022D0 23               [ 6] 6122 	inc	hl
    000022D1 6E               [ 7] 6123 	ld	l, (hl)
                                   6124 ;	spillPairReg hl
    000022D2 DD 7E FA         [19] 6125 	ld	a, -6 (ix)
    000022D5 90               [ 4] 6126 	sub	a, b
    000022D6 DD 7E FB         [19] 6127 	ld	a, -5 (ix)
    000022D9 9D               [ 4] 6128 	sbc	a, l
    000022DA 30 06            [12] 6129 	jr	NC, 00108$
                                   6130 ;E:\Dropbox\FAUSTO\SVILUPPI\MSX\CODE\C\MSXgl\projects\exsoccer/exsoccer_s2_b0.c:1045: attr.D=1;
    000022DC 21 03 00         [10] 6131 	ld	hl, #3
    000022DF 39               [11] 6132 	add	hl, sp
    000022E0 CB E6            [15] 6133 	set	4, (hl)
    000022E2                       6134 00108$:
                                   6135 ;E:\Dropbox\FAUSTO\SVILUPPI\MSX\CODE\C\MSXgl\projects\exsoccer/exsoccer_s2_b0.c:1047: if(g_Players[playerId].Y<minY){
    000022E2 DD 6E FC         [19] 6136 	ld	l, -4 (ix)
    000022E5 DD 66 FD         [19] 6137 	ld	h, -3 (ix)
    000022E8 46               [ 7] 6138 	ld	b, (hl)
    000022E9 23               [ 6] 6139 	inc	hl
    000022EA 6E               [ 7] 6140 	ld	l, (hl)
                                   6141 ;	spillPairReg hl
    000022EB 78               [ 4] 6142 	ld	a, b
    000022EC DD 96 F8         [19] 6143 	sub	a, -8 (ix)
    000022EF 7D               [ 4] 6144 	ld	a, l
    000022F0 DD 9E F9         [19] 6145 	sbc	a, -7 (ix)
    000022F3 30 06            [12] 6146 	jr	NC, 00110$
                                   6147 ;E:\Dropbox\FAUSTO\SVILUPPI\MSX\CODE\C\MSXgl\projects\exsoccer/exsoccer_s2_b0.c:1048: attr.D=1;
    000022F5 21 03 00         [10] 6148 	ld	hl, #3
    000022F8 39               [11] 6149 	add	hl, sp
    000022F9 CB E6            [15] 6150 	set	4, (hl)
    000022FB                       6151 00110$:
                                   6152 ;E:\Dropbox\FAUSTO\SVILUPPI\MSX\CODE\C\MSXgl\projects\exsoccer/exsoccer_s2_b0.c:1050: if(g_MatchStatus!=MATCH_NOT_STARTED && g_MatchStatus!=MATCH_KICK_OFF){
    000022FB 3Ar00r00         [13] 6153 	ld	a, (_g_MatchStatus+0)
    000022FE B7               [ 4] 6154 	or	a, a
    000022FF 28 0F            [12] 6155 	jr	Z, 00112$
    00002301 3Ar00r00         [13] 6156 	ld	a, (_g_MatchStatus+0)
    00002304 D6 07            [ 7] 6157 	sub	a, #0x07
    00002306 28 08            [12] 6158 	jr	Z, 00112$
                                   6159 ;E:\Dropbox\FAUSTO\SVILUPPI\MSX\CODE\C\MSXgl\projects\exsoccer/exsoccer_s2_b0.c:1051: UpdatePlayerPatternByDirection(playerId);
    00002308 C5               [11] 6160 	push	bc
    00002309 D5               [11] 6161 	push	de
    0000230A 79               [ 4] 6162 	ld	a, c
    0000230B CDr00r00         [17] 6163 	call	_UpdatePlayerPatternByDirection
    0000230E D1               [10] 6164 	pop	de
    0000230F C1               [10] 6165 	pop	bc
    00002310                       6166 00112$:
                                   6167 ;E:\Dropbox\FAUSTO\SVILUPPI\MSX\CODE\C\MSXgl\projects\exsoccer/exsoccer_s2_b0.c:1053: attr.Pattern = g_Players[playerId].PatternId;
    00002310 DD 6E FC         [19] 6168 	ld	l, -4 (ix)
                                   6169 ;	spillPairReg hl
                                   6170 ;	spillPairReg hl
    00002313 DD 66 FD         [19] 6171 	ld	h, -3 (ix)
                                   6172 ;	spillPairReg hl
                                   6173 ;	spillPairReg hl
    00002316 23               [ 6] 6174 	inc	hl
    00002317 23               [ 6] 6175 	inc	hl
    00002318 23               [ 6] 6176 	inc	hl
    00002319 23               [ 6] 6177 	inc	hl
    0000231A 7E               [ 7] 6178 	ld	a, (hl)
    0000231B DD 77 F5         [19] 6179 	ld	-11 (ix), a
                                   6180 ;E:\Dropbox\FAUSTO\SVILUPPI\MSX\CODE\C\MSXgl\projects\exsoccer/exsoccer_s2_b0.c:1056: if(g_Players[playerId].TeamId != REFEREE)
    0000231E DD 6E FE         [19] 6181 	ld	l, -2 (ix)
    00002321 DD 66 FF         [19] 6182 	ld	h, -1 (ix)
    00002324 46               [ 7] 6183 	ld	b, (hl)
                                   6184 ;E:\Dropbox\FAUSTO\SVILUPPI\MSX\CODE\C\MSXgl\projects\exsoccer/exsoccer_s2_b0.c:1058: bool isHumanTeam = (g_Players[playerId].TeamId == TEAM_1) || (g_GameWith2Players && g_Players[playerId].TeamId == TEAM_2);
    00002325 78               [ 4] 6185 	ld	a,b
    00002326 FE 0E            [ 7] 6186 	cp	a,#0x0e
    00002328 28 3F            [12] 6187 	jr	Z, 00123$
    0000232A 3D               [ 4] 6188 	dec	a
    0000232B 28 0F            [12] 6189 	jr	Z, 00129$
    0000232D 3Ar00r00         [13] 6190 	ld	a, (_g_GameWith2Players+0)
    00002330 B7               [ 4] 6191 	or	a, a
    00002331 28 05            [12] 6192 	jr	Z, 00128$
    00002333 78               [ 4] 6193 	ld	a, b
    00002334 D6 02            [ 7] 6194 	sub	a, #0x02
    00002336 28 04            [12] 6195 	jr	Z, 00129$
    00002338                       6196 00128$:
    00002338 AF               [ 4] 6197 	xor	a, a
    00002339 C3r3Er23         [10] 6198 	jp	00130$
    0000233C                       6199 00129$:
    0000233C 3E 01            [ 7] 6200 	ld	a, #0x01
    0000233E                       6201 00130$:
                                   6202 ;E:\Dropbox\FAUSTO\SVILUPPI\MSX\CODE\C\MSXgl\projects\exsoccer/exsoccer_s2_b0.c:1060: if (isHumanTeam) {
    0000233E B7               [ 4] 6203 	or	a, a
    0000233F 28 28            [12] 6204 	jr	Z, 00123$
                                   6205 ;E:\Dropbox\FAUSTO\SVILUPPI\MSX\CODE\C\MSXgl\projects\exsoccer/exsoccer_s2_b0.c:1061: if (playerId==g_Team1ActivePlayer || (g_GameWith2Players && playerId==g_Team2ActivePlayer)) {
    00002341 3Ar00r00         [13] 6206 	ld	a, (_g_Team1ActivePlayer+0)
    00002344 91               [ 4] 6207 	sub	a, c
    00002345 28 0C            [12] 6208 	jr	Z, 00114$
    00002347 3Ar00r00         [13] 6209 	ld	a, (_g_GameWith2Players+0)
    0000234A B7               [ 4] 6210 	or	a, a
    0000234B 28 0E            [12] 6211 	jr	Z, 00115$
    0000234D 3Ar00r00         [13] 6212 	ld	a, (_g_Team2ActivePlayer+0)
    00002350 91               [ 4] 6213 	sub	a, c
    00002351 20 08            [12] 6214 	jr	NZ, 00115$
    00002353                       6215 00114$:
                                   6216 ;E:\Dropbox\FAUSTO\SVILUPPI\MSX\CODE\C\MSXgl\projects\exsoccer/exsoccer_s2_b0.c:1063: attr.Pattern=attr.Pattern+64;
    00002353 DD 7E F5         [19] 6217 	ld	a, -11 (ix)
    00002356 C6 40            [ 7] 6218 	add	a, #0x40
    00002358 DD 77 F5         [19] 6219 	ld	-11 (ix), a
    0000235B                       6220 00115$:
                                   6221 ;E:\Dropbox\FAUSTO\SVILUPPI\MSX\CODE\C\MSXgl\projects\exsoccer/exsoccer_s2_b0.c:1067: if (playerId == g_PassTargetPlayer) {
    0000235B 3Ar00r00         [13] 6222 	ld	a, (_g_PassTargetPlayer+0)
    0000235E 91               [ 4] 6223 	sub	a, c
    0000235F 20 08            [12] 6224 	jr	NZ, 00123$
                                   6225 ;E:\Dropbox\FAUSTO\SVILUPPI\MSX\CODE\C\MSXgl\projects\exsoccer/exsoccer_s2_b0.c:1068: attr.Pattern=attr.Pattern+64;
    00002361 DD 7E F5         [19] 6226 	ld	a, -11 (ix)
    00002364 C6 40            [ 7] 6227 	add	a, #0x40
    00002366 DD 77 F5         [19] 6228 	ld	-11 (ix), a
    00002369                       6229 00123$:
                                   6230 ;E:\Dropbox\FAUSTO\SVILUPPI\MSX\CODE\C\MSXgl\projects\exsoccer/exsoccer_s2_b0.c:1074: attr.X = g_Players[playerId].X;
    00002369 DD 6E FC         [19] 6231 	ld	l, -4 (ix)
                                   6232 ;	spillPairReg hl
                                   6233 ;	spillPairReg hl
    0000236C DD 66 FD         [19] 6234 	ld	h, -3 (ix)
                                   6235 ;	spillPairReg hl
                                   6236 ;	spillPairReg hl
    0000236F 23               [ 6] 6237 	inc	hl
    00002370 23               [ 6] 6238 	inc	hl
    00002371 7E               [ 7] 6239 	ld	a, (hl)
    00002372 DD 77 FE         [19] 6240 	ld	-2 (ix), a
    00002375 23               [ 6] 6241 	inc	hl
    00002376 7E               [ 7] 6242 	ld	a, (hl)
    00002377 DD 77 FF         [19] 6243 	ld	-1 (ix), a
    0000237A 21 02 00         [10] 6244 	ld	hl, #2
    0000237D 39               [11] 6245 	add	hl, sp
    0000237E DD 7E FE         [19] 6246 	ld	a, -2 (ix)
    00002381 77               [ 7] 6247 	ld	(hl), a
    00002382 23               [ 6] 6248 	inc	hl
    00002383 DD 7E FF         [19] 6249 	ld	a, -1 (ix)
    00002386 E6 03            [ 7] 6250 	and	a, #0x03
    00002388 C5               [11] 6251 	push	bc
    00002389 4F               [ 4] 6252 	ld	c,a
    0000238A 7E               [ 7] 6253 	ld	a, (hl)
    0000238B E6 FC            [ 7] 6254 	and	a, #0xfc
    0000238D B1               [ 4] 6255 	or	a, c
    0000238E C1               [10] 6256 	pop	bc
    0000238F 77               [ 7] 6257 	ld	(hl), a
                                   6258 ;E:\Dropbox\FAUSTO\SVILUPPI\MSX\CODE\C\MSXgl\projects\exsoccer/exsoccer_s2_b0.c:1075: attr.P = 1;
    00002390 21 03 00         [10] 6259 	ld	hl, #3
    00002393 39               [11] 6260 	add	hl, sp
    00002394 CB EE            [15] 6261 	set	5, (hl)
                                   6262 ;E:\Dropbox\FAUSTO\SVILUPPI\MSX\CODE\C\MSXgl\projects\exsoccer/exsoccer_s2_b0.c:1077: V9_SetSpriteP1(playerId, &attr);
                                   6263 ;E:/Dropbox/FAUSTO/SVILUPPI/MSX/CODE/C/MSXgl/engine/src/v9990.h:781: inline void V9_SetSpriteP1(u8 id, const V9_Sprite* attr) { V9_WriteVRAM(V9_P1_SPAT + (id * 4), (const u8*)attr, 4); }
    00002396 26 00            [ 7] 6264 	ld	h, #0x00
                                   6265 ;	spillPairReg hl
                                   6266 ;	spillPairReg hl
    00002398 69               [ 4] 6267 	ld	l, c
    00002399 29               [11] 6268 	add	hl, hl
    0000239A 29               [11] 6269 	add	hl, hl
    0000239B 7C               [ 4] 6270 	ld	a, h
    0000239C 07               [ 4] 6271 	rlca
    0000239D 9F               [ 4] 6272 	sbc	a, a
    0000239E 5F               [ 4] 6273 	ld	e, a
    0000239F 57               [ 4] 6274 	ld	d, a
    000023A0 7C               [ 4] 6275 	ld	a, h
    000023A1 C6 FE            [ 7] 6276 	add	a, #0xfe
    000023A3 67               [ 4] 6277 	ld	h, a
                                   6278 ;	spillPairReg hl
                                   6279 ;	spillPairReg hl
    000023A4 7B               [ 4] 6280 	ld	a, e
    000023A5 CE 03            [ 7] 6281 	adc	a, #0x03
    000023A7 5F               [ 4] 6282 	ld	e, a
    000023A8 30 01            [12] 6283 	jr	NC, 00217$
    000023AA 14               [ 4] 6284 	inc	d
    000023AB                       6285 00217$:
                                   6286 ;E:/Dropbox/FAUSTO/SVILUPPI/MSX/CODE/C/MSXgl/engine/src/v9990.h:371: inline void V9_WriteVRAM(u32 addr, const u8* src, u16 count) { V9_SetWriteAddress(addr); V9_WriteVRAM_CurrentAddr(src, count); }
    000023AB EB               [ 4] 6287 	ex	de, hl
    000023AC CDr00r00         [17] 6288 	call	_V9_SetWriteAddress
    000023AF 11 04 00         [10] 6289 	ld	de, #0x0004
    000023B2 21 00 00         [10] 6290 	ld	hl, #0
    000023B5 39               [11] 6291 	add	hl, sp
    000023B6 CDr00r00         [17] 6292 	call	_V9_WriteVRAM_CurrentAddr
                                   6293 ;E:\Dropbox\FAUSTO\SVILUPPI\MSX\CODE\C\MSXgl\projects\exsoccer/exsoccer_s2_b0.c:1077: V9_SetSpriteP1(playerId, &attr);
                                   6294 ;E:\Dropbox\FAUSTO\SVILUPPI\MSX\CODE\C\MSXgl\projects\exsoccer/exsoccer_s2_b0.c:1079: }
    000023B9 DD F9            [10] 6295 	ld	sp, ix
    000023BB DD E1            [14] 6296 	pop	ix
    000023BD C9               [10] 6297 	ret
                                   6298 ;E:\Dropbox\FAUSTO\SVILUPPI\MSX\CODE\C\MSXgl\projects\exsoccer/exsoccer_s2_b0.c:1082: void ResetPlayersInfo(){
                                   6299 ;	---------------------------------
                                   6300 ; Function ResetPlayersInfo
                                   6301 ; ---------------------------------
    000023BE                       6302 _ResetPlayersInfo::
    000023BE DD E5            [15] 6303 	push	ix
    000023C0 DD 21 00 00      [14] 6304 	ld	ix,#0
    000023C4 DD 39            [15] 6305 	add	ix,sp
    000023C6 3B               [ 6] 6306 	dec	sp
                                   6307 ;E:\Dropbox\FAUSTO\SVILUPPI\MSX\CODE\C\MSXgl\projects\exsoccer/exsoccer_s2_b0.c:1083: SetPlayerBallPossession(NO_VALUE);
    000023C7 3E FF            [ 7] 6308 	ld	a, #0xff
    000023C9 CDr00r00         [17] 6309 	call	_SetPlayerBallPossession
                                   6310 ;E:\Dropbox\FAUSTO\SVILUPPI\MSX\CODE\C\MSXgl\projects\exsoccer/exsoccer_s2_b0.c:1084: for(u8 i=0;i<14;i++){
    000023CC 0E 00            [ 7] 6311 	ld	c, #0x00
    000023CE                       6312 00103$:
    000023CE 79               [ 4] 6313 	ld	a, c
    000023CF D6 0E            [ 7] 6314 	sub	a, #0x0e
    000023D1 30 40            [12] 6315 	jr	NC, 00105$
                                   6316 ;E:\Dropbox\FAUSTO\SVILUPPI\MSX\CODE\C\MSXgl\projects\exsoccer/exsoccer_s2_b0.c:1085: g_Players[i].Direction=DIRECTION_NONE;
    000023D3 06 00            [ 7] 6317 	ld	b, #0x00
    000023D5 69               [ 4] 6318 	ld	l, c
    000023D6 60               [ 4] 6319 	ld	h, b
    000023D7 29               [11] 6320 	add	hl, hl
    000023D8 29               [11] 6321 	add	hl, hl
    000023D9 29               [11] 6322 	add	hl, hl
    000023DA 29               [11] 6323 	add	hl, hl
    000023DB 09               [11] 6324 	add	hl, bc
    000023DC EB               [ 4] 6325 	ex	de, hl
    000023DD 21r00r00         [10] 6326 	ld	hl, #_g_Players
    000023E0 19               [11] 6327 	add	hl, de
    000023E1 EB               [ 4] 6328 	ex	de, hl
    000023E2 21 06 00         [10] 6329 	ld	hl, #0x0006
    000023E5 19               [11] 6330 	add	hl, de
    000023E6 36 00            [10] 6331 	ld	(hl), #0x00
                                   6332 ;E:\Dropbox\FAUSTO\SVILUPPI\MSX\CODE\C\MSXgl\projects\exsoccer/exsoccer_s2_b0.c:1086: g_Players[i].PreviousDirection=g_Players[i].Direction;
    000023E8 7B               [ 4] 6333 	ld	a, e
    000023E9 C6 07            [ 7] 6334 	add	a, #0x07
    000023EB 47               [ 4] 6335 	ld	b, a
    000023EC 7A               [ 4] 6336 	ld	a, d
    000023ED CE 00            [ 7] 6337 	adc	a, #0x00
    000023EF F5               [11] 6338 	push	af
    000023F0 7E               [ 7] 6339 	ld	a, (hl)
    000023F1 DD 77 FF         [19] 6340 	ld	-1 (ix), a
    000023F4 F1               [10] 6341 	pop	af
    000023F5 68               [ 4] 6342 	ld	l, b
    000023F6 67               [ 4] 6343 	ld	h, a
    000023F7 DD 7E FF         [19] 6344 	ld	a, -1 (ix)
    000023FA 77               [ 7] 6345 	ld	(hl), a
                                   6346 ;E:\Dropbox\FAUSTO\SVILUPPI\MSX\CODE\C\MSXgl\projects\exsoccer/exsoccer_s2_b0.c:1087: g_Players[i].LastPose=0;
    000023FB 21 08 00         [10] 6347 	ld	hl, #0x0008
    000023FE 19               [11] 6348 	add	hl, de
    000023FF 36 00            [10] 6349 	ld	(hl), #0x00
                                   6350 ;E:\Dropbox\FAUSTO\SVILUPPI\MSX\CODE\C\MSXgl\projects\exsoccer/exsoccer_s2_b0.c:1088: g_Players[i].Status=PLAYER_STATUS_NONE;
    00002401 21 0E 00         [10] 6351 	ld	hl, #0x000e
    00002404 19               [11] 6352 	add	hl, de
    00002405 36 00            [10] 6353 	ld	(hl), #0x00
    00002407 23               [ 6] 6354 	inc	hl
    00002408 36 00            [10] 6355 	ld	(hl), #0x00
    0000240A 2B               [ 6] 6356 	dec	hl
                                   6357 ;E:\Dropbox\FAUSTO\SVILUPPI\MSX\CODE\C\MSXgl\projects\exsoccer/exsoccer_s2_b0.c:1089: g_Players[i].Status=PLAYER_STATUS_NONE;
    0000240B AF               [ 4] 6358 	xor	a, a
    0000240C 77               [ 7] 6359 	ld	(hl), a
    0000240D 23               [ 6] 6360 	inc	hl
    0000240E 77               [ 7] 6361 	ld	(hl), a
                                   6362 ;E:\Dropbox\FAUSTO\SVILUPPI\MSX\CODE\C\MSXgl\projects\exsoccer/exsoccer_s2_b0.c:1084: for(u8 i=0;i<14;i++){
    0000240F 0C               [ 4] 6363 	inc	c
    00002410 C3rCEr23         [10] 6364 	jp	00103$
    00002413                       6365 00105$:
                                   6366 ;E:\Dropbox\FAUSTO\SVILUPPI\MSX\CODE\C\MSXgl\projects\exsoccer/exsoccer_s2_b0.c:1091: }
    00002413 33               [ 6] 6367 	inc	sp
    00002414 DD E1            [14] 6368 	pop	ix
    00002416 C9               [10] 6369 	ret
                                   6370 ;E:\Dropbox\FAUSTO\SVILUPPI\MSX\CODE\C\MSXgl\projects\exsoccer/exsoccer_s2_b0.c:1092: void ClearTextFromLayerA(u8 x, u8 y, u8 length){
                                   6371 ;	---------------------------------
                                   6372 ; Function ClearTextFromLayerA
                                   6373 ; ---------------------------------
    00002417                       6374 _ClearTextFromLayerA::
    00002417 4F               [ 4] 6375 	ld	c, a
    00002418 45               [ 4] 6376 	ld	b, l
                                   6377 ;E:\Dropbox\FAUSTO\SVILUPPI\MSX\CODE\C\MSXgl\projects\exsoccer/exsoccer_s2_b0.c:1093: for(u8 i=0;i<length;i++){
    00002419 1E 00            [ 7] 6378 	ld	e, #0x00
    0000241B                       6379 00103$:
    0000241B 21 02 00         [10] 6380 	ld	hl, #2
    0000241E 39               [11] 6381 	add	hl, sp
    0000241F 7B               [ 4] 6382 	ld	a, e
    00002420 96               [ 7] 6383 	sub	a, (hl)
    00002421 30 12            [12] 6384 	jr	NC, 00105$
                                   6385 ;E:\Dropbox\FAUSTO\SVILUPPI\MSX\CODE\C\MSXgl\projects\exsoccer/exsoccer_s2_b0.c:1094: V9_PutLayerATileAtPos(x,y,0);
    00002423 C5               [11] 6386 	push	bc
    00002424 D5               [11] 6387 	push	de
    00002425 21 00 00         [10] 6388 	ld	hl, #0x0000
    00002428 E5               [11] 6389 	push	hl
    00002429 68               [ 4] 6390 	ld	l, b
                                   6391 ;	spillPairReg hl
                                   6392 ;	spillPairReg hl
    0000242A 79               [ 4] 6393 	ld	a, c
    0000242B CDr85r21         [17] 6394 	call	_V9_PutLayerATileAtPos
    0000242E D1               [10] 6395 	pop	de
    0000242F C1               [10] 6396 	pop	bc
                                   6397 ;E:\Dropbox\FAUSTO\SVILUPPI\MSX\CODE\C\MSXgl\projects\exsoccer/exsoccer_s2_b0.c:1095: x++;
    00002430 0C               [ 4] 6398 	inc	c
                                   6399 ;E:\Dropbox\FAUSTO\SVILUPPI\MSX\CODE\C\MSXgl\projects\exsoccer/exsoccer_s2_b0.c:1093: for(u8 i=0;i<length;i++){
    00002431 1C               [ 4] 6400 	inc	e
    00002432 C3r1Br24         [10] 6401 	jp	00103$
    00002435                       6402 00105$:
                                   6403 ;E:\Dropbox\FAUSTO\SVILUPPI\MSX\CODE\C\MSXgl\projects\exsoccer/exsoccer_s2_b0.c:1097: }
    00002435 E1               [10] 6404 	pop	hl
    00002436 33               [ 6] 6405 	inc	sp
    00002437 E9               [ 4] 6406 	jp	(hl)
                                   6407 ;E:\Dropbox\FAUSTO\SVILUPPI\MSX\CODE\C\MSXgl\projects\exsoccer/exsoccer_s2_b0.c:1098: void TickPlayerToOwnTarget(){
                                   6408 ;	---------------------------------
                                   6409 ; Function TickPlayerToOwnTarget
                                   6410 ; ---------------------------------
    00002438                       6411 _TickPlayerToOwnTarget::
    00002438 DD E5            [15] 6412 	push	ix
    0000243A DD 21 00 00      [14] 6413 	ld	ix,#0
    0000243E DD 39            [15] 6414 	add	ix,sp
    00002440 21 F5 FF         [10] 6415 	ld	hl, #-11
    00002443 39               [11] 6416 	add	hl, sp
    00002444 F9               [ 6] 6417 	ld	sp, hl
                                   6418 ;E:\Dropbox\FAUSTO\SVILUPPI\MSX\CODE\C\MSXgl\projects\exsoccer/exsoccer_s2_b0.c:1099: if(g_MatchStatus == MATCH_AFTER_IN_GOAL) return; // FIX: Don't interfere with celebration
    00002445 3Ar00r00         [13] 6419 	ld	a, (_g_MatchStatus+0)
    00002448 D6 06            [ 7] 6420 	sub	a, #0x06
    0000244A CAr28r29         [10] 6421 	jp	Z,00200$
    0000244D C3r50r24         [10] 6422 	jp	00102$
    00002450                       6423 00102$:
                                   6424 ;E:\Dropbox\FAUSTO\SVILUPPI\MSX\CODE\C\MSXgl\projects\exsoccer/exsoccer_s2_b0.c:1100: if(g_MatchStatus!=MATCH_NOT_STARTED){
    00002450 3Ar00r00         [13] 6425 	ld	a, (_g_MatchStatus+0)
    00002453 B7               [ 4] 6426 	or	a, a
    00002454 CAr28r29         [10] 6427 	jp	Z, 00200$
                                   6428 ;E:\Dropbox\FAUSTO\SVILUPPI\MSX\CODE\C\MSXgl\projects\exsoccer/exsoccer_s2_b0.c:1101: bool allPlayersInPosition = true;
    00002457 DD 36 F5 01      [19] 6429 	ld	-11 (ix), #0x01
                                   6430 ;E:\Dropbox\FAUSTO\SVILUPPI\MSX\CODE\C\MSXgl\projects\exsoccer/exsoccer_s2_b0.c:1103: for(u8 i=0;i<15;i++){
    0000245B DD 36 FF 00      [19] 6431 	ld	-1 (ix), #0x00
    0000245F                       6432 00199$:
    0000245F DD 7E FF         [19] 6433 	ld	a, -1 (ix)
    00002462 D6 0F            [ 7] 6434 	sub	a, #0x0f
    00002464 D2r02r29         [10] 6435 	jp	NC, 00191$
                                   6436 ;E:\Dropbox\FAUSTO\SVILUPPI\MSX\CODE\C\MSXgl\projects\exsoccer/exsoccer_s2_b0.c:1104: if (i == REFEREE && (g_MatchStatus == MATCH_IN_ACTION || g_MatchStatus == MATCH_BALL_ON_GOALKEEPER)) continue;
    00002467 DD 7E FF         [19] 6437 	ld	a, -1 (ix)
    0000246A D6 0E            [ 7] 6438 	sub	a, #0x0e
    0000246C 20 0D            [12] 6439 	jr	NZ, 00104$
    0000246E 3Ar00r00         [13] 6440 	ld	a,(_g_MatchStatus+0)
    00002471 FE 0C            [ 7] 6441 	cp	a,#0x0c
    00002473 CArFCr28         [10] 6442 	jp	Z,00190$
    00002476 D6 0D            [ 7] 6443 	sub	a, #0x0d
    00002478 CArFCr28         [10] 6444 	jp	Z,00190$
    0000247B                       6445 00104$:
                                   6446 ;E:\Dropbox\FAUSTO\SVILUPPI\MSX\CODE\C\MSXgl\projects\exsoccer/exsoccer_s2_b0.c:1107: if (g_Team1ActivePlayer != NO_VALUE && i == g_Team1ActivePlayer) continue;
    0000247B 3Ar00r00         [13] 6447 	ld	a, (_g_Team1ActivePlayer+0)
    0000247E 3C               [ 4] 6448 	inc	a
    0000247F 28 09            [12] 6449 	jr	Z, 00108$
    00002481 3Ar00r00         [13] 6450 	ld	a, (_g_Team1ActivePlayer+0)
    00002484 DD 96 FF         [19] 6451 	sub	a, -1 (ix)
    00002487 CArFCr28         [10] 6452 	jp	Z,00190$
    0000248A                       6453 00108$:
                                   6454 ;E:\Dropbox\FAUSTO\SVILUPPI\MSX\CODE\C\MSXgl\projects\exsoccer/exsoccer_s2_b0.c:1108: if (g_GameWith2Players && g_Team2ActivePlayer != NO_VALUE && i == g_Team2ActivePlayer) continue;
    0000248A 3Ar00r00         [13] 6455 	ld	a, (_g_GameWith2Players+0)
    0000248D B7               [ 4] 6456 	or	a, a
    0000248E 28 0F            [12] 6457 	jr	Z, 00111$
    00002490 3Ar00r00         [13] 6458 	ld	a, (_g_Team2ActivePlayer+0)
    00002493 3C               [ 4] 6459 	inc	a
    00002494 28 09            [12] 6460 	jr	Z, 00111$
    00002496 3Ar00r00         [13] 6461 	ld	a, (_g_Team2ActivePlayer+0)
    00002499 DD 96 FF         [19] 6462 	sub	a, -1 (ix)
    0000249C CArFCr28         [10] 6463 	jp	Z,00190$
    0000249F                       6464 00111$:
                                   6465 ;E:\Dropbox\FAUSTO\SVILUPPI\MSX\CODE\C\MSXgl\projects\exsoccer/exsoccer_s2_b0.c:1109: if (g_GameWith2Players && i == g_Team2ActivePlayer) {
    0000249F 3Ar00r00         [13] 6466 	ld	a, (_g_GameWith2Players+0)
    000024A2 B7               [ 4] 6467 	or	a, a
    000024A3 28 09            [12] 6468 	jr	Z, 00115$
    000024A5 3Ar00r00         [13] 6469 	ld	a, (_g_Team2ActivePlayer+0)
    000024A8 DD 96 FF         [19] 6470 	sub	a, -1 (ix)
    000024AB CArFCr28         [10] 6471 	jp	Z,00190$
                                   6472 ;E:\Dropbox\FAUSTO\SVILUPPI\MSX\CODE\C\MSXgl\projects\exsoccer/exsoccer_s2_b0.c:1110: continue;
    000024AE                       6473 00115$:
                                   6474 ;E:\Dropbox\FAUSTO\SVILUPPI\MSX\CODE\C\MSXgl\projects\exsoccer/exsoccer_s2_b0.c:1114: bool playerInPosition = (g_Players[i].X == g_Players[i].TargetX && g_Players[i].Y == g_Players[i].TargetY);
    000024AE DD 4E FF         [19] 6475 	ld	c, -1 (ix)
    000024B1 06 00            [ 7] 6476 	ld	b, #0x00
    000024B3 69               [ 4] 6477 	ld	l, c
    000024B4 60               [ 4] 6478 	ld	h, b
    000024B5 29               [11] 6479 	add	hl, hl
    000024B6 29               [11] 6480 	add	hl, hl
    000024B7 29               [11] 6481 	add	hl, hl
    000024B8 29               [11] 6482 	add	hl, hl
    000024B9 09               [11] 6483 	add	hl, bc
    000024BA 11r00r00         [10] 6484 	ld	de, #_g_Players
    000024BD 19               [11] 6485 	add	hl, de
    000024BE 4D               [ 4] 6486 	ld	c, l
    000024BF 44               [ 4] 6487 	ld	b, h
    000024C0 59               [ 4] 6488 	ld	e, c
    000024C1 50               [ 4] 6489 	ld	d, b
    000024C2 13               [ 6] 6490 	inc	de
    000024C3 13               [ 6] 6491 	inc	de
    000024C4 1A               [ 7] 6492 	ld	a, (de)
    000024C5 DD 77 FB         [19] 6493 	ld	-5 (ix), a
    000024C8 13               [ 6] 6494 	inc	de
    000024C9 1A               [ 7] 6495 	ld	a, (de)
    000024CA DD 77 FC         [19] 6496 	ld	-4 (ix), a
    000024CD 1B               [ 6] 6497 	dec	de
    000024CE 21 0C 00         [10] 6498 	ld	hl, #0x000c
    000024D1 09               [11] 6499 	add	hl, bc
    000024D2 DD 75 FD         [19] 6500 	ld	-3 (ix), l
    000024D5 DD 74 FE         [19] 6501 	ld	-2 (ix), h
    000024D8 7E               [ 7] 6502 	ld	a, (hl)
    000024D9 23               [ 6] 6503 	inc	hl
    000024DA 66               [ 7] 6504 	ld	h, (hl)
                                   6505 ;	spillPairReg hl
                                   6506 ;	spillPairReg hl
                                   6507 ;	spillPairReg hl
    000024DB DD 96 FB         [19] 6508 	sub	a, -5 (ix)
    000024DE 20 24            [12] 6509 	jr	NZ, 00202$
    000024E0 7C               [ 4] 6510 	ld	a, h
    000024E1 DD 96 FC         [19] 6511 	sub	a, -4 (ix)
    000024E4 20 1E            [12] 6512 	jr	NZ, 00202$
    000024E6 0A               [ 7] 6513 	ld	a, (bc)
    000024E7 DD 77 FB         [19] 6514 	ld	-5 (ix), a
    000024EA 03               [ 6] 6515 	inc	bc
    000024EB 0A               [ 7] 6516 	ld	a, (bc)
    000024EC DD 77 FC         [19] 6517 	ld	-4 (ix), a
    000024EF 0B               [ 6] 6518 	dec	bc
    000024F0 C5               [11] 6519 	push	bc
    000024F1 FD E1            [14] 6520 	pop	iy
                                   6521 ;	spillPairReg hl
                                   6522 ;	spillPairReg hl
    000024F3 FD 7E 0A         [19] 6523 	ld	a, 10 (iy)
    000024F6 FD 66 0B         [19] 6524 	ld	h, 11 (iy)
    000024F9 DD 96 FB         [19] 6525 	sub	a, -5 (ix)
    000024FC 20 06            [12] 6526 	jr	NZ, 00469$
    000024FE 7C               [ 4] 6527 	ld	a, h
    000024FF DD 96 FC         [19] 6528 	sub	a, -4 (ix)
    00002502 28 04            [12] 6529 	jr	Z, 00203$
    00002504                       6530 00469$:
    00002504                       6531 00202$:
    00002504 AF               [ 4] 6532 	xor	a, a
    00002505 C3r0Ar25         [10] 6533 	jp	00204$
    00002508                       6534 00203$:
    00002508 3E 01            [ 7] 6535 	ld	a, #0x01
    0000250A                       6536 00204$:
    0000250A DD 77 FC         [19] 6537 	ld	-4 (ix), a
                                   6538 ;E:\Dropbox\FAUSTO\SVILUPPI\MSX\CODE\C\MSXgl\projects\exsoccer/exsoccer_s2_b0.c:1117: if (g_MatchStatus == MATCH_BEFORE_KICK_OFF && !playerInPosition) {
    0000250D 3Ar00r00         [13] 6539 	ld	a, (_g_MatchStatus+0)
    00002510 3D               [ 4] 6540 	dec	a
    00002511 20 0A            [12] 6541 	jr	NZ, 00118$
    00002513 DD 7E FC         [19] 6542 	ld	a, -4 (ix)
    00002516 B7               [ 4] 6543 	or	a, a
    00002517 20 04            [12] 6544 	jr	NZ, 00118$
                                   6545 ;E:\Dropbox\FAUSTO\SVILUPPI\MSX\CODE\C\MSXgl\projects\exsoccer/exsoccer_s2_b0.c:1118: allPlayersInPosition = false;
    00002519 DD 36 F5 00      [19] 6546 	ld	-11 (ix), #0x00
    0000251D                       6547 00118$:
                                   6548 ;E:\Dropbox\FAUSTO\SVILUPPI\MSX\CODE\C\MSXgl\projects\exsoccer/exsoccer_s2_b0.c:1123: if(g_Players[i].AiTickCounter<AI_TICK_SPEED){
    0000251D 21 10 00         [10] 6549 	ld	hl, #0x0010
    00002520 09               [11] 6550 	add	hl, bc
                                   6551 ;E:\Dropbox\FAUSTO\SVILUPPI\MSX\CODE\C\MSXgl\projects\exsoccer/exsoccer_s2_b0.c:1121: if(g_MatchStatus==MATCH_IN_ACTION){
    00002521 3Ar00r00         [13] 6552 	ld	a, (_g_MatchStatus+0)
    00002524 D6 0C            [ 7] 6553 	sub	a, #0x0c
    00002526 20 0A            [12] 6554 	jr	NZ, 00123$
                                   6555 ;E:\Dropbox\FAUSTO\SVILUPPI\MSX\CODE\C\MSXgl\projects\exsoccer/exsoccer_s2_b0.c:1123: if(g_Players[i].AiTickCounter<AI_TICK_SPEED){
    00002528 7E               [ 7] 6556 	ld	a, (hl)
    00002529 FE 01            [ 7] 6557 	cp	a, #0x01
    0000252B 30 05            [12] 6558 	jr	NC, 00123$
                                   6559 ;E:\Dropbox\FAUSTO\SVILUPPI\MSX\CODE\C\MSXgl\projects\exsoccer/exsoccer_s2_b0.c:1124: g_Players[i].AiTickCounter++;
    0000252D 3C               [ 4] 6560 	inc	a
    0000252E 77               [ 7] 6561 	ld	(hl), a
                                   6562 ;E:\Dropbox\FAUSTO\SVILUPPI\MSX\CODE\C\MSXgl\projects\exsoccer/exsoccer_s2_b0.c:1125: continue;
    0000252F C3rFCr28         [10] 6563 	jp	00190$
    00002532                       6564 00123$:
                                   6565 ;E:\Dropbox\FAUSTO\SVILUPPI\MSX\CODE\C\MSXgl\projects\exsoccer/exsoccer_s2_b0.c:1129: g_Players[i].AiTickCounter=0;
    00002532 36 00            [10] 6566 	ld	(hl), #0x00
                                   6567 ;E:\Dropbox\FAUSTO\SVILUPPI\MSX\CODE\C\MSXgl\projects\exsoccer/exsoccer_s2_b0.c:1131: if(!playerInPosition){
    00002534 DD 7E FC         [19] 6568 	ld	a, -4 (ix)
    00002537 B7               [ 4] 6569 	or	a, a
    00002538 C2r63r28         [10] 6570 	jp	NZ, 00188$
                                   6571 ;E:\Dropbox\FAUSTO\SVILUPPI\MSX\CODE\C\MSXgl\projects\exsoccer/exsoccer_s2_b0.c:1132: g_Players[i].Status=PLAYER_STATUS_NONE;
    0000253B 21 0E 00         [10] 6572 	ld	hl, #0x000e
    0000253E 09               [11] 6573 	add	hl, bc
    0000253F AF               [ 4] 6574 	xor	a, a
    00002540 77               [ 7] 6575 	ld	(hl), a
    00002541 23               [ 6] 6576 	inc	hl
    00002542 77               [ 7] 6577 	ld	(hl), a
                                   6578 ;E:\Dropbox\FAUSTO\SVILUPPI\MSX\CODE\C\MSXgl\projects\exsoccer/exsoccer_s2_b0.c:1114: bool playerInPosition = (g_Players[i].X == g_Players[i].TargetX && g_Players[i].Y == g_Players[i].TargetY);
    00002543 1A               [ 7] 6579 	ld	a, (de)
    00002544 DD 77 F6         [19] 6580 	ld	-10 (ix), a
    00002547 13               [ 6] 6581 	inc	de
    00002548 1A               [ 7] 6582 	ld	a, (de)
    00002549 DD 77 F7         [19] 6583 	ld	-9 (ix), a
    0000254C 1B               [ 6] 6584 	dec	de
    0000254D DD 6E FD         [19] 6585 	ld	l, -3 (ix)
    00002550 DD 66 FE         [19] 6586 	ld	h, -2 (ix)
    00002553 7E               [ 7] 6587 	ld	a, (hl)
    00002554 DD 77 F8         [19] 6588 	ld	-8 (ix), a
    00002557 23               [ 6] 6589 	inc	hl
    00002558 7E               [ 7] 6590 	ld	a, (hl)
    00002559 DD 77 F9         [19] 6591 	ld	-7 (ix), a
    0000255C 0A               [ 7] 6592 	ld	a, (bc)
    0000255D DD 77 FA         [19] 6593 	ld	-6 (ix), a
    00002560 03               [ 6] 6594 	inc	bc
    00002561 0A               [ 7] 6595 	ld	a, (bc)
    00002562 DD 77 FB         [19] 6596 	ld	-5 (ix), a
    00002565 0B               [ 6] 6597 	dec	bc
                                   6598 ;E:\Dropbox\FAUSTO\SVILUPPI\MSX\CODE\C\MSXgl\projects\exsoccer/exsoccer_s2_b0.c:1133: if(g_Players[i].X<g_Players[i].TargetX && g_Players[i].Y>g_Players[i].TargetY){
    00002566 DD 7E F6         [19] 6599 	ld	a, -10 (ix)
    00002569 DD 96 F8         [19] 6600 	sub	a, -8 (ix)
    0000256C DD 7E F7         [19] 6601 	ld	a, -9 (ix)
    0000256F DD 9E F9         [19] 6602 	sbc	a, -7 (ix)
    00002572 3E 00            [ 7] 6603 	ld	a, #0x00
    00002574 17               [ 4] 6604 	rla
    00002575 DD 77 FC         [19] 6605 	ld	-4 (ix), a
    00002578 B7               [ 4] 6606 	or	a, a
    00002579 28 50            [12] 6607 	jr	Z, 00152$
    0000257B 69               [ 4] 6608 	ld	l, c
                                   6609 ;	spillPairReg hl
                                   6610 ;	spillPairReg hl
    0000257C 60               [ 4] 6611 	ld	h, b
                                   6612 ;	spillPairReg hl
                                   6613 ;	spillPairReg hl
    0000257D C5               [11] 6614 	push	bc
    0000257E 01 0A 00         [10] 6615 	ld	bc, #0x000a
    00002581 09               [11] 6616 	add	hl, bc
    00002582 C1               [10] 6617 	pop	bc
    00002583 7E               [ 7] 6618 	ld	a, (hl)
    00002584 23               [ 6] 6619 	inc	hl
    00002585 66               [ 7] 6620 	ld	h, (hl)
                                   6621 ;	spillPairReg hl
                                   6622 ;	spillPairReg hl
                                   6623 ;	spillPairReg hl
    00002586 DD 96 FA         [19] 6624 	sub	a, -6 (ix)
    00002589 7C               [ 4] 6625 	ld	a, h
    0000258A DD 9E FB         [19] 6626 	sbc	a, -5 (ix)
    0000258D 30 3C            [12] 6627 	jr	NC, 00152$
                                   6628 ;E:\Dropbox\FAUSTO\SVILUPPI\MSX\CODE\C\MSXgl\projects\exsoccer/exsoccer_s2_b0.c:1134: g_Players[i].Direction=DIRECTION_UP_RIGHT;
    0000258F 21 06 00         [10] 6629 	ld	hl, #0x0006
    00002592 09               [11] 6630 	add	hl, bc
    00002593 36 02            [10] 6631 	ld	(hl), #0x02
                                   6632 ;E:\Dropbox\FAUSTO\SVILUPPI\MSX\CODE\C\MSXgl\projects\exsoccer/exsoccer_s2_b0.c:1135: g_Players[i].X++;
    00002595 6B               [ 4] 6633 	ld	l, e
    00002596 62               [ 4] 6634 	ld	h, d
    00002597 7E               [ 7] 6635 	ld	a, (hl)
    00002598 23               [ 6] 6636 	inc	hl
    00002599 66               [ 7] 6637 	ld	h, (hl)
                                   6638 ;	spillPairReg hl
    0000259A 6F               [ 4] 6639 	ld	l, a
                                   6640 ;	spillPairReg hl
                                   6641 ;	spillPairReg hl
    0000259B 23               [ 6] 6642 	inc	hl
    0000259C DD 75 FD         [19] 6643 	ld	-3 (ix), l
    0000259F DD 74 FE         [19] 6644 	ld	-2 (ix), h
    000025A2 6B               [ 4] 6645 	ld	l, e
    000025A3 62               [ 4] 6646 	ld	h, d
    000025A4 DD 7E FD         [19] 6647 	ld	a, -3 (ix)
    000025A7 77               [ 7] 6648 	ld	(hl), a
    000025A8 23               [ 6] 6649 	inc	hl
    000025A9 DD 7E FE         [19] 6650 	ld	a, -2 (ix)
    000025AC 77               [ 7] 6651 	ld	(hl), a
                                   6652 ;E:\Dropbox\FAUSTO\SVILUPPI\MSX\CODE\C\MSXgl\projects\exsoccer/exsoccer_s2_b0.c:1136: g_Players[i].Y--;
    000025AD 69               [ 4] 6653 	ld	l, c
    000025AE 60               [ 4] 6654 	ld	h, b
    000025AF 7E               [ 7] 6655 	ld	a, (hl)
    000025B0 23               [ 6] 6656 	inc	hl
    000025B1 66               [ 7] 6657 	ld	h, (hl)
                                   6658 ;	spillPairReg hl
                                   6659 ;	spillPairReg hl
                                   6660 ;	spillPairReg hl
    000025B2 C6 FF            [ 7] 6661 	add	a, #0xff
    000025B4 DD 77 FD         [19] 6662 	ld	-3 (ix), a
    000025B7 7C               [ 4] 6663 	ld	a, h
    000025B8 CE FF            [ 7] 6664 	adc	a, #0xff
    000025BA DD 77 FE         [19] 6665 	ld	-2 (ix), a
    000025BD 69               [ 4] 6666 	ld	l, c
    000025BE 60               [ 4] 6667 	ld	h, b
    000025BF DD 7E FD         [19] 6668 	ld	a, -3 (ix)
    000025C2 77               [ 7] 6669 	ld	(hl), a
    000025C3 23               [ 6] 6670 	inc	hl
    000025C4 DD 7E FE         [19] 6671 	ld	a, -2 (ix)
    000025C7 77               [ 7] 6672 	ld	(hl), a
    000025C8 C3rE8r27         [10] 6673 	jp	00153$
    000025CB                       6674 00152$:
                                   6675 ;E:\Dropbox\FAUSTO\SVILUPPI\MSX\CODE\C\MSXgl\projects\exsoccer/exsoccer_s2_b0.c:1138: else if(g_Players[i].X>g_Players[i].TargetX && g_Players[i].Y>g_Players[i].TargetY){
    000025CB DD 7E F8         [19] 6676 	ld	a, -8 (ix)
    000025CE DD 96 F6         [19] 6677 	sub	a, -10 (ix)
    000025D1 DD 7E F9         [19] 6678 	ld	a, -7 (ix)
    000025D4 DD 9E F7         [19] 6679 	sbc	a, -9 (ix)
    000025D7 3E 00            [ 7] 6680 	ld	a, #0x00
    000025D9 17               [ 4] 6681 	rla
    000025DA DD 77 FD         [19] 6682 	ld	-3 (ix), a
    000025DD B7               [ 4] 6683 	or	a, a
    000025DE 28 53            [12] 6684 	jr	Z, 00148$
    000025E0 69               [ 4] 6685 	ld	l, c
                                   6686 ;	spillPairReg hl
                                   6687 ;	spillPairReg hl
    000025E1 60               [ 4] 6688 	ld	h, b
                                   6689 ;	spillPairReg hl
                                   6690 ;	spillPairReg hl
    000025E2 C5               [11] 6691 	push	bc
    000025E3 01 0A 00         [10] 6692 	ld	bc, #0x000a
    000025E6 09               [11] 6693 	add	hl, bc
    000025E7 C1               [10] 6694 	pop	bc
    000025E8 7E               [ 7] 6695 	ld	a, (hl)
    000025E9 23               [ 6] 6696 	inc	hl
    000025EA 66               [ 7] 6697 	ld	h, (hl)
                                   6698 ;	spillPairReg hl
                                   6699 ;	spillPairReg hl
                                   6700 ;	spillPairReg hl
    000025EB DD 96 FA         [19] 6701 	sub	a, -6 (ix)
    000025EE 7C               [ 4] 6702 	ld	a, h
    000025EF DD 9E FB         [19] 6703 	sbc	a, -5 (ix)
    000025F2 30 3F            [12] 6704 	jr	NC, 00148$
                                   6705 ;E:\Dropbox\FAUSTO\SVILUPPI\MSX\CODE\C\MSXgl\projects\exsoccer/exsoccer_s2_b0.c:1139: g_Players[i].Direction=DIRECTION_UP_LEFT;
    000025F4 21 06 00         [10] 6706 	ld	hl, #0x0006
    000025F7 09               [11] 6707 	add	hl, bc
    000025F8 36 08            [10] 6708 	ld	(hl), #0x08
                                   6709 ;E:\Dropbox\FAUSTO\SVILUPPI\MSX\CODE\C\MSXgl\projects\exsoccer/exsoccer_s2_b0.c:1140: g_Players[i].X--;
    000025FA 6B               [ 4] 6710 	ld	l, e
    000025FB 62               [ 4] 6711 	ld	h, d
    000025FC 7E               [ 7] 6712 	ld	a, (hl)
    000025FD 23               [ 6] 6713 	inc	hl
    000025FE 66               [ 7] 6714 	ld	h, (hl)
                                   6715 ;	spillPairReg hl
                                   6716 ;	spillPairReg hl
                                   6717 ;	spillPairReg hl
    000025FF C6 FF            [ 7] 6718 	add	a, #0xff
    00002601 DD 77 FD         [19] 6719 	ld	-3 (ix), a
    00002604 7C               [ 4] 6720 	ld	a, h
    00002605 CE FF            [ 7] 6721 	adc	a, #0xff
    00002607 DD 77 FE         [19] 6722 	ld	-2 (ix), a
    0000260A 6B               [ 4] 6723 	ld	l, e
    0000260B 62               [ 4] 6724 	ld	h, d
    0000260C DD 7E FD         [19] 6725 	ld	a, -3 (ix)
    0000260F 77               [ 7] 6726 	ld	(hl), a
    00002610 23               [ 6] 6727 	inc	hl
    00002611 DD 7E FE         [19] 6728 	ld	a, -2 (ix)
    00002614 77               [ 7] 6729 	ld	(hl), a
                                   6730 ;E:\Dropbox\FAUSTO\SVILUPPI\MSX\CODE\C\MSXgl\projects\exsoccer/exsoccer_s2_b0.c:1141: g_Players[i].Y--;
    00002615 69               [ 4] 6731 	ld	l, c
    00002616 60               [ 4] 6732 	ld	h, b
    00002617 7E               [ 7] 6733 	ld	a, (hl)
    00002618 23               [ 6] 6734 	inc	hl
    00002619 66               [ 7] 6735 	ld	h, (hl)
                                   6736 ;	spillPairReg hl
                                   6737 ;	spillPairReg hl
                                   6738 ;	spillPairReg hl
    0000261A C6 FF            [ 7] 6739 	add	a, #0xff
    0000261C DD 77 FD         [19] 6740 	ld	-3 (ix), a
    0000261F 7C               [ 4] 6741 	ld	a, h
    00002620 CE FF            [ 7] 6742 	adc	a, #0xff
    00002622 DD 77 FE         [19] 6743 	ld	-2 (ix), a
    00002625 69               [ 4] 6744 	ld	l, c
    00002626 60               [ 4] 6745 	ld	h, b
    00002627 DD 7E FD         [19] 6746 	ld	a, -3 (ix)
    0000262A 77               [ 7] 6747 	ld	(hl), a
    0000262B 23               [ 6] 6748 	inc	hl
    0000262C DD 7E FE         [19] 6749 	ld	a, -2 (ix)
    0000262F 77               [ 7] 6750 	ld	(hl), a
    00002630 C3rE8r27         [10] 6751 	jp	00153$
    00002633                       6752 00148$:
                                   6753 ;E:\Dropbox\FAUSTO\SVILUPPI\MSX\CODE\C\MSXgl\projects\exsoccer/exsoccer_s2_b0.c:1143: else if(g_Players[i].X>g_Players[i].TargetX && g_Players[i].Y<g_Players[i].TargetY){
    00002633 DD 7E FD         [19] 6754 	ld	a, -3 (ix)
    00002636 B7               [ 4] 6755 	or	a, a
    00002637 28 52            [12] 6756 	jr	Z, 00144$
    00002639 69               [ 4] 6757 	ld	l, c
                                   6758 ;	spillPairReg hl
                                   6759 ;	spillPairReg hl
    0000263A 60               [ 4] 6760 	ld	h, b
                                   6761 ;	spillPairReg hl
                                   6762 ;	spillPairReg hl
    0000263B C5               [11] 6763 	push	bc
    0000263C 01 0A 00         [10] 6764 	ld	bc, #0x000a
    0000263F 09               [11] 6765 	add	hl, bc
    00002640 C1               [10] 6766 	pop	bc
    00002641 7E               [ 7] 6767 	ld	a, (hl)
    00002642 23               [ 6] 6768 	inc	hl
    00002643 66               [ 7] 6769 	ld	h, (hl)
                                   6770 ;	spillPairReg hl
    00002644 6F               [ 4] 6771 	ld	l, a
                                   6772 ;	spillPairReg hl
                                   6773 ;	spillPairReg hl
    00002645 DD 7E FA         [19] 6774 	ld	a, -6 (ix)
    00002648 95               [ 4] 6775 	sub	a, l
    00002649 DD 7E FB         [19] 6776 	ld	a, -5 (ix)
    0000264C 9C               [ 4] 6777 	sbc	a, h
    0000264D 30 3C            [12] 6778 	jr	NC, 00144$
                                   6779 ;E:\Dropbox\FAUSTO\SVILUPPI\MSX\CODE\C\MSXgl\projects\exsoccer/exsoccer_s2_b0.c:1144: g_Players[i].Direction=DIRECTION_DOWN_LEFT;
    0000264F 21 06 00         [10] 6780 	ld	hl, #0x0006
    00002652 09               [11] 6781 	add	hl, bc
    00002653 36 06            [10] 6782 	ld	(hl), #0x06
                                   6783 ;E:\Dropbox\FAUSTO\SVILUPPI\MSX\CODE\C\MSXgl\projects\exsoccer/exsoccer_s2_b0.c:1145: g_Players[i].X--;
    00002655 6B               [ 4] 6784 	ld	l, e
    00002656 62               [ 4] 6785 	ld	h, d
    00002657 7E               [ 7] 6786 	ld	a, (hl)
    00002658 23               [ 6] 6787 	inc	hl
    00002659 66               [ 7] 6788 	ld	h, (hl)
                                   6789 ;	spillPairReg hl
                                   6790 ;	spillPairReg hl
                                   6791 ;	spillPairReg hl
    0000265A C6 FF            [ 7] 6792 	add	a, #0xff
    0000265C DD 77 FD         [19] 6793 	ld	-3 (ix), a
    0000265F 7C               [ 4] 6794 	ld	a, h
    00002660 CE FF            [ 7] 6795 	adc	a, #0xff
    00002662 DD 77 FE         [19] 6796 	ld	-2 (ix), a
    00002665 6B               [ 4] 6797 	ld	l, e
    00002666 62               [ 4] 6798 	ld	h, d
    00002667 DD 7E FD         [19] 6799 	ld	a, -3 (ix)
    0000266A 77               [ 7] 6800 	ld	(hl), a
    0000266B 23               [ 6] 6801 	inc	hl
    0000266C DD 7E FE         [19] 6802 	ld	a, -2 (ix)
    0000266F 77               [ 7] 6803 	ld	(hl), a
                                   6804 ;E:\Dropbox\FAUSTO\SVILUPPI\MSX\CODE\C\MSXgl\projects\exsoccer/exsoccer_s2_b0.c:1146: g_Players[i].Y++;
    00002670 69               [ 4] 6805 	ld	l, c
    00002671 60               [ 4] 6806 	ld	h, b
    00002672 7E               [ 7] 6807 	ld	a, (hl)
    00002673 23               [ 6] 6808 	inc	hl
    00002674 66               [ 7] 6809 	ld	h, (hl)
                                   6810 ;	spillPairReg hl
    00002675 6F               [ 4] 6811 	ld	l, a
                                   6812 ;	spillPairReg hl
                                   6813 ;	spillPairReg hl
    00002676 23               [ 6] 6814 	inc	hl
    00002677 DD 75 FD         [19] 6815 	ld	-3 (ix), l
    0000267A DD 74 FE         [19] 6816 	ld	-2 (ix), h
    0000267D 69               [ 4] 6817 	ld	l, c
    0000267E 60               [ 4] 6818 	ld	h, b
    0000267F DD 7E FD         [19] 6819 	ld	a, -3 (ix)
    00002682 77               [ 7] 6820 	ld	(hl), a
    00002683 23               [ 6] 6821 	inc	hl
    00002684 DD 7E FE         [19] 6822 	ld	a, -2 (ix)
    00002687 77               [ 7] 6823 	ld	(hl), a
    00002688 C3rE8r27         [10] 6824 	jp	00153$
    0000268B                       6825 00144$:
                                   6826 ;E:\Dropbox\FAUSTO\SVILUPPI\MSX\CODE\C\MSXgl\projects\exsoccer/exsoccer_s2_b0.c:1148: else if(g_Players[i].X<g_Players[i].TargetX && g_Players[i].Y<g_Players[i].TargetY){
    0000268B DD 7E FC         [19] 6827 	ld	a, -4 (ix)
    0000268E B7               [ 4] 6828 	or	a, a
    0000268F 28 4F            [12] 6829 	jr	Z, 00140$
    00002691 69               [ 4] 6830 	ld	l, c
                                   6831 ;	spillPairReg hl
                                   6832 ;	spillPairReg hl
    00002692 60               [ 4] 6833 	ld	h, b
                                   6834 ;	spillPairReg hl
                                   6835 ;	spillPairReg hl
    00002693 C5               [11] 6836 	push	bc
    00002694 01 0A 00         [10] 6837 	ld	bc, #0x000a
    00002697 09               [11] 6838 	add	hl, bc
    00002698 C1               [10] 6839 	pop	bc
    00002699 7E               [ 7] 6840 	ld	a, (hl)
    0000269A 23               [ 6] 6841 	inc	hl
    0000269B 66               [ 7] 6842 	ld	h, (hl)
                                   6843 ;	spillPairReg hl
    0000269C 6F               [ 4] 6844 	ld	l, a
                                   6845 ;	spillPairReg hl
                                   6846 ;	spillPairReg hl
    0000269D DD 7E FA         [19] 6847 	ld	a, -6 (ix)
    000026A0 95               [ 4] 6848 	sub	a, l
    000026A1 DD 7E FB         [19] 6849 	ld	a, -5 (ix)
    000026A4 9C               [ 4] 6850 	sbc	a, h
    000026A5 30 39            [12] 6851 	jr	NC, 00140$
                                   6852 ;E:\Dropbox\FAUSTO\SVILUPPI\MSX\CODE\C\MSXgl\projects\exsoccer/exsoccer_s2_b0.c:1149: g_Players[i].Direction=DIRECTION_DOWN_RIGHT;
    000026A7 21 06 00         [10] 6853 	ld	hl, #0x0006
    000026AA 09               [11] 6854 	add	hl, bc
    000026AB 36 04            [10] 6855 	ld	(hl), #0x04
                                   6856 ;E:\Dropbox\FAUSTO\SVILUPPI\MSX\CODE\C\MSXgl\projects\exsoccer/exsoccer_s2_b0.c:1150: g_Players[i].X++;
    000026AD 6B               [ 4] 6857 	ld	l, e
    000026AE 62               [ 4] 6858 	ld	h, d
    000026AF 7E               [ 7] 6859 	ld	a, (hl)
    000026B0 23               [ 6] 6860 	inc	hl
    000026B1 66               [ 7] 6861 	ld	h, (hl)
                                   6862 ;	spillPairReg hl
    000026B2 6F               [ 4] 6863 	ld	l, a
                                   6864 ;	spillPairReg hl
                                   6865 ;	spillPairReg hl
    000026B3 23               [ 6] 6866 	inc	hl
    000026B4 DD 75 FD         [19] 6867 	ld	-3 (ix), l
    000026B7 DD 74 FE         [19] 6868 	ld	-2 (ix), h
    000026BA 6B               [ 4] 6869 	ld	l, e
    000026BB 62               [ 4] 6870 	ld	h, d
    000026BC DD 7E FD         [19] 6871 	ld	a, -3 (ix)
    000026BF 77               [ 7] 6872 	ld	(hl), a
    000026C0 23               [ 6] 6873 	inc	hl
    000026C1 DD 7E FE         [19] 6874 	ld	a, -2 (ix)
    000026C4 77               [ 7] 6875 	ld	(hl), a
                                   6876 ;E:\Dropbox\FAUSTO\SVILUPPI\MSX\CODE\C\MSXgl\projects\exsoccer/exsoccer_s2_b0.c:1151: g_Players[i].Y++;
    000026C5 69               [ 4] 6877 	ld	l, c
    000026C6 60               [ 4] 6878 	ld	h, b
    000026C7 7E               [ 7] 6879 	ld	a, (hl)
    000026C8 23               [ 6] 6880 	inc	hl
    000026C9 66               [ 7] 6881 	ld	h, (hl)
                                   6882 ;	spillPairReg hl
    000026CA 6F               [ 4] 6883 	ld	l, a
                                   6884 ;	spillPairReg hl
                                   6885 ;	spillPairReg hl
    000026CB 23               [ 6] 6886 	inc	hl
    000026CC DD 75 FD         [19] 6887 	ld	-3 (ix), l
    000026CF DD 74 FE         [19] 6888 	ld	-2 (ix), h
    000026D2 69               [ 4] 6889 	ld	l, c
    000026D3 60               [ 4] 6890 	ld	h, b
    000026D4 DD 7E FD         [19] 6891 	ld	a, -3 (ix)
    000026D7 77               [ 7] 6892 	ld	(hl), a
    000026D8 23               [ 6] 6893 	inc	hl
    000026D9 DD 7E FE         [19] 6894 	ld	a, -2 (ix)
    000026DC 77               [ 7] 6895 	ld	(hl), a
    000026DD C3rE8r27         [10] 6896 	jp	00153$
    000026E0                       6897 00140$:
                                   6898 ;E:\Dropbox\FAUSTO\SVILUPPI\MSX\CODE\C\MSXgl\projects\exsoccer/exsoccer_s2_b0.c:1153: else if(g_Players[i].X==g_Players[i].TargetX && g_Players[i].Y>g_Players[i].TargetY){
    000026E0 DD 7E F6         [19] 6899 	ld	a, -10 (ix)
    000026E3 DD 96 F8         [19] 6900 	sub	a, -8 (ix)
    000026E6 20 0A            [12] 6901 	jr	NZ, 00474$
    000026E8 DD 7E F7         [19] 6902 	ld	a, -9 (ix)
    000026EB DD 96 F9         [19] 6903 	sub	a, -7 (ix)
    000026EE 3E 01            [ 7] 6904 	ld	a, #0x01
    000026F0 28 01            [12] 6905 	jr	Z, 00475$
    000026F2                       6906 00474$:
    000026F2 AF               [ 4] 6907 	xor	a, a
    000026F3                       6908 00475$:
    000026F3 DD 77 FE         [19] 6909 	ld	-2 (ix), a
    000026F6 B7               [ 4] 6910 	or	a, a
    000026F7 28 38            [12] 6911 	jr	Z, 00136$
    000026F9 69               [ 4] 6912 	ld	l, c
                                   6913 ;	spillPairReg hl
                                   6914 ;	spillPairReg hl
    000026FA 60               [ 4] 6915 	ld	h, b
                                   6916 ;	spillPairReg hl
                                   6917 ;	spillPairReg hl
    000026FB C5               [11] 6918 	push	bc
    000026FC 01 0A 00         [10] 6919 	ld	bc, #0x000a
    000026FF 09               [11] 6920 	add	hl, bc
    00002700 C1               [10] 6921 	pop	bc
    00002701 7E               [ 7] 6922 	ld	a, (hl)
    00002702 23               [ 6] 6923 	inc	hl
    00002703 66               [ 7] 6924 	ld	h, (hl)
                                   6925 ;	spillPairReg hl
                                   6926 ;	spillPairReg hl
                                   6927 ;	spillPairReg hl
    00002704 DD 96 FA         [19] 6928 	sub	a, -6 (ix)
    00002707 7C               [ 4] 6929 	ld	a, h
    00002708 DD 9E FB         [19] 6930 	sbc	a, -5 (ix)
    0000270B 30 24            [12] 6931 	jr	NC, 00136$
                                   6932 ;E:\Dropbox\FAUSTO\SVILUPPI\MSX\CODE\C\MSXgl\projects\exsoccer/exsoccer_s2_b0.c:1154: g_Players[i].Direction=DIRECTION_UP;
    0000270D 21 06 00         [10] 6933 	ld	hl, #0x0006
    00002710 09               [11] 6934 	add	hl, bc
    00002711 36 01            [10] 6935 	ld	(hl), #0x01
                                   6936 ;E:\Dropbox\FAUSTO\SVILUPPI\MSX\CODE\C\MSXgl\projects\exsoccer/exsoccer_s2_b0.c:1155: g_Players[i].Y--;
    00002713 69               [ 4] 6937 	ld	l, c
    00002714 60               [ 4] 6938 	ld	h, b
    00002715 7E               [ 7] 6939 	ld	a, (hl)
    00002716 23               [ 6] 6940 	inc	hl
    00002717 66               [ 7] 6941 	ld	h, (hl)
                                   6942 ;	spillPairReg hl
                                   6943 ;	spillPairReg hl
                                   6944 ;	spillPairReg hl
    00002718 C6 FF            [ 7] 6945 	add	a, #0xff
    0000271A DD 77 FD         [19] 6946 	ld	-3 (ix), a
    0000271D 7C               [ 4] 6947 	ld	a, h
    0000271E CE FF            [ 7] 6948 	adc	a, #0xff
    00002720 DD 77 FE         [19] 6949 	ld	-2 (ix), a
    00002723 69               [ 4] 6950 	ld	l, c
    00002724 60               [ 4] 6951 	ld	h, b
    00002725 DD 7E FD         [19] 6952 	ld	a, -3 (ix)
    00002728 77               [ 7] 6953 	ld	(hl), a
    00002729 23               [ 6] 6954 	inc	hl
    0000272A DD 7E FE         [19] 6955 	ld	a, -2 (ix)
    0000272D 77               [ 7] 6956 	ld	(hl), a
    0000272E C3rE8r27         [10] 6957 	jp	00153$
    00002731                       6958 00136$:
                                   6959 ;E:\Dropbox\FAUSTO\SVILUPPI\MSX\CODE\C\MSXgl\projects\exsoccer/exsoccer_s2_b0.c:1157: else if(g_Players[i].X==g_Players[i].TargetX && g_Players[i].Y<g_Players[i].TargetY){
    00002731 DD 7E FE         [19] 6960 	ld	a, -2 (ix)
    00002734 B7               [ 4] 6961 	or	a, a
    00002735 28 37            [12] 6962 	jr	Z, 00132$
    00002737 69               [ 4] 6963 	ld	l, c
                                   6964 ;	spillPairReg hl
                                   6965 ;	spillPairReg hl
    00002738 60               [ 4] 6966 	ld	h, b
                                   6967 ;	spillPairReg hl
                                   6968 ;	spillPairReg hl
    00002739 C5               [11] 6969 	push	bc
    0000273A 01 0A 00         [10] 6970 	ld	bc, #0x000a
    0000273D 09               [11] 6971 	add	hl, bc
    0000273E C1               [10] 6972 	pop	bc
    0000273F 7E               [ 7] 6973 	ld	a, (hl)
    00002740 23               [ 6] 6974 	inc	hl
    00002741 66               [ 7] 6975 	ld	h, (hl)
                                   6976 ;	spillPairReg hl
    00002742 6F               [ 4] 6977 	ld	l, a
                                   6978 ;	spillPairReg hl
                                   6979 ;	spillPairReg hl
    00002743 DD 7E FA         [19] 6980 	ld	a, -6 (ix)
    00002746 95               [ 4] 6981 	sub	a, l
    00002747 DD 7E FB         [19] 6982 	ld	a, -5 (ix)
    0000274A 9C               [ 4] 6983 	sbc	a, h
    0000274B 30 21            [12] 6984 	jr	NC, 00132$
                                   6985 ;E:\Dropbox\FAUSTO\SVILUPPI\MSX\CODE\C\MSXgl\projects\exsoccer/exsoccer_s2_b0.c:1158: g_Players[i].Direction=DIRECTION_DOWN;
    0000274D 21 06 00         [10] 6986 	ld	hl, #0x0006
    00002750 09               [11] 6987 	add	hl, bc
    00002751 36 05            [10] 6988 	ld	(hl), #0x05
                                   6989 ;E:\Dropbox\FAUSTO\SVILUPPI\MSX\CODE\C\MSXgl\projects\exsoccer/exsoccer_s2_b0.c:1159: g_Players[i].Y++;
    00002753 69               [ 4] 6990 	ld	l, c
    00002754 60               [ 4] 6991 	ld	h, b
    00002755 7E               [ 7] 6992 	ld	a, (hl)
    00002756 23               [ 6] 6993 	inc	hl
    00002757 66               [ 7] 6994 	ld	h, (hl)
                                   6995 ;	spillPairReg hl
    00002758 6F               [ 4] 6996 	ld	l, a
                                   6997 ;	spillPairReg hl
                                   6998 ;	spillPairReg hl
    00002759 23               [ 6] 6999 	inc	hl
    0000275A DD 75 FD         [19] 7000 	ld	-3 (ix), l
    0000275D DD 74 FE         [19] 7001 	ld	-2 (ix), h
    00002760 69               [ 4] 7002 	ld	l, c
    00002761 60               [ 4] 7003 	ld	h, b
    00002762 DD 7E FD         [19] 7004 	ld	a, -3 (ix)
    00002765 77               [ 7] 7005 	ld	(hl), a
    00002766 23               [ 6] 7006 	inc	hl
    00002767 DD 7E FE         [19] 7007 	ld	a, -2 (ix)
    0000276A 77               [ 7] 7008 	ld	(hl), a
    0000276B C3rE8r27         [10] 7009 	jp	00153$
    0000276E                       7010 00132$:
                                   7011 ;E:\Dropbox\FAUSTO\SVILUPPI\MSX\CODE\C\MSXgl\projects\exsoccer/exsoccer_s2_b0.c:1161: else if(g_Players[i].X<g_Players[i].TargetX && g_Players[i].Y==g_Players[i].TargetY){
    0000276E DD 7E FC         [19] 7012 	ld	a, -4 (ix)
    00002771 B7               [ 4] 7013 	or	a, a
    00002772 28 37            [12] 7014 	jr	Z, 00128$
    00002774 69               [ 4] 7015 	ld	l, c
                                   7016 ;	spillPairReg hl
                                   7017 ;	spillPairReg hl
    00002775 60               [ 4] 7018 	ld	h, b
                                   7019 ;	spillPairReg hl
                                   7020 ;	spillPairReg hl
    00002776 C5               [11] 7021 	push	bc
    00002777 01 0A 00         [10] 7022 	ld	bc, #0x000a
    0000277A 09               [11] 7023 	add	hl, bc
    0000277B C1               [10] 7024 	pop	bc
    0000277C 7E               [ 7] 7025 	ld	a, (hl)
    0000277D 23               [ 6] 7026 	inc	hl
    0000277E 66               [ 7] 7027 	ld	h, (hl)
                                   7028 ;	spillPairReg hl
                                   7029 ;	spillPairReg hl
                                   7030 ;	spillPairReg hl
    0000277F DD 96 FA         [19] 7031 	sub	a, -6 (ix)
    00002782 20 27            [12] 7032 	jr	NZ, 00128$
    00002784 7C               [ 4] 7033 	ld	a, h
    00002785 DD 96 FB         [19] 7034 	sub	a, -5 (ix)
    00002788 20 21            [12] 7035 	jr	NZ, 00128$
                                   7036 ;E:\Dropbox\FAUSTO\SVILUPPI\MSX\CODE\C\MSXgl\projects\exsoccer/exsoccer_s2_b0.c:1162: g_Players[i].Direction=DIRECTION_RIGHT;
    0000278A 21 06 00         [10] 7037 	ld	hl, #0x0006
    0000278D 09               [11] 7038 	add	hl, bc
    0000278E 36 03            [10] 7039 	ld	(hl), #0x03
                                   7040 ;E:\Dropbox\FAUSTO\SVILUPPI\MSX\CODE\C\MSXgl\projects\exsoccer/exsoccer_s2_b0.c:1163: g_Players[i].X++;
    00002790 6B               [ 4] 7041 	ld	l, e
    00002791 62               [ 4] 7042 	ld	h, d
    00002792 7E               [ 7] 7043 	ld	a, (hl)
    00002793 23               [ 6] 7044 	inc	hl
    00002794 66               [ 7] 7045 	ld	h, (hl)
                                   7046 ;	spillPairReg hl
    00002795 6F               [ 4] 7047 	ld	l, a
                                   7048 ;	spillPairReg hl
                                   7049 ;	spillPairReg hl
    00002796 23               [ 6] 7050 	inc	hl
    00002797 DD 75 FD         [19] 7051 	ld	-3 (ix), l
    0000279A DD 74 FE         [19] 7052 	ld	-2 (ix), h
    0000279D 6B               [ 4] 7053 	ld	l, e
    0000279E 62               [ 4] 7054 	ld	h, d
    0000279F DD 7E FD         [19] 7055 	ld	a, -3 (ix)
    000027A2 77               [ 7] 7056 	ld	(hl), a
    000027A3 23               [ 6] 7057 	inc	hl
    000027A4 DD 7E FE         [19] 7058 	ld	a, -2 (ix)
    000027A7 77               [ 7] 7059 	ld	(hl), a
    000027A8 C3rE8r27         [10] 7060 	jp	00153$
    000027AB                       7061 00128$:
                                   7062 ;E:\Dropbox\FAUSTO\SVILUPPI\MSX\CODE\C\MSXgl\projects\exsoccer/exsoccer_s2_b0.c:1165: else if(g_Players[i].X>g_Players[i].TargetX && g_Players[i].Y==g_Players[i].TargetY){
    000027AB DD 7E FD         [19] 7063 	ld	a, -3 (ix)
    000027AE B7               [ 4] 7064 	or	a, a
    000027AF 28 37            [12] 7065 	jr	Z, 00153$
    000027B1 69               [ 4] 7066 	ld	l, c
                                   7067 ;	spillPairReg hl
                                   7068 ;	spillPairReg hl
    000027B2 60               [ 4] 7069 	ld	h, b
                                   7070 ;	spillPairReg hl
                                   7071 ;	spillPairReg hl
    000027B3 C5               [11] 7072 	push	bc
    000027B4 01 0A 00         [10] 7073 	ld	bc, #0x000a
    000027B7 09               [11] 7074 	add	hl, bc
    000027B8 C1               [10] 7075 	pop	bc
    000027B9 7E               [ 7] 7076 	ld	a, (hl)
    000027BA 23               [ 6] 7077 	inc	hl
    000027BB 66               [ 7] 7078 	ld	h, (hl)
                                   7079 ;	spillPairReg hl
                                   7080 ;	spillPairReg hl
                                   7081 ;	spillPairReg hl
    000027BC DD 96 FA         [19] 7082 	sub	a, -6 (ix)
    000027BF 20 27            [12] 7083 	jr	NZ, 00153$
    000027C1 7C               [ 4] 7084 	ld	a, h
    000027C2 DD 96 FB         [19] 7085 	sub	a, -5 (ix)
    000027C5 20 21            [12] 7086 	jr	NZ, 00153$
                                   7087 ;E:\Dropbox\FAUSTO\SVILUPPI\MSX\CODE\C\MSXgl\projects\exsoccer/exsoccer_s2_b0.c:1166: g_Players[i].Direction=DIRECTION_LEFT;
    000027C7 21 06 00         [10] 7088 	ld	hl, #0x0006
    000027CA 09               [11] 7089 	add	hl, bc
    000027CB 36 07            [10] 7090 	ld	(hl), #0x07
                                   7091 ;E:\Dropbox\FAUSTO\SVILUPPI\MSX\CODE\C\MSXgl\projects\exsoccer/exsoccer_s2_b0.c:1167: g_Players[i].X--;
    000027CD 6B               [ 4] 7092 	ld	l, e
    000027CE 62               [ 4] 7093 	ld	h, d
    000027CF 7E               [ 7] 7094 	ld	a, (hl)
    000027D0 23               [ 6] 7095 	inc	hl
    000027D1 66               [ 7] 7096 	ld	h, (hl)
                                   7097 ;	spillPairReg hl
                                   7098 ;	spillPairReg hl
                                   7099 ;	spillPairReg hl
    000027D2 C6 FF            [ 7] 7100 	add	a, #0xff
    000027D4 DD 77 FD         [19] 7101 	ld	-3 (ix), a
    000027D7 7C               [ 4] 7102 	ld	a, h
    000027D8 CE FF            [ 7] 7103 	adc	a, #0xff
    000027DA DD 77 FE         [19] 7104 	ld	-2 (ix), a
    000027DD 6B               [ 4] 7105 	ld	l, e
    000027DE 62               [ 4] 7106 	ld	h, d
    000027DF DD 7E FD         [19] 7107 	ld	a, -3 (ix)
    000027E2 77               [ 7] 7108 	ld	(hl), a
    000027E3 23               [ 6] 7109 	inc	hl
    000027E4 DD 7E FE         [19] 7110 	ld	a, -2 (ix)
    000027E7 77               [ 7] 7111 	ld	(hl), a
    000027E8                       7112 00153$:
                                   7113 ;E:\Dropbox\FAUSTO\SVILUPPI\MSX\CODE\C\MSXgl\projects\exsoccer/exsoccer_s2_b0.c:1171: if(g_Players[i].Y < FIELD_BOUND_Y_TOP) g_Players[i].Y = FIELD_BOUND_Y_TOP;
    000027E8 69               [ 4] 7114 	ld	l, c
    000027E9 60               [ 4] 7115 	ld	h, b
    000027EA 7E               [ 7] 7116 	ld	a, (hl)
    000027EB 23               [ 6] 7117 	inc	hl
    000027EC 66               [ 7] 7118 	ld	h, (hl)
                                   7119 ;	spillPairReg hl
                                   7120 ;	spillPairReg hl
                                   7121 ;	spillPairReg hl
    000027ED D6 32            [ 7] 7122 	sub	a, #0x32
    000027EF 7C               [ 4] 7123 	ld	a, h
    000027F0 DE 00            [ 7] 7124 	sbc	a, #0x00
    000027F2 30 07            [12] 7125 	jr	NC, 00156$
    000027F4 69               [ 4] 7126 	ld	l, c
    000027F5 60               [ 4] 7127 	ld	h, b
    000027F6 36 32            [10] 7128 	ld	(hl), #0x32
    000027F8 23               [ 6] 7129 	inc	hl
    000027F9 36 00            [10] 7130 	ld	(hl), #0x00
    000027FB                       7131 00156$:
                                   7132 ;E:\Dropbox\FAUSTO\SVILUPPI\MSX\CODE\C\MSXgl\projects\exsoccer/exsoccer_s2_b0.c:1172: if(g_Players[i].Y > FIELD_BOUND_Y_BOTTOM) g_Players[i].Y = FIELD_BOUND_Y_BOTTOM;
    000027FB 69               [ 4] 7133 	ld	l, c
    000027FC 60               [ 4] 7134 	ld	h, b
    000027FD 7E               [ 7] 7135 	ld	a, (hl)
    000027FE 23               [ 6] 7136 	inc	hl
    000027FF 66               [ 7] 7137 	ld	h, (hl)
                                   7138 ;	spillPairReg hl
    00002800 6F               [ 4] 7139 	ld	l, a
                                   7140 ;	spillPairReg hl
                                   7141 ;	spillPairReg hl
    00002801 3E AE            [ 7] 7142 	ld	a, #0xae
    00002803 BD               [ 4] 7143 	cp	a, l
    00002804 3E 01            [ 7] 7144 	ld	a, #0x01
    00002806 9C               [ 4] 7145 	sbc	a, h
    00002807 30 07            [12] 7146 	jr	NC, 00158$
    00002809 3E AE            [ 7] 7147 	ld	a, #0xae
    0000280B 02               [ 7] 7148 	ld	(bc), a
    0000280C 03               [ 6] 7149 	inc	bc
    0000280D 3E 01            [ 7] 7150 	ld	a, #0x01
    0000280F 02               [ 7] 7151 	ld	(bc), a
    00002810                       7152 00158$:
                                   7153 ;E:\Dropbox\FAUSTO\SVILUPPI\MSX\CODE\C\MSXgl\projects\exsoccer/exsoccer_s2_b0.c:1173: if(g_Players[i].X < FIELD_BOUND_X_LEFT) g_Players[i].X = FIELD_BOUND_X_LEFT;
    00002810 6B               [ 4] 7154 	ld	l, e
    00002811 62               [ 4] 7155 	ld	h, d
    00002812 4E               [ 7] 7156 	ld	c, (hl)
    00002813 23               [ 6] 7157 	inc	hl
    00002814 46               [ 7] 7158 	ld	b, (hl)
    00002815 79               [ 4] 7159 	ld	a, c
    00002816 D6 0A            [ 7] 7160 	sub	a, #0x0a
    00002818 78               [ 4] 7161 	ld	a, b
    00002819 DE 00            [ 7] 7162 	sbc	a, #0x00
    0000281B 30 07            [12] 7163 	jr	NC, 00160$
    0000281D 6B               [ 4] 7164 	ld	l, e
    0000281E 62               [ 4] 7165 	ld	h, d
    0000281F 36 0A            [10] 7166 	ld	(hl), #0x0a
    00002821 23               [ 6] 7167 	inc	hl
    00002822 36 00            [10] 7168 	ld	(hl), #0x00
    00002824                       7169 00160$:
                                   7170 ;E:\Dropbox\FAUSTO\SVILUPPI\MSX\CODE\C\MSXgl\projects\exsoccer/exsoccer_s2_b0.c:1174: if(g_Players[i].X > FIELD_BOUND_X_RIGHT) g_Players[i].X = FIELD_BOUND_X_RIGHT;
    00002824 6B               [ 4] 7171 	ld	l, e
    00002825 62               [ 4] 7172 	ld	h, d
    00002826 4E               [ 7] 7173 	ld	c, (hl)
    00002827 23               [ 6] 7174 	inc	hl
    00002828 46               [ 7] 7175 	ld	b, (hl)
    00002829 3E F6            [ 7] 7176 	ld	a, #0xf6
    0000282B B9               [ 4] 7177 	cp	a, c
    0000282C 3E 00            [ 7] 7178 	ld	a, #0x00
    0000282E 98               [ 4] 7179 	sbc	a, b
    0000282F 30 06            [12] 7180 	jr	NC, 00162$
    00002831 3E F6            [ 7] 7181 	ld	a, #0xf6
    00002833 12               [ 7] 7182 	ld	(de), a
    00002834 13               [ 6] 7183 	inc	de
    00002835 AF               [ 4] 7184 	xor	a, a
    00002836 12               [ 7] 7185 	ld	(de), a
    00002837                       7186 00162$:
                                   7187 ;E:\Dropbox\FAUSTO\SVILUPPI\MSX\CODE\C\MSXgl\projects\exsoccer/exsoccer_s2_b0.c:1176: if (g_MatchStatus == MATCH_IN_ACTION) {
    00002837 3Ar00r00         [13] 7188 	ld	a, (_g_MatchStatus+0)
    0000283A D6 0C            [ 7] 7189 	sub	a, #0x0c
    0000283C C2rFCr28         [10] 7190 	jp	NZ,00190$
                                   7191 ;E:\Dropbox\FAUSTO\SVILUPPI\MSX\CODE\C\MSXgl\projects\exsoccer/exsoccer_s2_b0.c:1177: if (g_Ball.PossessionPlayerId == i) {
    0000283F 21r06r00         [10] 7192 	ld	hl, #_g_Ball + 6
    00002842 DD 7E FF         [19] 7193 	ld	a,-1 (ix)
    00002845 96               [ 7] 7194 	sub	a,(hl)
    00002846 C2rFCr28         [10] 7195 	jp	NZ,00190$
                                   7196 ;E:\Dropbox\FAUSTO\SVILUPPI\MSX\CODE\C\MSXgl\projects\exsoccer/exsoccer_s2_b0.c:1178: if (g_Ball.KickMoveState == NO_VALUE) g_Ball.KickMoveState = 0;
    00002849 21r0Dr00         [10] 7197 	ld	hl, #_g_Ball + 13
    0000284C 7E               [ 7] 7198 	ld	a, (hl)
    0000284D 3C               [ 4] 7199 	inc	a
    0000284E 20 01            [12] 7200 	jr	NZ, 00164$
    00002850 77               [ 7] 7201 	ld	(hl),a
    00002851                       7202 00164$:
                                   7203 ;E:\Dropbox\FAUSTO\SVILUPPI\MSX\CODE\C\MSXgl\projects\exsoccer/exsoccer_s2_b0.c:1179: g_Ball.KickMoveState++;
    00002851 34               [11] 7204 	inc	(hl)
    00002852 4E               [ 7] 7205 	ld	c, (hl)
                                   7206 ;E:\Dropbox\FAUSTO\SVILUPPI\MSX\CODE\C\MSXgl\projects\exsoccer/exsoccer_s2_b0.c:1180: if (g_Ball.KickMoveState > 3) g_Ball.KickMoveState = 0;
    00002853 3E 03            [ 7] 7207 	ld	a, #0x03
    00002855 91               [ 4] 7208 	sub	a, c
    00002856 30 02            [12] 7209 	jr	NC, 00166$
    00002858 36 00            [10] 7210 	ld	(hl), #0x00
    0000285A                       7211 00166$:
                                   7212 ;E:\Dropbox\FAUSTO\SVILUPPI\MSX\CODE\C\MSXgl\projects\exsoccer/exsoccer_s2_b0.c:1181: PutBallOnPlayerFeet(i);
    0000285A DD 7E FF         [19] 7213 	ld	a, -1 (ix)
    0000285D CDr3Cr19         [17] 7214 	call	_PutBallOnPlayerFeet
    00002860 C3rFCr28         [10] 7215 	jp	00190$
    00002863                       7216 00188$:
                                   7217 ;E:\Dropbox\FAUSTO\SVILUPPI\MSX\CODE\C\MSXgl\projects\exsoccer/exsoccer_s2_b0.c:1187: if(g_MatchStatus==MATCH_IN_ACTION){
    00002863 3Ar00r00         [13] 7218 	ld	a, (_g_MatchStatus+0)
    00002866 D6 0C            [ 7] 7219 	sub	a, #0x0c
    00002868 20 09            [12] 7220 	jr	NZ, 00172$
                                   7221 ;E:\Dropbox\FAUSTO\SVILUPPI\MSX\CODE\C\MSXgl\projects\exsoccer/exsoccer_s2_b0.c:1188: g_Players[i].Status=PLAYER_STATUS_POSITIONED;
    0000286A 21 0E 00         [10] 7222 	ld	hl, #0x000e
    0000286D 09               [11] 7223 	add	hl, bc
    0000286E 36 04            [10] 7224 	ld	(hl), #0x04
    00002870 23               [ 6] 7225 	inc	hl
    00002871 36 00            [10] 7226 	ld	(hl), #0x00
    00002873                       7227 00172$:
                                   7228 ;E:\Dropbox\FAUSTO\SVILUPPI\MSX\CODE\C\MSXgl\projects\exsoccer/exsoccer_s2_b0.c:1192: if(g_MatchStatus==MATCH_BEFORE_KICK_OFF){
    00002873 3Ar00r00         [13] 7229 	ld	a, (_g_MatchStatus+0)
    00002876 3D               [ 4] 7230 	dec	a
    00002877 C2rFCr28         [10] 7231 	jp	NZ,00190$
                                   7232 ;E:\Dropbox\FAUSTO\SVILUPPI\MSX\CODE\C\MSXgl\projects\exsoccer/exsoccer_s2_b0.c:1194: if(g_Players[i].PatternId!=PLAYER_POSE_BACK && g_Players[i].PatternId!=PLAYER_POSE_FRONT){
    0000287A 21 04 00         [10] 7233 	ld	hl, #0x0004
    0000287D 09               [11] 7234 	add	hl, bc
    0000287E DD 75 FB         [19] 7235 	ld	-5 (ix), l
    00002881 DD 74 FC         [19] 7236 	ld	-4 (ix), h
    00002884 7E               [ 7] 7237 	ld	a, (hl)
    00002885 FE 11            [ 7] 7238 	cp	a, #0x11
    00002887 28 73            [12] 7239 	jr	Z, 00190$
    00002889 D6 10            [ 7] 7240 	sub	a, #0x10
    0000288B 28 6F            [12] 7241 	jr	Z, 00190$
                                   7242 ;E:\Dropbox\FAUSTO\SVILUPPI\MSX\CODE\C\MSXgl\projects\exsoccer/exsoccer_s2_b0.c:1195: g_Players[i].Status=PLAYER_STATUS_POSITIONED;
    0000288D 21 0E 00         [10] 7243 	ld	hl, #0x000e
    00002890 09               [11] 7244 	add	hl, bc
    00002891 36 04            [10] 7245 	ld	(hl), #0x04
    00002893 23               [ 6] 7246 	inc	hl
    00002894 36 00            [10] 7247 	ld	(hl), #0x00
                                   7248 ;E:\Dropbox\FAUSTO\SVILUPPI\MSX\CODE\C\MSXgl\projects\exsoccer/exsoccer_s2_b0.c:1134: g_Players[i].Direction=DIRECTION_UP_RIGHT;
    00002896 21 06 00         [10] 7249 	ld	hl, #0x0006
    00002899 09               [11] 7250 	add	hl, bc
    0000289A DD 75 FD         [19] 7251 	ld	-3 (ix), l
    0000289D DD 74 FE         [19] 7252 	ld	-2 (ix), h
                                   7253 ;E:\Dropbox\FAUSTO\SVILUPPI\MSX\CODE\C\MSXgl\projects\exsoccer/exsoccer_s2_b0.c:1198: if(g_Players[i].TeamId==TEAM_1){
    000028A0 21 05 00         [10] 7254 	ld	hl, #5
    000028A3 09               [11] 7255 	add	hl, bc
    000028A4 7E               [ 7] 7256 	ld	a, (hl)
    000028A5 3D               [ 4] 7257 	dec	a
    000028A6 3E 01            [ 7] 7258 	ld	a, #0x01
    000028A8 28 01            [12] 7259 	jr	Z, 00493$
    000028AA AF               [ 4] 7260 	xor	a, a
    000028AB                       7261 00493$:
    000028AB 4F               [ 4] 7262 	ld	c, a
                                   7263 ;E:\Dropbox\FAUSTO\SVILUPPI\MSX\CODE\C\MSXgl\projects\exsoccer/exsoccer_s2_b0.c:1197: if (i != g_GoalScorerId) {
    000028AC DD 7E FF         [19] 7264 	ld	a, -1 (ix)
    000028AF 21r00r00         [10] 7265 	ld	hl, #_g_GoalScorerId
    000028B2 96               [ 7] 7266 	sub	a, (hl)
    000028B3 28 2A            [12] 7267 	jr	Z, 00180$
                                   7268 ;E:\Dropbox\FAUSTO\SVILUPPI\MSX\CODE\C\MSXgl\projects\exsoccer/exsoccer_s2_b0.c:1198: if(g_Players[i].TeamId==TEAM_1){
    000028B5 79               [ 4] 7269 	ld	a, c
    000028B6 B7               [ 4] 7270 	or	a, a
    000028B7 28 13            [12] 7271 	jr	Z, 00174$
                                   7272 ;E:\Dropbox\FAUSTO\SVILUPPI\MSX\CODE\C\MSXgl\projects\exsoccer/exsoccer_s2_b0.c:1199: g_Players[i].PatternId=PLAYER_POSE_BACK;
    000028B9 DD 6E FB         [19] 7273 	ld	l, -5 (ix)
    000028BC DD 66 FC         [19] 7274 	ld	h, -4 (ix)
    000028BF 36 11            [10] 7275 	ld	(hl), #0x11
                                   7276 ;E:\Dropbox\FAUSTO\SVILUPPI\MSX\CODE\C\MSXgl\projects\exsoccer/exsoccer_s2_b0.c:1200: g_Players[i].Direction=DIRECTION_UP;
    000028C1 DD 6E FD         [19] 7277 	ld	l, -3 (ix)
    000028C4 DD 66 FE         [19] 7278 	ld	h, -2 (ix)
    000028C7 36 01            [10] 7279 	ld	(hl), #0x01
    000028C9 C3rF6r28         [10] 7280 	jp	00181$
    000028CC                       7281 00174$:
                                   7282 ;E:\Dropbox\FAUSTO\SVILUPPI\MSX\CODE\C\MSXgl\projects\exsoccer/exsoccer_s2_b0.c:1203: g_Players[i].PatternId=PLAYER_POSE_FRONT;
    000028CC DD 6E FB         [19] 7283 	ld	l, -5 (ix)
    000028CF DD 66 FC         [19] 7284 	ld	h, -4 (ix)
    000028D2 36 10            [10] 7285 	ld	(hl), #0x10
                                   7286 ;E:\Dropbox\FAUSTO\SVILUPPI\MSX\CODE\C\MSXgl\projects\exsoccer/exsoccer_s2_b0.c:1204: g_Players[i].Direction=DIRECTION_DOWN;
    000028D4 DD 6E FD         [19] 7287 	ld	l, -3 (ix)
    000028D7 DD 66 FE         [19] 7288 	ld	h, -2 (ix)
    000028DA 36 05            [10] 7289 	ld	(hl), #0x05
    000028DC C3rF6r28         [10] 7290 	jp	00181$
    000028DF                       7291 00180$:
                                   7292 ;E:\Dropbox\FAUSTO\SVILUPPI\MSX\CODE\C\MSXgl\projects\exsoccer/exsoccer_s2_b0.c:1210: if(g_Players[i].TeamId==TEAM_1) g_Players[i].Direction=DIRECTION_UP;
    000028DF 79               [ 4] 7293 	ld	a, c
    000028E0 B7               [ 4] 7294 	or	a, a
    000028E1 28 0B            [12] 7295 	jr	Z, 00177$
    000028E3 DD 6E FD         [19] 7296 	ld	l, -3 (ix)
    000028E6 DD 66 FE         [19] 7297 	ld	h, -2 (ix)
    000028E9 36 01            [10] 7298 	ld	(hl), #0x01
    000028EB C3rF6r28         [10] 7299 	jp	00181$
    000028EE                       7300 00177$:
                                   7301 ;E:\Dropbox\FAUSTO\SVILUPPI\MSX\CODE\C\MSXgl\projects\exsoccer/exsoccer_s2_b0.c:1211: else g_Players[i].Direction=DIRECTION_DOWN;
    000028EE DD 6E FD         [19] 7302 	ld	l, -3 (ix)
    000028F1 DD 66 FE         [19] 7303 	ld	h, -2 (ix)
    000028F4 36 05            [10] 7304 	ld	(hl), #0x05
    000028F6                       7305 00181$:
                                   7306 ;E:\Dropbox\FAUSTO\SVILUPPI\MSX\CODE\C\MSXgl\projects\exsoccer/exsoccer_s2_b0.c:1213: PutPlayerSprite(i);
    000028F6 DD 7E FF         [19] 7307 	ld	a, -1 (ix)
    000028F9 CDrFBr21         [17] 7308 	call	_PutPlayerSprite
    000028FC                       7309 00190$:
                                   7310 ;E:\Dropbox\FAUSTO\SVILUPPI\MSX\CODE\C\MSXgl\projects\exsoccer/exsoccer_s2_b0.c:1103: for(u8 i=0;i<15;i++){
    000028FC DD 34 FF         [23] 7311 	inc	-1 (ix)
    000028FF C3r5Fr24         [10] 7312 	jp	00199$
    00002902                       7313 00191$:
                                   7314 ;E:\Dropbox\FAUSTO\SVILUPPI\MSX\CODE\C\MSXgl\projects\exsoccer/exsoccer_s2_b0.c:1220: if(g_MatchStatus==MATCH_BEFORE_KICK_OFF && allPlayersInPosition && g_FieldScrollingActionInProgress==NO_VALUE){
    00002902 3Ar00r00         [13] 7315 	ld	a, (_g_MatchStatus+0)
    00002905 3D               [ 4] 7316 	dec	a
    00002906 20 20            [12] 7317 	jr	NZ, 00200$
    00002908 DD 7E F5         [19] 7318 	ld	a, -11 (ix)
    0000290B B7               [ 4] 7319 	or	a, a
    0000290C 28 1A            [12] 7320 	jr	Z, 00200$
    0000290E 3Ar00r00         [13] 7321 	ld	a, (_g_FieldScrollingActionInProgress+0)
    00002911 3C               [ 4] 7322 	inc	a
    00002912 20 14            [12] 7323 	jr	NZ, 00200$
                                   7324 ;E:\Dropbox\FAUSTO\SVILUPPI\MSX\CODE\C\MSXgl\projects\exsoccer/exsoccer_s2_b0.c:1221: g_FieldScrollSpeed=FIELD_SCROLL_GAME_SPEED;
    00002914 21r00r00         [10] 7325 	ld	hl, #_g_FieldScrollSpeed
    00002917 36 05            [10] 7326 	ld	(hl), #0x05
                                   7327 ;E:\Dropbox\FAUSTO\SVILUPPI\MSX\CODE\C\MSXgl\projects\exsoccer/exsoccer_s2_b0.c:1222: g_MatchStatus=MATCH_KICK_OFF;
    00002919 21r00r00         [10] 7328 	ld	hl, #_g_MatchStatus
    0000291C 36 07            [10] 7329 	ld	(hl), #0x07
                                   7330 ;E:\Dropbox\FAUSTO\SVILUPPI\MSX\CODE\C\MSXgl\projects\exsoccer/exsoccer_s2_b0.c:1223: g_Timer=0;
    0000291E 21r00r00         [10] 7331 	ld	hl, #_g_Timer
    00002921 36 00            [10] 7332 	ld	(hl), #0x00
                                   7333 ;E:\Dropbox\FAUSTO\SVILUPPI\MSX\CODE\C\MSXgl\projects\exsoccer/exsoccer_s2_b0.c:1224: g_GoalScorerId = NO_VALUE; // Reset scorer
    00002923 21r00r00         [10] 7334 	ld	hl, #_g_GoalScorerId
    00002926 36 FF            [10] 7335 	ld	(hl), #0xff
    00002928                       7336 00200$:
                                   7337 ;E:\Dropbox\FAUSTO\SVILUPPI\MSX\CODE\C\MSXgl\projects\exsoccer/exsoccer_s2_b0.c:1228: }
    00002928 DD F9            [10] 7338 	ld	sp, ix
    0000292A DD E1            [14] 7339 	pop	ix
    0000292C C9               [10] 7340 	ret
                                   7341 ;E:\Dropbox\FAUSTO\SVILUPPI\MSX\CODE\C\MSXgl\projects\exsoccer/exsoccer_s2_b0.c:1231: char *GetNumberString(u16 value)
                                   7342 ;	---------------------------------
                                   7343 ; Function GetNumberString
                                   7344 ; ---------------------------------
    0000292D                       7345 _GetNumberString::
    0000292D EB               [ 4] 7346 	ex	de, hl
                                   7347 ;E:\Dropbox\FAUSTO\SVILUPPI\MSX\CODE\C\MSXgl\projects\exsoccer/exsoccer_s2_b0.c:1235: if (value < 10) {
    0000292E 4B               [ 4] 7348 	ld	c, e
    0000292F 42               [ 4] 7349 	ld	b, d
    00002930 79               [ 4] 7350 	ld	a, c
    00002931 D6 0A            [ 7] 7351 	sub	a, #0x0a
    00002933 78               [ 4] 7352 	ld	a, b
    00002934 DE 00            [ 7] 7353 	sbc	a, #0x00
    00002936 30 0D            [12] 7354 	jr	NC, 00102$
                                   7355 ;E:\Dropbox\FAUSTO\SVILUPPI\MSX\CODE\C\MSXgl\projects\exsoccer/exsoccer_s2_b0.c:1236: str[0] = '0' + value;
    00002938 01r01r00         [10] 7356 	ld	bc, #_GetNumberString_str_65536_1386+0
    0000293B 7B               [ 4] 7357 	ld	a, e
    0000293C C6 30            [ 7] 7358 	add	a, #0x30
    0000293E 02               [ 7] 7359 	ld	(bc), a
                                   7360 ;E:\Dropbox\FAUSTO\SVILUPPI\MSX\CODE\C\MSXgl\projects\exsoccer/exsoccer_s2_b0.c:1237: str[1] = '\0';
    0000293F 03               [ 6] 7361 	inc	bc
    00002940 AF               [ 4] 7362 	xor	a, a
    00002941 02               [ 7] 7363 	ld	(bc), a
    00002942 C3r68r29         [10] 7364 	jp	00103$
    00002945                       7365 00102$:
                                   7366 ;E:\Dropbox\FAUSTO\SVILUPPI\MSX\CODE\C\MSXgl\projects\exsoccer/exsoccer_s2_b0.c:1239: str[0] = '0' + (value / 10);
    00002945 C5               [11] 7367 	push	bc
    00002946 11 0A 00         [10] 7368 	ld	de, #0x000a
    00002949 69               [ 4] 7369 	ld	l, c
                                   7370 ;	spillPairReg hl
                                   7371 ;	spillPairReg hl
    0000294A 60               [ 4] 7372 	ld	h, b
                                   7373 ;	spillPairReg hl
                                   7374 ;	spillPairReg hl
    0000294B CDr00r00         [17] 7375 	call	__divuint
    0000294E C1               [10] 7376 	pop	bc
    0000294F 7B               [ 4] 7377 	ld	a, e
    00002950 C6 30            [ 7] 7378 	add	a, #0x30
    00002952 32r01r00         [13] 7379 	ld	(#_GetNumberString_str_65536_1386),a
                                   7380 ;E:\Dropbox\FAUSTO\SVILUPPI\MSX\CODE\C\MSXgl\projects\exsoccer/exsoccer_s2_b0.c:1240: str[1] = '0' + (value % 10);
    00002955 11 0A 00         [10] 7381 	ld	de, #0x000a
    00002958 69               [ 4] 7382 	ld	l, c
                                   7383 ;	spillPairReg hl
                                   7384 ;	spillPairReg hl
    00002959 60               [ 4] 7385 	ld	h, b
                                   7386 ;	spillPairReg hl
                                   7387 ;	spillPairReg hl
    0000295A CDr00r00         [17] 7388 	call	__moduint
    0000295D 7B               [ 4] 7389 	ld	a, e
    0000295E C6 30            [ 7] 7390 	add	a, #0x30
    00002960 32r02r00         [13] 7391 	ld	(#(_GetNumberString_str_65536_1386 + 1)),a
                                   7392 ;E:\Dropbox\FAUSTO\SVILUPPI\MSX\CODE\C\MSXgl\projects\exsoccer/exsoccer_s2_b0.c:1241: str[2] = '\0';
    00002963 21r03r00         [10] 7393 	ld	hl, #(_GetNumberString_str_65536_1386 + 2)
    00002966 36 00            [10] 7394 	ld	(hl), #0x00
    00002968                       7395 00103$:
                                   7396 ;E:\Dropbox\FAUSTO\SVILUPPI\MSX\CODE\C\MSXgl\projects\exsoccer/exsoccer_s2_b0.c:1244: return str;
    00002968 11r01r00         [10] 7397 	ld	de, #_GetNumberString_str_65536_1386
                                   7398 ;E:\Dropbox\FAUSTO\SVILUPPI\MSX\CODE\C\MSXgl\projects\exsoccer/exsoccer_s2_b0.c:1245: }
    0000296B C9               [10] 7399 	ret
                                   7400 ;E:\Dropbox\FAUSTO\SVILUPPI\MSX\CODE\C\MSXgl\projects\exsoccer/exsoccer_s2_b0.c:1247: bool IsTeamJoystickTriggerPressed(u8 teamId){
                                   7401 ;	---------------------------------
                                   7402 ; Function IsTeamJoystickTriggerPressed
                                   7403 ; ---------------------------------
    0000296C                       7404 _IsTeamJoystickTriggerPressed::
    0000296C 4F               [ 4] 7405 	ld	c, a
                                   7406 ;E:\Dropbox\FAUSTO\SVILUPPI\MSX\CODE\C\MSXgl\projects\exsoccer/exsoccer_s2_b0.c:1248: if(teamId==TEAM_1){
    0000296D 0D               [ 4] 7407 	dec	c
    0000296E 20 17            [12] 7408 	jr	NZ, 00108$
                                   7409 ;E:\Dropbox\FAUSTO\SVILUPPI\MSX\CODE\C\MSXgl\projects\exsoccer/exsoccer_s2_b0.c:1249: u8 joyStat = Joystick_Read(JOY_PORT_1);
    00002970 2E 0F            [ 7] 7410 	ld	l, #0x0f
                                   7411 ;	spillPairReg hl
                                   7412 ;	spillPairReg hl
    00002972 CDr00r00         [17] 7413 	call	_Joystick_Read
                                   7414 ;E:\Dropbox\FAUSTO\SVILUPPI\MSX\CODE\C\MSXgl\projects\exsoccer/exsoccer_s2_b0.c:1250: if (IS_JOY_PRESSED(joyStat, JOY_INPUT_TRIGGER_A))
    00002975 CB 65            [ 8] 7415 	bit	4, l
    00002977 20 03            [12] 7416 	jr	NZ, 00102$
                                   7417 ;E:\Dropbox\FAUSTO\SVILUPPI\MSX\CODE\C\MSXgl\projects\exsoccer/exsoccer_s2_b0.c:1252: return true;
    00002979 3E 01            [ 7] 7418 	ld	a, #0x01
    0000297B C9               [10] 7419 	ret
    0000297C                       7420 00102$:
                                   7421 ;E:\Dropbox\FAUSTO\SVILUPPI\MSX\CODE\C\MSXgl\projects\exsoccer/exsoccer_s2_b0.c:1254: if(Keyboard_IsKeyPressed(KEY_SPACE))
    0000297C 3E 08            [ 7] 7422 	ld	a, #0x08
    0000297E CDr00r00         [17] 7423 	call	_Keyboard_IsKeyPressed
    00002981 B7               [ 4] 7424 	or	a, a
    00002982 28 0D            [12] 7425 	jr	Z, 00109$
                                   7426 ;E:\Dropbox\FAUSTO\SVILUPPI\MSX\CODE\C\MSXgl\projects\exsoccer/exsoccer_s2_b0.c:1256: return true;
    00002984 3E 01            [ 7] 7427 	ld	a, #0x01
    00002986 C9               [10] 7428 	ret
    00002987                       7429 00108$:
                                   7430 ;E:\Dropbox\FAUSTO\SVILUPPI\MSX\CODE\C\MSXgl\projects\exsoccer/exsoccer_s2_b0.c:1260: u8 joyStat = Joystick_Read(JOY_PORT_2);
    00002987 2E 4F            [ 7] 7431 	ld	l, #0x4f
                                   7432 ;	spillPairReg hl
                                   7433 ;	spillPairReg hl
    00002989 CDr00r00         [17] 7434 	call	_Joystick_Read
                                   7435 ;E:\Dropbox\FAUSTO\SVILUPPI\MSX\CODE\C\MSXgl\projects\exsoccer/exsoccer_s2_b0.c:1261: if (IS_JOY_PRESSED(joyStat, JOY_INPUT_TRIGGER_A))
    0000298C CB 65            [ 8] 7436 	bit	4, l
                                   7437 ;E:\Dropbox\FAUSTO\SVILUPPI\MSX\CODE\C\MSXgl\projects\exsoccer/exsoccer_s2_b0.c:1263: return true;
                                   7438 ;E:\Dropbox\FAUSTO\SVILUPPI\MSX\CODE\C\MSXgl\projects\exsoccer/exsoccer_s2_b0.c:1266: return FALSE;
    0000298E 3E 01            [ 7] 7439 	ld	a, #0x01
    00002990 C8               [11] 7440 	ret	Z
    00002991                       7441 00109$:
    00002991 AF               [ 4] 7442 	xor	a, a
                                   7443 ;E:\Dropbox\FAUSTO\SVILUPPI\MSX\CODE\C\MSXgl\projects\exsoccer/exsoccer_s2_b0.c:1267: }
    00002992 C9               [10] 7444 	ret
                                   7445 ;E:\Dropbox\FAUSTO\SVILUPPI\MSX\CODE\C\MSXgl\projects\exsoccer/exsoccer_s2_b0.c:1268: u8 GetJoystick1Direction(){
                                   7446 ;	---------------------------------
                                   7447 ; Function GetJoystick1Direction
                                   7448 ; ---------------------------------
    00002993                       7449 _GetJoystick1Direction::
                                   7450 ;E:/Dropbox/FAUSTO/SVILUPPI/MSX/CODE/C/MSXgl/engine/src/input.h:182: u8 in = ~Joystick_Read(port);
    00002993 2E 0F            [ 7] 7451 	ld	l, #0x0f
                                   7452 ;	spillPairReg hl
                                   7453 ;	spillPairReg hl
    00002995 CDr00r00         [17] 7454 	call	_Joystick_Read
    00002998 7D               [ 4] 7455 	ld	a, l
    00002999 2F               [ 4] 7456 	cpl
                                   7457 ;E:\Dropbox\FAUSTO\SVILUPPI\MSX\CODE\C\MSXgl\projects\exsoccer/exsoccer_s2_b0.c:1269: u8 dir = Joystick_GetDirection(JOY_PORT_1);
    0000299A E6 0F            [ 7] 7458 	and	a, #0x0f
    0000299C 47               [ 4] 7459 	ld	b, a
    0000299D 58               [ 4] 7460 	ld	e, b
                                   7461 ;E:\Dropbox\FAUSTO\SVILUPPI\MSX\CODE\C\MSXgl\projects\exsoccer/exsoccer_s2_b0.c:1270: u8 retValue=DIRECTION_NONE;
    0000299E 0E 00            [ 7] 7462 	ld	c, #0x00
                                   7463 ;E:\Dropbox\FAUSTO\SVILUPPI\MSX\CODE\C\MSXgl\projects\exsoccer/exsoccer_s2_b0.c:1271: switch (dir){
    000029A0 3E 0A            [ 7] 7464 	ld	a, #0x0a
    000029A2 90               [ 4] 7465 	sub	a, b
    000029A3 38 4F            [12] 7466 	jr	C, 00109$
    000029A5 16 00            [ 7] 7467 	ld	d, #0x00
    000029A7 21rAEr29         [10] 7468 	ld	hl, #00229$
    000029AA 19               [11] 7469 	add	hl, de
    000029AB 19               [11] 7470 	add	hl, de
    000029AC 19               [11] 7471 	add	hl, de
    000029AD E9               [ 4] 7472 	jp	(hl)
    000029AE                       7473 00229$:
    000029AE C3rF4r29         [10] 7474 	jp	00109$
    000029B1 C3rCFr29         [10] 7475 	jp	00101$
    000029B4 C3rD4r29         [10] 7476 	jp	00102$
    000029B7 C3rF4r29         [10] 7477 	jp	00109$
    000029BA C3rD9r29         [10] 7478 	jp	00103$
    000029BD C3rE8r29         [10] 7479 	jp	00106$
    000029C0 C3rF2r29         [10] 7480 	jp	00108$
    000029C3 C3rF4r29         [10] 7481 	jp	00109$
    000029C6 C3rDEr29         [10] 7482 	jp	00104$
    000029C9 C3rE3r29         [10] 7483 	jp	00105$
    000029CC C3rEDr29         [10] 7484 	jp	00107$
                                   7485 ;E:\Dropbox\FAUSTO\SVILUPPI\MSX\CODE\C\MSXgl\projects\exsoccer/exsoccer_s2_b0.c:1272: case JOY_INPUT_DIR_UP:
    000029CF                       7486 00101$:
                                   7487 ;E:\Dropbox\FAUSTO\SVILUPPI\MSX\CODE\C\MSXgl\projects\exsoccer/exsoccer_s2_b0.c:1273: retValue=DIRECTION_UP;
    000029CF 0E 01            [ 7] 7488 	ld	c, #0x01
                                   7489 ;E:\Dropbox\FAUSTO\SVILUPPI\MSX\CODE\C\MSXgl\projects\exsoccer/exsoccer_s2_b0.c:1274: break;
    000029D1 C3rF4r29         [10] 7490 	jp	00109$
                                   7491 ;E:\Dropbox\FAUSTO\SVILUPPI\MSX\CODE\C\MSXgl\projects\exsoccer/exsoccer_s2_b0.c:1275: case JOY_INPUT_DIR_DOWN:
    000029D4                       7492 00102$:
                                   7493 ;E:\Dropbox\FAUSTO\SVILUPPI\MSX\CODE\C\MSXgl\projects\exsoccer/exsoccer_s2_b0.c:1276: retValue=DIRECTION_DOWN;
    000029D4 0E 05            [ 7] 7494 	ld	c, #0x05
                                   7495 ;E:\Dropbox\FAUSTO\SVILUPPI\MSX\CODE\C\MSXgl\projects\exsoccer/exsoccer_s2_b0.c:1277: break;
    000029D6 C3rF4r29         [10] 7496 	jp	00109$
                                   7497 ;E:\Dropbox\FAUSTO\SVILUPPI\MSX\CODE\C\MSXgl\projects\exsoccer/exsoccer_s2_b0.c:1278: case JOY_INPUT_DIR_LEFT:
    000029D9                       7498 00103$:
                                   7499 ;E:\Dropbox\FAUSTO\SVILUPPI\MSX\CODE\C\MSXgl\projects\exsoccer/exsoccer_s2_b0.c:1279: retValue=DIRECTION_LEFT;
    000029D9 0E 07            [ 7] 7500 	ld	c, #0x07
                                   7501 ;E:\Dropbox\FAUSTO\SVILUPPI\MSX\CODE\C\MSXgl\projects\exsoccer/exsoccer_s2_b0.c:1280: break;
    000029DB C3rF4r29         [10] 7502 	jp	00109$
                                   7503 ;E:\Dropbox\FAUSTO\SVILUPPI\MSX\CODE\C\MSXgl\projects\exsoccer/exsoccer_s2_b0.c:1281: case JOY_INPUT_DIR_RIGHT:
    000029DE                       7504 00104$:
                                   7505 ;E:\Dropbox\FAUSTO\SVILUPPI\MSX\CODE\C\MSXgl\projects\exsoccer/exsoccer_s2_b0.c:1282: retValue=DIRECTION_RIGHT;
    000029DE 0E 03            [ 7] 7506 	ld	c, #0x03
                                   7507 ;E:\Dropbox\FAUSTO\SVILUPPI\MSX\CODE\C\MSXgl\projects\exsoccer/exsoccer_s2_b0.c:1283: break;
    000029E0 C3rF4r29         [10] 7508 	jp	00109$
                                   7509 ;E:\Dropbox\FAUSTO\SVILUPPI\MSX\CODE\C\MSXgl\projects\exsoccer/exsoccer_s2_b0.c:1284: case JOY_INPUT_DIR_UP_RIGHT:
    000029E3                       7510 00105$:
                                   7511 ;E:\Dropbox\FAUSTO\SVILUPPI\MSX\CODE\C\MSXgl\projects\exsoccer/exsoccer_s2_b0.c:1285: retValue=DIRECTION_UP_RIGHT;
    000029E3 0E 02            [ 7] 7512 	ld	c, #0x02
                                   7513 ;E:\Dropbox\FAUSTO\SVILUPPI\MSX\CODE\C\MSXgl\projects\exsoccer/exsoccer_s2_b0.c:1286: break;
    000029E5 C3rF4r29         [10] 7514 	jp	00109$
                                   7515 ;E:\Dropbox\FAUSTO\SVILUPPI\MSX\CODE\C\MSXgl\projects\exsoccer/exsoccer_s2_b0.c:1287: case JOY_INPUT_DIR_UP_LEFT:
    000029E8                       7516 00106$:
                                   7517 ;E:\Dropbox\FAUSTO\SVILUPPI\MSX\CODE\C\MSXgl\projects\exsoccer/exsoccer_s2_b0.c:1288: retValue=DIRECTION_UP_LEFT;
    000029E8 0E 08            [ 7] 7518 	ld	c, #0x08
                                   7519 ;E:\Dropbox\FAUSTO\SVILUPPI\MSX\CODE\C\MSXgl\projects\exsoccer/exsoccer_s2_b0.c:1289: break;
    000029EA C3rF4r29         [10] 7520 	jp	00109$
                                   7521 ;E:\Dropbox\FAUSTO\SVILUPPI\MSX\CODE\C\MSXgl\projects\exsoccer/exsoccer_s2_b0.c:1290: case JOY_INPUT_DIR_DOWN_RIGHT:
    000029ED                       7522 00107$:
                                   7523 ;E:\Dropbox\FAUSTO\SVILUPPI\MSX\CODE\C\MSXgl\projects\exsoccer/exsoccer_s2_b0.c:1291: retValue=DIRECTION_DOWN_RIGHT;
    000029ED 0E 04            [ 7] 7524 	ld	c, #0x04
                                   7525 ;E:\Dropbox\FAUSTO\SVILUPPI\MSX\CODE\C\MSXgl\projects\exsoccer/exsoccer_s2_b0.c:1292: break;
    000029EF C3rF4r29         [10] 7526 	jp	00109$
                                   7527 ;E:\Dropbox\FAUSTO\SVILUPPI\MSX\CODE\C\MSXgl\projects\exsoccer/exsoccer_s2_b0.c:1293: case JOY_INPUT_DIR_DOWN_LEFT:
    000029F2                       7528 00108$:
                                   7529 ;E:\Dropbox\FAUSTO\SVILUPPI\MSX\CODE\C\MSXgl\projects\exsoccer/exsoccer_s2_b0.c:1294: retValue=DIRECTION_DOWN_LEFT;
    000029F2 0E 06            [ 7] 7530 	ld	c, #0x06
                                   7531 ;E:\Dropbox\FAUSTO\SVILUPPI\MSX\CODE\C\MSXgl\projects\exsoccer/exsoccer_s2_b0.c:1296: }
    000029F4                       7532 00109$:
                                   7533 ;E:\Dropbox\FAUSTO\SVILUPPI\MSX\CODE\C\MSXgl\projects\exsoccer/exsoccer_s2_b0.c:1297: if(retValue==DIRECTION_NONE){
    000029F4 79               [ 4] 7534 	ld	a, c
    000029F5 B7               [ 4] 7535 	or	a, a
    000029F6 C2r91r2A         [10] 7536 	jp	NZ, 00135$
                                   7537 ;E:\Dropbox\FAUSTO\SVILUPPI\MSX\CODE\C\MSXgl\projects\exsoccer/exsoccer_s2_b0.c:1298: if(Keyboard_IsKeyPressed(KEY_LEFT) && Keyboard_IsKeyPressed(KEY_UP))
    000029F9 C5               [11] 7538 	push	bc
    000029FA 3E 48            [ 7] 7539 	ld	a, #0x48
    000029FC CDr00r00         [17] 7540 	call	_Keyboard_IsKeyPressed
    000029FF C1               [10] 7541 	pop	bc
    00002A00 B7               [ 4] 7542 	or	a, a
    00002A01 28 0C            [12] 7543 	jr	Z, 00111$
    00002A03 C5               [11] 7544 	push	bc
    00002A04 3E 58            [ 7] 7545 	ld	a, #0x58
    00002A06 CDr00r00         [17] 7546 	call	_Keyboard_IsKeyPressed
    00002A09 C1               [10] 7547 	pop	bc
    00002A0A B7               [ 4] 7548 	or	a, a
    00002A0B 28 02            [12] 7549 	jr	Z, 00111$
                                   7550 ;E:\Dropbox\FAUSTO\SVILUPPI\MSX\CODE\C\MSXgl\projects\exsoccer/exsoccer_s2_b0.c:1300: retValue=DIRECTION_UP_LEFT;
    00002A0D 0E 08            [ 7] 7551 	ld	c, #0x08
    00002A0F                       7552 00111$:
                                   7553 ;E:\Dropbox\FAUSTO\SVILUPPI\MSX\CODE\C\MSXgl\projects\exsoccer/exsoccer_s2_b0.c:1302: if(Keyboard_IsKeyPressed(KEY_LEFT) && Keyboard_IsKeyPressed(KEY_DOWN))
    00002A0F C5               [11] 7554 	push	bc
    00002A10 3E 48            [ 7] 7555 	ld	a, #0x48
    00002A12 CDr00r00         [17] 7556 	call	_Keyboard_IsKeyPressed
    00002A15 C1               [10] 7557 	pop	bc
    00002A16 B7               [ 4] 7558 	or	a, a
    00002A17 28 0C            [12] 7559 	jr	Z, 00114$
    00002A19 C5               [11] 7560 	push	bc
    00002A1A 3E 68            [ 7] 7561 	ld	a, #0x68
    00002A1C CDr00r00         [17] 7562 	call	_Keyboard_IsKeyPressed
    00002A1F C1               [10] 7563 	pop	bc
    00002A20 B7               [ 4] 7564 	or	a, a
    00002A21 28 02            [12] 7565 	jr	Z, 00114$
                                   7566 ;E:\Dropbox\FAUSTO\SVILUPPI\MSX\CODE\C\MSXgl\projects\exsoccer/exsoccer_s2_b0.c:1304: retValue=DIRECTION_DOWN_LEFT;
    00002A23 0E 06            [ 7] 7567 	ld	c, #0x06
    00002A25                       7568 00114$:
                                   7569 ;E:\Dropbox\FAUSTO\SVILUPPI\MSX\CODE\C\MSXgl\projects\exsoccer/exsoccer_s2_b0.c:1306: if(Keyboard_IsKeyPressed(KEY_RIGHT) && Keyboard_IsKeyPressed(KEY_DOWN))
    00002A25 C5               [11] 7570 	push	bc
    00002A26 3E 78            [ 7] 7571 	ld	a, #0x78
    00002A28 CDr00r00         [17] 7572 	call	_Keyboard_IsKeyPressed
    00002A2B C1               [10] 7573 	pop	bc
    00002A2C B7               [ 4] 7574 	or	a, a
    00002A2D 28 0C            [12] 7575 	jr	Z, 00117$
    00002A2F C5               [11] 7576 	push	bc
    00002A30 3E 68            [ 7] 7577 	ld	a, #0x68
    00002A32 CDr00r00         [17] 7578 	call	_Keyboard_IsKeyPressed
    00002A35 C1               [10] 7579 	pop	bc
    00002A36 B7               [ 4] 7580 	or	a, a
    00002A37 28 02            [12] 7581 	jr	Z, 00117$
                                   7582 ;E:\Dropbox\FAUSTO\SVILUPPI\MSX\CODE\C\MSXgl\projects\exsoccer/exsoccer_s2_b0.c:1308: retValue=DIRECTION_DOWN_RIGHT;
    00002A39 0E 04            [ 7] 7583 	ld	c, #0x04
    00002A3B                       7584 00117$:
                                   7585 ;E:\Dropbox\FAUSTO\SVILUPPI\MSX\CODE\C\MSXgl\projects\exsoccer/exsoccer_s2_b0.c:1310: if(Keyboard_IsKeyPressed(KEY_RIGHT) && Keyboard_IsKeyPressed(KEY_UP))
    00002A3B C5               [11] 7586 	push	bc
    00002A3C 3E 78            [ 7] 7587 	ld	a, #0x78
    00002A3E CDr00r00         [17] 7588 	call	_Keyboard_IsKeyPressed
    00002A41 C1               [10] 7589 	pop	bc
    00002A42 B7               [ 4] 7590 	or	a, a
    00002A43 28 0C            [12] 7591 	jr	Z, 00120$
    00002A45 C5               [11] 7592 	push	bc
    00002A46 3E 58            [ 7] 7593 	ld	a, #0x58
    00002A48 CDr00r00         [17] 7594 	call	_Keyboard_IsKeyPressed
    00002A4B C1               [10] 7595 	pop	bc
    00002A4C B7               [ 4] 7596 	or	a, a
    00002A4D 28 02            [12] 7597 	jr	Z, 00120$
                                   7598 ;E:\Dropbox\FAUSTO\SVILUPPI\MSX\CODE\C\MSXgl\projects\exsoccer/exsoccer_s2_b0.c:1312: retValue=DIRECTION_UP_RIGHT;
    00002A4F 0E 02            [ 7] 7599 	ld	c, #0x02
    00002A51                       7600 00120$:
                                   7601 ;E:\Dropbox\FAUSTO\SVILUPPI\MSX\CODE\C\MSXgl\projects\exsoccer/exsoccer_s2_b0.c:1314: if(retValue==DIRECTION_NONE && Keyboard_IsKeyPressed(KEY_LEFT))
    00002A51 79               [ 4] 7602 	ld	a, c
    00002A52 B7               [ 4] 7603 	or	a, a
    00002A53 20 0C            [12] 7604 	jr	NZ, 00123$
    00002A55 C5               [11] 7605 	push	bc
    00002A56 3E 48            [ 7] 7606 	ld	a, #0x48
    00002A58 CDr00r00         [17] 7607 	call	_Keyboard_IsKeyPressed
    00002A5B C1               [10] 7608 	pop	bc
    00002A5C B7               [ 4] 7609 	or	a, a
    00002A5D 28 02            [12] 7610 	jr	Z, 00123$
                                   7611 ;E:\Dropbox\FAUSTO\SVILUPPI\MSX\CODE\C\MSXgl\projects\exsoccer/exsoccer_s2_b0.c:1316: retValue=DIRECTION_LEFT;
    00002A5F 0E 07            [ 7] 7612 	ld	c, #0x07
    00002A61                       7613 00123$:
                                   7614 ;E:\Dropbox\FAUSTO\SVILUPPI\MSX\CODE\C\MSXgl\projects\exsoccer/exsoccer_s2_b0.c:1318: if(retValue==DIRECTION_NONE && Keyboard_IsKeyPressed(KEY_RIGHT))
    00002A61 79               [ 4] 7615 	ld	a, c
    00002A62 B7               [ 4] 7616 	or	a, a
    00002A63 20 0C            [12] 7617 	jr	NZ, 00126$
    00002A65 C5               [11] 7618 	push	bc
    00002A66 3E 78            [ 7] 7619 	ld	a, #0x78
    00002A68 CDr00r00         [17] 7620 	call	_Keyboard_IsKeyPressed
    00002A6B C1               [10] 7621 	pop	bc
    00002A6C B7               [ 4] 7622 	or	a, a
    00002A6D 28 02            [12] 7623 	jr	Z, 00126$
                                   7624 ;E:\Dropbox\FAUSTO\SVILUPPI\MSX\CODE\C\MSXgl\projects\exsoccer/exsoccer_s2_b0.c:1320: retValue=DIRECTION_RIGHT;
    00002A6F 0E 03            [ 7] 7625 	ld	c, #0x03
    00002A71                       7626 00126$:
                                   7627 ;E:\Dropbox\FAUSTO\SVILUPPI\MSX\CODE\C\MSXgl\projects\exsoccer/exsoccer_s2_b0.c:1322: if(retValue==DIRECTION_NONE && Keyboard_IsKeyPressed(KEY_UP))
    00002A71 79               [ 4] 7628 	ld	a, c
    00002A72 B7               [ 4] 7629 	or	a, a
    00002A73 20 0C            [12] 7630 	jr	NZ, 00129$
    00002A75 C5               [11] 7631 	push	bc
    00002A76 3E 58            [ 7] 7632 	ld	a, #0x58
    00002A78 CDr00r00         [17] 7633 	call	_Keyboard_IsKeyPressed
    00002A7B C1               [10] 7634 	pop	bc
    00002A7C B7               [ 4] 7635 	or	a, a
    00002A7D 28 02            [12] 7636 	jr	Z, 00129$
                                   7637 ;E:\Dropbox\FAUSTO\SVILUPPI\MSX\CODE\C\MSXgl\projects\exsoccer/exsoccer_s2_b0.c:1324: retValue=DIRECTION_UP;
    00002A7F 0E 01            [ 7] 7638 	ld	c, #0x01
    00002A81                       7639 00129$:
                                   7640 ;E:\Dropbox\FAUSTO\SVILUPPI\MSX\CODE\C\MSXgl\projects\exsoccer/exsoccer_s2_b0.c:1326: if(retValue==DIRECTION_NONE && Keyboard_IsKeyPressed(KEY_DOWN))
    00002A81 79               [ 4] 7641 	ld	a, c
    00002A82 B7               [ 4] 7642 	or	a, a
    00002A83 20 0C            [12] 7643 	jr	NZ, 00135$
    00002A85 C5               [11] 7644 	push	bc
    00002A86 3E 68            [ 7] 7645 	ld	a, #0x68
    00002A88 CDr00r00         [17] 7646 	call	_Keyboard_IsKeyPressed
    00002A8B C1               [10] 7647 	pop	bc
    00002A8C B7               [ 4] 7648 	or	a, a
    00002A8D 28 02            [12] 7649 	jr	Z, 00135$
                                   7650 ;E:\Dropbox\FAUSTO\SVILUPPI\MSX\CODE\C\MSXgl\projects\exsoccer/exsoccer_s2_b0.c:1328: retValue=DIRECTION_DOWN;
    00002A8F 0E 05            [ 7] 7651 	ld	c, #0x05
    00002A91                       7652 00135$:
                                   7653 ;E:\Dropbox\FAUSTO\SVILUPPI\MSX\CODE\C\MSXgl\projects\exsoccer/exsoccer_s2_b0.c:1331: return retValue;
    00002A91 79               [ 4] 7654 	ld	a, c
                                   7655 ;E:\Dropbox\FAUSTO\SVILUPPI\MSX\CODE\C\MSXgl\projects\exsoccer/exsoccer_s2_b0.c:1332: }
    00002A92 C9               [10] 7656 	ret
                                   7657 ;E:\Dropbox\FAUSTO\SVILUPPI\MSX\CODE\C\MSXgl\projects\exsoccer/exsoccer_s2_b0.c:1333: u8 GetJoystick2Direction(){
                                   7658 ;	---------------------------------
                                   7659 ; Function GetJoystick2Direction
                                   7660 ; ---------------------------------
    00002A93                       7661 _GetJoystick2Direction::
                                   7662 ;E:/Dropbox/FAUSTO/SVILUPPI/MSX/CODE/C/MSXgl/engine/src/bios.h:382: inline u8 Bios_GetJoystickDirection(u8 port) { return ((u8(*)(u8))R_GTSTCK)(port); }
    00002A93 3E 02            [ 7] 7663 	ld	a, #0x02
                                   7664 ;E:\Dropbox\FAUSTO\SVILUPPI\MSX\CODE\C\MSXgl\projects\exsoccer/exsoccer_s2_b0.c:1334: return Bios_GetJoystickDirection(2);
                                   7665 ;E:\Dropbox\FAUSTO\SVILUPPI\MSX\CODE\C\MSXgl\projects\exsoccer/exsoccer_s2_b0.c:1335: }
    00002A95 C3 D5 00         [10] 7666 	jp  0x00d5
                                   7667 ;E:\Dropbox\FAUSTO\SVILUPPI\MSX\CODE\C\MSXgl\projects\exsoccer/exsoccer_s2_b0.c:1337: void ShowFieldZone(u8 zone){
                                   7668 ;	---------------------------------
                                   7669 ; Function ShowFieldZone
                                   7670 ; ---------------------------------
    00002A98                       7671 _ShowFieldZone::
    00002A98 32r00r00         [13] 7672 	ld	(_g_FieldScrollingActionInProgress+0), a
                                   7673 ;E:\Dropbox\FAUSTO\SVILUPPI\MSX\CODE\C\MSXgl\projects\exsoccer/exsoccer_s2_b0.c:1338: g_FieldScrollingActionInProgress=zone;
                                   7674 ;E:\Dropbox\FAUSTO\SVILUPPI\MSX\CODE\C\MSXgl\projects\exsoccer/exsoccer_s2_b0.c:1339: }
    00002A9B C9               [10] 7675 	ret
                                   7676 ;E:\Dropbox\FAUSTO\SVILUPPI\MSX\CODE\C\MSXgl\projects\exsoccer/exsoccer_s2_b0.c:1340: void TickCheckBallBoundaries(){
                                   7677 ;	---------------------------------
                                   7678 ; Function TickCheckBallBoundaries
                                   7679 ; ---------------------------------
    00002A9C                       7680 _TickCheckBallBoundaries::
    00002A9C DD E5            [15] 7681 	push	ix
    00002A9E DD 21 00 00      [14] 7682 	ld	ix,#0
    00002AA2 DD 39            [15] 7683 	add	ix,sp
    00002AA4 3B               [ 6] 7684 	dec	sp
                                   7685 ;E:\Dropbox\FAUSTO\SVILUPPI\MSX\CODE\C\MSXgl\projects\exsoccer/exsoccer_s2_b0.c:1341: if(g_MatchStatus!=MATCH_IN_ACTION){
    00002AA5 3Ar00r00         [13] 7686 	ld	a, (_g_MatchStatus+0)
    00002AA8 D6 0C            [ 7] 7687 	sub	a, #0x0c
                                   7688 ;E:\Dropbox\FAUSTO\SVILUPPI\MSX\CODE\C\MSXgl\projects\exsoccer/exsoccer_s2_b0.c:1342: return;
    00002AAA C2r58r2B         [10] 7689 	jp	NZ,00126$
                                   7690 ;E:\Dropbox\FAUSTO\SVILUPPI\MSX\CODE\C\MSXgl\projects\exsoccer/exsoccer_s2_b0.c:1345: u8 teamId = g_Ball.LastTouchTeamId;
    00002AAD 21r0Er00         [10] 7691 	ld	hl, #_g_Ball + 14
    00002AB0 4E               [ 7] 7692 	ld	c, (hl)
                                   7693 ;E:\Dropbox\FAUSTO\SVILUPPI\MSX\CODE\C\MSXgl\projects\exsoccer/exsoccer_s2_b0.c:1346: if(teamId==NO_VALUE){
    00002AB1 79               [ 4] 7694 	ld	a, c
    00002AB2 3C               [ 4] 7695 	inc	a
    00002AB3 20 02            [12] 7696 	jr	NZ, 00104$
                                   7697 ;E:\Dropbox\FAUSTO\SVILUPPI\MSX\CODE\C\MSXgl\projects\exsoccer/exsoccer_s2_b0.c:1347: teamId=TEAM_1; // Default
    00002AB5 0E 01            [ 7] 7698 	ld	c, #0x01
    00002AB7                       7699 00104$:
                                   7700 ;E:\Dropbox\FAUSTO\SVILUPPI\MSX\CODE\C\MSXgl\projects\exsoccer/exsoccer_s2_b0.c:1349: u8 opponentTeamId = (teamId == TEAM_1) ? TEAM_2 : TEAM_1;
    00002AB7 79               [ 4] 7701 	ld	a, c
    00002AB8 3D               [ 4] 7702 	dec	a
    00002AB9 3E 01            [ 7] 7703 	ld	a, #0x01
    00002ABB 28 01            [12] 7704 	jr	Z, 00194$
    00002ABD AF               [ 4] 7705 	xor	a, a
    00002ABE                       7706 00194$:
    00002ABE DD 77 FF         [19] 7707 	ld	-1 (ix), a
    00002AC1 B7               [ 4] 7708 	or	a, a
    00002AC2 28 06            [12] 7709 	jr	Z, 00128$
    00002AC4 11 02 00         [10] 7710 	ld	de, #0x0002
    00002AC7 C3rCDr2A         [10] 7711 	jp	00129$
    00002ACA                       7712 00128$:
    00002ACA 11 01 00         [10] 7713 	ld	de, #0x0001
    00002ACD                       7714 00129$:
                                   7715 ;E:\Dropbox\FAUSTO\SVILUPPI\MSX\CODE\C\MSXgl\projects\exsoccer/exsoccer_s2_b0.c:1352: if(g_Ball.X < FIELD_BOUND_X_LEFT || g_Ball.X > FIELD_BOUND_X_RIGHT){
    00002ACD 21r02r00         [10] 7716 	ld	hl, #_g_Ball + 2
    00002AD0 56               [ 7] 7717 	ld	d, (hl)
    00002AD1 23               [ 6] 7718 	inc	hl
    00002AD2 46               [ 7] 7719 	ld	b, (hl)
    00002AD3 6A               [ 4] 7720 	ld	l, d
                                   7721 ;	spillPairReg hl
                                   7722 ;	spillPairReg hl
    00002AD4 60               [ 4] 7723 	ld	h, b
                                   7724 ;	spillPairReg hl
                                   7725 ;	spillPairReg hl
    00002AD5 7D               [ 4] 7726 	ld	a, l
    00002AD6 D6 0A            [ 7] 7727 	sub	a, #0x0a
    00002AD8 7C               [ 4] 7728 	ld	a, h
    00002AD9 DE 00            [ 7] 7729 	sbc	a, #0x00
    00002ADB 38 08            [12] 7730 	jr	C, 00105$
    00002ADD 3E F6            [ 7] 7731 	ld	a, #0xf6
    00002ADF BD               [ 4] 7732 	cp	a, l
    00002AE0 3E 00            [ 7] 7733 	ld	a, #0x00
    00002AE2 9C               [ 4] 7734 	sbc	a, h
    00002AE3 30 07            [12] 7735 	jr	NC, 00106$
    00002AE5                       7736 00105$:
                                   7737 ;E:\Dropbox\FAUSTO\SVILUPPI\MSX\CODE\C\MSXgl\projects\exsoccer/exsoccer_s2_b0.c:1353: BallThrowIn(opponentTeamId);
    00002AE5 7B               [ 4] 7738 	ld	a, e
    00002AE6 CDr00r00         [17] 7739 	call	_BallThrowIn
                                   7740 ;E:\Dropbox\FAUSTO\SVILUPPI\MSX\CODE\C\MSXgl\projects\exsoccer/exsoccer_s2_b0.c:1354: return;
    00002AE9 C3r58r2B         [10] 7741 	jp	00126$
    00002AEC                       7742 00106$:
                                   7743 ;E:\Dropbox\FAUSTO\SVILUPPI\MSX\CODE\C\MSXgl\projects\exsoccer/exsoccer_s2_b0.c:1358: if(g_Ball.Y < FIELD_BOUND_Y_TOP){
    00002AEC 2Ar00r00         [16] 7744 	ld	hl, (#_g_Ball + 0)
    00002AEF 5D               [ 4] 7745 	ld	e, l
    00002AF0 7B               [ 4] 7746 	ld	a, e
    00002AF1 D6 32            [ 7] 7747 	sub	a, #0x32
    00002AF3 7C               [ 4] 7748 	ld	a, h
    00002AF4 DE 00            [ 7] 7749 	sbc	a, #0x00
    00002AF6 30 2E            [12] 7750 	jr	NC, 00116$
                                   7751 ;E:\Dropbox\FAUSTO\SVILUPPI\MSX\CODE\C\MSXgl\projects\exsoccer/exsoccer_s2_b0.c:1361: if(g_Ball.X > (GOAL_X_MIN - 8) && g_Ball.X < (GOAL_X_MAX + 8)){
    00002AF8 3E 58            [ 7] 7752 	ld	a, #0x58
    00002AFA BA               [ 4] 7753 	cp	a, d
    00002AFB 3E 00            [ 7] 7754 	ld	a, #0x00
    00002AFD 98               [ 4] 7755 	sbc	a, b
    00002AFE 30 10            [12] 7756 	jr	NC, 00112$
    00002B00 7A               [ 4] 7757 	ld	a, d
    00002B01 D6 98            [ 7] 7758 	sub	a, #0x98
    00002B03 78               [ 4] 7759 	ld	a, b
    00002B04 DE 00            [ 7] 7760 	sbc	a, #0x00
    00002B06 30 08            [12] 7761 	jr	NC, 00112$
                                   7762 ;E:\Dropbox\FAUSTO\SVILUPPI\MSX\CODE\C\MSXgl\projects\exsoccer/exsoccer_s2_b0.c:1362: BallInGoal(TEAM_1); // Team 1 attacked up and scored
    00002B08 3E 01            [ 7] 7763 	ld	a, #0x01
    00002B0A CDr00r00         [17] 7764 	call	_BallInGoal
    00002B0D C3r58r2B         [10] 7765 	jp	00126$
    00002B10                       7766 00112$:
                                   7767 ;E:\Dropbox\FAUSTO\SVILUPPI\MSX\CODE\C\MSXgl\projects\exsoccer/exsoccer_s2_b0.c:1365: if(teamId == TEAM_1){ // Attacker touched last
    00002B10 DD 7E FF         [19] 7768 	ld	a, -1 (ix)
    00002B13 B7               [ 4] 7769 	or	a, a
    00002B14 28 08            [12] 7770 	jr	Z, 00109$
                                   7771 ;E:\Dropbox\FAUSTO\SVILUPPI\MSX\CODE\C\MSXgl\projects\exsoccer/exsoccer_s2_b0.c:1366: GoalKick(TEAM_2);
    00002B16 3E 02            [ 7] 7772 	ld	a, #0x02
    00002B18 CDr00r00         [17] 7773 	call	_GoalKick
    00002B1B C3r58r2B         [10] 7774 	jp	00126$
    00002B1E                       7775 00109$:
                                   7776 ;E:\Dropbox\FAUSTO\SVILUPPI\MSX\CODE\C\MSXgl\projects\exsoccer/exsoccer_s2_b0.c:1369: CornerKick(TEAM_1);
    00002B1E 3E 01            [ 7] 7777 	ld	a, #0x01
    00002B20 CDr00r00         [17] 7778 	call	_CornerKick
                                   7779 ;E:\Dropbox\FAUSTO\SVILUPPI\MSX\CODE\C\MSXgl\projects\exsoccer/exsoccer_s2_b0.c:1372: return;
    00002B23 C3r58r2B         [10] 7780 	jp	00126$
    00002B26                       7781 00116$:
                                   7782 ;E:\Dropbox\FAUSTO\SVILUPPI\MSX\CODE\C\MSXgl\projects\exsoccer/exsoccer_s2_b0.c:1376: if(g_Ball.Y > FIELD_BOUND_Y_BOTTOM){
    00002B26 3E AE            [ 7] 7783 	ld	a, #0xae
    00002B28 BB               [ 4] 7784 	cp	a, e
    00002B29 3E 01            [ 7] 7785 	ld	a, #0x01
    00002B2B 9C               [ 4] 7786 	sbc	a, h
    00002B2C 30 2A            [12] 7787 	jr	NC, 00126$
                                   7788 ;E:\Dropbox\FAUSTO\SVILUPPI\MSX\CODE\C\MSXgl\projects\exsoccer/exsoccer_s2_b0.c:1378: if(g_Ball.X > (GOAL_X_MIN - 8) && g_Ball.X < (GOAL_X_MAX + 8)){
    00002B2E 3E 58            [ 7] 7789 	ld	a, #0x58
    00002B30 BA               [ 4] 7790 	cp	a, d
    00002B31 3E 00            [ 7] 7791 	ld	a, #0x00
    00002B33 98               [ 4] 7792 	sbc	a, b
    00002B34 30 10            [12] 7793 	jr	NC, 00121$
    00002B36 7A               [ 4] 7794 	ld	a, d
    00002B37 D6 98            [ 7] 7795 	sub	a, #0x98
    00002B39 78               [ 4] 7796 	ld	a, b
    00002B3A DE 00            [ 7] 7797 	sbc	a, #0x00
    00002B3C 30 08            [12] 7798 	jr	NC, 00121$
                                   7799 ;E:\Dropbox\FAUSTO\SVILUPPI\MSX\CODE\C\MSXgl\projects\exsoccer/exsoccer_s2_b0.c:1379: BallInGoal(TEAM_2); // Team 2 attacked down and scored
    00002B3E 3E 02            [ 7] 7800 	ld	a, #0x02
    00002B40 CDr00r00         [17] 7801 	call	_BallInGoal
    00002B43 C3r58r2B         [10] 7802 	jp	00122$
    00002B46                       7803 00121$:
                                   7804 ;E:\Dropbox\FAUSTO\SVILUPPI\MSX\CODE\C\MSXgl\projects\exsoccer/exsoccer_s2_b0.c:1382: if(teamId == TEAM_2){ // Attacker touched last (Team 2 attacking down)
    00002B46 79               [ 4] 7805 	ld	a, c
    00002B47 D6 02            [ 7] 7806 	sub	a, #0x02
    00002B49 20 08            [12] 7807 	jr	NZ, 00118$
                                   7808 ;E:\Dropbox\FAUSTO\SVILUPPI\MSX\CODE\C\MSXgl\projects\exsoccer/exsoccer_s2_b0.c:1383: GoalKick(TEAM_1);
    00002B4B 3E 01            [ 7] 7809 	ld	a, #0x01
    00002B4D CDr00r00         [17] 7810 	call	_GoalKick
    00002B50 C3r58r2B         [10] 7811 	jp	00122$
    00002B53                       7812 00118$:
                                   7813 ;E:\Dropbox\FAUSTO\SVILUPPI\MSX\CODE\C\MSXgl\projects\exsoccer/exsoccer_s2_b0.c:1386: CornerKick(TEAM_2);
    00002B53 3E 02            [ 7] 7814 	ld	a, #0x02
    00002B55 CDr00r00         [17] 7815 	call	_CornerKick
    00002B58                       7816 00122$:
                                   7817 ;E:\Dropbox\FAUSTO\SVILUPPI\MSX\CODE\C\MSXgl\projects\exsoccer/exsoccer_s2_b0.c:1389: return;
    00002B58                       7818 00126$:
                                   7819 ;E:\Dropbox\FAUSTO\SVILUPPI\MSX\CODE\C\MSXgl\projects\exsoccer/exsoccer_s2_b0.c:1391: }
    00002B58 33               [ 6] 7820 	inc	sp
    00002B59 DD E1            [14] 7821 	pop	ix
    00002B5B C9               [10] 7822 	ret
                                   7823 ;E:\Dropbox\FAUSTO\SVILUPPI\MSX\CODE\C\MSXgl\projects\exsoccer/exsoccer_s2_b0.c:1395: void TimeUp(){
                                   7824 ;	---------------------------------
                                   7825 ; Function TimeUp
                                   7826 ; ---------------------------------
    00002B5C                       7827 _TimeUp::
                                   7828 ;E:\Dropbox\FAUSTO\SVILUPPI\MSX\CODE\C\MSXgl\projects\exsoccer/exsoccer_s2_b0.c:1397: }
    00002B5C C9               [10] 7829 	ret
                                   7830 ;E:\Dropbox\FAUSTO\SVILUPPI\MSX\CODE\C\MSXgl\projects\exsoccer/exsoccer_s2_b0.c:1399: u8 GetClosestPlayerToBall(u8 teamId, u8 excludePlayerId){
                                   7831 ;	---------------------------------
                                   7832 ; Function GetClosestPlayerToBall
                                   7833 ; ---------------------------------
    00002B5D                       7834 _GetClosestPlayerToBall::
    00002B5D DD E5            [15] 7835 	push	ix
    00002B5F DD 21 00 00      [14] 7836 	ld	ix,#0
    00002B63 DD 39            [15] 7837 	add	ix,sp
    00002B65 FD 21 F2 FF      [14] 7838 	ld	iy, #-14
    00002B69 FD 39            [15] 7839 	add	iy, sp
    00002B6B FD F9            [10] 7840 	ld	sp, iy
    00002B6D DD 77 FE         [19] 7841 	ld	-2 (ix), a
    00002B70 DD 75 FD         [19] 7842 	ld	-3 (ix), l
                                   7843 ;E:\Dropbox\FAUSTO\SVILUPPI\MSX\CODE\C\MSXgl\projects\exsoccer/exsoccer_s2_b0.c:1400: u8 closestId = NO_VALUE;
    00002B73 DD 36 F4 FF      [19] 7844 	ld	-12 (ix), #0xff
                                   7845 ;E:\Dropbox\FAUSTO\SVILUPPI\MSX\CODE\C\MSXgl\projects\exsoccer/exsoccer_s2_b0.c:1401: u16 minDist = 0xFFFF;
    00002B77 DD 36 F5 FF      [19] 7846 	ld	-11 (ix), #0xff
    00002B7B DD 36 F6 FF      [19] 7847 	ld	-10 (ix), #0xff
                                   7848 ;E:\Dropbox\FAUSTO\SVILUPPI\MSX\CODE\C\MSXgl\projects\exsoccer/exsoccer_s2_b0.c:1403: for(u8 i=0;i<14;i++){
    00002B7F 21r02r00         [10] 7849 	ld	hl, #_g_Ball + 2
    00002B82 7E               [ 7] 7850 	ld	a, (hl)
    00002B83 DD 77 F7         [19] 7851 	ld	-9 (ix), a
    00002B86 23               [ 6] 7852 	inc	hl
    00002B87 7E               [ 7] 7853 	ld	a, (hl)
    00002B88 DD 77 F8         [19] 7854 	ld	-8 (ix), a
    00002B8B DD 36 FF 00      [19] 7855 	ld	-1 (ix), #0x00
    00002B8F                       7856 00110$:
    00002B8F DD 7E FF         [19] 7857 	ld	a, -1 (ix)
    00002B92 D6 0E            [ 7] 7858 	sub	a, #0x0e
    00002B94 D2r77r2C         [10] 7859 	jp	NC, 00108$
                                   7860 ;E:\Dropbox\FAUSTO\SVILUPPI\MSX\CODE\C\MSXgl\projects\exsoccer/exsoccer_s2_b0.c:1404: if(g_Players[i].TeamId != teamId) continue;
    00002B97 DD 4E FF         [19] 7861 	ld	c, -1 (ix)
    00002B9A 06 00            [ 7] 7862 	ld	b, #0x00
    00002B9C 69               [ 4] 7863 	ld	l, c
    00002B9D 60               [ 4] 7864 	ld	h, b
    00002B9E 29               [11] 7865 	add	hl, hl
    00002B9F 29               [11] 7866 	add	hl, hl
    00002BA0 29               [11] 7867 	add	hl, hl
    00002BA1 29               [11] 7868 	add	hl, hl
    00002BA2 09               [11] 7869 	add	hl, bc
    00002BA3 DD 75 FB         [19] 7870 	ld	-5 (ix), l
    00002BA6 DD 74 FC         [19] 7871 	ld	-4 (ix), h
    00002BA9 DD 7E FB         [19] 7872 	ld	a, -5 (ix)
    00002BAC C6r00            [ 7] 7873 	add	a, #<(_g_Players)
    00002BAE DD 77 F9         [19] 7874 	ld	-7 (ix), a
    00002BB1 DD 7E FC         [19] 7875 	ld	a, -4 (ix)
    00002BB4 CEs00            [ 7] 7876 	adc	a, #>(_g_Players)
    00002BB6 DD 77 FA         [19] 7877 	ld	-6 (ix), a
    00002BB9 DD 7E F9         [19] 7878 	ld	a, -7 (ix)
    00002BBC DD 77 FB         [19] 7879 	ld	-5 (ix), a
    00002BBF DD 7E FA         [19] 7880 	ld	a, -6 (ix)
    00002BC2 DD 77 FC         [19] 7881 	ld	-4 (ix), a
    00002BC5 DD 6E FB         [19] 7882 	ld	l, -5 (ix)
    00002BC8 DD 66 FC         [19] 7883 	ld	h, -4 (ix)
    00002BCB 11 05 00         [10] 7884 	ld	de, #0x0005
    00002BCE 19               [11] 7885 	add	hl, de
    00002BCF DD 7E FE         [19] 7886 	ld	a,-2 (ix)
    00002BD2 96               [ 7] 7887 	sub	a,(hl)
    00002BD3 C2r71r2C         [10] 7888 	jp	NZ,00107$
                                   7889 ;E:\Dropbox\FAUSTO\SVILUPPI\MSX\CODE\C\MSXgl\projects\exsoccer/exsoccer_s2_b0.c:1405: if(i == excludePlayerId) continue;
    00002BD6 DD 7E FD         [19] 7890 	ld	a, -3 (ix)
    00002BD9 DD 96 FF         [19] 7891 	sub	a, -1 (ix)
    00002BDC CAr71r2C         [10] 7892 	jp	Z,00107$
                                   7893 ;E:\Dropbox\FAUSTO\SVILUPPI\MSX\CODE\C\MSXgl\projects\exsoccer/exsoccer_s2_b0.c:1407: u16 distX = (g_Players[i].X > g_Ball.X) ? (g_Players[i].X - g_Ball.X) : (g_Ball.X - g_Players[i].X);
    00002BDF DD 6E F9         [19] 7894 	ld	l, -7 (ix)
                                   7895 ;	spillPairReg hl
                                   7896 ;	spillPairReg hl
    00002BE2 DD 66 FA         [19] 7897 	ld	h, -6 (ix)
                                   7898 ;	spillPairReg hl
                                   7899 ;	spillPairReg hl
    00002BE5 23               [ 6] 7900 	inc	hl
    00002BE6 23               [ 6] 7901 	inc	hl
    00002BE7 7E               [ 7] 7902 	ld	a, (hl)
    00002BE8 DD 77 F2         [19] 7903 	ld	-14 (ix), a
    00002BEB 23               [ 6] 7904 	inc	hl
    00002BEC 7E               [ 7] 7905 	ld	a, (hl)
    00002BED DD 77 F3         [19] 7906 	ld	-13 (ix), a
    00002BF0 DD 7E F7         [19] 7907 	ld	a, -9 (ix)
    00002BF3 DD 96 F2         [19] 7908 	sub	a, -14 (ix)
    00002BF6 DD 7E F8         [19] 7909 	ld	a, -8 (ix)
    00002BF9 DD 9E F3         [19] 7910 	sbc	a, -13 (ix)
    00002BFC 30 15            [12] 7911 	jr	NC, 00113$
    00002BFE DD 7E F2         [19] 7912 	ld	a, -14 (ix)
    00002C01 DD 96 F7         [19] 7913 	sub	a, -9 (ix)
    00002C04 DD 77 FB         [19] 7914 	ld	-5 (ix), a
    00002C07 DD 7E F3         [19] 7915 	ld	a, -13 (ix)
    00002C0A DD 9E F8         [19] 7916 	sbc	a, -8 (ix)
    00002C0D DD 77 FC         [19] 7917 	ld	-4 (ix), a
    00002C10 C3r25r2C         [10] 7918 	jp	00114$
    00002C13                       7919 00113$:
    00002C13 DD 7E F7         [19] 7920 	ld	a, -9 (ix)
    00002C16 DD 96 F2         [19] 7921 	sub	a, -14 (ix)
    00002C19 DD 77 FB         [19] 7922 	ld	-5 (ix), a
    00002C1C DD 7E F8         [19] 7923 	ld	a, -8 (ix)
    00002C1F DD 9E F3         [19] 7924 	sbc	a, -13 (ix)
    00002C22 DD 77 FC         [19] 7925 	ld	-4 (ix), a
    00002C25                       7926 00114$:
                                   7927 ;E:\Dropbox\FAUSTO\SVILUPPI\MSX\CODE\C\MSXgl\projects\exsoccer/exsoccer_s2_b0.c:1408: u16 distY = (g_Players[i].Y > g_Ball.Y) ? (g_Players[i].Y - g_Ball.Y) : (g_Ball.Y - g_Players[i].Y);
    00002C25 DD 6E F9         [19] 7928 	ld	l, -7 (ix)
    00002C28 DD 66 FA         [19] 7929 	ld	h, -6 (ix)
    00002C2B 4E               [ 7] 7930 	ld	c, (hl)
    00002C2C 23               [ 6] 7931 	inc	hl
    00002C2D 46               [ 7] 7932 	ld	b, (hl)
    00002C2E 2Ar00r00         [16] 7933 	ld	hl, (#_g_Ball + 0)
    00002C31 7D               [ 4] 7934 	ld	a, l
    00002C32 91               [ 4] 7935 	sub	a, c
    00002C33 7C               [ 4] 7936 	ld	a, h
    00002C34 98               [ 4] 7937 	sbc	a, b
    00002C35 30 0D            [12] 7938 	jr	NC, 00115$
    00002C37 79               [ 4] 7939 	ld	a, c
    00002C38 95               [ 4] 7940 	sub	a, l
    00002C39 DD 77 F9         [19] 7941 	ld	-7 (ix), a
    00002C3C 78               [ 4] 7942 	ld	a, b
    00002C3D 9C               [ 4] 7943 	sbc	a, h
    00002C3E DD 77 FA         [19] 7944 	ld	-6 (ix), a
    00002C41 C3r4Er2C         [10] 7945 	jp	00116$
    00002C44                       7946 00115$:
    00002C44 7D               [ 4] 7947 	ld	a, l
    00002C45 91               [ 4] 7948 	sub	a, c
    00002C46 DD 77 F9         [19] 7949 	ld	-7 (ix), a
    00002C49 7C               [ 4] 7950 	ld	a, h
    00002C4A 98               [ 4] 7951 	sbc	a, b
    00002C4B DD 77 FA         [19] 7952 	ld	-6 (ix), a
    00002C4E                       7953 00116$:
    00002C4E DD 4E F9         [19] 7954 	ld	c, -7 (ix)
    00002C51 DD 46 FA         [19] 7955 	ld	b, -6 (ix)
                                   7956 ;E:\Dropbox\FAUSTO\SVILUPPI\MSX\CODE\C\MSXgl\projects\exsoccer/exsoccer_s2_b0.c:1411: u16 totalDist = distX + distY;
    00002C54 DD 6E FB         [19] 7957 	ld	l, -5 (ix)
    00002C57 DD 66 FC         [19] 7958 	ld	h, -4 (ix)
    00002C5A 09               [11] 7959 	add	hl, bc
                                   7960 ;E:\Dropbox\FAUSTO\SVILUPPI\MSX\CODE\C\MSXgl\projects\exsoccer/exsoccer_s2_b0.c:1413: if(totalDist < minDist){
    00002C5B 7D               [ 4] 7961 	ld	a, l
    00002C5C DD 96 F5         [19] 7962 	sub	a, -11 (ix)
    00002C5F 7C               [ 4] 7963 	ld	a, h
    00002C60 DD 9E F6         [19] 7964 	sbc	a, -10 (ix)
    00002C63 30 0C            [12] 7965 	jr	NC, 00107$
                                   7966 ;E:\Dropbox\FAUSTO\SVILUPPI\MSX\CODE\C\MSXgl\projects\exsoccer/exsoccer_s2_b0.c:1414: minDist = totalDist;
    00002C65 DD 75 F5         [19] 7967 	ld	-11 (ix), l
    00002C68 DD 74 F6         [19] 7968 	ld	-10 (ix), h
                                   7969 ;E:\Dropbox\FAUSTO\SVILUPPI\MSX\CODE\C\MSXgl\projects\exsoccer/exsoccer_s2_b0.c:1415: closestId = i;
    00002C6B DD 7E FF         [19] 7970 	ld	a, -1 (ix)
    00002C6E DD 77 F4         [19] 7971 	ld	-12 (ix), a
    00002C71                       7972 00107$:
                                   7973 ;E:\Dropbox\FAUSTO\SVILUPPI\MSX\CODE\C\MSXgl\projects\exsoccer/exsoccer_s2_b0.c:1403: for(u8 i=0;i<14;i++){
    00002C71 DD 34 FF         [23] 7974 	inc	-1 (ix)
    00002C74 C3r8Fr2B         [10] 7975 	jp	00110$
    00002C77                       7976 00108$:
                                   7977 ;E:\Dropbox\FAUSTO\SVILUPPI\MSX\CODE\C\MSXgl\projects\exsoccer/exsoccer_s2_b0.c:1418: return closestId;
    00002C77 DD 7E F4         [19] 7978 	ld	a, -12 (ix)
                                   7979 ;E:\Dropbox\FAUSTO\SVILUPPI\MSX\CODE\C\MSXgl\projects\exsoccer/exsoccer_s2_b0.c:1419: }
    00002C7A DD F9            [10] 7980 	ld	sp, ix
    00002C7C DD E1            [14] 7981 	pop	ix
    00002C7E C9               [10] 7982 	ret
                                   7983 ;E:\Dropbox\FAUSTO\SVILUPPI\MSX\CODE\C\MSXgl\projects\exsoccer/exsoccer_s2_b0.c:1425: i32 Math_Abs32(i32 v) { return (v < 0) ? -v : v; }
                                   7984 ;	---------------------------------
                                   7985 ; Function Math_Abs32
                                   7986 ; ---------------------------------
    00002C7F                       7987 _Math_Abs32::
    00002C7F 4D               [ 4] 7988 	ld	c, l
    00002C80 44               [ 4] 7989 	ld	b, h
    00002C81 CB 78            [ 8] 7990 	bit	7, b
    00002C83 28 0D            [12] 7991 	jr	Z, 00103$
    00002C85 21 00 00         [10] 7992 	ld	hl, #0x0000
    00002C88 BF               [ 4] 7993 	cp	a, a
    00002C89 ED 52            [15] 7994 	sbc	hl, de
    00002C8B EB               [ 4] 7995 	ex	de, hl
    00002C8C 21 00 00         [10] 7996 	ld	hl, #0x0000
    00002C8F ED 42            [15] 7997 	sbc	hl, bc
    00002C91 C9               [10] 7998 	ret
    00002C92                       7999 00103$:
    00002C92 69               [ 4] 8000 	ld	l, c
                                   8001 ;	spillPairReg hl
                                   8002 ;	spillPairReg hl
    00002C93 60               [ 4] 8003 	ld	h, b
                                   8004 ;	spillPairReg hl
                                   8005 ;	spillPairReg hl
    00002C94 C9               [10] 8006 	ret
                                   8007 ;E:\Dropbox\FAUSTO\SVILUPPI\MSX\CODE\C\MSXgl\projects\exsoccer/exsoccer_s2_b0.c:1427: u8 GetBestPassTarget(u8 passerId) {
                                   8008 ;	---------------------------------
                                   8009 ; Function GetBestPassTarget
                                   8010 ; ---------------------------------
    00002C95                       8011 _GetBestPassTarget::
    00002C95 DD E5            [15] 8012 	push	ix
    00002C97 DD 21 00 00      [14] 8013 	ld	ix,#0
    00002C9B DD 39            [15] 8014 	add	ix,sp
    00002C9D 21 E0 FF         [10] 8015 	ld	hl, #-32
    00002CA0 39               [11] 8016 	add	hl, sp
    00002CA1 F9               [ 6] 8017 	ld	sp, hl
    00002CA2 DD 77 FE         [19] 8018 	ld	-2 (ix), a
                                   8019 ;E:\Dropbox\FAUSTO\SVILUPPI\MSX\CODE\C\MSXgl\projects\exsoccer/exsoccer_s2_b0.c:1428: u8 bestTarget = NO_VALUE;
    00002CA5 DD 36 E0 FF      [19] 8020 	ld	-32 (ix), #0xff
                                   8021 ;E:\Dropbox\FAUSTO\SVILUPPI\MSX\CODE\C\MSXgl\projects\exsoccer/exsoccer_s2_b0.c:1429: i32 bestScore = -2100000000;
    00002CA9 DD 36 E1 00      [19] 8022 	ld	-31 (ix), #0x00
    00002CAD DD 36 E2 8B      [19] 8023 	ld	-30 (ix), #0x8b
    00002CB1 DD 36 E3 D4      [19] 8024 	ld	-29 (ix), #0xd4
    00002CB5 DD 36 E4 82      [19] 8025 	ld	-28 (ix), #0x82
                                   8026 ;E:\Dropbox\FAUSTO\SVILUPPI\MSX\CODE\C\MSXgl\projects\exsoccer/exsoccer_s2_b0.c:1430: u8 teamId = g_Players[passerId].TeamId;
    00002CB9 DD 4E FE         [19] 8027 	ld	c, -2 (ix)
    00002CBC 06 00            [ 7] 8028 	ld	b, #0x00
    00002CBE 69               [ 4] 8029 	ld	l, c
    00002CBF 60               [ 4] 8030 	ld	h, b
    00002CC0 29               [11] 8031 	add	hl, hl
    00002CC1 29               [11] 8032 	add	hl, hl
    00002CC2 29               [11] 8033 	add	hl, hl
    00002CC3 29               [11] 8034 	add	hl, hl
    00002CC4 09               [11] 8035 	add	hl, bc
    00002CC5 11r00r00         [10] 8036 	ld	de, #_g_Players
    00002CC8 19               [11] 8037 	add	hl, de
    00002CC9 4D               [ 4] 8038 	ld	c, l
    00002CCA 44               [ 4] 8039 	ld	b, h
    00002CCB C5               [11] 8040 	push	bc
    00002CCC FD E1            [14] 8041 	pop	iy
    00002CCE FD 7E 05         [19] 8042 	ld	a, 5 (iy)
    00002CD1 DD 77 E5         [19] 8043 	ld	-27 (ix), a
                                   8044 ;E:\Dropbox\FAUSTO\SVILUPPI\MSX\CODE\C\MSXgl\projects\exsoccer/exsoccer_s2_b0.c:1431: u8 dir = g_Players[passerId].Direction;
    00002CD4 C5               [11] 8045 	push	bc
    00002CD5 FD E1            [14] 8046 	pop	iy
    00002CD7 FD 5E 06         [19] 8047 	ld	e, 6 (iy)
                                   8048 ;E:\Dropbox\FAUSTO\SVILUPPI\MSX\CODE\C\MSXgl\projects\exsoccer/exsoccer_s2_b0.c:1432: i16 px = (i16)g_Players[passerId].X;
    00002CDA 69               [ 4] 8049 	ld	l, c
                                   8050 ;	spillPairReg hl
                                   8051 ;	spillPairReg hl
    00002CDB 60               [ 4] 8052 	ld	h, b
                                   8053 ;	spillPairReg hl
                                   8054 ;	spillPairReg hl
    00002CDC 23               [ 6] 8055 	inc	hl
    00002CDD 23               [ 6] 8056 	inc	hl
    00002CDE 56               [ 7] 8057 	ld	d, (hl)
    00002CDF 23               [ 6] 8058 	inc	hl
    00002CE0 7E               [ 7] 8059 	ld	a, (hl)
    00002CE1 DD 72 E6         [19] 8060 	ld	-26 (ix), d
    00002CE4 DD 77 E7         [19] 8061 	ld	-25 (ix), a
                                   8062 ;E:\Dropbox\FAUSTO\SVILUPPI\MSX\CODE\C\MSXgl\projects\exsoccer/exsoccer_s2_b0.c:1433: i16 py = (i16)g_Players[passerId].Y;
    00002CE7 69               [ 4] 8063 	ld	l, c
    00002CE8 60               [ 4] 8064 	ld	h, b
    00002CE9 56               [ 7] 8065 	ld	d, (hl)
    00002CEA 23               [ 6] 8066 	inc	hl
    00002CEB 7E               [ 7] 8067 	ld	a, (hl)
    00002CEC DD 72 E8         [19] 8068 	ld	-24 (ix), d
    00002CEF DD 77 E9         [19] 8069 	ld	-23 (ix), a
                                   8070 ;E:\Dropbox\FAUSTO\SVILUPPI\MSX\CODE\C\MSXgl\projects\exsoccer/exsoccer_s2_b0.c:1436: i16 dirX = 0, dirY = 0;
    00002CF2 AF               [ 4] 8071 	xor	a, a
    00002CF3 DD 77 EA         [19] 8072 	ld	-22 (ix), a
    00002CF6 DD 77 EB         [19] 8073 	ld	-21 (ix), a
    00002CF9 AF               [ 4] 8074 	xor	a, a
    00002CFA DD 77 EC         [19] 8075 	ld	-20 (ix), a
    00002CFD DD 77 ED         [19] 8076 	ld	-19 (ix), a
                                   8077 ;E:\Dropbox\FAUSTO\SVILUPPI\MSX\CODE\C\MSXgl\projects\exsoccer/exsoccer_s2_b0.c:1439: if (dir == DIRECTION_NONE) dir = g_Players[passerId].PreviousDirection;
    00002D00 7B               [ 4] 8078 	ld	a, e
    00002D01 B7               [ 4] 8079 	or	a, a
    00002D02 20 07            [12] 8080 	jr	NZ, 00102$
    00002D04 59               [ 4] 8081 	ld	e, c
    00002D05 50               [ 4] 8082 	ld	d, b
    00002D06 21 07 00         [10] 8083 	ld	hl, #7
    00002D09 19               [11] 8084 	add	hl, de
    00002D0A 5E               [ 7] 8085 	ld	e, (hl)
    00002D0B                       8086 00102$:
                                   8087 ;E:\Dropbox\FAUSTO\SVILUPPI\MSX\CODE\C\MSXgl\projects\exsoccer/exsoccer_s2_b0.c:1441: if (dir == DIRECTION_UP) dirY = -100;
    00002D0B 7B               [ 4] 8088 	ld	a, e
    00002D0C 3D               [ 4] 8089 	dec	a
    00002D0D 20 0B            [12] 8090 	jr	NZ, 00128$
    00002D0F DD 36 EC 9C      [19] 8091 	ld	-20 (ix), #0x9c
    00002D13 DD 36 ED FF      [19] 8092 	ld	-19 (ix), #0xff
    00002D17 C3rC3r2D         [10] 8093 	jp	00183$
    00002D1A                       8094 00128$:
                                   8095 ;E:\Dropbox\FAUSTO\SVILUPPI\MSX\CODE\C\MSXgl\projects\exsoccer/exsoccer_s2_b0.c:1442: else if (dir == DIRECTION_DOWN) dirY = 100;
    00002D1A 7B               [ 4] 8096 	ld	a, e
    00002D1B D6 05            [ 7] 8097 	sub	a, #0x05
    00002D1D 20 0B            [12] 8098 	jr	NZ, 00125$
    00002D1F DD 36 EC 64      [19] 8099 	ld	-20 (ix), #0x64
    00002D23 DD 36 ED 00      [19] 8100 	ld	-19 (ix), #0
    00002D27 C3rC3r2D         [10] 8101 	jp	00183$
    00002D2A                       8102 00125$:
                                   8103 ;E:\Dropbox\FAUSTO\SVILUPPI\MSX\CODE\C\MSXgl\projects\exsoccer/exsoccer_s2_b0.c:1443: else if (dir == DIRECTION_LEFT) dirX = -100;
    00002D2A 7B               [ 4] 8104 	ld	a, e
    00002D2B D6 07            [ 7] 8105 	sub	a, #0x07
    00002D2D 20 0B            [12] 8106 	jr	NZ, 00122$
    00002D2F DD 36 EA 9C      [19] 8107 	ld	-22 (ix), #0x9c
    00002D33 DD 36 EB FF      [19] 8108 	ld	-21 (ix), #0xff
    00002D37 C3rC3r2D         [10] 8109 	jp	00183$
    00002D3A                       8110 00122$:
                                   8111 ;E:\Dropbox\FAUSTO\SVILUPPI\MSX\CODE\C\MSXgl\projects\exsoccer/exsoccer_s2_b0.c:1444: else if (dir == DIRECTION_RIGHT) dirX = 100;
    00002D3A 7B               [ 4] 8112 	ld	a, e
    00002D3B D6 03            [ 7] 8113 	sub	a, #0x03
    00002D3D 20 0B            [12] 8114 	jr	NZ, 00119$
    00002D3F DD 36 EA 64      [19] 8115 	ld	-22 (ix), #0x64
    00002D43 DD 36 EB 00      [19] 8116 	ld	-21 (ix), #0
    00002D47 C3rC3r2D         [10] 8117 	jp	00183$
    00002D4A                       8118 00119$:
                                   8119 ;E:\Dropbox\FAUSTO\SVILUPPI\MSX\CODE\C\MSXgl\projects\exsoccer/exsoccer_s2_b0.c:1445: else if (dir == DIRECTION_UP_RIGHT) { dirX = 70; dirY = -70; }
    00002D4A 7B               [ 4] 8120 	ld	a, e
    00002D4B D6 02            [ 7] 8121 	sub	a, #0x02
    00002D4D 20 13            [12] 8122 	jr	NZ, 00116$
    00002D4F DD 36 EA 46      [19] 8123 	ld	-22 (ix), #0x46
    00002D53 AF               [ 4] 8124 	xor	a, a
    00002D54 DD 77 EB         [19] 8125 	ld	-21 (ix), a
    00002D57 DD 36 EC BA      [19] 8126 	ld	-20 (ix), #0xba
    00002D5B DD 36 ED FF      [19] 8127 	ld	-19 (ix), #0xff
    00002D5F C3rC3r2D         [10] 8128 	jp	00183$
    00002D62                       8129 00116$:
                                   8130 ;E:\Dropbox\FAUSTO\SVILUPPI\MSX\CODE\C\MSXgl\projects\exsoccer/exsoccer_s2_b0.c:1446: else if (dir == DIRECTION_UP_LEFT) { dirX = -70; dirY = -70; }
    00002D62 7B               [ 4] 8131 	ld	a, e
    00002D63 D6 08            [ 7] 8132 	sub	a, #0x08
    00002D65 20 13            [12] 8133 	jr	NZ, 00113$
    00002D67 DD 36 EA BA      [19] 8134 	ld	-22 (ix), #0xba
    00002D6B DD 36 EB FF      [19] 8135 	ld	-21 (ix), #0xff
    00002D6F DD 36 EC BA      [19] 8136 	ld	-20 (ix), #0xba
    00002D73 DD 36 ED FF      [19] 8137 	ld	-19 (ix), #0xff
    00002D77 C3rC3r2D         [10] 8138 	jp	00183$
    00002D7A                       8139 00113$:
                                   8140 ;E:\Dropbox\FAUSTO\SVILUPPI\MSX\CODE\C\MSXgl\projects\exsoccer/exsoccer_s2_b0.c:1447: else if (dir == DIRECTION_DOWN_RIGHT) { dirX = 70; dirY = 70; }
    00002D7A 7B               [ 4] 8141 	ld	a, e
    00002D7B D6 04            [ 7] 8142 	sub	a, #0x04
    00002D7D 20 13            [12] 8143 	jr	NZ, 00110$
    00002D7F DD 36 EA 46      [19] 8144 	ld	-22 (ix), #0x46
    00002D83 DD 36 EB 00      [19] 8145 	ld	-21 (ix), #0
    00002D87 DD 36 EC 46      [19] 8146 	ld	-20 (ix), #0x46
    00002D8B DD 36 ED 00      [19] 8147 	ld	-19 (ix), #0
    00002D8F C3rC3r2D         [10] 8148 	jp	00183$
    00002D92                       8149 00110$:
                                   8150 ;E:\Dropbox\FAUSTO\SVILUPPI\MSX\CODE\C\MSXgl\projects\exsoccer/exsoccer_s2_b0.c:1448: else if (dir == DIRECTION_DOWN_LEFT) { dirX = -70; dirY = 70; }
    00002D92 7B               [ 4] 8151 	ld	a, e
    00002D93 D6 06            [ 7] 8152 	sub	a, #0x06
    00002D95 20 13            [12] 8153 	jr	NZ, 00107$
    00002D97 DD 36 EA BA      [19] 8154 	ld	-22 (ix), #0xba
    00002D9B DD 36 EB FF      [19] 8155 	ld	-21 (ix), #0xff
    00002D9F DD 36 EC 46      [19] 8156 	ld	-20 (ix), #0x46
    00002DA3 DD 36 ED 00      [19] 8157 	ld	-19 (ix), #0
    00002DA7 C3rC3r2D         [10] 8158 	jp	00183$
    00002DAA                       8159 00107$:
                                   8160 ;E:\Dropbox\FAUSTO\SVILUPPI\MSX\CODE\C\MSXgl\projects\exsoccer/exsoccer_s2_b0.c:1450: if (teamId == TEAM_1) dirY = -100; 
    00002DAA DD 7E E5         [19] 8161 	ld	a, -27 (ix)
    00002DAD 3D               [ 4] 8162 	dec	a
    00002DAE 20 0B            [12] 8163 	jr	NZ, 00104$
    00002DB0 DD 36 EC 9C      [19] 8164 	ld	-20 (ix), #0x9c
    00002DB4 DD 36 ED FF      [19] 8165 	ld	-19 (ix), #0xff
    00002DB8 C3rC3r2D         [10] 8166 	jp	00183$
    00002DBB                       8167 00104$:
                                   8168 ;E:\Dropbox\FAUSTO\SVILUPPI\MSX\CODE\C\MSXgl\projects\exsoccer/exsoccer_s2_b0.c:1451: else dirY = 100; 
    00002DBB DD 36 EC 64      [19] 8169 	ld	-20 (ix), #0x64
    00002DBF DD 36 ED 00      [19] 8170 	ld	-19 (ix), #0
                                   8171 ;E:\Dropbox\FAUSTO\SVILUPPI\MSX\CODE\C\MSXgl\projects\exsoccer/exsoccer_s2_b0.c:1454: for(i=0; i<14; i++) {
    00002DC3                       8172 00183$:
    00002DC3 DD 71 EE         [19] 8173 	ld	-18 (ix), c
    00002DC6 DD 70 EF         [19] 8174 	ld	-17 (ix), b
    00002DC9 DD 36 FF 00      [19] 8175 	ld	-1 (ix), #0x00
    00002DCD                       8176 00154$:
                                   8177 ;E:\Dropbox\FAUSTO\SVILUPPI\MSX\CODE\C\MSXgl\projects\exsoccer/exsoccer_s2_b0.c:1459: if(g_Players[i].TeamId != teamId) continue;
    00002DCD DD 4E FF         [19] 8178 	ld	c, -1 (ix)
    00002DD0 06 00            [ 7] 8179 	ld	b, #0x00
    00002DD2 69               [ 4] 8180 	ld	l, c
    00002DD3 60               [ 4] 8181 	ld	h, b
    00002DD4 29               [11] 8182 	add	hl, hl
    00002DD5 29               [11] 8183 	add	hl, hl
    00002DD6 29               [11] 8184 	add	hl, hl
    00002DD7 29               [11] 8185 	add	hl, hl
    00002DD8 09               [11] 8186 	add	hl, bc
    00002DD9 EB               [ 4] 8187 	ex	de, hl
    00002DDA 21r00r00         [10] 8188 	ld	hl, #_g_Players
    00002DDD 19               [11] 8189 	add	hl, de
    00002DDE DD 75 FC         [19] 8190 	ld	-4 (ix), l
    00002DE1 DD 74 FD         [19] 8191 	ld	-3 (ix), h
    00002DE4 01 05 00         [10] 8192 	ld	bc,#5
    00002DE7 09               [11] 8193 	add	hl,bc
    00002DE8 DD 7E E5         [19] 8194 	ld	a,-27 (ix)
    00002DEB 96               [ 7] 8195 	sub	a,(hl)
    00002DEC C2r80r30         [10] 8196 	jp	NZ,00152$
                                   8197 ;E:\Dropbox\FAUSTO\SVILUPPI\MSX\CODE\C\MSXgl\projects\exsoccer/exsoccer_s2_b0.c:1460: if(i == passerId) continue;
    00002DEF DD 7E FE         [19] 8198 	ld	a, -2 (ix)
    00002DF2 DD 96 FF         [19] 8199 	sub	a, -1 (ix)
    00002DF5 CAr80r30         [10] 8200 	jp	Z,00152$
                                   8201 ;E:\Dropbox\FAUSTO\SVILUPPI\MSX\CODE\C\MSXgl\projects\exsoccer/exsoccer_s2_b0.c:1461: if(g_Players[i].Status == PLAYER_STATUS_NONE) continue;
    00002DF8 DD 4E FC         [19] 8202 	ld	c, -4 (ix)
    00002DFB DD 46 FD         [19] 8203 	ld	b, -3 (ix)
    00002DFE 21 0E 00         [10] 8204 	ld	hl, #14
    00002E01 09               [11] 8205 	add	hl, bc
    00002E02 7E               [ 7] 8206 	ld	a, (hl)
    00002E03 23               [ 6] 8207 	inc	hl
    00002E04 B6               [ 7] 8208 	or	a, (hl)
    00002E05 CAr80r30         [10] 8209 	jp	Z, 00152$
                                   8210 ;E:\Dropbox\FAUSTO\SVILUPPI\MSX\CODE\C\MSXgl\projects\exsoccer/exsoccer_s2_b0.c:1462: if(g_Players[i].Role == PLAYER_ROLE_GOALKEEPER) continue; 
    00002E08 DD 4E FC         [19] 8211 	ld	c, -4 (ix)
    00002E0B DD 46 FD         [19] 8212 	ld	b, -3 (ix)
    00002E0E 21 09 00         [10] 8213 	ld	hl, #9
    00002E11 09               [11] 8214 	add	hl, bc
    00002E12 7E               [ 7] 8215 	ld	a, (hl)
    00002E13 B7               [ 4] 8216 	or	a, a
    00002E14 CAr80r30         [10] 8217 	jp	Z, 00152$
                                   8218 ;E:\Dropbox\FAUSTO\SVILUPPI\MSX\CODE\C\MSXgl\projects\exsoccer/exsoccer_s2_b0.c:1465: if (g_Players[i].Y < g_FieldCurrentYPosition || g_Players[i].Y > (g_FieldCurrentYPosition + 220)) {
    00002E17 DD 6E FC         [19] 8219 	ld	l, -4 (ix)
    00002E1A DD 66 FD         [19] 8220 	ld	h, -3 (ix)
    00002E1D 4E               [ 7] 8221 	ld	c, (hl)
    00002E1E 23               [ 6] 8222 	inc	hl
    00002E1F 46               [ 7] 8223 	ld	b, (hl)
    00002E20 59               [ 4] 8224 	ld	e, c
    00002E21 50               [ 4] 8225 	ld	d, b
    00002E22 2Ar00r00         [16] 8226 	ld	hl, (_g_FieldCurrentYPosition)
    00002E25 7B               [ 4] 8227 	ld	a, e
    00002E26 95               [ 4] 8228 	sub	a, l
    00002E27 7A               [ 4] 8229 	ld	a, d
    00002E28 9C               [ 4] 8230 	sbc	a, h
    00002E29 DAr80r30         [10] 8231 	jp	C, 00152$
    00002E2C FD 21 DC 00      [14] 8232 	ld	iy, #0x00dc
    00002E30 C5               [11] 8233 	push	bc
    00002E31 ED 4Br00r00      [20] 8234 	ld	bc, (_g_FieldCurrentYPosition)
    00002E35 FD 09            [15] 8235 	add	iy, bc
    00002E37 C1               [10] 8236 	pop	bc
    00002E38 FD E5            [15] 8237 	push	iy
    00002E3A E1               [10] 8238 	pop	hl
    00002E3B AF               [ 4] 8239 	xor	a, a
    00002E3C ED 52            [15] 8240 	sbc	hl, de
    00002E3E DAr80r30         [10] 8241 	jp	C, 00152$
                                   8242 ;E:\Dropbox\FAUSTO\SVILUPPI\MSX\CODE\C\MSXgl\projects\exsoccer/exsoccer_s2_b0.c:1469: dx = (i16)g_Players[i].X - px;
    00002E41 DD 6E FC         [19] 8243 	ld	l, -4 (ix)
                                   8244 ;	spillPairReg hl
                                   8245 ;	spillPairReg hl
    00002E44 DD 66 FD         [19] 8246 	ld	h, -3 (ix)
                                   8247 ;	spillPairReg hl
                                   8248 ;	spillPairReg hl
    00002E47 23               [ 6] 8249 	inc	hl
    00002E48 23               [ 6] 8250 	inc	hl
    00002E49 5E               [ 7] 8251 	ld	e, (hl)
    00002E4A 23               [ 6] 8252 	inc	hl
    00002E4B 56               [ 7] 8253 	ld	d, (hl)
    00002E4C 7B               [ 4] 8254 	ld	a, e
    00002E4D DD 96 E6         [19] 8255 	sub	a, -26 (ix)
    00002E50 5F               [ 4] 8256 	ld	e, a
    00002E51 7A               [ 4] 8257 	ld	a, d
    00002E52 DD 9E E7         [19] 8258 	sbc	a, -25 (ix)
    00002E55 DD 73 FA         [19] 8259 	ld	-6 (ix), e
    00002E58 DD 77 FB         [19] 8260 	ld	-5 (ix), a
                                   8261 ;E:\Dropbox\FAUSTO\SVILUPPI\MSX\CODE\C\MSXgl\projects\exsoccer/exsoccer_s2_b0.c:1470: dy = (i16)g_Players[i].Y - py;
    00002E5B 79               [ 4] 8262 	ld	a, c
    00002E5C DD 96 E8         [19] 8263 	sub	a, -24 (ix)
    00002E5F 4F               [ 4] 8264 	ld	c, a
    00002E60 78               [ 4] 8265 	ld	a, b
    00002E61 DD 9E E9         [19] 8266 	sbc	a, -23 (ix)
    00002E64 DD 71 FC         [19] 8267 	ld	-4 (ix), c
    00002E67 DD 77 FD         [19] 8268 	ld	-3 (ix), a
                                   8269 ;E:\Dropbox\FAUSTO\SVILUPPI\MSX\CODE\C\MSXgl\projects\exsoccer/exsoccer_s2_b0.c:1474: adx = (dx < 0) ? -dx : dx;
    00002E6A DD 46 FB         [19] 8270 	ld	b, -5 (ix)
    00002E6D CB 78            [ 8] 8271 	bit	7, b
    00002E6F 28 11            [12] 8272 	jr	Z, 00157$
    00002E71 AF               [ 4] 8273 	xor	a, a
    00002E72 DD 96 FA         [19] 8274 	sub	a, -6 (ix)
    00002E75 DD 77 F8         [19] 8275 	ld	-8 (ix), a
    00002E78 9F               [ 4] 8276 	sbc	a, a
    00002E79 DD 96 FB         [19] 8277 	sub	a, -5 (ix)
    00002E7C DD 77 F9         [19] 8278 	ld	-7 (ix), a
    00002E7F C3r8Er2E         [10] 8279 	jp	00158$
    00002E82                       8280 00157$:
    00002E82 DD 7E FA         [19] 8281 	ld	a, -6 (ix)
    00002E85 DD 77 F8         [19] 8282 	ld	-8 (ix), a
    00002E88 DD 7E FB         [19] 8283 	ld	a, -5 (ix)
    00002E8B DD 77 F9         [19] 8284 	ld	-7 (ix), a
    00002E8E                       8285 00158$:
    00002E8E DD 4E F8         [19] 8286 	ld	c, -8 (ix)
    00002E91 DD 46 F9         [19] 8287 	ld	b, -7 (ix)
                                   8288 ;E:\Dropbox\FAUSTO\SVILUPPI\MSX\CODE\C\MSXgl\projects\exsoccer/exsoccer_s2_b0.c:1475: ady = (dy < 0) ? -dy : dy;
    00002E94 DD 56 FD         [19] 8289 	ld	d, -3 (ix)
    00002E97 CB 7A            [ 8] 8290 	bit	7, d
    00002E99 28 0C            [12] 8291 	jr	Z, 00159$
    00002E9B AF               [ 4] 8292 	xor	a, a
    00002E9C DD 96 FC         [19] 8293 	sub	a, -4 (ix)
    00002E9F 5F               [ 4] 8294 	ld	e, a
    00002EA0 9F               [ 4] 8295 	sbc	a, a
    00002EA1 DD 96 FD         [19] 8296 	sub	a, -3 (ix)
    00002EA4 C3rADr2E         [10] 8297 	jp	00160$
    00002EA7                       8298 00159$:
    00002EA7 DD 5E FC         [19] 8299 	ld	e, -4 (ix)
    00002EAA DD 7E FD         [19] 8300 	ld	a, -3 (ix)
    00002EAD                       8301 00160$:
    00002EAD DD 73 F0         [19] 8302 	ld	-16 (ix), e
    00002EB0 DD 77 F1         [19] 8303 	ld	-15 (ix), a
                                   8304 ;E:\Dropbox\FAUSTO\SVILUPPI\MSX\CODE\C\MSXgl\projects\exsoccer/exsoccer_s2_b0.c:1476: if (adx < 32 && ady < 32) continue;
    00002EB3 59               [ 4] 8305 	ld	e, c
    00002EB4 50               [ 4] 8306 	ld	d, b
    00002EB5 7B               [ 4] 8307 	ld	a, e
    00002EB6 D6 20            [ 7] 8308 	sub	a, #0x20
    00002EB8 7A               [ 4] 8309 	ld	a, d
    00002EB9 17               [ 4] 8310 	rla
    00002EBA 3F               [ 4] 8311 	ccf
    00002EBB 1F               [ 4] 8312 	rra
    00002EBC DE 80            [ 7] 8313 	sbc	a, #0x80
    00002EBE 30 12            [12] 8314 	jr	NC, 00142$
    00002EC0 DD 5E F0         [19] 8315 	ld	e, -16 (ix)
    00002EC3 DD 56 F1         [19] 8316 	ld	d, -15 (ix)
    00002EC6 7B               [ 4] 8317 	ld	a, e
    00002EC7 D6 20            [ 7] 8318 	sub	a, #0x20
    00002EC9 7A               [ 4] 8319 	ld	a, d
    00002ECA 17               [ 4] 8320 	rla
    00002ECB 3F               [ 4] 8321 	ccf
    00002ECC 1F               [ 4] 8322 	rra
    00002ECD DE 80            [ 7] 8323 	sbc	a, #0x80
    00002ECF DAr80r30         [10] 8324 	jp	C, 00152$
    00002ED2                       8325 00142$:
                                   8326 ;E:\Dropbox\FAUSTO\SVILUPPI\MSX\CODE\C\MSXgl\projects\exsoccer/exsoccer_s2_b0.c:1479: if (g_Players[passerId].Role == PLAYER_ROLE_GOALKEEPER) {
    00002ED2 DD 6E EE         [19] 8327 	ld	l, -18 (ix)
    00002ED5 DD 66 EF         [19] 8328 	ld	h, -17 (ix)
    00002ED8 11 09 00         [10] 8329 	ld	de, #0x0009
    00002EDB 19               [11] 8330 	add	hl, de
    00002EDC 5E               [ 7] 8331 	ld	e, (hl)
                                   8332 ;E:\Dropbox\FAUSTO\SVILUPPI\MSX\CODE\C\MSXgl\projects\exsoccer/exsoccer_s2_b0.c:1481: if (((i32)dx*(i32)dx + (i32)dy*(i32)dy) > 14400) continue;
    00002EDD DD 7E FA         [19] 8333 	ld	a, -6 (ix)
    00002EE0 DD 77 F2         [19] 8334 	ld	-14 (ix), a
    00002EE3 DD 7E FB         [19] 8335 	ld	a, -5 (ix)
    00002EE6 DD 77 F3         [19] 8336 	ld	-13 (ix), a
    00002EE9 07               [ 4] 8337 	rlca
    00002EEA 9F               [ 4] 8338 	sbc	a, a
    00002EEB DD 77 F4         [19] 8339 	ld	-12 (ix), a
    00002EEE DD 77 F5         [19] 8340 	ld	-11 (ix), a
    00002EF1 DD 7E FC         [19] 8341 	ld	a, -4 (ix)
    00002EF4 DD 77 F6         [19] 8342 	ld	-10 (ix), a
    00002EF7 DD 7E FD         [19] 8343 	ld	a, -3 (ix)
    00002EFA DD 77 F7         [19] 8344 	ld	-9 (ix), a
    00002EFD 07               [ 4] 8345 	rlca
    00002EFE 9F               [ 4] 8346 	sbc	a, a
    00002EFF DD 77 F8         [19] 8347 	ld	-8 (ix), a
    00002F02 DD 77 F9         [19] 8348 	ld	-7 (ix), a
                                   8349 ;E:\Dropbox\FAUSTO\SVILUPPI\MSX\CODE\C\MSXgl\projects\exsoccer/exsoccer_s2_b0.c:1479: if (g_Players[passerId].Role == PLAYER_ROLE_GOALKEEPER) {
    00002F05 7B               [ 4] 8350 	ld	a, e
    00002F06 B7               [ 4] 8351 	or	a, a
    00002F07 20 74            [12] 8352 	jr	NZ, 00147$
                                   8353 ;E:\Dropbox\FAUSTO\SVILUPPI\MSX\CODE\C\MSXgl\projects\exsoccer/exsoccer_s2_b0.c:1481: if (((i32)dx*(i32)dx + (i32)dy*(i32)dy) > 14400) continue;
    00002F09 C5               [11] 8354 	push	bc
    00002F0A DD 6E F4         [19] 8355 	ld	l, -12 (ix)
                                   8356 ;	spillPairReg hl
                                   8357 ;	spillPairReg hl
    00002F0D DD 66 F5         [19] 8358 	ld	h, -11 (ix)
                                   8359 ;	spillPairReg hl
                                   8360 ;	spillPairReg hl
    00002F10 E5               [11] 8361 	push	hl
    00002F11 DD 6E F2         [19] 8362 	ld	l, -14 (ix)
                                   8363 ;	spillPairReg hl
                                   8364 ;	spillPairReg hl
    00002F14 DD 66 F3         [19] 8365 	ld	h, -13 (ix)
                                   8366 ;	spillPairReg hl
                                   8367 ;	spillPairReg hl
    00002F17 E5               [11] 8368 	push	hl
    00002F18 DD 5E F2         [19] 8369 	ld	e, -14 (ix)
    00002F1B DD 56 F3         [19] 8370 	ld	d, -13 (ix)
    00002F1E DD 6E F4         [19] 8371 	ld	l, -12 (ix)
                                   8372 ;	spillPairReg hl
                                   8373 ;	spillPairReg hl
    00002F21 DD 66 F5         [19] 8374 	ld	h, -11 (ix)
                                   8375 ;	spillPairReg hl
                                   8376 ;	spillPairReg hl
    00002F24 CDr00r00         [17] 8377 	call	__mullong
    00002F27 F1               [10] 8378 	pop	af
    00002F28 F1               [10] 8379 	pop	af
    00002F29 DD 73 FA         [19] 8380 	ld	-6 (ix), e
    00002F2C DD 72 FB         [19] 8381 	ld	-5 (ix), d
    00002F2F DD 75 FC         [19] 8382 	ld	-4 (ix), l
    00002F32 DD 74 FD         [19] 8383 	ld	-3 (ix), h
    00002F35 DD 6E F8         [19] 8384 	ld	l, -8 (ix)
                                   8385 ;	spillPairReg hl
                                   8386 ;	spillPairReg hl
    00002F38 DD 66 F9         [19] 8387 	ld	h, -7 (ix)
                                   8388 ;	spillPairReg hl
                                   8389 ;	spillPairReg hl
    00002F3B E5               [11] 8390 	push	hl
    00002F3C DD 6E F6         [19] 8391 	ld	l, -10 (ix)
                                   8392 ;	spillPairReg hl
                                   8393 ;	spillPairReg hl
    00002F3F DD 66 F7         [19] 8394 	ld	h, -9 (ix)
                                   8395 ;	spillPairReg hl
                                   8396 ;	spillPairReg hl
    00002F42 E5               [11] 8397 	push	hl
    00002F43 DD 5E F6         [19] 8398 	ld	e, -10 (ix)
    00002F46 DD 56 F7         [19] 8399 	ld	d, -9 (ix)
    00002F49 DD 6E F8         [19] 8400 	ld	l, -8 (ix)
                                   8401 ;	spillPairReg hl
                                   8402 ;	spillPairReg hl
    00002F4C DD 66 F9         [19] 8403 	ld	h, -7 (ix)
                                   8404 ;	spillPairReg hl
                                   8405 ;	spillPairReg hl
    00002F4F CDr00r00         [17] 8406 	call	__mullong
    00002F52 F1               [10] 8407 	pop	af
    00002F53 F1               [10] 8408 	pop	af
    00002F54 C1               [10] 8409 	pop	bc
    00002F55 7B               [ 4] 8410 	ld	a, e
    00002F56 DD 86 FA         [19] 8411 	add	a, -6 (ix)
    00002F59 5F               [ 4] 8412 	ld	e, a
    00002F5A 7A               [ 4] 8413 	ld	a, d
    00002F5B DD 8E FB         [19] 8414 	adc	a, -5 (ix)
    00002F5E 57               [ 4] 8415 	ld	d, a
    00002F5F 7D               [ 4] 8416 	ld	a, l
    00002F60 DD 8E FC         [19] 8417 	adc	a, -4 (ix)
    00002F63 6F               [ 4] 8418 	ld	l, a
                                   8419 ;	spillPairReg hl
                                   8420 ;	spillPairReg hl
    00002F64 7C               [ 4] 8421 	ld	a, h
    00002F65 DD 8E FD         [19] 8422 	adc	a, -3 (ix)
    00002F68 67               [ 4] 8423 	ld	h, a
                                   8424 ;	spillPairReg hl
                                   8425 ;	spillPairReg hl
    00002F69 3E 40            [ 7] 8426 	ld	a, #0x40
    00002F6B BB               [ 4] 8427 	cp	a, e
    00002F6C 3E 38            [ 7] 8428 	ld	a, #0x38
    00002F6E 9A               [ 4] 8429 	sbc	a, d
    00002F6F 3E 00            [ 7] 8430 	ld	a, #0x00
    00002F71 9D               [ 4] 8431 	sbc	a, l
    00002F72 3E 00            [ 7] 8432 	ld	a, #0x00
    00002F74 9C               [ 4] 8433 	sbc	a, h
    00002F75 E2r7Ar2F         [10] 8434 	jp	PO, 00303$
    00002F78 EE 80            [ 7] 8435 	xor	a, #0x80
    00002F7A                       8436 00303$:
    00002F7A FAr80r30         [10] 8437 	jp	M, 00152$
    00002F7D                       8438 00147$:
                                   8439 ;E:\Dropbox\FAUSTO\SVILUPPI\MSX\CODE\C\MSXgl\projects\exsoccer/exsoccer_s2_b0.c:1484: dot = ((i32)dx * dirX) + ((i32)dy * dirY);
    00002F7D DD 5E EA         [19] 8440 	ld	e, -22 (ix)
    00002F80 DD 7E EB         [19] 8441 	ld	a, -21 (ix)
    00002F83 57               [ 4] 8442 	ld	d, a
    00002F84 07               [ 4] 8443 	rlca
    00002F85 ED 62            [15] 8444 	sbc	hl, hl
    00002F87 C5               [11] 8445 	push	bc
    00002F88 E5               [11] 8446 	push	hl
    00002F89 D5               [11] 8447 	push	de
    00002F8A DD 5E F2         [19] 8448 	ld	e, -14 (ix)
    00002F8D DD 56 F3         [19] 8449 	ld	d, -13 (ix)
    00002F90 DD 6E F4         [19] 8450 	ld	l, -12 (ix)
                                   8451 ;	spillPairReg hl
                                   8452 ;	spillPairReg hl
    00002F93 DD 66 F5         [19] 8453 	ld	h, -11 (ix)
                                   8454 ;	spillPairReg hl
                                   8455 ;	spillPairReg hl
    00002F96 CDr00r00         [17] 8456 	call	__mullong
    00002F99 F1               [10] 8457 	pop	af
    00002F9A F1               [10] 8458 	pop	af
    00002F9B DD 73 FA         [19] 8459 	ld	-6 (ix), e
    00002F9E DD 72 FB         [19] 8460 	ld	-5 (ix), d
    00002FA1 DD 75 FC         [19] 8461 	ld	-4 (ix), l
    00002FA4 DD 74 FD         [19] 8462 	ld	-3 (ix), h
    00002FA7 C1               [10] 8463 	pop	bc
    00002FA8 DD 5E EC         [19] 8464 	ld	e, -20 (ix)
    00002FAB DD 7E ED         [19] 8465 	ld	a, -19 (ix)
    00002FAE 57               [ 4] 8466 	ld	d, a
    00002FAF 07               [ 4] 8467 	rlca
    00002FB0 ED 62            [15] 8468 	sbc	hl, hl
    00002FB2 C5               [11] 8469 	push	bc
    00002FB3 E5               [11] 8470 	push	hl
    00002FB4 D5               [11] 8471 	push	de
    00002FB5 DD 5E F6         [19] 8472 	ld	e, -10 (ix)
    00002FB8 DD 56 F7         [19] 8473 	ld	d, -9 (ix)
    00002FBB DD 6E F8         [19] 8474 	ld	l, -8 (ix)
                                   8475 ;	spillPairReg hl
                                   8476 ;	spillPairReg hl
    00002FBE DD 66 F9         [19] 8477 	ld	h, -7 (ix)
                                   8478 ;	spillPairReg hl
                                   8479 ;	spillPairReg hl
    00002FC1 CDr00r00         [17] 8480 	call	__mullong
    00002FC4 F1               [10] 8481 	pop	af
    00002FC5 F1               [10] 8482 	pop	af
    00002FC6 C1               [10] 8483 	pop	bc
    00002FC7 7B               [ 4] 8484 	ld	a, e
    00002FC8 DD 86 FA         [19] 8485 	add	a, -6 (ix)
    00002FCB 5F               [ 4] 8486 	ld	e, a
    00002FCC 7A               [ 4] 8487 	ld	a, d
    00002FCD DD 8E FB         [19] 8488 	adc	a, -5 (ix)
    00002FD0 57               [ 4] 8489 	ld	d, a
    00002FD1 7D               [ 4] 8490 	ld	a, l
    00002FD2 DD 8E FC         [19] 8491 	adc	a, -4 (ix)
    00002FD5 6F               [ 4] 8492 	ld	l, a
                                   8493 ;	spillPairReg hl
                                   8494 ;	spillPairReg hl
    00002FD6 7C               [ 4] 8495 	ld	a, h
    00002FD7 DD 8E FD         [19] 8496 	adc	a, -3 (ix)
    00002FDA 67               [ 4] 8497 	ld	h, a
                                   8498 ;	spillPairReg hl
                                   8499 ;	spillPairReg hl
    00002FDB DD 73 FA         [19] 8500 	ld	-6 (ix), e
    00002FDE DD 72 FB         [19] 8501 	ld	-5 (ix), d
    00002FE1 DD 75 FC         [19] 8502 	ld	-4 (ix), l
    00002FE4 DD 74 FD         [19] 8503 	ld	-3 (ix), h
                                   8504 ;E:\Dropbox\FAUSTO\SVILUPPI\MSX\CODE\C\MSXgl\projects\exsoccer/exsoccer_s2_b0.c:1487: if (dot <= 0) continue; 
    00002FE7 AF               [ 4] 8505 	xor	a, a
    00002FE8 DD BE FA         [19] 8506 	cp	a, -6 (ix)
    00002FEB DD 9E FB         [19] 8507 	sbc	a, -5 (ix)
    00002FEE 3E 00            [ 7] 8508 	ld	a, #0x00
    00002FF0 DD 9E FC         [19] 8509 	sbc	a, -4 (ix)
    00002FF3 3E 00            [ 7] 8510 	ld	a, #0x00
    00002FF5 DD 9E FD         [19] 8511 	sbc	a, -3 (ix)
    00002FF8 E2rFDr2F         [10] 8512 	jp	PO, 00304$
    00002FFB EE 80            [ 7] 8513 	xor	a, #0x80
    00002FFD                       8514 00304$:
    00002FFD F2r80r30         [10] 8515 	jp	P, 00152$
                                   8516 ;E:\Dropbox\FAUSTO\SVILUPPI\MSX\CODE\C\MSXgl\projects\exsoccer/exsoccer_s2_b0.c:1492: score = dot - ((i32)(adx + ady) * 40); 
    00003000 DD 6E F0         [19] 8517 	ld	l, -16 (ix)
    00003003 DD 66 F1         [19] 8518 	ld	h, -15 (ix)
    00003006 09               [11] 8519 	add	hl, bc
    00003007 EB               [ 4] 8520 	ex	de, hl
    00003008 21 28 00         [10] 8521 	ld	hl, #0x0028
    0000300B CDr00r00         [17] 8522 	call	___mulsint2slong
    0000300E DD 73 F2         [19] 8523 	ld	-14 (ix), e
    00003011 DD 72 F3         [19] 8524 	ld	-13 (ix), d
    00003014 DD 75 F4         [19] 8525 	ld	-12 (ix), l
    00003017 DD 74 F5         [19] 8526 	ld	-11 (ix), h
    0000301A DD 7E FA         [19] 8527 	ld	a, -6 (ix)
    0000301D DD 96 F2         [19] 8528 	sub	a, -14 (ix)
    00003020 DD 77 F6         [19] 8529 	ld	-10 (ix), a
    00003023 DD 7E FB         [19] 8530 	ld	a, -5 (ix)
    00003026 DD 9E F3         [19] 8531 	sbc	a, -13 (ix)
    00003029 DD 77 F7         [19] 8532 	ld	-9 (ix), a
    0000302C DD 7E FC         [19] 8533 	ld	a, -4 (ix)
    0000302F DD 9E F4         [19] 8534 	sbc	a, -12 (ix)
    00003032 DD 77 F8         [19] 8535 	ld	-8 (ix), a
    00003035 DD 7E FD         [19] 8536 	ld	a, -3 (ix)
    00003038 DD 9E F5         [19] 8537 	sbc	a, -11 (ix)
    0000303B DD 77 F9         [19] 8538 	ld	-7 (ix), a
    0000303E 21 1A 00         [10] 8539 	ld	hl, #26
    00003041 39               [11] 8540 	add	hl, sp
    00003042 EB               [ 4] 8541 	ex	de, hl
    00003043 21 16 00         [10] 8542 	ld	hl, #22
    00003046 39               [11] 8543 	add	hl, sp
    00003047 01 04 00         [10] 8544 	ld	bc, #4
    0000304A ED B0            [21] 8545 	ldir
                                   8546 ;E:\Dropbox\FAUSTO\SVILUPPI\MSX\CODE\C\MSXgl\projects\exsoccer/exsoccer_s2_b0.c:1494: if (score > bestScore) {
    0000304C DD 7E E1         [19] 8547 	ld	a, -31 (ix)
    0000304F DD 96 FA         [19] 8548 	sub	a, -6 (ix)
    00003052 DD 7E E2         [19] 8549 	ld	a, -30 (ix)
    00003055 DD 9E FB         [19] 8550 	sbc	a, -5 (ix)
    00003058 DD 7E E3         [19] 8551 	ld	a, -29 (ix)
    0000305B DD 9E FC         [19] 8552 	sbc	a, -4 (ix)
    0000305E DD 7E E4         [19] 8553 	ld	a, -28 (ix)
    00003061 DD 9E FD         [19] 8554 	sbc	a, -3 (ix)
    00003064 E2r69r30         [10] 8555 	jp	PO, 00305$
    00003067 EE 80            [ 7] 8556 	xor	a, #0x80
    00003069                       8557 00305$:
    00003069 F2r80r30         [10] 8558 	jp	P, 00152$
                                   8559 ;E:\Dropbox\FAUSTO\SVILUPPI\MSX\CODE\C\MSXgl\projects\exsoccer/exsoccer_s2_b0.c:1495: bestScore = score;
    0000306C 21 01 00         [10] 8560 	ld	hl, #1
    0000306F 39               [11] 8561 	add	hl, sp
    00003070 EB               [ 4] 8562 	ex	de, hl
    00003071 21 1A 00         [10] 8563 	ld	hl, #26
    00003074 39               [11] 8564 	add	hl, sp
    00003075 01 04 00         [10] 8565 	ld	bc, #4
    00003078 ED B0            [21] 8566 	ldir
                                   8567 ;E:\Dropbox\FAUSTO\SVILUPPI\MSX\CODE\C\MSXgl\projects\exsoccer/exsoccer_s2_b0.c:1496: bestTarget = i;
    0000307A DD 7E FF         [19] 8568 	ld	a, -1 (ix)
    0000307D DD 77 E0         [19] 8569 	ld	-32 (ix), a
    00003080                       8570 00152$:
                                   8571 ;E:\Dropbox\FAUSTO\SVILUPPI\MSX\CODE\C\MSXgl\projects\exsoccer/exsoccer_s2_b0.c:1454: for(i=0; i<14; i++) {
    00003080 DD 34 FF         [23] 8572 	inc	-1 (ix)
    00003083 DD 7E FF         [19] 8573 	ld	a, -1 (ix)
    00003086 D6 0E            [ 7] 8574 	sub	a, #0x0e
    00003088 DArCDr2D         [10] 8575 	jp	C, 00154$
                                   8576 ;E:\Dropbox\FAUSTO\SVILUPPI\MSX\CODE\C\MSXgl\projects\exsoccer/exsoccer_s2_b0.c:1499: return bestTarget;
    0000308B DD 7E E0         [19] 8577 	ld	a, -32 (ix)
                                   8578 ;E:\Dropbox\FAUSTO\SVILUPPI\MSX\CODE\C\MSXgl\projects\exsoccer/exsoccer_s2_b0.c:1500: }
    0000308E DD F9            [10] 8579 	ld	sp, ix
    00003090 DD E1            [14] 8580 	pop	ix
    00003092 C9               [10] 8581 	ret
                                   8582 ;E:\Dropbox\FAUSTO\SVILUPPI\MSX\CODE\C\MSXgl\projects\exsoccer/exsoccer_s2_b0.c:1502: void UpdatePassTarget() {
                                   8583 ;	---------------------------------
                                   8584 ; Function UpdatePassTarget
                                   8585 ; ---------------------------------
    00003093                       8586 _UpdatePassTarget::
                                   8587 ;E:\Dropbox\FAUSTO\SVILUPPI\MSX\CODE\C\MSXgl\projects\exsoccer/exsoccer_s2_b0.c:1504: u8 carrier = g_Ball.PossessionPlayerId;
    00003093 3Ar06r00         [13] 8588 	ld	a, (#_g_Ball + 6)
    00003096 4F               [ 4] 8589 	ld	c, a
                                   8590 ;E:\Dropbox\FAUSTO\SVILUPPI\MSX\CODE\C\MSXgl\projects\exsoccer/exsoccer_s2_b0.c:1506: if (g_Ball.PossessionPlayerId == NO_VALUE) {
    00003097 3C               [ 4] 8591 	inc	a
    00003098 20 06            [12] 8592 	jr	NZ, 00102$
                                   8593 ;E:\Dropbox\FAUSTO\SVILUPPI\MSX\CODE\C\MSXgl\projects\exsoccer/exsoccer_s2_b0.c:1507: g_PassTargetPlayer = NO_VALUE;
    0000309A 21r00r00         [10] 8594 	ld	hl, #_g_PassTargetPlayer
    0000309D 36 FF            [10] 8595 	ld	(hl), #0xff
                                   8596 ;E:\Dropbox\FAUSTO\SVILUPPI\MSX\CODE\C\MSXgl\projects\exsoccer/exsoccer_s2_b0.c:1508: return;
    0000309F C9               [10] 8597 	ret
    000030A0                       8598 00102$:
                                   8599 ;E:\Dropbox\FAUSTO\SVILUPPI\MSX\CODE\C\MSXgl\projects\exsoccer/exsoccer_s2_b0.c:1512: passUpdateTimer++;
    000030A0 21r06r00         [10] 8600 	ld	hl, #_UpdatePassTarget_passUpdateTimer_65536_1454
    000030A3 34               [11] 8601 	inc	(hl)
                                   8602 ;E:\Dropbox\FAUSTO\SVILUPPI\MSX\CODE\C\MSXgl\projects\exsoccer/exsoccer_s2_b0.c:1513: if (passUpdateTimer < 8) return;
    000030A4 3Ar06r00         [13] 8603 	ld	a, (_UpdatePassTarget_passUpdateTimer_65536_1454+0)
    000030A7 D6 08            [ 7] 8604 	sub	a, #0x08
    000030A9 D8               [11] 8605 	ret	C
                                   8606 ;E:\Dropbox\FAUSTO\SVILUPPI\MSX\CODE\C\MSXgl\projects\exsoccer/exsoccer_s2_b0.c:1514: passUpdateTimer = 0;
    000030AA 21r06r00         [10] 8607 	ld	hl, #_UpdatePassTarget_passUpdateTimer_65536_1454
    000030AD 36 00            [10] 8608 	ld	(hl), #0x00
                                   8609 ;E:\Dropbox\FAUSTO\SVILUPPI\MSX\CODE\C\MSXgl\projects\exsoccer/exsoccer_s2_b0.c:1516: if (carrier != NO_VALUE) {
    000030AF 79               [ 4] 8610 	ld	a, c
    000030B0 3C               [ 4] 8611 	inc	a
    000030B1 28 08            [12] 8612 	jr	Z, 00108$
                                   8613 ;E:\Dropbox\FAUSTO\SVILUPPI\MSX\CODE\C\MSXgl\projects\exsoccer/exsoccer_s2_b0.c:1517: g_PassTargetPlayer = GetBestPassTarget(carrier);
    000030B3 79               [ 4] 8614 	ld	a, c
    000030B4 CDr95r2C         [17] 8615 	call	_GetBestPassTarget
    000030B7 32r00r00         [13] 8616 	ld	(_g_PassTargetPlayer+0), a
    000030BA C9               [10] 8617 	ret
    000030BB                       8618 00108$:
                                   8619 ;E:\Dropbox\FAUSTO\SVILUPPI\MSX\CODE\C\MSXgl\projects\exsoccer/exsoccer_s2_b0.c:1519: if (g_Ball.PassTargetPlayerId == NO_VALUE) g_PassTargetPlayer = NO_VALUE;
    000030BB 3Ar10r00         [13] 8620 	ld	a, (#_g_Ball + 16)
    000030BE 3C               [ 4] 8621 	inc	a
    000030BF C0               [11] 8622 	ret	NZ
    000030C0 21r00r00         [10] 8623 	ld	hl, #_g_PassTargetPlayer
    000030C3 36 FF            [10] 8624 	ld	(hl), #0xff
                                   8625 ;E:\Dropbox\FAUSTO\SVILUPPI\MSX\CODE\C\MSXgl\projects\exsoccer/exsoccer_s2_b0.c:1521: }
    000030C5 C9               [10] 8626 	ret
                                   8627 ;E:\Dropbox\FAUSTO\SVILUPPI\MSX\CODE\C\MSXgl\projects\exsoccer/exsoccer_s2_b0.c:1531: void GoalkeeperWithBall(u8 teamId, bool isSteal) {
                                   8628 ;	---------------------------------
                                   8629 ; Function GoalkeeperWithBall
                                   8630 ; ---------------------------------
    000030C6                       8631 _GoalkeeperWithBall::
    000030C6 DD E5            [15] 8632 	push	ix
    000030C8 DD 21 00 00      [14] 8633 	ld	ix,#0
    000030CC DD 39            [15] 8634 	add	ix,sp
    000030CE F5               [11] 8635 	push	af
    000030CF F5               [11] 8636 	push	af
    000030D0 3B               [ 6] 8637 	dec	sp
    000030D1 4F               [ 4] 8638 	ld	c, a
    000030D2 DD 75 FF         [19] 8639 	ld	-1 (ix), l
                                   8640 ;E:\Dropbox\FAUSTO\SVILUPPI\MSX\CODE\C\MSXgl\projects\exsoccer/exsoccer_s2_b0.c:1532: u8 gkId = GetPlayerIdByRole(teamId, PLAYER_ROLE_GOALKEEPER);
    000030D5 C5               [11] 8641 	push	bc
    000030D6 2E 00            [ 7] 8642 	ld	l, #0x00
                                   8643 ;	spillPairReg hl
                                   8644 ;	spillPairReg hl
    000030D8 79               [ 4] 8645 	ld	a, c
    000030D9 CDrE2r18         [17] 8646 	call	_GetPlayerIdByRole
    000030DC C1               [10] 8647 	pop	bc
                                   8648 ;E:\Dropbox\FAUSTO\SVILUPPI\MSX\CODE\C\MSXgl\projects\exsoccer/exsoccer_s2_b0.c:1533: if(gkId == NO_VALUE) return;
    000030DD DD 77 FB         [19] 8649 	ld	-5 (ix), a
    000030E0 3C               [ 4] 8650 	inc	a
    000030E1 CAr96r31         [10] 8651 	jp	Z,00116$
    000030E4 C3rE7r30         [10] 8652 	jp	00102$
    000030E7                       8653 00102$:
                                   8654 ;E:\Dropbox\FAUSTO\SVILUPPI\MSX\CODE\C\MSXgl\projects\exsoccer/exsoccer_s2_b0.c:1535: s_GkAnimPlayerId = gkId;
    000030E7 DD 7E FB         [19] 8655 	ld	a, -5 (ix)
    000030EA 32r01r00         [13] 8656 	ld	(_s_GkAnimPlayerId+0), a
                                   8657 ;E:\Dropbox\FAUSTO\SVILUPPI\MSX\CODE\C\MSXgl\projects\exsoccer/exsoccer_s2_b0.c:1536: s_GkAnimTimer = 0;
    000030ED 21r00r00         [10] 8658 	ld	hl, #_s_GkAnimTimer
    000030F0 36 00            [10] 8659 	ld	(hl), #0x00
                                   8660 ;E:\Dropbox\FAUSTO\SVILUPPI\MSX\CODE\C\MSXgl\projects\exsoccer/exsoccer_s2_b0.c:1539: if (teamId == TEAM_1) g_Players[gkId].PatternId = PLAYER_POSE_TEAM1_GK_BALL_FRONT;
    000030F2 DD 5E FB         [19] 8661 	ld	e, -5 (ix)
    000030F5 16 00            [ 7] 8662 	ld	d, #0x00
    000030F7 6B               [ 4] 8663 	ld	l, e
    000030F8 62               [ 4] 8664 	ld	h, d
    000030F9 29               [11] 8665 	add	hl, hl
    000030FA 29               [11] 8666 	add	hl, hl
    000030FB 29               [11] 8667 	add	hl, hl
    000030FC 29               [11] 8668 	add	hl, hl
    000030FD 19               [11] 8669 	add	hl, de
    000030FE EB               [ 4] 8670 	ex	de, hl
    000030FF 79               [ 4] 8671 	ld	a, c
    00003100 3D               [ 4] 8672 	dec	a
    00003101 20 0C            [12] 8673 	jr	NZ, 00104$
    00003103 21r01r00         [10] 8674 	ld	hl,#_g_Players+0 + 1
    00003106 19               [11] 8675 	add	hl,de
    00003107 23               [ 6] 8676 	inc	hl
    00003108 23               [ 6] 8677 	inc	hl
    00003109 23               [ 6] 8678 	inc	hl
    0000310A 36 9B            [10] 8679 	ld	(hl), #0x9b
    0000310C C3r18r31         [10] 8680 	jp	00105$
    0000310F                       8681 00104$:
                                   8682 ;E:\Dropbox\FAUSTO\SVILUPPI\MSX\CODE\C\MSXgl\projects\exsoccer/exsoccer_s2_b0.c:1540: else g_Players[gkId].PatternId = PLAYER_POSE_TEAM2_GK_BALL_FRONT;
    0000310F 21r01r00         [10] 8683 	ld	hl,#_g_Players+0 + 1
    00003112 19               [11] 8684 	add	hl,de
    00003113 23               [ 6] 8685 	inc	hl
    00003114 23               [ 6] 8686 	inc	hl
    00003115 23               [ 6] 8687 	inc	hl
    00003116 36 3D            [10] 8688 	ld	(hl), #0x3d
    00003118                       8689 00105$:
                                   8690 ;E:\Dropbox\FAUSTO\SVILUPPI\MSX\CODE\C\MSXgl\projects\exsoccer/exsoccer_s2_b0.c:1543: g_Players[gkId].Status = PLAYER_STATUS_POSITIONED;
    00003118 21r00r00         [10] 8691 	ld	hl, #_g_Players
    0000311B 19               [11] 8692 	add	hl, de
    0000311C DD 75 FD         [19] 8693 	ld	-3 (ix), l
    0000311F DD 74 FE         [19] 8694 	ld	-2 (ix), h
    00003122 11 0E 00         [10] 8695 	ld	de, #0x000e
    00003125 19               [11] 8696 	add	hl, de
    00003126 36 04            [10] 8697 	ld	(hl), #0x04
    00003128 23               [ 6] 8698 	inc	hl
    00003129 36 00            [10] 8699 	ld	(hl), #0x00
                                   8700 ;E:\Dropbox\FAUSTO\SVILUPPI\MSX\CODE\C\MSXgl\projects\exsoccer/exsoccer_s2_b0.c:1547: bool closeToLine = false;
    0000312B DD 36 FC 00      [19] 8701 	ld	-4 (ix), #0x00
                                   8702 ;E:\Dropbox\FAUSTO\SVILUPPI\MSX\CODE\C\MSXgl\projects\exsoccer/exsoccer_s2_b0.c:1548: if (teamId == TEAM_2) { // GK 2 (Top)
    0000312F 79               [ 4] 8703 	ld	a, c
    00003130 D6 02            [ 7] 8704 	sub	a, #0x02
    00003132 20 1D            [12] 8705 	jr	NZ, 00111$
                                   8706 ;E:\Dropbox\FAUSTO\SVILUPPI\MSX\CODE\C\MSXgl\projects\exsoccer/exsoccer_s2_b0.c:1549: s_GkRecoilY = -1;
    00003134 21r02r00         [10] 8707 	ld	hl, #_s_GkRecoilY
    00003137 36 FF            [10] 8708 	ld	(hl), #0xff
                                   8709 ;E:\Dropbox\FAUSTO\SVILUPPI\MSX\CODE\C\MSXgl\projects\exsoccer/exsoccer_s2_b0.c:1550: if (g_Players[gkId].Y <= FIELD_BOUND_Y_TOP + 4) closeToLine = true;
    00003139 DD 6E FD         [19] 8710 	ld	l, -3 (ix)
    0000313C DD 66 FE         [19] 8711 	ld	h, -2 (ix)
    0000313F 4E               [ 7] 8712 	ld	c, (hl)
    00003140 23               [ 6] 8713 	inc	hl
    00003141 46               [ 7] 8714 	ld	b, (hl)
    00003142 3E 36            [ 7] 8715 	ld	a, #0x36
    00003144 B9               [ 4] 8716 	cp	a, c
    00003145 3E 00            [ 7] 8717 	ld	a, #0x00
    00003147 98               [ 4] 8718 	sbc	a, b
    00003148 38 2B            [12] 8719 	jr	C, 00112$
    0000314A DD 36 FC 01      [19] 8720 	ld	-4 (ix), #0x01
    0000314E C3r75r31         [10] 8721 	jp	00112$
    00003151                       8722 00111$:
                                   8723 ;E:\Dropbox\FAUSTO\SVILUPPI\MSX\CODE\C\MSXgl\projects\exsoccer/exsoccer_s2_b0.c:1552: s_GkRecoilY = 1;
    00003151 21r02r00         [10] 8724 	ld	hl, #_s_GkRecoilY
    00003154 36 01            [10] 8725 	ld	(hl), #0x01
                                   8726 ;E:\Dropbox\FAUSTO\SVILUPPI\MSX\CODE\C\MSXgl\projects\exsoccer/exsoccer_s2_b0.c:1553: if (g_Players[gkId].Y >= FIELD_BOUND_Y_BOTTOM - 4) closeToLine = true;
    00003156 DD 6E FD         [19] 8727 	ld	l, -3 (ix)
    00003159 DD 66 FE         [19] 8728 	ld	h, -2 (ix)
    0000315C 7E               [ 7] 8729 	ld	a, (hl)
    0000315D DD 77 FD         [19] 8730 	ld	-3 (ix), a
    00003160 23               [ 6] 8731 	inc	hl
    00003161 7E               [ 7] 8732 	ld	a, (hl)
    00003162 DD 77 FE         [19] 8733 	ld	-2 (ix), a
    00003165 DD 7E FD         [19] 8734 	ld	a, -3 (ix)
    00003168 D6 AA            [ 7] 8735 	sub	a, #0xaa
    0000316A DD 7E FE         [19] 8736 	ld	a, -2 (ix)
    0000316D DE 01            [ 7] 8737 	sbc	a, #0x01
    0000316F 38 04            [12] 8738 	jr	C, 00112$
    00003171 DD 36 FC 01      [19] 8739 	ld	-4 (ix), #0x01
    00003175                       8740 00112$:
                                   8741 ;E:\Dropbox\FAUSTO\SVILUPPI\MSX\CODE\C\MSXgl\projects\exsoccer/exsoccer_s2_b0.c:1556: if (closeToLine || isSteal) s_GkRecoilY = 0; // No recoil for Steals
    00003175 DD 7E FC         [19] 8742 	ld	a, -4 (ix)
    00003178 B7               [ 4] 8743 	or	a, a
    00003179 20 06            [12] 8744 	jr	NZ, 00113$
    0000317B DD 7E FF         [19] 8745 	ld	a, -1 (ix)
    0000317E B7               [ 4] 8746 	or	a, a
    0000317F 28 05            [12] 8747 	jr	Z, 00114$
    00003181                       8748 00113$:
    00003181 21r02r00         [10] 8749 	ld	hl, #_s_GkRecoilY
    00003184 36 00            [10] 8750 	ld	(hl), #0x00
    00003186                       8751 00114$:
                                   8752 ;E:\Dropbox\FAUSTO\SVILUPPI\MSX\CODE\C\MSXgl\projects\exsoccer/exsoccer_s2_b0.c:1559: SetPlayerBallPossession(gkId);
    00003186 DD 7E FB         [19] 8753 	ld	a, -5 (ix)
    00003189 CDr00r00         [17] 8754 	call	_SetPlayerBallPossession
                                   8755 ;E:\Dropbox\FAUSTO\SVILUPPI\MSX\CODE\C\MSXgl\projects\exsoccer/exsoccer_s2_b0.c:1560: g_Ball.ShotActive = 0;
    0000318C 21r1Br00         [10] 8756 	ld	hl, #(_g_Ball + 27)
    0000318F 36 00            [10] 8757 	ld	(hl), #0x00
                                   8758 ;E:\Dropbox\FAUSTO\SVILUPPI\MSX\CODE\C\MSXgl\projects\exsoccer/exsoccer_s2_b0.c:1562: g_MatchStatus = MATCH_BALL_ON_GOALKEEPER;
    00003191 21r00r00         [10] 8759 	ld	hl, #_g_MatchStatus
    00003194 36 0D            [10] 8760 	ld	(hl), #0x0d
    00003196                       8761 00116$:
                                   8762 ;E:\Dropbox\FAUSTO\SVILUPPI\MSX\CODE\C\MSXgl\projects\exsoccer/exsoccer_s2_b0.c:1563: }
    00003196 DD F9            [10] 8763 	ld	sp, ix
    00003198 DD E1            [14] 8764 	pop	ix
    0000319A C9               [10] 8765 	ret
                                   8766 ;E:\Dropbox\FAUSTO\SVILUPPI\MSX\CODE\C\MSXgl\projects\exsoccer/exsoccer_s2_b0.c:1565: void TickGoalkeeperAnimation() {
                                   8767 ;	---------------------------------
                                   8768 ; Function TickGoalkeeperAnimation
                                   8769 ; ---------------------------------
    0000319B                       8770 _TickGoalkeeperAnimation::
    0000319B DD E5            [15] 8771 	push	ix
    0000319D DD 21 00 00      [14] 8772 	ld	ix,#0
    000031A1 DD 39            [15] 8773 	add	ix,sp
    000031A3 3B               [ 6] 8774 	dec	sp
                                   8775 ;E:\Dropbox\FAUSTO\SVILUPPI\MSX\CODE\C\MSXgl\projects\exsoccer/exsoccer_s2_b0.c:1566: if (g_MatchStatus != MATCH_BALL_ON_GOALKEEPER) return;
    000031A4 3Ar00r00         [13] 8776 	ld	a, (_g_MatchStatus+0)
    000031A7 D6 0D            [ 7] 8777 	sub	a, #0x0d
    000031A9 C2rB8r33         [10] 8778 	jp	NZ,00148$
                                   8779 ;E:\Dropbox\FAUSTO\SVILUPPI\MSX\CODE\C\MSXgl\projects\exsoccer/exsoccer_s2_b0.c:1567: if (s_GkAnimPlayerId == NO_VALUE) return;
    000031AC 3Ar01r00         [13] 8780 	ld	a, (_s_GkAnimPlayerId+0)
    000031AF 3C               [ 4] 8781 	inc	a
    000031B0 CArB8r33         [10] 8782 	jp	Z,00148$
    000031B3 C3rB6r31         [10] 8783 	jp	00104$
    000031B6                       8784 00104$:
                                   8785 ;E:\Dropbox\FAUSTO\SVILUPPI\MSX\CODE\C\MSXgl\projects\exsoccer/exsoccer_s2_b0.c:1569: s_GkAnimTimer++;
    000031B6 FD 21r00r00      [14] 8786 	ld	iy, #_s_GkAnimTimer
    000031BA FD 34 00         [23] 8787 	inc	0 (iy)
                                   8788 ;E:\Dropbox\FAUSTO\SVILUPPI\MSX\CODE\C\MSXgl\projects\exsoccer/exsoccer_s2_b0.c:1571: u8 kickTime = 30; // Default kick time (Animation end)
    000031BD 0E 1E            [ 7] 8789 	ld	c, #0x1e
                                   8790 ;E:\Dropbox\FAUSTO\SVILUPPI\MSX\CODE\C\MSXgl\projects\exsoccer/exsoccer_s2_b0.c:1572: if (s_GkRecoilY == 0) kickTime = 60; // 1 Second delay for steals/no-recoil
    000031BF 3Ar02r00         [13] 8791 	ld	a, (_s_GkRecoilY+0)
    000031C2 B7               [ 4] 8792 	or	a, a
    000031C3 20 02            [12] 8793 	jr	NZ, 00106$
    000031C5 0E 3C            [ 7] 8794 	ld	c, #0x3c
    000031C7                       8795 00106$:
                                   8796 ;E:\Dropbox\FAUSTO\SVILUPPI\MSX\CODE\C\MSXgl\projects\exsoccer/exsoccer_s2_b0.c:1575: if (s_GkAnimTimer < kickTime) {
                                   8797 ;E:\Dropbox\FAUSTO\SVILUPPI\MSX\CODE\C\MSXgl\projects\exsoccer/exsoccer_s2_b0.c:1576: if (s_GkAnimTimer < 30 && (s_GkAnimTimer % 8) == 0 && s_GkRecoilY != 0) { // Slow movement
    000031C7 3Ar00r00         [13] 8798 	ld	a,(_s_GkAnimTimer+0)
    000031CA B9               [ 4] 8799 	cp	a,c
    000031CB D2r9Ar32         [10] 8800 	jp	NC,00146$
    000031CE FE 1E            [ 7] 8801 	cp	a,#0x1e
    000031D0 D2r6Br32         [10] 8802 	jp	NC,00112$
    000031D3 E6 07            [ 7] 8803 	and	a, #0x07
    000031D5 C2r6Br32         [10] 8804 	jp	NZ,00112$
    000031D8 3Ar02r00         [13] 8805 	ld	a, (_s_GkRecoilY+0)
    000031DB B7               [ 4] 8806 	or	a, a
    000031DC CAr6Br32         [10] 8807 	jp	Z, 00112$
                                   8808 ;E:\Dropbox\FAUSTO\SVILUPPI\MSX\CODE\C\MSXgl\projects\exsoccer/exsoccer_s2_b0.c:1577: g_Players[s_GkAnimPlayerId].Y += s_GkRecoilY;
    000031DF 01r00r00         [10] 8809 	ld	bc, #_g_Players+0
    000031E2 ED 5Br01r00      [20] 8810 	ld	de, (_s_GkAnimPlayerId)
    000031E6 16 00            [ 7] 8811 	ld	d, #0x00
    000031E8 6B               [ 4] 8812 	ld	l, e
    000031E9 62               [ 4] 8813 	ld	h, d
    000031EA 29               [11] 8814 	add	hl, hl
    000031EB 29               [11] 8815 	add	hl, hl
    000031EC 29               [11] 8816 	add	hl, hl
    000031ED 29               [11] 8817 	add	hl, hl
    000031EE 19               [11] 8818 	add	hl, de
    000031EF 09               [11] 8819 	add	hl, bc
    000031F0 5E               [ 7] 8820 	ld	e, (hl)
    000031F1 23               [ 6] 8821 	inc	hl
    000031F2 56               [ 7] 8822 	ld	d, (hl)
    000031F3 2B               [ 6] 8823 	dec	hl
    000031F4 3Ar02r00         [13] 8824 	ld	a, (_s_GkRecoilY+0)
    000031F7 FD E5            [15] 8825 	push	iy
    000031F9 DD 77 FD         [19] 8826 	ld	-3 (ix), a
    000031FC FD E1            [14] 8827 	pop	iy
    000031FE 07               [ 4] 8828 	rlca
    000031FF 9F               [ 4] 8829 	sbc	a, a
    00003200 FD E5            [15] 8830 	push	iy
    00003202 DD 77 FE         [19] 8831 	ld	-2 (ix), a
    00003205 FD E1            [14] 8832 	pop	iy
    00003207 FD 19            [15] 8833 	add	iy, de
    00003209 FD E5            [15] 8834 	push	iy
    0000320B D1               [10] 8835 	pop	de
    0000320C 73               [ 7] 8836 	ld	(hl), e
    0000320D 23               [ 6] 8837 	inc	hl
    0000320E 72               [ 7] 8838 	ld	(hl), d
                                   8839 ;E:\Dropbox\FAUSTO\SVILUPPI\MSX\CODE\C\MSXgl\projects\exsoccer/exsoccer_s2_b0.c:1580: if(g_Players[s_GkAnimPlayerId].Y < FIELD_BOUND_Y_TOP) g_Players[s_GkAnimPlayerId].Y = FIELD_BOUND_Y_TOP;
    0000320F ED 5Br01r00      [20] 8840 	ld	de, (_s_GkAnimPlayerId)
    00003213 16 00            [ 7] 8841 	ld	d, #0x00
    00003215 6B               [ 4] 8842 	ld	l, e
    00003216 62               [ 4] 8843 	ld	h, d
    00003217 29               [11] 8844 	add	hl, hl
    00003218 29               [11] 8845 	add	hl, hl
    00003219 29               [11] 8846 	add	hl, hl
    0000321A 29               [11] 8847 	add	hl, hl
    0000321B 19               [11] 8848 	add	hl, de
    0000321C 09               [11] 8849 	add	hl, bc
    0000321D 5E               [ 7] 8850 	ld	e, (hl)
    0000321E 23               [ 6] 8851 	inc	hl
    0000321F 56               [ 7] 8852 	ld	d, (hl)
    00003220 2B               [ 6] 8853 	dec	hl
    00003221 7B               [ 4] 8854 	ld	a, e
    00003222 D6 32            [ 7] 8855 	sub	a, #0x32
    00003224 7A               [ 4] 8856 	ld	a, d
    00003225 DE 00            [ 7] 8857 	sbc	a, #0x00
    00003227 30 05            [12] 8858 	jr	NC, 00108$
    00003229 36 32            [10] 8859 	ld	(hl), #0x32
    0000322B 23               [ 6] 8860 	inc	hl
    0000322C 36 00            [10] 8861 	ld	(hl), #0x00
    0000322E                       8862 00108$:
                                   8863 ;E:\Dropbox\FAUSTO\SVILUPPI\MSX\CODE\C\MSXgl\projects\exsoccer/exsoccer_s2_b0.c:1581: if(g_Players[s_GkAnimPlayerId].Y > FIELD_BOUND_Y_BOTTOM) g_Players[s_GkAnimPlayerId].Y = FIELD_BOUND_Y_BOTTOM;
    0000322E ED 5Br01r00      [20] 8864 	ld	de, (_s_GkAnimPlayerId)
    00003232 16 00            [ 7] 8865 	ld	d, #0x00
    00003234 6B               [ 4] 8866 	ld	l, e
    00003235 62               [ 4] 8867 	ld	h, d
    00003236 29               [11] 8868 	add	hl, hl
    00003237 29               [11] 8869 	add	hl, hl
    00003238 29               [11] 8870 	add	hl, hl
    00003239 29               [11] 8871 	add	hl, hl
    0000323A 19               [11] 8872 	add	hl, de
    0000323B 09               [11] 8873 	add	hl, bc
    0000323C 5E               [ 7] 8874 	ld	e, (hl)
    0000323D 23               [ 6] 8875 	inc	hl
    0000323E 56               [ 7] 8876 	ld	d, (hl)
    0000323F 2B               [ 6] 8877 	dec	hl
    00003240 3E AE            [ 7] 8878 	ld	a, #0xae
    00003242 BB               [ 4] 8879 	cp	a, e
    00003243 3E 01            [ 7] 8880 	ld	a, #0x01
    00003245 9A               [ 4] 8881 	sbc	a, d
    00003246 30 05            [12] 8882 	jr	NC, 00110$
    00003248 36 AE            [10] 8883 	ld	(hl), #0xae
    0000324A 23               [ 6] 8884 	inc	hl
    0000324B 36 01            [10] 8885 	ld	(hl), #0x01
    0000324D                       8886 00110$:
                                   8887 ;E:\Dropbox\FAUSTO\SVILUPPI\MSX\CODE\C\MSXgl\projects\exsoccer/exsoccer_s2_b0.c:1583: g_Players[s_GkAnimPlayerId].TargetY = g_Players[s_GkAnimPlayerId].Y; // Sync target
    0000324D ED 5Br01r00      [20] 8888 	ld	de, (_s_GkAnimPlayerId)
    00003251 16 00            [ 7] 8889 	ld	d, #0x00
    00003253 6B               [ 4] 8890 	ld	l, e
    00003254 62               [ 4] 8891 	ld	h, d
    00003255 29               [11] 8892 	add	hl, hl
    00003256 29               [11] 8893 	add	hl, hl
    00003257 29               [11] 8894 	add	hl, hl
    00003258 29               [11] 8895 	add	hl, hl
    00003259 19               [11] 8896 	add	hl, de
    0000325A 09               [11] 8897 	add	hl, bc
    0000325B 7D               [ 4] 8898 	ld	a, l
    0000325C C6 0A            [ 7] 8899 	add	a, #0x0a
    0000325E 4F               [ 4] 8900 	ld	c, a
    0000325F 7C               [ 4] 8901 	ld	a, h
    00003260 CE 00            [ 7] 8902 	adc	a, #0x00
    00003262 47               [ 4] 8903 	ld	b, a
    00003263 5E               [ 7] 8904 	ld	e, (hl)
    00003264 23               [ 6] 8905 	inc	hl
    00003265 56               [ 7] 8906 	ld	d, (hl)
    00003266 7B               [ 4] 8907 	ld	a, e
    00003267 02               [ 7] 8908 	ld	(bc), a
    00003268 03               [ 6] 8909 	inc	bc
    00003269 7A               [ 4] 8910 	ld	a, d
    0000326A 02               [ 7] 8911 	ld	(bc), a
    0000326B                       8912 00112$:
                                   8913 ;E:\Dropbox\FAUSTO\SVILUPPI\MSX\CODE\C\MSXgl\projects\exsoccer/exsoccer_s2_b0.c:1586: if (g_Players[s_GkAnimPlayerId].TeamId == TEAM_1) g_Players[s_GkAnimPlayerId].PatternId = PLAYER_POSE_TEAM1_GK_BALL_FRONT;
    0000326B 01r00r00         [10] 8914 	ld	bc, #_g_Players+0
    0000326E ED 5Br01r00      [20] 8915 	ld	de, (_s_GkAnimPlayerId)
    00003272 16 00            [ 7] 8916 	ld	d, #0x00
    00003274 6B               [ 4] 8917 	ld	l, e
    00003275 62               [ 4] 8918 	ld	h, d
    00003276 29               [11] 8919 	add	hl, hl
    00003277 29               [11] 8920 	add	hl, hl
    00003278 29               [11] 8921 	add	hl, hl
    00003279 29               [11] 8922 	add	hl, hl
    0000327A 19               [11] 8923 	add	hl, de
    0000327B 09               [11] 8924 	add	hl, bc
    0000327C EB               [ 4] 8925 	ex	de, hl
    0000327D D5               [11] 8926 	push	de
    0000327E FD E1            [14] 8927 	pop	iy
    00003280 FD 4E 05         [19] 8928 	ld	c, 5 (iy)
    00003283 21 04 00         [10] 8929 	ld	hl, #0x0004
    00003286 19               [11] 8930 	add	hl, de
    00003287 0D               [ 4] 8931 	dec	c
    00003288 20 05            [12] 8932 	jr	NZ, 00116$
    0000328A 36 9B            [10] 8933 	ld	(hl), #0x9b
    0000328C C3r91r32         [10] 8934 	jp	00117$
    0000328F                       8935 00116$:
                                   8936 ;E:\Dropbox\FAUSTO\SVILUPPI\MSX\CODE\C\MSXgl\projects\exsoccer/exsoccer_s2_b0.c:1587: else g_Players[s_GkAnimPlayerId].PatternId = PLAYER_POSE_TEAM2_GK_BALL_FRONT;
    0000328F 36 3D            [10] 8937 	ld	(hl), #0x3d
    00003291                       8938 00117$:
                                   8939 ;E:\Dropbox\FAUSTO\SVILUPPI\MSX\CODE\C\MSXgl\projects\exsoccer/exsoccer_s2_b0.c:1589: PutBallOnPlayerFeet(s_GkAnimPlayerId);
    00003291 3Ar01r00         [13] 8940 	ld	a, (_s_GkAnimPlayerId+0)
    00003294 CDr3Cr19         [17] 8941 	call	_PutBallOnPlayerFeet
    00003297 C3rB8r33         [10] 8942 	jp	00148$
    0000329A                       8943 00146$:
                                   8944 ;E:\Dropbox\FAUSTO\SVILUPPI\MSX\CODE\C\MSXgl\projects\exsoccer/exsoccer_s2_b0.c:1591: } else if (s_GkAnimTimer == kickTime) {
    0000329A 3Ar00r00         [13] 8945 	ld	a, (_s_GkAnimTimer+0)
    0000329D 91               [ 4] 8946 	sub	a, c
    0000329E C2r82r33         [10] 8947 	jp	NZ,00143$
                                   8948 ;E:\Dropbox\FAUSTO\SVILUPPI\MSX\CODE\C\MSXgl\projects\exsoccer/exsoccer_s2_b0.c:1593: u8 targetId = GetBestPassTarget(s_GkAnimPlayerId); 
    000032A1 3Ar01r00         [13] 8949 	ld	a, (_s_GkAnimPlayerId+0)
    000032A4 CDr95r2C         [17] 8950 	call	_GetBestPassTarget
                                   8951 ;E:\Dropbox\FAUSTO\SVILUPPI\MSX\CODE\C\MSXgl\projects\exsoccer/exsoccer_s2_b0.c:1595: if (targetId != NO_VALUE) {
    000032A7 4F               [ 4] 8952 	ld	c, a
    000032A8 3C               [ 4] 8953 	inc	a
    000032A9 28 63            [12] 8954 	jr	Z, 00138$
                                   8955 ;E:\Dropbox\FAUSTO\SVILUPPI\MSX\CODE\C\MSXgl\projects\exsoccer/exsoccer_s2_b0.c:1596: PerformPass(targetId);
    000032AB 79               [ 4] 8956 	ld	a, c
    000032AC CDr00r00         [17] 8957 	call	_PerformPass
                                   8958 ;E:\Dropbox\FAUSTO\SVILUPPI\MSX\CODE\C\MSXgl\projects\exsoccer/exsoccer_s2_b0.c:1599: u8 dir = g_Players[s_GkAnimPlayerId].Direction;
    000032AF ED 4Br01r00      [20] 8959 	ld	bc, (_s_GkAnimPlayerId)
    000032B3 06 00            [ 7] 8960 	ld	b, #0x00
    000032B5 69               [ 4] 8961 	ld	l, c
    000032B6 60               [ 4] 8962 	ld	h, b
    000032B7 29               [11] 8963 	add	hl, hl
    000032B8 29               [11] 8964 	add	hl, hl
    000032B9 29               [11] 8965 	add	hl, hl
    000032BA 29               [11] 8966 	add	hl, hl
    000032BB 09               [11] 8967 	add	hl, bc
    000032BC EB               [ 4] 8968 	ex	de, hl
    000032BD 21r00r00         [10] 8969 	ld	hl, #_g_Players
    000032C0 19               [11] 8970 	add	hl, de
    000032C1 EB               [ 4] 8971 	ex	de, hl
    000032C2 D5               [11] 8972 	push	de
    000032C3 FD E1            [14] 8973 	pop	iy
    000032C5 FD 7E 06         [19] 8974 	ld	a, 6 (iy)
                                   8975 ;E:\Dropbox\FAUSTO\SVILUPPI\MSX\CODE\C\MSXgl\projects\exsoccer/exsoccer_s2_b0.c:1603: if (dir == DIRECTION_RIGHT || dir == DIRECTION_UP_RIGHT || dir == DIRECTION_DOWN_RIGHT) 
    000032C8 FE 03            [ 7] 8976 	cp	a, #0x03
    000032CA 28 08            [12] 8977 	jr	Z, 00123$
    000032CC FE 02            [ 7] 8978 	cp	a, #0x02
    000032CE 28 04            [12] 8979 	jr	Z, 00123$
    000032D0 FE 04            [ 7] 8980 	cp	a, #0x04
    000032D2 20 05            [12] 8981 	jr	NZ, 00124$
    000032D4                       8982 00123$:
                                   8983 ;E:\Dropbox\FAUSTO\SVILUPPI\MSX\CODE\C\MSXgl\projects\exsoccer/exsoccer_s2_b0.c:1604: pose = (team == TEAM_1) ? PLAYER_POSE_TEAM1_RESTART_RIGHT : PLAYER_POSE_TEAM2_RESTART_RIGHT;
    000032D4 0E CB            [ 7] 8984 	ld	c, #0xcb
    000032D6 C3rECr32         [10] 8985 	jp	00125$
    000032D9                       8986 00124$:
                                   8987 ;E:\Dropbox\FAUSTO\SVILUPPI\MSX\CODE\C\MSXgl\projects\exsoccer/exsoccer_s2_b0.c:1605: else if (dir == DIRECTION_LEFT || dir == DIRECTION_UP_LEFT || dir == DIRECTION_DOWN_LEFT)
    000032D9 FE 07            [ 7] 8988 	cp	a, #0x07
    000032DB 28 08            [12] 8989 	jr	Z, 00118$
    000032DD FE 08            [ 7] 8990 	cp	a, #0x08
    000032DF 28 04            [12] 8991 	jr	Z, 00118$
    000032E1 D6 06            [ 7] 8992 	sub	a, #0x06
    000032E3 20 05            [12] 8993 	jr	NZ, 00119$
    000032E5                       8994 00118$:
                                   8995 ;E:\Dropbox\FAUSTO\SVILUPPI\MSX\CODE\C\MSXgl\projects\exsoccer/exsoccer_s2_b0.c:1606: pose = (team == TEAM_1) ? PLAYER_POSE_TEAM1_RESTART_LEFT : PLAYER_POSE_TEAM2_RESTART_LEFT;
    000032E5 0E 44            [ 7] 8996 	ld	c, #0x44
    000032E7 C3rECr32         [10] 8997 	jp	00125$
    000032EA                       8998 00119$:
                                   8999 ;E:\Dropbox\FAUSTO\SVILUPPI\MSX\CODE\C\MSXgl\projects\exsoccer/exsoccer_s2_b0.c:1608: pose = (team == TEAM_1) ? PLAYER_POSE_TEAM1_RESTART_FRONT : PLAYER_POSE_TEAM2_RESTART_FRONT;
    000032EA 0E 45            [ 7] 9000 	ld	c, #0x45
    000032EC                       9001 00125$:
                                   9002 ;E:\Dropbox\FAUSTO\SVILUPPI\MSX\CODE\C\MSXgl\projects\exsoccer/exsoccer_s2_b0.c:1610: g_Players[s_GkAnimPlayerId].PatternId = pose;
    000032EC 21 04 00         [10] 9003 	ld	hl, #0x0004
    000032EF 19               [11] 9004 	add	hl, de
    000032F0 71               [ 7] 9005 	ld	(hl), c
                                   9006 ;E:\Dropbox\FAUSTO\SVILUPPI\MSX\CODE\C\MSXgl\projects\exsoccer/exsoccer_s2_b0.c:1612: g_Players[s_GkAnimPlayerId].Status = PLAYER_STATUS_POSITIONED;
    000032F1 ED 4Br01r00      [20] 9007 	ld	bc, (_s_GkAnimPlayerId)
    000032F5 06 00            [ 7] 9008 	ld	b, #0x00
    000032F7 69               [ 4] 9009 	ld	l, c
    000032F8 60               [ 4] 9010 	ld	h, b
    000032F9 29               [11] 9011 	add	hl, hl
    000032FA 29               [11] 9012 	add	hl, hl
    000032FB 29               [11] 9013 	add	hl, hl
    000032FC 29               [11] 9014 	add	hl, hl
    000032FD 09               [11] 9015 	add	hl, bc
    000032FE 11r00r00         [10] 9016 	ld	de, #_g_Players
    00003301 19               [11] 9017 	add	hl, de
    00003302 01 0E 00         [10] 9018 	ld	bc, #0x000e
    00003305 09               [11] 9019 	add	hl, bc
    00003306 36 04            [10] 9020 	ld	(hl), #0x04
    00003308 23               [ 6] 9021 	inc	hl
    00003309 36 00            [10] 9022 	ld	(hl), #0x00
    0000330B C3rB8r33         [10] 9023 	jp	00148$
    0000330E                       9024 00138$:
                                   9025 ;E:\Dropbox\FAUSTO\SVILUPPI\MSX\CODE\C\MSXgl\projects\exsoccer/exsoccer_s2_b0.c:1615: u8 team = g_Players[s_GkAnimPlayerId].TeamId;
    0000330E 01r00r00         [10] 9026 	ld	bc, #_g_Players+0
    00003311 ED 5Br01r00      [20] 9027 	ld	de, (_s_GkAnimPlayerId)
    00003315 16 00            [ 7] 9028 	ld	d, #0x00
    00003317 6B               [ 4] 9029 	ld	l, e
    00003318 62               [ 4] 9030 	ld	h, d
    00003319 29               [11] 9031 	add	hl, hl
    0000331A 29               [11] 9032 	add	hl, hl
    0000331B 29               [11] 9033 	add	hl, hl
    0000331C 29               [11] 9034 	add	hl, hl
    0000331D 19               [11] 9035 	add	hl, de
    0000331E 09               [11] 9036 	add	hl, bc
    0000331F EB               [ 4] 9037 	ex	de, hl
    00003320 D5               [11] 9038 	push	de
    00003321 FD E1            [14] 9039 	pop	iy
    00003323 FD 7E 05         [19] 9040 	ld	a, 5 (iy)
    00003326 DD 77 FF         [19] 9041 	ld	-1 (ix), a
                                   9042 ;E:\Dropbox\FAUSTO\SVILUPPI\MSX\CODE\C\MSXgl\projects\exsoccer/exsoccer_s2_b0.c:1617: g_Players[s_GkAnimPlayerId].PatternId = pose;
    00003329 21 04 00         [10] 9043 	ld	hl, #0x0004
    0000332C 19               [11] 9044 	add	hl, de
    0000332D 36 45            [10] 9045 	ld	(hl), #0x45
                                   9046 ;E:\Dropbox\FAUSTO\SVILUPPI\MSX\CODE\C\MSXgl\projects\exsoccer/exsoccer_s2_b0.c:1620: u16 tx = g_Players[s_GkAnimPlayerId].X;
    0000332F ED 5Br01r00      [20] 9047 	ld	de, (_s_GkAnimPlayerId)
    00003333 16 00            [ 7] 9048 	ld	d, #0x00
    00003335 6B               [ 4] 9049 	ld	l, e
    00003336 62               [ 4] 9050 	ld	h, d
    00003337 29               [11] 9051 	add	hl, hl
    00003338 29               [11] 9052 	add	hl, hl
    00003339 29               [11] 9053 	add	hl, hl
    0000333A 29               [11] 9054 	add	hl, hl
    0000333B 19               [11] 9055 	add	hl, de
    0000333C 09               [11] 9056 	add	hl, bc
                                   9057 ;	spillPairReg hl
                                   9058 ;	spillPairReg hl
    0000333D 5D               [ 4] 9059 	ld	e, l
    0000333E 54               [ 4] 9060 	ld	d, h
                                   9061 ;	spillPairReg hl
                                   9062 ;	spillPairReg hl
    0000333F 23               [ 6] 9063 	inc	hl
    00003340 23               [ 6] 9064 	inc	hl
    00003341 4E               [ 7] 9065 	ld	c, (hl)
    00003342 23               [ 6] 9066 	inc	hl
    00003343 46               [ 7] 9067 	ld	b, (hl)
                                   9068 ;E:\Dropbox\FAUSTO\SVILUPPI\MSX\CODE\C\MSXgl\projects\exsoccer/exsoccer_s2_b0.c:1623: if (g_Players[s_GkAnimPlayerId].Y > (FIELD_BOUND_Y_TOP + 100)) ty = g_Players[s_GkAnimPlayerId].Y - 100;
    00003344 EB               [ 4] 9069 	ex	de,hl
    00003345 5E               [ 7] 9070 	ld	e, (hl)
    00003346 23               [ 6] 9071 	inc	hl
    00003347 56               [ 7] 9072 	ld	d, (hl)
                                   9073 ;E:\Dropbox\FAUSTO\SVILUPPI\MSX\CODE\C\MSXgl\projects\exsoccer/exsoccer_s2_b0.c:1622: if (team == TEAM_1) { // Shooting UP
    00003348 DD 7E FF         [19] 9074 	ld	a, -1 (ix)
    0000334B 3D               [ 4] 9075 	dec	a
    0000334C 20 19            [12] 9076 	jr	NZ, 00135$
                                   9077 ;E:\Dropbox\FAUSTO\SVILUPPI\MSX\CODE\C\MSXgl\projects\exsoccer/exsoccer_s2_b0.c:1623: if (g_Players[s_GkAnimPlayerId].Y > (FIELD_BOUND_Y_TOP + 100)) ty = g_Players[s_GkAnimPlayerId].Y - 100;
    0000334E 3E 96            [ 7] 9078 	ld	a, #0x96
    00003350 BB               [ 4] 9079 	cp	a, e
    00003351 3E 00            [ 7] 9080 	ld	a, #0x00
    00003353 9A               [ 4] 9081 	sbc	a, d
    00003354 30 0B            [12] 9082 	jr	NC, 00129$
    00003356 7B               [ 4] 9083 	ld	a, e
    00003357 C6 9C            [ 7] 9084 	add	a, #0x9c
    00003359 5F               [ 4] 9085 	ld	e, a
    0000335A 7A               [ 4] 9086 	ld	a, d
    0000335B CE FF            [ 7] 9087 	adc	a, #0xff
    0000335D 57               [ 4] 9088 	ld	d, a
    0000335E C3r7Ar33         [10] 9089 	jp	00136$
    00003361                       9090 00129$:
                                   9091 ;E:\Dropbox\FAUSTO\SVILUPPI\MSX\CODE\C\MSXgl\projects\exsoccer/exsoccer_s2_b0.c:1624: else ty = FIELD_BOUND_Y_TOP;
    00003361 11 32 00         [10] 9092 	ld	de, #0x0032
    00003364 C3r7Ar33         [10] 9093 	jp	00136$
    00003367                       9094 00135$:
                                   9095 ;E:\Dropbox\FAUSTO\SVILUPPI\MSX\CODE\C\MSXgl\projects\exsoccer/exsoccer_s2_b0.c:1626: if (g_Players[s_GkAnimPlayerId].Y < (FIELD_BOUND_Y_BOTTOM - 100)) ty = g_Players[s_GkAnimPlayerId].Y + 100;
    00003367 7B               [ 4] 9096 	ld	a, e
    00003368 D6 4A            [ 7] 9097 	sub	a, #0x4a
    0000336A 7A               [ 4] 9098 	ld	a, d
    0000336B DE 01            [ 7] 9099 	sbc	a, #0x01
    0000336D 30 08            [12] 9100 	jr	NC, 00132$
    0000336F 21 64 00         [10] 9101 	ld	hl, #0x0064
    00003372 19               [11] 9102 	add	hl, de
    00003373 EB               [ 4] 9103 	ex	de, hl
    00003374 C3r7Ar33         [10] 9104 	jp	00136$
    00003377                       9105 00132$:
                                   9106 ;E:\Dropbox\FAUSTO\SVILUPPI\MSX\CODE\C\MSXgl\projects\exsoccer/exsoccer_s2_b0.c:1627: else ty = FIELD_BOUND_Y_BOTTOM;
    00003377 11 AE 01         [10] 9107 	ld	de, #0x01ae
    0000337A                       9108 00136$:
                                   9109 ;E:\Dropbox\FAUSTO\SVILUPPI\MSX\CODE\C\MSXgl\projects\exsoccer/exsoccer_s2_b0.c:1630: PerformShot(tx, ty);
    0000337A 69               [ 4] 9110 	ld	l, c
                                   9111 ;	spillPairReg hl
                                   9112 ;	spillPairReg hl
    0000337B 60               [ 4] 9113 	ld	h, b
                                   9114 ;	spillPairReg hl
                                   9115 ;	spillPairReg hl
    0000337C CDrBCr33         [17] 9116 	call	_PerformShot
    0000337F C3rB8r33         [10] 9117 	jp	00148$
    00003382                       9118 00143$:
                                   9119 ;E:\Dropbox\FAUSTO\SVILUPPI\MSX\CODE\C\MSXgl\projects\exsoccer/exsoccer_s2_b0.c:1633: } else if (s_GkAnimTimer > (kickTime + 15)) {
    00003382 06 00            [ 7] 9120 	ld	b, #0x00
    00003384 21 0F 00         [10] 9121 	ld	hl, #0x000f
    00003387 09               [11] 9122 	add	hl, bc
    00003388 3Ar00r00         [13] 9123 	ld	a, (_s_GkAnimTimer+0)
    0000338B 4F               [ 4] 9124 	ld	c, a
    0000338C 06 00            [ 7] 9125 	ld	b, #0x00
    0000338E 7D               [ 4] 9126 	ld	a, l
    0000338F 91               [ 4] 9127 	sub	a, c
    00003390 7C               [ 4] 9128 	ld	a, h
    00003391 98               [ 4] 9129 	sbc	a, b
    00003392 E2r97r33         [10] 9130 	jp	PO, 00270$
    00003395 EE 80            [ 7] 9131 	xor	a, #0x80
    00003397                       9132 00270$:
    00003397 F2rB8r33         [10] 9133 	jp	P, 00148$
                                   9134 ;E:\Dropbox\FAUSTO\SVILUPPI\MSX\CODE\C\MSXgl\projects\exsoccer/exsoccer_s2_b0.c:1635: g_MatchStatus = MATCH_IN_ACTION;
    0000339A 21r00r00         [10] 9135 	ld	hl, #_g_MatchStatus
    0000339D 36 0C            [10] 9136 	ld	(hl), #0x0c
                                   9137 ;E:\Dropbox\FAUSTO\SVILUPPI\MSX\CODE\C\MSXgl\projects\exsoccer/exsoccer_s2_b0.c:1636: g_Players[s_GkAnimPlayerId].Status = PLAYER_STATUS_NONE;
    0000339F ED 4Br01r00      [20] 9138 	ld	bc, (_s_GkAnimPlayerId)
    000033A3 06 00            [ 7] 9139 	ld	b, #0x00
    000033A5 69               [ 4] 9140 	ld	l, c
    000033A6 60               [ 4] 9141 	ld	h, b
    000033A7 29               [11] 9142 	add	hl, hl
    000033A8 29               [11] 9143 	add	hl, hl
    000033A9 29               [11] 9144 	add	hl, hl
    000033AA 29               [11] 9145 	add	hl, hl
    000033AB 09               [11] 9146 	add	hl, bc
    000033AC 11r00r00         [10] 9147 	ld	de, #_g_Players
    000033AF 19               [11] 9148 	add	hl, de
    000033B0 01 0E 00         [10] 9149 	ld	bc, #0x000e
    000033B3 09               [11] 9150 	add	hl, bc
    000033B4 AF               [ 4] 9151 	xor	a, a
    000033B5 77               [ 7] 9152 	ld	(hl), a
    000033B6 23               [ 6] 9153 	inc	hl
    000033B7 77               [ 7] 9154 	ld	(hl), a
    000033B8                       9155 00148$:
                                   9156 ;E:\Dropbox\FAUSTO\SVILUPPI\MSX\CODE\C\MSXgl\projects\exsoccer/exsoccer_s2_b0.c:1638: }
    000033B8 33               [ 6] 9157 	inc	sp
    000033B9 DD E1            [14] 9158 	pop	ix
    000033BB C9               [10] 9159 	ret
                                   9160 ;E:\Dropbox\FAUSTO\SVILUPPI\MSX\CODE\C\MSXgl\projects\exsoccer/exsoccer_s2_b0.c:1640: void PerformShot(u16 targetX, u16 targetY) {
                                   9161 ;	---------------------------------
                                   9162 ; Function PerformShot
                                   9163 ; ---------------------------------
    000033BC                       9164 _PerformShot::
    000033BC DD E5            [15] 9165 	push	ix
    000033BE DD 21 00 00      [14] 9166 	ld	ix,#0
    000033C2 DD 39            [15] 9167 	add	ix,sp
    000033C4 FD 21 EC FF      [14] 9168 	ld	iy, #-20
    000033C8 FD 39            [15] 9169 	add	iy, sp
    000033CA FD F9            [10] 9170 	ld	sp, iy
    000033CC DD 75 FE         [19] 9171 	ld	-2 (ix), l
    000033CF DD 74 FF         [19] 9172 	ld	-1 (ix), h
    000033D2 DD 73 FC         [19] 9173 	ld	-4 (ix), e
    000033D5 DD 72 FD         [19] 9174 	ld	-3 (ix), d
                                   9175 ;E:\Dropbox\FAUSTO\SVILUPPI\MSX\CODE\C\MSXgl\projects\exsoccer/exsoccer_s2_b0.c:1641: u8 fromId = g_Ball.PossessionPlayerId;
    000033D8 3Ar06r00         [13] 9176 	ld	a, (#(_g_Ball + 6) + 0)
                                   9177 ;E:\Dropbox\FAUSTO\SVILUPPI\MSX\CODE\C\MSXgl\projects\exsoccer/exsoccer_s2_b0.c:1642: if (fromId == NO_VALUE) return;
    000033DB DD 77 FB         [19] 9178 	ld	-5 (ix), a
    000033DE 3C               [ 4] 9179 	inc	a
    000033DF CAr93r36         [10] 9180 	jp	Z,00132$
    000033E2 C3rE5r33         [10] 9181 	jp	00102$
    000033E5                       9182 00102$:
                                   9183 ;E:\Dropbox\FAUSTO\SVILUPPI\MSX\CODE\C\MSXgl\projects\exsoccer/exsoccer_s2_b0.c:1648: dx = (i16)targetX - (i16)g_Players[fromId].X;
    000033E5 DD 4E FE         [19] 9184 	ld	c, -2 (ix)
    000033E8 DD 46 FF         [19] 9185 	ld	b, -1 (ix)
    000033EB DD 5E FB         [19] 9186 	ld	e, -5 (ix)
    000033EE 16 00            [ 7] 9187 	ld	d, #0x00
    000033F0 6B               [ 4] 9188 	ld	l, e
    000033F1 62               [ 4] 9189 	ld	h, d
    000033F2 29               [11] 9190 	add	hl, hl
    000033F3 29               [11] 9191 	add	hl, hl
    000033F4 29               [11] 9192 	add	hl, hl
    000033F5 29               [11] 9193 	add	hl, hl
    000033F6 19               [11] 9194 	add	hl, de
    000033F7 11r00r00         [10] 9195 	ld	de, #_g_Players
    000033FA 19               [11] 9196 	add	hl, de
    000033FB E3               [19] 9197 	ex	(sp), hl
    000033FC DD 7E EC         [19] 9198 	ld	a, -20 (ix)
    000033FF C6 02            [ 7] 9199 	add	a, #0x02
    00003401 DD 77 EE         [19] 9200 	ld	-18 (ix), a
    00003404 DD 7E ED         [19] 9201 	ld	a, -19 (ix)
    00003407 CE 00            [ 7] 9202 	adc	a, #0x00
    00003409 DD 77 EF         [19] 9203 	ld	-17 (ix), a
    0000340C DD 6E EE         [19] 9204 	ld	l, -18 (ix)
    0000340F DD 66 EF         [19] 9205 	ld	h, -17 (ix)
    00003412 5E               [ 7] 9206 	ld	e, (hl)
    00003413 23               [ 6] 9207 	inc	hl
    00003414 56               [ 7] 9208 	ld	d, (hl)
    00003415 79               [ 4] 9209 	ld	a, c
    00003416 93               [ 4] 9210 	sub	a, e
    00003417 4F               [ 4] 9211 	ld	c, a
    00003418 78               [ 4] 9212 	ld	a, b
    00003419 9A               [ 4] 9213 	sbc	a, d
    0000341A DD 71 F0         [19] 9214 	ld	-16 (ix), c
    0000341D DD 77 F1         [19] 9215 	ld	-15 (ix), a
                                   9216 ;E:\Dropbox\FAUSTO\SVILUPPI\MSX\CODE\C\MSXgl\projects\exsoccer/exsoccer_s2_b0.c:1649: dy = (i16)targetY - (i16)g_Players[fromId].Y;
    00003420 DD 4E FC         [19] 9217 	ld	c, -4 (ix)
    00003423 DD 46 FD         [19] 9218 	ld	b, -3 (ix)
    00003426 E1               [10] 9219 	pop	hl
    00003427 E5               [11] 9220 	push	hl
    00003428 5E               [ 7] 9221 	ld	e, (hl)
    00003429 23               [ 6] 9222 	inc	hl
    0000342A 56               [ 7] 9223 	ld	d, (hl)
    0000342B 79               [ 4] 9224 	ld	a, c
    0000342C 93               [ 4] 9225 	sub	a, e
    0000342D 4F               [ 4] 9226 	ld	c, a
    0000342E 78               [ 4] 9227 	ld	a, b
    0000342F 9A               [ 4] 9228 	sbc	a, d
    00003430 DD 71 F2         [19] 9229 	ld	-14 (ix), c
    00003433 DD 77 F3         [19] 9230 	ld	-13 (ix), a
                                   9231 ;E:\Dropbox\FAUSTO\SVILUPPI\MSX\CODE\C\MSXgl\projects\exsoccer/exsoccer_s2_b0.c:1650: adx = (dx < 0) ? -dx : dx;
    00003436 DD 7E F0         [19] 9232 	ld	a, -16 (ix)
    00003439 DD 77 F4         [19] 9233 	ld	-12 (ix), a
    0000343C DD 7E F1         [19] 9234 	ld	a, -15 (ix)
    0000343F DD 77 F5         [19] 9235 	ld	-11 (ix), a
    00003442 DD CB F5 7E      [20] 9236 	bit	7, -11 (ix)
    00003446 28 0C            [12] 9237 	jr	Z, 00134$
    00003448 AF               [ 4] 9238 	xor	a, a
    00003449 DD 96 F0         [19] 9239 	sub	a, -16 (ix)
    0000344C 4F               [ 4] 9240 	ld	c, a
    0000344D 9F               [ 4] 9241 	sbc	a, a
    0000344E DD 96 F1         [19] 9242 	sub	a, -15 (ix)
    00003451 C3r5Ar34         [10] 9243 	jp	00135$
    00003454                       9244 00134$:
    00003454 DD 4E F0         [19] 9245 	ld	c, -16 (ix)
    00003457 DD 7E F1         [19] 9246 	ld	a, -15 (ix)
    0000345A                       9247 00135$:
    0000345A DD 71 F6         [19] 9248 	ld	-10 (ix), c
    0000345D DD 77 F7         [19] 9249 	ld	-9 (ix), a
                                   9250 ;E:\Dropbox\FAUSTO\SVILUPPI\MSX\CODE\C\MSXgl\projects\exsoccer/exsoccer_s2_b0.c:1651: ady = (dy < 0) ? -dy : dy;
    00003460 DD 7E F2         [19] 9251 	ld	a, -14 (ix)
    00003463 DD 77 F8         [19] 9252 	ld	-8 (ix), a
    00003466 DD 7E F3         [19] 9253 	ld	a, -13 (ix)
    00003469 DD 77 F9         [19] 9254 	ld	-7 (ix), a
    0000346C DD CB F9 7E      [20] 9255 	bit	7, -7 (ix)
    00003470 28 11            [12] 9256 	jr	Z, 00136$
    00003472 AF               [ 4] 9257 	xor	a, a
    00003473 DD 96 F2         [19] 9258 	sub	a, -14 (ix)
    00003476 DD 77 FA         [19] 9259 	ld	-6 (ix), a
    00003479 9F               [ 4] 9260 	sbc	a, a
    0000347A DD 96 F3         [19] 9261 	sub	a, -13 (ix)
    0000347D DD 77 FB         [19] 9262 	ld	-5 (ix), a
    00003480 C3r8Fr34         [10] 9263 	jp	00137$
    00003483                       9264 00136$:
    00003483 DD 7E F2         [19] 9265 	ld	a, -14 (ix)
    00003486 DD 77 FA         [19] 9266 	ld	-6 (ix), a
    00003489 DD 7E F3         [19] 9267 	ld	a, -13 (ix)
    0000348C DD 77 FB         [19] 9268 	ld	-5 (ix), a
    0000348F                       9269 00137$:
    0000348F DD 4E FA         [19] 9270 	ld	c, -6 (ix)
    00003492 DD 46 FB         [19] 9271 	ld	b, -5 (ix)
                                   9272 ;E:\Dropbox\FAUSTO\SVILUPPI\MSX\CODE\C\MSXgl\projects\exsoccer/exsoccer_s2_b0.c:1653: if (adx > ady * 2) {
    00003495 69               [ 4] 9273 	ld	l, c
    00003496 60               [ 4] 9274 	ld	h, b
    00003497 29               [11] 9275 	add	hl, hl
    00003498 DD 5E F6         [19] 9276 	ld	e, -10 (ix)
    0000349B DD 56 F7         [19] 9277 	ld	d, -9 (ix)
    0000349E 7D               [ 4] 9278 	ld	a, l
    0000349F 93               [ 4] 9279 	sub	a, e
    000034A0 7C               [ 4] 9280 	ld	a, h
    000034A1 9A               [ 4] 9281 	sbc	a, d
    000034A2 E2rA7r34         [10] 9282 	jp	PO, 00238$
    000034A5 EE 80            [ 7] 9283 	xor	a, #0x80
    000034A7                       9284 00238$:
    000034A7 F2rC8r34         [10] 9285 	jp	P, 00110$
                                   9286 ;E:\Dropbox\FAUSTO\SVILUPPI\MSX\CODE\C\MSXgl\projects\exsoccer/exsoccer_s2_b0.c:1654: newDir = (dx > 0) ? DIRECTION_RIGHT : DIRECTION_LEFT;
    000034AA AF               [ 4] 9287 	xor	a, a
    000034AB DD BE F4         [19] 9288 	cp	a, -12 (ix)
    000034AE DD 9E F5         [19] 9289 	sbc	a, -11 (ix)
    000034B1 E2rB6r34         [10] 9290 	jp	PO, 00239$
    000034B4 EE 80            [ 7] 9291 	xor	a, #0x80
    000034B6                       9292 00239$:
    000034B6 F2rBFr34         [10] 9293 	jp	P, 00138$
    000034B9 01 03 00         [10] 9294 	ld	bc, #0x0003
    000034BC C3rC2r34         [10] 9295 	jp	00139$
    000034BF                       9296 00138$:
    000034BF 01 07 00         [10] 9297 	ld	bc, #0x0007
    000034C2                       9298 00139$:
    000034C2 DD 71 FB         [19] 9299 	ld	-5 (ix), c
    000034C5 C3r2Cr35         [10] 9300 	jp	00111$
    000034C8                       9301 00110$:
                                   9302 ;E:\Dropbox\FAUSTO\SVILUPPI\MSX\CODE\C\MSXgl\projects\exsoccer/exsoccer_s2_b0.c:1655: } else if (ady > adx * 2) {
    000034C8 EB               [ 4] 9303 	ex	de, hl
    000034C9 29               [11] 9304 	add	hl, hl
    000034CA EB               [ 4] 9305 	ex	de, hl
                                   9306 ;E:\Dropbox\FAUSTO\SVILUPPI\MSX\CODE\C\MSXgl\projects\exsoccer/exsoccer_s2_b0.c:1656: newDir = (dy > 0) ? DIRECTION_DOWN : DIRECTION_UP;
    000034CB AF               [ 4] 9307 	xor	a, a
    000034CC DD BE F8         [19] 9308 	cp	a, -8 (ix)
    000034CF DD 9E F9         [19] 9309 	sbc	a, -7 (ix)
    000034D2 E2rD7r34         [10] 9310 	jp	PO, 00240$
    000034D5 EE 80            [ 7] 9311 	xor	a, #0x80
    000034D7                       9312 00240$:
    000034D7 07               [ 4] 9313 	rlca
    000034D8 E6 01            [ 7] 9314 	and	a,#0x01
    000034DA 6F               [ 4] 9315 	ld	l, a
                                   9316 ;	spillPairReg hl
                                   9317 ;	spillPairReg hl
                                   9318 ;E:\Dropbox\FAUSTO\SVILUPPI\MSX\CODE\C\MSXgl\projects\exsoccer/exsoccer_s2_b0.c:1655: } else if (ady > adx * 2) {
    000034DB 7B               [ 4] 9319 	ld	a, e
    000034DC 91               [ 4] 9320 	sub	a, c
    000034DD 7A               [ 4] 9321 	ld	a, d
    000034DE 98               [ 4] 9322 	sbc	a, b
    000034DF E2rE4r34         [10] 9323 	jp	PO, 00241$
    000034E2 EE 80            [ 7] 9324 	xor	a, #0x80
    000034E4                       9325 00241$:
    000034E4 F2rFAr34         [10] 9326 	jp	P, 00107$
                                   9327 ;E:\Dropbox\FAUSTO\SVILUPPI\MSX\CODE\C\MSXgl\projects\exsoccer/exsoccer_s2_b0.c:1656: newDir = (dy > 0) ? DIRECTION_DOWN : DIRECTION_UP;
    000034E7 7D               [ 4] 9328 	ld	a, l
    000034E8 B7               [ 4] 9329 	or	a, a
    000034E9 28 06            [12] 9330 	jr	Z, 00140$
    000034EB 01 05 00         [10] 9331 	ld	bc, #0x0005
    000034EE C3rF4r34         [10] 9332 	jp	00141$
    000034F1                       9333 00140$:
    000034F1 01 01 00         [10] 9334 	ld	bc, #0x0001
    000034F4                       9335 00141$:
    000034F4 DD 71 FB         [19] 9336 	ld	-5 (ix), c
    000034F7 C3r2Cr35         [10] 9337 	jp	00111$
    000034FA                       9338 00107$:
                                   9339 ;E:\Dropbox\FAUSTO\SVILUPPI\MSX\CODE\C\MSXgl\projects\exsoccer/exsoccer_s2_b0.c:1658: if (dx > 0) newDir = (dy > 0) ? DIRECTION_DOWN_RIGHT : DIRECTION_UP_RIGHT;
    000034FA AF               [ 4] 9340 	xor	a, a
    000034FB DD BE F4         [19] 9341 	cp	a, -12 (ix)
    000034FE DD 9E F5         [19] 9342 	sbc	a, -11 (ix)
    00003501 E2r06r35         [10] 9343 	jp	PO, 00242$
    00003504 EE 80            [ 7] 9344 	xor	a, #0x80
    00003506                       9345 00242$:
    00003506 F2r1Cr35         [10] 9346 	jp	P, 00104$
    00003509 7D               [ 4] 9347 	ld	a, l
    0000350A B7               [ 4] 9348 	or	a, a
    0000350B 28 06            [12] 9349 	jr	Z, 00142$
    0000350D 01 04 00         [10] 9350 	ld	bc, #0x0004
    00003510 C3r16r35         [10] 9351 	jp	00143$
    00003513                       9352 00142$:
    00003513 01 02 00         [10] 9353 	ld	bc, #0x0002
    00003516                       9354 00143$:
    00003516 DD 71 FB         [19] 9355 	ld	-5 (ix), c
    00003519 C3r2Cr35         [10] 9356 	jp	00111$
    0000351C                       9357 00104$:
                                   9358 ;E:\Dropbox\FAUSTO\SVILUPPI\MSX\CODE\C\MSXgl\projects\exsoccer/exsoccer_s2_b0.c:1659: else newDir = (dy > 0) ? DIRECTION_DOWN_LEFT : DIRECTION_UP_LEFT;
    0000351C 7D               [ 4] 9359 	ld	a, l
    0000351D B7               [ 4] 9360 	or	a, a
    0000351E 28 06            [12] 9361 	jr	Z, 00144$
    00003520 01 06 00         [10] 9362 	ld	bc, #0x0006
    00003523 C3r29r35         [10] 9363 	jp	00145$
    00003526                       9364 00144$:
    00003526 01 08 00         [10] 9365 	ld	bc, #0x0008
    00003529                       9366 00145$:
    00003529 DD 71 FB         [19] 9367 	ld	-5 (ix), c
    0000352C                       9368 00111$:
                                   9369 ;E:\Dropbox\FAUSTO\SVILUPPI\MSX\CODE\C\MSXgl\projects\exsoccer/exsoccer_s2_b0.c:1661: g_Players[fromId].Direction = newDir;
    0000352C E1               [10] 9370 	pop	hl
    0000352D E5               [11] 9371 	push	hl
    0000352E 11 06 00         [10] 9372 	ld	de, #0x0006
    00003531 19               [11] 9373 	add	hl, de
    00003532 DD 7E FB         [19] 9374 	ld	a, -5 (ix)
    00003535 77               [ 7] 9375 	ld	(hl), a
                                   9376 ;E:\Dropbox\FAUSTO\SVILUPPI\MSX\CODE\C\MSXgl\projects\exsoccer/exsoccer_s2_b0.c:1664: if (newDir == DIRECTION_UP || newDir == DIRECTION_UP_LEFT || newDir == DIRECTION_UP_RIGHT) g_Players[fromId].PatternId = PLAYER_POSE_SHOT_FRONT;
    00003536 DD 7E FB         [19] 9377 	ld	a, -5 (ix)
    00003539 3D               [ 4] 9378 	dec	a
    0000353A 28 0E            [12] 9379 	jr	Z, 00122$
    0000353C DD 7E FB         [19] 9380 	ld	a, -5 (ix)
    0000353F D6 08            [ 7] 9381 	sub	a, #0x08
    00003541 28 07            [12] 9382 	jr	Z, 00122$
    00003543 DD 7E FB         [19] 9383 	ld	a, -5 (ix)
    00003546 D6 02            [ 7] 9384 	sub	a, #0x02
    00003548 20 1B            [12] 9385 	jr	NZ, 00123$
    0000354A                       9386 00122$:
    0000354A DD 7E EC         [19] 9387 	ld	a, -20 (ix)
    0000354D C6 04            [ 7] 9388 	add	a, #0x04
    0000354F DD 77 FA         [19] 9389 	ld	-6 (ix), a
    00003552 DD 7E ED         [19] 9390 	ld	a, -19 (ix)
    00003555 CE 00            [ 7] 9391 	adc	a, #0x00
    00003557 DD 77 FB         [19] 9392 	ld	-5 (ix), a
    0000355A DD 6E FA         [19] 9393 	ld	l, -6 (ix)
    0000355D DD 66 FB         [19] 9394 	ld	h, -5 (ix)
    00003560 36 18            [10] 9395 	ld	(hl), #0x18
    00003562 C3rA6r35         [10] 9396 	jp	00124$
    00003565                       9397 00123$:
                                   9398 ;E:\Dropbox\FAUSTO\SVILUPPI\MSX\CODE\C\MSXgl\projects\exsoccer/exsoccer_s2_b0.c:1665: else if (newDir == DIRECTION_DOWN || newDir == DIRECTION_DOWN_LEFT || newDir == DIRECTION_DOWN_RIGHT) g_Players[fromId].PatternId = PLAYER_POSE_SHOT_BACK;
    00003565 DD 7E FB         [19] 9399 	ld	a, -5 (ix)
    00003568 D6 05            [ 7] 9400 	sub	a, #0x05
    0000356A 28 0E            [12] 9401 	jr	Z, 00117$
    0000356C DD 7E FB         [19] 9402 	ld	a, -5 (ix)
    0000356F D6 06            [ 7] 9403 	sub	a, #0x06
    00003571 28 07            [12] 9404 	jr	Z, 00117$
    00003573 DD 7E FB         [19] 9405 	ld	a, -5 (ix)
    00003576 D6 04            [ 7] 9406 	sub	a, #0x04
    00003578 20 0B            [12] 9407 	jr	NZ, 00118$
    0000357A                       9408 00117$:
    0000357A E1               [10] 9409 	pop	hl
    0000357B E5               [11] 9410 	push	hl
    0000357C 11 04 00         [10] 9411 	ld	de, #0x0004
    0000357F 19               [11] 9412 	add	hl, de
    00003580 36 15            [10] 9413 	ld	(hl), #0x15
    00003582 C3rA6r35         [10] 9414 	jp	00124$
    00003585                       9415 00118$:
                                   9416 ;E:\Dropbox\FAUSTO\SVILUPPI\MSX\CODE\C\MSXgl\projects\exsoccer/exsoccer_s2_b0.c:1666: else if (newDir == DIRECTION_LEFT) g_Players[fromId].PatternId = PLAYER_POSE_SHOT_LEFT;
    00003585 DD 7E FB         [19] 9417 	ld	a, -5 (ix)
    00003588 D6 07            [ 7] 9418 	sub	a, #0x07
    0000358A 20 0B            [12] 9419 	jr	NZ, 00115$
    0000358C E1               [10] 9420 	pop	hl
    0000358D E5               [11] 9421 	push	hl
    0000358E 11 04 00         [10] 9422 	ld	de, #0x0004
    00003591 19               [11] 9423 	add	hl, de
    00003592 36 A4            [10] 9424 	ld	(hl), #0xa4
    00003594 C3rA6r35         [10] 9425 	jp	00124$
    00003597                       9426 00115$:
                                   9427 ;E:\Dropbox\FAUSTO\SVILUPPI\MSX\CODE\C\MSXgl\projects\exsoccer/exsoccer_s2_b0.c:1667: else if (newDir == DIRECTION_RIGHT) g_Players[fromId].PatternId = PLAYER_POSE_SHOT_RIGHT;
    00003597 DD 7E FB         [19] 9428 	ld	a, -5 (ix)
    0000359A D6 03            [ 7] 9429 	sub	a, #0x03
    0000359C 20 08            [12] 9430 	jr	NZ, 00124$
    0000359E E1               [10] 9431 	pop	hl
    0000359F E5               [11] 9432 	push	hl
    000035A0 11 04 00         [10] 9433 	ld	de, #0x0004
    000035A3 19               [11] 9434 	add	hl, de
    000035A4 36 1B            [10] 9435 	ld	(hl), #0x1b
    000035A6                       9436 00124$:
                                   9437 ;E:\Dropbox\FAUSTO\SVILUPPI\MSX\CODE\C\MSXgl\projects\exsoccer/exsoccer_s2_b0.c:1669: g_Players[fromId].Status = PLAYER_STATUS_POSITIONED; // Lock pose
    000035A6 E1               [10] 9438 	pop	hl
    000035A7 E5               [11] 9439 	push	hl
    000035A8 11 0E 00         [10] 9440 	ld	de, #0x000e
    000035AB 19               [11] 9441 	add	hl, de
    000035AC 36 04            [10] 9442 	ld	(hl), #0x04
    000035AE 23               [ 6] 9443 	inc	hl
    000035AF 36 00            [10] 9444 	ld	(hl), #0x00
                                   9445 ;E:\Dropbox\FAUSTO\SVILUPPI\MSX\CODE\C\MSXgl\projects\exsoccer/exsoccer_s2_b0.c:1672: g_Players[fromId].TargetX = g_Players[fromId].X;
    000035B1 DD 7E EC         [19] 9446 	ld	a, -20 (ix)
    000035B4 C6 0C            [ 7] 9447 	add	a, #0x0c
    000035B6 4F               [ 4] 9448 	ld	c, a
    000035B7 DD 7E ED         [19] 9449 	ld	a, -19 (ix)
    000035BA CE 00            [ 7] 9450 	adc	a, #0x00
    000035BC 47               [ 4] 9451 	ld	b, a
    000035BD DD 6E EE         [19] 9452 	ld	l, -18 (ix)
    000035C0 DD 66 EF         [19] 9453 	ld	h, -17 (ix)
    000035C3 5E               [ 7] 9454 	ld	e, (hl)
    000035C4 23               [ 6] 9455 	inc	hl
    000035C5 56               [ 7] 9456 	ld	d, (hl)
    000035C6 7B               [ 4] 9457 	ld	a, e
    000035C7 02               [ 7] 9458 	ld	(bc), a
    000035C8 03               [ 6] 9459 	inc	bc
    000035C9 7A               [ 4] 9460 	ld	a, d
    000035CA 02               [ 7] 9461 	ld	(bc), a
                                   9462 ;E:\Dropbox\FAUSTO\SVILUPPI\MSX\CODE\C\MSXgl\projects\exsoccer/exsoccer_s2_b0.c:1673: g_Players[fromId].TargetY = g_Players[fromId].Y;
    000035CB DD 7E EC         [19] 9463 	ld	a, -20 (ix)
    000035CE C6 0A            [ 7] 9464 	add	a, #0x0a
    000035D0 4F               [ 4] 9465 	ld	c, a
    000035D1 DD 7E ED         [19] 9466 	ld	a, -19 (ix)
    000035D4 CE 00            [ 7] 9467 	adc	a, #0x00
    000035D6 47               [ 4] 9468 	ld	b, a
    000035D7 E1               [10] 9469 	pop	hl
    000035D8 E5               [11] 9470 	push	hl
    000035D9 5E               [ 7] 9471 	ld	e, (hl)
    000035DA 23               [ 6] 9472 	inc	hl
    000035DB 56               [ 7] 9473 	ld	d, (hl)
    000035DC 7B               [ 4] 9474 	ld	a, e
    000035DD 02               [ 7] 9475 	ld	(bc), a
    000035DE 03               [ 6] 9476 	inc	bc
    000035DF 7A               [ 4] 9477 	ld	a, d
    000035E0 02               [ 7] 9478 	ld	(bc), a
                                   9479 ;E:\Dropbox\FAUSTO\SVILUPPI\MSX\CODE\C\MSXgl\projects\exsoccer/exsoccer_s2_b0.c:1675: SetPlayerBallPossession(NO_VALUE);
    000035E1 3E FF            [ 7] 9480 	ld	a, #0xff
    000035E3 CDr00r00         [17] 9481 	call	_SetPlayerBallPossession
                                   9482 ;E:\Dropbox\FAUSTO\SVILUPPI\MSX\CODE\C\MSXgl\projects\exsoccer/exsoccer_s2_b0.c:1676: g_Ball.PossessionPlayerId = NO_VALUE;
    000035E6 21r06r00         [10] 9483 	ld	hl, #(_g_Ball + 6)
    000035E9 36 FF            [10] 9484 	ld	(hl), #0xff
                                   9485 ;E:\Dropbox\FAUSTO\SVILUPPI\MSX\CODE\C\MSXgl\projects\exsoccer/exsoccer_s2_b0.c:1677: g_Ball.PassTargetPlayerId = NO_VALUE;
    000035EB 21r10r00         [10] 9486 	ld	hl, #(_g_Ball + 16)
    000035EE 36 FF            [10] 9487 	ld	(hl), #0xff
                                   9488 ;E:\Dropbox\FAUSTO\SVILUPPI\MSX\CODE\C\MSXgl\projects\exsoccer/exsoccer_s2_b0.c:1678: g_Ball.ShotActive = 1;
    000035F0 21r1Br00         [10] 9489 	ld	hl, #(_g_Ball + 27)
    000035F3 36 01            [10] 9490 	ld	(hl), #0x01
                                   9491 ;E:\Dropbox\FAUSTO\SVILUPPI\MSX\CODE\C\MSXgl\projects\exsoccer/exsoccer_s2_b0.c:1679: g_Ball.TargetX = targetX;
    000035F5 21r17r00         [10] 9492 	ld	hl, #(_g_Ball + 23)
    000035F8 DD 7E FE         [19] 9493 	ld	a, -2 (ix)
    000035FB 77               [ 7] 9494 	ld	(hl), a
    000035FC 23               [ 6] 9495 	inc	hl
    000035FD DD 7E FF         [19] 9496 	ld	a, -1 (ix)
    00003600 77               [ 7] 9497 	ld	(hl), a
                                   9498 ;E:\Dropbox\FAUSTO\SVILUPPI\MSX\CODE\C\MSXgl\projects\exsoccer/exsoccer_s2_b0.c:1680: g_Ball.TargetY = targetY;
    00003601 21r19r00         [10] 9499 	ld	hl, #(_g_Ball + 25)
    00003604 DD 7E FC         [19] 9500 	ld	a, -4 (ix)
    00003607 77               [ 7] 9501 	ld	(hl), a
    00003608 23               [ 6] 9502 	inc	hl
    00003609 DD 7E FD         [19] 9503 	ld	a, -3 (ix)
    0000360C 77               [ 7] 9504 	ld	(hl), a
                                   9505 ;E:\Dropbox\FAUSTO\SVILUPPI\MSX\CODE\C\MSXgl\projects\exsoccer/exsoccer_s2_b0.c:1681: g_Ball.PassStartX = g_Ball.X;
    0000360D ED 4Br02r00      [20] 9506 	ld	bc, (#_g_Ball + 2)
    00003611 ED 43r11r00      [20] 9507 	ld	((_g_Ball + 17)), bc
                                   9508 ;E:\Dropbox\FAUSTO\SVILUPPI\MSX\CODE\C\MSXgl\projects\exsoccer/exsoccer_s2_b0.c:1682: g_Ball.PassStartY = g_Ball.Y;
    00003615 ED 4Br00r00      [20] 9509 	ld	bc, (#_g_Ball + 0)
    00003619 ED 43r13r00      [20] 9510 	ld	((_g_Ball + 19)), bc
                                   9511 ;E:\Dropbox\FAUSTO\SVILUPPI\MSX\CODE\C\MSXgl\projects\exsoccer/exsoccer_s2_b0.c:1685: i16 arcDy = dy;
    0000361D DD 4E F2         [19] 9512 	ld	c, -14 (ix)
    00003620 DD 46 F3         [19] 9513 	ld	b, -13 (ix)
                                   9514 ;E:\Dropbox\FAUSTO\SVILUPPI\MSX\CODE\C\MSXgl\projects\exsoccer/exsoccer_s2_b0.c:1686: if (targetY < FIELD_BOUND_Y_TOP) { // Shooting UP
    00003623 DD 5E FC         [19] 9515 	ld	e, -4 (ix)
    00003626 DD 56 FD         [19] 9516 	ld	d, -3 (ix)
    00003629 7B               [ 4] 9517 	ld	a, e
    0000362A D6 32            [ 7] 9518 	sub	a, #0x32
    0000362C 7A               [ 4] 9519 	ld	a, d
    0000362D DE 00            [ 7] 9520 	sbc	a, #0x00
    0000362F 30 0F            [12] 9521 	jr	NC, 00130$
                                   9522 ;E:\Dropbox\FAUSTO\SVILUPPI\MSX\CODE\C\MSXgl\projects\exsoccer/exsoccer_s2_b0.c:1687: arcDy = (i16)FIELD_BOUND_Y_TOP - (i16)g_Players[fromId].Y;
    00003631 E1               [10] 9523 	pop	hl
    00003632 E5               [11] 9524 	push	hl
    00003633 4E               [ 7] 9525 	ld	c, (hl)
    00003634 23               [ 6] 9526 	inc	hl
    00003635 46               [ 7] 9527 	ld	b, (hl)
    00003636 3E 32            [ 7] 9528 	ld	a, #0x32
    00003638 91               [ 4] 9529 	sub	a, c
    00003639 4F               [ 4] 9530 	ld	c, a
    0000363A 9F               [ 4] 9531 	sbc	a, a
    0000363B 90               [ 4] 9532 	sub	a, b
    0000363C 47               [ 4] 9533 	ld	b, a
    0000363D C3r55r36         [10] 9534 	jp	00131$
    00003640                       9535 00130$:
                                   9536 ;E:\Dropbox\FAUSTO\SVILUPPI\MSX\CODE\C\MSXgl\projects\exsoccer/exsoccer_s2_b0.c:1688: } else if (targetY > FIELD_BOUND_Y_BOTTOM) { // Shooting DOWN
    00003640 3E AE            [ 7] 9537 	ld	a, #0xae
    00003642 BB               [ 4] 9538 	cp	a, e
    00003643 3E 01            [ 7] 9539 	ld	a, #0x01
    00003645 9A               [ 4] 9540 	sbc	a, d
    00003646 30 0D            [12] 9541 	jr	NC, 00131$
                                   9542 ;E:\Dropbox\FAUSTO\SVILUPPI\MSX\CODE\C\MSXgl\projects\exsoccer/exsoccer_s2_b0.c:1689: arcDy = (i16)FIELD_BOUND_Y_BOTTOM - (i16)g_Players[fromId].Y;
    00003648 E1               [10] 9543 	pop	hl
    00003649 E5               [11] 9544 	push	hl
    0000364A 4E               [ 7] 9545 	ld	c, (hl)
    0000364B 23               [ 6] 9546 	inc	hl
    0000364C 46               [ 7] 9547 	ld	b, (hl)
    0000364D 3E AE            [ 7] 9548 	ld	a, #0xae
    0000364F 91               [ 4] 9549 	sub	a, c
    00003650 4F               [ 4] 9550 	ld	c, a
    00003651 3E 01            [ 7] 9551 	ld	a, #0x01
    00003653 98               [ 4] 9552 	sbc	a, b
    00003654 47               [ 4] 9553 	ld	b, a
    00003655                       9554 00131$:
                                   9555 ;E:\Dropbox\FAUSTO\SVILUPPI\MSX\CODE\C\MSXgl\projects\exsoccer/exsoccer_s2_b0.c:1691: g_Ball.PassTotalDist = (u16)(Math_Abs32(dx) + Math_Abs32(arcDy));
    00003655 DD 5E F0         [19] 9556 	ld	e, -16 (ix)
    00003658 DD 7E F1         [19] 9557 	ld	a, -15 (ix)
    0000365B 57               [ 4] 9558 	ld	d, a
    0000365C 07               [ 4] 9559 	rlca
    0000365D ED 62            [15] 9560 	sbc	hl, hl
    0000365F C5               [11] 9561 	push	bc
    00003660 CDr7Fr2C         [17] 9562 	call	_Math_Abs32
    00003663 DD 73 F8         [19] 9563 	ld	-8 (ix), e
    00003666 DD 72 F9         [19] 9564 	ld	-7 (ix), d
    00003669 DD 75 FA         [19] 9565 	ld	-6 (ix), l
    0000366C DD 74 FB         [19] 9566 	ld	-5 (ix), h
    0000366F C1               [10] 9567 	pop	bc
    00003670 78               [ 4] 9568 	ld	a, b
    00003671 07               [ 4] 9569 	rlca
    00003672 ED 62            [15] 9570 	sbc	hl, hl
    00003674 59               [ 4] 9571 	ld	e, c
    00003675 50               [ 4] 9572 	ld	d, b
    00003676 CDr7Fr2C         [17] 9573 	call	_Math_Abs32
    00003679 DD 4E F8         [19] 9574 	ld	c, -8 (ix)
    0000367C DD 46 F9         [19] 9575 	ld	b, -7 (ix)
    0000367F EB               [ 4] 9576 	ex	de, hl
    00003680 09               [11] 9577 	add	hl, bc
    00003681 DD 75 FA         [19] 9578 	ld	-6 (ix), l
    00003684 DD 74 FB         [19] 9579 	ld	-5 (ix), h
    00003687 21r15r00         [10] 9580 	ld	hl, #(_g_Ball + 21)
    0000368A DD 7E FA         [19] 9581 	ld	a, -6 (ix)
    0000368D 77               [ 7] 9582 	ld	(hl), a
    0000368E 23               [ 6] 9583 	inc	hl
    0000368F DD 7E FB         [19] 9584 	ld	a, -5 (ix)
    00003692 77               [ 7] 9585 	ld	(hl), a
    00003693                       9586 00132$:
                                   9587 ;E:\Dropbox\FAUSTO\SVILUPPI\MSX\CODE\C\MSXgl\projects\exsoccer/exsoccer_s2_b0.c:1692: }
    00003693 DD F9            [10] 9588 	ld	sp, ix
    00003695 DD E1            [14] 9589 	pop	ix
    00003697 C9               [10] 9590 	ret
                                   9591 ;E:\Dropbox\FAUSTO\SVILUPPI\MSX\CODE\C\MSXgl\projects\exsoccer/exsoccer_s2_b0.c:1694: void TickBallFlying() {
                                   9592 ;	---------------------------------
                                   9593 ; Function TickBallFlying
                                   9594 ; ---------------------------------
    00003698                       9595 _TickBallFlying::
    00003698 DD E5            [15] 9596 	push	ix
    0000369A DD 21 00 00      [14] 9597 	ld	ix,#0
    0000369E DD 39            [15] 9598 	add	ix,sp
    000036A0 21 E8 FF         [10] 9599 	ld	hl, #-24
    000036A3 39               [11] 9600 	add	hl, sp
    000036A4 F9               [ 6] 9601 	ld	sp, hl
                                   9602 ;E:\Dropbox\FAUSTO\SVILUPPI\MSX\CODE\C\MSXgl\projects\exsoccer/exsoccer_s2_b0.c:1696: if (g_Ball.PossessionPlayerId != NO_VALUE) return;
    000036A5 3Ar06r00         [13] 9603 	ld	a, (#(_g_Ball + 6) + 0)
    000036A8 3C               [ 4] 9604 	inc	a
    000036A9 C2rC7r3D         [10] 9605 	jp	NZ,00177$
                                   9606 ;E:\Dropbox\FAUSTO\SVILUPPI\MSX\CODE\C\MSXgl\projects\exsoccer/exsoccer_s2_b0.c:1699: bool isMovingToPlayer = (g_Ball.PassTargetPlayerId != NO_VALUE);
    000036AC 3Ar10r00         [13] 9607 	ld	a, (#(_g_Ball + 16) + 0)
    000036AF DD 77 F0         [19] 9608 	ld	-16 (ix), a
    000036B2 3C               [ 4] 9609 	inc	a
    000036B3 3E 01            [ 7] 9610 	ld	a, #0x01
    000036B5 28 01            [12] 9611 	jr	Z, 00372$
    000036B7 AF               [ 4] 9612 	xor	a, a
    000036B8                       9613 00372$:
    000036B8 EE 01            [ 7] 9614 	xor	a, #0x01
    000036BA DD 77 F1         [19] 9615 	ld	-15 (ix), a
                                   9616 ;E:\Dropbox\FAUSTO\SVILUPPI\MSX\CODE\C\MSXgl\projects\exsoccer/exsoccer_s2_b0.c:1700: bool isFreeMoving = (g_Ball.ShotActive != 0);
    000036BD 3Ar1Br00         [13] 9617 	ld	a, (#(_g_Ball + 27) + 0)
    000036C0 DD 77 FF         [19] 9618 	ld	-1 (ix), a
    000036C3 D6 01            [ 7] 9619 	sub	a,#0x01
    000036C5 3E 00            [ 7] 9620 	ld	a, #0x00
    000036C7 17               [ 4] 9621 	rla
    000036C8 EE 01            [ 7] 9622 	xor	a, #0x01
    000036CA 4F               [ 4] 9623 	ld	c, a
                                   9624 ;E:\Dropbox\FAUSTO\SVILUPPI\MSX\CODE\C\MSXgl\projects\exsoccer/exsoccer_s2_b0.c:1702: if (!isMovingToPlayer && !isFreeMoving) return;
    000036CB DD 7E F1         [19] 9625 	ld	a, -15 (ix)
    000036CE B7               [ 4] 9626 	or	a,a
    000036CF 20 04            [12] 9627 	jr	NZ, 00104$
    000036D1 B1               [ 4] 9628 	or	a,c
    000036D2 CArC7r3D         [10] 9629 	jp	Z,00177$
    000036D5                       9630 00104$:
                                   9631 ;E:\Dropbox\FAUSTO\SVILUPPI\MSX\CODE\C\MSXgl\projects\exsoccer/exsoccer_s2_b0.c:1706: if (isMovingToPlayer) {
    000036D5 DD 7E F1         [19] 9632 	ld	a, -15 (ix)
    000036D8 B7               [ 4] 9633 	or	a, a
    000036D9 28 1E            [12] 9634 	jr	Z, 00107$
                                   9635 ;E:\Dropbox\FAUSTO\SVILUPPI\MSX\CODE\C\MSXgl\projects\exsoccer/exsoccer_s2_b0.c:1707: tx = g_Players[g_Ball.PassTargetPlayerId].X;
    000036DB 01r00r00         [10] 9636 	ld	bc, #_g_Players+0
    000036DE DD 5E F0         [19] 9637 	ld	e, -16 (ix)
    000036E1 16 00            [ 7] 9638 	ld	d, #0x00
    000036E3 6B               [ 4] 9639 	ld	l, e
    000036E4 62               [ 4] 9640 	ld	h, d
    000036E5 29               [11] 9641 	add	hl, hl
    000036E6 29               [11] 9642 	add	hl, hl
    000036E7 29               [11] 9643 	add	hl, hl
    000036E8 29               [11] 9644 	add	hl, hl
    000036E9 19               [11] 9645 	add	hl, de
    000036EA 09               [11] 9646 	add	hl, bc
                                   9647 ;	spillPairReg hl
                                   9648 ;	spillPairReg hl
    000036EB 5D               [ 4] 9649 	ld	e, l
    000036EC 54               [ 4] 9650 	ld	d, h
                                   9651 ;	spillPairReg hl
                                   9652 ;	spillPairReg hl
    000036ED 23               [ 6] 9653 	inc	hl
    000036EE 23               [ 6] 9654 	inc	hl
    000036EF 4E               [ 7] 9655 	ld	c, (hl)
    000036F0 23               [ 6] 9656 	inc	hl
    000036F1 46               [ 7] 9657 	ld	b, (hl)
                                   9658 ;E:\Dropbox\FAUSTO\SVILUPPI\MSX\CODE\C\MSXgl\projects\exsoccer/exsoccer_s2_b0.c:1708: ty = g_Players[g_Ball.PassTargetPlayerId].Y;
    000036F2 EB               [ 4] 9659 	ex	de,hl
    000036F3 5E               [ 7] 9660 	ld	e, (hl)
    000036F4 23               [ 6] 9661 	inc	hl
    000036F5 56               [ 7] 9662 	ld	d, (hl)
    000036F6 C3r01r37         [10] 9663 	jp	00108$
    000036F9                       9664 00107$:
                                   9665 ;E:\Dropbox\FAUSTO\SVILUPPI\MSX\CODE\C\MSXgl\projects\exsoccer/exsoccer_s2_b0.c:1710: tx = g_Ball.TargetX;
    000036F9 ED 4Br17r00      [20] 9666 	ld	bc, (#_g_Ball + 23)
                                   9667 ;E:\Dropbox\FAUSTO\SVILUPPI\MSX\CODE\C\MSXgl\projects\exsoccer/exsoccer_s2_b0.c:1711: ty = g_Ball.TargetY;
    000036FD ED 5Br19r00      [20] 9668 	ld	de, (#_g_Ball + 25)
    00003701                       9669 00108$:
                                   9670 ;E:\Dropbox\FAUSTO\SVILUPPI\MSX\CODE\C\MSXgl\projects\exsoccer/exsoccer_s2_b0.c:1715: i16 dx = tx - (i16)g_Ball.X;
    00003701 21r02r00         [10] 9671 	ld	hl, #(_g_Ball + 2)
    00003704 7E               [ 7] 9672 	ld	a, (hl)
    00003705 DD 77 F2         [19] 9673 	ld	-14 (ix), a
    00003708 23               [ 6] 9674 	inc	hl
    00003709 7E               [ 7] 9675 	ld	a, (hl)
    0000370A DD 77 F3         [19] 9676 	ld	-13 (ix), a
    0000370D DD 6E F2         [19] 9677 	ld	l, -14 (ix)
                                   9678 ;	spillPairReg hl
                                   9679 ;	spillPairReg hl
    00003710 DD 66 F3         [19] 9680 	ld	h, -13 (ix)
                                   9681 ;	spillPairReg hl
                                   9682 ;	spillPairReg hl
    00003713 79               [ 4] 9683 	ld	a, c
    00003714 95               [ 4] 9684 	sub	a, l
    00003715 4F               [ 4] 9685 	ld	c, a
    00003716 78               [ 4] 9686 	ld	a, b
    00003717 9C               [ 4] 9687 	sbc	a, h
    00003718 47               [ 4] 9688 	ld	b, a
    00003719 DD 71 F4         [19] 9689 	ld	-12 (ix), c
    0000371C DD 70 F5         [19] 9690 	ld	-11 (ix), b
                                   9691 ;E:\Dropbox\FAUSTO\SVILUPPI\MSX\CODE\C\MSXgl\projects\exsoccer/exsoccer_s2_b0.c:1716: i16 dy = ty - (i16)g_Ball.Y;
    0000371F 2Ar00r00         [16] 9692 	ld	hl, (#_g_Ball + 0)
    00003722 7B               [ 4] 9693 	ld	a, e
    00003723 95               [ 4] 9694 	sub	a, l
    00003724 4F               [ 4] 9695 	ld	c, a
    00003725 7A               [ 4] 9696 	ld	a, d
    00003726 9C               [ 4] 9697 	sbc	a, h
    00003727 DD 71 F6         [19] 9698 	ld	-10 (ix), c
    0000372A DD 77 F7         [19] 9699 	ld	-9 (ix), a
                                   9700 ;E:\Dropbox\FAUSTO\SVILUPPI\MSX\CODE\C\MSXgl\projects\exsoccer/exsoccer_s2_b0.c:1719: u8 speed = 3; 
    0000372D DD 36 F8 03      [19] 9701 	ld	-8 (ix), #0x03
                                   9702 ;E:\Dropbox\FAUSTO\SVILUPPI\MSX\CODE\C\MSXgl\projects\exsoccer/exsoccer_s2_b0.c:1720: if (g_Ball.ShotActive == 1) speed = 5; // Fast High Shot/Kick
    00003731 DD 7E FF         [19] 9703 	ld	a, -1 (ix)
    00003734 3D               [ 4] 9704 	dec	a
    00003735 3E 01            [ 7] 9705 	ld	a, #0x01
    00003737 28 01            [12] 9706 	jr	Z, 00374$
    00003739 AF               [ 4] 9707 	xor	a, a
    0000373A                       9708 00374$:
    0000373A DD 77 F9         [19] 9709 	ld	-7 (ix), a
    0000373D B7               [ 4] 9710 	or	a, a
    0000373E 28 07            [12] 9711 	jr	Z, 00112$
    00003740 DD 36 F8 05      [19] 9712 	ld	-8 (ix), #0x05
    00003744 C3r52r37         [10] 9713 	jp	00113$
    00003747                       9714 00112$:
                                   9715 ;E:\Dropbox\FAUSTO\SVILUPPI\MSX\CODE\C\MSXgl\projects\exsoccer/exsoccer_s2_b0.c:1721: else if (g_Ball.ShotActive == 2) speed = 3; // Slower Bounce
    00003747 DD 7E FF         [19] 9716 	ld	a, -1 (ix)
    0000374A D6 02            [ 7] 9717 	sub	a, #0x02
    0000374C 20 04            [12] 9718 	jr	NZ, 00113$
    0000374E DD 36 F8 03      [19] 9719 	ld	-8 (ix), #0x03
    00003752                       9720 00113$:
                                   9721 ;E:\Dropbox\FAUSTO\SVILUPPI\MSX\CODE\C\MSXgl\projects\exsoccer/exsoccer_s2_b0.c:1724: if (dx > -speed && dx < speed && dy > -speed && dy < speed) {
    00003752 DD 7E F8         [19] 9722 	ld	a, -8 (ix)
    00003755 DD 77 FA         [19] 9723 	ld	-6 (ix), a
    00003758 DD 36 FB 00      [19] 9724 	ld	-5 (ix), #0x00
    0000375C AF               [ 4] 9725 	xor	a, a
    0000375D DD 96 FA         [19] 9726 	sub	a, -6 (ix)
    00003760 DD 77 FC         [19] 9727 	ld	-4 (ix), a
    00003763 9F               [ 4] 9728 	sbc	a, a
    00003764 DD 96 FB         [19] 9729 	sub	a, -5 (ix)
    00003767 DD 77 FD         [19] 9730 	ld	-3 (ix), a
    0000376A DD 7E F4         [19] 9731 	ld	a, -12 (ix)
    0000376D DD 77 FE         [19] 9732 	ld	-2 (ix), a
    00003770 DD 7E F5         [19] 9733 	ld	a, -11 (ix)
    00003773 DD 77 FF         [19] 9734 	ld	-1 (ix), a
    00003776 DD 7E FC         [19] 9735 	ld	a, -4 (ix)
    00003779 DD 96 FE         [19] 9736 	sub	a, -2 (ix)
    0000377C DD 7E FD         [19] 9737 	ld	a, -3 (ix)
    0000377F DD 9E FF         [19] 9738 	sbc	a, -1 (ix)
    00003782 E2r87r37         [10] 9739 	jp	PO, 00377$
    00003785 EE 80            [ 7] 9740 	xor	a, #0x80
    00003787                       9741 00377$:
    00003787 F2rAFr3A         [10] 9742 	jp	P, 00134$
    0000378A DD 4E F8         [19] 9743 	ld	c, -8 (ix)
    0000378D 06 00            [ 7] 9744 	ld	b, #0x00
    0000378F DD 7E F4         [19] 9745 	ld	a, -12 (ix)
    00003792 91               [ 4] 9746 	sub	a, c
    00003793 DD 7E F5         [19] 9747 	ld	a, -11 (ix)
    00003796 98               [ 4] 9748 	sbc	a, b
    00003797 E2r9Cr37         [10] 9749 	jp	PO, 00378$
    0000379A EE 80            [ 7] 9750 	xor	a, #0x80
    0000379C                       9751 00378$:
    0000379C F2rAFr3A         [10] 9752 	jp	P, 00134$
    0000379F DD 6E F6         [19] 9753 	ld	l, -10 (ix)
                                   9754 ;	spillPairReg hl
                                   9755 ;	spillPairReg hl
    000037A2 DD 66 F7         [19] 9756 	ld	h, -9 (ix)
                                   9757 ;	spillPairReg hl
                                   9758 ;	spillPairReg hl
    000037A5 DD 7E FC         [19] 9759 	ld	a, -4 (ix)
    000037A8 95               [ 4] 9760 	sub	a, l
    000037A9 DD 7E FD         [19] 9761 	ld	a, -3 (ix)
    000037AC 9C               [ 4] 9762 	sbc	a, h
    000037AD E2rB2r37         [10] 9763 	jp	PO, 00379$
    000037B0 EE 80            [ 7] 9764 	xor	a, #0x80
    000037B2                       9765 00379$:
    000037B2 F2rAFr3A         [10] 9766 	jp	P, 00134$
    000037B5 DD 7E F6         [19] 9767 	ld	a, -10 (ix)
    000037B8 91               [ 4] 9768 	sub	a, c
    000037B9 DD 7E F7         [19] 9769 	ld	a, -9 (ix)
    000037BC 98               [ 4] 9770 	sbc	a, b
    000037BD E2rC2r37         [10] 9771 	jp	PO, 00380$
    000037C0 EE 80            [ 7] 9772 	xor	a, #0x80
    000037C2                       9773 00380$:
    000037C2 F2rAFr3A         [10] 9774 	jp	P, 00134$
                                   9775 ;E:\Dropbox\FAUSTO\SVILUPPI\MSX\CODE\C\MSXgl\projects\exsoccer/exsoccer_s2_b0.c:1728: if (isMovingToPlayer) {
    000037C5 DD 7E F1         [19] 9776 	ld	a, -15 (ix)
    000037C8 B7               [ 4] 9777 	or	a, a
    000037C9 28 13            [12] 9778 	jr	Z, 00131$
                                   9779 ;E:\Dropbox\FAUSTO\SVILUPPI\MSX\CODE\C\MSXgl\projects\exsoccer/exsoccer_s2_b0.c:1730: PutBallOnPlayerFeet(g_Ball.PassTargetPlayerId);
    000037CB DD 7E F0         [19] 9780 	ld	a, -16 (ix)
    000037CE CDr3Cr19         [17] 9781 	call	_PutBallOnPlayerFeet
                                   9782 ;E:\Dropbox\FAUSTO\SVILUPPI\MSX\CODE\C\MSXgl\projects\exsoccer/exsoccer_s2_b0.c:1731: g_Ball.PassTargetPlayerId = NO_VALUE;
    000037D1 21r10r00         [10] 9783 	ld	hl, #(_g_Ball + 16)
    000037D4 36 FF            [10] 9784 	ld	(hl), #0xff
                                   9785 ;E:\Dropbox\FAUSTO\SVILUPPI\MSX\CODE\C\MSXgl\projects\exsoccer/exsoccer_s2_b0.c:1732: g_Ball.Size = 1;
    000037D6 21r04r00         [10] 9786 	ld	hl, #(_g_Ball + 4)
    000037D9 36 01            [10] 9787 	ld	(hl), #0x01
                                   9788 ;E:\Dropbox\FAUSTO\SVILUPPI\MSX\CODE\C\MSXgl\projects\exsoccer/exsoccer_s2_b0.c:1733: return;
    000037DB C3rC7r3D         [10] 9789 	jp	00177$
    000037DE                       9790 00131$:
                                   9791 ;E:\Dropbox\FAUSTO\SVILUPPI\MSX\CODE\C\MSXgl\projects\exsoccer/exsoccer_s2_b0.c:1739: if (g_Ball.ShotActive == 1) {
    000037DE DD 7E F9         [19] 9792 	ld	a, -7 (ix)
    000037E1 B7               [ 4] 9793 	or	a, a
    000037E2 CAr98r3A         [10] 9794 	jp	Z, 00129$
                                   9795 ;E:\Dropbox\FAUSTO\SVILUPPI\MSX\CODE\C\MSXgl\projects\exsoccer/exsoccer_s2_b0.c:1743: bool isInsideField = (ty >= FIELD_BOUND_Y_TOP && ty <= FIELD_BOUND_Y_BOTTOM);
    000037E5 DD 73 FE         [19] 9796 	ld	-2 (ix), e
    000037E8 DD 72 FF         [19] 9797 	ld	-1 (ix), d
    000037EB DD 7E FE         [19] 9798 	ld	a, -2 (ix)
    000037EE D6 32            [ 7] 9799 	sub	a, #0x32
    000037F0 DD 7E FF         [19] 9800 	ld	a, -1 (ix)
    000037F3 17               [ 4] 9801 	rla
    000037F4 3F               [ 4] 9802 	ccf
    000037F5 1F               [ 4] 9803 	rra
    000037F6 DE 80            [ 7] 9804 	sbc	a, #0x80
    000037F8 38 12            [12] 9805 	jr	C, 00179$
    000037FA 3E AE            [ 7] 9806 	ld	a, #0xae
    000037FC DD BE FE         [19] 9807 	cp	a, -2 (ix)
    000037FF 3E 01            [ 7] 9808 	ld	a, #0x01
    00003801 DD 9E FF         [19] 9809 	sbc	a, -1 (ix)
    00003804 E2r09r38         [10] 9810 	jp	PO, 00381$
    00003807 EE 80            [ 7] 9811 	xor	a, #0x80
    00003809                       9812 00381$:
    00003809 F2r13r38         [10] 9813 	jp	P, 00180$
    0000380C                       9814 00179$:
    0000380C DD 36 FF 00      [19] 9815 	ld	-1 (ix), #0x00
    00003810 C3r17r38         [10] 9816 	jp	00181$
    00003813                       9817 00180$:
    00003813 DD 36 FF 01      [19] 9818 	ld	-1 (ix), #0x01
    00003817                       9819 00181$:
                                   9820 ;E:\Dropbox\FAUSTO\SVILUPPI\MSX\CODE\C\MSXgl\projects\exsoccer/exsoccer_s2_b0.c:1745: if (isInsideField) {
    00003817 DD 7E FF         [19] 9821 	ld	a, -1 (ix)
    0000381A B7               [ 4] 9822 	or	a, a
    0000381B CAr98r3A         [10] 9823 	jp	Z, 00129$
                                   9824 ;E:\Dropbox\FAUSTO\SVILUPPI\MSX\CODE\C\MSXgl\projects\exsoccer/exsoccer_s2_b0.c:1749: i16 totalVectorX = (i16)g_Ball.TargetX - (i16)g_Ball.PassStartX;
    0000381E 21r17r00         [10] 9825 	ld	hl, #(_g_Ball + 23)
    00003821 7E               [ 7] 9826 	ld	a, (hl)
    00003822 DD 77 FE         [19] 9827 	ld	-2 (ix), a
    00003825 23               [ 6] 9828 	inc	hl
    00003826 7E               [ 7] 9829 	ld	a, (hl)
    00003827 DD 77 FF         [19] 9830 	ld	-1 (ix), a
    0000382A DD 7E FE         [19] 9831 	ld	a, -2 (ix)
    0000382D DD 77 FA         [19] 9832 	ld	-6 (ix), a
    00003830 DD 7E FF         [19] 9833 	ld	a, -1 (ix)
    00003833 DD 77 FB         [19] 9834 	ld	-5 (ix), a
    00003836 21r11r00         [10] 9835 	ld	hl, #(_g_Ball + 17)
    00003839 7E               [ 7] 9836 	ld	a, (hl)
    0000383A DD 77 FE         [19] 9837 	ld	-2 (ix), a
    0000383D 23               [ 6] 9838 	inc	hl
    0000383E 7E               [ 7] 9839 	ld	a, (hl)
    0000383F DD 77 FF         [19] 9840 	ld	-1 (ix), a
    00003842 DD 7E FE         [19] 9841 	ld	a, -2 (ix)
    00003845 DD 77 FC         [19] 9842 	ld	-4 (ix), a
    00003848 DD 7E FF         [19] 9843 	ld	a, -1 (ix)
    0000384B DD 77 FD         [19] 9844 	ld	-3 (ix), a
    0000384E DD 7E FA         [19] 9845 	ld	a, -6 (ix)
    00003851 DD 96 FC         [19] 9846 	sub	a, -4 (ix)
    00003854 DD 77 FE         [19] 9847 	ld	-2 (ix), a
    00003857 DD 7E FB         [19] 9848 	ld	a, -5 (ix)
    0000385A DD 9E FD         [19] 9849 	sbc	a, -3 (ix)
    0000385D DD 77 FF         [19] 9850 	ld	-1 (ix), a
    00003860 DD 7E FE         [19] 9851 	ld	a, -2 (ix)
    00003863 DD 77 FC         [19] 9852 	ld	-4 (ix), a
    00003866 DD 7E FF         [19] 9853 	ld	a, -1 (ix)
    00003869 DD 77 FD         [19] 9854 	ld	-3 (ix), a
                                   9855 ;E:\Dropbox\FAUSTO\SVILUPPI\MSX\CODE\C\MSXgl\projects\exsoccer/exsoccer_s2_b0.c:1750: i16 totalVectorY = (i16)g_Ball.TargetY - (i16)g_Ball.PassStartY;
    0000386C 21r19r00         [10] 9856 	ld	hl, #(_g_Ball + 25)
    0000386F 7E               [ 7] 9857 	ld	a, (hl)
    00003870 DD 77 FE         [19] 9858 	ld	-2 (ix), a
    00003873 23               [ 6] 9859 	inc	hl
    00003874 7E               [ 7] 9860 	ld	a, (hl)
    00003875 DD 77 FF         [19] 9861 	ld	-1 (ix), a
    00003878 DD 7E FE         [19] 9862 	ld	a, -2 (ix)
    0000387B DD 77 F8         [19] 9863 	ld	-8 (ix), a
    0000387E DD 7E FF         [19] 9864 	ld	a, -1 (ix)
    00003881 DD 77 F9         [19] 9865 	ld	-7 (ix), a
    00003884 21r13r00         [10] 9866 	ld	hl, #(_g_Ball + 19)
    00003887 7E               [ 7] 9867 	ld	a, (hl)
    00003888 DD 77 FE         [19] 9868 	ld	-2 (ix), a
    0000388B 23               [ 6] 9869 	inc	hl
    0000388C 7E               [ 7] 9870 	ld	a, (hl)
    0000388D DD 77 FF         [19] 9871 	ld	-1 (ix), a
    00003890 DD 7E FE         [19] 9872 	ld	a, -2 (ix)
    00003893 DD 77 FA         [19] 9873 	ld	-6 (ix), a
    00003896 DD 7E FF         [19] 9874 	ld	a, -1 (ix)
    00003899 DD 77 FB         [19] 9875 	ld	-5 (ix), a
    0000389C DD 7E F8         [19] 9876 	ld	a, -8 (ix)
    0000389F DD 96 FA         [19] 9877 	sub	a, -6 (ix)
    000038A2 DD 77 FE         [19] 9878 	ld	-2 (ix), a
    000038A5 DD 7E F9         [19] 9879 	ld	a, -7 (ix)
    000038A8 DD 9E FB         [19] 9880 	sbc	a, -5 (ix)
    000038AB DD 77 FF         [19] 9881 	ld	-1 (ix), a
                                   9882 ;E:\Dropbox\FAUSTO\SVILUPPI\MSX\CODE\C\MSXgl\projects\exsoccer/exsoccer_s2_b0.c:1753: g_Ball.PassStartX = g_Ball.X;
    000038AE 21r11r00         [10] 9883 	ld	hl, #(_g_Ball + 17)
    000038B1 DD 7E F2         [19] 9884 	ld	a, -14 (ix)
    000038B4 77               [ 7] 9885 	ld	(hl), a
    000038B5 23               [ 6] 9886 	inc	hl
    000038B6 DD 7E F3         [19] 9887 	ld	a, -13 (ix)
    000038B9 77               [ 7] 9888 	ld	(hl), a
                                   9889 ;E:\Dropbox\FAUSTO\SVILUPPI\MSX\CODE\C\MSXgl\projects\exsoccer/exsoccer_s2_b0.c:1754: g_Ball.PassStartY = g_Ball.Y;
    000038BA 21r00r00         [10] 9890 	ld	hl, #_g_Ball
    000038BD 7E               [ 7] 9891 	ld	a, (hl)
    000038BE DD 77 FA         [19] 9892 	ld	-6 (ix), a
    000038C1 23               [ 6] 9893 	inc	hl
    000038C2 7E               [ 7] 9894 	ld	a, (hl)
    000038C3 DD 77 FB         [19] 9895 	ld	-5 (ix), a
    000038C6 21r13r00         [10] 9896 	ld	hl, #(_g_Ball + 19)
    000038C9 DD 7E FA         [19] 9897 	ld	a, -6 (ix)
    000038CC 77               [ 7] 9898 	ld	(hl), a
    000038CD 23               [ 6] 9899 	inc	hl
    000038CE DD 7E FB         [19] 9900 	ld	a, -5 (ix)
    000038D1 77               [ 7] 9901 	ld	(hl), a
                                   9902 ;E:\Dropbox\FAUSTO\SVILUPPI\MSX\CODE\C\MSXgl\projects\exsoccer/exsoccer_s2_b0.c:1757: i16 bounceDx = totalVectorX / 4; 
    000038D2 DD 7E FC         [19] 9903 	ld	a, -4 (ix)
    000038D5 DD 77 F9         [19] 9904 	ld	-7 (ix), a
    000038D8 DD 7E FD         [19] 9905 	ld	a, -3 (ix)
    000038DB DD 77 FA         [19] 9906 	ld	-6 (ix), a
    000038DE DD 7E F9         [19] 9907 	ld	a, -7 (ix)
    000038E1 DD 77 FC         [19] 9908 	ld	-4 (ix), a
    000038E4 DD 7E FA         [19] 9909 	ld	a, -6 (ix)
    000038E7 DD 77 FD         [19] 9910 	ld	-3 (ix), a
    000038EA DD CB FA 7E      [20] 9911 	bit	7, -6 (ix)
    000038EE 28 10            [12] 9912 	jr	Z, 00182$
    000038F0 DD 7E F9         [19] 9913 	ld	a, -7 (ix)
    000038F3 C6 03            [ 7] 9914 	add	a, #0x03
    000038F5 DD 77 FC         [19] 9915 	ld	-4 (ix), a
    000038F8 DD 7E FA         [19] 9916 	ld	a, -6 (ix)
    000038FB CE 00            [ 7] 9917 	adc	a, #0x00
    000038FD DD 77 FD         [19] 9918 	ld	-3 (ix), a
    00003900                       9919 00182$:
    00003900 DD CB FD 2E      [23] 9920 	sra	-3 (ix)
    00003904 DD CB FC 1E      [23] 9921 	rr	-4 (ix)
    00003908 DD CB FD 2E      [23] 9922 	sra	-3 (ix)
    0000390C DD CB FC 1E      [23] 9923 	rr	-4 (ix)
    00003910 DD 7E FC         [19] 9924 	ld	a, -4 (ix)
    00003913 DD 77 F6         [19] 9925 	ld	-10 (ix), a
    00003916 DD 7E FD         [19] 9926 	ld	a, -3 (ix)
    00003919 DD 77 F7         [19] 9927 	ld	-9 (ix), a
                                   9928 ;E:\Dropbox\FAUSTO\SVILUPPI\MSX\CODE\C\MSXgl\projects\exsoccer/exsoccer_s2_b0.c:1758: i16 bounceDy = totalVectorY / 4; 
    0000391C DD 7E FE         [19] 9929 	ld	a, -2 (ix)
    0000391F DD 77 FB         [19] 9930 	ld	-5 (ix), a
    00003922 DD 7E FF         [19] 9931 	ld	a, -1 (ix)
    00003925 DD 77 FC         [19] 9932 	ld	-4 (ix), a
    00003928 DD 7E FB         [19] 9933 	ld	a, -5 (ix)
    0000392B DD 77 FE         [19] 9934 	ld	-2 (ix), a
    0000392E DD 7E FC         [19] 9935 	ld	a, -4 (ix)
    00003931 DD 77 FF         [19] 9936 	ld	-1 (ix), a
    00003934 DD CB FC 7E      [20] 9937 	bit	7, -4 (ix)
    00003938 28 10            [12] 9938 	jr	Z, 00183$
    0000393A DD 7E FB         [19] 9939 	ld	a, -5 (ix)
    0000393D C6 03            [ 7] 9940 	add	a, #0x03
    0000393F DD 77 FE         [19] 9941 	ld	-2 (ix), a
    00003942 DD 7E FC         [19] 9942 	ld	a, -4 (ix)
    00003945 CE 00            [ 7] 9943 	adc	a, #0x00
    00003947 DD 77 FF         [19] 9944 	ld	-1 (ix), a
    0000394A                       9945 00183$:
    0000394A DD CB FF 2E      [23] 9946 	sra	-1 (ix)
    0000394E DD CB FE 1E      [23] 9947 	rr	-2 (ix)
    00003952 DD CB FF 2E      [23] 9948 	sra	-1 (ix)
    00003956 DD CB FE 1E      [23] 9949 	rr	-2 (ix)
    0000395A DD 7E FE         [19] 9950 	ld	a, -2 (ix)
    0000395D DD 77 F8         [19] 9951 	ld	-8 (ix), a
    00003960 DD 7E FF         [19] 9952 	ld	a, -1 (ix)
    00003963 DD 77 F9         [19] 9953 	ld	-7 (ix), a
                                   9954 ;E:\Dropbox\FAUSTO\SVILUPPI\MSX\CODE\C\MSXgl\projects\exsoccer/exsoccer_s2_b0.c:1761: i16 newTx = (i16)g_Ball.X + bounceDx;
    00003966 21r02r00         [10] 9955 	ld	hl, #(_g_Ball + 2)
    00003969 7E               [ 7] 9956 	ld	a, (hl)
    0000396A DD 77 FE         [19] 9957 	ld	-2 (ix), a
    0000396D 23               [ 6] 9958 	inc	hl
    0000396E 7E               [ 7] 9959 	ld	a, (hl)
    0000396F DD 77 FF         [19] 9960 	ld	-1 (ix), a
    00003972 DD 7E FE         [19] 9961 	ld	a, -2 (ix)
    00003975 DD 77 FC         [19] 9962 	ld	-4 (ix), a
    00003978 DD 7E FF         [19] 9963 	ld	a, -1 (ix)
    0000397B DD 77 FD         [19] 9964 	ld	-3 (ix), a
    0000397E DD 7E F6         [19] 9965 	ld	a, -10 (ix)
    00003981 DD 86 FC         [19] 9966 	add	a, -4 (ix)
    00003984 DD 77 FE         [19] 9967 	ld	-2 (ix), a
    00003987 DD 7E F7         [19] 9968 	ld	a, -9 (ix)
    0000398A DD 8E FD         [19] 9969 	adc	a, -3 (ix)
    0000398D DD 77 FF         [19] 9970 	ld	-1 (ix), a
    00003990 DD 7E FE         [19] 9971 	ld	a, -2 (ix)
    00003993 DD 77 FA         [19] 9972 	ld	-6 (ix), a
    00003996 DD 7E FF         [19] 9973 	ld	a, -1 (ix)
    00003999 DD 77 FB         [19] 9974 	ld	-5 (ix), a
                                   9975 ;E:\Dropbox\FAUSTO\SVILUPPI\MSX\CODE\C\MSXgl\projects\exsoccer/exsoccer_s2_b0.c:1762: i16 newTy = (i16)g_Ball.Y + bounceDy;
    0000399C 21r00r00         [10] 9976 	ld	hl, #_g_Ball
    0000399F 7E               [ 7] 9977 	ld	a, (hl)
    000039A0 DD 77 FE         [19] 9978 	ld	-2 (ix), a
    000039A3 23               [ 6] 9979 	inc	hl
    000039A4 7E               [ 7] 9980 	ld	a, (hl)
    000039A5 DD 77 FF         [19] 9981 	ld	-1 (ix), a
    000039A8 DD 7E FE         [19] 9982 	ld	a, -2 (ix)
    000039AB DD 77 FC         [19] 9983 	ld	-4 (ix), a
    000039AE DD 7E FF         [19] 9984 	ld	a, -1 (ix)
    000039B1 DD 77 FD         [19] 9985 	ld	-3 (ix), a
    000039B4 DD 7E FC         [19] 9986 	ld	a, -4 (ix)
    000039B7 DD 86 F8         [19] 9987 	add	a, -8 (ix)
    000039BA DD 77 FE         [19] 9988 	ld	-2 (ix), a
    000039BD DD 7E FD         [19] 9989 	ld	a, -3 (ix)
    000039C0 DD 8E F9         [19] 9990 	adc	a, -7 (ix)
    000039C3 DD 77 FF         [19] 9991 	ld	-1 (ix), a
    000039C6 DD 7E FE         [19] 9992 	ld	a, -2 (ix)
    000039C9 DD 77 FC         [19] 9993 	ld	-4 (ix), a
    000039CC DD 7E FF         [19] 9994 	ld	a, -1 (ix)
    000039CF DD 77 FD         [19] 9995 	ld	-3 (ix), a
                                   9996 ;E:\Dropbox\FAUSTO\SVILUPPI\MSX\CODE\C\MSXgl\projects\exsoccer/exsoccer_s2_b0.c:1765: if (newTx < FIELD_BOUND_X_LEFT) newTx = FIELD_BOUND_X_LEFT;
    000039D2 DD 7E FA         [19] 9997 	ld	a, -6 (ix)
    000039D5 DD 77 FE         [19] 9998 	ld	-2 (ix), a
    000039D8 DD 7E FB         [19] 9999 	ld	a, -5 (ix)
    000039DB DD 77 FF         [19]10000 	ld	-1 (ix), a
    000039DE DD 7E FE         [19]10001 	ld	a, -2 (ix)
    000039E1 D6 0A            [ 7]10002 	sub	a, #0x0a
    000039E3 DD 7E FF         [19]10003 	ld	a, -1 (ix)
    000039E6 17               [ 4]10004 	rla
    000039E7 3F               [ 4]10005 	ccf
    000039E8 1F               [ 4]10006 	rra
    000039E9 DE 80            [ 7]10007 	sbc	a, #0x80
    000039EB 30 0B            [12]10008 	jr	NC, 00117$
    000039ED DD 36 FA 0A      [19]10009 	ld	-6 (ix), #0x0a
    000039F1 DD 36 FB 00      [19]10010 	ld	-5 (ix), #0
    000039F5 C3r12r3A         [10]10011 	jp	00118$
    000039F8                      10012 00117$:
                                  10013 ;E:\Dropbox\FAUSTO\SVILUPPI\MSX\CODE\C\MSXgl\projects\exsoccer/exsoccer_s2_b0.c:1766: else if (newTx > FIELD_BOUND_X_RIGHT) newTx = FIELD_BOUND_X_RIGHT;
    000039F8 3E F6            [ 7]10014 	ld	a, #0xf6
    000039FA DD BE FE         [19]10015 	cp	a, -2 (ix)
    000039FD 3E 00            [ 7]10016 	ld	a, #0x00
    000039FF DD 9E FF         [19]10017 	sbc	a, -1 (ix)
    00003A02 E2r07r3A         [10]10018 	jp	PO, 00382$
    00003A05 EE 80            [ 7]10019 	xor	a, #0x80
    00003A07                      10020 00382$:
    00003A07 F2r12r3A         [10]10021 	jp	P, 00118$
    00003A0A DD 36 FA F6      [19]10022 	ld	-6 (ix), #0xf6
    00003A0E DD 36 FB 00      [19]10023 	ld	-5 (ix), #0
    00003A12                      10024 00118$:
                                  10025 ;E:\Dropbox\FAUSTO\SVILUPPI\MSX\CODE\C\MSXgl\projects\exsoccer/exsoccer_s2_b0.c:1768: if (newTy < FIELD_BOUND_Y_TOP) newTy = FIELD_BOUND_Y_TOP;
    00003A12 DD 4E FC         [19]10026 	ld	c, -4 (ix)
    00003A15 DD 46 FD         [19]10027 	ld	b, -3 (ix)
    00003A18 79               [ 4]10028 	ld	a, c
    00003A19 D6 32            [ 7]10029 	sub	a, #0x32
    00003A1B 78               [ 4]10030 	ld	a, b
    00003A1C 17               [ 4]10031 	rla
    00003A1D 3F               [ 4]10032 	ccf
    00003A1E 1F               [ 4]10033 	rra
    00003A1F DE 80            [ 7]10034 	sbc	a, #0x80
    00003A21 30 0B            [12]10035 	jr	NC, 00122$
    00003A23 DD 36 FC 32      [19]10036 	ld	-4 (ix), #0x32
    00003A27 DD 36 FD 00      [19]10037 	ld	-3 (ix), #0
    00003A2B C3r44r3A         [10]10038 	jp	00123$
    00003A2E                      10039 00122$:
                                  10040 ;E:\Dropbox\FAUSTO\SVILUPPI\MSX\CODE\C\MSXgl\projects\exsoccer/exsoccer_s2_b0.c:1769: else if (newTy > FIELD_BOUND_Y_BOTTOM) newTy = FIELD_BOUND_Y_BOTTOM;
    00003A2E 3E AE            [ 7]10041 	ld	a, #0xae
    00003A30 B9               [ 4]10042 	cp	a, c
    00003A31 3E 01            [ 7]10043 	ld	a, #0x01
    00003A33 98               [ 4]10044 	sbc	a, b
    00003A34 E2r39r3A         [10]10045 	jp	PO, 00383$
    00003A37 EE 80            [ 7]10046 	xor	a, #0x80
    00003A39                      10047 00383$:
    00003A39 F2r44r3A         [10]10048 	jp	P, 00123$
    00003A3C DD 36 FC AE      [19]10049 	ld	-4 (ix), #0xae
    00003A40 DD 36 FD 01      [19]10050 	ld	-3 (ix), #0x01
    00003A44                      10051 00123$:
                                  10052 ;E:\Dropbox\FAUSTO\SVILUPPI\MSX\CODE\C\MSXgl\projects\exsoccer/exsoccer_s2_b0.c:1771: g_Ball.TargetX = newTx;
    00003A44 21r17r00         [10]10053 	ld	hl, #(_g_Ball + 23)
    00003A47 DD 7E FA         [19]10054 	ld	a, -6 (ix)
    00003A4A 77               [ 7]10055 	ld	(hl), a
    00003A4B 23               [ 6]10056 	inc	hl
    00003A4C DD 7E FB         [19]10057 	ld	a, -5 (ix)
    00003A4F 77               [ 7]10058 	ld	(hl), a
                                  10059 ;E:\Dropbox\FAUSTO\SVILUPPI\MSX\CODE\C\MSXgl\projects\exsoccer/exsoccer_s2_b0.c:1772: g_Ball.TargetY = newTy;
    00003A50 21r19r00         [10]10060 	ld	hl, #(_g_Ball + 25)
    00003A53 DD 7E FC         [19]10061 	ld	a, -4 (ix)
    00003A56 77               [ 7]10062 	ld	(hl), a
    00003A57 23               [ 6]10063 	inc	hl
    00003A58 DD 7E FD         [19]10064 	ld	a, -3 (ix)
    00003A5B 77               [ 7]10065 	ld	(hl), a
                                  10066 ;E:\Dropbox\FAUSTO\SVILUPPI\MSX\CODE\C\MSXgl\projects\exsoccer/exsoccer_s2_b0.c:1775: g_Ball.PassTotalDist = (u16)(Math_Abs32(bounceDx) + Math_Abs32(bounceDy));
    00003A5C DD 5E F6         [19]10067 	ld	e, -10 (ix)
    00003A5F DD 7E F7         [19]10068 	ld	a, -9 (ix)
    00003A62 57               [ 4]10069 	ld	d, a
    00003A63 07               [ 4]10070 	rlca
    00003A64 ED 62            [15]10071 	sbc	hl, hl
    00003A66 CDr7Fr2C         [17]10072 	call	_Math_Abs32
    00003A69 E5               [11]10073 	push	hl
    00003A6A FD E1            [14]10074 	pop	iy
    00003A6C 4B               [ 4]10075 	ld	c, e
    00003A6D 42               [ 4]10076 	ld	b, d
    00003A6E DD 5E F8         [19]10077 	ld	e, -8 (ix)
    00003A71 DD 7E F9         [19]10078 	ld	a, -7 (ix)
    00003A74 57               [ 4]10079 	ld	d, a
    00003A75 07               [ 4]10080 	rlca
    00003A76 ED 62            [15]10081 	sbc	hl, hl
    00003A78 C5               [11]10082 	push	bc
    00003A79 FD E5            [15]10083 	push	iy
    00003A7B CDr7Fr2C         [17]10084 	call	_Math_Abs32
    00003A7E FD E1            [14]10085 	pop	iy
    00003A80 C1               [10]10086 	pop	bc
    00003A81 EB               [ 4]10087 	ex	de, hl
    00003A82 09               [11]10088 	add	hl, bc
    00003A83 EB               [ 4]10089 	ex	de, hl
    00003A84 ED 53r15r00      [20]10090 	ld	((_g_Ball + 21)), de
                                  10091 ;E:\Dropbox\FAUSTO\SVILUPPI\MSX\CODE\C\MSXgl\projects\exsoccer/exsoccer_s2_b0.c:1777: if (g_Ball.PassTotalDist > 5) {
    00003A88 3E 05            [ 7]10092 	ld	a, #0x05
    00003A8A BB               [ 4]10093 	cp	a, e
    00003A8B 3E 00            [ 7]10094 	ld	a, #0x00
    00003A8D 9A               [ 4]10095 	sbc	a, d
    00003A8E 30 08            [12]10096 	jr	NC, 00129$
                                  10097 ;E:\Dropbox\FAUSTO\SVILUPPI\MSX\CODE\C\MSXgl\projects\exsoccer/exsoccer_s2_b0.c:1778: g_Ball.ShotActive = 2; // Enter Bounce State
    00003A90 21r1Br00         [10]10098 	ld	hl, #(_g_Ball + 27)
    00003A93 36 02            [10]10099 	ld	(hl), #0x02
                                  10100 ;E:\Dropbox\FAUSTO\SVILUPPI\MSX\CODE\C\MSXgl\projects\exsoccer/exsoccer_s2_b0.c:1779: return; 
    00003A95 C3rC7r3D         [10]10101 	jp	00177$
    00003A98                      10102 00129$:
                                  10103 ;E:\Dropbox\FAUSTO\SVILUPPI\MSX\CODE\C\MSXgl\projects\exsoccer/exsoccer_s2_b0.c:1785: g_Ball.ShotActive = 0;
    00003A98 21r1Br00         [10]10104 	ld	hl, #(_g_Ball + 27)
    00003A9B 36 00            [10]10105 	ld	(hl), #0x00
                                  10106 ;E:\Dropbox\FAUSTO\SVILUPPI\MSX\CODE\C\MSXgl\projects\exsoccer/exsoccer_s2_b0.c:1786: g_Ball.PassTargetPlayerId = NO_VALUE;
    00003A9D 21r10r00         [10]10107 	ld	hl, #(_g_Ball + 16)
    00003AA0 36 FF            [10]10108 	ld	(hl), #0xff
                                  10109 ;E:\Dropbox\FAUSTO\SVILUPPI\MSX\CODE\C\MSXgl\projects\exsoccer/exsoccer_s2_b0.c:1787: g_Ball.PossessionPlayerId = NO_VALUE;
    00003AA2 21r06r00         [10]10110 	ld	hl, #(_g_Ball + 6)
    00003AA5 36 FF            [10]10111 	ld	(hl), #0xff
                                  10112 ;E:\Dropbox\FAUSTO\SVILUPPI\MSX\CODE\C\MSXgl\projects\exsoccer/exsoccer_s2_b0.c:1788: g_Ball.Size = 2;
    00003AA7 21r04r00         [10]10113 	ld	hl, #(_g_Ball + 4)
    00003AAA 36 02            [10]10114 	ld	(hl), #0x02
                                  10115 ;E:\Dropbox\FAUSTO\SVILUPPI\MSX\CODE\C\MSXgl\projects\exsoccer/exsoccer_s2_b0.c:1789: return;
    00003AAC C3rC7r3D         [10]10116 	jp	00177$
    00003AAF                      10117 00134$:
                                  10118 ;E:\Dropbox\FAUSTO\SVILUPPI\MSX\CODE\C\MSXgl\projects\exsoccer/exsoccer_s2_b0.c:1794: if (Math_Abs32(dx) > Math_Abs32(dy)) {
    00003AAF DD 7E F4         [19]10119 	ld	a, -12 (ix)
    00003AB2 DD 77 E8         [19]10120 	ld	-24 (ix), a
    00003AB5 DD 7E F5         [19]10121 	ld	a, -11 (ix)
    00003AB8 DD 77 E9         [19]10122 	ld	-23 (ix), a
    00003ABB 07               [ 4]10123 	rlca
    00003ABC 9F               [ 4]10124 	sbc	a, a
    00003ABD DD 77 EA         [19]10125 	ld	-22 (ix), a
    00003AC0 DD 77 EB         [19]10126 	ld	-21 (ix), a
    00003AC3 D1               [10]10127 	pop	de
    00003AC4 D5               [11]10128 	push	de
    00003AC5 DD 6E EA         [19]10129 	ld	l, -22 (ix)
                                  10130 ;	spillPairReg hl
                                  10131 ;	spillPairReg hl
    00003AC8 DD 66 EB         [19]10132 	ld	h, -21 (ix)
                                  10133 ;	spillPairReg hl
                                  10134 ;	spillPairReg hl
    00003ACB CDr7Fr2C         [17]10135 	call	_Math_Abs32
    00003ACE 4B               [ 4]10136 	ld	c, e
    00003ACF 42               [ 4]10137 	ld	b, d
    00003AD0 DD 7E F6         [19]10138 	ld	a, -10 (ix)
    00003AD3 DD 77 EC         [19]10139 	ld	-20 (ix), a
    00003AD6 DD 7E F7         [19]10140 	ld	a, -9 (ix)
    00003AD9 DD 77 ED         [19]10141 	ld	-19 (ix), a
    00003ADC 07               [ 4]10142 	rlca
    00003ADD 9F               [ 4]10143 	sbc	a, a
    00003ADE DD 77 EE         [19]10144 	ld	-18 (ix), a
    00003AE1 DD 77 EF         [19]10145 	ld	-17 (ix), a
    00003AE4 E5               [11]10146 	push	hl
    00003AE5 C5               [11]10147 	push	bc
    00003AE6 DD 5E EC         [19]10148 	ld	e, -20 (ix)
    00003AE9 DD 56 ED         [19]10149 	ld	d, -19 (ix)
    00003AEC DD 6E EE         [19]10150 	ld	l, -18 (ix)
                                  10151 ;	spillPairReg hl
                                  10152 ;	spillPairReg hl
    00003AEF DD 66 EF         [19]10153 	ld	h, -17 (ix)
                                  10154 ;	spillPairReg hl
                                  10155 ;	spillPairReg hl
    00003AF2 CDr7Fr2C         [17]10156 	call	_Math_Abs32
    00003AF5 DD 73 F0         [19]10157 	ld	-16 (ix), e
    00003AF8 DD 72 F1         [19]10158 	ld	-15 (ix), d
    00003AFB DD 75 F2         [19]10159 	ld	-14 (ix), l
    00003AFE DD 74 F3         [19]10160 	ld	-13 (ix), h
    00003B01 C1               [10]10161 	pop	bc
    00003B02 E1               [10]10162 	pop	hl
    00003B03 DD 7E F0         [19]10163 	ld	a, -16 (ix)
    00003B06 91               [ 4]10164 	sub	a, c
    00003B07 DD 7E F1         [19]10165 	ld	a, -15 (ix)
    00003B0A 98               [ 4]10166 	sbc	a, b
    00003B0B DD 7E F2         [19]10167 	ld	a, -14 (ix)
    00003B0E 9D               [ 4]10168 	sbc	a, l
    00003B0F DD 7E F3         [19]10169 	ld	a, -13 (ix)
    00003B12 9C               [ 4]10170 	sbc	a, h
    00003B13 E2r18r3B         [10]10171 	jp	PO, 00384$
    00003B16 EE 80            [ 7]10172 	xor	a, #0x80
    00003B18                      10173 00384$:
    00003B18 F2rA4r3B         [10]10174 	jp	P, 00143$
                                  10175 ;E:\Dropbox\FAUSTO\SVILUPPI\MSX\CODE\C\MSXgl\projects\exsoccer/exsoccer_s2_b0.c:1795: g_Ball.X += (dx > 0 ? speed : -speed);
    00003B1B ED 4Br02r00      [20]10176 	ld	bc, (#(_g_Ball + 2) + 0)
    00003B1F AF               [ 4]10177 	xor	a, a
    00003B20 DD BE FE         [19]10178 	cp	a, -2 (ix)
    00003B23 DD 9E FF         [19]10179 	sbc	a, -1 (ix)
    00003B26 E2r2Br3B         [10]10180 	jp	PO, 00385$
    00003B29 EE 80            [ 7]10181 	xor	a, #0x80
    00003B2B                      10182 00385$:
    00003B2B F2r37r3B         [10]10183 	jp	P, 00184$
    00003B2E DD 5E FA         [19]10184 	ld	e, -6 (ix)
    00003B31 DD 56 FB         [19]10185 	ld	d, -5 (ix)
    00003B34 C3r3Dr3B         [10]10186 	jp	00185$
    00003B37                      10187 00184$:
    00003B37 DD 5E FC         [19]10188 	ld	e, -4 (ix)
    00003B3A DD 56 FD         [19]10189 	ld	d, -3 (ix)
    00003B3D                      10190 00185$:
    00003B3D EB               [ 4]10191 	ex	de, hl
    00003B3E 09               [11]10192 	add	hl, bc
    00003B3F EB               [ 4]10193 	ex	de, hl
    00003B40 ED 53r02r00      [20]10194 	ld	((_g_Ball + 2)), de
                                  10195 ;E:\Dropbox\FAUSTO\SVILUPPI\MSX\CODE\C\MSXgl\projects\exsoccer/exsoccer_s2_b0.c:1796: if (dx != 0) g_Ball.Y += (dy * speed) / Math_Abs32(dx);
    00003B44 DD 7E F5         [19]10196 	ld	a, -11 (ix)
    00003B47 DD B6 F4         [19]10197 	or	a, -12 (ix)
    00003B4A CAr3Dr3C         [10]10198 	jp	Z, 00144$
    00003B4D ED 4Br00r00      [20]10199 	ld	bc, (#_g_Ball + 0)
    00003B51 DD 5E F8         [19]10200 	ld	e, -8 (ix)
    00003B54 16 00            [ 7]10201 	ld	d, #0x00
    00003B56 C5               [11]10202 	push	bc
    00003B57 DD 6E F6         [19]10203 	ld	l, -10 (ix)
                                  10204 ;	spillPairReg hl
                                  10205 ;	spillPairReg hl
    00003B5A DD 66 F7         [19]10206 	ld	h, -9 (ix)
                                  10207 ;	spillPairReg hl
                                  10208 ;	spillPairReg hl
    00003B5D CDr00r00         [17]10209 	call	__mulint
    00003B60 D5               [11]10210 	push	de
    00003B61 DD 5E E8         [19]10211 	ld	e, -24 (ix)
    00003B64 DD 56 E9         [19]10212 	ld	d, -23 (ix)
    00003B67 DD 6E EA         [19]10213 	ld	l, -22 (ix)
                                  10214 ;	spillPairReg hl
                                  10215 ;	spillPairReg hl
    00003B6A DD 66 EB         [19]10216 	ld	h, -21 (ix)
                                  10217 ;	spillPairReg hl
                                  10218 ;	spillPairReg hl
    00003B6D CDr7Fr2C         [17]10219 	call	_Math_Abs32
    00003B70 D5               [11]10220 	push	de
    00003B71 FD E1            [14]10221 	pop	iy
    00003B73 D1               [10]10222 	pop	de
    00003B74 C1               [10]10223 	pop	bc
    00003B75 DD 73 FC         [19]10224 	ld	-4 (ix), e
    00003B78 7A               [ 4]10225 	ld	a, d
    00003B79 DD 77 FD         [19]10226 	ld	-3 (ix), a
    00003B7C 07               [ 4]10227 	rlca
    00003B7D 9F               [ 4]10228 	sbc	a, a
    00003B7E DD 77 FE         [19]10229 	ld	-2 (ix), a
    00003B81 DD 77 FF         [19]10230 	ld	-1 (ix), a
    00003B84 C5               [11]10231 	push	bc
    00003B85 E5               [11]10232 	push	hl
    00003B86 FD E5            [15]10233 	push	iy
    00003B88 DD 5E FC         [19]10234 	ld	e, -4 (ix)
    00003B8B DD 56 FD         [19]10235 	ld	d, -3 (ix)
    00003B8E DD 6E FE         [19]10236 	ld	l, -2 (ix)
                                  10237 ;	spillPairReg hl
                                  10238 ;	spillPairReg hl
    00003B91 DD 66 FF         [19]10239 	ld	h, -1 (ix)
                                  10240 ;	spillPairReg hl
                                  10241 ;	spillPairReg hl
    00003B94 CDr00r00         [17]10242 	call	__divslong
    00003B97 F1               [10]10243 	pop	af
    00003B98 F1               [10]10244 	pop	af
    00003B99 C1               [10]10245 	pop	bc
    00003B9A EB               [ 4]10246 	ex	de, hl
    00003B9B 09               [11]10247 	add	hl, bc
    00003B9C EB               [ 4]10248 	ex	de, hl
    00003B9D ED 53r00r00      [20]10249 	ld	(_g_Ball), de
    00003BA1 C3r3Dr3C         [10]10250 	jp	00144$
    00003BA4                      10251 00143$:
                                  10252 ;E:\Dropbox\FAUSTO\SVILUPPI\MSX\CODE\C\MSXgl\projects\exsoccer/exsoccer_s2_b0.c:1798: g_Ball.Y += (dy > 0 ? speed : -speed);
    00003BA4 11r00r00         [10]10253 	ld	de, #_g_Ball
    00003BA7 21r00r00         [10]10254 	ld	hl, #_g_Ball
    00003BAA 7E               [ 7]10255 	ld	a, (hl)
    00003BAB DD 77 FE         [19]10256 	ld	-2 (ix), a
    00003BAE 23               [ 6]10257 	inc	hl
    00003BAF 7E               [ 7]10258 	ld	a, (hl)
    00003BB0 DD 77 FF         [19]10259 	ld	-1 (ix), a
    00003BB3 DD 4E F6         [19]10260 	ld	c, -10 (ix)
    00003BB6 DD 46 F7         [19]10261 	ld	b, -9 (ix)
    00003BB9 AF               [ 4]10262 	xor	a, a
    00003BBA B9               [ 4]10263 	cp	a, c
    00003BBB 98               [ 4]10264 	sbc	a, b
    00003BBC E2rC1r3B         [10]10265 	jp	PO, 00386$
    00003BBF EE 80            [ 7]10266 	xor	a, #0x80
    00003BC1                      10267 00386$:
    00003BC1 F2rCDr3B         [10]10268 	jp	P, 00186$
    00003BC4 DD 6E FA         [19]10269 	ld	l, -6 (ix)
                                  10270 ;	spillPairReg hl
                                  10271 ;	spillPairReg hl
    00003BC7 DD 66 FB         [19]10272 	ld	h, -5 (ix)
                                  10273 ;	spillPairReg hl
                                  10274 ;	spillPairReg hl
    00003BCA C3rD3r3B         [10]10275 	jp	00187$
    00003BCD                      10276 00186$:
    00003BCD DD 6E FC         [19]10277 	ld	l, -4 (ix)
                                  10278 ;	spillPairReg hl
                                  10279 ;	spillPairReg hl
    00003BD0 DD 66 FD         [19]10280 	ld	h, -3 (ix)
                                  10281 ;	spillPairReg hl
                                  10282 ;	spillPairReg hl
    00003BD3                      10283 00187$:
    00003BD3 DD 4E FE         [19]10284 	ld	c, -2 (ix)
    00003BD6 DD 46 FF         [19]10285 	ld	b, -1 (ix)
    00003BD9 09               [11]10286 	add	hl, bc
    00003BDA 4D               [ 4]10287 	ld	c, l
    00003BDB 44               [ 4]10288 	ld	b, h
    00003BDC 79               [ 4]10289 	ld	a, c
    00003BDD 12               [ 7]10290 	ld	(de), a
    00003BDE 13               [ 6]10291 	inc	de
    00003BDF 78               [ 4]10292 	ld	a, b
    00003BE0 12               [ 7]10293 	ld	(de), a
                                  10294 ;E:\Dropbox\FAUSTO\SVILUPPI\MSX\CODE\C\MSXgl\projects\exsoccer/exsoccer_s2_b0.c:1799: if (dy != 0) g_Ball.X += (dx * speed) / Math_Abs32(dy);
    00003BE1 DD 7E F7         [19]10295 	ld	a, -9 (ix)
    00003BE4 DD B6 F6         [19]10296 	or	a, -10 (ix)
    00003BE7 28 54            [12]10297 	jr	Z, 00144$
    00003BE9 ED 4Br02r00      [20]10298 	ld	bc, (#(_g_Ball + 2) + 0)
    00003BED DD 5E F8         [19]10299 	ld	e, -8 (ix)
    00003BF0 16 00            [ 7]10300 	ld	d, #0x00
    00003BF2 C5               [11]10301 	push	bc
    00003BF3 DD 6E F4         [19]10302 	ld	l, -12 (ix)
                                  10303 ;	spillPairReg hl
                                  10304 ;	spillPairReg hl
    00003BF6 DD 66 F5         [19]10305 	ld	h, -11 (ix)
                                  10306 ;	spillPairReg hl
                                  10307 ;	spillPairReg hl
    00003BF9 CDr00r00         [17]10308 	call	__mulint
    00003BFC D5               [11]10309 	push	de
    00003BFD DD 5E EC         [19]10310 	ld	e, -20 (ix)
    00003C00 DD 56 ED         [19]10311 	ld	d, -19 (ix)
    00003C03 DD 6E EE         [19]10312 	ld	l, -18 (ix)
                                  10313 ;	spillPairReg hl
                                  10314 ;	spillPairReg hl
    00003C06 DD 66 EF         [19]10315 	ld	h, -17 (ix)
                                  10316 ;	spillPairReg hl
                                  10317 ;	spillPairReg hl
    00003C09 CDr7Fr2C         [17]10318 	call	_Math_Abs32
    00003C0C D5               [11]10319 	push	de
    00003C0D FD E1            [14]10320 	pop	iy
    00003C0F D1               [10]10321 	pop	de
    00003C10 C1               [10]10322 	pop	bc
    00003C11 DD 73 FC         [19]10323 	ld	-4 (ix), e
    00003C14 7A               [ 4]10324 	ld	a, d
    00003C15 DD 77 FD         [19]10325 	ld	-3 (ix), a
    00003C18 07               [ 4]10326 	rlca
    00003C19 9F               [ 4]10327 	sbc	a, a
    00003C1A DD 77 FE         [19]10328 	ld	-2 (ix), a
    00003C1D DD 77 FF         [19]10329 	ld	-1 (ix), a
    00003C20 C5               [11]10330 	push	bc
    00003C21 E5               [11]10331 	push	hl
    00003C22 FD E5            [15]10332 	push	iy
    00003C24 DD 5E FC         [19]10333 	ld	e, -4 (ix)
    00003C27 DD 56 FD         [19]10334 	ld	d, -3 (ix)
    00003C2A DD 6E FE         [19]10335 	ld	l, -2 (ix)
                                  10336 ;	spillPairReg hl
                                  10337 ;	spillPairReg hl
    00003C2D DD 66 FF         [19]10338 	ld	h, -1 (ix)
                                  10339 ;	spillPairReg hl
                                  10340 ;	spillPairReg hl
    00003C30 CDr00r00         [17]10341 	call	__divslong
    00003C33 F1               [10]10342 	pop	af
    00003C34 F1               [10]10343 	pop	af
    00003C35 C1               [10]10344 	pop	bc
    00003C36 EB               [ 4]10345 	ex	de, hl
    00003C37 09               [11]10346 	add	hl, bc
    00003C38 EB               [ 4]10347 	ex	de, hl
    00003C39 ED 53r02r00      [20]10348 	ld	((_g_Ball + 2)), de
    00003C3D                      10349 00144$:
                                  10350 ;E:\Dropbox\FAUSTO\SVILUPPI\MSX\CODE\C\MSXgl\projects\exsoccer/exsoccer_s2_b0.c:1803: i16 diffStartX = (i16)g_Ball.X - (i16)g_Ball.PassStartX;
    00003C3D ED 4Br02r00      [20]10351 	ld	bc, (#(_g_Ball + 2) + 0)
    00003C41 2Ar11r00         [16]10352 	ld	hl, (#_g_Ball + 17)
    00003C44 79               [ 4]10353 	ld	a, c
    00003C45 95               [ 4]10354 	sub	a, l
    00003C46 4F               [ 4]10355 	ld	c, a
    00003C47 78               [ 4]10356 	ld	a, b
    00003C48 9C               [ 4]10357 	sbc	a, h
    00003C49 47               [ 4]10358 	ld	b, a
                                  10359 ;E:\Dropbox\FAUSTO\SVILUPPI\MSX\CODE\C\MSXgl\projects\exsoccer/exsoccer_s2_b0.c:1804: i16 diffStartY = (i16)g_Ball.Y - (i16)g_Ball.PassStartY;
    00003C4A ED 5Br00r00      [20]10360 	ld	de, (#_g_Ball + 0)
    00003C4E 2Ar13r00         [16]10361 	ld	hl, (#_g_Ball + 19)
    00003C51 7B               [ 4]10362 	ld	a, e
    00003C52 95               [ 4]10363 	sub	a, l
    00003C53 5F               [ 4]10364 	ld	e, a
    00003C54 7A               [ 4]10365 	ld	a, d
    00003C55 9C               [ 4]10366 	sbc	a, h
    00003C56 57               [ 4]10367 	ld	d, a
                                  10368 ;E:\Dropbox\FAUSTO\SVILUPPI\MSX\CODE\C\MSXgl\projects\exsoccer/exsoccer_s2_b0.c:1805: u16 distCovered = (u16)(Math_Abs32(diffStartX) + Math_Abs32(diffStartY));
    00003C57 78               [ 4]10369 	ld	a, b
    00003C58 07               [ 4]10370 	rlca
    00003C59 ED 62            [15]10371 	sbc	hl, hl
    00003C5B D5               [11]10372 	push	de
    00003C5C 59               [ 4]10373 	ld	e, c
    00003C5D 50               [ 4]10374 	ld	d, b
    00003C5E CDr7Fr2C         [17]10375 	call	_Math_Abs32
    00003C61 E5               [11]10376 	push	hl
    00003C62 FD E1            [14]10377 	pop	iy
    00003C64 4B               [ 4]10378 	ld	c, e
    00003C65 42               [ 4]10379 	ld	b, d
    00003C66 D1               [10]10380 	pop	de
    00003C67 7A               [ 4]10381 	ld	a, d
    00003C68 07               [ 4]10382 	rlca
    00003C69 ED 62            [15]10383 	sbc	hl, hl
    00003C6B C5               [11]10384 	push	bc
    00003C6C FD E5            [15]10385 	push	iy
    00003C6E CDr7Fr2C         [17]10386 	call	_Math_Abs32
    00003C71 FD E1            [14]10387 	pop	iy
    00003C73 C1               [10]10388 	pop	bc
    00003C74 EB               [ 4]10389 	ex	de, hl
    00003C75 09               [11]10390 	add	hl, bc
    00003C76 DD 75 FE         [19]10391 	ld	-2 (ix), l
    00003C79 DD 74 FF         [19]10392 	ld	-1 (ix), h
                                  10393 ;E:\Dropbox\FAUSTO\SVILUPPI\MSX\CODE\C\MSXgl\projects\exsoccer/exsoccer_s2_b0.c:1807: u16 totalDist = g_Ball.PassTotalDist;
    00003C7C 21r15r00         [10]10394 	ld	hl, #_g_Ball + 21
    00003C7F 7E               [ 7]10395 	ld	a, (hl)
    00003C80 DD 77 FC         [19]10396 	ld	-4 (ix), a
    00003C83 23               [ 6]10397 	inc	hl
    00003C84 7E               [ 7]10398 	ld	a, (hl)
                                  10399 ;E:\Dropbox\FAUSTO\SVILUPPI\MSX\CODE\C\MSXgl\projects\exsoccer/exsoccer_s2_b0.c:1808: if (totalDist == 0) totalDist = 1; // Safety
    00003C85 DD 77 FD         [19]10400 	ld	-3 (ix), a
    00003C88 DD B6 FC         [19]10401 	or	a, -4 (ix)
    00003C8B 20 08            [12]10402 	jr	NZ, 00149$
    00003C8D DD 36 FC 01      [19]10403 	ld	-4 (ix), #0x01
    00003C91 DD 36 FD 00      [19]10404 	ld	-3 (ix), #0
                                  10405 ;E:\Dropbox\FAUSTO\SVILUPPI\MSX\CODE\C\MSXgl\projects\exsoccer/exsoccer_s2_b0.c:1811: if (g_Ball.X < 0 || g_Ball.X > 255 || g_Ball.Y < 0 || g_Ball.Y > 211) {
    00003C95                      10406 00149$:
    00003C95 ED 4Br02r00      [20]10407 	ld	bc, (#(_g_Ball + 2) + 0)
                                  10408 ;E:\Dropbox\FAUSTO\SVILUPPI\MSX\CODE\C\MSXgl\projects\exsoccer/exsoccer_s2_b0.c:1716: i16 dy = ty - (i16)g_Ball.Y;
    00003C99 2Ar00r00         [16]10409 	ld	hl, (#_g_Ball + 0)
                                  10410 ;E:\Dropbox\FAUSTO\SVILUPPI\MSX\CODE\C\MSXgl\projects\exsoccer/exsoccer_s2_b0.c:1811: if (g_Ball.X < 0 || g_Ball.X > 255 || g_Ball.Y < 0 || g_Ball.Y > 211) {
    00003C9C DD 75 FA         [19]10411 	ld	-6 (ix), l
    00003C9F DD 74 FB         [19]10412 	ld	-5 (ix), h
    00003CA2 3E FF            [ 7]10413 	ld	a, #0xff
    00003CA4 B9               [ 4]10414 	cp	a, c
    00003CA5 3E 00            [ 7]10415 	ld	a, #0x00
    00003CA7 98               [ 4]10416 	sbc	a, b
    00003CA8 38 0D            [12]10417 	jr	C, 00148$
    00003CAA 3E D3            [ 7]10418 	ld	a, #0xd3
    00003CAC DD BE FA         [19]10419 	cp	a, -6 (ix)
    00003CAF 3E 00            [ 7]10420 	ld	a, #0x00
    00003CB1 DD 9E FB         [19]10421 	sbc	a, -5 (ix)
    00003CB4 3E 00            [ 7]10422 	ld	a, #0x00
    00003CB6 17               [ 4]10423 	rla
                                  10424 ;E:\Dropbox\FAUSTO\SVILUPPI\MSX\CODE\C\MSXgl\projects\exsoccer/exsoccer_s2_b0.c:1814: if(g_Ball.Y > 230 || g_Ball.Y < 20) {
    00003CB7                      10425 00148$:
                                  10426 ;E:\Dropbox\FAUSTO\SVILUPPI\MSX\CODE\C\MSXgl\projects\exsoccer/exsoccer_s2_b0.c:1820: if (g_Ball.ShotActive == 2) {
    00003CB7 3Ar1Br00         [13]10427 	ld	a, (#(_g_Ball + 27) + 0)
                                  10428 ;E:\Dropbox\FAUSTO\SVILUPPI\MSX\CODE\C\MSXgl\projects\exsoccer/exsoccer_s2_b0.c:1732: g_Ball.Size = 1;
                                  10429 ;E:\Dropbox\FAUSTO\SVILUPPI\MSX\CODE\C\MSXgl\projects\exsoccer/exsoccer_s2_b0.c:1820: if (g_Ball.ShotActive == 2) {
    00003CBA DD 77 FB         [19]10430 	ld	-5 (ix), a
    00003CBD D6 02            [ 7]10431 	sub	a, #0x02
    00003CBF 20 39            [12]10432 	jr	NZ, 00175$
                                  10433 ;E:\Dropbox\FAUSTO\SVILUPPI\MSX\CODE\C\MSXgl\projects\exsoccer/exsoccer_s2_b0.c:1822: u16 ratio = (distCovered * 100) / totalDist;
    00003CC1 DD 4E FE         [19]10434 	ld	c, -2 (ix)
    00003CC4 DD 46 FF         [19]10435 	ld	b, -1 (ix)
    00003CC7 69               [ 4]10436 	ld	l, c
    00003CC8 60               [ 4]10437 	ld	h, b
    00003CC9 29               [11]10438 	add	hl, hl
    00003CCA 09               [11]10439 	add	hl, bc
    00003CCB 29               [11]10440 	add	hl, hl
    00003CCC 29               [11]10441 	add	hl, hl
    00003CCD 29               [11]10442 	add	hl, hl
    00003CCE 09               [11]10443 	add	hl, bc
    00003CCF 29               [11]10444 	add	hl, hl
    00003CD0 29               [11]10445 	add	hl, hl
    00003CD1 DD 5E FC         [19]10446 	ld	e, -4 (ix)
    00003CD4 DD 56 FD         [19]10447 	ld	d, -3 (ix)
    00003CD7 CDr00r00         [17]10448 	call	__divuint
                                  10449 ;E:\Dropbox\FAUSTO\SVILUPPI\MSX\CODE\C\MSXgl\projects\exsoccer/exsoccer_s2_b0.c:1823: if (ratio < 20 || ratio > 80) g_Ball.Size = 2;
    00003CDA 7B               [ 4]10450 	ld	a, e
    00003CDB D6 14            [ 7]10451 	sub	a, #0x14
    00003CDD 7A               [ 4]10452 	ld	a, d
    00003CDE DE 00            [ 7]10453 	sbc	a, #0x00
    00003CE0 38 08            [12]10454 	jr	C, 00152$
    00003CE2 3E 50            [ 7]10455 	ld	a, #0x50
    00003CE4 BB               [ 4]10456 	cp	a, e
    00003CE5 3E 00            [ 7]10457 	ld	a, #0x00
    00003CE7 9A               [ 4]10458 	sbc	a, d
    00003CE8 30 08            [12]10459 	jr	NC, 00153$
    00003CEA                      10460 00152$:
    00003CEA 21r04r00         [10]10461 	ld	hl, #(_g_Ball + 4)
    00003CED 36 02            [10]10462 	ld	(hl), #0x02
    00003CEF C3rBFr3D         [10]10463 	jp	00176$
    00003CF2                      10464 00153$:
                                  10465 ;E:\Dropbox\FAUSTO\SVILUPPI\MSX\CODE\C\MSXgl\projects\exsoccer/exsoccer_s2_b0.c:1824: else g_Ball.Size = 3;
    00003CF2 21r04r00         [10]10466 	ld	hl, #(_g_Ball + 4)
    00003CF5 36 03            [10]10467 	ld	(hl), #0x03
    00003CF7 C3rBFr3D         [10]10468 	jp	00176$
    00003CFA                      10469 00175$:
                                  10470 ;E:\Dropbox\FAUSTO\SVILUPPI\MSX\CODE\C\MSXgl\projects\exsoccer/exsoccer_s2_b0.c:1826: else if (g_Ball.ShotActive == 1) {
    00003CFA DD 7E FB         [19]10471 	ld	a, -5 (ix)
    00003CFD 3D               [ 4]10472 	dec	a
    00003CFE 20 73            [12]10473 	jr	NZ, 00172$
                                  10474 ;E:\Dropbox\FAUSTO\SVILUPPI\MSX\CODE\C\MSXgl\projects\exsoccer/exsoccer_s2_b0.c:1828: u16 ratio = (distCovered * 100) / totalDist;
    00003D00 DD 4E FE         [19]10475 	ld	c, -2 (ix)
    00003D03 DD 46 FF         [19]10476 	ld	b, -1 (ix)
    00003D06 69               [ 4]10477 	ld	l, c
    00003D07 60               [ 4]10478 	ld	h, b
    00003D08 29               [11]10479 	add	hl, hl
    00003D09 09               [11]10480 	add	hl, bc
    00003D0A 29               [11]10481 	add	hl, hl
    00003D0B 29               [11]10482 	add	hl, hl
    00003D0C 29               [11]10483 	add	hl, hl
    00003D0D 09               [11]10484 	add	hl, bc
    00003D0E 29               [11]10485 	add	hl, hl
    00003D0F 29               [11]10486 	add	hl, hl
    00003D10 DD 75 FE         [19]10487 	ld	-2 (ix), l
    00003D13 DD 74 FF         [19]10488 	ld	-1 (ix), h
    00003D16 DD 5E FC         [19]10489 	ld	e, -4 (ix)
    00003D19 DD 56 FD         [19]10490 	ld	d, -3 (ix)
    00003D1C DD 6E FE         [19]10491 	ld	l, -2 (ix)
                                  10492 ;	spillPairReg hl
                                  10493 ;	spillPairReg hl
    00003D1F DD 66 FF         [19]10494 	ld	h, -1 (ix)
                                  10495 ;	spillPairReg hl
                                  10496 ;	spillPairReg hl
    00003D22 CDr00r00         [17]10497 	call	__divuint
    00003D25 DD 73 FE         [19]10498 	ld	-2 (ix), e
    00003D28 DD 72 FF         [19]10499 	ld	-1 (ix), d
                                  10500 ;E:\Dropbox\FAUSTO\SVILUPPI\MSX\CODE\C\MSXgl\projects\exsoccer/exsoccer_s2_b0.c:1829: if (ratio < 10 || ratio > 90) g_Ball.Size = 2;
    00003D2B DD 7E FE         [19]10501 	ld	a, -2 (ix)
    00003D2E D6 0A            [ 7]10502 	sub	a, #0x0a
    00003D30 DD 7E FF         [19]10503 	ld	a, -1 (ix)
    00003D33 DE 00            [ 7]10504 	sbc	a, #0x00
    00003D35 38 0C            [12]10505 	jr	C, 00160$
    00003D37 3E 5A            [ 7]10506 	ld	a, #0x5a
    00003D39 DD BE FE         [19]10507 	cp	a, -2 (ix)
    00003D3C 3E 00            [ 7]10508 	ld	a, #0x00
    00003D3E DD 9E FF         [19]10509 	sbc	a, -1 (ix)
    00003D41 30 08            [12]10510 	jr	NC, 00161$
    00003D43                      10511 00160$:
    00003D43 21r04r00         [10]10512 	ld	hl, #(_g_Ball + 4)
    00003D46 36 02            [10]10513 	ld	(hl), #0x02
    00003D48 C3rBFr3D         [10]10514 	jp	00176$
    00003D4B                      10515 00161$:
                                  10516 ;E:\Dropbox\FAUSTO\SVILUPPI\MSX\CODE\C\MSXgl\projects\exsoccer/exsoccer_s2_b0.c:1830: else if (ratio < 25 || ratio > 75) g_Ball.Size = 3;
    00003D4B DD 7E FE         [19]10517 	ld	a, -2 (ix)
    00003D4E D6 19            [ 7]10518 	sub	a, #0x19
    00003D50 DD 7E FF         [19]10519 	ld	a, -1 (ix)
    00003D53 DE 00            [ 7]10520 	sbc	a, #0x00
    00003D55 38 0C            [12]10521 	jr	C, 00156$
    00003D57 3E 4B            [ 7]10522 	ld	a, #0x4b
    00003D59 DD BE FE         [19]10523 	cp	a, -2 (ix)
    00003D5C 3E 00            [ 7]10524 	ld	a, #0x00
    00003D5E DD 9E FF         [19]10525 	sbc	a, -1 (ix)
    00003D61 30 08            [12]10526 	jr	NC, 00157$
    00003D63                      10527 00156$:
    00003D63 21r04r00         [10]10528 	ld	hl, #(_g_Ball + 4)
    00003D66 36 03            [10]10529 	ld	(hl), #0x03
    00003D68 C3rBFr3D         [10]10530 	jp	00176$
    00003D6B                      10531 00157$:
                                  10532 ;E:\Dropbox\FAUSTO\SVILUPPI\MSX\CODE\C\MSXgl\projects\exsoccer/exsoccer_s2_b0.c:1831: else g_Ball.Size = 4; // High
    00003D6B 21r04r00         [10]10533 	ld	hl, #(_g_Ball + 4)
    00003D6E 36 04            [10]10534 	ld	(hl), #0x04
    00003D70 C3rBFr3D         [10]10535 	jp	00176$
    00003D73                      10536 00172$:
                                  10537 ;E:\Dropbox\FAUSTO\SVILUPPI\MSX\CODE\C\MSXgl\projects\exsoccer/exsoccer_s2_b0.c:1835: if (totalDist > 40) {
    00003D73 DD 4E FC         [19]10538 	ld	c, -4 (ix)
    00003D76 DD 46 FD         [19]10539 	ld	b, -3 (ix)
    00003D79 3E 28            [ 7]10540 	ld	a, #0x28
    00003D7B B9               [ 4]10541 	cp	a, c
    00003D7C 3E 00            [ 7]10542 	ld	a, #0x00
    00003D7E 98               [ 4]10543 	sbc	a, b
    00003D7F 30 39            [12]10544 	jr	NC, 00169$
                                  10545 ;E:\Dropbox\FAUSTO\SVILUPPI\MSX\CODE\C\MSXgl\projects\exsoccer/exsoccer_s2_b0.c:1836: u16 ratio = (distCovered * 100) / totalDist;
    00003D81 DD 4E FE         [19]10546 	ld	c, -2 (ix)
    00003D84 DD 46 FF         [19]10547 	ld	b, -1 (ix)
    00003D87 69               [ 4]10548 	ld	l, c
    00003D88 60               [ 4]10549 	ld	h, b
    00003D89 29               [11]10550 	add	hl, hl
    00003D8A 09               [11]10551 	add	hl, bc
    00003D8B 29               [11]10552 	add	hl, hl
    00003D8C 29               [11]10553 	add	hl, hl
    00003D8D 29               [11]10554 	add	hl, hl
    00003D8E 09               [11]10555 	add	hl, bc
    00003D8F 29               [11]10556 	add	hl, hl
    00003D90 29               [11]10557 	add	hl, hl
    00003D91 DD 5E FC         [19]10558 	ld	e, -4 (ix)
    00003D94 DD 56 FD         [19]10559 	ld	d, -3 (ix)
    00003D97 CDr00r00         [17]10560 	call	__divuint
                                  10561 ;E:\Dropbox\FAUSTO\SVILUPPI\MSX\CODE\C\MSXgl\projects\exsoccer/exsoccer_s2_b0.c:1837: if (ratio < 15 || ratio > 85) g_Ball.Size = 2;
    00003D9A 7B               [ 4]10562 	ld	a, e
    00003D9B D6 0F            [ 7]10563 	sub	a, #0x0f
    00003D9D 7A               [ 4]10564 	ld	a, d
    00003D9E DE 00            [ 7]10565 	sbc	a, #0x00
    00003DA0 38 08            [12]10566 	jr	C, 00164$
    00003DA2 3E 55            [ 7]10567 	ld	a, #0x55
    00003DA4 BB               [ 4]10568 	cp	a, e
    00003DA5 3E 00            [ 7]10569 	ld	a, #0x00
    00003DA7 9A               [ 4]10570 	sbc	a, d
    00003DA8 30 08            [12]10571 	jr	NC, 00165$
    00003DAA                      10572 00164$:
    00003DAA 21r04r00         [10]10573 	ld	hl, #(_g_Ball + 4)
    00003DAD 36 02            [10]10574 	ld	(hl), #0x02
    00003DAF C3rBFr3D         [10]10575 	jp	00176$
    00003DB2                      10576 00165$:
                                  10577 ;E:\Dropbox\FAUSTO\SVILUPPI\MSX\CODE\C\MSXgl\projects\exsoccer/exsoccer_s2_b0.c:1838: else g_Ball.Size = 3;
    00003DB2 21r04r00         [10]10578 	ld	hl, #(_g_Ball + 4)
    00003DB5 36 03            [10]10579 	ld	(hl), #0x03
    00003DB7 C3rBFr3D         [10]10580 	jp	00176$
    00003DBA                      10581 00169$:
                                  10582 ;E:\Dropbox\FAUSTO\SVILUPPI\MSX\CODE\C\MSXgl\projects\exsoccer/exsoccer_s2_b0.c:1840: g_Ball.Size = 2;
    00003DBA 21r04r00         [10]10583 	ld	hl, #(_g_Ball + 4)
    00003DBD 36 02            [10]10584 	ld	(hl), #0x02
    00003DBF                      10585 00176$:
                                  10586 ;E:\Dropbox\FAUSTO\SVILUPPI\MSX\CODE\C\MSXgl\projects\exsoccer/exsoccer_s2_b0.c:1844: g_Ball.PreviousY = g_Ball.Y;
    00003DBF ED 4Br00r00      [20]10587 	ld	bc, (#_g_Ball + 0)
    00003DC3 ED 43r07r00      [20]10588 	ld	((_g_Ball + 7)), bc
    00003DC7                      10589 00177$:
                                  10590 ;E:\Dropbox\FAUSTO\SVILUPPI\MSX\CODE\C\MSXgl\projects\exsoccer/exsoccer_s2_b0.c:1845: }
    00003DC7 DD F9            [10]10591 	ld	sp, ix
    00003DC9 DD E1            [14]10592 	pop	ix
    00003DCB C9               [10]10593 	ret
                                  10594 	.area _SEG2
                                  10595 	.area _INITIALIZER
    00000000                      10596 __xinit__s_GkAnimTimer:
    00000000 00                   10597 	.db #0x00	; 0
    00000001                      10598 __xinit__s_GkAnimPlayerId:
    00000001 FF                   10599 	.db #0xff	; 255
    00000002                      10600 __xinit__s_GkRecoilY:
    00000002 00                   10601 	.db #0x00	;  0
                                  10602 	.area _CABS (ABS)
