                                      1 ;--------------------------------------------------------
                                      2 ; File Created by SDCC : free open source ANSI-C Compiler
                                      3 ; Version 4.2.0 #13081 (MINGW64)
                                      4 ;--------------------------------------------------------
                                      5 	.module exsoccer
                                      6 	.optsdcc -mz80
                                      7 	
                                      8 ;--------------------------------------------------------
                                      9 ; Public variables in this module
                                     10 ;--------------------------------------------------------
                                     11 	.globl _TickGoalCelebration
                                     12 	.globl _DEBUG_INIT
                                     13 	.globl _PerformShot
                                     14 	.globl _PerformPass
                                     15 	.globl _GetClosestPlayerToBall
                                     16 	.globl _TickBallFlying
                                     17 	.globl _TickGoalkeeperAnimation
                                     18 	.globl _GetBestPassTarget
                                     19 	.globl _UpdatePassTarget
                                     20 	.globl _TickBallCollision
                                     21 	.globl _TickAI
                                     22 	.globl _TickCheckBallBoundaries
                                     23 	.globl _ResetBallInfo
                                     24 	.globl _PutBallOnPlayerFeet
                                     25 	.globl _ClearTextFromLayerA
                                     26 	.globl _TickShowKickOff
                                     27 	.globl _TimeUp
                                     28 	.globl _ResetPlayersInfo
                                     29 	.globl _IsTeamJoystickTriggerPressed
                                     30 	.globl _GetJoystick2Direction
                                     31 	.globl _GetJoystick1Direction
                                     32 	.globl _TickPlayerToOwnTarget
                                     33 	.globl _PutBallSprite
                                     34 	.globl _UpdateSpritesPositions
                                     35 	.globl _ShowHeaderInfo
                                     36 	.globl _ShowFieldZone
                                     37 	.globl _SetTeam2Palette
                                     38 	.globl _SetTeam1Palette
                                     39 	.globl _V9_PrintLayerAStringAtPos
                                     40 	.globl _V9_PutLayerBTileAtPos
                                     41 	.globl _V9_PutLayerATileAtPos
                                     42 	.globl _InitPalette
                                     43 	.globl _V9_Detect
                                     44 	.globl _V9_SetScrollingBY
                                     45 	.globl _V9_SetScrollingY
                                     46 	.globl _V9_SetScreenMode
                                     47 	.globl _V9_WriteVRAM_CurrentAddr
                                     48 	.globl _V9_FillVRAM16_CurrentAddr
                                     49 	.globl _V9_FillVRAM_CurrentAddr
                                     50 	.globl _V9_SetWriteAddress
                                     51 	.globl _V9_GetRegister
                                     52 	.globl _V9_SetRegister16
                                     53 	.globl _V9_SetRegister
                                     54 	.globl _V9_SetPort
                                     55 	.globl _Print_SetColor
                                     56 	.globl _Print_DrawText
                                     57 	.globl _Print_SetTextFont
                                     58 	.globl _VDP_RegWriteBakMask
                                     59 	.globl _VDP_SetMode
                                     60 	.globl _VDP_ClearVRAM
                                     61 	.globl _g_VSynch
                                     62 	.globl _g_GoalScorerId
                                     63 	.globl _g_FioBre
                                     64 	.globl _g_ShotCursorDir
                                     65 	.globl _g_ShotCursorX
                                     66 	.globl _g_ActionCooldown
                                     67 	.globl _g_GameLevel
                                     68 	.globl _g_GameWith2Players
                                     69 	.globl _g_PassTargetPlayer
                                     70 	.globl _g_Team2ActivePlayer
                                     71 	.globl _g_Team1ActivePlayer
                                     72 	.globl _g_Timer
                                     73 	.globl _g_FieldScrollSpeed
                                     74 	.globl _g_MatchStatus
                                     75 	.globl _g_PlayersPositioningPhaseCount
                                     76 	.globl _g_FieldScrollingActionInProgress
                                     77 	.globl _g_FieldCurrentYPosition
                                     78 	.globl _g_SecondsToEndOfMatch
                                     79 	.globl _g_RestartKickTeamId
                                     80 	.globl _g_ActiveFieldZone
                                     81 	.globl _g_Ball
                                     82 	.globl _g_Players
                                     83 	.globl _g_Team2Score
                                     84 	.globl _g_Team1Score
                                     85 	.globl _g_Team2PaletteId
                                     86 	.globl _g_Team1PaletteId
                                     87 	.globl _g_FrameCounter
                                     88 	.globl _g_SLTSL
                                     89 	.globl _g_GRPACY
                                     90 	.globl _g_GRPACX
                                     91 	.globl _g_LOGOPR
                                     92 	.globl _g_CMASK
                                     93 	.globl _g_CLOC
                                     94 	.globl _g_FNKSTR
                                     95 	.globl _g_ATRBYT
                                     96 	.globl _g_BDRCLR
                                     97 	.globl _g_BAKCLR
                                     98 	.globl _g_FORCLR
                                     99 	.globl _g_CSRX
                                    100 	.globl _g_CSRY
                                    101 	.globl _g_CLIKSW
                                    102 	.globl _g_MLTPAT
                                    103 	.globl _g_MLTATR
                                    104 	.globl _g_MLTCGP
                                    105 	.globl _g_MLTCOL
                                    106 	.globl _g_MLTNAM
                                    107 	.globl _g_GRPPAT
                                    108 	.globl _g_GRPATR
                                    109 	.globl _g_GRPCGP
                                    110 	.globl _g_GRPCOL
                                    111 	.globl _g_GRPNAM
                                    112 	.globl _g_T32PAT
                                    113 	.globl _g_T32ATR
                                    114 	.globl _g_T32CGP
                                    115 	.globl _g_T32COL
                                    116 	.globl _g_T32NAM
                                    117 	.globl _g_TXTPAT
                                    118 	.globl _g_TXTATR
                                    119 	.globl _g_TXTCGP
                                    120 	.globl _g_TXTCOL
                                    121 	.globl _g_TXTNAM
                                    122 	.globl _g_CLMLST
                                    123 	.globl _g_CRTCNT
                                    124 	.globl _g_LINLEN
                                    125 	.globl _g_LINL32
                                    126 	.globl _g_LINL40
                                    127 	.globl _g_BDOS
                                    128 	.globl _g_MASTER
                                    129 	.globl _g_RAMAD3
                                    130 	.globl _g_RAMAD2
                                    131 	.globl _g_RAMAD1
                                    132 	.globl _g_RAMAD0
                                    133 	.globl _g_BREAKV
                                    134 	.globl _g_DISKVE
                                    135 	.globl _g_KANJTABLE
                                    136 	.globl _g_STRSRC
                                    137 	.globl _g_SUBRID
                                    138 	.globl _g_CHAR_16
                                    139 	.globl _g_MSXMID
                                    140 	.globl _g_MSXVER
                                    141 	.globl _g_ROMVersion
                                    142 	.globl _g_BASRVN
                                    143 	.globl _g_VDP_DW
                                    144 	.globl _g_VDP_DR
                                    145 	.globl _g_CGTABL
                                    146 	.globl _g_SVFFFD
                                    147 	.globl _g_RG27SAV
                                    148 	.globl _g_RG26SAV
                                    149 	.globl _g_RG25SAV
                                    150 	.globl _g_SVFFF8
                                    151 	.globl _g_MINROM
                                    152 	.globl _g_RG23SAV
                                    153 	.globl _g_RG22SAV
                                    154 	.globl _g_RG21SAV
                                    155 	.globl _g_RG20SAV
                                    156 	.globl _g_RG19SAV
                                    157 	.globl _g_RG18SAV
                                    158 	.globl _g_RG17SAV
                                    159 	.globl _g_RG16SAV
                                    160 	.globl _g_RG15SAV
                                    161 	.globl _g_RG14SAV
                                    162 	.globl _g_RG13SAV
                                    163 	.globl _g_RG12SAV
                                    164 	.globl _g_RG11SAV
                                    165 	.globl _g_RG10SAV
                                    166 	.globl _g_RG09SAV
                                    167 	.globl _g_RG08SAV
                                    168 	.globl _g_PROCNM
                                    169 	.globl _g_SLTWRK
                                    170 	.globl _g_SLTATR
                                    171 	.globl _g_SLTTBL
                                    172 	.globl _g_EXPTBL
                                    173 	.globl _g_MNROM
                                    174 	.globl _g_DRWANG
                                    175 	.globl _g_DRWSCL
                                    176 	.globl _g_DRWFLG
                                    177 	.globl _g_GYPOS
                                    178 	.globl _g_GXPOS
                                    179 	.globl _g_BRDATR
                                    180 	.globl _g_CASPRV
                                    181 	.globl _g_OLDSCR
                                    182 	.globl _g_SCRMOD
                                    183 	.globl _g_FLBMEM
                                    184 	.globl _g_KANAMD
                                    185 	.globl _g_KANAST
                                    186 	.globl _g_CAPST
                                    187 	.globl _g_CSTYLE
                                    188 	.globl _g_CSRSW
                                    189 	.globl _g_INSFLG
                                    190 	.globl _g_ESCCNT
                                    191 	.globl _g_GRPHED
                                    192 	.globl _g_WINWID
                                    193 	.globl _g_LOWLIM
                                    194 	.globl _g_INTCNT
                                    195 	.globl _g_INTVAL
                                    196 	.globl _g_JIFFY
                                    197 	.globl _g_PADX
                                    198 	.globl _g_PADY
                                    199 	.globl _g_INTFLG
                                    200 	.globl _g_RTYCNT
                                    201 	.globl _g_TRPTBL
                                    202 	.globl _g_HIMEM
                                    203 	.globl _g_BOTTOM
                                    204 	.globl _g_PATWRK
                                    205 	.globl _g_LINWRK
                                    206 	.globl _g_KEYBUF
                                    207 	.globl _g_NEWKEY
                                    208 	.globl _g_OLDKEY
                                    209 	.globl _g_CLIKFL
                                    210 	.globl _g_ONGSBF
                                    211 	.globl _g_FNKFLG
                                    212 	.globl _g_FNKSWI
                                    213 	.globl _g_CODSAV
                                    214 	.globl _g_FSTPOS
                                    215 	.globl _g_LINTTB
                                    216 	.globl _g_BASROM
                                    217 	.globl _g_ENSTOP
                                    218 	.globl _g_VCBC
                                    219 	.globl _g_VCBB
                                    220 	.globl _g_VCBA
                                    221 	.globl _g_PLYCNT
                                    222 	.globl _g_MUSICF
                                    223 	.globl _g_QUEUEN
                                    224 	.globl _g_MCLPTR
                                    225 	.globl _g_MCLLEN
                                    226 	.globl _g_SAVVOL
                                    227 	.globl _g_VOICEN
                                    228 	.globl _g_SAVSP
                                    229 	.globl _g_PRSCNT
                                    230 	.globl _g_LSTMOD
                                    231 	.globl _g_LSTCOM
                                    232 	.globl _g_COMMSK
                                    233 	.globl _g_ESTBLS
                                    234 	.globl _g_FLAGS
                                    235 	.globl _g_ERRORS
                                    236 	.globl _g_DATCNT
                                    237 	.globl _g_DEVNUM
                                    238 	.globl _g_OLDINT
                                    239 	.globl _g_OLDSTT
                                    240 	.globl _g_MEXBIh
                                    241 	.globl _g_RSIQLN
                                    242 	.globl _g_RSFCB
                                    243 	.globl _g_TOCNT
                                    244 	.globl _g_RSTMP
                                    245 	.globl _g_YSAVE
                                    246 	.globl _g_XSAVE
                                    247 	.globl _g_NORUSE
                                    248 	.globl _g_MODE
                                    249 	.globl _g_ROMA
                                    250 	.globl _g_CHRCNT
                                    251 	.globl _g_EXBRSA
                                    252 	.globl _g_AVCSAV
                                    253 	.globl _g_ACPAGE
                                    254 	.globl _g_DPPAGE
                                    255 	.globl _g_RS2IQ
                                    256 	.globl _g_VOICCQ
                                    257 	.globl _g_VOICBQ
                                    258 	.globl _g_VOICAQ
                                    259 	.globl _g_QUEBAK
                                    260 	.globl _g_QUETAB
                                    261 	.globl _g_ASPCT2
                                    262 	.globl _g_ASPCT1
                                    263 	.globl _g_HEADER
                                    264 	.globl _g_HIGH
                                    265 	.globl _g_LOW
                                    266 	.globl _g_CS240
                                    267 	.globl _g_CS120
                                    268 	.globl _g_GETPNT
                                    269 	.globl _g_PUTPNT
                                    270 	.globl _g_REPCNT
                                    271 	.globl _g_SCNCNT
                                    272 	.globl _g_FRCNEW
                                    273 	.globl _g_QUEUES
                                    274 	.globl _g_MINUPD
                                    275 	.globl _g_MAXUPD
                                    276 	.globl _g_TRGFLG
                                    277 	.globl _g_STATFL
                                    278 	.globl _g_RG7SAV
                                    279 	.globl _g_RG6SAV
                                    280 	.globl _g_RG5SAV
                                    281 	.globl _g_RG4SAV
                                    282 	.globl _g_RG3SAV
                                    283 	.globl _g_RG2SAV
                                    284 	.globl _g_RG1SAV
                                    285 	.globl _g_RG0SAV
                                    286 	.globl _g_CNSDFG
                                    287 	.globl _g_USRTAB
                                    288 	.globl _g_CLPRIM
                                    289 	.globl _g_WRPRIM
                                    290 	.globl _g_RDPRIM
                                    291 	.globl _UpdateV9990
                                    292 	.globl _InitVariables
                                    293 	.globl _WaitV9990Synch
                                    294 	.globl _LoadP1LayerA
                                    295 	.globl _LoadP1LayerB
                                    296 	.globl _V9_InterruptVBlank
                                    297 	.globl _V9_InterruptHBlank
                                    298 	.globl _V9_InterruptCommand
                                    299 	.globl _GameStart
                                    300 	.globl _SetTeamsPresentationSpritesPosition
                                    301 	.globl _TickActiveFieldZone
                                    302 	.globl _TickUpdateTime
                                    303 	.globl _GetOffsideLineY
                                    304 	.globl _BallInGoal
                                    305 	.globl _BallThrowIn
                                    306 	.globl _GoalKick
                                    307 	.globl _CornerKick
                                    308 	.globl _InitializeV9990
                                    309 	.globl _LoadSprites
                                    310 	.globl _TickTeamJoystick
                                    311 	.globl _main
                                    312 	.globl _MainGameLoop
                                    313 	.globl _UpdatePlayerPatternByDirection
                                    314 	.globl _GetNoMovingPlayerPatternId
                                    315 	.globl _GetNewPoseByDirection
                                    316 	.globl _GetPatternIdByPoseAndDirection
                                    317 	.globl _SetPlayerTarget
                                    318 	.globl _SetPlayerBallPossession
                                    319 ;--------------------------------------------------------
                                    320 ; special function registers
                                    321 ;--------------------------------------------------------
                         000000A8   322 _g_PortPrimarySlot	=	0x00a8
                         000000A9   323 _g_PortReadKeyboard	=	0x00a9
                         000000AA   324 _g_PortAccessKeyboard	=	0x00aa
                         000000AB   325 _g_PortControl	=	0x00ab
                         00000098   326 _g_VDP_DataPort	=	0x0098
                         00000099   327 _g_VDP_RegPort	=	0x0099
                         00000099   328 _g_VDP_AddrPort	=	0x0099
                         00000099   329 _g_VDP_StatPort	=	0x0099
                         000000A0   330 _g_PSG_RegPort	=	0x00a0
                         000000A1   331 _g_PSG_DataPort	=	0x00a1
                         000000A2   332 _g_PSG_StatPort	=	0x00a2
                         00000010   333 _g_PSG_Ext_RegPort	=	0x0010
                         00000011   334 _g_PSG_Ext_DataPort	=	0x0011
                         00000012   335 _g_PSG_Ext_StatPort	=	0x0012
                         0000007C   336 _g_MSXMusic_IndexPort	=	0x007c
                         0000007D   337 _g_MSXMusic_DataPort	=	0x007d
                         000000C0   338 _g_MSXAudio_IndexPort	=	0x00c0
                         000000C1   339 _g_MSXAudio_DataPort	=	0x00c1
                         000000C2   340 _g_MSXAudio_IndexPort2	=	0x00c2
                         000000C3   341 _g_MSXAudio_DataPort2	=	0x00c3
                         000000B4   342 _g_RTC_AddrPort	=	0x00b4
                         000000B5   343 _g_RTC_DataPort	=	0x00b5
                         00000060   344 _g_V9_VRAMPort	=	0x0060
                         00000061   345 _g_V9_PalettePort	=	0x0061
                         00000062   346 _g_V9_CmdDataPort	=	0x0062
                         00000063   347 _g_V9_RegDataPort	=	0x0063
                         00000064   348 _g_V9_RegSelectPort	=	0x0064
                         00000065   349 _g_V9_SatusPort	=	0x0065
                         00000066   350 _g_V9_IntFlagPort	=	0x0066
                         00000067   351 _g_V9_SysCtrlPort	=	0x0067
                         00000068   352 _g_V9_KanjiAddrLPort	=	0x0068
                         00000069   353 _g_V9_KanjiAddrHPort	=	0x0069
                         00000069   354 _g_V9_KanjiDataPort	=	0x0069
                         0000006A   355 _g_V9_Kanji2AddrLPort	=	0x006a
                         0000006B   356 _g_V9_Kanji2AddrHPort	=	0x006b
                         0000006B   357 _g_V9_Kanji2DataPort	=	0x006b
                         0000006F   358 _g_V9_OutputCtrPort	=	0x006f
                                    359 ;--------------------------------------------------------
                                    360 ; ram data
                                    361 ;--------------------------------------------------------
                                    362 	.area _DATA
                         0000F3AE   363 _g_LINL40	=	0xf3ae
                         0000F3AF   364 _g_LINL32	=	0xf3af
                         0000F3B0   365 _g_LINLEN	=	0xf3b0
                         0000F3B1   366 _g_CRTCNT	=	0xf3b1
                         0000F3B2   367 _g_CLMLST	=	0xf3b2
                         0000F3B3   368 _g_TXTNAM	=	0xf3b3
                         0000F3B5   369 _g_TXTCOL	=	0xf3b5
                         0000F3B7   370 _g_TXTCGP	=	0xf3b7
                         0000F3B9   371 _g_TXTATR	=	0xf3b9
                         0000F3BB   372 _g_TXTPAT	=	0xf3bb
                         0000F3BD   373 _g_T32NAM	=	0xf3bd
                         0000F3BF   374 _g_T32COL	=	0xf3bf
                         0000F3C1   375 _g_T32CGP	=	0xf3c1
                         0000F3C3   376 _g_T32ATR	=	0xf3c3
                         0000F3C5   377 _g_T32PAT	=	0xf3c5
                         0000F3C7   378 _g_GRPNAM	=	0xf3c7
                         0000F3C9   379 _g_GRPCOL	=	0xf3c9
                         0000F3CB   380 _g_GRPCGP	=	0xf3cb
                         0000F3CD   381 _g_GRPATR	=	0xf3cd
                         0000F3CF   382 _g_GRPPAT	=	0xf3cf
                         0000F3D1   383 _g_MLTNAM	=	0xf3d1
                         0000F3D3   384 _g_MLTCOL	=	0xf3d3
                         0000F3D5   385 _g_MLTCGP	=	0xf3d5
                         0000F3D7   386 _g_MLTATR	=	0xf3d7
                         0000F3D9   387 _g_MLTPAT	=	0xf3d9
                         0000F3DB   388 _g_CLIKSW	=	0xf3db
                         0000F3DC   389 _g_CSRY	=	0xf3dc
                         0000F3DD   390 _g_CSRX	=	0xf3dd
                         0000F3E9   391 _g_FORCLR	=	0xf3e9
                         0000F3EA   392 _g_BAKCLR	=	0xf3ea
                         0000F3EB   393 _g_BDRCLR	=	0xf3eb
                         0000F3F2   394 _g_ATRBYT	=	0xf3f2
                         0000F87F   395 _g_FNKSTR	=	0xf87f
                         0000F92A   396 _g_CLOC	=	0xf92a
                         0000F92C   397 _g_CMASK	=	0xf92c
                         0000FB02   398 _g_LOGOPR	=	0xfb02
                         0000FCB7   399 _g_GRPACX	=	0xfcb7
                         0000FCB9   400 _g_GRPACY	=	0xfcb9
                         0000FFFF   401 _g_SLTSL	=	0xffff
    00000000                        402 _g_FrameCounter::
    00000000                        403 	.ds 2
    00000002                        404 _g_Team1PaletteId::
    00000002                        405 	.ds 1
    00000003                        406 _g_Team2PaletteId::
    00000003                        407 	.ds 1
    00000004                        408 _g_Team1Score::
    00000004                        409 	.ds 1
    00000005                        410 _g_Team2Score::
    00000005                        411 	.ds 1
    00000006                        412 _g_Players::
    00000006                        413 	.ds 255
    00000105                        414 _g_Ball::
    00000105                        415 	.ds 29
    00000122                        416 _g_ActiveFieldZone::
    00000122                        417 	.ds 1
    00000123                        418 _g_RestartKickTeamId::
    00000123                        419 	.ds 1
    00000124                        420 _g_SecondsToEndOfMatch::
    00000124                        421 	.ds 1
                                    422 ;--------------------------------------------------------
                                    423 ; ram data
                                    424 ;--------------------------------------------------------
                                    425 	.area _INITIALIZED
    00000000                        426 _g_FieldCurrentYPosition::
    00000000                        427 	.ds 2
    00000002                        428 _g_FieldScrollingActionInProgress::
    00000002                        429 	.ds 1
    00000003                        430 _g_PlayersPositioningPhaseCount::
    00000003                        431 	.ds 1
    00000004                        432 _g_MatchStatus::
    00000004                        433 	.ds 1
    00000005                        434 _g_FieldScrollSpeed::
    00000005                        435 	.ds 1
    00000006                        436 _g_Timer::
    00000006                        437 	.ds 1
    00000007                        438 _g_Team1ActivePlayer::
    00000007                        439 	.ds 1
    00000008                        440 _g_Team2ActivePlayer::
    00000008                        441 	.ds 1
    00000009                        442 _g_PassTargetPlayer::
    00000009                        443 	.ds 1
    0000000A                        444 _g_GameWith2Players::
    0000000A                        445 	.ds 1
    0000000B                        446 _g_GameLevel::
    0000000B                        447 	.ds 1
    0000000C                        448 _g_ActionCooldown::
    0000000C                        449 	.ds 1
    0000000D                        450 _g_ShotCursorX::
    0000000D                        451 	.ds 2
    0000000F                        452 _g_ShotCursorDir::
    0000000F                        453 	.ds 1
    00000010                        454 _g_FioBre::
    00000010                        455 	.ds 1
    00000011                        456 _g_GoalScorerId::
    00000011                        457 	.ds 1
    00000012                        458 _g_VSynch::
    00000012                        459 	.ds 1
                                    460 ;--------------------------------------------------------
                                    461 ; absolute external ram data
                                    462 ;--------------------------------------------------------
                                    463 	.area _DABS (ABS)
                                    464 ;--------------------------------------------------------
                                    465 ; global & static initialisations
                                    466 ;--------------------------------------------------------
                                    467 	.area _HOME
                                    468 	.area _GSINIT
                                    469 	.area _GSFINAL
                                    470 	.area _GSINIT
                                    471 ;--------------------------------------------------------
                                    472 ; Home
                                    473 ;--------------------------------------------------------
                                    474 	.area _HOME
                                    475 	.area _HOME
                                    476 ;--------------------------------------------------------
                                    477 ; code
                                    478 ;--------------------------------------------------------
                                    479 	.area _CODE
                                    480 ;./exsoccer.c:56: void UpdateV9990()
                                    481 ;	---------------------------------
                                    482 ; Function UpdateV9990
                                    483 ; ---------------------------------
    00000000                        484 _UpdateV9990::
                                    485 ;./exsoccer.c:58: WaitV9990Synch();
                                    486 ;./exsoccer.c:59: }
    00000000 C3r18r00         [10]  487 	jp	_WaitV9990Synch
                         0000F380   488 _g_RDPRIM	=	0xf380
                         0000F385   489 _g_WRPRIM	=	0xf385
                         0000F38C   490 _g_CLPRIM	=	0xf38c
                         0000F39A   491 _g_USRTAB	=	0xf39a
                         0000F3DE   492 _g_CNSDFG	=	0xf3de
                         0000F3DF   493 _g_RG0SAV	=	0xf3df
                         0000F3E0   494 _g_RG1SAV	=	0xf3e0
                         0000F3E1   495 _g_RG2SAV	=	0xf3e1
                         0000F3E2   496 _g_RG3SAV	=	0xf3e2
                         0000F3E3   497 _g_RG4SAV	=	0xf3e3
                         0000F3E4   498 _g_RG5SAV	=	0xf3e4
                         0000F3E5   499 _g_RG6SAV	=	0xf3e5
                         0000F3E6   500 _g_RG7SAV	=	0xf3e6
                         0000F3E7   501 _g_STATFL	=	0xf3e7
                         0000F3E8   502 _g_TRGFLG	=	0xf3e8
                         0000F3EC   503 _g_MAXUPD	=	0xf3ec
                         0000F3EF   504 _g_MINUPD	=	0xf3ef
                         0000F3F3   505 _g_QUEUES	=	0xf3f3
                         0000F3F5   506 _g_FRCNEW	=	0xf3f5
                         0000F3F6   507 _g_SCNCNT	=	0xf3f6
                         0000F3F7   508 _g_REPCNT	=	0xf3f7
                         0000F3F8   509 _g_PUTPNT	=	0xf3f8
                         0000F3FA   510 _g_GETPNT	=	0xf3fa
                         0000F3FC   511 _g_CS120	=	0xf3fc
                         0000F401   512 _g_CS240	=	0xf401
                         0000F406   513 _g_LOW	=	0xf406
                         0000F408   514 _g_HIGH	=	0xf408
                         0000F40A   515 _g_HEADER	=	0xf40a
                         0000F40B   516 _g_ASPCT1	=	0xf40b
                         0000F40D   517 _g_ASPCT2	=	0xf40d
                         0000F959   518 _g_QUETAB	=	0xf959
                         0000F971   519 _g_QUEBAK	=	0xf971
                         0000F975   520 _g_VOICAQ	=	0xf975
                         0000F9F5   521 _g_VOICBQ	=	0xf9f5
                         0000FA75   522 _g_VOICCQ	=	0xfa75
                         0000FAF5   523 _g_RS2IQ	=	0xfaf5
                         0000FAF5   524 _g_DPPAGE	=	0xfaf5
                         0000FAF6   525 _g_ACPAGE	=	0xfaf6
                         0000FAF7   526 _g_AVCSAV	=	0xfaf7
                         0000FAF8   527 _g_EXBRSA	=	0xfaf8
                         0000FAF9   528 _g_CHRCNT	=	0xfaf9
                         0000FAFA   529 _g_ROMA	=	0xfafa
                         0000FAFC   530 _g_MODE	=	0xfafc
                         0000FAFD   531 _g_NORUSE	=	0xfafd
                         0000FAFE   532 _g_XSAVE	=	0xfafe
                         0000FB00   533 _g_YSAVE	=	0xfb00
                         0000FB03   534 _g_RSTMP	=	0xfb03
                         0000FB03   535 _g_TOCNT	=	0xfb03
                         0000FB04   536 _g_RSFCB	=	0xfb04
                         0000FB06   537 _g_RSIQLN	=	0xfb06
                         0000FB07   538 _g_MEXBIh	=	0xfb07
                         0000FB0C   539 _g_OLDSTT	=	0xfb0c
                         0000FB0C   540 _g_OLDINT	=	0xfb0c
                         0000FB16   541 _g_DEVNUM	=	0xfb16
                         0000FB17   542 _g_DATCNT	=	0xfb17
                         0000FB1A   543 _g_ERRORS	=	0xfb1a
                         0000FB1B   544 _g_FLAGS	=	0xfb1b
                         0000FB1C   545 _g_ESTBLS	=	0xfb1c
                         0000FB1D   546 _g_COMMSK	=	0xfb1d
                         0000FB1E   547 _g_LSTCOM	=	0xfb1e
                         0000FB1F   548 _g_LSTMOD	=	0xfb1f
                         0000FB35   549 _g_PRSCNT	=	0xfb35
                         0000FB36   550 _g_SAVSP	=	0xfb36
                         0000FB38   551 _g_VOICEN	=	0xfb38
                         0000FB39   552 _g_SAVVOL	=	0xfb39
                         0000FB3B   553 _g_MCLLEN	=	0xfb3b
                         0000FB3C   554 _g_MCLPTR	=	0xfb3c
                         0000FB3E   555 _g_QUEUEN	=	0xfb3e
                         0000FB3F   556 _g_MUSICF	=	0xfb3f
                         0000FB40   557 _g_PLYCNT	=	0xfb40
                         0000FB41   558 _g_VCBA	=	0xfb41
                         0000FB66   559 _g_VCBB	=	0xfb66
                         0000FB8B   560 _g_VCBC	=	0xfb8b
                         0000FBB0   561 _g_ENSTOP	=	0xfbb0
                         0000FBB1   562 _g_BASROM	=	0xfbb1
                         0000FBB2   563 _g_LINTTB	=	0xfbb2
                         0000FBCA   564 _g_FSTPOS	=	0xfbca
                         0000FBCC   565 _g_CODSAV	=	0xfbcc
                         0000FBCD   566 _g_FNKSWI	=	0xfbcd
                         0000FBCE   567 _g_FNKFLG	=	0xfbce
                         0000FBD8   568 _g_ONGSBF	=	0xfbd8
                         0000FBD9   569 _g_CLIKFL	=	0xfbd9
                         0000FBDA   570 _g_OLDKEY	=	0xfbda
                         0000FBE5   571 _g_NEWKEY	=	0xfbe5
                         0000FBF0   572 _g_KEYBUF	=	0xfbf0
                         0000FC18   573 _g_LINWRK	=	0xfc18
                         0000FC40   574 _g_PATWRK	=	0xfc40
                         0000FC48   575 _g_BOTTOM	=	0xfc48
                         0000FC4A   576 _g_HIMEM	=	0xfc4a
                         0000FC4C   577 _g_TRPTBL	=	0xfc4c
                         0000FC9A   578 _g_RTYCNT	=	0xfc9a
                         0000FC9B   579 _g_INTFLG	=	0xfc9b
                         0000FC9C   580 _g_PADY	=	0xfc9c
                         0000FC9D   581 _g_PADX	=	0xfc9d
                         0000FC9E   582 _g_JIFFY	=	0xfc9e
                         0000FCA0   583 _g_INTVAL	=	0xfca0
                         0000FCA2   584 _g_INTCNT	=	0xfca2
                         0000FCA4   585 _g_LOWLIM	=	0xfca4
                         0000FCA5   586 _g_WINWID	=	0xfca5
                         0000FCA6   587 _g_GRPHED	=	0xfca6
                         0000FCA7   588 _g_ESCCNT	=	0xfca7
                         0000FCA8   589 _g_INSFLG	=	0xfca8
                         0000FCA9   590 _g_CSRSW	=	0xfca9
                         0000FCAA   591 _g_CSTYLE	=	0xfcaa
                         0000FCAB   592 _g_CAPST	=	0xfcab
                         0000FCAC   593 _g_KANAST	=	0xfcac
                         0000FCAD   594 _g_KANAMD	=	0xfcad
                         0000FCAE   595 _g_FLBMEM	=	0xfcae
                         0000FCAF   596 _g_SCRMOD	=	0xfcaf
                         0000FCB0   597 _g_OLDSCR	=	0xfcb0
                         0000FCB1   598 _g_CASPRV	=	0xfcb1
                         0000FCB2   599 _g_BRDATR	=	0xfcb2
                         0000FCB3   600 _g_GXPOS	=	0xfcb3
                         0000FCB5   601 _g_GYPOS	=	0xfcb5
                         0000FCBB   602 _g_DRWFLG	=	0xfcbb
                         0000FCBC   603 _g_DRWSCL	=	0xfcbc
                         0000FCBD   604 _g_DRWANG	=	0xfcbd
                         0000FCC1   605 _g_MNROM	=	0xfcc1
                         0000FCC1   606 _g_EXPTBL	=	0xfcc1
                         0000FCC5   607 _g_SLTTBL	=	0xfcc5
                         0000FCC9   608 _g_SLTATR	=	0xfcc9
                         0000FD09   609 _g_SLTWRK	=	0xfd09
                         0000FD89   610 _g_PROCNM	=	0xfd89
                         0000FFE7   611 _g_RG08SAV	=	0xffe7
                         0000FFE8   612 _g_RG09SAV	=	0xffe8
                         0000FFE9   613 _g_RG10SAV	=	0xffe9
                         0000FFEA   614 _g_RG11SAV	=	0xffea
                         0000FFEB   615 _g_RG12SAV	=	0xffeb
                         0000FFEC   616 _g_RG13SAV	=	0xffec
                         0000FFED   617 _g_RG14SAV	=	0xffed
                         0000FFEE   618 _g_RG15SAV	=	0xffee
                         0000FFEF   619 _g_RG16SAV	=	0xffef
                         0000FFF0   620 _g_RG17SAV	=	0xfff0
                         0000FFF1   621 _g_RG18SAV	=	0xfff1
                         0000FFF2   622 _g_RG19SAV	=	0xfff2
                         0000FFF3   623 _g_RG20SAV	=	0xfff3
                         0000FFF4   624 _g_RG21SAV	=	0xfff4
                         0000FFF5   625 _g_RG22SAV	=	0xfff5
                         0000FFF6   626 _g_RG23SAV	=	0xfff6
                         0000FFF7   627 _g_MINROM	=	0xfff7
                         0000FFF8   628 _g_SVFFF8	=	0xfff8
                         0000FFFA   629 _g_RG25SAV	=	0xfffa
                         0000FFFB   630 _g_RG26SAV	=	0xfffb
                         0000FFFC   631 _g_RG27SAV	=	0xfffc
                         0000FFFD   632 _g_SVFFFD	=	0xfffd
                         00000004   633 _g_CGTABL	=	0x0004
                         00000006   634 _g_VDP_DR	=	0x0006
                         00000007   635 _g_VDP_DW	=	0x0007
                         0000002B   636 _g_BASRVN	=	0x002b
                         0000002B   637 _g_ROMVersion	=	0x002b
                         0000002D   638 _g_MSXVER	=	0x002d
                         0000002E   639 _g_MSXMID	=	0x002e
                         00000034   640 _g_CHAR_16	=	0x0034
                         00000000   641 _g_SUBRID	=	0x0000
                         00000002   642 _g_STRSRC	=	0x0002
                         0000F30F   643 _g_KANJTABLE	=	0xf30f
                         0000F323   644 _g_DISKVE	=	0xf323
                         0000F325   645 _g_BREAKV	=	0xf325
                         0000F341   646 _g_RAMAD0	=	0xf341
                         0000F342   647 _g_RAMAD1	=	0xf342
                         0000F343   648 _g_RAMAD2	=	0xf343
                         0000F344   649 _g_RAMAD3	=	0xf344
                         0000F348   650 _g_MASTER	=	0xf348
                         0000F37D   651 _g_BDOS	=	0xf37d
                                    652 ;./exsoccer.c:60: void InitVariables(){
                                    653 ;	---------------------------------
                                    654 ; Function InitVariables
                                    655 ; ---------------------------------
    00000003                        656 _InitVariables::
                                    657 ;./exsoccer.c:62: g_Ball.PossessionPlayerId = NO_VALUE;
    00000003 21r0Br01         [10]  658 	ld	hl, #(_g_Ball + 6)
    00000006 36 FF            [10]  659 	ld	(hl), #0xff
                                    660 ;./exsoccer.c:63: g_Ball.PassTargetPlayerId = NO_VALUE;
    00000008 21r15r01         [10]  661 	ld	hl, #(_g_Ball + 16)
    0000000B 36 FF            [10]  662 	ld	(hl), #0xff
                                    663 ;./exsoccer.c:64: g_Ball.ShotActive = 0;
    0000000D 21r20r01         [10]  664 	ld	hl, #(_g_Ball + 27)
    00000010 36 00            [10]  665 	ld	(hl), #0x00
                                    666 ;./exsoccer.c:65: g_Ball.LastTouchTeamId = NO_VALUE;
    00000012 21r13r01         [10]  667 	ld	hl, #(_g_Ball + 14)
    00000015 36 FF            [10]  668 	ld	(hl), #0xff
                                    669 ;./exsoccer.c:67: }
    00000017 C9               [10]  670 	ret
                                    671 ;./exsoccer.c:69: void WaitV9990Synch()
                                    672 ;	---------------------------------
                                    673 ; Function WaitV9990Synch
                                    674 ; ---------------------------------
    00000018                        675 _WaitV9990Synch::
                                    676 ;./exsoccer.c:71: while(!g_VSynch) {}
    00000018                        677 00101$:
    00000018 3Ar12r00         [13]  678 	ld	a, (_g_VSynch+0)
    0000001B B7               [ 4]  679 	or	a, a
    0000001C 28 FA            [12]  680 	jr	Z, 00101$
                                    681 ;./exsoccer.c:72: g_VSynch = FALSE;
    0000001E 21r12r00         [10]  682 	ld	hl, #_g_VSynch
    00000021 36 00            [10]  683 	ld	(hl), #0x00
                                    684 ;./exsoccer.c:73: g_FrameCounter++;
    00000023 2Ar00r00         [16]  685 	ld	hl, (_g_FrameCounter)
    00000026 23               [ 6]  686 	inc	hl
                                    687 ;./exsoccer.c:74: if(g_FrameCounter==60){
    00000027 22r00r00         [16]  688 	ld	(_g_FrameCounter), hl
    0000002A 7D               [ 4]  689 	ld	a, l
    0000002B D6 3C            [ 7]  690 	sub	a, #0x3c
    0000002D B4               [ 4]  691 	or	a, h
    0000002E C0               [11]  692 	ret	NZ
                                    693 ;./exsoccer.c:75: g_FrameCounter=0;
    0000002F 21 00 00         [10]  694 	ld	hl, #0x0000
    00000032 22r00r00         [16]  695 	ld	(_g_FrameCounter), hl
                                    696 ;./exsoccer.c:77: }
    00000035 C9               [10]  697 	ret
                                    698 ;./exsoccer.c:81: void LoadP1LayerA(){
                                    699 ;	---------------------------------
                                    700 ; Function LoadP1LayerA
                                    701 ; ---------------------------------
    00000036                        702 _LoadP1LayerA::
                                    703 ;E:/Dropbox/FAUSTO/SVILUPPI/MSX/CODE/C/MSXgl/engine/src/v9990.h:353: inline void V9_FillVRAM(u32 addr, u8 value, u16 count) { V9_SetWriteAddress(addr); V9_FillVRAM_CurrentAddr(value, count); }
    00000036 11 00 00         [10]  704 	ld	de, #0x0000
    00000039 21 00 00         [10]  705 	ld	hl, #0x0000
    0000003C CDr00r00         [17]  706 	call	_V9_SetWriteAddress
    0000003F 11 00 6A         [10]  707 	ld	de, #0x6a00
    00000042 AF               [ 4]  708 	xor	a, a
    00000043 CDr00r00         [17]  709 	call	_V9_FillVRAM_CurrentAddr
                                    710 ;E:/Dropbox/FAUSTO/SVILUPPI/MSX/CODE/C/MSXgl/engine/src/rom_mapper.h:112: g_Bank0Segment[b] = s;
    00000046 21 07 00         [10]  711 	ld	hl, #0x0007
    00000049 22r04r00         [16]  712 	ld	((_g_Bank0Segment + 4)), hl
                                    713 ;E:/Dropbox/FAUSTO/SVILUPPI/MSX/CODE/C/MSXgl/engine/src/system.h:109: inline void Poke16(u16 addr, u16 val) { *(u16*)addr = val; }
    0000004C 22 00 70         [16]  714 	ld	(0x7000), hl
                                    715 ;./exsoccer.c:84: V9_WriteVRAM(V9_P1_PGT_A, g_GameFieldLayerATiles, sizeof(g_GameFieldLayerATiles)); // Load fonts
                                    716 ;E:/Dropbox/FAUSTO/SVILUPPI/MSX/CODE/C/MSXgl/engine/src/v9990.h:371: inline void V9_WriteVRAM(u32 addr, const u8* src, u16 count) { V9_SetWriteAddress(addr); V9_WriteVRAM_CurrentAddr(src, count); }
    0000004F 11 00 00         [10]  717 	ld	de, #0x0000
    00000052 6C               [ 4]  718 	ld	l, h
    00000053 CDr00r00         [17]  719 	call	_V9_SetWriteAddress
    00000056 11 00 40         [10]  720 	ld	de, #0x4000
    00000059 21r00r00         [10]  721 	ld	hl, #_g_GameFieldLayerATiles
    0000005C CDr00r00         [17]  722 	call	_V9_WriteVRAM_CurrentAddr
                                    723 ;E:/Dropbox/FAUSTO/SVILUPPI/MSX/CODE/C/MSXgl/engine/src/v9990.h:362: inline void V9_FillVRAM16(u32 addr, u16 value, u16 count) { V9_SetWriteAddress(addr); V9_FillVRAM16_CurrentAddr(value, count); }
    0000005F 11 00 C0         [10]  724 	ld	de, #0xc000
    00000062 21 07 00         [10]  725 	ld	hl, #0x0007
    00000065 CDr00r00         [17]  726 	call	_V9_SetWriteAddress
    00000068 11 00 10         [10]  727 	ld	de, #0x1000
    0000006B 21 00 00         [10]  728 	ld	hl, #0x0000
    0000006E CDr00r00         [17]  729 	call	_V9_FillVRAM16_CurrentAddr
                                    730 ;E:/Dropbox/FAUSTO/SVILUPPI/MSX/CODE/C/MSXgl/engine/src/rom_mapper.h:112: g_Bank0Segment[b] = s;
    00000071 21 01 00         [10]  731 	ld	hl, #0x0001
    00000074 22r04r00         [16]  732 	ld	((_g_Bank0Segment + 4)), hl
                                    733 ;E:/Dropbox/FAUSTO/SVILUPPI/MSX/CODE/C/MSXgl/engine/src/system.h:109: inline void Poke16(u16 addr, u16 val) { *(u16*)addr = val; }
    00000077 22 00 70         [16]  734 	ld	(0x7000), hl
                                    735 ;./exsoccer.c:90: for (u8 x=0;x<64;x++){
    0000007A 0E 00            [ 7]  736 	ld	c, #0x00
    0000007C                        737 00132$:
    0000007C 79               [ 4]  738 	ld	a, c
    0000007D D6 40            [ 7]  739 	sub	a, #0x40
    0000007F 30 10            [12]  740 	jr	NC, 00101$
                                    741 ;./exsoccer.c:91: V9_PutLayerATileAtPos(x,0,32);
    00000081 C5               [11]  742 	push	bc
    00000082 21 20 00         [10]  743 	ld	hl, #0x0020
    00000085 E5               [11]  744 	push	hl
    00000086 2E 00            [ 7]  745 	ld	l, #0x00
                                    746 ;	spillPairReg hl
                                    747 ;	spillPairReg hl
    00000088 79               [ 4]  748 	ld	a, c
    00000089 CDr00r00         [17]  749 	call	_V9_PutLayerATileAtPos
    0000008C C1               [10]  750 	pop	bc
                                    751 ;./exsoccer.c:90: for (u8 x=0;x<64;x++){
    0000008D 0C               [ 4]  752 	inc	c
    0000008E C3r7Cr00         [10]  753 	jp	00132$
    00000091                        754 00101$:
                                    755 ;./exsoccer.c:93: for (u8 y=1;y<64;y++){
    00000091 0E 01            [ 7]  756 	ld	c, #0x01
    00000093                        757 00138$:
    00000093 79               [ 4]  758 	ld	a, c
    00000094 D6 40            [ 7]  759 	sub	a, #0x40
    00000096 D0               [11]  760 	ret	NC
                                    761 ;./exsoccer.c:94: for (u8 x=0;x<64;x++){
    00000097 06 00            [ 7]  762 	ld	b, #0x00
    00000099                        763 00135$:
    00000099 78               [ 4]  764 	ld	a, b
    0000009A D6 40            [ 7]  765 	sub	a, #0x40
    0000009C 30 0F            [12]  766 	jr	NC, 00139$
                                    767 ;./exsoccer.c:95: V9_PutLayerATileAtPos(x,y,0);
    0000009E C5               [11]  768 	push	bc
    0000009F 21 00 00         [10]  769 	ld	hl, #0x0000
    000000A2 E5               [11]  770 	push	hl
    000000A3 69               [ 4]  771 	ld	l, c
                                    772 ;	spillPairReg hl
                                    773 ;	spillPairReg hl
    000000A4 78               [ 4]  774 	ld	a, b
    000000A5 CDr00r00         [17]  775 	call	_V9_PutLayerATileAtPos
    000000A8 C1               [10]  776 	pop	bc
                                    777 ;./exsoccer.c:94: for (u8 x=0;x<64;x++){
    000000A9 04               [ 4]  778 	inc	b
    000000AA C3r99r00         [10]  779 	jp	00135$
    000000AD                        780 00139$:
                                    781 ;./exsoccer.c:93: for (u8 y=1;y<64;y++){
    000000AD 0C               [ 4]  782 	inc	c
                                    783 ;./exsoccer.c:99: }
    000000AE C3r93r00         [10]  784 	jp	00138$
                                    785 ;./exsoccer.c:102: void LoadP1LayerB(){
                                    786 ;	---------------------------------
                                    787 ; Function LoadP1LayerB
                                    788 ; ---------------------------------
    000000B1                        789 _LoadP1LayerB::
                                    790 ;E:/Dropbox/FAUSTO/SVILUPPI/MSX/CODE/C/MSXgl/engine/src/v9990.h:353: inline void V9_FillVRAM(u32 addr, u8 value, u16 count) { V9_SetWriteAddress(addr); V9_FillVRAM_CurrentAddr(value, count); }
    000000B1 11 00 00         [10]  791 	ld	de, #0x0000
    000000B4 21 04 00         [10]  792 	ld	hl, #0x0004
    000000B7 CDr00r00         [17]  793 	call	_V9_SetWriteAddress
    000000BA 11 00 6A         [10]  794 	ld	de, #0x6a00
    000000BD AF               [ 4]  795 	xor	a, a
    000000BE CDr00r00         [17]  796 	call	_V9_FillVRAM_CurrentAddr
                                    797 ;E:/Dropbox/FAUSTO/SVILUPPI/MSX/CODE/C/MSXgl/engine/src/rom_mapper.h:112: g_Bank0Segment[b] = s;
    000000C1 21 03 00         [10]  798 	ld	hl, #0x0003
    000000C4 22r04r00         [16]  799 	ld	((_g_Bank0Segment + 4)), hl
                                    800 ;E:/Dropbox/FAUSTO/SVILUPPI/MSX/CODE/C/MSXgl/engine/src/system.h:109: inline void Poke16(u16 addr, u16 val) { *(u16*)addr = val; }
    000000C7 22 00 70         [16]  801 	ld	(0x7000), hl
                                    802 ;./exsoccer.c:105: V9_WriteVRAM(V9_P1_PGT_B, g_GameFieldLayerBTiles_part1, sizeof(g_GameFieldLayerBTiles_part1)); // Load tiles (part 1)
                                    803 ;E:/Dropbox/FAUSTO/SVILUPPI/MSX/CODE/C/MSXgl/engine/src/v9990.h:371: inline void V9_WriteVRAM(u32 addr, const u8* src, u16 count) { V9_SetWriteAddress(addr); V9_WriteVRAM_CurrentAddr(src, count); }
    000000CA 11 00 00         [10]  804 	ld	de, #0x0000
    000000CD 2E 04            [ 7]  805 	ld	l, #0x04
    000000CF CDr00r00         [17]  806 	call	_V9_SetWriteAddress
    000000D2 11 00 40         [10]  807 	ld	de, #0x4000
    000000D5 21r00r00         [10]  808 	ld	hl, #_g_GameFieldLayerBTiles_part1
    000000D8 CDr00r00         [17]  809 	call	_V9_WriteVRAM_CurrentAddr
                                    810 ;E:/Dropbox/FAUSTO/SVILUPPI/MSX/CODE/C/MSXgl/engine/src/rom_mapper.h:112: g_Bank0Segment[b] = s;
    000000DB 21 04 00         [10]  811 	ld	hl, #0x0004
    000000DE 22r04r00         [16]  812 	ld	((_g_Bank0Segment + 4)), hl
                                    813 ;E:/Dropbox/FAUSTO/SVILUPPI/MSX/CODE/C/MSXgl/engine/src/system.h:109: inline void Poke16(u16 addr, u16 val) { *(u16*)addr = val; }
    000000E1 22 00 70         [16]  814 	ld	(0x7000), hl
                                    815 ;./exsoccer.c:107: V9_WriteVRAM(V9_P1_PGT_B + 16384, g_GameFieldLayerBTiles_part2, sizeof(g_GameFieldLayerBTiles_part2)); // Load tiles (part 2)
                                    816 ;E:/Dropbox/FAUSTO/SVILUPPI/MSX/CODE/C/MSXgl/engine/src/v9990.h:371: inline void V9_WriteVRAM(u32 addr, const u8* src, u16 count) { V9_SetWriteAddress(addr); V9_WriteVRAM_CurrentAddr(src, count); }
    000000E4 11 00 40         [10]  817 	ld	de, #0x4000
    000000E7 CDr00r00         [17]  818 	call	_V9_SetWriteAddress
    000000EA 11 00 40         [10]  819 	ld	de, #0x4000
    000000ED 21r00r00         [10]  820 	ld	hl, #_g_GameFieldLayerBTiles_part2
    000000F0 CDr00r00         [17]  821 	call	_V9_WriteVRAM_CurrentAddr
                                    822 ;E:/Dropbox/FAUSTO/SVILUPPI/MSX/CODE/C/MSXgl/engine/src/rom_mapper.h:112: g_Bank0Segment[b] = s;
    000000F3 21 05 00         [10]  823 	ld	hl, #0x0005
    000000F6 22r04r00         [16]  824 	ld	((_g_Bank0Segment + 4)), hl
                                    825 ;E:/Dropbox/FAUSTO/SVILUPPI/MSX/CODE/C/MSXgl/engine/src/system.h:109: inline void Poke16(u16 addr, u16 val) { *(u16*)addr = val; }
    000000F9 22 00 70         [16]  826 	ld	(0x7000), hl
                                    827 ;E:/Dropbox/FAUSTO/SVILUPPI/MSX/CODE/C/MSXgl/engine/src/v9990.h:371: inline void V9_WriteVRAM(u32 addr, const u8* src, u16 count) { V9_SetWriteAddress(addr); V9_WriteVRAM_CurrentAddr(src, count); }
    000000FC 11 00 80         [10]  828 	ld	de, #0x8000
    000000FF 2E 04            [ 7]  829 	ld	l, #0x04
    00000101 CDr00r00         [17]  830 	call	_V9_SetWriteAddress
    00000104 11 00 40         [10]  831 	ld	de, #0x4000
    00000107 21r00r00         [10]  832 	ld	hl, #_g_GameFieldLayerBTiles_part3
    0000010A CDr00r00         [17]  833 	call	_V9_WriteVRAM_CurrentAddr
                                    834 ;E:/Dropbox/FAUSTO/SVILUPPI/MSX/CODE/C/MSXgl/engine/src/rom_mapper.h:112: g_Bank0Segment[b] = s;
    0000010D 21 06 00         [10]  835 	ld	hl, #0x0006
    00000110 22r04r00         [16]  836 	ld	((_g_Bank0Segment + 4)), hl
                                    837 ;E:/Dropbox/FAUSTO/SVILUPPI/MSX/CODE/C/MSXgl/engine/src/system.h:109: inline void Poke16(u16 addr, u16 val) { *(u16*)addr = val; }
    00000113 22 00 70         [16]  838 	ld	(0x7000), hl
                                    839 ;./exsoccer.c:111: V9_WriteVRAM(V9_P1_PGT_B + 16384L*3, g_GameFieldLayerBTiles_part4, sizeof(g_GameFieldLayerBTiles_part4)); // Load tiles (part 4)
                                    840 ;E:/Dropbox/FAUSTO/SVILUPPI/MSX/CODE/C/MSXgl/engine/src/v9990.h:371: inline void V9_WriteVRAM(u32 addr, const u8* src, u16 count) { V9_SetWriteAddress(addr); V9_WriteVRAM_CurrentAddr(src, count); }
    00000116 11 00 C0         [10]  841 	ld	de, #0xc000
    00000119 2E 04            [ 7]  842 	ld	l, #0x04
    0000011B CDr00r00         [17]  843 	call	_V9_SetWriteAddress
    0000011E 11 00 38         [10]  844 	ld	de, #0x3800
    00000121 21r00r00         [10]  845 	ld	hl, #_g_GameFieldLayerBTiles_part4
    00000124 CDr00r00         [17]  846 	call	_V9_WriteVRAM_CurrentAddr
                                    847 ;E:/Dropbox/FAUSTO/SVILUPPI/MSX/CODE/C/MSXgl/engine/src/rom_mapper.h:112: g_Bank0Segment[b] = s;
    00000127 21 01 00         [10]  848 	ld	hl, #0x0001
    0000012A 22r04r00         [16]  849 	ld	((_g_Bank0Segment + 4)), hl
                                    850 ;E:/Dropbox/FAUSTO/SVILUPPI/MSX/CODE/C/MSXgl/engine/src/system.h:109: inline void Poke16(u16 addr, u16 val) { *(u16*)addr = val; }
    0000012D 22 00 70         [16]  851 	ld	(0x7000), hl
                                    852 ;E:/Dropbox/FAUSTO/SVILUPPI/MSX/CODE/C/MSXgl/engine/src/v9990.h:362: inline void V9_FillVRAM16(u32 addr, u16 value, u16 count) { V9_SetWriteAddress(addr); V9_FillVRAM16_CurrentAddr(value, count); }
    00000130 11 00 E0         [10]  853 	ld	de, #0xe000
    00000133 2E 07            [ 7]  854 	ld	l, #0x07
    00000135 CDr00r00         [17]  855 	call	_V9_SetWriteAddress
    00000138 11 00 10         [10]  856 	ld	de, #0x1000
    0000013B 21 00 00         [10]  857 	ld	hl, #0x0000
    0000013E CDr00r00         [17]  858 	call	_V9_FillVRAM16_CurrentAddr
                                    859 ;./exsoccer.c:114: u16 tileId=0;
    00000141 01 00 00         [10]  860 	ld	bc, #0x0000
                                    861 ;./exsoccer.c:115: for (u8 y=0;y<64;y++){
    00000144 1E 00            [ 7]  862 	ld	e, #0x00
    00000146                        863 00173$:
    00000146 7B               [ 4]  864 	ld	a, e
    00000147 D6 40            [ 7]  865 	sub	a, #0x40
    00000149 D0               [11]  866 	ret	NC
                                    867 ;./exsoccer.c:116: for (u8 x=0;x<32;x++){
    0000014A 16 00            [ 7]  868 	ld	d, #0x00
    0000014C                        869 00170$:
    0000014C 7A               [ 4]  870 	ld	a, d
    0000014D D6 20            [ 7]  871 	sub	a, #0x20
    0000014F 30 0F            [12]  872 	jr	NC, 00196$
                                    873 ;./exsoccer.c:117: V9_PutLayerBTileAtPos(x,y,tileId);
    00000151 C5               [11]  874 	push	bc
    00000152 D5               [11]  875 	push	de
    00000153 C5               [11]  876 	push	bc
    00000154 6B               [ 4]  877 	ld	l, e
                                    878 ;	spillPairReg hl
                                    879 ;	spillPairReg hl
    00000155 7A               [ 4]  880 	ld	a, d
    00000156 CDr00r00         [17]  881 	call	_V9_PutLayerBTileAtPos
    00000159 D1               [10]  882 	pop	de
    0000015A C1               [10]  883 	pop	bc
                                    884 ;./exsoccer.c:118: tileId++;
    0000015B 03               [ 6]  885 	inc	bc
                                    886 ;./exsoccer.c:116: for (u8 x=0;x<32;x++){
    0000015C 14               [ 4]  887 	inc	d
    0000015D C3r4Cr01         [10]  888 	jp	00170$
    00000160                        889 00196$:
                                    890 ;./exsoccer.c:115: for (u8 y=0;y<64;y++){
    00000160 1C               [ 4]  891 	inc	e
                                    892 ;./exsoccer.c:121: }
    00000161 C3r46r01         [10]  893 	jp	00173$
                                    894 ;./exsoccer.c:124: void V9_InterruptVBlank()
                                    895 ;	---------------------------------
                                    896 ; Function V9_InterruptVBlank
                                    897 ; ---------------------------------
    00000164                        898 _V9_InterruptVBlank::
                                    899 ;./exsoccer.c:126: g_VSynch = TRUE;
    00000164 FD 21r12r00      [14]  900 	ld	iy, #_g_VSynch
    00000168 FD 36 00 01      [19]  901 	ld	0 (iy), #0x01
                                    902 ;./exsoccer.c:127: if (g_FieldScrollingActionInProgress != NO_VALUE) {
    0000016C 3Ar02r00         [13]  903 	ld	a, (_g_FieldScrollingActionInProgress+0)
    0000016F 3C               [ 4]  904 	inc	a
    00000170 C8               [11]  905 	ret	Z
                                    906 ;./exsoccer.c:129: switch (g_FieldScrollingActionInProgress) {
    00000171 3Ar02r00         [13]  907 	ld	a, (_g_FieldScrollingActionInProgress+0)
    00000174 B7               [ 4]  908 	or	a, a
    00000175 28 11            [12]  909 	jr	Z, 00101$
    00000177 3Ar02r00         [13]  910 	ld	a, (_g_FieldScrollingActionInProgress+0)
    0000017A 3D               [ 4]  911 	dec	a
    0000017B 28 39            [12]  912 	jr	Z, 00104$
    0000017D 3Ar02r00         [13]  913 	ld	a, (_g_FieldScrollingActionInProgress+0)
    00000180 D6 02            [ 7]  914 	sub	a, #0x02
    00000182 CAr37r02         [10]  915 	jp	Z,00115$
    00000185 C3r6Br02         [10]  916 	jp	00118$
                                    917 ;./exsoccer.c:130: case FIELD_NORTH_ZONE:
    00000188                        918 00101$:
                                    919 ;./exsoccer.c:131: g_FieldCurrentYPosition = g_FieldCurrentYPosition - g_FieldScrollSpeed;
    00000188 3Ar05r00         [13]  920 	ld	a, (_g_FieldScrollSpeed+0)
    0000018B 4F               [ 4]  921 	ld	c, a
    0000018C 06 00            [ 7]  922 	ld	b, #0x00
    0000018E 21r00r00         [10]  923 	ld	hl, #_g_FieldCurrentYPosition
    00000191 7E               [ 7]  924 	ld	a, (hl)
    00000192 91               [ 4]  925 	sub	a, c
    00000193 77               [ 7]  926 	ld	(hl), a
    00000194 23               [ 6]  927 	inc	hl
    00000195 7E               [ 7]  928 	ld	a, (hl)
    00000196 98               [ 4]  929 	sbc	a, b
    00000197 77               [ 7]  930 	ld	(hl), a
                                    931 ;./exsoccer.c:132: if (g_FieldCurrentYPosition < 0) {
    00000198 3Ar01r00         [13]  932 	ld	a, (_g_FieldCurrentYPosition+1)
    0000019B CB 7F            [ 8]  933 	bit	7, a
    0000019D CAr6Br02         [10]  934 	jp	Z, 00118$
                                    935 ;./exsoccer.c:133: g_FieldCurrentYPosition = 1;
    000001A0 21 01 00         [10]  936 	ld	hl, #0x0001
    000001A3 22r00r00         [16]  937 	ld	(_g_FieldCurrentYPosition), hl
                                    938 ;./exsoccer.c:134: g_FieldScrollingActionInProgress = NO_VALUE;
    000001A6 21r02r00         [10]  939 	ld	hl, #_g_FieldScrollingActionInProgress
    000001A9 36 FF            [10]  940 	ld	(hl), #0xff
                                    941 ;./exsoccer.c:135: g_ActiveFieldZone = FIELD_NORTH_ZONE;
    000001AB FD 21r22r01      [14]  942 	ld	iy, #_g_ActiveFieldZone
    000001AF FD 36 00 00      [19]  943 	ld	0 (iy), #0x00
                                    944 ;./exsoccer.c:137: break;
    000001B3 C3r6Br02         [10]  945 	jp	00118$
                                    946 ;./exsoccer.c:138: case FIELD_CENTRAL_ZONE:
    000001B6                        947 00104$:
                                    948 ;./exsoccer.c:139: if (g_FieldCurrentYPosition != 136) {
    000001B6 3Ar00r00         [13]  949 	ld	a, (_g_FieldCurrentYPosition+0)
    000001B9 D6 88            [ 7]  950 	sub	a, #0x88
    000001BB FD 21r00r00      [14]  951 	ld	iy, #_g_FieldCurrentYPosition
    000001BF FD B6 01         [19]  952 	or	a, 1 (iy)
    000001C2 28 63            [12]  953 	jr	Z, 00113$
                                    954 ;./exsoccer.c:131: g_FieldCurrentYPosition = g_FieldCurrentYPosition - g_FieldScrollSpeed;
    000001C4 3Ar05r00         [13]  955 	ld	a, (_g_FieldScrollSpeed+0)
    000001C7 4F               [ 4]  956 	ld	c, a
    000001C8 06 00            [ 7]  957 	ld	b, #0x00
                                    958 ;./exsoccer.c:140: if (g_FieldCurrentYPosition > FIELD_CENTRAL_Y) {
    000001CA 3E 8C            [ 7]  959 	ld	a, #0x8c
    000001CC FD BE 00         [19]  960 	cp	a, 0 (iy)
    000001CF 3E 00            [ 7]  961 	ld	a, #0x00
    000001D1 FD 9E 01         [19]  962 	sbc	a, 1 (iy)
    000001D4 E2rD9r01         [10]  963 	jp	PO, 00178$
    000001D7 EE 80            [ 7]  964 	xor	a, #0x80
    000001D9                        965 00178$:
    000001D9 F2rFEr01         [10]  966 	jp	P, 00110$
                                    967 ;./exsoccer.c:141: g_FieldCurrentYPosition = g_FieldCurrentYPosition - g_FieldScrollSpeed;
    000001DC 21r00r00         [10]  968 	ld	hl, #_g_FieldCurrentYPosition
    000001DF 7E               [ 7]  969 	ld	a, (hl)
    000001E0 91               [ 4]  970 	sub	a, c
    000001E1 77               [ 7]  971 	ld	(hl), a
    000001E2 23               [ 6]  972 	inc	hl
    000001E3 7E               [ 7]  973 	ld	a, (hl)
    000001E4 98               [ 4]  974 	sbc	a, b
    000001E5 77               [ 7]  975 	ld	(hl), a
                                    976 ;./exsoccer.c:142: if(g_FieldCurrentYPosition < 136) g_FieldCurrentYPosition = 136;
    000001E6 3Ar00r00         [13]  977 	ld	a, (_g_FieldCurrentYPosition+0)
    000001E9 D6 88            [ 7]  978 	sub	a, #0x88
    000001EB 3Ar01r00         [13]  979 	ld	a, (_g_FieldCurrentYPosition+1)
    000001EE 17               [ 4]  980 	rla
    000001EF 3F               [ 4]  981 	ccf
    000001F0 1F               [ 4]  982 	rra
    000001F1 DE 80            [ 7]  983 	sbc	a, #0x80
    000001F3 30 76            [12]  984 	jr	NC, 00118$
    000001F5 21 88 00         [10]  985 	ld	hl, #0x0088
    000001F8 22r00r00         [16]  986 	ld	(_g_FieldCurrentYPosition), hl
    000001FB C3r6Br02         [10]  987 	jp	00118$
    000001FE                        988 00110$:
                                    989 ;./exsoccer.c:145: g_FieldCurrentYPosition = g_FieldCurrentYPosition + g_FieldScrollSpeed;
    000001FE 21r00r00         [10]  990 	ld	hl, #_g_FieldCurrentYPosition
    00000201 7E               [ 7]  991 	ld	a, (hl)
    00000202 81               [ 4]  992 	add	a, c
    00000203 77               [ 7]  993 	ld	(hl), a
    00000204 23               [ 6]  994 	inc	hl
    00000205 7E               [ 7]  995 	ld	a, (hl)
    00000206 88               [ 4]  996 	adc	a, b
    00000207 77               [ 7]  997 	ld	(hl), a
                                    998 ;./exsoccer.c:146: if(g_FieldCurrentYPosition > 136) g_FieldCurrentYPosition = 136;
    00000208 3E 88            [ 7]  999 	ld	a, #0x88
    0000020A FD 21r00r00      [14] 1000 	ld	iy, #_g_FieldCurrentYPosition
    0000020E FD BE 00         [19] 1001 	cp	a, 0 (iy)
    00000211 3E 00            [ 7] 1002 	ld	a, #0x00
    00000213 FD 9E 01         [19] 1003 	sbc	a, 1 (iy)
    00000216 E2r1Br02         [10] 1004 	jp	PO, 00179$
    00000219 EE 80            [ 7] 1005 	xor	a, #0x80
    0000021B                       1006 00179$:
    0000021B F2r6Br02         [10] 1007 	jp	P, 00118$
    0000021E 21 88 00         [10] 1008 	ld	hl, #0x0088
    00000221 22r00r00         [16] 1009 	ld	(_g_FieldCurrentYPosition), hl
    00000224 C3r6Br02         [10] 1010 	jp	00118$
    00000227                       1011 00113$:
                                   1012 ;./exsoccer.c:151: g_FieldScrollingActionInProgress = NO_VALUE;
    00000227 21r02r00         [10] 1013 	ld	hl, #_g_FieldScrollingActionInProgress
    0000022A 36 FF            [10] 1014 	ld	(hl), #0xff
                                   1015 ;./exsoccer.c:152: g_ActiveFieldZone = FIELD_CENTRAL_ZONE;
    0000022C FD 21r22r01      [14] 1016 	ld	iy, #_g_ActiveFieldZone
    00000230 FD 36 00 01      [19] 1017 	ld	0 (iy), #0x01
                                   1018 ;./exsoccer.c:154: break;
    00000234 C3r6Br02         [10] 1019 	jp	00118$
                                   1020 ;./exsoccer.c:155: case FIELD_SOUTH_ZONE:
    00000237                       1021 00115$:
                                   1022 ;./exsoccer.c:156: g_FieldCurrentYPosition = g_FieldCurrentYPosition + g_FieldScrollSpeed;
    00000237 3Ar05r00         [13] 1023 	ld	a, (_g_FieldScrollSpeed+0)
    0000023A 4F               [ 4] 1024 	ld	c, a
    0000023B 06 00            [ 7] 1025 	ld	b, #0x00
    0000023D 79               [ 4] 1026 	ld	a, c
    0000023E FD 21r00r00      [14] 1027 	ld	iy, #_g_FieldCurrentYPosition
    00000242 FD 86 00         [19] 1028 	add	a, 0 (iy)
    00000245 32r00r00         [13] 1029 	ld	(_g_FieldCurrentYPosition+0), a
    00000248 78               [ 4] 1030 	ld	a, b
    00000249 FD 8E 01         [19] 1031 	adc	a, 1 (iy)
    0000024C 32r01r00         [13] 1032 	ld	(_g_FieldCurrentYPosition+1), a
                                   1033 ;./exsoccer.c:157: if (g_FieldCurrentYPosition >= FIELD_BOTTOM_Y) {
    0000024F 3Ar00r00         [13] 1034 	ld	a, (_g_FieldCurrentYPosition+0)
    00000252 D6 18            [ 7] 1035 	sub	a, #0x18
    00000254 3Ar01r00         [13] 1036 	ld	a, (_g_FieldCurrentYPosition+1)
    00000257 17               [ 4] 1037 	rla
    00000258 3F               [ 4] 1038 	ccf
    00000259 1F               [ 4] 1039 	rra
    0000025A DE 81            [ 7] 1040 	sbc	a, #0x81
    0000025C 38 0D            [12] 1041 	jr	C, 00118$
                                   1042 ;./exsoccer.c:158: g_ActiveFieldZone = FIELD_SOUTH_ZONE;
    0000025E 21r22r01         [10] 1043 	ld	hl, #_g_ActiveFieldZone
    00000261 36 02            [10] 1044 	ld	(hl), #0x02
                                   1045 ;./exsoccer.c:159: g_FieldScrollingActionInProgress = NO_VALUE;
    00000263 FD 21r02r00      [14] 1046 	ld	iy, #_g_FieldScrollingActionInProgress
    00000267 FD 36 00 FF      [19] 1047 	ld	0 (iy), #0xff
                                   1048 ;./exsoccer.c:162: }
    0000026B                       1049 00118$:
                                   1050 ;./exsoccer.c:163: V9_SetScrollingBY(g_FieldCurrentYPosition);
    0000026B 2Ar00r00         [16] 1051 	ld	hl, (_g_FieldCurrentYPosition)
                                   1052 ;./exsoccer.c:165: }
    0000026E C3r00r00         [10] 1053 	jp	_V9_SetScrollingBY
                                   1054 ;./exsoccer.c:168: void V9_InterruptHBlank()
                                   1055 ;	---------------------------------
                                   1056 ; Function V9_InterruptHBlank
                                   1057 ; ---------------------------------
    00000271                       1058 _V9_InterruptHBlank::
                                   1059 ;./exsoccer.c:171: }
    00000271 C9               [10] 1060 	ret
                                   1061 ;./exsoccer.c:174: void V9_InterruptCommand()
                                   1062 ;	---------------------------------
                                   1063 ; Function V9_InterruptCommand
                                   1064 ; ---------------------------------
    00000272                       1065 _V9_InterruptCommand::
                                   1066 ;./exsoccer.c:177: }
    00000272 C9               [10] 1067 	ret
                                   1068 ;./exsoccer.c:199: void GameStart(){
                                   1069 ;	---------------------------------
                                   1070 ; Function GameStart
                                   1071 ; ---------------------------------
    00000273                       1072 _GameStart::
                                   1073 ;./exsoccer.c:200: g_FioBre=true;
    00000273 21r10r00         [10] 1074 	ld	hl, #_g_FioBre
    00000276 36 01            [10] 1075 	ld	(hl), #0x01
                                   1076 ;E:/Dropbox/FAUSTO/SVILUPPI/MSX/CODE/C/MSXgl/engine/src/v9990.h:258: inline void V9_SetFlag(u8 reg, u8 mask, u8 flag) { V9_SetRegister(reg, V9_GetRegister(reg) & (~mask) | flag); }
    00000278 3E 08            [ 7] 1077 	ld	a, #0x08
    0000027A CDr00r00         [17] 1078 	call	_V9_GetRegister
    0000027D 6F               [ 4] 1079 	ld	l, a
                                   1080 ;	spillPairReg hl
                                   1081 ;	spillPairReg hl
    0000027E CB BD            [ 8] 1082 	res	7, l
    00000280 3E 08            [ 7] 1083 	ld	a, #0x08
    00000282 CDr00r00         [17] 1084 	call	_V9_SetRegister
                                   1085 ;./exsoccer.c:202: g_SecondsToEndOfMatch=MATCH_DURATION;
    00000285 21r24r01         [10] 1086 	ld	hl, #_g_SecondsToEndOfMatch
    00000288 36 78            [10] 1087 	ld	(hl), #0x78
                                   1088 ;./exsoccer.c:203: g_RestartKickTeamId=TEAM_1;
    0000028A 21r23r01         [10] 1089 	ld	hl, #_g_RestartKickTeamId
    0000028D 36 01            [10] 1090 	ld	(hl), #0x01
                                   1091 ;./exsoccer.c:204: g_FieldScrollSpeed=FIELD_SCROLL_PRESENTATION_SPEED;
    0000028F 21r05r00         [10] 1092 	ld	hl, #_g_FieldScrollSpeed
    00000292 36 01            [10] 1093 	ld	(hl), #0x01
                                   1094 ;./exsoccer.c:205: g_FieldScrollingActionInProgress=NO_VALUE;
    00000294 21r02r00         [10] 1095 	ld	hl, #_g_FieldScrollingActionInProgress
    00000297 36 FF            [10] 1096 	ld	(hl), #0xff
                                   1097 ;./exsoccer.c:206: g_FieldCurrentYPosition=FIELD_TOP_Y;
    00000299 21 01 00         [10] 1098 	ld	hl, #0x0001
    0000029C 22r00r00         [16] 1099 	ld	(_g_FieldCurrentYPosition), hl
                                   1100 ;./exsoccer.c:207: g_Team1Score=0;
    0000029F AF               [ 4] 1101 	xor	a, a
    000002A0 32r04r00         [13] 1102 	ld	(#_g_Team1Score), a
                                   1103 ;./exsoccer.c:208: g_Team2Score=0;
    000002A3 AF               [ 4] 1104 	xor	a, a
    000002A4 32r05r00         [13] 1105 	ld	(#_g_Team2Score), a
                                   1106 ;./exsoccer.c:209: g_Team1PaletteId=TEAM_ITA;
    000002A7 3E 02            [ 7] 1107 	ld	a, #0x02
    000002A9 32r02r00         [13] 1108 	ld	(#_g_Team1PaletteId), a
                                   1109 ;./exsoccer.c:210: g_Team2PaletteId=TEAM_AUS;
    000002AC AF               [ 4] 1110 	xor	a, a
    000002AD 32r03r00         [13] 1111 	ld	(#_g_Team2PaletteId), a
                                   1112 ;./exsoccer.c:211: V9_SetScrollingY(0);
    000002B0 6C               [ 4] 1113 	ld	l, h
    000002B1 CDr00r00         [17] 1114 	call	_V9_SetScrollingY
                                   1115 ;./exsoccer.c:212: V9_SetScrollingBY(1);
    000002B4 21 01 00         [10] 1116 	ld	hl, #0x0001
    000002B7 CDr00r00         [17] 1117 	call	_V9_SetScrollingBY
                                   1118 ;./exsoccer.c:213: SetTeam1Palette();
    000002BA CDr00r00         [17] 1119 	call	_SetTeam1Palette
                                   1120 ;./exsoccer.c:214: SetTeam2Palette();
    000002BD CDr00r00         [17] 1121 	call	_SetTeam2Palette
                                   1122 ;./exsoccer.c:215: SetTeamsPresentationSpritesPosition();
    000002C0 CDrDAr02         [17] 1123 	call	_SetTeamsPresentationSpritesPosition
                                   1124 ;./exsoccer.c:216: ShowFieldZone(FIELD_CENTRAL_ZONE);
    000002C3 3E 01            [ 7] 1125 	ld	a, #0x01
    000002C5 CDr00r00         [17] 1126 	call	_ShowFieldZone
                                   1127 ;./exsoccer.c:217: ShowHeaderInfo();
    000002C8 CDr00r00         [17] 1128 	call	_ShowHeaderInfo
                                   1129 ;E:/Dropbox/FAUSTO/SVILUPPI/MSX/CODE/C/MSXgl/engine/src/v9990.h:258: inline void V9_SetFlag(u8 reg, u8 mask, u8 flag) { V9_SetRegister(reg, V9_GetRegister(reg) & (~mask) | flag); }
    000002CB 3E 08            [ 7] 1130 	ld	a, #0x08
    000002CD CDr00r00         [17] 1131 	call	_V9_GetRegister
    000002D0 CB BF            [ 8] 1132 	res	7, a
    000002D2 6F               [ 4] 1133 	ld	l, a
                                   1134 ;	spillPairReg hl
                                   1135 ;	spillPairReg hl
    000002D3 CB FD            [ 8] 1136 	set	7, l
    000002D5 3E 08            [ 7] 1137 	ld	a, #0x08
                                   1138 ;./exsoccer.c:218: V9_SetDisplayEnable(TRUE);
                                   1139 ;./exsoccer.c:219: }
    000002D7 C3r00r00         [10] 1140 	jp	_V9_SetRegister
                                   1141 ;./exsoccer.c:220: void SetTeamsPresentationSpritesPosition(){
                                   1142 ;	---------------------------------
                                   1143 ; Function SetTeamsPresentationSpritesPosition
                                   1144 ; ---------------------------------
    000002DA                       1145 _SetTeamsPresentationSpritesPosition::
    000002DA DD E5            [15] 1146 	push	ix
    000002DC DD 21 00 00      [14] 1147 	ld	ix,#0
    000002E0 DD 39            [15] 1148 	add	ix,sp
    000002E2 F5               [11] 1149 	push	af
    000002E3 F5               [11] 1150 	push	af
                                   1151 ;./exsoccer.c:221: g_MatchStatus=MATCH_NOT_STARTED;
    000002E4 21r04r00         [10] 1152 	ld	hl, #_g_MatchStatus
                                   1153 ;./exsoccer.c:222: for(u8 i=0;i<7;i++){
    000002E7 36 00            [10] 1154 	ld	(hl), #0x00
    000002E9 4E               [ 7] 1155 	ld	c, (hl)
    000002EA                       1156 00120$:
    000002EA 79               [ 4] 1157 	ld	a, c
    000002EB D6 07            [ 7] 1158 	sub	a, #0x07
    000002ED 30 52            [12] 1159 	jr	NC, 00101$
                                   1160 ;./exsoccer.c:223: g_Players[i].Y=230;
    000002EF 06 00            [ 7] 1161 	ld	b, #0x00
    000002F1 69               [ 4] 1162 	ld	l, c
    000002F2 60               [ 4] 1163 	ld	h, b
    000002F3 29               [11] 1164 	add	hl, hl
    000002F4 29               [11] 1165 	add	hl, hl
    000002F5 29               [11] 1166 	add	hl, hl
    000002F6 29               [11] 1167 	add	hl, hl
    000002F7 09               [11] 1168 	add	hl, bc
    000002F8 EB               [ 4] 1169 	ex	de, hl
    000002F9 21r06r00         [10] 1170 	ld	hl, #_g_Players
    000002FC 19               [11] 1171 	add	hl, de
    000002FD E3               [19] 1172 	ex	(sp), hl
    000002FE E1               [10] 1173 	pop	hl
    000002FF E5               [11] 1174 	push	hl
    00000300 36 E6            [10] 1175 	ld	(hl), #0xe6
    00000302 23               [ 6] 1176 	inc	hl
    00000303 36 00            [10] 1177 	ld	(hl), #0x00
                                   1178 ;./exsoccer.c:224: g_Players[i].X=72+i*20;
    00000305 DD 7E FC         [19] 1179 	ld	a, -4 (ix)
    00000308 C6 02            [ 7] 1180 	add	a, #0x02
    0000030A DD 77 FE         [19] 1181 	ld	-2 (ix), a
    0000030D DD 7E FD         [19] 1182 	ld	a, -3 (ix)
    00000310 CE 00            [ 7] 1183 	adc	a, #0x00
    00000312 DD 77 FF         [19] 1184 	ld	-1 (ix), a
    00000315 59               [ 4] 1185 	ld	e, c
    00000316 16 00            [ 7] 1186 	ld	d, #0x00
    00000318 6B               [ 4] 1187 	ld	l, e
    00000319 62               [ 4] 1188 	ld	h, d
    0000031A 29               [11] 1189 	add	hl, hl
    0000031B 29               [11] 1190 	add	hl, hl
    0000031C 19               [11] 1191 	add	hl, de
    0000031D 29               [11] 1192 	add	hl, hl
    0000031E 29               [11] 1193 	add	hl, hl
    0000031F 11 48 00         [10] 1194 	ld	de, #0x0048
    00000322 19               [11] 1195 	add	hl, de
    00000323 EB               [ 4] 1196 	ex	de, hl
    00000324 DD 6E FE         [19] 1197 	ld	l, -2 (ix)
    00000327 DD 66 FF         [19] 1198 	ld	h, -1 (ix)
    0000032A 73               [ 7] 1199 	ld	(hl), e
    0000032B 23               [ 6] 1200 	inc	hl
    0000032C 72               [ 7] 1201 	ld	(hl), d
                                   1202 ;./exsoccer.c:225: g_Players[i].PatternId=PLAYER_POSE_FRONT;
    0000032D E1               [10] 1203 	pop	hl
    0000032E E5               [11] 1204 	push	hl
    0000032F 11 04 00         [10] 1205 	ld	de, #0x0004
    00000332 19               [11] 1206 	add	hl, de
    00000333 36 10            [10] 1207 	ld	(hl), #0x10
                                   1208 ;./exsoccer.c:226: g_Players[i].TeamId=TEAM_2;
    00000335 E1               [10] 1209 	pop	hl
    00000336 E5               [11] 1210 	push	hl
    00000337 11 05 00         [10] 1211 	ld	de, #0x0005
    0000033A 19               [11] 1212 	add	hl, de
    0000033B 36 02            [10] 1213 	ld	(hl), #0x02
                                   1214 ;./exsoccer.c:222: for(u8 i=0;i<7;i++){
    0000033D 0C               [ 4] 1215 	inc	c
    0000033E C3rEAr02         [10] 1216 	jp	00120$
    00000341                       1217 00101$:
                                   1218 ;./exsoccer.c:229: for(u8 i=7;i<14;i++){
    00000341 DD 36 FF 07      [19] 1219 	ld	-1 (ix), #0x07
    00000345                       1220 00123$:
    00000345 DD 7E FF         [19] 1221 	ld	a, -1 (ix)
    00000348 D6 0E            [ 7] 1222 	sub	a, #0x0e
    0000034A 30 54            [12] 1223 	jr	NC, 00102$
                                   1224 ;./exsoccer.c:230: g_Players[i].Y=250;
    0000034C DD 4E FF         [19] 1225 	ld	c, -1 (ix)
    0000034F 06 00            [ 7] 1226 	ld	b, #0x00
    00000351 69               [ 4] 1227 	ld	l, c
    00000352 60               [ 4] 1228 	ld	h, b
    00000353 29               [11] 1229 	add	hl, hl
    00000354 29               [11] 1230 	add	hl, hl
    00000355 29               [11] 1231 	add	hl, hl
    00000356 29               [11] 1232 	add	hl, hl
    00000357 09               [11] 1233 	add	hl, bc
    00000358 11r06r00         [10] 1234 	ld	de, #_g_Players
    0000035B 19               [11] 1235 	add	hl, de
    0000035C 4D               [ 4] 1236 	ld	c,l
    0000035D 44               [ 4] 1237 	ld	b,h
    0000035E 36 FA            [10] 1238 	ld	(hl), #0xfa
    00000360 23               [ 6] 1239 	inc	hl
    00000361 36 00            [10] 1240 	ld	(hl), #0x00
                                   1241 ;./exsoccer.c:231: g_Players[i].X=72+(i-7)*20;
    00000363 21 02 00         [10] 1242 	ld	hl, #0x0002
    00000366 09               [11] 1243 	add	hl, bc
    00000367 DD 75 FD         [19] 1244 	ld	-3 (ix), l
    0000036A DD 74 FE         [19] 1245 	ld	-2 (ix), h
    0000036D DD 7E FF         [19] 1246 	ld	a, -1 (ix)
    00000370 1E 00            [ 7] 1247 	ld	e, #0x00
    00000372 C6 F9            [ 7] 1248 	add	a, #0xf9
    00000374 6F               [ 4] 1249 	ld	l, a
                                   1250 ;	spillPairReg hl
                                   1251 ;	spillPairReg hl
    00000375 7B               [ 4] 1252 	ld	a, e
    00000376 CE FF            [ 7] 1253 	adc	a, #0xff
    00000378 67               [ 4] 1254 	ld	h, a
                                   1255 ;	spillPairReg hl
                                   1256 ;	spillPairReg hl
    00000379 5D               [ 4] 1257 	ld	e, l
    0000037A 54               [ 4] 1258 	ld	d, h
    0000037B 29               [11] 1259 	add	hl, hl
    0000037C 29               [11] 1260 	add	hl, hl
    0000037D 19               [11] 1261 	add	hl, de
    0000037E 29               [11] 1262 	add	hl, hl
    0000037F 29               [11] 1263 	add	hl, hl
    00000380 11 48 00         [10] 1264 	ld	de, #0x0048
    00000383 19               [11] 1265 	add	hl, de
    00000384 EB               [ 4] 1266 	ex	de, hl
    00000385 DD 6E FD         [19] 1267 	ld	l, -3 (ix)
    00000388 DD 66 FE         [19] 1268 	ld	h, -2 (ix)
    0000038B 73               [ 7] 1269 	ld	(hl), e
    0000038C 23               [ 6] 1270 	inc	hl
    0000038D 72               [ 7] 1271 	ld	(hl), d
                                   1272 ;./exsoccer.c:232: g_Players[i].PatternId=PLAYER_POSE_BACK;
    0000038E 21 04 00         [10] 1273 	ld	hl, #0x0004
    00000391 09               [11] 1274 	add	hl, bc
    00000392 36 11            [10] 1275 	ld	(hl), #0x11
                                   1276 ;./exsoccer.c:233: g_Players[i].TeamId=TEAM_1;
    00000394 21 05 00         [10] 1277 	ld	hl, #0x0005
    00000397 09               [11] 1278 	add	hl, bc
    00000398 36 01            [10] 1279 	ld	(hl), #0x01
                                   1280 ;./exsoccer.c:229: for(u8 i=7;i<14;i++){
    0000039A DD 34 FF         [23] 1281 	inc	-1 (ix)
    0000039D C3r45r03         [10] 1282 	jp	00123$
    000003A0                       1283 00102$:
                                   1284 ;./exsoccer.c:235: g_Players[REFEREE].Y=FIELD_POS_Y_CENTER;
    000003A0 21 F3 00         [10] 1285 	ld	hl, #0x00f3
    000003A3 22rF4r00         [16] 1286 	ld	((_g_Players + 238)), hl
                                   1287 ;./exsoccer.c:236: g_Players[REFEREE].X=30;
    000003A6 2E 1E            [ 7] 1288 	ld	l, #0x1e
    000003A8 22rF6r00         [16] 1289 	ld	((_g_Players + 240)), hl
                                   1290 ;./exsoccer.c:237: g_Players[REFEREE].PatternId=PLAYER_POSE_RIGHT;
    000003AB 21rF8r00         [10] 1291 	ld	hl, #(_g_Players + 242)
    000003AE 36 9D            [10] 1292 	ld	(hl), #0x9d
                                   1293 ;./exsoccer.c:238: g_Players[REFEREE].TeamId=REFEREE;
    000003B0 21rF9r00         [10] 1294 	ld	hl, #(_g_Players + 243)
    000003B3 36 0E            [10] 1295 	ld	(hl), #0x0e
                                   1296 ;./exsoccer.c:239: g_Players[REFEREE].LastPose=0;
    000003B5 21rFCr00         [10] 1297 	ld	hl, #(_g_Players + 246)
    000003B8 36 00            [10] 1298 	ld	(hl), #0x00
                                   1299 ;./exsoccer.c:240: g_Players[REFEREE].Direction=DIRECTION_RIGHT;
    000003BA 21rFAr00         [10] 1300 	ld	hl, #(_g_Players + 244)
    000003BD 36 03            [10] 1301 	ld	(hl), #0x03
                                   1302 ;./exsoccer.c:241: g_Players[REFEREE].Role=NO_VALUE;
    000003BF 21rFDr00         [10] 1303 	ld	hl, #(_g_Players + 247)
    000003C2 36 FF            [10] 1304 	ld	(hl), #0xff
                                   1305 ;./exsoccer.c:242: g_Players[REFEREE].Status=PLAYER_STATUS_NONE;
    000003C4 21 00 00         [10] 1306 	ld	hl, #0x0000
    000003C7 22r02r01         [16] 1307 	ld	((_g_Players + 252)), hl
                                   1308 ;./exsoccer.c:243: ResetPlayersInfo();
    000003CA CDr00r00         [17] 1309 	call	_ResetPlayersInfo
                                   1310 ;./exsoccer.c:244: SetPlayerTarget(REFEREE); 
    000003CD 3E 0E            [ 7] 1311 	ld	a, #0x0e
    000003CF CDr59r1F         [17] 1312 	call	_SetPlayerTarget
                                   1313 ;./exsoccer.c:246: for(u8 i=0;i<14;i++){
    000003D2 0E 00            [ 7] 1314 	ld	c, #0x00
    000003D4                       1315 00126$:
    000003D4 79               [ 4] 1316 	ld	a, c
    000003D5 D6 0E            [ 7] 1317 	sub	a, #0x0e
    000003D7 D2r58r04         [10] 1318 	jp	NC, 00118$
                                   1319 ;./exsoccer.c:247: g_Players[i].AiTickCounter=0;
    000003DA 06 00            [ 7] 1320 	ld	b, #0x00
    000003DC 69               [ 4] 1321 	ld	l, c
    000003DD 60               [ 4] 1322 	ld	h, b
    000003DE 29               [11] 1323 	add	hl, hl
    000003DF 29               [11] 1324 	add	hl, hl
    000003E0 29               [11] 1325 	add	hl, hl
    000003E1 29               [11] 1326 	add	hl, hl
    000003E2 09               [11] 1327 	add	hl, bc
    000003E3 EB               [ 4] 1328 	ex	de, hl
    000003E4 21r06r00         [10] 1329 	ld	hl, #_g_Players
    000003E7 19               [11] 1330 	add	hl, de
    000003E8 EB               [ 4] 1331 	ex	de, hl
    000003E9 21 10 00         [10] 1332 	ld	hl, #0x0010
    000003EC 19               [11] 1333 	add	hl, de
    000003ED 36 00            [10] 1334 	ld	(hl), #0x00
                                   1335 ;./exsoccer.c:248: switch(i){
    000003EF 3E 0D            [ 7] 1336 	ld	a, #0x0d
    000003F1 91               [ 4] 1337 	sub	a, c
    000003F2 38 60            [12] 1338 	jr	C, 00127$
                                   1339 ;./exsoccer.c:251: g_Players[i].Role=PLAYER_ROLE_GOALKEEPER;
    000003F4 21 09 00         [10] 1340 	ld	hl, #0x0009
    000003F7 19               [11] 1341 	add	hl, de
                                   1342 ;./exsoccer.c:248: switch(i){
    000003F8 E5               [11] 1343 	push	hl
    000003F9 59               [ 4] 1344 	ld	e, c
    000003FA 16 00            [ 7] 1345 	ld	d, #0x00
    000003FC 21r04r04         [10] 1346 	ld	hl, #00168$
    000003FF 19               [11] 1347 	add	hl, de
    00000400 19               [11] 1348 	add	hl, de
    00000401 19               [11] 1349 	add	hl, de
    00000402 D1               [10] 1350 	pop	de
    00000403 E9               [ 4] 1351 	jp	(hl)
    00000404                       1352 00168$:
    00000404 C3r2Er04         [10] 1353 	jp	00104$
    00000407 C3r33r04         [10] 1354 	jp	00106$
    0000040A C3r45r04         [10] 1355 	jp	00112$
    0000040D C3r3Fr04         [10] 1356 	jp	00110$
    00000410 C3r39r04         [10] 1357 	jp	00108$
    00000413 C3r4Br04         [10] 1358 	jp	00114$
    00000416 C3r51r04         [10] 1359 	jp	00116$
    00000419 C3r2Er04         [10] 1360 	jp	00104$
    0000041C C3r33r04         [10] 1361 	jp	00106$
    0000041F C3r45r04         [10] 1362 	jp	00112$
    00000422 C3r3Fr04         [10] 1363 	jp	00110$
    00000425 C3r39r04         [10] 1364 	jp	00108$
    00000428 C3r4Br04         [10] 1365 	jp	00114$
    0000042B C3r51r04         [10] 1366 	jp	00116$
                                   1367 ;./exsoccer.c:250: case 7:
    0000042E                       1368 00104$:
                                   1369 ;./exsoccer.c:251: g_Players[i].Role=PLAYER_ROLE_GOALKEEPER;
    0000042E AF               [ 4] 1370 	xor	a, a
    0000042F 12               [ 7] 1371 	ld	(de), a
                                   1372 ;./exsoccer.c:252: break;
    00000430 C3r54r04         [10] 1373 	jp	00127$
                                   1374 ;./exsoccer.c:254: case 8:
    00000433                       1375 00106$:
                                   1376 ;./exsoccer.c:255: g_Players[i].Role=PLAYER_ROLE_LEFT_DEFENDER;
    00000433 3E 01            [ 7] 1377 	ld	a, #0x01
    00000435 12               [ 7] 1378 	ld	(de), a
                                   1379 ;./exsoccer.c:256: break;
    00000436 C3r54r04         [10] 1380 	jp	00127$
                                   1381 ;./exsoccer.c:258: case 11:
    00000439                       1382 00108$:
                                   1383 ;./exsoccer.c:259: g_Players[i].Role=PLAYER_ROLE_RIGHT_DEFENDER;
    00000439 3E 02            [ 7] 1384 	ld	a, #0x02
    0000043B 12               [ 7] 1385 	ld	(de), a
                                   1386 ;./exsoccer.c:260: break;
    0000043C C3r54r04         [10] 1387 	jp	00127$
                                   1388 ;./exsoccer.c:262: case 10:
    0000043F                       1389 00110$:
                                   1390 ;./exsoccer.c:263: g_Players[i].Role=PLAYER_ROLE_LEFT_HALFFIELDER;
    0000043F 3E 03            [ 7] 1391 	ld	a, #0x03
    00000441 12               [ 7] 1392 	ld	(de), a
                                   1393 ;./exsoccer.c:264: break;
    00000442 C3r54r04         [10] 1394 	jp	00127$
                                   1395 ;./exsoccer.c:266: case 9:
    00000445                       1396 00112$:
                                   1397 ;./exsoccer.c:267: g_Players[i].Role=PLAYER_ROLE_RIGHT_HALFFIELDER;
    00000445 3E 04            [ 7] 1398 	ld	a, #0x04
    00000447 12               [ 7] 1399 	ld	(de), a
                                   1400 ;./exsoccer.c:268: break;
    00000448 C3r54r04         [10] 1401 	jp	00127$
                                   1402 ;./exsoccer.c:270: case 12:
    0000044B                       1403 00114$:
                                   1404 ;./exsoccer.c:271: g_Players[i].Role=PLAYER_ROLE_LEFT_STRIKER;
    0000044B 3E 05            [ 7] 1405 	ld	a, #0x05
    0000044D 12               [ 7] 1406 	ld	(de), a
                                   1407 ;./exsoccer.c:272: break;
    0000044E C3r54r04         [10] 1408 	jp	00127$
                                   1409 ;./exsoccer.c:274: case 13:
    00000451                       1410 00116$:
                                   1411 ;./exsoccer.c:275: g_Players[i].Role=PLAYER_ROLE_RIGHT_STRIKER;
    00000451 3E 06            [ 7] 1412 	ld	a, #0x06
    00000453 12               [ 7] 1413 	ld	(de), a
                                   1414 ;./exsoccer.c:277: }
    00000454                       1415 00127$:
                                   1416 ;./exsoccer.c:246: for(u8 i=0;i<14;i++){
    00000454 0C               [ 4] 1417 	inc	c
    00000455 C3rD4r03         [10] 1418 	jp	00126$
    00000458                       1419 00118$:
                                   1420 ;./exsoccer.c:280: g_Ball.X=FIELD_POS_X_CENTER;
    00000458 21 78 00         [10] 1421 	ld	hl, #0x0078
    0000045B 22r07r01         [16] 1422 	ld	((_g_Ball + 2)), hl
                                   1423 ;./exsoccer.c:281: g_Ball.Y=FIELD_POS_Y_CENTER;
    0000045E 2E F3            [ 7] 1424 	ld	l, #0xf3
    00000460 22r05r01         [16] 1425 	ld	(_g_Ball), hl
                                   1426 ;./exsoccer.c:282: g_Ball.PreviousY=g_Ball.Y;
    00000463 ED 4Br05r01      [20] 1427 	ld	bc, (#_g_Ball + 0)
    00000467 ED 43r0Cr01      [20] 1428 	ld	((_g_Ball + 7)), bc
                                   1429 ;./exsoccer.c:283: ResetBallInfo(true);
    0000046B 3E 01            [ 7] 1430 	ld	a, #0x01
    0000046D CDr00r00         [17] 1431 	call	_ResetBallInfo
                                   1432 ;./exsoccer.c:285: }
    00000470 DD F9            [10] 1433 	ld	sp, ix
    00000472 DD E1            [14] 1434 	pop	ix
    00000474 C9               [10] 1435 	ret
                                   1436 ;./exsoccer.c:288: void TickActiveFieldZone(){
                                   1437 ;	---------------------------------
                                   1438 ; Function TickActiveFieldZone
                                   1439 ; ---------------------------------
    00000475                       1440 _TickActiveFieldZone::
                                   1441 ;./exsoccer.c:291: if (g_MatchStatus != MATCH_IN_ACTION) return;
    00000475 3Ar04r00         [13] 1442 	ld	a, (_g_MatchStatus+0)
    00000478 D6 0C            [ 7] 1443 	sub	a, #0x0c
    0000047A C0               [11] 1444 	ret	NZ
                                   1445 ;./exsoccer.c:293: if(g_ActiveFieldZone==FIELD_CENTRAL_ZONE){
    0000047B 3Ar22r01         [13] 1446 	ld	a, (_g_ActiveFieldZone+0)
    0000047E 3D               [ 4] 1447 	dec	a
    0000047F 20 22            [12] 1448 	jr	NZ, 00115$
                                   1449 ;./exsoccer.c:294: if(g_Ball.Y<170){
    00000481 2Ar05r01         [16] 1450 	ld	hl, (#_g_Ball + 0)
    00000484 11 AA 00         [10] 1451 	ld	de, #0x00aa
    00000487 BF               [ 4] 1452 	cp	a, a
    00000488 ED 52            [15] 1453 	sbc	hl, de
    0000048A 30 04            [12] 1454 	jr	NC, 00104$
                                   1455 ;./exsoccer.c:295: ShowFieldZone(FIELD_NORTH_ZONE);
    0000048C AF               [ 4] 1456 	xor	a, a
    0000048D CDr00r00         [17] 1457 	call	_ShowFieldZone
    00000490                       1458 00104$:
                                   1459 ;./exsoccer.c:297: if(g_Ball.Y>320){
    00000490 2Ar05r01         [16] 1460 	ld	hl, (#_g_Ball + 0)
    00000493 3E 40            [ 7] 1461 	ld	a, #0x40
    00000495 BD               [ 4] 1462 	cp	a, l
    00000496 3E 01            [ 7] 1463 	ld	a, #0x01
    00000498 9C               [ 4] 1464 	sbc	a, h
    00000499 30 31            [12] 1465 	jr	NC, 00116$
                                   1466 ;./exsoccer.c:298: ShowFieldZone(FIELD_SOUTH_ZONE);
    0000049B 3E 02            [ 7] 1467 	ld	a, #0x02
    0000049D CDr00r00         [17] 1468 	call	_ShowFieldZone
    000004A0 C3rCCr04         [10] 1469 	jp	00116$
    000004A3                       1470 00115$:
                                   1471 ;./exsoccer.c:302: if(g_ActiveFieldZone==FIELD_NORTH_ZONE){
    000004A3 3Ar22r01         [13] 1472 	ld	a, (_g_ActiveFieldZone+0)
    000004A6 B7               [ 4] 1473 	or	a, a
    000004A7 20 13            [12] 1474 	jr	NZ, 00112$
                                   1475 ;./exsoccer.c:303: if(g_Ball.Y>190){
    000004A9 2Ar05r01         [16] 1476 	ld	hl, (#_g_Ball + 0)
    000004AC 3E BE            [ 7] 1477 	ld	a, #0xbe
    000004AE BD               [ 4] 1478 	cp	a, l
    000004AF 3E 00            [ 7] 1479 	ld	a, #0x00
    000004B1 9C               [ 4] 1480 	sbc	a, h
    000004B2 30 18            [12] 1481 	jr	NC, 00116$
                                   1482 ;./exsoccer.c:304: ShowFieldZone(FIELD_CENTRAL_ZONE);
    000004B4 3E 01            [ 7] 1483 	ld	a, #0x01
    000004B6 CDr00r00         [17] 1484 	call	_ShowFieldZone
    000004B9 C3rCCr04         [10] 1485 	jp	00116$
    000004BC                       1486 00112$:
                                   1487 ;./exsoccer.c:308: if(g_Ball.Y<300){
    000004BC 2Ar05r01         [16] 1488 	ld	hl, (#_g_Ball + 0)
    000004BF 11 2C 01         [10] 1489 	ld	de, #0x012c
    000004C2 BF               [ 4] 1490 	cp	a, a
    000004C3 ED 52            [15] 1491 	sbc	hl, de
    000004C5 30 05            [12] 1492 	jr	NC, 00116$
                                   1493 ;./exsoccer.c:309: ShowFieldZone(FIELD_CENTRAL_ZONE);
    000004C7 3E 01            [ 7] 1494 	ld	a, #0x01
    000004C9 CDr00r00         [17] 1495 	call	_ShowFieldZone
    000004CC                       1496 00116$:
                                   1497 ;./exsoccer.c:313: g_Ball.PreviousY=g_Ball.Y;
    000004CC ED 4Br05r01      [20] 1498 	ld	bc, (#_g_Ball + 0)
    000004D0 ED 43r0Cr01      [20] 1499 	ld	((_g_Ball + 7)), bc
                                   1500 ;./exsoccer.c:314: }
    000004D4 C9               [10] 1501 	ret
                                   1502 ;./exsoccer.c:315: void TickUpdateTime(){
                                   1503 ;	---------------------------------
                                   1504 ; Function TickUpdateTime
                                   1505 ; ---------------------------------
    000004D5                       1506 _TickUpdateTime::
                                   1507 ;./exsoccer.c:316: if(g_MatchStatus==MATCH_IN_ACTION){
    000004D5 3Ar04r00         [13] 1508 	ld	a, (_g_MatchStatus+0)
    000004D8 D6 0C            [ 7] 1509 	sub	a, #0x0c
    000004DA 20 19            [12] 1510 	jr	NZ, 00106$
                                   1511 ;./exsoccer.c:318: if(g_FrameCounter==58){
    000004DC 2Ar00r00         [16] 1512 	ld	hl, (_g_FrameCounter)
    000004DF 7D               [ 4] 1513 	ld	a, l
    000004E0 D6 3A            [ 7] 1514 	sub	a, #0x3a
    000004E2 B4               [ 4] 1515 	or	a, h
    000004E3 20 10            [12] 1516 	jr	NZ, 00106$
                                   1517 ;./exsoccer.c:319: g_SecondsToEndOfMatch--;
    000004E5 21r24r01         [10] 1518 	ld	hl, #_g_SecondsToEndOfMatch
    000004E8 35               [11] 1519 	dec	(hl)
                                   1520 ;./exsoccer.c:320: ShowHeaderInfo();
    000004E9 CDr00r00         [17] 1521 	call	_ShowHeaderInfo
                                   1522 ;./exsoccer.c:321: if(g_SecondsToEndOfMatch==0){
    000004EC 3Ar24r01         [13] 1523 	ld	a, (_g_SecondsToEndOfMatch+0)
    000004EF B7               [ 4] 1524 	or	a, a
    000004F0 20 03            [12] 1525 	jr	NZ, 00106$
                                   1526 ;./exsoccer.c:322: TimeUp();
    000004F2 CDr00r00         [17] 1527 	call	_TimeUp
    000004F5                       1528 00106$:
                                   1529 ;./exsoccer.c:326: if(g_Timer!=NO_VALUE){
    000004F5 3Ar06r00         [13] 1530 	ld	a, (_g_Timer+0)
    000004F8 3C               [ 4] 1531 	inc	a
    000004F9 C8               [11] 1532 	ret	Z
                                   1533 ;./exsoccer.c:327: if(g_FrameCounter==58){
    000004FA 2Ar00r00         [16] 1534 	ld	hl, (_g_FrameCounter)
    000004FD 7D               [ 4] 1535 	ld	a, l
    000004FE D6 3A            [ 7] 1536 	sub	a, #0x3a
    00000500 B4               [ 4] 1537 	or	a, h
    00000501 C0               [11] 1538 	ret	NZ
                                   1539 ;./exsoccer.c:328: g_Timer++;
    00000502 21r06r00         [10] 1540 	ld	hl, #_g_Timer
    00000505 34               [11] 1541 	inc	(hl)
                                   1542 ;./exsoccer.c:332: }
    00000506 C9               [10] 1543 	ret
                                   1544 ;./exsoccer.c:333: u16 GetOffsideLineY(u8 attackingTeamId) {
                                   1545 ;	---------------------------------
                                   1546 ; Function GetOffsideLineY
                                   1547 ; ---------------------------------
    00000507                       1548 _GetOffsideLineY::
    00000507 DD E5            [15] 1549 	push	ix
    00000509 DD 21 00 00      [14] 1550 	ld	ix,#0
    0000050D DD 39            [15] 1551 	add	ix,sp
    0000050F 21 FA FF         [10] 1552 	ld	hl, #-6
    00000512 39               [11] 1553 	add	hl, sp
    00000513 F9               [ 6] 1554 	ld	sp, hl
    00000514 4F               [ 4] 1555 	ld	c, a
                                   1556 ;./exsoccer.c:334: u8 defendingTeamId = (attackingTeamId == TEAM_1) ? TEAM_2 : TEAM_1;
    00000515 0D               [ 4] 1557 	dec	c
    00000516 3E 01            [ 7] 1558 	ld	a, #0x01
    00000518 28 01            [12] 1559 	jr	Z, 00207$
    0000051A AF               [ 4] 1560 	xor	a, a
    0000051B                       1561 00207$:
    0000051B B7               [ 4] 1562 	or	a, a
    0000051C 28 06            [12] 1563 	jr	Z, 00132$
    0000051E 01 02 00         [10] 1564 	ld	bc, #0x0002
    00000521 C3r27r05         [10] 1565 	jp	00133$
    00000524                       1566 00132$:
    00000524 01 01 00         [10] 1567 	ld	bc, #0x0001
    00000527                       1568 00133$:
    00000527 DD 71 FC         [19] 1569 	ld	-4 (ix), c
                                   1570 ;./exsoccer.c:337: if (attackingTeamId == TEAM_1) {
    0000052A B7               [ 4] 1571 	or	a, a
    0000052B CArB1r05         [10] 1572 	jp	Z, 00124$
                                   1573 ;./exsoccer.c:339: u16 min1 = 0xFFFF;
    0000052E 01 FF FF         [10] 1574 	ld	bc, #0xffff
                                   1575 ;./exsoccer.c:340: u16 min2 = 0xFFFF;
    00000531 11 FF FF         [10] 1576 	ld	de, #0xffff
                                   1577 ;./exsoccer.c:342: for(u8 i=0; i<14; i++){
    00000534 DD 36 FF 00      [19] 1578 	ld	-1 (ix), #0x00
    00000538                       1579 00127$:
    00000538 DD 7E FF         [19] 1580 	ld	a, -1 (ix)
    0000053B D6 0E            [ 7] 1581 	sub	a, #0x0e
    0000053D 30 65            [12] 1582 	jr	NC, 00109$
                                   1583 ;./exsoccer.c:343: if(g_Players[i].TeamId != defendingTeamId) continue;
    0000053F D5               [11] 1584 	push	de
    00000540 DD 5E FF         [19] 1585 	ld	e, -1 (ix)
    00000543 16 00            [ 7] 1586 	ld	d, #0x00
    00000545 6B               [ 4] 1587 	ld	l, e
    00000546 62               [ 4] 1588 	ld	h, d
    00000547 29               [11] 1589 	add	hl, hl
    00000548 29               [11] 1590 	add	hl, hl
    00000549 29               [11] 1591 	add	hl, hl
    0000054A 29               [11] 1592 	add	hl, hl
    0000054B 19               [11] 1593 	add	hl, de
    0000054C D1               [10] 1594 	pop	de
    0000054D 7D               [ 4] 1595 	ld	a, l
    0000054E C6r06            [ 7] 1596 	add	a, #<(_g_Players)
    00000550 DD 77 FD         [19] 1597 	ld	-3 (ix), a
    00000553 7C               [ 4] 1598 	ld	a, h
    00000554 CEs00            [ 7] 1599 	adc	a, #>(_g_Players)
    00000556 DD 77 FE         [19] 1600 	ld	-2 (ix), a
    00000559 DD 6E FD         [19] 1601 	ld	l, -3 (ix)
                                   1602 ;	spillPairReg hl
                                   1603 ;	spillPairReg hl
    0000055C DD 66 FE         [19] 1604 	ld	h, -2 (ix)
                                   1605 ;	spillPairReg hl
                                   1606 ;	spillPairReg hl
    0000055F 23               [ 6] 1607 	inc	hl
    00000560 23               [ 6] 1608 	inc	hl
    00000561 23               [ 6] 1609 	inc	hl
    00000562 23               [ 6] 1610 	inc	hl
    00000563 23               [ 6] 1611 	inc	hl
                                   1612 ;	spillPairReg hl
    00000564 DD 7E FC         [19] 1613 	ld	a,-4 (ix)
    00000567 96               [ 7] 1614 	sub	a,(hl)
    00000568 20 34            [12] 1615 	jr	NZ, 00108$
                                   1616 ;./exsoccer.c:345: if (g_Players[i].Y < min1) {
    0000056A DD 6E FD         [19] 1617 	ld	l, -3 (ix)
    0000056D DD 66 FE         [19] 1618 	ld	h, -2 (ix)
    00000570 7E               [ 7] 1619 	ld	a, (hl)
    00000571 DD 77 FD         [19] 1620 	ld	-3 (ix), a
    00000574 23               [ 6] 1621 	inc	hl
    00000575 7E               [ 7] 1622 	ld	a, (hl)
    00000576 DD 77 FE         [19] 1623 	ld	-2 (ix), a
    00000579 DD 7E FD         [19] 1624 	ld	a, -3 (ix)
    0000057C 91               [ 4] 1625 	sub	a, c
    0000057D DD 7E FE         [19] 1626 	ld	a, -2 (ix)
    00000580 98               [ 4] 1627 	sbc	a, b
    00000581 30 0B            [12] 1628 	jr	NC, 00106$
                                   1629 ;./exsoccer.c:346: min2 = min1;
    00000583 59               [ 4] 1630 	ld	e, c
    00000584 50               [ 4] 1631 	ld	d, b
                                   1632 ;./exsoccer.c:347: min1 = g_Players[i].Y;
    00000585 DD 4E FD         [19] 1633 	ld	c, -3 (ix)
    00000588 DD 46 FE         [19] 1634 	ld	b, -2 (ix)
    0000058B C3r9Er05         [10] 1635 	jp	00108$
    0000058E                       1636 00106$:
                                   1637 ;./exsoccer.c:348: } else if (g_Players[i].Y < min2) {
    0000058E DD 7E FD         [19] 1638 	ld	a, -3 (ix)
    00000591 93               [ 4] 1639 	sub	a, e
    00000592 DD 7E FE         [19] 1640 	ld	a, -2 (ix)
    00000595 9A               [ 4] 1641 	sbc	a, d
    00000596 30 06            [12] 1642 	jr	NC, 00108$
                                   1643 ;./exsoccer.c:349: min2 = g_Players[i].Y;
    00000598 DD 5E FD         [19] 1644 	ld	e, -3 (ix)
    0000059B DD 56 FE         [19] 1645 	ld	d, -2 (ix)
    0000059E                       1646 00108$:
                                   1647 ;./exsoccer.c:342: for(u8 i=0; i<14; i++){
    0000059E DD 34 FF         [23] 1648 	inc	-1 (ix)
    000005A1 C3r38r05         [10] 1649 	jp	00127$
    000005A4                       1650 00109$:
                                   1651 ;./exsoccer.c:352: if (min2 == 0xFFFF) return FIELD_BOUND_Y_TOP; 
    000005A4 4B               [ 4] 1652 	ld	c, e
    000005A5 42               [ 4] 1653 	ld	b, d
    000005A6 79               [ 4] 1654 	ld	a, c
    000005A7 A0               [ 4] 1655 	and	a, b
    000005A8 3C               [ 4] 1656 	inc	a
    000005A9 20 6E            [12] 1657 	jr	NZ, 00125$
    000005AB 11 32 00         [10] 1658 	ld	de, #0x0032
                                   1659 ;./exsoccer.c:353: limitY = min2;
    000005AE C3r19r06         [10] 1660 	jp	00130$
    000005B1                       1661 00124$:
                                   1662 ;./exsoccer.c:357: u16 max1 = 0;
    000005B1 21 00 00         [10] 1663 	ld	hl, #0x0000
    000005B4 E3               [19] 1664 	ex	(sp), hl
                                   1665 ;./exsoccer.c:358: u16 max2 = 0;
    000005B5 11 00 00         [10] 1666 	ld	de, #0x0000
                                   1667 ;./exsoccer.c:359: for(u8 i=0; i<14; i++){
    000005B8 0E 00            [ 7] 1668 	ld	c, #0x00
    000005BA                       1669 00129$:
    000005BA 79               [ 4] 1670 	ld	a, c
    000005BB D6 0E            [ 7] 1671 	sub	a, #0x0e
    000005BD 30 50            [12] 1672 	jr	NC, 00120$
                                   1673 ;./exsoccer.c:360: if(g_Players[i].TeamId != defendingTeamId) continue;
    000005BF 06 00            [ 7] 1674 	ld	b, #0x00
    000005C1 69               [ 4] 1675 	ld	l, c
    000005C2 60               [ 4] 1676 	ld	h, b
    000005C3 29               [11] 1677 	add	hl, hl
    000005C4 29               [11] 1678 	add	hl, hl
    000005C5 29               [11] 1679 	add	hl, hl
    000005C6 29               [11] 1680 	add	hl, hl
    000005C7 09               [11] 1681 	add	hl, bc
    000005C8 7D               [ 4] 1682 	ld	a, l
    000005C9 C6r06            [ 7] 1683 	add	a, #<(_g_Players)
    000005CB DD 77 FE         [19] 1684 	ld	-2 (ix), a
    000005CE 7C               [ 4] 1685 	ld	a, h
    000005CF CEs00            [ 7] 1686 	adc	a, #>(_g_Players)
    000005D1 DD 77 FF         [19] 1687 	ld	-1 (ix), a
    000005D4 DD 6E FE         [19] 1688 	ld	l, -2 (ix)
                                   1689 ;	spillPairReg hl
                                   1690 ;	spillPairReg hl
    000005D7 DD 66 FF         [19] 1691 	ld	h, -1 (ix)
                                   1692 ;	spillPairReg hl
                                   1693 ;	spillPairReg hl
    000005DA 23               [ 6] 1694 	inc	hl
    000005DB 23               [ 6] 1695 	inc	hl
    000005DC 23               [ 6] 1696 	inc	hl
    000005DD 23               [ 6] 1697 	inc	hl
    000005DE 23               [ 6] 1698 	inc	hl
    000005DF DD 7E FC         [19] 1699 	ld	a,-4 (ix)
    000005E2 96               [ 7] 1700 	sub	a,(hl)
    000005E3 20 26            [12] 1701 	jr	NZ, 00119$
                                   1702 ;./exsoccer.c:362: if (g_Players[i].Y > max1) {
    000005E5 DD 6E FE         [19] 1703 	ld	l, -2 (ix)
    000005E8 DD 66 FF         [19] 1704 	ld	h, -1 (ix)
    000005EB 46               [ 7] 1705 	ld	b, (hl)
    000005EC 23               [ 6] 1706 	inc	hl
    000005ED 6E               [ 7] 1707 	ld	l, (hl)
                                   1708 ;	spillPairReg hl
    000005EE DD 7E FA         [19] 1709 	ld	a, -6 (ix)
    000005F1 90               [ 4] 1710 	sub	a, b
    000005F2 DD 7E FB         [19] 1711 	ld	a, -5 (ix)
    000005F5 9D               [ 4] 1712 	sbc	a, l
    000005F6 30 0B            [12] 1713 	jr	NC, 00117$
                                   1714 ;./exsoccer.c:363: max2 = max1;
    000005F8 D1               [10] 1715 	pop	de
    000005F9 D5               [11] 1716 	push	de
                                   1717 ;./exsoccer.c:364: max1 = g_Players[i].Y;
    000005FA DD 70 FA         [19] 1718 	ld	-6 (ix), b
    000005FD DD 75 FB         [19] 1719 	ld	-5 (ix), l
    00000600 C3r0Br06         [10] 1720 	jp	00119$
    00000603                       1721 00117$:
                                   1722 ;./exsoccer.c:365: } else if (g_Players[i].Y > max2) {
    00000603 7B               [ 4] 1723 	ld	a, e
    00000604 90               [ 4] 1724 	sub	a, b
    00000605 7A               [ 4] 1725 	ld	a, d
    00000606 9D               [ 4] 1726 	sbc	a, l
    00000607 30 02            [12] 1727 	jr	NC, 00119$
                                   1728 ;./exsoccer.c:366: max2 = g_Players[i].Y;
    00000609 55               [ 4] 1729 	ld	d, l
    0000060A 58               [ 4] 1730 	ld	e, b
    0000060B                       1731 00119$:
                                   1732 ;./exsoccer.c:359: for(u8 i=0; i<14; i++){
    0000060B 0C               [ 4] 1733 	inc	c
    0000060C C3rBAr05         [10] 1734 	jp	00129$
    0000060F                       1735 00120$:
                                   1736 ;./exsoccer.c:369: if (max2 == 0) return FIELD_BOUND_Y_BOTTOM;
    0000060F 7A               [ 4] 1737 	ld	a, d
    00000610 B3               [ 4] 1738 	or	a, e
    00000611 20 06            [12] 1739 	jr	NZ, 00122$
    00000613 11 AE 01         [10] 1740 	ld	de, #0x01ae
    00000616 C3r19r06         [10] 1741 	jp	00130$
    00000619                       1742 00122$:
                                   1743 ;./exsoccer.c:370: limitY = max2;
    00000619                       1744 00125$:
                                   1745 ;./exsoccer.c:372: return limitY;
    00000619                       1746 00130$:
                                   1747 ;./exsoccer.c:373: }
    00000619 DD F9            [10] 1748 	ld	sp, ix
    0000061B DD E1            [14] 1749 	pop	ix
    0000061D C9               [10] 1750 	ret
                                   1751 ;./exsoccer.c:374: void BallInGoal(u8 teamScored){
                                   1752 ;	---------------------------------
                                   1753 ; Function BallInGoal
                                   1754 ; ---------------------------------
    0000061E                       1755 _BallInGoal::
    0000061E 5F               [ 4] 1756 	ld	e, a
                                   1757 ;./exsoccer.c:376: V9_PrintLayerAStringAtPos(12,18,"IN  GOAL");
    0000061F D5               [11] 1758 	push	de
    00000620 21rBCr06         [10] 1759 	ld	hl, #___str_0
    00000623 E5               [11] 1760 	push	hl
    00000624 2E 12            [ 7] 1761 	ld	l, #0x12
                                   1762 ;	spillPairReg hl
                                   1763 ;	spillPairReg hl
    00000626 3E 0C            [ 7] 1764 	ld	a, #0x0c
    00000628 CDr00r00         [17] 1765 	call	_V9_PrintLayerAStringAtPos
    0000062B D1               [10] 1766 	pop	de
                                   1767 ;./exsoccer.c:378: g_GoalScorerId = g_Ball.PossessionPlayerId;
    0000062C 21r0Br01         [10] 1768 	ld	hl, #_g_Ball + 6
    0000062F 7E               [ 7] 1769 	ld	a, (hl)
                                   1770 ;./exsoccer.c:379: if(g_GoalScorerId==NO_VALUE){
    00000630 32r11r00         [13] 1771 	ld	(_g_GoalScorerId+0), a
                                   1772 ;./exsoccer.c:380: for(u8 i=0;i<14;i++){
    00000633 3C               [ 4] 1773 	inc	a
    00000634 20 32            [12] 1774 	jr	NZ, 00107$
    00000636 57               [ 4] 1775 	ld	d,a
    00000637 4A               [ 4] 1776 	ld	c, d
    00000638                       1777 00114$:
    00000638 79               [ 4] 1778 	ld	a, c
    00000639 D6 0E            [ 7] 1779 	sub	a, #0x0e
    0000063B 30 2B            [12] 1780 	jr	NC, 00107$
                                   1781 ;./exsoccer.c:381: if(g_Players[i].TeamId==teamScored){
    0000063D 06 00            [ 7] 1782 	ld	b, #0x00
    0000063F 69               [ 4] 1783 	ld	l, c
    00000640 60               [ 4] 1784 	ld	h, b
    00000641 29               [11] 1785 	add	hl, hl
    00000642 29               [11] 1786 	add	hl, hl
    00000643 29               [11] 1787 	add	hl, hl
    00000644 29               [11] 1788 	add	hl, hl
    00000645 09               [11] 1789 	add	hl, bc
    00000646 FD 21r06r00      [14] 1790 	ld	iy, #_g_Players
    0000064A C5               [11] 1791 	push	bc
    0000064B 4D               [ 4] 1792 	ld	c, l
    0000064C 44               [ 4] 1793 	ld	b, h
    0000064D FD 09            [15] 1794 	add	iy, bc
    0000064F C1               [10] 1795 	pop	bc
    00000650 FD 7E 05         [19] 1796 	ld	a, 5 (iy)
    00000653 93               [ 4] 1797 	sub	a, e
    00000654 20 0D            [12] 1798 	jr	NZ, 00115$
                                   1799 ;./exsoccer.c:382: if(g_Ball.LastTouchTeamId==teamScored ){
    00000656 3Ar13r01         [13] 1800 	ld	a, (#_g_Ball + 14)
    00000659 93               [ 4] 1801 	sub	a, e
    0000065A 20 07            [12] 1802 	jr	NZ, 00115$
                                   1803 ;./exsoccer.c:384: g_GoalScorerId=i; // This assumes index is consistent; probably player 0 or 7 (GK) shouldn't score often.
    0000065C 21r11r00         [10] 1804 	ld	hl, #_g_GoalScorerId
    0000065F 72               [ 7] 1805 	ld	(hl), d
                                   1806 ;./exsoccer.c:385: break;
    00000660 C3r68r06         [10] 1807 	jp	00107$
    00000663                       1808 00115$:
                                   1809 ;./exsoccer.c:380: for(u8 i=0;i<14;i++){
    00000663 0C               [ 4] 1810 	inc	c
    00000664 51               [ 4] 1811 	ld	d, c
    00000665 C3r38r06         [10] 1812 	jp	00114$
    00000668                       1813 00107$:
                                   1814 ;./exsoccer.c:379: if(g_GoalScorerId==NO_VALUE){
    00000668 3Ar11r00         [13] 1815 	ld	a, (_g_GoalScorerId+0)
    0000066B 3C               [ 4] 1816 	inc	a
    0000066C 20 0B            [12] 1817 	jr	NZ, 00109$
                                   1818 ;./exsoccer.c:395: if (g_GoalScorerId == NO_VALUE) {
                                   1819 ;./exsoccer.c:396: g_GoalScorerId = GetClosestPlayerToBall(teamScored, NO_VALUE);
    0000066E D5               [11] 1820 	push	de
    0000066F 2E FF            [ 7] 1821 	ld	l, #0xff
                                   1822 ;	spillPairReg hl
                                   1823 ;	spillPairReg hl
    00000671 7B               [ 4] 1824 	ld	a, e
    00000672 CDr00r00         [17] 1825 	call	_GetClosestPlayerToBall
    00000675 D1               [10] 1826 	pop	de
    00000676 32r11r00         [13] 1827 	ld	(_g_GoalScorerId+0), a
    00000679                       1828 00109$:
                                   1829 ;./exsoccer.c:399: if(teamScored==TEAM_1){
    00000679 1D               [ 4] 1830 	dec	e
    0000067A 3E 01            [ 7] 1831 	ld	a, #0x01
    0000067C 28 01            [12] 1832 	jr	Z, 00175$
    0000067E AF               [ 4] 1833 	xor	a, a
    0000067F                       1834 00175$:
    0000067F 4F               [ 4] 1835 	ld	c, a
    00000680 B7               [ 4] 1836 	or	a, a
    00000681 28 0D            [12] 1837 	jr	Z, 00111$
                                   1838 ;./exsoccer.c:401: g_Ball.Y = FIELD_BOUND_Y_TOP - 20;
    00000683 21 1E 00         [10] 1839 	ld	hl, #0x001e
    00000686 22r05r01         [16] 1840 	ld	(_g_Ball), hl
                                   1841 ;./exsoccer.c:402: g_Team1Score++;
    00000689 21r04r00         [10] 1842 	ld	hl, #_g_Team1Score
    0000068C 34               [11] 1843 	inc	(hl)
    0000068D C3r9Ar06         [10] 1844 	jp	00112$
    00000690                       1845 00111$:
                                   1846 ;./exsoccer.c:406: g_Ball.Y = FIELD_BOUND_Y_BOTTOM + 20;
    00000690 21 C2 01         [10] 1847 	ld	hl, #0x01c2
    00000693 22r05r01         [16] 1848 	ld	(_g_Ball), hl
                                   1849 ;./exsoccer.c:407: g_Team2Score++;
    00000696 21r05r00         [10] 1850 	ld	hl, #_g_Team2Score
    00000699 34               [11] 1851 	inc	(hl)
    0000069A                       1852 00112$:
                                   1853 ;./exsoccer.c:409: ShowHeaderInfo();
    0000069A C5               [11] 1854 	push	bc
    0000069B CDr00r00         [17] 1855 	call	_ShowHeaderInfo
    0000069E C1               [10] 1856 	pop	bc
                                   1857 ;./exsoccer.c:411: g_MatchStatus=MATCH_AFTER_IN_GOAL;
    0000069F 21r04r00         [10] 1858 	ld	hl, #_g_MatchStatus
    000006A2 36 06            [10] 1859 	ld	(hl), #0x06
                                   1860 ;./exsoccer.c:412: g_RestartKickTeamId = (teamScored == TEAM_1) ? TEAM_2 : TEAM_1;
    000006A4 79               [ 4] 1861 	ld	a, c
    000006A5 B7               [ 4] 1862 	or	a, a
    000006A6 28 07            [12] 1863 	jr	Z, 00121$
    000006A8 3E 02            [ 7] 1864 	ld	a, #0x02
    000006AA 0E 00            [ 7] 1865 	ld	c, #0x00
    000006AC C3rB3r06         [10] 1866 	jp	00122$
    000006AF                       1867 00121$:
    000006AF 3E 01            [ 7] 1868 	ld	a, #0x01
    000006B1 0E 00            [ 7] 1869 	ld	c, #0x00
    000006B3                       1870 00122$:
    000006B3 32r23r01         [13] 1871 	ld	(_g_RestartKickTeamId+0), a
                                   1872 ;./exsoccer.c:413: g_Timer = 0; // Start timer for celebration/reset
    000006B6 21r06r00         [10] 1873 	ld	hl, #_g_Timer
    000006B9 36 00            [10] 1874 	ld	(hl), #0x00
                                   1875 ;./exsoccer.c:414: }
    000006BB C9               [10] 1876 	ret
    000006BC                       1877 ___str_0:
    000006BC 49 4E 20 20 47 4F 41  1878 	.ascii "IN  GOAL"
             4C
    000006C4 00                    1879 	.db 0x00
                                   1880 ;./exsoccer.c:415: void BallThrowIn(u8 teamId){
                                   1881 ;	---------------------------------
                                   1882 ; Function BallThrowIn
                                   1883 ; ---------------------------------
    000006C5                       1884 _BallThrowIn::
    000006C5 4F               [ 4] 1885 	ld	c, a
                                   1886 ;./exsoccer.c:417: V9_PrintLayerAStringAtPos(10,18,"THROW IN");
    000006C6 C5               [11] 1887 	push	bc
    000006C7 21rE2r06         [10] 1888 	ld	hl, #___str_1
    000006CA E5               [11] 1889 	push	hl
    000006CB 2E 12            [ 7] 1890 	ld	l, #0x12
                                   1891 ;	spillPairReg hl
                                   1892 ;	spillPairReg hl
    000006CD 3E 0A            [ 7] 1893 	ld	a, #0x0a
    000006CF CDr00r00         [17] 1894 	call	_V9_PrintLayerAStringAtPos
    000006D2 C1               [10] 1895 	pop	bc
                                   1896 ;./exsoccer.c:418: g_MatchStatus=MATCH_BEFORE_THROW_IN;
    000006D3 21r04r00         [10] 1897 	ld	hl, #_g_MatchStatus
    000006D6 36 03            [10] 1898 	ld	(hl), #0x03
                                   1899 ;./exsoccer.c:419: g_RestartKickTeamId = teamId;
    000006D8 21r23r01         [10] 1900 	ld	hl, #_g_RestartKickTeamId
    000006DB 71               [ 7] 1901 	ld	(hl), c
                                   1902 ;./exsoccer.c:420: g_Timer = 0;
    000006DC 21r06r00         [10] 1903 	ld	hl, #_g_Timer
    000006DF 36 00            [10] 1904 	ld	(hl), #0x00
                                   1905 ;./exsoccer.c:421: }
    000006E1 C9               [10] 1906 	ret
    000006E2                       1907 ___str_1:
    000006E2 54 48 52 4F 57 20 49  1908 	.ascii "THROW IN"
             4E
    000006EA 00                    1909 	.db 0x00
                                   1910 ;./exsoccer.c:422: void GoalKick(u8 teamId){
                                   1911 ;	---------------------------------
                                   1912 ; Function GoalKick
                                   1913 ; ---------------------------------
    000006EB                       1914 _GoalKick::
    000006EB 4F               [ 4] 1915 	ld	c, a
                                   1916 ;./exsoccer.c:424: V9_PrintLayerAStringAtPos(10,18,"GOAL KICK");
    000006EC C5               [11] 1917 	push	bc
    000006ED 21r08r07         [10] 1918 	ld	hl, #___str_2
    000006F0 E5               [11] 1919 	push	hl
    000006F1 2E 12            [ 7] 1920 	ld	l, #0x12
                                   1921 ;	spillPairReg hl
                                   1922 ;	spillPairReg hl
    000006F3 3E 0A            [ 7] 1923 	ld	a, #0x0a
    000006F5 CDr00r00         [17] 1924 	call	_V9_PrintLayerAStringAtPos
    000006F8 C1               [10] 1925 	pop	bc
                                   1926 ;./exsoccer.c:425: g_MatchStatus=MATCH_BEFORE_GOAL_KICK;
    000006F9 21r04r00         [10] 1927 	ld	hl, #_g_MatchStatus
    000006FC 36 05            [10] 1928 	ld	(hl), #0x05
                                   1929 ;./exsoccer.c:426: g_RestartKickTeamId = teamId;
    000006FE 21r23r01         [10] 1930 	ld	hl, #_g_RestartKickTeamId
    00000701 71               [ 7] 1931 	ld	(hl), c
                                   1932 ;./exsoccer.c:427: g_Timer = 0;
    00000702 21r06r00         [10] 1933 	ld	hl, #_g_Timer
    00000705 36 00            [10] 1934 	ld	(hl), #0x00
                                   1935 ;./exsoccer.c:428: }
    00000707 C9               [10] 1936 	ret
    00000708                       1937 ___str_2:
    00000708 47 4F 41 4C 20 4B 49  1938 	.ascii "GOAL KICK"
             43 4B
    00000711 00                    1939 	.db 0x00
                                   1940 ;./exsoccer.c:429: void CornerKick(u8 teamId){
                                   1941 ;	---------------------------------
                                   1942 ; Function CornerKick
                                   1943 ; ---------------------------------
    00000712                       1944 _CornerKick::
    00000712 4F               [ 4] 1945 	ld	c, a
                                   1946 ;./exsoccer.c:431: V9_PrintLayerAStringAtPos(18,18,"CORNER KICK");
    00000713 C5               [11] 1947 	push	bc
    00000714 21r2Er07         [10] 1948 	ld	hl, #___str_3
    00000717 E5               [11] 1949 	push	hl
                                   1950 ;	spillPairReg hl
                                   1951 ;	spillPairReg hl
    00000718 3E 12            [ 7] 1952 	ld	a,#0x12
    0000071A 6F               [ 4] 1953 	ld	l,a
    0000071B CDr00r00         [17] 1954 	call	_V9_PrintLayerAStringAtPos
    0000071E C1               [10] 1955 	pop	bc
                                   1956 ;./exsoccer.c:432: g_MatchStatus=MATCH_BEFORE_CORNER_KICK;
    0000071F 21r04r00         [10] 1957 	ld	hl, #_g_MatchStatus
    00000722 36 02            [10] 1958 	ld	(hl), #0x02
                                   1959 ;./exsoccer.c:433: g_RestartKickTeamId = teamId;
    00000724 21r23r01         [10] 1960 	ld	hl, #_g_RestartKickTeamId
    00000727 71               [ 7] 1961 	ld	(hl), c
                                   1962 ;./exsoccer.c:434: g_Timer = 0;
    00000728 21r06r00         [10] 1963 	ld	hl, #_g_Timer
    0000072B 36 00            [10] 1964 	ld	(hl), #0x00
                                   1965 ;./exsoccer.c:435: }
    0000072D C9               [10] 1966 	ret
    0000072E                       1967 ___str_3:
    0000072E 43 4F 52 4E 45 52 20  1968 	.ascii "CORNER KICK"
             4B 49 43 4B
    00000739 00                    1969 	.db 0x00
                                   1970 ;./exsoccer.c:436: void InitializeV9990()
                                   1971 ;	---------------------------------
                                   1972 ; Function InitializeV9990
                                   1973 ; ---------------------------------
    0000073A                       1974 _InitializeV9990::
                                   1975 ;E:/Dropbox/FAUSTO/SVILUPPI/MSX/CODE/C/MSXgl/engine/src/rom_mapper.h:112: g_Bank0Segment[b] = s;
    0000073A 21 01 00         [10] 1976 	ld	hl, #0x0001
    0000073D 22r04r00         [16] 1977 	ld	((_g_Bank0Segment + 4)), hl
                                   1978 ;E:/Dropbox/FAUSTO/SVILUPPI/MSX/CODE/C/MSXgl/engine/src/system.h:109: inline void Poke16(u16 addr, u16 val) { *(u16*)addr = val; }
    00000740 22 00 70         [16] 1979 	ld	(0x7000), hl
                                   1980 ;./exsoccer.c:439: V9_SetScreenMode(V9_MODE_P1);
    00000743 AF               [ 4] 1981 	xor	a, a
    00000744 CDr00r00         [17] 1982 	call	_V9_SetScreenMode
                                   1983 ;E:/Dropbox/FAUSTO/SVILUPPI/MSX/CODE/C/MSXgl/engine/src/v9990.h:258: inline void V9_SetFlag(u8 reg, u8 mask, u8 flag) { V9_SetRegister(reg, V9_GetRegister(reg) & (~mask) | flag); }
    00000747 3E 08            [ 7] 1984 	ld	a, #0x08
    00000749 CDr00r00         [17] 1985 	call	_V9_GetRegister
    0000074C 6F               [ 4] 1986 	ld	l, a
                                   1987 ;	spillPairReg hl
                                   1988 ;	spillPairReg hl
    0000074D CB BD            [ 8] 1989 	res	7, l
    0000074F 3E 08            [ 7] 1990 	ld	a, #0x08
    00000751 CDr00r00         [17] 1991 	call	_V9_SetRegister
                                   1992 ;E:/Dropbox/FAUSTO/SVILUPPI/MSX/CODE/C/MSXgl/engine/src/v9990.h:574: inline void V9_SetInterrupt(u8 flags) { V9_SetRegister(9, flags); }
    00000754 2E 00            [ 7] 1993 	ld	l, #0x00
                                   1994 ;	spillPairReg hl
                                   1995 ;	spillPairReg hl
    00000756 3E 09            [ 7] 1996 	ld	a, #0x09
    00000758 CDr00r00         [17] 1997 	call	_V9_SetRegister
                                   1998 ;E:/Dropbox/FAUSTO/SVILUPPI/MSX/CODE/C/MSXgl/engine/src/v9990.h:480: inline void V9_SetBackgroundColor(u8 color) { V9_SetRegister(15, color); }
    0000075B 2E 01            [ 7] 1999 	ld	l, #0x01
                                   2000 ;	spillPairReg hl
                                   2001 ;	spillPairReg hl
    0000075D 3E 0F            [ 7] 2002 	ld	a, #0x0f
    0000075F CDr00r00         [17] 2003 	call	_V9_SetRegister
                                   2004 ;E:/Dropbox/FAUSTO/SVILUPPI/MSX/CODE/C/MSXgl/engine/src/v9990.h:258: inline void V9_SetFlag(u8 reg, u8 mask, u8 flag) { V9_SetRegister(reg, V9_GetRegister(reg) & (~mask) | flag); }
    00000762 3E 08            [ 7] 2005 	ld	a, #0x08
    00000764 CDr00r00         [17] 2006 	call	_V9_GetRegister
    00000767 6F               [ 4] 2007 	ld	l, a
                                   2008 ;	spillPairReg hl
                                   2009 ;	spillPairReg hl
    00000768 CB B5            [ 8] 2010 	res	6, l
    0000076A 3E 08            [ 7] 2011 	ld	a, #0x08
    0000076C CDr00r00         [17] 2012 	call	_V9_SetRegister
    0000076F 3E 08            [ 7] 2013 	ld	a, #0x08
    00000771 CDr00r00         [17] 2014 	call	_V9_GetRegister
    00000774 CB BF            [ 8] 2015 	res	7, a
    00000776 6F               [ 4] 2016 	ld	l, a
                                   2017 ;	spillPairReg hl
                                   2018 ;	spillPairReg hl
    00000777 CB FD            [ 8] 2019 	set	7, l
    00000779 3E 08            [ 7] 2020 	ld	a, #0x08
    0000077B CDr00r00         [17] 2021 	call	_V9_SetRegister
                                   2022 ;./exsoccer.c:446: LoadSprites();
    0000077E CDrA8r07         [17] 2023 	call	_LoadSprites
                                   2024 ;./exsoccer.c:447: InitPalette();
    00000781 CDr00r00         [17] 2025 	call	_InitPalette
                                   2026 ;./exsoccer.c:448: LoadP1LayerA();
    00000784 CDr36r00         [17] 2027 	call	_LoadP1LayerA
                                   2028 ;./exsoccer.c:449: LoadP1LayerB();
    00000787 CDrB1r00         [17] 2029 	call	_LoadP1LayerB
                                   2030 ;E:/Dropbox/FAUSTO/SVILUPPI/MSX/CODE/C/MSXgl/engine/src/v9990.h:574: inline void V9_SetInterrupt(u8 flags) { V9_SetRegister(9, flags); }
    0000078A 2E 03            [ 7] 2031 	ld	l, #0x03
                                   2032 ;	spillPairReg hl
                                   2033 ;	spillPairReg hl
    0000078C 3E 09            [ 7] 2034 	ld	a, #0x09
    0000078E CDr00r00         [17] 2035 	call	_V9_SetRegister
                                   2036 ;E:/Dropbox/FAUSTO/SVILUPPI/MSX/CODE/C/MSXgl/engine/src/v9990.h:606: inline void V9_SetInterruptLine(u16 line) { V9_SetRegister16(10, line); }
    00000791 11 47 00         [10] 2037 	ld	de, #0x0047
    00000794 3E 0A            [ 7] 2038 	ld	a, #0x0a
    00000796 CDr00r00         [17] 2039 	call	_V9_SetRegister16
                                   2040 ;E:/Dropbox/FAUSTO/SVILUPPI/MSX/CODE/C/MSXgl/engine/src/v9990.h:258: inline void V9_SetFlag(u8 reg, u8 mask, u8 flag) { V9_SetRegister(reg, V9_GetRegister(reg) & (~mask) | flag); }
    00000799 3E 08            [ 7] 2041 	ld	a, #0x08
    0000079B CDr00r00         [17] 2042 	call	_V9_GetRegister
    0000079E CB BF            [ 8] 2043 	res	7, a
    000007A0 6F               [ 4] 2044 	ld	l, a
                                   2045 ;	spillPairReg hl
                                   2046 ;	spillPairReg hl
    000007A1 CB FD            [ 8] 2047 	set	7, l
    000007A3 3E 08            [ 7] 2048 	ld	a, #0x08
                                   2049 ;./exsoccer.c:453: V9_SetDisplayEnable(TRUE);
                                   2050 ;./exsoccer.c:455: }
    000007A5 C3r00r00         [10] 2051 	jp	_V9_SetRegister
                                   2052 ;./exsoccer.c:458: void LoadSprites(){
                                   2053 ;	---------------------------------
                                   2054 ; Function LoadSprites
                                   2055 ; ---------------------------------
    000007A8                       2056 _LoadSprites::
                                   2057 ;E:/Dropbox/FAUSTO/SVILUPPI/MSX/CODE/C/MSXgl/engine/src/rom_mapper.h:112: g_Bank0Segment[b] = s;
    000007A8 21 08 00         [10] 2058 	ld	hl, #0x0008
    000007AB 22r04r00         [16] 2059 	ld	((_g_Bank0Segment + 4)), hl
                                   2060 ;E:/Dropbox/FAUSTO/SVILUPPI/MSX/CODE/C/MSXgl/engine/src/system.h:109: inline void Poke16(u16 addr, u16 val) { *(u16*)addr = val; }
    000007AE 22 00 70         [16] 2061 	ld	(0x7000), hl
                                   2062 ;E:/Dropbox/FAUSTO/SVILUPPI/MSX/CODE/C/MSXgl/engine/src/v9990.h:739: inline void V9_SetSpritePatternAddr(u8 addr) { V9_SetRegister(25, addr); }
    000007B1 2E 02            [ 7] 2063 	ld	l, #0x02
                                   2064 ;	spillPairReg hl
                                   2065 ;	spillPairReg hl
    000007B3 3E 19            [ 7] 2066 	ld	a, #0x19
    000007B5 CDr00r00         [17] 2067 	call	_V9_SetRegister
                                   2068 ;./exsoccer.c:462: V9_WriteVRAM(0x08000, g_Sprites1, sizeof(g_Sprites1));	
                                   2069 ;E:/Dropbox/FAUSTO/SVILUPPI/MSX/CODE/C/MSXgl/engine/src/v9990.h:371: inline void V9_WriteVRAM(u32 addr, const u8* src, u16 count) { V9_SetWriteAddress(addr); V9_WriteVRAM_CurrentAddr(src, count); }
    000007B8 11 00 80         [10] 2070 	ld	de, #0x8000
    000007BB 21 00 00         [10] 2071 	ld	hl, #0x0000
    000007BE CDr00r00         [17] 2072 	call	_V9_SetWriteAddress
    000007C1 11 00 40         [10] 2073 	ld	de, #0x4000
    000007C4 21r00r00         [10] 2074 	ld	hl, #_g_Sprites1
    000007C7 CDr00r00         [17] 2075 	call	_V9_WriteVRAM_CurrentAddr
                                   2076 ;E:/Dropbox/FAUSTO/SVILUPPI/MSX/CODE/C/MSXgl/engine/src/rom_mapper.h:112: g_Bank0Segment[b] = s;
    000007CA 21 09 00         [10] 2077 	ld	hl, #0x0009
    000007CD 22r04r00         [16] 2078 	ld	((_g_Bank0Segment + 4)), hl
                                   2079 ;E:/Dropbox/FAUSTO/SVILUPPI/MSX/CODE/C/MSXgl/engine/src/system.h:109: inline void Poke16(u16 addr, u16 val) { *(u16*)addr = val; }
    000007D0 22 00 70         [16] 2080 	ld	(0x7000), hl
                                   2081 ;./exsoccer.c:464: V9_WriteVRAM(0x08000+sizeof(g_Sprites1), g_Sprites2, sizeof(g_Sprites2));	
                                   2082 ;E:/Dropbox/FAUSTO/SVILUPPI/MSX/CODE/C/MSXgl/engine/src/v9990.h:371: inline void V9_WriteVRAM(u32 addr, const u8* src, u16 count) { V9_SetWriteAddress(addr); V9_WriteVRAM_CurrentAddr(src, count); }
    000007D3 11 00 C0         [10] 2083 	ld	de, #0xc000
    000007D6 6C               [ 4] 2084 	ld	l, h
    000007D7 CDr00r00         [17] 2085 	call	_V9_SetWriteAddress
    000007DA 11 00 40         [10] 2086 	ld	de, #0x4000
    000007DD 21r00r00         [10] 2087 	ld	hl, #_g_Sprites2
    000007E0 CDr00r00         [17] 2088 	call	_V9_WriteVRAM_CurrentAddr
                                   2089 ;E:/Dropbox/FAUSTO/SVILUPPI/MSX/CODE/C/MSXgl/engine/src/rom_mapper.h:112: g_Bank0Segment[b] = s;
    000007E3 21 01 00         [10] 2090 	ld	hl, #0x0001
    000007E6 22r04r00         [16] 2091 	ld	((_g_Bank0Segment + 4)), hl
                                   2092 ;E:/Dropbox/FAUSTO/SVILUPPI/MSX/CODE/C/MSXgl/engine/src/system.h:109: inline void Poke16(u16 addr, u16 val) { *(u16*)addr = val; }
    000007E9 22 00 70         [16] 2093 	ld	(0x7000), hl
                                   2094 ;./exsoccer.c:465: SET_BANK_SEGMENT(2, 1); 
                                   2095 ;./exsoccer.c:466: }
    000007EC C9               [10] 2096 	ret
                                   2097 ;./exsoccer.c:467: void TickTeamJoystick(u8 teamId, u8 direction){
                                   2098 ;	---------------------------------
                                   2099 ; Function TickTeamJoystick
                                   2100 ; ---------------------------------
    000007ED                       2101 _TickTeamJoystick::
    000007ED DD E5            [15] 2102 	push	ix
    000007EF DD 21 00 00      [14] 2103 	ld	ix,#0
    000007F3 DD 39            [15] 2104 	add	ix,sp
    000007F5 FD 21 C3 FF      [14] 2105 	ld	iy, #-61
    000007F9 FD 39            [15] 2106 	add	iy, sp
    000007FB FD F9            [10] 2107 	ld	sp, iy
    000007FD DD 77 FF         [19] 2108 	ld	-1 (ix), a
    00000800 DD 75 FE         [19] 2109 	ld	-2 (ix), l
                                   2110 ;./exsoccer.c:470: if (g_MatchStatus == MATCH_NOT_STARTED || 
    00000803 3Ar04r00         [13] 2111 	ld	a, (_g_MatchStatus+0)
    00000806 B7               [ 4] 2112 	or	a, a
    00000807 CAr36r16         [10] 2113 	jp	Z,00261$
                                   2114 ;./exsoccer.c:471: g_MatchStatus == MATCH_PLAYERS_PRESENTATION || 
                                   2115 ;./exsoccer.c:472: g_MatchStatus == MATCH_AFTER_IN_GOAL) {
    0000080A 3Ar04r00         [13] 2116 	ld	a,(_g_MatchStatus+0)
    0000080D FE 0B            [ 7] 2117 	cp	a,#0x0b
    0000080F CAr36r16         [10] 2118 	jp	Z,00261$
    00000812 D6 06            [ 7] 2119 	sub	a, #0x06
                                   2120 ;./exsoccer.c:473: return;
    00000814 CAr36r16         [10] 2121 	jp	Z,00261$
                                   2122 ;./exsoccer.c:477: if(teamId==TEAM_1){
    00000817 DD 7E FF         [19] 2123 	ld	a, -1 (ix)
    0000081A 3D               [ 4] 2124 	dec	a
    0000081B 3E 01            [ 7] 2125 	ld	a, #0x01
    0000081D 28 01            [12] 2126 	jr	Z, 00703$
    0000081F AF               [ 4] 2127 	xor	a, a
    00000820                       2128 00703$:
    00000820 DD 77 C3         [19] 2129 	ld	-61 (ix), a
    00000823 B7               [ 4] 2130 	or	a, a
    00000824 28 13            [12] 2131 	jr	Z, 00112$
                                   2132 ;./exsoccer.c:478: if(g_Team1ActivePlayer==NO_VALUE){
    00000826 3Ar07r00         [13] 2133 	ld	a, (_g_Team1ActivePlayer+0)
    00000829 3C               [ 4] 2134 	inc	a
    0000082A CAr36r16         [10] 2135 	jp	Z,00261$
                                   2136 ;./exsoccer.c:479: return;
    0000082D C3r30r08         [10] 2137 	jp	00106$
    00000830                       2138 00106$:
                                   2139 ;./exsoccer.c:482: playerId=g_Team1ActivePlayer;
    00000830 3Ar07r00         [13] 2140 	ld	a, (_g_Team1ActivePlayer+0)
    00000833 DD 77 FD         [19] 2141 	ld	-3 (ix), a
    00000836 C3r49r08         [10] 2142 	jp	00113$
    00000839                       2143 00112$:
                                   2144 ;./exsoccer.c:486: if(g_Team2ActivePlayer==NO_VALUE){
    00000839 3Ar08r00         [13] 2145 	ld	a, (_g_Team2ActivePlayer+0)
    0000083C 3C               [ 4] 2146 	inc	a
    0000083D CAr36r16         [10] 2147 	jp	Z,00261$
                                   2148 ;./exsoccer.c:487: return;
    00000840 C3r43r08         [10] 2149 	jp	00109$
    00000843                       2150 00109$:
                                   2151 ;./exsoccer.c:490: playerId=g_Team2ActivePlayer;
    00000843 3Ar08r00         [13] 2152 	ld	a, (_g_Team2ActivePlayer+0)
    00000846 DD 77 FD         [19] 2153 	ld	-3 (ix), a
    00000849                       2154 00113$:
                                   2155 ;./exsoccer.c:496: bool frameTriggerPressed = IsTeamJoystickTriggerPressed(teamId);
    00000849 DD 7E FF         [19] 2156 	ld	a, -1 (ix)
    0000084C CDr00r00         [17] 2157 	call	_IsTeamJoystickTriggerPressed
    0000084F DD 77 C4         [19] 2158 	ld	-60 (ix), a
                                   2159 ;./exsoccer.c:499: bool canSwitch = false;
    00000852 DD 36 FC 00      [19] 2160 	ld	-4 (ix), #0x00
                                   2161 ;./exsoccer.c:500: if (g_Ball.PossessionPlayerId == NO_VALUE) {
    00000856 3Ar0Br01         [13] 2162 	ld	a, (#(_g_Ball + 6) + 0)
    00000859 FE FF            [ 7] 2163 	cp	a, #0xff
    0000085B 20 07            [12] 2164 	jr	NZ, 00117$
                                   2165 ;./exsoccer.c:501: canSwitch = true; // Always allow switch on loose ball
    0000085D DD 36 FC 01      [19] 2166 	ld	-4 (ix), #0x01
    00000861 C3r80r08         [10] 2167 	jp	00118$
    00000864                       2168 00117$:
                                   2169 ;./exsoccer.c:503: u8 ballOwner = g_Ball.PossessionPlayerId;
    00000864 5F               [ 4] 2170 	ld	e, a
                                   2171 ;./exsoccer.c:504: if (g_Players[ballOwner].TeamId != teamId) {
    00000865 01r06r00         [10] 2172 	ld	bc, #_g_Players+0
    00000868 16 00            [ 7] 2173 	ld	d, #0x00
    0000086A 6B               [ 4] 2174 	ld	l, e
    0000086B 62               [ 4] 2175 	ld	h, d
    0000086C 29               [11] 2176 	add	hl, hl
    0000086D 29               [11] 2177 	add	hl, hl
    0000086E 29               [11] 2178 	add	hl, hl
    0000086F 29               [11] 2179 	add	hl, hl
    00000870 19               [11] 2180 	add	hl, de
    00000871 09               [11] 2181 	add	hl, bc
    00000872 11 05 00         [10] 2182 	ld	de, #0x0005
    00000875 19               [11] 2183 	add	hl, de
    00000876 DD 7E FF         [19] 2184 	ld	a,-1 (ix)
    00000879 96               [ 7] 2185 	sub	a,(hl)
    0000087A 28 04            [12] 2186 	jr	Z, 00118$
                                   2187 ;./exsoccer.c:505: canSwitch = true;
    0000087C DD 36 FC 01      [19] 2188 	ld	-4 (ix), #0x01
    00000880                       2189 00118$:
                                   2190 ;./exsoccer.c:509: if (canSwitch) {
    00000880 DD 7E FC         [19] 2191 	ld	a, -4 (ix)
    00000883 B7               [ 4] 2192 	or	a, a
    00000884 CAr8Ar0A         [10] 2193 	jp	Z, 00140$
                                   2194 ;./exsoccer.c:512: bool forceSwitch = frameTriggerPressed;
    00000887 DD 7E C4         [19] 2195 	ld	a, -60 (ix)
    0000088A DD 77 F8         [19] 2196 	ld	-8 (ix), a
                                   2197 ;./exsoccer.c:516: bool inputActive = (direction != DIRECTION_NONE);
    0000088D DD 7E FE         [19] 2198 	ld	a, -2 (ix)
    00000890 D6 01            [ 7] 2199 	sub	a,#0x01
    00000892 3E 00            [ 7] 2200 	ld	a, #0x00
    00000894 17               [ 4] 2201 	rla
    00000895 DD 77 FC         [19] 2202 	ld	-4 (ix), a
    00000898 EE 01            [ 7] 2203 	xor	a, #0x01
    0000089A DD 77 FC         [19] 2204 	ld	-4 (ix), a
                                   2205 ;./exsoccer.c:518: if (!inputActive || forceSwitch) {
    0000089D B7               [ 4] 2206 	or	a, a
    0000089E 28 07            [12] 2207 	jr	Z, 00136$
    000008A0 DD 7E C4         [19] 2208 	ld	a, -60 (ix)
    000008A3 B7               [ 4] 2209 	or	a, a
    000008A4 CAr8Ar0A         [10] 2210 	jp	Z, 00140$
    000008A7                       2211 00136$:
                                   2212 ;./exsoccer.c:520: u8 closestId = GetClosestPlayerToBall(teamId, NO_VALUE);
    000008A7 2E FF            [ 7] 2213 	ld	l, #0xff
                                   2214 ;	spillPairReg hl
                                   2215 ;	spillPairReg hl
    000008A9 DD 7E FF         [19] 2216 	ld	a, -1 (ix)
    000008AC CDr00r00         [17] 2217 	call	_GetClosestPlayerToBall
                                   2218 ;./exsoccer.c:523: if (closestId != NO_VALUE && g_Players[closestId].Role == PLAYER_ROLE_GOALKEEPER) {
    000008AF DD 77 F5         [19] 2219 	ld	-11 (ix), a
    000008B2 3C               [ 4] 2220 	inc	a
    000008B3 28 3C            [12] 2221 	jr	Z, 00120$
    000008B5 DD 4E F5         [19] 2222 	ld	c, -11 (ix)
    000008B8 06 00            [ 7] 2223 	ld	b, #0x00
    000008BA 69               [ 4] 2224 	ld	l, c
    000008BB 60               [ 4] 2225 	ld	h, b
    000008BC 29               [11] 2226 	add	hl, hl
    000008BD 29               [11] 2227 	add	hl, hl
    000008BE 29               [11] 2228 	add	hl, hl
    000008BF 29               [11] 2229 	add	hl, hl
    000008C0 09               [11] 2230 	add	hl, bc
    000008C1 DD 75 F9         [19] 2231 	ld	-7 (ix), l
    000008C4 DD 74 FA         [19] 2232 	ld	-6 (ix), h
    000008C7 3Er06            [ 7] 2233 	ld	a, #<(_g_Players)
    000008C9 DD 86 F9         [19] 2234 	add	a, -7 (ix)
    000008CC DD 77 FB         [19] 2235 	ld	-5 (ix), a
    000008CF 3Es00            [ 7] 2236 	ld	a, #>(_g_Players)
    000008D1 DD 8E FA         [19] 2237 	adc	a, -6 (ix)
    000008D4 DD 77 FC         [19] 2238 	ld	-4 (ix), a
    000008D7 DD 6E FB         [19] 2239 	ld	l, -5 (ix)
    000008DA DD 66 FC         [19] 2240 	ld	h, -4 (ix)
    000008DD 11 09 00         [10] 2241 	ld	de, #0x0009
    000008E0 19               [11] 2242 	add	hl, de
    000008E1 7E               [ 7] 2243 	ld	a, (hl)
    000008E2 B7               [ 4] 2244 	or	a, a
    000008E3 20 0C            [12] 2245 	jr	NZ, 00120$
                                   2246 ;./exsoccer.c:525: closestId = GetClosestPlayerToBall(teamId, closestId);
    000008E5 DD 6E F5         [19] 2247 	ld	l, -11 (ix)
                                   2248 ;	spillPairReg hl
                                   2249 ;	spillPairReg hl
    000008E8 DD 7E FF         [19] 2250 	ld	a, -1 (ix)
    000008EB CDr00r00         [17] 2251 	call	_GetClosestPlayerToBall
    000008EE DD 77 F5         [19] 2252 	ld	-11 (ix), a
    000008F1                       2253 00120$:
                                   2254 ;./exsoccer.c:528: if (closestId != playerId && closestId != NO_VALUE) {
    000008F1 DD 7E F5         [19] 2255 	ld	a, -11 (ix)
    000008F4 DD 96 FD         [19] 2256 	sub	a, -3 (ix)
    000008F7 CAr8Ar0A         [10] 2257 	jp	Z,00140$
    000008FA DD 7E F5         [19] 2258 	ld	a, -11 (ix)
    000008FD 3C               [ 4] 2259 	inc	a
    000008FE CAr8Ar0A         [10] 2260 	jp	Z,00140$
                                   2261 ;./exsoccer.c:530: if (forceSwitch) {
    00000901 DD 7E F8         [19] 2262 	ld	a, -8 (ix)
    00000904 B7               [ 4] 2263 	or	a, a
    00000905 28 22            [12] 2264 	jr	Z, 00131$
                                   2265 ;./exsoccer.c:532: if (teamId == TEAM_1) g_Team1ActivePlayer = closestId;
    00000907 DD 7E C3         [19] 2266 	ld	a, -61 (ix)
    0000090A B7               [ 4] 2267 	or	a, a
    0000090B 28 09            [12] 2268 	jr	Z, 00123$
    0000090D DD 7E F5         [19] 2269 	ld	a, -11 (ix)
    00000910 32r07r00         [13] 2270 	ld	(_g_Team1ActivePlayer+0), a
    00000913 C3r1Cr09         [10] 2271 	jp	00124$
    00000916                       2272 00123$:
                                   2273 ;./exsoccer.c:533: else g_Team2ActivePlayer = closestId;
    00000916 DD 7E F5         [19] 2274 	ld	a, -11 (ix)
    00000919 32r08r00         [13] 2275 	ld	(_g_Team2ActivePlayer+0), a
    0000091C                       2276 00124$:
                                   2277 ;./exsoccer.c:534: playerId = closestId; 
    0000091C DD 7E F5         [19] 2278 	ld	a, -11 (ix)
    0000091F DD 77 FD         [19] 2279 	ld	-3 (ix), a
                                   2280 ;./exsoccer.c:537: frameTriggerPressed = false;
    00000922 DD 36 C4 00      [19] 2281 	ld	-60 (ix), #0x00
    00000926 C3r8Ar0A         [10] 2282 	jp	00140$
    00000929                       2283 00131$:
                                   2284 ;./exsoccer.c:542: u8 histThreshold = (g_Ball.PossessionPlayerId == NO_VALUE) ? 10 : 30;
    00000929 3Ar0Br01         [13] 2285 	ld	a, (#(_g_Ball + 6) + 0)
    0000092C 3C               [ 4] 2286 	inc	a
    0000092D 20 0B            [12] 2287 	jr	NZ, 00263$
    0000092F DD 36 FB 0A      [19] 2288 	ld	-5 (ix), #0x0a
    00000933 DD 36 FC 00      [19] 2289 	ld	-4 (ix), #0
    00000937 C3r42r09         [10] 2290 	jp	00264$
    0000093A                       2291 00263$:
    0000093A DD 36 FB 1E      [19] 2292 	ld	-5 (ix), #0x1e
    0000093E DD 36 FC 00      [19] 2293 	ld	-4 (ix), #0
    00000942                       2294 00264$:
    00000942 DD 7E FB         [19] 2295 	ld	a, -5 (ix)
    00000945 DD 77 F6         [19] 2296 	ld	-10 (ix), a
                                   2297 ;./exsoccer.c:545: u16 distX_Curr = (g_Players[playerId].X > g_Ball.X) ? (g_Players[playerId].X - g_Ball.X) : (g_Ball.X - g_Players[playerId].X);
    00000948 DD 4E FD         [19] 2298 	ld	c, -3 (ix)
    0000094B 06 00            [ 7] 2299 	ld	b, #0x00
    0000094D 69               [ 4] 2300 	ld	l, c
    0000094E 60               [ 4] 2301 	ld	h, b
    0000094F 29               [11] 2302 	add	hl, hl
    00000950 29               [11] 2303 	add	hl, hl
    00000951 29               [11] 2304 	add	hl, hl
    00000952 29               [11] 2305 	add	hl, hl
    00000953 09               [11] 2306 	add	hl, bc
    00000954 DD 75 FB         [19] 2307 	ld	-5 (ix), l
    00000957 DD 74 FC         [19] 2308 	ld	-4 (ix), h
    0000095A 3Er06            [ 7] 2309 	ld	a, #<(_g_Players)
    0000095C DD 86 FB         [19] 2310 	add	a, -5 (ix)
    0000095F DD 77 F7         [19] 2311 	ld	-9 (ix), a
    00000962 3Es00            [ 7] 2312 	ld	a, #>(_g_Players)
    00000964 DD 8E FC         [19] 2313 	adc	a, -4 (ix)
    00000967 DD 77 F8         [19] 2314 	ld	-8 (ix), a
    0000096A DD 7E F7         [19] 2315 	ld	a, -9 (ix)
    0000096D DD 77 FB         [19] 2316 	ld	-5 (ix), a
    00000970 DD 7E F8         [19] 2317 	ld	a, -8 (ix)
    00000973 DD 77 FC         [19] 2318 	ld	-4 (ix), a
    00000976 DD 6E FB         [19] 2319 	ld	l, -5 (ix)
    00000979 DD 66 FC         [19] 2320 	ld	h, -4 (ix)
    0000097C 23               [ 6] 2321 	inc	hl
    0000097D 23               [ 6] 2322 	inc	hl
    0000097E 7E               [ 7] 2323 	ld	a, (hl)
    0000097F DD 77 F3         [19] 2324 	ld	-13 (ix), a
    00000982 23               [ 6] 2325 	inc	hl
    00000983 7E               [ 7] 2326 	ld	a, (hl)
    00000984 DD 77 F4         [19] 2327 	ld	-12 (ix), a
    00000987 21r07r01         [10] 2328 	ld	hl, #_g_Ball + 2
    0000098A 7E               [ 7] 2329 	ld	a, (hl)
    0000098B DD 77 F9         [19] 2330 	ld	-7 (ix), a
    0000098E 23               [ 6] 2331 	inc	hl
    0000098F 7E               [ 7] 2332 	ld	a, (hl)
    00000990 DD 77 FA         [19] 2333 	ld	-6 (ix), a
    00000993 DD 7E F9         [19] 2334 	ld	a, -7 (ix)
    00000996 DD 96 F3         [19] 2335 	sub	a, -13 (ix)
    00000999 DD 7E FA         [19] 2336 	ld	a, -6 (ix)
    0000099C DD 9E F4         [19] 2337 	sbc	a, -12 (ix)
    0000099F 30 15            [12] 2338 	jr	NC, 00265$
    000009A1 DD 7E F3         [19] 2339 	ld	a, -13 (ix)
    000009A4 DD 96 F9         [19] 2340 	sub	a, -7 (ix)
    000009A7 DD 77 FB         [19] 2341 	ld	-5 (ix), a
    000009AA DD 7E F4         [19] 2342 	ld	a, -12 (ix)
    000009AD DD 9E FA         [19] 2343 	sbc	a, -6 (ix)
    000009B0 DD 77 FC         [19] 2344 	ld	-4 (ix), a
    000009B3 C3rC8r09         [10] 2345 	jp	00266$
    000009B6                       2346 00265$:
    000009B6 DD 7E F9         [19] 2347 	ld	a, -7 (ix)
    000009B9 DD 96 F3         [19] 2348 	sub	a, -13 (ix)
    000009BC DD 77 FB         [19] 2349 	ld	-5 (ix), a
    000009BF DD 7E FA         [19] 2350 	ld	a, -6 (ix)
    000009C2 DD 9E F4         [19] 2351 	sbc	a, -12 (ix)
    000009C5 DD 77 FC         [19] 2352 	ld	-4 (ix), a
    000009C8                       2353 00266$:
                                   2354 ;./exsoccer.c:546: u16 distY_Curr = (g_Players[playerId].Y > g_Ball.Y) ? (g_Players[playerId].Y - g_Ball.Y) : (g_Ball.Y - g_Players[playerId].Y);
    000009C8 DD 6E F7         [19] 2355 	ld	l, -9 (ix)
    000009CB DD 66 F8         [19] 2356 	ld	h, -8 (ix)
    000009CE 4E               [ 7] 2357 	ld	c, (hl)
    000009CF 23               [ 6] 2358 	inc	hl
    000009D0 46               [ 7] 2359 	ld	b, (hl)
    000009D1 ED 5Br05r01      [20] 2360 	ld	de, (#_g_Ball + 0)
    000009D5 7B               [ 4] 2361 	ld	a, e
    000009D6 91               [ 4] 2362 	sub	a, c
    000009D7 7A               [ 4] 2363 	ld	a, d
    000009D8 98               [ 4] 2364 	sbc	a, b
    000009D9 30 08            [12] 2365 	jr	NC, 00267$
    000009DB 79               [ 4] 2366 	ld	a, c
    000009DC 93               [ 4] 2367 	sub	a, e
    000009DD 4F               [ 4] 2368 	ld	c, a
    000009DE 78               [ 4] 2369 	ld	a, b
    000009DF 9A               [ 4] 2370 	sbc	a, d
    000009E0 C3rE8r09         [10] 2371 	jp	00268$
    000009E3                       2372 00267$:
    000009E3 7B               [ 4] 2373 	ld	a, e
    000009E4 91               [ 4] 2374 	sub	a, c
    000009E5 4F               [ 4] 2375 	ld	c, a
    000009E6 7A               [ 4] 2376 	ld	a, d
    000009E7 98               [ 4] 2377 	sbc	a, b
    000009E8                       2378 00268$:
    000009E8 47               [ 4] 2379 	ld	b, a
                                   2380 ;./exsoccer.c:547: u16 distCurr = distX_Curr + distY_Curr;
    000009E9 DD 6E FB         [19] 2381 	ld	l, -5 (ix)
    000009EC DD 66 FC         [19] 2382 	ld	h, -4 (ix)
    000009EF 09               [11] 2383 	add	hl, bc
    000009F0 DD 75 F7         [19] 2384 	ld	-9 (ix), l
    000009F3 DD 74 F8         [19] 2385 	ld	-8 (ix), h
                                   2386 ;./exsoccer.c:549: u16 distX_New = (g_Players[closestId].X > g_Ball.X) ? (g_Players[closestId].X - g_Ball.X) : (g_Ball.X - g_Players[closestId].X);
    000009F6 DD 4E F5         [19] 2387 	ld	c, -11 (ix)
    000009F9 06 00            [ 7] 2388 	ld	b, #0x00
    000009FB 69               [ 4] 2389 	ld	l, c
    000009FC 60               [ 4] 2390 	ld	h, b
    000009FD 29               [11] 2391 	add	hl, hl
    000009FE 29               [11] 2392 	add	hl, hl
    000009FF 29               [11] 2393 	add	hl, hl
    00000A00 29               [11] 2394 	add	hl, hl
    00000A01 09               [11] 2395 	add	hl, bc
    00000A02 01r06r00         [10] 2396 	ld	bc,#_g_Players
    00000A05 09               [11] 2397 	add	hl,bc
                                   2398 ;	spillPairReg hl
                                   2399 ;	spillPairReg hl
    00000A06 DD 75 FB         [19] 2400 	ld	-5 (ix), l
    00000A09 DD 74 FC         [19] 2401 	ld	-4 (ix), h
                                   2402 ;	spillPairReg hl
                                   2403 ;	spillPairReg hl
    00000A0C 23               [ 6] 2404 	inc	hl
    00000A0D 23               [ 6] 2405 	inc	hl
    00000A0E 4E               [ 7] 2406 	ld	c, (hl)
    00000A0F 23               [ 6] 2407 	inc	hl
    00000A10 46               [ 7] 2408 	ld	b, (hl)
    00000A11 DD 7E F9         [19] 2409 	ld	a, -7 (ix)
    00000A14 91               [ 4] 2410 	sub	a, c
    00000A15 DD 7E FA         [19] 2411 	ld	a, -6 (ix)
    00000A18 98               [ 4] 2412 	sbc	a, b
    00000A19 30 0C            [12] 2413 	jr	NC, 00269$
    00000A1B 79               [ 4] 2414 	ld	a, c
    00000A1C DD 96 F9         [19] 2415 	sub	a, -7 (ix)
    00000A1F 4F               [ 4] 2416 	ld	c, a
    00000A20 78               [ 4] 2417 	ld	a, b
    00000A21 DD 9E FA         [19] 2418 	sbc	a, -6 (ix)
    00000A24 C3r30r0A         [10] 2419 	jp	00270$
    00000A27                       2420 00269$:
    00000A27 DD 7E F9         [19] 2421 	ld	a, -7 (ix)
    00000A2A 91               [ 4] 2422 	sub	a, c
    00000A2B 4F               [ 4] 2423 	ld	c, a
    00000A2C DD 7E FA         [19] 2424 	ld	a, -6 (ix)
    00000A2F 98               [ 4] 2425 	sbc	a, b
    00000A30                       2426 00270$:
    00000A30 DD 71 F9         [19] 2427 	ld	-7 (ix), c
    00000A33 DD 77 FA         [19] 2428 	ld	-6 (ix), a
                                   2429 ;./exsoccer.c:550: u16 distY_New = (g_Players[closestId].Y > g_Ball.Y) ? (g_Players[closestId].Y - g_Ball.Y) : (g_Ball.Y - g_Players[closestId].Y);
    00000A36 DD 6E FB         [19] 2430 	ld	l, -5 (ix)
    00000A39 DD 66 FC         [19] 2431 	ld	h, -4 (ix)
    00000A3C 4E               [ 7] 2432 	ld	c, (hl)
    00000A3D 23               [ 6] 2433 	inc	hl
    00000A3E 46               [ 7] 2434 	ld	b, (hl)
    00000A3F 7B               [ 4] 2435 	ld	a, e
    00000A40 91               [ 4] 2436 	sub	a, c
    00000A41 7A               [ 4] 2437 	ld	a, d
    00000A42 98               [ 4] 2438 	sbc	a, b
    00000A43 30 08            [12] 2439 	jr	NC, 00271$
    00000A45 79               [ 4] 2440 	ld	a, c
    00000A46 93               [ 4] 2441 	sub	a, e
    00000A47 4F               [ 4] 2442 	ld	c, a
    00000A48 78               [ 4] 2443 	ld	a, b
    00000A49 9A               [ 4] 2444 	sbc	a, d
    00000A4A C3r52r0A         [10] 2445 	jp	00272$
    00000A4D                       2446 00271$:
    00000A4D 7B               [ 4] 2447 	ld	a, e
    00000A4E 91               [ 4] 2448 	sub	a, c
    00000A4F 4F               [ 4] 2449 	ld	c, a
    00000A50 7A               [ 4] 2450 	ld	a, d
    00000A51 98               [ 4] 2451 	sbc	a, b
    00000A52                       2452 00272$:
    00000A52 47               [ 4] 2453 	ld	b, a
                                   2454 ;./exsoccer.c:551: u16 distNew = distX_New + distY_New;
    00000A53 DD 6E F9         [19] 2455 	ld	l, -7 (ix)
    00000A56 DD 66 FA         [19] 2456 	ld	h, -6 (ix)
    00000A59 09               [11] 2457 	add	hl, bc
    00000A5A EB               [ 4] 2458 	ex	de, hl
                                   2459 ;./exsoccer.c:553: if (distNew < (distCurr - histThreshold)) {
    00000A5B DD 4E F6         [19] 2460 	ld	c, -10 (ix)
    00000A5E 06 00            [ 7] 2461 	ld	b, #0x00
    00000A60 DD 6E F7         [19] 2462 	ld	l, -9 (ix)
                                   2463 ;	spillPairReg hl
                                   2464 ;	spillPairReg hl
    00000A63 DD 66 F8         [19] 2465 	ld	h, -8 (ix)
                                   2466 ;	spillPairReg hl
                                   2467 ;	spillPairReg hl
    00000A66 BF               [ 4] 2468 	cp	a, a
    00000A67 ED 42            [15] 2469 	sbc	hl, bc
    00000A69 7B               [ 4] 2470 	ld	a, e
    00000A6A 95               [ 4] 2471 	sub	a, l
    00000A6B 7A               [ 4] 2472 	ld	a, d
    00000A6C 9C               [ 4] 2473 	sbc	a, h
    00000A6D 30 1B            [12] 2474 	jr	NC, 00140$
                                   2475 ;./exsoccer.c:554: if (teamId == TEAM_1) g_Team1ActivePlayer = closestId;
    00000A6F DD 7E C3         [19] 2476 	ld	a, -61 (ix)
    00000A72 B7               [ 4] 2477 	or	a, a
    00000A73 28 09            [12] 2478 	jr	Z, 00126$
    00000A75 DD 7E F5         [19] 2479 	ld	a, -11 (ix)
    00000A78 32r07r00         [13] 2480 	ld	(_g_Team1ActivePlayer+0), a
    00000A7B C3r84r0A         [10] 2481 	jp	00127$
    00000A7E                       2482 00126$:
                                   2483 ;./exsoccer.c:555: else g_Team2ActivePlayer = closestId;
    00000A7E DD 7E F5         [19] 2484 	ld	a, -11 (ix)
    00000A81 32r08r00         [13] 2485 	ld	(_g_Team2ActivePlayer+0), a
    00000A84                       2486 00127$:
                                   2487 ;./exsoccer.c:556: playerId = closestId;
    00000A84 DD 7E F5         [19] 2488 	ld	a, -11 (ix)
    00000A87 DD 77 FD         [19] 2489 	ld	-3 (ix), a
    00000A8A                       2490 00140$:
                                   2491 ;./exsoccer.c:563: if (g_Players[playerId].Status == PLAYER_STATUS_POSITIONED) return;
    00000A8A 01r06r00         [10] 2492 	ld	bc, #_g_Players+0
    00000A8D DD 5E FD         [19] 2493 	ld	e, -3 (ix)
    00000A90 16 00            [ 7] 2494 	ld	d, #0x00
    00000A92 6B               [ 4] 2495 	ld	l, e
    00000A93 62               [ 4] 2496 	ld	h, d
    00000A94 29               [11] 2497 	add	hl, hl
    00000A95 29               [11] 2498 	add	hl, hl
    00000A96 29               [11] 2499 	add	hl, hl
    00000A97 29               [11] 2500 	add	hl, hl
    00000A98 19               [11] 2501 	add	hl, de
    00000A99 09               [11] 2502 	add	hl, bc
    00000A9A DD 75 F1         [19] 2503 	ld	-15 (ix), l
    00000A9D DD 74 F2         [19] 2504 	ld	-14 (ix), h
    00000AA0 DD 7E F1         [19] 2505 	ld	a, -15 (ix)
    00000AA3 C6 0E            [ 7] 2506 	add	a, #0x0e
    00000AA5 DD 77 F3         [19] 2507 	ld	-13 (ix), a
    00000AA8 DD 7E F2         [19] 2508 	ld	a, -14 (ix)
    00000AAB CE 00            [ 7] 2509 	adc	a, #0x00
    00000AAD DD 77 F4         [19] 2510 	ld	-12 (ix), a
    00000AB0 DD 6E F3         [19] 2511 	ld	l, -13 (ix)
    00000AB3 DD 66 F4         [19] 2512 	ld	h, -12 (ix)
    00000AB6 4E               [ 7] 2513 	ld	c, (hl)
    00000AB7 23               [ 6] 2514 	inc	hl
    00000AB8 46               [ 7] 2515 	ld	b, (hl)
    00000AB9 79               [ 4] 2516 	ld	a, c
    00000ABA D6 04            [ 7] 2517 	sub	a, #0x04
    00000ABC B0               [ 4] 2518 	or	a, b
    00000ABD CAr36r16         [10] 2519 	jp	Z,00261$
    00000AC0 C3rC3r0A         [10] 2520 	jp	00142$
    00000AC3                       2521 00142$:
                                   2522 ;./exsoccer.c:570: if (g_ActionCooldown > 0) frameTriggerPressed = false;
    00000AC3 3Ar0Cr00         [13] 2523 	ld	a, (_g_ActionCooldown+0)
    00000AC6 B7               [ 4] 2524 	or	a, a
    00000AC7 28 04            [12] 2525 	jr	Z, 00144$
    00000AC9 DD 36 C4 00      [19] 2526 	ld	-60 (ix), #0x00
    00000ACD                       2527 00144$:
                                   2528 ;./exsoccer.c:573: if (frameTriggerPressed && g_Ball.PossessionPlayerId == NO_VALUE) {
    00000ACD DD 7E C4         [19] 2529 	ld	a, -60 (ix)
    00000AD0 B7               [ 4] 2530 	or	a, a
    00000AD1 CAr98r0B         [10] 2531 	jp	Z, 00151$
    00000AD4 3Ar0Br01         [13] 2532 	ld	a, (#(_g_Ball + 6) + 0)
    00000AD7 3C               [ 4] 2533 	inc	a
    00000AD8 C2r98r0B         [10] 2534 	jp	NZ,00151$
                                   2535 ;./exsoccer.c:574: i16 dx = (i16)g_Players[playerId].X - (i16)g_Ball.X;
    00000ADB DD 7E F1         [19] 2536 	ld	a, -15 (ix)
    00000ADE DD 77 FB         [19] 2537 	ld	-5 (ix), a
    00000AE1 DD 7E F2         [19] 2538 	ld	a, -14 (ix)
    00000AE4 DD 77 FC         [19] 2539 	ld	-4 (ix), a
    00000AE7 DD 6E FB         [19] 2540 	ld	l, -5 (ix)
    00000AEA DD 66 FC         [19] 2541 	ld	h, -4 (ix)
    00000AED 23               [ 6] 2542 	inc	hl
    00000AEE 23               [ 6] 2543 	inc	hl
    00000AEF 7E               [ 7] 2544 	ld	a, (hl)
    00000AF0 DD 77 FB         [19] 2545 	ld	-5 (ix), a
    00000AF3 23               [ 6] 2546 	inc	hl
    00000AF4 7E               [ 7] 2547 	ld	a, (hl)
    00000AF5 DD 77 FC         [19] 2548 	ld	-4 (ix), a
    00000AF8 2Ar07r01         [16] 2549 	ld	hl, (#_g_Ball + 2)
    00000AFB DD 7E FB         [19] 2550 	ld	a, -5 (ix)
    00000AFE 95               [ 4] 2551 	sub	a, l
    00000AFF 4F               [ 4] 2552 	ld	c, a
    00000B00 DD 7E FC         [19] 2553 	ld	a, -4 (ix)
    00000B03 9C               [ 4] 2554 	sbc	a, h
    00000B04 47               [ 4] 2555 	ld	b, a
    00000B05 DD 71 F5         [19] 2556 	ld	-11 (ix), c
    00000B08 DD 70 F6         [19] 2557 	ld	-10 (ix), b
                                   2558 ;./exsoccer.c:575: i16 dy = (i16)g_Players[playerId].Y - (i16)g_Ball.Y;
    00000B0B DD 6E F1         [19] 2559 	ld	l, -15 (ix)
    00000B0E DD 66 F2         [19] 2560 	ld	h, -14 (ix)
    00000B11 7E               [ 7] 2561 	ld	a, (hl)
    00000B12 DD 77 FB         [19] 2562 	ld	-5 (ix), a
    00000B15 23               [ 6] 2563 	inc	hl
    00000B16 7E               [ 7] 2564 	ld	a, (hl)
    00000B17 DD 77 FC         [19] 2565 	ld	-4 (ix), a
    00000B1A DD 7E FB         [19] 2566 	ld	a, -5 (ix)
    00000B1D DD 77 F7         [19] 2567 	ld	-9 (ix), a
    00000B20 DD 7E FC         [19] 2568 	ld	a, -4 (ix)
    00000B23 DD 77 F8         [19] 2569 	ld	-8 (ix), a
    00000B26 21r05r01         [10] 2570 	ld	hl, #_g_Ball
    00000B29 7E               [ 7] 2571 	ld	a, (hl)
    00000B2A DD 77 FB         [19] 2572 	ld	-5 (ix), a
    00000B2D 23               [ 6] 2573 	inc	hl
    00000B2E 7E               [ 7] 2574 	ld	a, (hl)
    00000B2F DD 77 FC         [19] 2575 	ld	-4 (ix), a
    00000B32 DD 7E FB         [19] 2576 	ld	a, -5 (ix)
    00000B35 DD 77 F9         [19] 2577 	ld	-7 (ix), a
    00000B38 DD 7E FC         [19] 2578 	ld	a, -4 (ix)
    00000B3B DD 77 FA         [19] 2579 	ld	-6 (ix), a
    00000B3E DD 7E F7         [19] 2580 	ld	a, -9 (ix)
    00000B41 DD 96 F9         [19] 2581 	sub	a, -7 (ix)
    00000B44 DD 77 FB         [19] 2582 	ld	-5 (ix), a
    00000B47 DD 7E F8         [19] 2583 	ld	a, -8 (ix)
    00000B4A DD 9E FA         [19] 2584 	sbc	a, -6 (ix)
    00000B4D DD 77 FC         [19] 2585 	ld	-4 (ix), a
    00000B50 DD 4E FB         [19] 2586 	ld	c, -5 (ix)
    00000B53 DD 46 FC         [19] 2587 	ld	b, -4 (ix)
                                   2588 ;./exsoccer.c:576: if (dx > -16 && dx < 16 && dy > -16 && dy < 16) {
    00000B56 3E F0            [ 7] 2589 	ld	a, #0xf0
    00000B58 DD BE F5         [19] 2590 	cp	a, -11 (ix)
    00000B5B 3E FF            [ 7] 2591 	ld	a, #0xff
    00000B5D DD 9E F6         [19] 2592 	sbc	a, -10 (ix)
    00000B60 E2r65r0B         [10] 2593 	jp	PO, 00720$
    00000B63 EE 80            [ 7] 2594 	xor	a, #0x80
    00000B65                       2595 00720$:
    00000B65 F2r98r0B         [10] 2596 	jp	P, 00151$
    00000B68 DD 5E F5         [19] 2597 	ld	e, -11 (ix)
    00000B6B DD 56 F6         [19] 2598 	ld	d, -10 (ix)
    00000B6E 7B               [ 4] 2599 	ld	a, e
    00000B6F D6 10            [ 7] 2600 	sub	a, #0x10
    00000B71 7A               [ 4] 2601 	ld	a, d
    00000B72 17               [ 4] 2602 	rla
    00000B73 3F               [ 4] 2603 	ccf
    00000B74 1F               [ 4] 2604 	rra
    00000B75 DE 80            [ 7] 2605 	sbc	a, #0x80
    00000B77 30 1F            [12] 2606 	jr	NC, 00151$
    00000B79 3E F0            [ 7] 2607 	ld	a, #0xf0
    00000B7B B9               [ 4] 2608 	cp	a, c
    00000B7C 3E FF            [ 7] 2609 	ld	a, #0xff
    00000B7E 98               [ 4] 2610 	sbc	a, b
    00000B7F E2r84r0B         [10] 2611 	jp	PO, 00721$
    00000B82 EE 80            [ 7] 2612 	xor	a, #0x80
    00000B84                       2613 00721$:
    00000B84 F2r98r0B         [10] 2614 	jp	P, 00151$
    00000B87 79               [ 4] 2615 	ld	a, c
    00000B88 D6 10            [ 7] 2616 	sub	a, #0x10
    00000B8A 78               [ 4] 2617 	ld	a, b
    00000B8B 17               [ 4] 2618 	rla
    00000B8C 3F               [ 4] 2619 	ccf
    00000B8D 1F               [ 4] 2620 	rra
    00000B8E DE 80            [ 7] 2621 	sbc	a, #0x80
    00000B90 30 06            [12] 2622 	jr	NC, 00151$
                                   2623 ;./exsoccer.c:577: PutBallOnPlayerFeet(playerId);
    00000B92 DD 7E FD         [19] 2624 	ld	a, -3 (ix)
    00000B95 CDr00r00         [17] 2625 	call	_PutBallOnPlayerFeet
    00000B98                       2626 00151$:
                                   2627 ;./exsoccer.c:581: if(g_Ball.PossessionPlayerId==playerId){
    00000B98 21r0Br01         [10] 2628 	ld	hl, #(_g_Ball + 6)
    00000B9B DD 7E FD         [19] 2629 	ld	a,-3 (ix)
    00000B9E 96               [ 7] 2630 	sub	a,(hl)
    00000B9F C2r5Er13         [10] 2631 	jp	NZ,00259$
                                   2632 ;./exsoccer.c:584: if (g_ActionCooldown > 0) return;
    00000BA2 3Ar0Cr00         [13] 2633 	ld	a, (_g_ActionCooldown+0)
    00000BA5 B7               [ 4] 2634 	or	a, a
    00000BA6 C2r36r16         [10] 2635 	jp	NZ,00261$
                                   2636 ;./exsoccer.c:586: if (frameTriggerPressed) {
    00000BA9 DD 7E C4         [19] 2637 	ld	a, -60 (ix)
    00000BAC B7               [ 4] 2638 	or	a, a
    00000BAD CAr08r0D         [10] 2639 	jp	Z, 00195$
                                   2640 ;./exsoccer.c:590: if (g_MatchStatus == MATCH_IN_ACTION) {
    00000BB0 3Ar04r00         [13] 2641 	ld	a, (_g_MatchStatus+0)
    00000BB3 D6 0C            [ 7] 2642 	sub	a, #0x0c
    00000BB5 C2rDFr0C         [10] 2643 	jp	NZ,00189$
                                   2644 ;./exsoccer.c:591: bool isShooting = false;
    00000BB8 DD 36 F6 00      [19] 2645 	ld	-10 (ix), #0x00
                                   2646 ;./exsoccer.c:598: u16 plY = g_Players[playerId].Y;
    00000BBC DD 6E F1         [19] 2647 	ld	l, -15 (ix)
    00000BBF DD 66 F2         [19] 2648 	ld	h, -14 (ix)
    00000BC2 7E               [ 7] 2649 	ld	a, (hl)
    00000BC3 DD 77 F7         [19] 2650 	ld	-9 (ix), a
    00000BC6 23               [ 6] 2651 	inc	hl
    00000BC7 7E               [ 7] 2652 	ld	a, (hl)
    00000BC8 DD 77 F8         [19] 2653 	ld	-8 (ix), a
                                   2654 ;./exsoccer.c:599: u16 plX = g_Players[playerId].X;
    00000BCB DD 7E F1         [19] 2655 	ld	a, -15 (ix)
    00000BCE DD 77 FB         [19] 2656 	ld	-5 (ix), a
    00000BD1 DD 7E F2         [19] 2657 	ld	a, -14 (ix)
    00000BD4 DD 77 FC         [19] 2658 	ld	-4 (ix), a
    00000BD7 DD 6E FB         [19] 2659 	ld	l, -5 (ix)
    00000BDA DD 66 FC         [19] 2660 	ld	h, -4 (ix)
    00000BDD 23               [ 6] 2661 	inc	hl
    00000BDE 23               [ 6] 2662 	inc	hl
    00000BDF 7E               [ 7] 2663 	ld	a, (hl)
    00000BE0 DD 77 F9         [19] 2664 	ld	-7 (ix), a
    00000BE3 23               [ 6] 2665 	inc	hl
    00000BE4 7E               [ 7] 2666 	ld	a, (hl)
    00000BE5 DD 77 FA         [19] 2667 	ld	-6 (ix), a
                                   2668 ;./exsoccer.c:603: if (plY >= FIELD_BOUND_Y_TOP && plY <= (FIELD_BOUND_Y_TOP + 120)) { 
    00000BE8 DD 7E F7         [19] 2669 	ld	a, -9 (ix)
    00000BEB DD 77 FB         [19] 2670 	ld	-5 (ix), a
    00000BEE DD 7E F8         [19] 2671 	ld	a, -8 (ix)
    00000BF1 DD 77 FC         [19] 2672 	ld	-4 (ix), a
                                   2673 ;./exsoccer.c:601: if (teamId == TEAM_1) { // Attacking UP (Towards Top)
    00000BF4 DD 7E C3         [19] 2674 	ld	a, -61 (ix)
    00000BF7 B7               [ 4] 2675 	or	a, a
    00000BF8 28 71            [12] 2676 	jr	Z, 00184$
                                   2677 ;./exsoccer.c:603: if (plY >= FIELD_BOUND_Y_TOP && plY <= (FIELD_BOUND_Y_TOP + 120)) { 
    00000BFA DD 7E FB         [19] 2678 	ld	a, -5 (ix)
    00000BFD D6 32            [ 7] 2679 	sub	a, #0x32
    00000BFF DD 7E FC         [19] 2680 	ld	a, -4 (ix)
    00000C02 DE 00            [ 7] 2681 	sbc	a, #0x00
    00000C04 DArD1r0C         [10] 2682 	jp	C, 00185$
    00000C07 3E AA            [ 7] 2683 	ld	a, #0xaa
    00000C09 DD BE F7         [19] 2684 	cp	a, -9 (ix)
    00000C0C 3E 00            [ 7] 2685 	ld	a, #0x00
    00000C0E DD 9E F8         [19] 2686 	sbc	a, -8 (ix)
    00000C11 DArD1r0C         [10] 2687 	jp	C, 00185$
                                   2688 ;./exsoccer.c:604: if (checkDir == DIRECTION_UP || checkDir == DIRECTION_UP_LEFT || checkDir == DIRECTION_UP_RIGHT) {
    00000C14 DD 7E FE         [19] 2689 	ld	a, -2 (ix)
    00000C17 3D               [ 4] 2690 	dec	a
    00000C18 28 0F            [12] 2691 	jr	Z, 00162$
    00000C1A DD 7E FE         [19] 2692 	ld	a, -2 (ix)
    00000C1D D6 08            [ 7] 2693 	sub	a, #0x08
    00000C1F 28 08            [12] 2694 	jr	Z, 00162$
    00000C21 DD 7E FE         [19] 2695 	ld	a, -2 (ix)
    00000C24 D6 02            [ 7] 2696 	sub	a, #0x02
    00000C26 C2rD1r0C         [10] 2697 	jp	NZ,00185$
    00000C29                       2698 00162$:
                                   2699 ;./exsoccer.c:607: bool allowed = true;
    00000C29 DD 36 FC 01      [19] 2700 	ld	-4 (ix), #0x01
                                   2701 ;./exsoccer.c:608: if (plY < (FIELD_BOUND_Y_TOP + 20)) {
    00000C2D DD 7E F7         [19] 2702 	ld	a, -9 (ix)
    00000C30 D6 46            [ 7] 2703 	sub	a, #0x46
    00000C32 DD 7E F8         [19] 2704 	ld	a, -8 (ix)
    00000C35 DE 00            [ 7] 2705 	sbc	a, #0x00
    00000C37 30 1C            [12] 2706 	jr	NC, 00159$
                                   2707 ;./exsoccer.c:609: if (plX < (GOAL_X_MIN - 15) || plX > (GOAL_X_MAX + 15)) allowed = false;
    00000C39 DD 7E F9         [19] 2708 	ld	a, -7 (ix)
    00000C3C D6 51            [ 7] 2709 	sub	a, #0x51
    00000C3E DD 7E FA         [19] 2710 	ld	a, -6 (ix)
    00000C41 DE 00            [ 7] 2711 	sbc	a, #0x00
    00000C43 38 0C            [12] 2712 	jr	C, 00155$
    00000C45 3E 9F            [ 7] 2713 	ld	a, #0x9f
    00000C47 DD BE F9         [19] 2714 	cp	a, -7 (ix)
    00000C4A 3E 00            [ 7] 2715 	ld	a, #0x00
    00000C4C DD 9E FA         [19] 2716 	sbc	a, -6 (ix)
    00000C4F 30 04            [12] 2717 	jr	NC, 00159$
    00000C51                       2718 00155$:
    00000C51 DD 36 FC 00      [19] 2719 	ld	-4 (ix), #0x00
    00000C55                       2720 00159$:
                                   2721 ;./exsoccer.c:612: if (allowed) {
    00000C55 DD 7E FC         [19] 2722 	ld	a, -4 (ix)
    00000C58 B7               [ 4] 2723 	or	a, a
    00000C59 28 76            [12] 2724 	jr	Z, 00185$
                                   2725 ;./exsoccer.c:613: isShooting = true;
    00000C5B DD 36 F6 01      [19] 2726 	ld	-10 (ix), #0x01
                                   2727 ;./exsoccer.c:614: PerformShot(g_ShotCursorX, FIELD_BOUND_Y_TOP - 10);
    00000C5F 11 28 00         [10] 2728 	ld	de, #0x0028
    00000C62 2Ar0Dr00         [16] 2729 	ld	hl, (_g_ShotCursorX)
    00000C65 CDr00r00         [17] 2730 	call	_PerformShot
    00000C68 C3rD1r0C         [10] 2731 	jp	00185$
    00000C6B                       2732 00184$:
                                   2733 ;./exsoccer.c:620: if (plY <= FIELD_BOUND_Y_BOTTOM && plY >= (FIELD_BOUND_Y_BOTTOM - 120)) { 
    00000C6B 3E AE            [ 7] 2734 	ld	a, #0xae
    00000C6D DD BE FB         [19] 2735 	cp	a, -5 (ix)
    00000C70 3E 01            [ 7] 2736 	ld	a, #0x01
    00000C72 DD 9E FC         [19] 2737 	sbc	a, -4 (ix)
    00000C75 38 5A            [12] 2738 	jr	C, 00185$
    00000C77 DD 7E FB         [19] 2739 	ld	a, -5 (ix)
    00000C7A D6 36            [ 7] 2740 	sub	a, #0x36
    00000C7C DD 7E FC         [19] 2741 	ld	a, -4 (ix)
    00000C7F DE 01            [ 7] 2742 	sbc	a, #0x01
    00000C81 38 4E            [12] 2743 	jr	C, 00185$
                                   2744 ;./exsoccer.c:621: if (checkDir == DIRECTION_DOWN || checkDir == DIRECTION_DOWN_LEFT || checkDir == DIRECTION_DOWN_RIGHT) {
    00000C83 DD 7E FE         [19] 2745 	ld	a, -2 (ix)
    00000C86 D6 05            [ 7] 2746 	sub	a, #0x05
    00000C88 28 0E            [12] 2747 	jr	Z, 00176$
    00000C8A DD 7E FE         [19] 2748 	ld	a, -2 (ix)
    00000C8D D6 06            [ 7] 2749 	sub	a, #0x06
    00000C8F 28 07            [12] 2750 	jr	Z, 00176$
    00000C91 DD 7E FE         [19] 2751 	ld	a, -2 (ix)
    00000C94 D6 04            [ 7] 2752 	sub	a, #0x04
    00000C96 20 39            [12] 2753 	jr	NZ, 00185$
    00000C98                       2754 00176$:
                                   2755 ;./exsoccer.c:624: bool allowed = true;
    00000C98 1E 01            [ 7] 2756 	ld	e, #0x01
                                   2757 ;./exsoccer.c:625: if (plY > (FIELD_BOUND_Y_BOTTOM - 20)) {
    00000C9A 3E 9A            [ 7] 2758 	ld	a, #0x9a
    00000C9C DD BE FB         [19] 2759 	cp	a, -5 (ix)
    00000C9F 3E 01            [ 7] 2760 	ld	a, #0x01
    00000CA1 DD 9E FC         [19] 2761 	sbc	a, -4 (ix)
    00000CA4 30 1A            [12] 2762 	jr	NC, 00173$
                                   2763 ;./exsoccer.c:626: if (plX < (GOAL_X_MIN - 15) || plX > (GOAL_X_MAX + 15)) allowed = false;
    00000CA6 DD 7E F9         [19] 2764 	ld	a, -7 (ix)
    00000CA9 D6 51            [ 7] 2765 	sub	a, #0x51
    00000CAB DD 7E FA         [19] 2766 	ld	a, -6 (ix)
    00000CAE DE 00            [ 7] 2767 	sbc	a, #0x00
    00000CB0 38 0C            [12] 2768 	jr	C, 00169$
    00000CB2 3E 9F            [ 7] 2769 	ld	a, #0x9f
    00000CB4 DD BE F9         [19] 2770 	cp	a, -7 (ix)
    00000CB7 3E 00            [ 7] 2771 	ld	a, #0x00
    00000CB9 DD 9E FA         [19] 2772 	sbc	a, -6 (ix)
    00000CBC 30 02            [12] 2773 	jr	NC, 00173$
    00000CBE                       2774 00169$:
    00000CBE 1E 00            [ 7] 2775 	ld	e, #0x00
    00000CC0                       2776 00173$:
                                   2777 ;./exsoccer.c:629: if (allowed) {
    00000CC0 7B               [ 4] 2778 	ld	a, e
    00000CC1 B7               [ 4] 2779 	or	a, a
    00000CC2 28 0D            [12] 2780 	jr	Z, 00185$
                                   2781 ;./exsoccer.c:630: isShooting = true;
    00000CC4 DD 36 F6 01      [19] 2782 	ld	-10 (ix), #0x01
                                   2783 ;./exsoccer.c:631: PerformShot(g_ShotCursorX, FIELD_BOUND_Y_BOTTOM + 10);
    00000CC8 11 B8 01         [10] 2784 	ld	de, #0x01b8
    00000CCB 2Ar0Dr00         [16] 2785 	ld	hl, (_g_ShotCursorX)
    00000CCE CDr00r00         [17] 2786 	call	_PerformShot
    00000CD1                       2787 00185$:
                                   2788 ;./exsoccer.c:637: if (isShooting) {
    00000CD1 DD 7E F6         [19] 2789 	ld	a, -10 (ix)
    00000CD4 B7               [ 4] 2790 	or	a, a
    00000CD5 28 08            [12] 2791 	jr	Z, 00189$
                                   2792 ;./exsoccer.c:638: g_ActionCooldown = 20;
    00000CD7 21r0Cr00         [10] 2793 	ld	hl, #_g_ActionCooldown
    00000CDA 36 14            [10] 2794 	ld	(hl), #0x14
                                   2795 ;./exsoccer.c:639: return;
    00000CDC C3r36r16         [10] 2796 	jp	00261$
    00000CDF                       2797 00189$:
                                   2798 ;./exsoccer.c:648: if(direction != DIRECTION_NONE){
    00000CDF DD 7E FE         [19] 2799 	ld	a, -2 (ix)
    00000CE2 B7               [ 4] 2800 	or	a, a
    00000CE3 28 0E            [12] 2801 	jr	Z, 00191$
                                   2802 ;./exsoccer.c:649: g_Players[playerId].Direction = direction;
    00000CE5 DD 6E F1         [19] 2803 	ld	l, -15 (ix)
    00000CE8 DD 66 F2         [19] 2804 	ld	h, -14 (ix)
    00000CEB 11 06 00         [10] 2805 	ld	de, #0x0006
    00000CEE 19               [11] 2806 	add	hl, de
    00000CEF DD 7E FE         [19] 2807 	ld	a, -2 (ix)
    00000CF2 77               [ 7] 2808 	ld	(hl), a
    00000CF3                       2809 00191$:
                                   2810 ;./exsoccer.c:653: g_PassTargetPlayer = GetBestPassTarget(playerId);
    00000CF3 DD 7E FD         [19] 2811 	ld	a, -3 (ix)
    00000CF6 CDr00r00         [17] 2812 	call	_GetBestPassTarget
                                   2813 ;./exsoccer.c:655: if (g_PassTargetPlayer != NO_VALUE) {
    00000CF9 32r09r00         [13] 2814 	ld	(_g_PassTargetPlayer+0), a
    00000CFC 3C               [ 4] 2815 	inc	a
    00000CFD 28 09            [12] 2816 	jr	Z, 00195$
                                   2817 ;./exsoccer.c:657: PerformPass(g_PassTargetPlayer);
    00000CFF 3Ar09r00         [13] 2818 	ld	a, (_g_PassTargetPlayer+0)
    00000D02 CDr00r00         [17] 2819 	call	_PerformPass
                                   2820 ;./exsoccer.c:660: return; 
    00000D05 C3r36r16         [10] 2821 	jp	00261$
    00000D08                       2822 00195$:
                                   2823 ;./exsoccer.c:664: if((g_FrameCounter % 4)!=0){ 
    00000D08 2Ar00r00         [16] 2824 	ld	hl, (_g_FrameCounter)
    00000D0B 7D               [ 4] 2825 	ld	a, l
    00000D0C E6 03            [ 7] 2826 	and	a, #0x03
                                   2827 ;./exsoccer.c:665: return;
    00000D0E C2r36r16         [10] 2828 	jp	NZ,00261$
                                   2829 ;./exsoccer.c:668: if(g_Ball.KickMoveState==NO_VALUE){
    00000D11 01r12r01         [10] 2830 	ld	bc, #_g_Ball + 13
    00000D14 0A               [ 7] 2831 	ld	a, (bc)
                                   2832 ;./exsoccer.c:669: g_Ball.KickMoveState=0;
    00000D15 3C               [ 4] 2833 	inc	a
    00000D16 20 01            [12] 2834 	jr	NZ, 00199$
    00000D18 02               [ 7] 2835 	ld	(bc), a
    00000D19                       2836 00199$:
                                   2837 ;./exsoccer.c:672: u8 moveDir = direction;
    00000D19 DD 7E FE         [19] 2838 	ld	a, -2 (ix)
    00000D1C DD 77 F5         [19] 2839 	ld	-11 (ix), a
                                   2840 ;./exsoccer.c:673: if(g_Ball.KickMoveState != 0){
    00000D1F 0A               [ 7] 2841 	ld	a, (bc)
    00000D20 B7               [ 4] 2842 	or	a, a
    00000D21 28 0E            [12] 2843 	jr	Z, 00201$
                                   2844 ;./exsoccer.c:674: moveDir = g_Players[playerId].Direction;
    00000D23 DD 5E F1         [19] 2845 	ld	e, -15 (ix)
    00000D26 DD 56 F2         [19] 2846 	ld	d, -14 (ix)
    00000D29 21 06 00         [10] 2847 	ld	hl, #6
    00000D2C 19               [11] 2848 	add	hl, de
    00000D2D 7E               [ 7] 2849 	ld	a, (hl)
    00000D2E DD 77 F5         [19] 2850 	ld	-11 (ix), a
    00000D31                       2851 00201$:
                                   2852 ;./exsoccer.c:680: if(g_Players[playerId].PreviousDirection!=DIRECTION_NONE){
    00000D31 DD 7E F1         [19] 2853 	ld	a, -15 (ix)
    00000D34 C6 07            [ 7] 2854 	add	a, #0x07
    00000D36 DD 77 F6         [19] 2855 	ld	-10 (ix), a
    00000D39 DD 7E F2         [19] 2856 	ld	a, -14 (ix)
    00000D3C CE 00            [ 7] 2857 	adc	a, #0x00
    00000D3E DD 77 F7         [19] 2858 	ld	-9 (ix), a
                                   2859 ;./exsoccer.c:677: if(moveDir==DIRECTION_NONE){
    00000D41 DD 7E F5         [19] 2860 	ld	a, -11 (ix)
    00000D44 B7               [ 4] 2861 	or	a, a
    00000D45 20 38            [12] 2862 	jr	NZ, 00216$
                                   2863 ;./exsoccer.c:678: g_Players[playerId].Status=PLAYER_STATUS_POSITIONED;
    00000D47 DD 6E F3         [19] 2864 	ld	l, -13 (ix)
    00000D4A DD 66 F4         [19] 2865 	ld	h, -12 (ix)
    00000D4D 36 04            [10] 2866 	ld	(hl), #0x04
    00000D4F 23               [ 6] 2867 	inc	hl
    00000D50 36 00            [10] 2868 	ld	(hl), #0x00
                                   2869 ;./exsoccer.c:679: PutBallOnPlayerFeet(playerId);
    00000D52 C5               [11] 2870 	push	bc
    00000D53 DD 7E FD         [19] 2871 	ld	a, -3 (ix)
    00000D56 CDr00r00         [17] 2872 	call	_PutBallOnPlayerFeet
    00000D59 C1               [10] 2873 	pop	bc
                                   2874 ;./exsoccer.c:680: if(g_Players[playerId].PreviousDirection!=DIRECTION_NONE){
    00000D5A DD 6E F6         [19] 2875 	ld	l, -10 (ix)
    00000D5D DD 66 F7         [19] 2876 	ld	h, -9 (ix)
    00000D60 5E               [ 7] 2877 	ld	e, (hl)
    00000D61 7B               [ 4] 2878 	ld	a, e
    00000D62 B7               [ 4] 2879 	or	a, a
    00000D63 28 15            [12] 2880 	jr	Z, 00203$
                                   2881 ;./exsoccer.c:681: g_Players[playerId].PatternId=GetNoMovingPlayerPatternId(g_Players[playerId].PreviousDirection);
    00000D65 DD 7E F1         [19] 2882 	ld	a, -15 (ix)
    00000D68 C6 04            [ 7] 2883 	add	a, #0x04
    00000D6A 6F               [ 4] 2884 	ld	l, a
                                   2885 ;	spillPairReg hl
                                   2886 ;	spillPairReg hl
    00000D6B DD 7E F2         [19] 2887 	ld	a, -14 (ix)
    00000D6E CE 00            [ 7] 2888 	adc	a, #0x00
    00000D70 67               [ 4] 2889 	ld	h, a
                                   2890 ;	spillPairReg hl
                                   2891 ;	spillPairReg hl
    00000D71 E5               [11] 2892 	push	hl
    00000D72 C5               [11] 2893 	push	bc
    00000D73 7B               [ 4] 2894 	ld	a, e
    00000D74 CDrF9r1D         [17] 2895 	call	_GetNoMovingPlayerPatternId
    00000D77 C1               [10] 2896 	pop	bc
    00000D78 E1               [10] 2897 	pop	hl
    00000D79 77               [ 7] 2898 	ld	(hl), a
    00000D7A                       2899 00203$:
                                   2900 ;./exsoccer.c:683: g_Ball.KickMoveState=0;
    00000D7A AF               [ 4] 2901 	xor	a, a
    00000D7B 02               [ 7] 2902 	ld	(bc), a
    00000D7C C3r36r16         [10] 2903 	jp	00261$
    00000D7F                       2904 00216$:
                                   2905 ;./exsoccer.c:689: const u8 BallBaseDistX[] = { 0, 0, 4, 6, 4, 0, 4, 6, 4 };
    00000D7F DD 36 C5 00      [19] 2906 	ld	-59 (ix), #0x00
    00000D83 DD 36 C6 00      [19] 2907 	ld	-58 (ix), #0x00
    00000D87 DD 36 C7 04      [19] 2908 	ld	-57 (ix), #0x04
    00000D8B DD 36 C8 06      [19] 2909 	ld	-56 (ix), #0x06
    00000D8F DD 36 C9 04      [19] 2910 	ld	-55 (ix), #0x04
    00000D93 DD 36 CA 00      [19] 2911 	ld	-54 (ix), #0x00
    00000D97 DD 36 CB 04      [19] 2912 	ld	-53 (ix), #0x04
    00000D9B DD 36 CC 06      [19] 2913 	ld	-52 (ix), #0x06
    00000D9F DD 36 CD 04      [19] 2914 	ld	-51 (ix), #0x04
                                   2915 ;./exsoccer.c:690: const u8 BallBaseDistY[] = { 0, 6, 4, 0, 4, 6, 4, 0, 4 };
    00000DA3 DD 36 CE 00      [19] 2916 	ld	-50 (ix), #0x00
    00000DA7 DD 36 CF 06      [19] 2917 	ld	-49 (ix), #0x06
    00000DAB DD 36 D0 04      [19] 2918 	ld	-48 (ix), #0x04
    00000DAF DD 36 D1 00      [19] 2919 	ld	-47 (ix), #0x00
    00000DB3 DD 36 D2 04      [19] 2920 	ld	-46 (ix), #0x04
    00000DB7 DD 36 D3 06      [19] 2921 	ld	-45 (ix), #0x06
    00000DBB DD 36 D4 04      [19] 2922 	ld	-44 (ix), #0x04
    00000DBF DD 36 D5 00      [19] 2923 	ld	-43 (ix), #0x00
    00000DC3 DD 36 D6 04      [19] 2924 	ld	-42 (ix), #0x04
                                   2925 ;./exsoccer.c:709: const i8 BallAlignCorrectX[] = { 0, 0, 0, 0, 2, 0, -2, 0, 0 };
    00000DC7 DD 36 D7 00      [19] 2926 	ld	-41 (ix), #0x00
    00000DCB DD 36 D8 00      [19] 2927 	ld	-40 (ix), #0x00
    00000DCF DD 36 D9 00      [19] 2928 	ld	-39 (ix), #0x00
    00000DD3 DD 36 DA 00      [19] 2929 	ld	-38 (ix), #0x00
    00000DD7 DD 36 DB 02      [19] 2930 	ld	-37 (ix), #0x02
    00000DDB DD 36 DC 00      [19] 2931 	ld	-36 (ix), #0x00
    00000DDF DD 36 DD FE      [19] 2932 	ld	-35 (ix), #0xfe
    00000DE3 DD 36 DE 00      [19] 2933 	ld	-34 (ix), #0x00
    00000DE7 DD 36 DF 00      [19] 2934 	ld	-33 (ix), #0x00
                                   2935 ;./exsoccer.c:710: const i8 BallAlignCorrectY[] = { 0, 0, 0, 8, 2, -2, 2, 8, 0 };
    00000DEB DD 36 E0 00      [19] 2936 	ld	-32 (ix), #0x00
    00000DEF DD 36 E1 00      [19] 2937 	ld	-31 (ix), #0x00
    00000DF3 DD 36 E2 00      [19] 2938 	ld	-30 (ix), #0x00
    00000DF7 DD 36 E3 08      [19] 2939 	ld	-29 (ix), #0x08
    00000DFB DD 36 E4 02      [19] 2940 	ld	-28 (ix), #0x02
    00000DFF DD 36 E5 FE      [19] 2941 	ld	-27 (ix), #0xfe
    00000E03 DD 36 E6 02      [19] 2942 	ld	-26 (ix), #0x02
    00000E07 DD 36 E7 08      [19] 2943 	ld	-25 (ix), #0x08
    00000E0B DD 36 E8 00      [19] 2944 	ld	-24 (ix), #0x00
                                   2945 ;./exsoccer.c:712: const u8 DribbleAnimOffsets[] = {5, 4, 2, 0};
    00000E0F DD 36 E9 05      [19] 2946 	ld	-23 (ix), #0x05
    00000E13 DD 36 EA 04      [19] 2947 	ld	-22 (ix), #0x04
    00000E17 DD 36 EB 02      [19] 2948 	ld	-21 (ix), #0x02
    00000E1B DD 36 EC 00      [19] 2949 	ld	-20 (ix), #0x00
                                   2950 ;./exsoccer.c:713: const u8 DribbleAnimOffsetsDiag[] = {3, 3, 1, 0};
    00000E1F DD 36 ED 03      [19] 2951 	ld	-19 (ix), #0x03
    00000E23 DD 36 EE 03      [19] 2952 	ld	-18 (ix), #0x03
    00000E27 DD 36 EF 01      [19] 2953 	ld	-17 (ix), #0x01
    00000E2B DD 36 F0 00      [19] 2954 	ld	-16 (ix), #0x00
                                   2955 ;./exsoccer.c:715: u8 animStep = g_Ball.KickMoveState;
    00000E2F 0A               [ 7] 2956 	ld	a, (bc)
    00000E30 5F               [ 4] 2957 	ld	e, a
                                   2958 ;./exsoccer.c:716: u8 diagStep = (animStep % 2) ? 1 : 2;
    00000E31 CB 43            [ 8] 2959 	bit	0, e
    00000E33 28 06            [12] 2960 	jr	Z, 00273$
    00000E35 21 01 00         [10] 2961 	ld	hl, #0x0001
    00000E38 C3r3Er0E         [10] 2962 	jp	00274$
    00000E3B                       2963 00273$:
    00000E3B 21 02 00         [10] 2964 	ld	hl, #0x0002
    00000E3E                       2965 00274$:
    00000E3E DD 75 F8         [19] 2966 	ld	-8 (ix), l
                                   2967 ;./exsoccer.c:718: u8 currentOffset = DribbleAnimOffsets[animStep];
    00000E41 D5               [11] 2968 	push	de
    00000E42 16 00            [ 7] 2969 	ld	d, #0x00
    00000E44 21 28 00         [10] 2970 	ld	hl, #40
    00000E47 39               [11] 2971 	add	hl, sp
    00000E48 19               [11] 2972 	add	hl, de
    00000E49 D1               [10] 2973 	pop	de
    00000E4A 7E               [ 7] 2974 	ld	a, (hl)
    00000E4B DD 77 F9         [19] 2975 	ld	-7 (ix), a
                                   2976 ;./exsoccer.c:719: u8 currentOffsetDiag = DribbleAnimOffsetsDiag[animStep];
    00000E4E 16 00            [ 7] 2977 	ld	d, #0x00
    00000E50 21 2A 00         [10] 2978 	ld	hl, #42
    00000E53 39               [11] 2979 	add	hl, sp
    00000E54 19               [11] 2980 	add	hl, de
    00000E55 7E               [ 7] 2981 	ld	a, (hl)
    00000E56 DD 77 FA         [19] 2982 	ld	-6 (ix), a
                                   2983 ;./exsoccer.c:721: u8 distX = BallBaseDistX[moveDir] + ((moveDir==DIRECTION_UP || moveDir==DIRECTION_DOWN) ? 0 : (moveDir == DIRECTION_LEFT || moveDir == DIRECTION_RIGHT ? currentOffset : currentOffsetDiag));
    00000E59 DD 5E F5         [19] 2984 	ld	e, -11 (ix)
    00000E5C 16 00            [ 7] 2985 	ld	d, #0x00
    00000E5E 21 02 00         [10] 2986 	ld	hl, #2
    00000E61 39               [11] 2987 	add	hl, sp
    00000E62 19               [11] 2988 	add	hl, de
    00000E63 5E               [ 7] 2989 	ld	e, (hl)
    00000E64 DD 7E F5         [19] 2990 	ld	a, -11 (ix)
    00000E67 3D               [ 4] 2991 	dec	a
    00000E68 3E 01            [ 7] 2992 	ld	a, #0x01
    00000E6A 28 01            [12] 2993 	jr	Z, 00740$
    00000E6C AF               [ 4] 2994 	xor	a, a
    00000E6D                       2995 00740$:
    00000E6D DD 77 FB         [19] 2996 	ld	-5 (ix), a
    00000E70 DD 7E F5         [19] 2997 	ld	a, -11 (ix)
    00000E73 D6 07            [ 7] 2998 	sub	a, #0x07
    00000E75 3E 01            [ 7] 2999 	ld	a, #0x01
    00000E77 28 01            [12] 3000 	jr	Z, 00742$
    00000E79 AF               [ 4] 3001 	xor	a, a
    00000E7A                       3002 00742$:
    00000E7A DD 77 FC         [19] 3003 	ld	-4 (ix), a
    00000E7D DD CB FB 46      [20] 3004 	bit	0, -5 (ix)
    00000E81 20 07            [12] 3005 	jr	NZ, 00278$
    00000E83 DD 7E F5         [19] 3006 	ld	a, -11 (ix)
    00000E86 D6 05            [ 7] 3007 	sub	a, #0x05
    00000E88 20 04            [12] 3008 	jr	NZ, 00275$
    00000E8A                       3009 00278$:
    00000E8A AF               [ 4] 3010 	xor	a, a
    00000E8B C3rA4r0E         [10] 3011 	jp	00276$
    00000E8E                       3012 00275$:
    00000E8E DD CB FC 46      [20] 3013 	bit	0, -4 (ix)
    00000E92 20 07            [12] 3014 	jr	NZ, 00283$
    00000E94 DD 7E F5         [19] 3015 	ld	a, -11 (ix)
    00000E97 D6 03            [ 7] 3016 	sub	a, #0x03
    00000E99 20 06            [12] 3017 	jr	NZ, 00280$
    00000E9B                       3018 00283$:
    00000E9B DD 7E F9         [19] 3019 	ld	a, -7 (ix)
    00000E9E C3rA4r0E         [10] 3020 	jp	00281$
    00000EA1                       3021 00280$:
    00000EA1 DD 7E FA         [19] 3022 	ld	a, -6 (ix)
    00000EA4                       3023 00281$:
    00000EA4                       3024 00276$:
    00000EA4 83               [ 4] 3025 	add	a, e
    00000EA5 DD 77 FD         [19] 3026 	ld	-3 (ix), a
                                   3027 ;./exsoccer.c:722: u8 distY = BallBaseDistY[moveDir] + ((moveDir==DIRECTION_LEFT || moveDir==DIRECTION_RIGHT) ? 0 : (moveDir == DIRECTION_UP || moveDir == DIRECTION_DOWN ? currentOffset : currentOffsetDiag));
    00000EA8 DD 5E F5         [19] 3028 	ld	e, -11 (ix)
    00000EAB 16 00            [ 7] 3029 	ld	d, #0x00
    00000EAD 21 0B 00         [10] 3030 	ld	hl, #11
    00000EB0 39               [11] 3031 	add	hl, sp
    00000EB1 19               [11] 3032 	add	hl, de
    00000EB2 6E               [ 7] 3033 	ld	l, (hl)
                                   3034 ;	spillPairReg hl
    00000EB3 DD CB FC 46      [20] 3035 	bit	0, -4 (ix)
    00000EB7 20 07            [12] 3036 	jr	NZ, 00288$
    00000EB9 DD 7E F5         [19] 3037 	ld	a, -11 (ix)
    00000EBC D6 03            [ 7] 3038 	sub	a, #0x03
    00000EBE 20 0A            [12] 3039 	jr	NZ, 00285$
    00000EC0                       3040 00288$:
    00000EC0 AF               [ 4] 3041 	xor	a, a
    00000EC1 DD 77 FB         [19] 3042 	ld	-5 (ix), a
    00000EC4 DD 77 FC         [19] 3043 	ld	-4 (ix), a
    00000EC7 C3rE7r0E         [10] 3044 	jp	00286$
    00000ECA                       3045 00285$:
    00000ECA DD CB FB 46      [20] 3046 	bit	0, -5 (ix)
    00000ECE 20 07            [12] 3047 	jr	NZ, 00293$
    00000ED0 DD 7E F5         [19] 3048 	ld	a, -11 (ix)
    00000ED3 D6 05            [ 7] 3049 	sub	a, #0x05
    00000ED5 20 06            [12] 3050 	jr	NZ, 00290$
    00000ED7                       3051 00293$:
    00000ED7 DD 7E F9         [19] 3052 	ld	a, -7 (ix)
    00000EDA C3rE0r0E         [10] 3053 	jp	00291$
    00000EDD                       3054 00290$:
    00000EDD DD 7E FA         [19] 3055 	ld	a, -6 (ix)
    00000EE0                       3056 00291$:
    00000EE0 DD 77 FB         [19] 3057 	ld	-5 (ix), a
    00000EE3 DD 36 FC 00      [19] 3058 	ld	-4 (ix), #0x00
    00000EE7                       3059 00286$:
    00000EE7 DD 7E FB         [19] 3060 	ld	a, -5 (ix)
    00000EEA 85               [ 4] 3061 	add	a, l
    00000EEB DD 77 FA         [19] 3062 	ld	-6 (ix), a
                                   3063 ;./exsoccer.c:574: i16 dx = (i16)g_Players[playerId].X - (i16)g_Ball.X;
    00000EEE DD 7E F1         [19] 3064 	ld	a, -15 (ix)
    00000EF1 C6 02            [ 7] 3065 	add	a, #0x02
    00000EF3 DD 77 FB         [19] 3066 	ld	-5 (ix), a
    00000EF6 DD 7E F2         [19] 3067 	ld	a, -14 (ix)
    00000EF9 CE 00            [ 7] 3068 	adc	a, #0x00
    00000EFB DD 77 FC         [19] 3069 	ld	-4 (ix), a
                                   3070 ;./exsoccer.c:724: switch(moveDir){
    00000EFE 3E 08            [ 7] 3071 	ld	a, #0x08
    00000F00 DD 96 F5         [19] 3072 	sub	a, -11 (ix)
    00000F03 DArBBr12         [10] 3073 	jp	C, 00212$
    00000F06 DD 5E F5         [19] 3074 	ld	e, -11 (ix)
    00000F09 16 00            [ 7] 3075 	ld	d, #0x00
    00000F0B 21r12r0F         [10] 3076 	ld	hl, #00751$
    00000F0E 19               [11] 3077 	add	hl, de
    00000F0F 19               [11] 3078 	add	hl, de
    00000F10 19               [11] 3079 	add	hl, de
    00000F11 E9               [ 4] 3080 	jp	(hl)
    00000F12                       3081 00751$:
    00000F12 C3rBBr12         [10] 3082 	jp	00212$
    00000F15 C3r2Dr0F         [10] 3083 	jp	00204$
    00000F18 C3r99r10         [10] 3084 	jp	00208$
    00000F1B C3r3Er10         [10] 3085 	jp	00207$
    00000F1E C3rAFr11         [10] 3086 	jp	00210$
    00000F21 C3r86r0F         [10] 3087 	jp	00205$
    00000F24 C3r34r12         [10] 3088 	jp	00211$
    00000F27 C3rDEr0F         [10] 3089 	jp	00206$
    00000F2A C3r22r11         [10] 3090 	jp	00209$
                                   3091 ;./exsoccer.c:725: case DIRECTION_UP:
    00000F2D                       3092 00204$:
                                   3093 ;./exsoccer.c:726: g_Players[playerId].Y -= 2;
    00000F2D DD 6E F1         [19] 3094 	ld	l, -15 (ix)
    00000F30 DD 66 F2         [19] 3095 	ld	h, -14 (ix)
    00000F33 5E               [ 7] 3096 	ld	e, (hl)
    00000F34 23               [ 6] 3097 	inc	hl
    00000F35 56               [ 7] 3098 	ld	d, (hl)
    00000F36 1B               [ 6] 3099 	dec	de
    00000F37 1B               [ 6] 3100 	dec	de
    00000F38 DD 6E F1         [19] 3101 	ld	l, -15 (ix)
    00000F3B DD 66 F2         [19] 3102 	ld	h, -14 (ix)
    00000F3E 73               [ 7] 3103 	ld	(hl), e
    00000F3F 23               [ 6] 3104 	inc	hl
    00000F40 72               [ 7] 3105 	ld	(hl), d
                                   3106 ;./exsoccer.c:727: g_Ball.Y = g_Players[playerId].Y - distY + BallAlignCorrectY[moveDir];
    00000F41 DD 6E FA         [19] 3107 	ld	l, -6 (ix)
                                   3108 ;	spillPairReg hl
                                   3109 ;	spillPairReg hl
    00000F44 26 00            [ 7] 3110 	ld	h, #0x00
                                   3111 ;	spillPairReg hl
                                   3112 ;	spillPairReg hl
    00000F46 7B               [ 4] 3113 	ld	a, e
    00000F47 95               [ 4] 3114 	sub	a, l
    00000F48 5F               [ 4] 3115 	ld	e, a
    00000F49 7A               [ 4] 3116 	ld	a, d
    00000F4A 9C               [ 4] 3117 	sbc	a, h
    00000F4B 57               [ 4] 3118 	ld	d, a
    00000F4C D5               [11] 3119 	push	de
    00000F4D DD 5E F5         [19] 3120 	ld	e, -11 (ix)
    00000F50 16 00            [ 7] 3121 	ld	d, #0x00
    00000F52 21 1F 00         [10] 3122 	ld	hl, #31
    00000F55 39               [11] 3123 	add	hl, sp
    00000F56 19               [11] 3124 	add	hl, de
    00000F57 D1               [10] 3125 	pop	de
    00000F58 7E               [ 7] 3126 	ld	a, (hl)
    00000F59 6F               [ 4] 3127 	ld	l, a
                                   3128 ;	spillPairReg hl
                                   3129 ;	spillPairReg hl
    00000F5A 07               [ 4] 3130 	rlca
    00000F5B 9F               [ 4] 3131 	sbc	a, a
    00000F5C 67               [ 4] 3132 	ld	h, a
                                   3133 ;	spillPairReg hl
                                   3134 ;	spillPairReg hl
    00000F5D 19               [11] 3135 	add	hl, de
    00000F5E EB               [ 4] 3136 	ex	de, hl
    00000F5F ED 53r05r01      [20] 3137 	ld	(_g_Ball), de
                                   3138 ;./exsoccer.c:728: g_Ball.X = g_Players[playerId].X + BallAlignCorrectX[moveDir];
    00000F63 DD 6E FB         [19] 3139 	ld	l, -5 (ix)
    00000F66 DD 66 FC         [19] 3140 	ld	h, -4 (ix)
    00000F69 5E               [ 7] 3141 	ld	e, (hl)
    00000F6A 23               [ 6] 3142 	inc	hl
    00000F6B 56               [ 7] 3143 	ld	d, (hl)
    00000F6C D5               [11] 3144 	push	de
    00000F6D DD 5E F5         [19] 3145 	ld	e, -11 (ix)
    00000F70 16 00            [ 7] 3146 	ld	d, #0x00
    00000F72 21 16 00         [10] 3147 	ld	hl, #22
    00000F75 39               [11] 3148 	add	hl, sp
    00000F76 19               [11] 3149 	add	hl, de
    00000F77 D1               [10] 3150 	pop	de
    00000F78 7E               [ 7] 3151 	ld	a, (hl)
    00000F79 6F               [ 4] 3152 	ld	l, a
                                   3153 ;	spillPairReg hl
                                   3154 ;	spillPairReg hl
    00000F7A 07               [ 4] 3155 	rlca
    00000F7B 9F               [ 4] 3156 	sbc	a, a
    00000F7C 67               [ 4] 3157 	ld	h, a
                                   3158 ;	spillPairReg hl
                                   3159 ;	spillPairReg hl
    00000F7D 19               [11] 3160 	add	hl, de
    00000F7E EB               [ 4] 3161 	ex	de, hl
    00000F7F ED 53r07r01      [20] 3162 	ld	((_g_Ball + 2)), de
                                   3163 ;./exsoccer.c:729: break;
    00000F83 C3rBBr12         [10] 3164 	jp	00212$
                                   3165 ;./exsoccer.c:730: case DIRECTION_DOWN:
    00000F86                       3166 00205$:
                                   3167 ;./exsoccer.c:731: g_Players[playerId].Y += 2;
    00000F86 DD 6E F1         [19] 3168 	ld	l, -15 (ix)
    00000F89 DD 66 F2         [19] 3169 	ld	h, -14 (ix)
    00000F8C 5E               [ 7] 3170 	ld	e, (hl)
    00000F8D 23               [ 6] 3171 	inc	hl
    00000F8E 56               [ 7] 3172 	ld	d, (hl)
    00000F8F 13               [ 6] 3173 	inc	de
    00000F90 13               [ 6] 3174 	inc	de
    00000F91 DD 6E F1         [19] 3175 	ld	l, -15 (ix)
    00000F94 DD 66 F2         [19] 3176 	ld	h, -14 (ix)
    00000F97 73               [ 7] 3177 	ld	(hl), e
    00000F98 23               [ 6] 3178 	inc	hl
    00000F99 72               [ 7] 3179 	ld	(hl), d
                                   3180 ;./exsoccer.c:732: g_Ball.Y = g_Players[playerId].Y + distY + BallAlignCorrectY[moveDir]+5;
    00000F9A DD 6E FA         [19] 3181 	ld	l, -6 (ix)
                                   3182 ;	spillPairReg hl
                                   3183 ;	spillPairReg hl
    00000F9D 26 00            [ 7] 3184 	ld	h, #0x00
                                   3185 ;	spillPairReg hl
                                   3186 ;	spillPairReg hl
    00000F9F 19               [11] 3187 	add	hl, de
    00000FA0 E5               [11] 3188 	push	hl
    00000FA1 DD 5E F5         [19] 3189 	ld	e, -11 (ix)
    00000FA4 16 00            [ 7] 3190 	ld	d, #0x00
    00000FA6 21 1F 00         [10] 3191 	ld	hl, #31
    00000FA9 39               [11] 3192 	add	hl, sp
    00000FAA 19               [11] 3193 	add	hl, de
    00000FAB D1               [10] 3194 	pop	de
    00000FAC 7E               [ 7] 3195 	ld	a, (hl)
    00000FAD 6F               [ 4] 3196 	ld	l, a
                                   3197 ;	spillPairReg hl
                                   3198 ;	spillPairReg hl
    00000FAE 07               [ 4] 3199 	rlca
    00000FAF 9F               [ 4] 3200 	sbc	a, a
    00000FB0 67               [ 4] 3201 	ld	h, a
                                   3202 ;	spillPairReg hl
                                   3203 ;	spillPairReg hl
    00000FB1 19               [11] 3204 	add	hl, de
    00000FB2 11 05 00         [10] 3205 	ld	de, #0x0005
    00000FB5 19               [11] 3206 	add	hl, de
    00000FB6 EB               [ 4] 3207 	ex	de, hl
    00000FB7 ED 53r05r01      [20] 3208 	ld	(_g_Ball), de
                                   3209 ;./exsoccer.c:733: g_Ball.X = g_Players[playerId].X + BallAlignCorrectX[moveDir];
    00000FBB DD 6E FB         [19] 3210 	ld	l, -5 (ix)
    00000FBE DD 66 FC         [19] 3211 	ld	h, -4 (ix)
    00000FC1 5E               [ 7] 3212 	ld	e, (hl)
    00000FC2 23               [ 6] 3213 	inc	hl
    00000FC3 56               [ 7] 3214 	ld	d, (hl)
    00000FC4 D5               [11] 3215 	push	de
    00000FC5 DD 5E F5         [19] 3216 	ld	e, -11 (ix)
    00000FC8 16 00            [ 7] 3217 	ld	d, #0x00
    00000FCA 21 16 00         [10] 3218 	ld	hl, #22
    00000FCD 39               [11] 3219 	add	hl, sp
    00000FCE 19               [11] 3220 	add	hl, de
    00000FCF D1               [10] 3221 	pop	de
    00000FD0 7E               [ 7] 3222 	ld	a, (hl)
    00000FD1 6F               [ 4] 3223 	ld	l, a
                                   3224 ;	spillPairReg hl
                                   3225 ;	spillPairReg hl
    00000FD2 07               [ 4] 3226 	rlca
    00000FD3 9F               [ 4] 3227 	sbc	a, a
    00000FD4 67               [ 4] 3228 	ld	h, a
                                   3229 ;	spillPairReg hl
                                   3230 ;	spillPairReg hl
    00000FD5 19               [11] 3231 	add	hl, de
    00000FD6 EB               [ 4] 3232 	ex	de, hl
    00000FD7 ED 53r07r01      [20] 3233 	ld	((_g_Ball + 2)), de
                                   3234 ;./exsoccer.c:734: break;
    00000FDB C3rBBr12         [10] 3235 	jp	00212$
                                   3236 ;./exsoccer.c:735: case DIRECTION_LEFT:
    00000FDE                       3237 00206$:
                                   3238 ;./exsoccer.c:736: g_Players[playerId].X -= 2;
    00000FDE DD 6E FB         [19] 3239 	ld	l, -5 (ix)
    00000FE1 DD 66 FC         [19] 3240 	ld	h, -4 (ix)
    00000FE4 5E               [ 7] 3241 	ld	e, (hl)
    00000FE5 23               [ 6] 3242 	inc	hl
    00000FE6 56               [ 7] 3243 	ld	d, (hl)
    00000FE7 1B               [ 6] 3244 	dec	de
    00000FE8 1B               [ 6] 3245 	dec	de
    00000FE9 DD 6E FB         [19] 3246 	ld	l, -5 (ix)
    00000FEC DD 66 FC         [19] 3247 	ld	h, -4 (ix)
    00000FEF 73               [ 7] 3248 	ld	(hl), e
    00000FF0 23               [ 6] 3249 	inc	hl
    00000FF1 72               [ 7] 3250 	ld	(hl), d
                                   3251 ;./exsoccer.c:737: g_Ball.X = g_Players[playerId].X - distX + BallAlignCorrectX[moveDir];
    00000FF2 DD 6E FD         [19] 3252 	ld	l, -3 (ix)
                                   3253 ;	spillPairReg hl
                                   3254 ;	spillPairReg hl
    00000FF5 26 00            [ 7] 3255 	ld	h, #0x00
                                   3256 ;	spillPairReg hl
                                   3257 ;	spillPairReg hl
    00000FF7 7B               [ 4] 3258 	ld	a, e
    00000FF8 95               [ 4] 3259 	sub	a, l
    00000FF9 5F               [ 4] 3260 	ld	e, a
    00000FFA 7A               [ 4] 3261 	ld	a, d
    00000FFB 9C               [ 4] 3262 	sbc	a, h
    00000FFC 57               [ 4] 3263 	ld	d, a
    00000FFD D5               [11] 3264 	push	de
    00000FFE DD 5E F5         [19] 3265 	ld	e, -11 (ix)
    00001001 16 00            [ 7] 3266 	ld	d, #0x00
    00001003 21 16 00         [10] 3267 	ld	hl, #22
    00001006 39               [11] 3268 	add	hl, sp
    00001007 19               [11] 3269 	add	hl, de
    00001008 D1               [10] 3270 	pop	de
    00001009 7E               [ 7] 3271 	ld	a, (hl)
    0000100A 6F               [ 4] 3272 	ld	l, a
                                   3273 ;	spillPairReg hl
                                   3274 ;	spillPairReg hl
    0000100B 07               [ 4] 3275 	rlca
    0000100C 9F               [ 4] 3276 	sbc	a, a
    0000100D 67               [ 4] 3277 	ld	h, a
                                   3278 ;	spillPairReg hl
                                   3279 ;	spillPairReg hl
    0000100E 19               [11] 3280 	add	hl, de
    0000100F EB               [ 4] 3281 	ex	de, hl
    00001010 ED 53r07r01      [20] 3282 	ld	((_g_Ball + 2)), de
                                   3283 ;./exsoccer.c:738: g_Ball.Y = g_Players[playerId].Y + BallAlignCorrectY[moveDir]-4;
    00001014 DD 6E F1         [19] 3284 	ld	l, -15 (ix)
    00001017 DD 66 F2         [19] 3285 	ld	h, -14 (ix)
    0000101A 5E               [ 7] 3286 	ld	e, (hl)
    0000101B 23               [ 6] 3287 	inc	hl
    0000101C 56               [ 7] 3288 	ld	d, (hl)
    0000101D D5               [11] 3289 	push	de
    0000101E DD 5E F5         [19] 3290 	ld	e, -11 (ix)
    00001021 16 00            [ 7] 3291 	ld	d, #0x00
    00001023 21 1F 00         [10] 3292 	ld	hl, #31
    00001026 39               [11] 3293 	add	hl, sp
    00001027 19               [11] 3294 	add	hl, de
    00001028 D1               [10] 3295 	pop	de
    00001029 7E               [ 7] 3296 	ld	a, (hl)
    0000102A 6F               [ 4] 3297 	ld	l, a
                                   3298 ;	spillPairReg hl
                                   3299 ;	spillPairReg hl
    0000102B 07               [ 4] 3300 	rlca
    0000102C 9F               [ 4] 3301 	sbc	a, a
    0000102D 67               [ 4] 3302 	ld	h, a
                                   3303 ;	spillPairReg hl
                                   3304 ;	spillPairReg hl
    0000102E 19               [11] 3305 	add	hl, de
    0000102F 7D               [ 4] 3306 	ld	a, l
    00001030 C6 FC            [ 7] 3307 	add	a, #0xfc
    00001032 5F               [ 4] 3308 	ld	e, a
    00001033 7C               [ 4] 3309 	ld	a, h
    00001034 CE FF            [ 7] 3310 	adc	a, #0xff
    00001036 57               [ 4] 3311 	ld	d, a
    00001037 ED 53r05r01      [20] 3312 	ld	(_g_Ball), de
                                   3313 ;./exsoccer.c:739: break;
    0000103B C3rBBr12         [10] 3314 	jp	00212$
                                   3315 ;./exsoccer.c:740: case DIRECTION_RIGHT:
    0000103E                       3316 00207$:
                                   3317 ;./exsoccer.c:741: g_Players[playerId].X += 2;
    0000103E DD 6E FB         [19] 3318 	ld	l, -5 (ix)
    00001041 DD 66 FC         [19] 3319 	ld	h, -4 (ix)
    00001044 5E               [ 7] 3320 	ld	e, (hl)
    00001045 23               [ 6] 3321 	inc	hl
    00001046 56               [ 7] 3322 	ld	d, (hl)
    00001047 13               [ 6] 3323 	inc	de
    00001048 13               [ 6] 3324 	inc	de
    00001049 DD 6E FB         [19] 3325 	ld	l, -5 (ix)
    0000104C DD 66 FC         [19] 3326 	ld	h, -4 (ix)
    0000104F 73               [ 7] 3327 	ld	(hl), e
    00001050 23               [ 6] 3328 	inc	hl
    00001051 72               [ 7] 3329 	ld	(hl), d
                                   3330 ;./exsoccer.c:742: g_Ball.X = g_Players[playerId].X + distX + BallAlignCorrectX[moveDir];
    00001052 DD 6E FD         [19] 3331 	ld	l, -3 (ix)
                                   3332 ;	spillPairReg hl
                                   3333 ;	spillPairReg hl
    00001055 26 00            [ 7] 3334 	ld	h, #0x00
                                   3335 ;	spillPairReg hl
                                   3336 ;	spillPairReg hl
    00001057 19               [11] 3337 	add	hl, de
    00001058 E5               [11] 3338 	push	hl
    00001059 DD 5E F5         [19] 3339 	ld	e, -11 (ix)
    0000105C 16 00            [ 7] 3340 	ld	d, #0x00
    0000105E 21 16 00         [10] 3341 	ld	hl, #22
    00001061 39               [11] 3342 	add	hl, sp
    00001062 19               [11] 3343 	add	hl, de
    00001063 D1               [10] 3344 	pop	de
    00001064 7E               [ 7] 3345 	ld	a, (hl)
    00001065 6F               [ 4] 3346 	ld	l, a
                                   3347 ;	spillPairReg hl
                                   3348 ;	spillPairReg hl
    00001066 07               [ 4] 3349 	rlca
    00001067 9F               [ 4] 3350 	sbc	a, a
    00001068 67               [ 4] 3351 	ld	h, a
                                   3352 ;	spillPairReg hl
                                   3353 ;	spillPairReg hl
    00001069 19               [11] 3354 	add	hl, de
    0000106A EB               [ 4] 3355 	ex	de, hl
    0000106B ED 53r07r01      [20] 3356 	ld	((_g_Ball + 2)), de
                                   3357 ;./exsoccer.c:743: g_Ball.Y = g_Players[playerId].Y + BallAlignCorrectY[moveDir]-4;
    0000106F DD 6E F1         [19] 3358 	ld	l, -15 (ix)
    00001072 DD 66 F2         [19] 3359 	ld	h, -14 (ix)
    00001075 5E               [ 7] 3360 	ld	e, (hl)
    00001076 23               [ 6] 3361 	inc	hl
    00001077 56               [ 7] 3362 	ld	d, (hl)
    00001078 D5               [11] 3363 	push	de
    00001079 DD 5E F5         [19] 3364 	ld	e, -11 (ix)
    0000107C 16 00            [ 7] 3365 	ld	d, #0x00
    0000107E 21 1F 00         [10] 3366 	ld	hl, #31
    00001081 39               [11] 3367 	add	hl, sp
    00001082 19               [11] 3368 	add	hl, de
    00001083 D1               [10] 3369 	pop	de
    00001084 7E               [ 7] 3370 	ld	a, (hl)
    00001085 6F               [ 4] 3371 	ld	l, a
                                   3372 ;	spillPairReg hl
                                   3373 ;	spillPairReg hl
    00001086 07               [ 4] 3374 	rlca
    00001087 9F               [ 4] 3375 	sbc	a, a
    00001088 67               [ 4] 3376 	ld	h, a
                                   3377 ;	spillPairReg hl
                                   3378 ;	spillPairReg hl
    00001089 19               [11] 3379 	add	hl, de
    0000108A 7D               [ 4] 3380 	ld	a, l
    0000108B C6 FC            [ 7] 3381 	add	a, #0xfc
    0000108D 5F               [ 4] 3382 	ld	e, a
    0000108E 7C               [ 4] 3383 	ld	a, h
    0000108F CE FF            [ 7] 3384 	adc	a, #0xff
    00001091 57               [ 4] 3385 	ld	d, a
    00001092 ED 53r05r01      [20] 3386 	ld	(_g_Ball), de
                                   3387 ;./exsoccer.c:744: break;
    00001096 C3rBBr12         [10] 3388 	jp	00212$
                                   3389 ;./exsoccer.c:745: case DIRECTION_UP_RIGHT:
    00001099                       3390 00208$:
                                   3391 ;./exsoccer.c:746: g_Players[playerId].Y -= diagStep;
    00001099 DD 6E F1         [19] 3392 	ld	l, -15 (ix)
    0000109C DD 66 F2         [19] 3393 	ld	h, -14 (ix)
    0000109F 7E               [ 7] 3394 	ld	a, (hl)
    000010A0 23               [ 6] 3395 	inc	hl
    000010A1 66               [ 7] 3396 	ld	h, (hl)
                                   3397 ;	spillPairReg hl
    000010A2 6F               [ 4] 3398 	ld	l, a
                                   3399 ;	spillPairReg hl
                                   3400 ;	spillPairReg hl
    000010A3 DD 5E F8         [19] 3401 	ld	e, -8 (ix)
    000010A6 16 00            [ 7] 3402 	ld	d, #0x00
    000010A8 BF               [ 4] 3403 	cp	a, a
    000010A9 ED 52            [15] 3404 	sbc	hl, de
    000010AB E3               [19] 3405 	ex	(sp), hl
    000010AC DD 6E F1         [19] 3406 	ld	l, -15 (ix)
    000010AF DD 66 F2         [19] 3407 	ld	h, -14 (ix)
    000010B2 DD 7E C3         [19] 3408 	ld	a, -61 (ix)
    000010B5 77               [ 7] 3409 	ld	(hl), a
    000010B6 23               [ 6] 3410 	inc	hl
    000010B7 DD 7E C4         [19] 3411 	ld	a, -60 (ix)
    000010BA 77               [ 7] 3412 	ld	(hl), a
                                   3413 ;./exsoccer.c:747: g_Players[playerId].X += diagStep;
    000010BB DD 6E FB         [19] 3414 	ld	l, -5 (ix)
    000010BE DD 66 FC         [19] 3415 	ld	h, -4 (ix)
    000010C1 7E               [ 7] 3416 	ld	a, (hl)
    000010C2 23               [ 6] 3417 	inc	hl
    000010C3 66               [ 7] 3418 	ld	h, (hl)
                                   3419 ;	spillPairReg hl
    000010C4 6F               [ 4] 3420 	ld	l, a
                                   3421 ;	spillPairReg hl
                                   3422 ;	spillPairReg hl
    000010C5 19               [11] 3423 	add	hl, de
    000010C6 DD 75 F8         [19] 3424 	ld	-8 (ix), l
    000010C9 DD 74 F9         [19] 3425 	ld	-7 (ix), h
    000010CC DD 6E FB         [19] 3426 	ld	l, -5 (ix)
    000010CF DD 66 FC         [19] 3427 	ld	h, -4 (ix)
    000010D2 DD 7E F8         [19] 3428 	ld	a, -8 (ix)
    000010D5 77               [ 7] 3429 	ld	(hl), a
    000010D6 23               [ 6] 3430 	inc	hl
    000010D7 DD 7E F9         [19] 3431 	ld	a, -7 (ix)
    000010DA 77               [ 7] 3432 	ld	(hl), a
                                   3433 ;./exsoccer.c:748: g_Ball.Y = g_Players[playerId].Y - distY + BallAlignCorrectY[moveDir];
    000010DB DD 5E FA         [19] 3434 	ld	e, -6 (ix)
    000010DE 16 00            [ 7] 3435 	ld	d, #0x00
    000010E0 E1               [10] 3436 	pop	hl
    000010E1 E5               [11] 3437 	push	hl
    000010E2 BF               [ 4] 3438 	cp	a, a
    000010E3 ED 52            [15] 3439 	sbc	hl, de
    000010E5 E5               [11] 3440 	push	hl
    000010E6 DD 5E F5         [19] 3441 	ld	e, -11 (ix)
    000010E9 16 00            [ 7] 3442 	ld	d, #0x00
    000010EB 21 1F 00         [10] 3443 	ld	hl, #31
    000010EE 39               [11] 3444 	add	hl, sp
    000010EF 19               [11] 3445 	add	hl, de
    000010F0 D1               [10] 3446 	pop	de
    000010F1 7E               [ 7] 3447 	ld	a, (hl)
    000010F2 6F               [ 4] 3448 	ld	l, a
                                   3449 ;	spillPairReg hl
                                   3450 ;	spillPairReg hl
    000010F3 07               [ 4] 3451 	rlca
    000010F4 9F               [ 4] 3452 	sbc	a, a
    000010F5 67               [ 4] 3453 	ld	h, a
                                   3454 ;	spillPairReg hl
                                   3455 ;	spillPairReg hl
    000010F6 19               [11] 3456 	add	hl, de
    000010F7 EB               [ 4] 3457 	ex	de, hl
    000010F8 ED 53r05r01      [20] 3458 	ld	(_g_Ball), de
                                   3459 ;./exsoccer.c:749: g_Ball.X = g_Players[playerId].X + distX + BallAlignCorrectX[moveDir];
    000010FC DD 6E FD         [19] 3460 	ld	l, -3 (ix)
                                   3461 ;	spillPairReg hl
                                   3462 ;	spillPairReg hl
    000010FF 26 00            [ 7] 3463 	ld	h, #0x00
                                   3464 ;	spillPairReg hl
                                   3465 ;	spillPairReg hl
    00001101 DD 5E F8         [19] 3466 	ld	e, -8 (ix)
    00001104 DD 56 F9         [19] 3467 	ld	d, -7 (ix)
    00001107 19               [11] 3468 	add	hl, de
    00001108 E5               [11] 3469 	push	hl
    00001109 DD 5E F5         [19] 3470 	ld	e, -11 (ix)
    0000110C 16 00            [ 7] 3471 	ld	d, #0x00
    0000110E 21 16 00         [10] 3472 	ld	hl, #22
    00001111 39               [11] 3473 	add	hl, sp
    00001112 19               [11] 3474 	add	hl, de
    00001113 D1               [10] 3475 	pop	de
    00001114 7E               [ 7] 3476 	ld	a, (hl)
    00001115 6F               [ 4] 3477 	ld	l, a
                                   3478 ;	spillPairReg hl
                                   3479 ;	spillPairReg hl
    00001116 07               [ 4] 3480 	rlca
    00001117 9F               [ 4] 3481 	sbc	a, a
    00001118 67               [ 4] 3482 	ld	h, a
                                   3483 ;	spillPairReg hl
                                   3484 ;	spillPairReg hl
    00001119 19               [11] 3485 	add	hl, de
    0000111A EB               [ 4] 3486 	ex	de, hl
    0000111B ED 53r07r01      [20] 3487 	ld	((_g_Ball + 2)), de
                                   3488 ;./exsoccer.c:750: break;
    0000111F C3rBBr12         [10] 3489 	jp	00212$
                                   3490 ;./exsoccer.c:751: case DIRECTION_UP_LEFT:
    00001122                       3491 00209$:
                                   3492 ;./exsoccer.c:752: g_Players[playerId].Y -= diagStep;
    00001122 DD 6E F1         [19] 3493 	ld	l, -15 (ix)
    00001125 DD 66 F2         [19] 3494 	ld	h, -14 (ix)
    00001128 7E               [ 7] 3495 	ld	a, (hl)
    00001129 23               [ 6] 3496 	inc	hl
    0000112A 66               [ 7] 3497 	ld	h, (hl)
                                   3498 ;	spillPairReg hl
    0000112B 6F               [ 4] 3499 	ld	l, a
                                   3500 ;	spillPairReg hl
                                   3501 ;	spillPairReg hl
    0000112C DD 5E F8         [19] 3502 	ld	e, -8 (ix)
    0000112F 16 00            [ 7] 3503 	ld	d, #0x00
    00001131 BF               [ 4] 3504 	cp	a, a
    00001132 ED 52            [15] 3505 	sbc	hl, de
    00001134 E3               [19] 3506 	ex	(sp), hl
    00001135 DD 6E F1         [19] 3507 	ld	l, -15 (ix)
    00001138 DD 66 F2         [19] 3508 	ld	h, -14 (ix)
    0000113B DD 7E C3         [19] 3509 	ld	a, -61 (ix)
    0000113E 77               [ 7] 3510 	ld	(hl), a
    0000113F 23               [ 6] 3511 	inc	hl
    00001140 DD 7E C4         [19] 3512 	ld	a, -60 (ix)
    00001143 77               [ 7] 3513 	ld	(hl), a
                                   3514 ;./exsoccer.c:753: g_Players[playerId].X -= diagStep;
    00001144 DD 6E FB         [19] 3515 	ld	l, -5 (ix)
    00001147 DD 66 FC         [19] 3516 	ld	h, -4 (ix)
    0000114A 7E               [ 7] 3517 	ld	a, (hl)
    0000114B 23               [ 6] 3518 	inc	hl
    0000114C 66               [ 7] 3519 	ld	h, (hl)
                                   3520 ;	spillPairReg hl
    0000114D 6F               [ 4] 3521 	ld	l, a
                                   3522 ;	spillPairReg hl
                                   3523 ;	spillPairReg hl
    0000114E BF               [ 4] 3524 	cp	a, a
    0000114F ED 52            [15] 3525 	sbc	hl, de
    00001151 DD 75 F8         [19] 3526 	ld	-8 (ix), l
    00001154 DD 74 F9         [19] 3527 	ld	-7 (ix), h
    00001157 DD 6E FB         [19] 3528 	ld	l, -5 (ix)
    0000115A DD 66 FC         [19] 3529 	ld	h, -4 (ix)
    0000115D DD 7E F8         [19] 3530 	ld	a, -8 (ix)
    00001160 77               [ 7] 3531 	ld	(hl), a
    00001161 23               [ 6] 3532 	inc	hl
    00001162 DD 7E F9         [19] 3533 	ld	a, -7 (ix)
    00001165 77               [ 7] 3534 	ld	(hl), a
                                   3535 ;./exsoccer.c:754: g_Ball.Y = g_Players[playerId].Y - distY + BallAlignCorrectY[moveDir];
    00001166 DD 5E FA         [19] 3536 	ld	e, -6 (ix)
    00001169 16 00            [ 7] 3537 	ld	d, #0x00
    0000116B E1               [10] 3538 	pop	hl
    0000116C E5               [11] 3539 	push	hl
    0000116D BF               [ 4] 3540 	cp	a, a
    0000116E ED 52            [15] 3541 	sbc	hl, de
    00001170 E5               [11] 3542 	push	hl
    00001171 DD 5E F5         [19] 3543 	ld	e, -11 (ix)
    00001174 16 00            [ 7] 3544 	ld	d, #0x00
    00001176 21 1F 00         [10] 3545 	ld	hl, #31
    00001179 39               [11] 3546 	add	hl, sp
    0000117A 19               [11] 3547 	add	hl, de
    0000117B D1               [10] 3548 	pop	de
    0000117C 7E               [ 7] 3549 	ld	a, (hl)
    0000117D 6F               [ 4] 3550 	ld	l, a
                                   3551 ;	spillPairReg hl
                                   3552 ;	spillPairReg hl
    0000117E 07               [ 4] 3553 	rlca
    0000117F 9F               [ 4] 3554 	sbc	a, a
    00001180 67               [ 4] 3555 	ld	h, a
                                   3556 ;	spillPairReg hl
                                   3557 ;	spillPairReg hl
    00001181 19               [11] 3558 	add	hl, de
    00001182 EB               [ 4] 3559 	ex	de, hl
    00001183 ED 53r05r01      [20] 3560 	ld	(_g_Ball), de
                                   3561 ;./exsoccer.c:755: g_Ball.X = g_Players[playerId].X - distX + BallAlignCorrectX[moveDir];
    00001187 DD 5E FD         [19] 3562 	ld	e, -3 (ix)
    0000118A 16 00            [ 7] 3563 	ld	d, #0x00
    0000118C DD 6E F8         [19] 3564 	ld	l, -8 (ix)
                                   3565 ;	spillPairReg hl
                                   3566 ;	spillPairReg hl
    0000118F DD 66 F9         [19] 3567 	ld	h, -7 (ix)
                                   3568 ;	spillPairReg hl
                                   3569 ;	spillPairReg hl
    00001192 BF               [ 4] 3570 	cp	a, a
    00001193 ED 52            [15] 3571 	sbc	hl, de
    00001195 E5               [11] 3572 	push	hl
    00001196 DD 5E F5         [19] 3573 	ld	e, -11 (ix)
    00001199 16 00            [ 7] 3574 	ld	d, #0x00
    0000119B 21 16 00         [10] 3575 	ld	hl, #22
    0000119E 39               [11] 3576 	add	hl, sp
    0000119F 19               [11] 3577 	add	hl, de
    000011A0 D1               [10] 3578 	pop	de
    000011A1 7E               [ 7] 3579 	ld	a, (hl)
    000011A2 6F               [ 4] 3580 	ld	l, a
                                   3581 ;	spillPairReg hl
                                   3582 ;	spillPairReg hl
    000011A3 07               [ 4] 3583 	rlca
    000011A4 9F               [ 4] 3584 	sbc	a, a
    000011A5 67               [ 4] 3585 	ld	h, a
                                   3586 ;	spillPairReg hl
                                   3587 ;	spillPairReg hl
    000011A6 19               [11] 3588 	add	hl, de
    000011A7 EB               [ 4] 3589 	ex	de, hl
    000011A8 ED 53r07r01      [20] 3590 	ld	((_g_Ball + 2)), de
                                   3591 ;./exsoccer.c:756: break;
    000011AC C3rBBr12         [10] 3592 	jp	00212$
                                   3593 ;./exsoccer.c:757: case DIRECTION_DOWN_RIGHT:
    000011AF                       3594 00210$:
                                   3595 ;./exsoccer.c:758: g_Players[playerId].Y += diagStep;
    000011AF DD 6E F1         [19] 3596 	ld	l, -15 (ix)
    000011B2 DD 66 F2         [19] 3597 	ld	h, -14 (ix)
    000011B5 7E               [ 7] 3598 	ld	a, (hl)
    000011B6 23               [ 6] 3599 	inc	hl
    000011B7 66               [ 7] 3600 	ld	h, (hl)
                                   3601 ;	spillPairReg hl
    000011B8 6F               [ 4] 3602 	ld	l, a
                                   3603 ;	spillPairReg hl
                                   3604 ;	spillPairReg hl
    000011B9 DD 5E F8         [19] 3605 	ld	e, -8 (ix)
    000011BC 16 00            [ 7] 3606 	ld	d, #0x00
    000011BE 19               [11] 3607 	add	hl, de
    000011BF E3               [19] 3608 	ex	(sp), hl
    000011C0 DD 6E F1         [19] 3609 	ld	l, -15 (ix)
    000011C3 DD 66 F2         [19] 3610 	ld	h, -14 (ix)
    000011C6 DD 7E C3         [19] 3611 	ld	a, -61 (ix)
    000011C9 77               [ 7] 3612 	ld	(hl), a
    000011CA 23               [ 6] 3613 	inc	hl
    000011CB DD 7E C4         [19] 3614 	ld	a, -60 (ix)
    000011CE 77               [ 7] 3615 	ld	(hl), a
                                   3616 ;./exsoccer.c:759: g_Players[playerId].X += diagStep;
    000011CF DD 6E FB         [19] 3617 	ld	l, -5 (ix)
    000011D2 DD 66 FC         [19] 3618 	ld	h, -4 (ix)
    000011D5 7E               [ 7] 3619 	ld	a, (hl)
    000011D6 23               [ 6] 3620 	inc	hl
    000011D7 66               [ 7] 3621 	ld	h, (hl)
                                   3622 ;	spillPairReg hl
    000011D8 6F               [ 4] 3623 	ld	l, a
                                   3624 ;	spillPairReg hl
                                   3625 ;	spillPairReg hl
    000011D9 19               [11] 3626 	add	hl, de
    000011DA DD 75 F8         [19] 3627 	ld	-8 (ix), l
    000011DD DD 74 F9         [19] 3628 	ld	-7 (ix), h
    000011E0 DD 6E FB         [19] 3629 	ld	l, -5 (ix)
    000011E3 DD 66 FC         [19] 3630 	ld	h, -4 (ix)
    000011E6 DD 7E F8         [19] 3631 	ld	a, -8 (ix)
    000011E9 77               [ 7] 3632 	ld	(hl), a
    000011EA 23               [ 6] 3633 	inc	hl
    000011EB DD 7E F9         [19] 3634 	ld	a, -7 (ix)
    000011EE 77               [ 7] 3635 	ld	(hl), a
                                   3636 ;./exsoccer.c:760: g_Ball.Y = g_Players[playerId].Y + distY + BallAlignCorrectY[moveDir];
    000011EF DD 6E FA         [19] 3637 	ld	l, -6 (ix)
                                   3638 ;	spillPairReg hl
                                   3639 ;	spillPairReg hl
    000011F2 26 00            [ 7] 3640 	ld	h, #0x00
                                   3641 ;	spillPairReg hl
                                   3642 ;	spillPairReg hl
    000011F4 D1               [10] 3643 	pop	de
    000011F5 D5               [11] 3644 	push	de
    000011F6 19               [11] 3645 	add	hl, de
    000011F7 E5               [11] 3646 	push	hl
    000011F8 DD 5E F5         [19] 3647 	ld	e, -11 (ix)
    000011FB 16 00            [ 7] 3648 	ld	d, #0x00
    000011FD 21 1F 00         [10] 3649 	ld	hl, #31
    00001200 39               [11] 3650 	add	hl, sp
    00001201 19               [11] 3651 	add	hl, de
    00001202 D1               [10] 3652 	pop	de
    00001203 7E               [ 7] 3653 	ld	a, (hl)
    00001204 6F               [ 4] 3654 	ld	l, a
                                   3655 ;	spillPairReg hl
                                   3656 ;	spillPairReg hl
    00001205 07               [ 4] 3657 	rlca
    00001206 9F               [ 4] 3658 	sbc	a, a
    00001207 67               [ 4] 3659 	ld	h, a
                                   3660 ;	spillPairReg hl
                                   3661 ;	spillPairReg hl
    00001208 19               [11] 3662 	add	hl, de
    00001209 EB               [ 4] 3663 	ex	de, hl
    0000120A ED 53r05r01      [20] 3664 	ld	(_g_Ball), de
                                   3665 ;./exsoccer.c:761: g_Ball.X = g_Players[playerId].X + distX + BallAlignCorrectX[moveDir];
    0000120E DD 6E FD         [19] 3666 	ld	l, -3 (ix)
                                   3667 ;	spillPairReg hl
                                   3668 ;	spillPairReg hl
    00001211 26 00            [ 7] 3669 	ld	h, #0x00
                                   3670 ;	spillPairReg hl
                                   3671 ;	spillPairReg hl
    00001213 DD 5E F8         [19] 3672 	ld	e, -8 (ix)
    00001216 DD 56 F9         [19] 3673 	ld	d, -7 (ix)
    00001219 19               [11] 3674 	add	hl, de
    0000121A E5               [11] 3675 	push	hl
    0000121B DD 5E F5         [19] 3676 	ld	e, -11 (ix)
    0000121E 16 00            [ 7] 3677 	ld	d, #0x00
    00001220 21 16 00         [10] 3678 	ld	hl, #22
    00001223 39               [11] 3679 	add	hl, sp
    00001224 19               [11] 3680 	add	hl, de
    00001225 D1               [10] 3681 	pop	de
    00001226 7E               [ 7] 3682 	ld	a, (hl)
    00001227 6F               [ 4] 3683 	ld	l, a
                                   3684 ;	spillPairReg hl
                                   3685 ;	spillPairReg hl
    00001228 07               [ 4] 3686 	rlca
    00001229 9F               [ 4] 3687 	sbc	a, a
    0000122A 67               [ 4] 3688 	ld	h, a
                                   3689 ;	spillPairReg hl
                                   3690 ;	spillPairReg hl
    0000122B 19               [11] 3691 	add	hl, de
    0000122C EB               [ 4] 3692 	ex	de, hl
    0000122D ED 53r07r01      [20] 3693 	ld	((_g_Ball + 2)), de
                                   3694 ;./exsoccer.c:762: break;
    00001231 C3rBBr12         [10] 3695 	jp	00212$
                                   3696 ;./exsoccer.c:763: case DIRECTION_DOWN_LEFT:
    00001234                       3697 00211$:
                                   3698 ;./exsoccer.c:764: g_Players[playerId].Y += diagStep;
    00001234 DD 6E F1         [19] 3699 	ld	l, -15 (ix)
    00001237 DD 66 F2         [19] 3700 	ld	h, -14 (ix)
    0000123A 5E               [ 7] 3701 	ld	e, (hl)
    0000123B 23               [ 6] 3702 	inc	hl
    0000123C 56               [ 7] 3703 	ld	d, (hl)
    0000123D DD 6E F8         [19] 3704 	ld	l, -8 (ix)
                                   3705 ;	spillPairReg hl
                                   3706 ;	spillPairReg hl
    00001240 26 00            [ 7] 3707 	ld	h, #0x00
                                   3708 ;	spillPairReg hl
                                   3709 ;	spillPairReg hl
    00001242 DD 75 F8         [19] 3710 	ld	-8 (ix), l
    00001245 DD 74 F9         [19] 3711 	ld	-7 (ix), h
    00001248 19               [11] 3712 	add	hl, de
    00001249 EB               [ 4] 3713 	ex	de, hl
    0000124A DD 6E F1         [19] 3714 	ld	l, -15 (ix)
    0000124D DD 66 F2         [19] 3715 	ld	h, -14 (ix)
    00001250 73               [ 7] 3716 	ld	(hl), e
    00001251 23               [ 6] 3717 	inc	hl
    00001252 72               [ 7] 3718 	ld	(hl), d
                                   3719 ;./exsoccer.c:765: g_Players[playerId].X -= diagStep;
    00001253 DD 6E FB         [19] 3720 	ld	l, -5 (ix)
    00001256 DD 66 FC         [19] 3721 	ld	h, -4 (ix)
    00001259 7E               [ 7] 3722 	ld	a, (hl)
    0000125A 23               [ 6] 3723 	inc	hl
    0000125B 66               [ 7] 3724 	ld	h, (hl)
                                   3725 ;	spillPairReg hl
                                   3726 ;	spillPairReg hl
                                   3727 ;	spillPairReg hl
    0000125C DD 96 F8         [19] 3728 	sub	a, -8 (ix)
    0000125F 6F               [ 4] 3729 	ld	l, a
                                   3730 ;	spillPairReg hl
                                   3731 ;	spillPairReg hl
    00001260 7C               [ 4] 3732 	ld	a, h
    00001261 DD 9E F9         [19] 3733 	sbc	a, -7 (ix)
    00001264 DD 75 F8         [19] 3734 	ld	-8 (ix), l
    00001267 DD 77 F9         [19] 3735 	ld	-7 (ix), a
    0000126A DD 6E FB         [19] 3736 	ld	l, -5 (ix)
    0000126D DD 66 FC         [19] 3737 	ld	h, -4 (ix)
    00001270 DD 7E F8         [19] 3738 	ld	a, -8 (ix)
    00001273 77               [ 7] 3739 	ld	(hl), a
    00001274 23               [ 6] 3740 	inc	hl
    00001275 DD 7E F9         [19] 3741 	ld	a, -7 (ix)
    00001278 77               [ 7] 3742 	ld	(hl), a
                                   3743 ;./exsoccer.c:766: g_Ball.Y = g_Players[playerId].Y + distY + BallAlignCorrectY[moveDir];
    00001279 DD 6E FA         [19] 3744 	ld	l, -6 (ix)
                                   3745 ;	spillPairReg hl
                                   3746 ;	spillPairReg hl
    0000127C 26 00            [ 7] 3747 	ld	h, #0x00
                                   3748 ;	spillPairReg hl
                                   3749 ;	spillPairReg hl
    0000127E 19               [11] 3750 	add	hl, de
    0000127F E5               [11] 3751 	push	hl
    00001280 DD 5E F5         [19] 3752 	ld	e, -11 (ix)
    00001283 16 00            [ 7] 3753 	ld	d, #0x00
    00001285 21 1F 00         [10] 3754 	ld	hl, #31
    00001288 39               [11] 3755 	add	hl, sp
    00001289 19               [11] 3756 	add	hl, de
    0000128A D1               [10] 3757 	pop	de
    0000128B 7E               [ 7] 3758 	ld	a, (hl)
    0000128C 6F               [ 4] 3759 	ld	l, a
                                   3760 ;	spillPairReg hl
                                   3761 ;	spillPairReg hl
    0000128D 07               [ 4] 3762 	rlca
    0000128E 9F               [ 4] 3763 	sbc	a, a
    0000128F 67               [ 4] 3764 	ld	h, a
                                   3765 ;	spillPairReg hl
                                   3766 ;	spillPairReg hl
    00001290 19               [11] 3767 	add	hl, de
    00001291 EB               [ 4] 3768 	ex	de, hl
    00001292 ED 53r05r01      [20] 3769 	ld	(_g_Ball), de
                                   3770 ;./exsoccer.c:767: g_Ball.X = g_Players[playerId].X - distX + BallAlignCorrectX[moveDir];
    00001296 DD 5E FD         [19] 3771 	ld	e, -3 (ix)
    00001299 16 00            [ 7] 3772 	ld	d, #0x00
    0000129B DD 6E F8         [19] 3773 	ld	l, -8 (ix)
                                   3774 ;	spillPairReg hl
                                   3775 ;	spillPairReg hl
    0000129E DD 66 F9         [19] 3776 	ld	h, -7 (ix)
                                   3777 ;	spillPairReg hl
                                   3778 ;	spillPairReg hl
    000012A1 BF               [ 4] 3779 	cp	a, a
    000012A2 ED 52            [15] 3780 	sbc	hl, de
    000012A4 E5               [11] 3781 	push	hl
    000012A5 DD 5E F5         [19] 3782 	ld	e, -11 (ix)
    000012A8 16 00            [ 7] 3783 	ld	d, #0x00
    000012AA 21 16 00         [10] 3784 	ld	hl, #22
    000012AD 39               [11] 3785 	add	hl, sp
    000012AE 19               [11] 3786 	add	hl, de
    000012AF D1               [10] 3787 	pop	de
    000012B0 7E               [ 7] 3788 	ld	a, (hl)
    000012B1 6F               [ 4] 3789 	ld	l, a
                                   3790 ;	spillPairReg hl
                                   3791 ;	spillPairReg hl
    000012B2 07               [ 4] 3792 	rlca
    000012B3 9F               [ 4] 3793 	sbc	a, a
    000012B4 67               [ 4] 3794 	ld	h, a
                                   3795 ;	spillPairReg hl
                                   3796 ;	spillPairReg hl
    000012B5 19               [11] 3797 	add	hl, de
    000012B6 EB               [ 4] 3798 	ex	de, hl
    000012B7 ED 53r07r01      [20] 3799 	ld	((_g_Ball + 2)), de
                                   3800 ;./exsoccer.c:769: }
    000012BB                       3801 00212$:
                                   3802 ;./exsoccer.c:770: g_Players[playerId].TargetY=g_Players[playerId].Y;
    000012BB DD 7E F1         [19] 3803 	ld	a, -15 (ix)
    000012BE C6 0A            [ 7] 3804 	add	a, #0x0a
    000012C0 DD 77 F9         [19] 3805 	ld	-7 (ix), a
    000012C3 DD 7E F2         [19] 3806 	ld	a, -14 (ix)
    000012C6 CE 00            [ 7] 3807 	adc	a, #0x00
    000012C8 DD 77 FA         [19] 3808 	ld	-6 (ix), a
    000012CB DD 6E F1         [19] 3809 	ld	l, -15 (ix)
    000012CE DD 66 F2         [19] 3810 	ld	h, -14 (ix)
    000012D1 5E               [ 7] 3811 	ld	e, (hl)
    000012D2 23               [ 6] 3812 	inc	hl
    000012D3 56               [ 7] 3813 	ld	d, (hl)
    000012D4 DD 6E F9         [19] 3814 	ld	l, -7 (ix)
    000012D7 DD 66 FA         [19] 3815 	ld	h, -6 (ix)
    000012DA 73               [ 7] 3816 	ld	(hl), e
    000012DB 23               [ 6] 3817 	inc	hl
    000012DC 72               [ 7] 3818 	ld	(hl), d
                                   3819 ;./exsoccer.c:771: g_Players[playerId].TargetX=g_Players[playerId].X;
    000012DD DD 7E F1         [19] 3820 	ld	a, -15 (ix)
    000012E0 C6 0C            [ 7] 3821 	add	a, #0x0c
    000012E2 DD 77 F9         [19] 3822 	ld	-7 (ix), a
    000012E5 DD 7E F2         [19] 3823 	ld	a, -14 (ix)
    000012E8 CE 00            [ 7] 3824 	adc	a, #0x00
    000012EA DD 77 FA         [19] 3825 	ld	-6 (ix), a
    000012ED DD 6E FB         [19] 3826 	ld	l, -5 (ix)
    000012F0 DD 66 FC         [19] 3827 	ld	h, -4 (ix)
    000012F3 5E               [ 7] 3828 	ld	e, (hl)
    000012F4 23               [ 6] 3829 	inc	hl
    000012F5 56               [ 7] 3830 	ld	d, (hl)
    000012F6 DD 6E F9         [19] 3831 	ld	l, -7 (ix)
    000012F9 DD 66 FA         [19] 3832 	ld	h, -6 (ix)
    000012FC 73               [ 7] 3833 	ld	(hl), e
    000012FD 23               [ 6] 3834 	inc	hl
    000012FE 72               [ 7] 3835 	ld	(hl), d
                                   3836 ;./exsoccer.c:772: g_Players[playerId].Status=PLAYER_STATUS_HAS_BALL; 
    000012FF DD 6E F3         [19] 3837 	ld	l, -13 (ix)
    00001302 DD 66 F4         [19] 3838 	ld	h, -12 (ix)
    00001305 36 01            [10] 3839 	ld	(hl), #0x01
    00001307 23               [ 6] 3840 	inc	hl
    00001308 36 00            [10] 3841 	ld	(hl), #0x00
                                   3842 ;./exsoccer.c:773: g_Players[playerId].Direction=moveDir;
    0000130A DD 7E F1         [19] 3843 	ld	a, -15 (ix)
    0000130D C6 06            [ 7] 3844 	add	a, #0x06
    0000130F 5F               [ 4] 3845 	ld	e, a
    00001310 DD 7E F2         [19] 3846 	ld	a, -14 (ix)
    00001313 CE 00            [ 7] 3847 	adc	a, #0x00
    00001315 57               [ 4] 3848 	ld	d, a
    00001316 DD 7E F5         [19] 3849 	ld	a, -11 (ix)
    00001319 12               [ 7] 3850 	ld	(de), a
                                   3851 ;./exsoccer.c:775: g_Players[playerId].PatternId=GetNoMovingPlayerPatternId(g_Players[playerId].PreviousDirection);
    0000131A DD 7E F1         [19] 3852 	ld	a, -15 (ix)
    0000131D C6 04            [ 7] 3853 	add	a, #0x04
    0000131F DD 77 FC         [19] 3854 	ld	-4 (ix), a
    00001322 DD 7E F2         [19] 3855 	ld	a, -14 (ix)
    00001325 CE 00            [ 7] 3856 	adc	a, #0x00
    00001327 DD 77 FD         [19] 3857 	ld	-3 (ix), a
    0000132A DD 6E F6         [19] 3858 	ld	l, -10 (ix)
    0000132D DD 66 F7         [19] 3859 	ld	h, -9 (ix)
    00001330 6E               [ 7] 3860 	ld	l, (hl)
                                   3861 ;	spillPairReg hl
    00001331 C5               [11] 3862 	push	bc
    00001332 D5               [11] 3863 	push	de
    00001333 7D               [ 4] 3864 	ld	a, l
    00001334 CDrF9r1D         [17] 3865 	call	_GetNoMovingPlayerPatternId
    00001337 D1               [10] 3866 	pop	de
    00001338 C1               [10] 3867 	pop	bc
    00001339 DD 6E FC         [19] 3868 	ld	l, -4 (ix)
    0000133C DD 66 FD         [19] 3869 	ld	h, -3 (ix)
    0000133F 77               [ 7] 3870 	ld	(hl), a
                                   3871 ;./exsoccer.c:776: g_Players[playerId].PreviousDirection=g_Players[playerId].Direction;
    00001340 1A               [ 7] 3872 	ld	a, (de)
    00001341 DD 6E F6         [19] 3873 	ld	l, -10 (ix)
    00001344 DD 66 F7         [19] 3874 	ld	h, -9 (ix)
    00001347 77               [ 7] 3875 	ld	(hl), a
                                   3876 ;./exsoccer.c:778: g_Ball.Direction = moveDir;
    00001348 21r0Ar01         [10] 3877 	ld	hl, #(_g_Ball + 5)
    0000134B DD 7E F5         [19] 3878 	ld	a, -11 (ix)
    0000134E 77               [ 7] 3879 	ld	(hl), a
                                   3880 ;./exsoccer.c:780: g_Ball.KickMoveState++;
    0000134F 0A               [ 7] 3881 	ld	a, (bc)
    00001350 3C               [ 4] 3882 	inc	a
    00001351 5F               [ 4] 3883 	ld	e, a
    00001352 02               [ 7] 3884 	ld	(bc), a
                                   3885 ;./exsoccer.c:781: if(g_Ball.KickMoveState>3){
    00001353 3E 03            [ 7] 3886 	ld	a, #0x03
    00001355 93               [ 4] 3887 	sub	a, e
    00001356 D2r36r16         [10] 3888 	jp	NC, 00261$
                                   3889 ;./exsoccer.c:782: g_Ball.KickMoveState=0;
    00001359 AF               [ 4] 3890 	xor	a, a
    0000135A 02               [ 7] 3891 	ld	(bc), a
    0000135B C3r36r16         [10] 3892 	jp	00261$
    0000135E                       3893 00259$:
                                   3894 ;./exsoccer.c:789: if (frameTriggerPressed) {
    0000135E DD 7E C4         [19] 3895 	ld	a, -60 (ix)
    00001361 B7               [ 4] 3896 	or	a, a
    00001362 CAr0Dr14         [10] 3897 	jp	Z, 00237$
                                   3898 ;./exsoccer.c:790: i16 dx = (i16)g_Players[playerId].X - (i16)g_Ball.X;
    00001365 DD 6E F1         [19] 3899 	ld	l, -15 (ix)
                                   3900 ;	spillPairReg hl
                                   3901 ;	spillPairReg hl
    00001368 DD 66 F2         [19] 3902 	ld	h, -14 (ix)
                                   3903 ;	spillPairReg hl
                                   3904 ;	spillPairReg hl
    0000136B 23               [ 6] 3905 	inc	hl
    0000136C 23               [ 6] 3906 	inc	hl
    0000136D 4E               [ 7] 3907 	ld	c, (hl)
    0000136E 23               [ 6] 3908 	inc	hl
    0000136F 46               [ 7] 3909 	ld	b, (hl)
    00001370 2Ar07r01         [16] 3910 	ld	hl, (#_g_Ball + 2)
    00001373 79               [ 4] 3911 	ld	a, c
    00001374 95               [ 4] 3912 	sub	a, l
    00001375 4F               [ 4] 3913 	ld	c, a
    00001376 78               [ 4] 3914 	ld	a, b
    00001377 9C               [ 4] 3915 	sbc	a, h
    00001378 47               [ 4] 3916 	ld	b, a
                                   3917 ;./exsoccer.c:791: i16 dy = (i16)g_Players[playerId].Y - (i16)g_Ball.Y;
    00001379 DD 6E F1         [19] 3918 	ld	l, -15 (ix)
    0000137C DD 66 F2         [19] 3919 	ld	h, -14 (ix)
    0000137F 5E               [ 7] 3920 	ld	e, (hl)
    00001380 23               [ 6] 3921 	inc	hl
    00001381 56               [ 7] 3922 	ld	d, (hl)
    00001382 2Ar05r01         [16] 3923 	ld	hl, (#_g_Ball + 0)
    00001385 7B               [ 4] 3924 	ld	a, e
    00001386 95               [ 4] 3925 	sub	a, l
    00001387 5F               [ 4] 3926 	ld	e, a
    00001388 7A               [ 4] 3927 	ld	a, d
    00001389 9C               [ 4] 3928 	sbc	a, h
    0000138A 57               [ 4] 3929 	ld	d, a
                                   3930 ;./exsoccer.c:794: if (dx > -16 && dx < 16 && dy > -16 && dy < 16) {
    0000138B 3E F0            [ 7] 3931 	ld	a, #0xf0
    0000138D B9               [ 4] 3932 	cp	a, c
    0000138E 3E FF            [ 7] 3933 	ld	a, #0xff
    00001390 98               [ 4] 3934 	sbc	a, b
    00001391 E2r96r13         [10] 3935 	jp	PO, 00752$
    00001394 EE 80            [ 7] 3936 	xor	a, #0x80
    00001396                       3937 00752$:
    00001396 F2r0Dr14         [10] 3938 	jp	P, 00237$
    00001399 79               [ 4] 3939 	ld	a, c
    0000139A D6 10            [ 7] 3940 	sub	a, #0x10
    0000139C 78               [ 4] 3941 	ld	a, b
    0000139D 17               [ 4] 3942 	rla
    0000139E 3F               [ 4] 3943 	ccf
    0000139F 1F               [ 4] 3944 	rra
    000013A0 DE 80            [ 7] 3945 	sbc	a, #0x80
    000013A2 30 69            [12] 3946 	jr	NC, 00237$
    000013A4 3E F0            [ 7] 3947 	ld	a, #0xf0
    000013A6 BB               [ 4] 3948 	cp	a, e
    000013A7 3E FF            [ 7] 3949 	ld	a, #0xff
    000013A9 9A               [ 4] 3950 	sbc	a, d
    000013AA E2rAFr13         [10] 3951 	jp	PO, 00753$
    000013AD EE 80            [ 7] 3952 	xor	a, #0x80
    000013AF                       3953 00753$:
    000013AF F2r0Dr14         [10] 3954 	jp	P, 00237$
    000013B2 7B               [ 4] 3955 	ld	a, e
    000013B3 D6 10            [ 7] 3956 	sub	a, #0x10
    000013B5 7A               [ 4] 3957 	ld	a, d
    000013B6 17               [ 4] 3958 	rla
    000013B7 3F               [ 4] 3959 	ccf
    000013B8 1F               [ 4] 3960 	rra
    000013B9 DE 80            [ 7] 3961 	sbc	a, #0x80
    000013BB 30 50            [12] 3962 	jr	NC, 00237$
                                   3963 ;./exsoccer.c:805: if (dx < 0) slidePose = PLAYER_POSE_TACKLE_FROM_UP_LEFT;    // UP-LEFT -> Slides towards Bottom-Right?
    000013BD 78               [ 4] 3964 	ld	a, b
    000013BE 07               [ 4] 3965 	rlca
    000013BF E6 01            [ 7] 3966 	and	a,#0x01
    000013C1 4F               [ 4] 3967 	ld	c, a
                                   3968 ;./exsoccer.c:803: if (dy < 0) {
    000013C2 CB 7A            [ 8] 3969 	bit	7, d
    000013C4 28 0E            [12] 3970 	jr	Z, 00225$
                                   3971 ;./exsoccer.c:805: if (dx < 0) slidePose = PLAYER_POSE_TACKLE_FROM_UP_LEFT;    // UP-LEFT -> Slides towards Bottom-Right?
    000013C6 79               [ 4] 3972 	ld	a, c
    000013C7 B7               [ 4] 3973 	or	a, a
    000013C8 28 05            [12] 3974 	jr	Z, 00219$
    000013CA 06 24            [ 7] 3975 	ld	b, #0x24
    000013CC C3rDFr13         [10] 3976 	jp	00226$
    000013CF                       3977 00219$:
                                   3978 ;./exsoccer.c:806: else        slidePose = PLAYER_POSE_TACKLE_FROM_UP_RIGHT;   // UP-RIGHT -> Slides towards Bottom-Left?
    000013CF 06 BB            [ 7] 3979 	ld	b, #0xbb
    000013D1 C3rDFr13         [10] 3980 	jp	00226$
    000013D4                       3981 00225$:
                                   3982 ;./exsoccer.c:809: if (dx < 0) slidePose = PLAYER_POSE_TACKLE_FROM_DOWN_LEFT;  // DOWN-LEFT -> Slides towards Top-Right?
    000013D4 79               [ 4] 3983 	ld	a, c
    000013D5 B7               [ 4] 3984 	or	a, a
    000013D6 28 05            [12] 3985 	jr	Z, 00222$
    000013D8 06 22            [ 7] 3986 	ld	b, #0x22
    000013DA C3rDFr13         [10] 3987 	jp	00226$
    000013DD                       3988 00222$:
                                   3989 ;./exsoccer.c:810: else        slidePose = PLAYER_POSE_TACKLE_FROM_DOWN_RIGHT; // DOWN-RIGHT -> Slides towards Top-Left?
    000013DD 06 BD            [ 7] 3990 	ld	b, #0xbd
    000013DF                       3991 00226$:
                                   3992 ;./exsoccer.c:813: if (slidePose != 0) {
    000013DF 78               [ 4] 3993 	ld	a, b
    000013E0 B7               [ 4] 3994 	or	a, a
    000013E1 28 0B            [12] 3995 	jr	Z, 00228$
                                   3996 ;./exsoccer.c:814: g_Players[playerId].PatternId = slidePose;
    000013E3 DD 6E F1         [19] 3997 	ld	l, -15 (ix)
    000013E6 DD 66 F2         [19] 3998 	ld	h, -14 (ix)
    000013E9 11 04 00         [10] 3999 	ld	de, #0x0004
    000013EC 19               [11] 4000 	add	hl, de
    000013ED 70               [ 7] 4001 	ld	(hl), b
    000013EE                       4002 00228$:
                                   4003 ;./exsoccer.c:818: PutBallOnPlayerFeet(playerId);
    000013EE C5               [11] 4004 	push	bc
    000013EF DD 7E FD         [19] 4005 	ld	a, -3 (ix)
    000013F2 CDr00r00         [17] 4006 	call	_PutBallOnPlayerFeet
    000013F5 C1               [10] 4007 	pop	bc
                                   4008 ;./exsoccer.c:820: if (slidePose != 0) {
    000013F6 78               [ 4] 4009 	ld	a, b
    000013F7 B7               [ 4] 4010 	or	a, a
    000013F8 28 0B            [12] 4011 	jr	Z, 00230$
                                   4012 ;./exsoccer.c:821: g_Players[playerId].Status = PLAYER_STATUS_POSITIONED; // Lock visual (Override HAS_BALL)
    000013FA DD 6E F3         [19] 4013 	ld	l, -13 (ix)
    000013FD DD 66 F4         [19] 4014 	ld	h, -12 (ix)
    00001400 36 04            [10] 4015 	ld	(hl), #0x04
    00001402 23               [ 6] 4016 	inc	hl
    00001403 36 00            [10] 4017 	ld	(hl), #0x00
    00001405                       4018 00230$:
                                   4019 ;./exsoccer.c:824: g_ActionCooldown = 15; // Set 15 frames cooldown to avoid immediate pass
    00001405 21r0Cr00         [10] 4020 	ld	hl, #_g_ActionCooldown
    00001408 36 0F            [10] 4021 	ld	(hl), #0x0f
                                   4022 ;./exsoccer.c:825: return;
    0000140A C3r36r16         [10] 4023 	jp	00261$
    0000140D                       4024 00237$:
                                   4025 ;./exsoccer.c:829: if((g_FrameCounter % 4)!=0){ 
    0000140D 2Ar00r00         [16] 4026 	ld	hl, (_g_FrameCounter)
    00001410 7D               [ 4] 4027 	ld	a, l
    00001411 E6 03            [ 7] 4028 	and	a, #0x03
                                   4029 ;./exsoccer.c:830: return;
    00001413 C2r36r16         [10] 4030 	jp	NZ,00261$
                                   4031 ;./exsoccer.c:574: i16 dx = (i16)g_Players[playerId].X - (i16)g_Ball.X;
    00001416 DD 7E F1         [19] 4032 	ld	a, -15 (ix)
    00001419 C6 02            [ 7] 4033 	add	a, #0x02
    0000141B DD 77 FC         [19] 4034 	ld	-4 (ix), a
    0000141E DD 7E F2         [19] 4035 	ld	a, -14 (ix)
    00001421 CE 00            [ 7] 4036 	adc	a, #0x00
    00001423 DD 77 FD         [19] 4037 	ld	-3 (ix), a
                                   4038 ;./exsoccer.c:833: switch(direction){
    00001426 3E 08            [ 7] 4039 	ld	a, #0x08
    00001428 DD 96 FE         [19] 4040 	sub	a, -2 (ix)
    0000142B DAr5Ar15         [10] 4041 	jp	C, 00248$
    0000142E DD 4E FE         [19] 4042 	ld	c, -2 (ix)
    00001431 06 00            [ 7] 4043 	ld	b, #0x00
    00001433 21r3Ar14         [10] 4044 	ld	hl, #00755$
    00001436 09               [11] 4045 	add	hl, bc
    00001437 09               [11] 4046 	add	hl, bc
    00001438 09               [11] 4047 	add	hl, bc
    00001439 E9               [ 4] 4048 	jp	(hl)
    0000143A                       4049 00755$:
    0000143A C3r5Ar15         [10] 4050 	jp	00248$
    0000143D C3r55r14         [10] 4051 	jp	00240$
    00001440 C3rB1r14         [10] 4052 	jp	00244$
    00001443 C3r9Ar14         [10] 4053 	jp	00243$
    00001446 C3r07r15         [10] 4054 	jp	00246$
    00001449 C3r6Cr14         [10] 4055 	jp	00241$
    0000144C C3r32r15         [10] 4056 	jp	00247$
    0000144F C3r83r14         [10] 4057 	jp	00242$
    00001452 C3rDCr14         [10] 4058 	jp	00245$
                                   4059 ;./exsoccer.c:834: case DIRECTION_UP:
    00001455                       4060 00240$:
                                   4061 ;./exsoccer.c:835: g_Players[playerId].Y=g_Players[playerId].Y-2;
    00001455 DD 6E F1         [19] 4062 	ld	l, -15 (ix)
    00001458 DD 66 F2         [19] 4063 	ld	h, -14 (ix)
    0000145B 4E               [ 7] 4064 	ld	c, (hl)
    0000145C 23               [ 6] 4065 	inc	hl
    0000145D 46               [ 7] 4066 	ld	b, (hl)
    0000145E 0B               [ 6] 4067 	dec	bc
    0000145F 0B               [ 6] 4068 	dec	bc
    00001460 DD 6E F1         [19] 4069 	ld	l, -15 (ix)
    00001463 DD 66 F2         [19] 4070 	ld	h, -14 (ix)
    00001466 71               [ 7] 4071 	ld	(hl), c
    00001467 23               [ 6] 4072 	inc	hl
    00001468 70               [ 7] 4073 	ld	(hl), b
                                   4074 ;./exsoccer.c:836: break;
    00001469 C3r5Ar15         [10] 4075 	jp	00248$
                                   4076 ;./exsoccer.c:837: case DIRECTION_DOWN:
    0000146C                       4077 00241$:
                                   4078 ;./exsoccer.c:838: g_Players[playerId].Y=g_Players[playerId].Y+2;
    0000146C DD 6E F1         [19] 4079 	ld	l, -15 (ix)
    0000146F DD 66 F2         [19] 4080 	ld	h, -14 (ix)
    00001472 4E               [ 7] 4081 	ld	c, (hl)
    00001473 23               [ 6] 4082 	inc	hl
    00001474 46               [ 7] 4083 	ld	b, (hl)
    00001475 03               [ 6] 4084 	inc	bc
    00001476 03               [ 6] 4085 	inc	bc
    00001477 DD 6E F1         [19] 4086 	ld	l, -15 (ix)
    0000147A DD 66 F2         [19] 4087 	ld	h, -14 (ix)
    0000147D 71               [ 7] 4088 	ld	(hl), c
    0000147E 23               [ 6] 4089 	inc	hl
    0000147F 70               [ 7] 4090 	ld	(hl), b
                                   4091 ;./exsoccer.c:839: break;
    00001480 C3r5Ar15         [10] 4092 	jp	00248$
                                   4093 ;./exsoccer.c:840: case DIRECTION_LEFT:
    00001483                       4094 00242$:
                                   4095 ;./exsoccer.c:841: g_Players[playerId].X=g_Players[playerId].X-2;
    00001483 DD 6E FC         [19] 4096 	ld	l, -4 (ix)
    00001486 DD 66 FD         [19] 4097 	ld	h, -3 (ix)
    00001489 4E               [ 7] 4098 	ld	c, (hl)
    0000148A 23               [ 6] 4099 	inc	hl
    0000148B 46               [ 7] 4100 	ld	b, (hl)
    0000148C 0B               [ 6] 4101 	dec	bc
    0000148D 0B               [ 6] 4102 	dec	bc
    0000148E DD 6E FC         [19] 4103 	ld	l, -4 (ix)
    00001491 DD 66 FD         [19] 4104 	ld	h, -3 (ix)
    00001494 71               [ 7] 4105 	ld	(hl), c
    00001495 23               [ 6] 4106 	inc	hl
    00001496 70               [ 7] 4107 	ld	(hl), b
                                   4108 ;./exsoccer.c:842: break;
    00001497 C3r5Ar15         [10] 4109 	jp	00248$
                                   4110 ;./exsoccer.c:843: case DIRECTION_RIGHT:
    0000149A                       4111 00243$:
                                   4112 ;./exsoccer.c:844: g_Players[playerId].X=g_Players[playerId].X+2;
    0000149A DD 6E FC         [19] 4113 	ld	l, -4 (ix)
    0000149D DD 66 FD         [19] 4114 	ld	h, -3 (ix)
    000014A0 4E               [ 7] 4115 	ld	c, (hl)
    000014A1 23               [ 6] 4116 	inc	hl
    000014A2 46               [ 7] 4117 	ld	b, (hl)
    000014A3 03               [ 6] 4118 	inc	bc
    000014A4 03               [ 6] 4119 	inc	bc
    000014A5 DD 6E FC         [19] 4120 	ld	l, -4 (ix)
    000014A8 DD 66 FD         [19] 4121 	ld	h, -3 (ix)
    000014AB 71               [ 7] 4122 	ld	(hl), c
    000014AC 23               [ 6] 4123 	inc	hl
    000014AD 70               [ 7] 4124 	ld	(hl), b
                                   4125 ;./exsoccer.c:845: break;
    000014AE C3r5Ar15         [10] 4126 	jp	00248$
                                   4127 ;./exsoccer.c:846: case DIRECTION_UP_RIGHT:
    000014B1                       4128 00244$:
                                   4129 ;./exsoccer.c:847: g_Players[playerId].Y=g_Players[playerId].Y-2;
    000014B1 DD 6E F1         [19] 4130 	ld	l, -15 (ix)
    000014B4 DD 66 F2         [19] 4131 	ld	h, -14 (ix)
    000014B7 4E               [ 7] 4132 	ld	c, (hl)
    000014B8 23               [ 6] 4133 	inc	hl
    000014B9 46               [ 7] 4134 	ld	b, (hl)
    000014BA 0B               [ 6] 4135 	dec	bc
    000014BB 0B               [ 6] 4136 	dec	bc
    000014BC DD 6E F1         [19] 4137 	ld	l, -15 (ix)
    000014BF DD 66 F2         [19] 4138 	ld	h, -14 (ix)
    000014C2 71               [ 7] 4139 	ld	(hl), c
    000014C3 23               [ 6] 4140 	inc	hl
    000014C4 70               [ 7] 4141 	ld	(hl), b
                                   4142 ;./exsoccer.c:848: g_Players[playerId].X=g_Players[playerId].X+2;
    000014C5 DD 6E FC         [19] 4143 	ld	l, -4 (ix)
    000014C8 DD 66 FD         [19] 4144 	ld	h, -3 (ix)
    000014CB 4E               [ 7] 4145 	ld	c, (hl)
    000014CC 23               [ 6] 4146 	inc	hl
    000014CD 46               [ 7] 4147 	ld	b, (hl)
    000014CE 03               [ 6] 4148 	inc	bc
    000014CF 03               [ 6] 4149 	inc	bc
    000014D0 DD 6E FC         [19] 4150 	ld	l, -4 (ix)
    000014D3 DD 66 FD         [19] 4151 	ld	h, -3 (ix)
    000014D6 71               [ 7] 4152 	ld	(hl), c
    000014D7 23               [ 6] 4153 	inc	hl
    000014D8 70               [ 7] 4154 	ld	(hl), b
                                   4155 ;./exsoccer.c:849: break;
    000014D9 C3r5Ar15         [10] 4156 	jp	00248$
                                   4157 ;./exsoccer.c:850: case DIRECTION_UP_LEFT:
    000014DC                       4158 00245$:
                                   4159 ;./exsoccer.c:851: g_Players[playerId].Y=g_Players[playerId].Y-2;
    000014DC DD 6E F1         [19] 4160 	ld	l, -15 (ix)
    000014DF DD 66 F2         [19] 4161 	ld	h, -14 (ix)
    000014E2 4E               [ 7] 4162 	ld	c, (hl)
    000014E3 23               [ 6] 4163 	inc	hl
    000014E4 46               [ 7] 4164 	ld	b, (hl)
    000014E5 0B               [ 6] 4165 	dec	bc
    000014E6 0B               [ 6] 4166 	dec	bc
    000014E7 DD 6E F1         [19] 4167 	ld	l, -15 (ix)
    000014EA DD 66 F2         [19] 4168 	ld	h, -14 (ix)
    000014ED 71               [ 7] 4169 	ld	(hl), c
    000014EE 23               [ 6] 4170 	inc	hl
    000014EF 70               [ 7] 4171 	ld	(hl), b
                                   4172 ;./exsoccer.c:852: g_Players[playerId].X=g_Players[playerId].X-2;
    000014F0 DD 6E FC         [19] 4173 	ld	l, -4 (ix)
    000014F3 DD 66 FD         [19] 4174 	ld	h, -3 (ix)
    000014F6 4E               [ 7] 4175 	ld	c, (hl)
    000014F7 23               [ 6] 4176 	inc	hl
    000014F8 46               [ 7] 4177 	ld	b, (hl)
    000014F9 0B               [ 6] 4178 	dec	bc
    000014FA 0B               [ 6] 4179 	dec	bc
    000014FB DD 6E FC         [19] 4180 	ld	l, -4 (ix)
    000014FE DD 66 FD         [19] 4181 	ld	h, -3 (ix)
    00001501 71               [ 7] 4182 	ld	(hl), c
    00001502 23               [ 6] 4183 	inc	hl
    00001503 70               [ 7] 4184 	ld	(hl), b
                                   4185 ;./exsoccer.c:853: break;
    00001504 C3r5Ar15         [10] 4186 	jp	00248$
                                   4187 ;./exsoccer.c:854: case DIRECTION_DOWN_RIGHT:
    00001507                       4188 00246$:
                                   4189 ;./exsoccer.c:855: g_Players[playerId].Y=g_Players[playerId].Y+2;
    00001507 DD 6E F1         [19] 4190 	ld	l, -15 (ix)
    0000150A DD 66 F2         [19] 4191 	ld	h, -14 (ix)
    0000150D 4E               [ 7] 4192 	ld	c, (hl)
    0000150E 23               [ 6] 4193 	inc	hl
    0000150F 46               [ 7] 4194 	ld	b, (hl)
    00001510 03               [ 6] 4195 	inc	bc
    00001511 03               [ 6] 4196 	inc	bc
    00001512 DD 6E F1         [19] 4197 	ld	l, -15 (ix)
    00001515 DD 66 F2         [19] 4198 	ld	h, -14 (ix)
    00001518 71               [ 7] 4199 	ld	(hl), c
    00001519 23               [ 6] 4200 	inc	hl
    0000151A 70               [ 7] 4201 	ld	(hl), b
                                   4202 ;./exsoccer.c:856: g_Players[playerId].X=g_Players[playerId].X+2;
    0000151B DD 6E FC         [19] 4203 	ld	l, -4 (ix)
    0000151E DD 66 FD         [19] 4204 	ld	h, -3 (ix)
    00001521 4E               [ 7] 4205 	ld	c, (hl)
    00001522 23               [ 6] 4206 	inc	hl
    00001523 46               [ 7] 4207 	ld	b, (hl)
    00001524 03               [ 6] 4208 	inc	bc
    00001525 03               [ 6] 4209 	inc	bc
    00001526 DD 6E FC         [19] 4210 	ld	l, -4 (ix)
    00001529 DD 66 FD         [19] 4211 	ld	h, -3 (ix)
    0000152C 71               [ 7] 4212 	ld	(hl), c
    0000152D 23               [ 6] 4213 	inc	hl
    0000152E 70               [ 7] 4214 	ld	(hl), b
                                   4215 ;./exsoccer.c:857: break;
    0000152F C3r5Ar15         [10] 4216 	jp	00248$
                                   4217 ;./exsoccer.c:858: case DIRECTION_DOWN_LEFT:
    00001532                       4218 00247$:
                                   4219 ;./exsoccer.c:859: g_Players[playerId].Y=g_Players[playerId].Y+2;
    00001532 DD 6E F1         [19] 4220 	ld	l, -15 (ix)
    00001535 DD 66 F2         [19] 4221 	ld	h, -14 (ix)
    00001538 4E               [ 7] 4222 	ld	c, (hl)
    00001539 23               [ 6] 4223 	inc	hl
    0000153A 46               [ 7] 4224 	ld	b, (hl)
    0000153B 03               [ 6] 4225 	inc	bc
    0000153C 03               [ 6] 4226 	inc	bc
    0000153D DD 6E F1         [19] 4227 	ld	l, -15 (ix)
    00001540 DD 66 F2         [19] 4228 	ld	h, -14 (ix)
    00001543 71               [ 7] 4229 	ld	(hl), c
    00001544 23               [ 6] 4230 	inc	hl
    00001545 70               [ 7] 4231 	ld	(hl), b
                                   4232 ;./exsoccer.c:860: g_Players[playerId].X=g_Players[playerId].X-2;
    00001546 DD 6E FC         [19] 4233 	ld	l, -4 (ix)
    00001549 DD 66 FD         [19] 4234 	ld	h, -3 (ix)
    0000154C 4E               [ 7] 4235 	ld	c, (hl)
    0000154D 23               [ 6] 4236 	inc	hl
    0000154E 46               [ 7] 4237 	ld	b, (hl)
    0000154F 0B               [ 6] 4238 	dec	bc
    00001550 0B               [ 6] 4239 	dec	bc
    00001551 DD 6E FC         [19] 4240 	ld	l, -4 (ix)
    00001554 DD 66 FD         [19] 4241 	ld	h, -3 (ix)
    00001557 71               [ 7] 4242 	ld	(hl), c
    00001558 23               [ 6] 4243 	inc	hl
    00001559 70               [ 7] 4244 	ld	(hl), b
                                   4245 ;./exsoccer.c:862: }
    0000155A                       4246 00248$:
                                   4247 ;./exsoccer.c:865: if(g_Players[playerId].Y < FIELD_BOUND_Y_TOP) g_Players[playerId].Y = FIELD_BOUND_Y_TOP;
    0000155A DD 6E F1         [19] 4248 	ld	l, -15 (ix)
    0000155D DD 66 F2         [19] 4249 	ld	h, -14 (ix)
    00001560 4E               [ 7] 4250 	ld	c, (hl)
    00001561 23               [ 6] 4251 	inc	hl
    00001562 46               [ 7] 4252 	ld	b, (hl)
    00001563 79               [ 4] 4253 	ld	a, c
    00001564 D6 32            [ 7] 4254 	sub	a, #0x32
    00001566 78               [ 4] 4255 	ld	a, b
    00001567 DE 00            [ 7] 4256 	sbc	a, #0x00
    00001569 30 0B            [12] 4257 	jr	NC, 00250$
    0000156B DD 6E F1         [19] 4258 	ld	l, -15 (ix)
    0000156E DD 66 F2         [19] 4259 	ld	h, -14 (ix)
    00001571 36 32            [10] 4260 	ld	(hl), #0x32
    00001573 23               [ 6] 4261 	inc	hl
    00001574 36 00            [10] 4262 	ld	(hl), #0x00
    00001576                       4263 00250$:
                                   4264 ;./exsoccer.c:866: if(g_Players[playerId].Y > FIELD_BOUND_Y_BOTTOM) g_Players[playerId].Y = FIELD_BOUND_Y_BOTTOM;
    00001576 DD 6E F1         [19] 4265 	ld	l, -15 (ix)
    00001579 DD 66 F2         [19] 4266 	ld	h, -14 (ix)
    0000157C 4E               [ 7] 4267 	ld	c, (hl)
    0000157D 23               [ 6] 4268 	inc	hl
    0000157E 46               [ 7] 4269 	ld	b, (hl)
    0000157F 3E AE            [ 7] 4270 	ld	a, #0xae
    00001581 B9               [ 4] 4271 	cp	a, c
    00001582 3E 01            [ 7] 4272 	ld	a, #0x01
    00001584 98               [ 4] 4273 	sbc	a, b
    00001585 30 0B            [12] 4274 	jr	NC, 00252$
    00001587 DD 6E F1         [19] 4275 	ld	l, -15 (ix)
    0000158A DD 66 F2         [19] 4276 	ld	h, -14 (ix)
    0000158D 36 AE            [10] 4277 	ld	(hl), #0xae
    0000158F 23               [ 6] 4278 	inc	hl
    00001590 36 01            [10] 4279 	ld	(hl), #0x01
    00001592                       4280 00252$:
                                   4281 ;./exsoccer.c:868: g_Players[playerId].TargetY=g_Players[playerId].Y;
    00001592 DD 7E F1         [19] 4282 	ld	a, -15 (ix)
    00001595 C6 0A            [ 7] 4283 	add	a, #0x0a
    00001597 4F               [ 4] 4284 	ld	c, a
    00001598 DD 7E F2         [19] 4285 	ld	a, -14 (ix)
    0000159B CE 00            [ 7] 4286 	adc	a, #0x00
    0000159D 47               [ 4] 4287 	ld	b, a
    0000159E DD 6E F1         [19] 4288 	ld	l, -15 (ix)
    000015A1 DD 66 F2         [19] 4289 	ld	h, -14 (ix)
    000015A4 5E               [ 7] 4290 	ld	e, (hl)
    000015A5 23               [ 6] 4291 	inc	hl
    000015A6 56               [ 7] 4292 	ld	d, (hl)
    000015A7 7B               [ 4] 4293 	ld	a, e
    000015A8 02               [ 7] 4294 	ld	(bc), a
    000015A9 03               [ 6] 4295 	inc	bc
    000015AA 7A               [ 4] 4296 	ld	a, d
    000015AB 02               [ 7] 4297 	ld	(bc), a
                                   4298 ;./exsoccer.c:869: g_Players[playerId].TargetX=g_Players[playerId].X;
    000015AC DD 7E F1         [19] 4299 	ld	a, -15 (ix)
    000015AF C6 0C            [ 7] 4300 	add	a, #0x0c
    000015B1 4F               [ 4] 4301 	ld	c, a
    000015B2 DD 7E F2         [19] 4302 	ld	a, -14 (ix)
    000015B5 CE 00            [ 7] 4303 	adc	a, #0x00
    000015B7 47               [ 4] 4304 	ld	b, a
    000015B8 DD 6E FC         [19] 4305 	ld	l, -4 (ix)
    000015BB DD 66 FD         [19] 4306 	ld	h, -3 (ix)
    000015BE 5E               [ 7] 4307 	ld	e, (hl)
    000015BF 23               [ 6] 4308 	inc	hl
    000015C0 56               [ 7] 4309 	ld	d, (hl)
    000015C1 7B               [ 4] 4310 	ld	a, e
    000015C2 02               [ 7] 4311 	ld	(bc), a
    000015C3 03               [ 6] 4312 	inc	bc
    000015C4 7A               [ 4] 4313 	ld	a, d
    000015C5 02               [ 7] 4314 	ld	(bc), a
                                   4315 ;./exsoccer.c:680: if(g_Players[playerId].PreviousDirection!=DIRECTION_NONE){
    000015C6 DD 7E F1         [19] 4316 	ld	a, -15 (ix)
    000015C9 C6 07            [ 7] 4317 	add	a, #0x07
    000015CB DD 77 FC         [19] 4318 	ld	-4 (ix), a
    000015CE DD 7E F2         [19] 4319 	ld	a, -14 (ix)
    000015D1 CE 00            [ 7] 4320 	adc	a, #0x00
    000015D3 DD 77 FD         [19] 4321 	ld	-3 (ix), a
                                   4322 ;./exsoccer.c:870: if(direction==DIRECTION_NONE){
    000015D6 DD 7E FE         [19] 4323 	ld	a, -2 (ix)
    000015D9 B7               [ 4] 4324 	or	a, a
    000015DA 20 38            [12] 4325 	jr	NZ, 00256$
                                   4326 ;./exsoccer.c:871: g_Players[playerId].Status=PLAYER_STATUS_POSITIONED;
    000015DC DD 6E F3         [19] 4327 	ld	l, -13 (ix)
    000015DF DD 66 F4         [19] 4328 	ld	h, -12 (ix)
    000015E2 36 04            [10] 4329 	ld	(hl), #0x04
    000015E4 23               [ 6] 4330 	inc	hl
    000015E5 36 00            [10] 4331 	ld	(hl), #0x00
                                   4332 ;./exsoccer.c:872: if(g_Players[playerId].PreviousDirection!=DIRECTION_NONE){
    000015E7 DD 6E FC         [19] 4333 	ld	l, -4 (ix)
    000015EA DD 66 FD         [19] 4334 	ld	h, -3 (ix)
    000015ED 7E               [ 7] 4335 	ld	a, (hl)
    000015EE DD 77 F9         [19] 4336 	ld	-7 (ix), a
    000015F1 B7               [ 4] 4337 	or	a, a
    000015F2 28 2A            [12] 4338 	jr	Z, 00257$
                                   4339 ;./exsoccer.c:873: g_Players[playerId].PatternId=GetNoMovingPlayerPatternId(g_Players[playerId].PreviousDirection);
    000015F4 DD 7E F1         [19] 4340 	ld	a, -15 (ix)
    000015F7 C6 04            [ 7] 4341 	add	a, #0x04
    000015F9 DD 77 FA         [19] 4342 	ld	-6 (ix), a
    000015FC DD 7E F2         [19] 4343 	ld	a, -14 (ix)
    000015FF CE 00            [ 7] 4344 	adc	a, #0x00
    00001601 DD 77 FB         [19] 4345 	ld	-5 (ix), a
    00001604 DD 7E F9         [19] 4346 	ld	a, -7 (ix)
    00001607 CDrF9r1D         [17] 4347 	call	_GetNoMovingPlayerPatternId
    0000160A DD 6E FA         [19] 4348 	ld	l, -6 (ix)
    0000160D DD 66 FB         [19] 4349 	ld	h, -5 (ix)
    00001610 77               [ 7] 4350 	ld	(hl), a
    00001611 C3r1Er16         [10] 4351 	jp	00257$
    00001614                       4352 00256$:
                                   4353 ;./exsoccer.c:878: g_Players[playerId].Status=PLAYER_STATUS_NONE;
    00001614 DD 6E F3         [19] 4354 	ld	l, -13 (ix)
    00001617 DD 66 F4         [19] 4355 	ld	h, -12 (ix)
    0000161A AF               [ 4] 4356 	xor	a, a
    0000161B 77               [ 7] 4357 	ld	(hl), a
    0000161C 23               [ 6] 4358 	inc	hl
    0000161D 77               [ 7] 4359 	ld	(hl), a
    0000161E                       4360 00257$:
                                   4361 ;./exsoccer.c:881: g_Players[playerId].Direction=direction;
    0000161E DD 6E F1         [19] 4362 	ld	l, -15 (ix)
    00001621 DD 66 F2         [19] 4363 	ld	h, -14 (ix)
    00001624 11 06 00         [10] 4364 	ld	de, #0x0006
    00001627 19               [11] 4365 	add	hl, de
    00001628 DD 7E FE         [19] 4366 	ld	a, -2 (ix)
    0000162B 77               [ 7] 4367 	ld	(hl), a
                                   4368 ;./exsoccer.c:882: g_Players[playerId].PreviousDirection=g_Players[playerId].Direction;
    0000162C DD 6E FC         [19] 4369 	ld	l, -4 (ix)
    0000162F DD 66 FD         [19] 4370 	ld	h, -3 (ix)
    00001632 DD 7E FE         [19] 4371 	ld	a, -2 (ix)
    00001635 77               [ 7] 4372 	ld	(hl), a
    00001636                       4373 00261$:
                                   4374 ;./exsoccer.c:887: }
    00001636 DD F9            [10] 4375 	ld	sp, ix
    00001638 DD E1            [14] 4376 	pop	ix
    0000163A C9               [10] 4377 	ret
                                   4378 ;./exsoccer.c:888: void TickGoalCelebration(){
                                   4379 ;	---------------------------------
                                   4380 ; Function TickGoalCelebration
                                   4381 ; ---------------------------------
    0000163B                       4382 _TickGoalCelebration::
    0000163B DD E5            [15] 4383 	push	ix
    0000163D DD 21 00 00      [14] 4384 	ld	ix,#0
    00001641 DD 39            [15] 4385 	add	ix,sp
    00001643 21 F2 FF         [10] 4386 	ld	hl, #-14
    00001646 39               [11] 4387 	add	hl, sp
    00001647 F9               [ 6] 4388 	ld	sp, hl
                                   4389 ;./exsoccer.c:889: if(g_MatchStatus!=MATCH_AFTER_IN_GOAL) return;
    00001648 3Ar04r00         [13] 4390 	ld	a, (_g_MatchStatus+0)
    0000164B D6 06            [ 7] 4391 	sub	a, #0x06
    0000164D C2r84r1A         [10] 4392 	jp	NZ,00182$
                                   4393 ;./exsoccer.c:891: g_Timer++;
    00001650 21r06r00         [10] 4394 	ld	hl, #_g_Timer
    00001653 34               [11] 4395 	inc	(hl)
                                   4396 ;./exsoccer.c:893: if((g_Timer % 10) < 5){
    00001654 3Ar06r00         [13] 4397 	ld	a, (_g_Timer+0)
    00001657 6F               [ 4] 4398 	ld	l, a
                                   4399 ;	spillPairReg hl
                                   4400 ;	spillPairReg hl
    00001658 26 00            [ 7] 4401 	ld	h, #0x00
                                   4402 ;	spillPairReg hl
                                   4403 ;	spillPairReg hl
    0000165A 11 0A 00         [10] 4404 	ld	de, #0x000a
    0000165D CDr00r00         [17] 4405 	call	__modsint
    00001660 7B               [ 4] 4406 	ld	a, e
    00001661 D6 05            [ 7] 4407 	sub	a, #0x05
    00001663 7A               [ 4] 4408 	ld	a, d
    00001664 17               [ 4] 4409 	rla
    00001665 3F               [ 4] 4410 	ccf
    00001666 1F               [ 4] 4411 	rra
    00001667 DE 80            [ 7] 4412 	sbc	a, #0x80
    00001669 30 0A            [12] 4413 	jr	NC, 00104$
                                   4414 ;E:/Dropbox/FAUSTO/SVILUPPI/MSX/CODE/C/MSXgl/engine/src/v9990.h:480: inline void V9_SetBackgroundColor(u8 color) { V9_SetRegister(15, color); }
    0000166B 2E 08            [ 7] 4415 	ld	l, #0x08
                                   4416 ;	spillPairReg hl
                                   4417 ;	spillPairReg hl
    0000166D 3E 0F            [ 7] 4418 	ld	a, #0x0f
    0000166F CDr00r00         [17] 4419 	call	_V9_SetRegister
                                   4420 ;./exsoccer.c:894: V9_SetBackgroundColor(8); // Cyan/Flash
    00001672 C3r7Cr16         [10] 4421 	jp	00105$
    00001675                       4422 00104$:
                                   4423 ;E:/Dropbox/FAUSTO/SVILUPPI/MSX/CODE/C/MSXgl/engine/src/v9990.h:480: inline void V9_SetBackgroundColor(u8 color) { V9_SetRegister(15, color); }
    00001675 2E 01            [ 7] 4424 	ld	l, #0x01
                                   4425 ;	spillPairReg hl
                                   4426 ;	spillPairReg hl
    00001677 3E 0F            [ 7] 4427 	ld	a, #0x0f
    00001679 CDr00r00         [17] 4428 	call	_V9_SetRegister
                                   4429 ;./exsoccer.c:896: V9_SetBackgroundColor(1); // Default Blue
    0000167C                       4430 00105$:
                                   4431 ;./exsoccer.c:902: if (g_Timer < 120) {
    0000167C 3Ar06r00         [13] 4432 	ld	a, (_g_Timer+0)
    0000167F D6 78            [ 7] 4433 	sub	a, #0x78
    00001681 D2r69r19         [10] 4434 	jp	NC, 00160$
                                   4435 ;./exsoccer.c:903: u8 scoringTeamId = (g_RestartKickTeamId == TEAM_1) ? TEAM_2 : TEAM_1;
    00001684 3Ar23r01         [13] 4436 	ld	a, (_g_RestartKickTeamId+0)
    00001687 3D               [ 4] 4437 	dec	a
    00001688 20 06            [12] 4438 	jr	NZ, 00184$
    0000168A 01 02 00         [10] 4439 	ld	bc, #0x0002
    0000168D C3r93r16         [10] 4440 	jp	00185$
    00001690                       4441 00184$:
    00001690 01 01 00         [10] 4442 	ld	bc, #0x0001
    00001693                       4443 00185$:
    00001693 DD 71 F2         [19] 4444 	ld	-14 (ix), c
                                   4445 ;./exsoccer.c:906: u16 limitY_Top = FIELD_BOUND_Y_TOP;
    00001696 DD 36 F3 32      [19] 4446 	ld	-13 (ix), #0x32
    0000169A AF               [ 4] 4447 	xor	a, a
    0000169B DD 77 F4         [19] 4448 	ld	-12 (ix), a
                                   4449 ;./exsoccer.c:907: u16 limitY_Bottom = FIELD_BOUND_Y_BOTTOM;
    0000169E DD 36 F5 AE      [19] 4450 	ld	-11 (ix), #0xae
    000016A2 DD 36 F6 01      [19] 4451 	ld	-10 (ix), #0x01
                                   4452 ;./exsoccer.c:909: if (g_Ball.Y < FIELD_CENTRAL_Y) { // Top Goal
    000016A6 21r05r01         [10] 4453 	ld	hl, #_g_Ball
    000016A9 7E               [ 7] 4454 	ld	a, (hl)
    000016AA DD 77 FE         [19] 4455 	ld	-2 (ix), a
    000016AD 23               [ 6] 4456 	inc	hl
    000016AE 7E               [ 7] 4457 	ld	a, (hl)
    000016AF DD 77 FF         [19] 4458 	ld	-1 (ix), a
    000016B2 DD 7E FE         [19] 4459 	ld	a, -2 (ix)
    000016B5 D6 8C            [ 7] 4460 	sub	a, #0x8c
    000016B7 DD 7E FF         [19] 4461 	ld	a, -1 (ix)
    000016BA DE 00            [ 7] 4462 	sbc	a, #0x00
    000016BC 30 0B            [12] 4463 	jr	NC, 00107$
                                   4464 ;./exsoccer.c:910: limitY_Bottom = FIELD_BOUND_Y_TOP + 160; 
    000016BE DD 36 F5 D2      [19] 4465 	ld	-11 (ix), #0xd2
    000016C2 DD 36 F6 00      [19] 4466 	ld	-10 (ix), #0
    000016C6 C3rD1r16         [10] 4467 	jp	00220$
    000016C9                       4468 00107$:
                                   4469 ;./exsoccer.c:912: limitY_Top = FIELD_BOUND_Y_BOTTOM - 160;
    000016C9 DD 36 F3 0E      [19] 4470 	ld	-13 (ix), #0x0e
    000016CD DD 36 F4 01      [19] 4471 	ld	-12 (ix), #0x01
                                   4472 ;./exsoccer.c:915: for(u8 i=0; i<15; i++){
    000016D1                       4473 00220$:
    000016D1 DD 36 FF 00      [19] 4474 	ld	-1 (ix), #0x00
    000016D5                       4475 00178$:
    000016D5 DD 7E FF         [19] 4476 	ld	a, -1 (ix)
    000016D8 D6 0F            [ 7] 4477 	sub	a, #0x0f
    000016DA D2r69r19         [10] 4478 	jp	NC, 00160$
                                   4479 ;./exsoccer.c:916: if(i == REFEREE) continue;
    000016DD DD 7E FF         [19] 4480 	ld	a, -1 (ix)
    000016E0 D6 0E            [ 7] 4481 	sub	a, #0x0e
    000016E2 CAr63r19         [10] 4482 	jp	Z,00157$
                                   4483 ;./exsoccer.c:919: if (g_Players[i].TeamId == scoringTeamId) {
    000016E5 DD 4E FF         [19] 4484 	ld	c, -1 (ix)
    000016E8 06 00            [ 7] 4485 	ld	b, #0x00
    000016EA 69               [ 4] 4486 	ld	l, c
    000016EB 60               [ 4] 4487 	ld	h, b
    000016EC 29               [11] 4488 	add	hl, hl
    000016ED 29               [11] 4489 	add	hl, hl
    000016EE 29               [11] 4490 	add	hl, hl
    000016EF 29               [11] 4491 	add	hl, hl
    000016F0 09               [11] 4492 	add	hl, bc
    000016F1 EB               [ 4] 4493 	ex	de, hl
    000016F2 21r06r00         [10] 4494 	ld	hl, #_g_Players
    000016F5 19               [11] 4495 	add	hl, de
    000016F6 DD 75 F7         [19] 4496 	ld	-9 (ix), l
    000016F9 DD 74 F8         [19] 4497 	ld	-8 (ix), h
    000016FC 01 05 00         [10] 4498 	ld	bc,#5
    000016FF 09               [11] 4499 	add	hl,bc
    00001700 4E               [ 7] 4500 	ld	c, (hl)
                                   4501 ;./exsoccer.c:927: g_Players[i].Direction = (rnd % 8) + 1; 
    00001701 DD 7E F7         [19] 4502 	ld	a, -9 (ix)
    00001704 C6 06            [ 7] 4503 	add	a, #0x06
    00001706 DD 77 FD         [19] 4504 	ld	-3 (ix), a
    00001709 DD 7E F8         [19] 4505 	ld	a, -8 (ix)
    0000170C CE 00            [ 7] 4506 	adc	a, #0x00
    0000170E DD 77 FE         [19] 4507 	ld	-2 (ix), a
                                   4508 ;./exsoccer.c:963: g_Players[i].PatternId = (animFrame1) ? PLAYER_POSE_CELEBRATION_BACK_1 : PLAYER_POSE_CELEBRATION_BACK_2;
    00001711 DD 7E F7         [19] 4509 	ld	a, -9 (ix)
    00001714 C6 04            [ 7] 4510 	add	a, #0x04
    00001716 DD 77 F9         [19] 4511 	ld	-7 (ix), a
    00001719 DD 7E F8         [19] 4512 	ld	a, -8 (ix)
    0000171C CE 00            [ 7] 4513 	adc	a, #0x00
    0000171E DD 77 FA         [19] 4514 	ld	-6 (ix), a
                                   4515 ;./exsoccer.c:919: if (g_Players[i].TeamId == scoringTeamId) {
    00001721 DD 7E F2         [19] 4516 	ld	a, -14 (ix)
    00001724 91               [ 4] 4517 	sub	a, c
    00001725 C2r35r19         [10] 4518 	jp	NZ,00155$
                                   4519 ;./exsoccer.c:923: if ((g_Timer % 19) == 0) {
    00001728 3Ar06r00         [13] 4520 	ld	a, (_g_Timer+0)
    0000172B 6F               [ 4] 4521 	ld	l, a
                                   4522 ;	spillPairReg hl
                                   4523 ;	spillPairReg hl
    0000172C 26 00            [ 7] 4524 	ld	h, #0x00
                                   4525 ;	spillPairReg hl
                                   4526 ;	spillPairReg hl
    0000172E 11 13 00         [10] 4527 	ld	de, #0x0013
    00001731 CDr00r00         [17] 4528 	call	__modsint
    00001734 7A               [ 4] 4529 	ld	a, d
    00001735 B3               [ 4] 4530 	or	a, e
    00001736 20 1D            [12] 4531 	jr	NZ, 00112$
                                   4532 ;./exsoccer.c:926: u8 rnd = (g_Timer * 3) + (i * 37); 
    00001738 3Ar06r00         [13] 4533 	ld	a, (_g_Timer+0)
    0000173B 4F               [ 4] 4534 	ld	c, a
    0000173C 87               [ 4] 4535 	add	a, a
    0000173D 81               [ 4] 4536 	add	a, c
    0000173E 4F               [ 4] 4537 	ld	c, a
    0000173F DD 7E FF         [19] 4538 	ld	a, -1 (ix)
    00001742 5F               [ 4] 4539 	ld	e, a
    00001743 87               [ 4] 4540 	add	a, a
    00001744 87               [ 4] 4541 	add	a, a
    00001745 87               [ 4] 4542 	add	a, a
    00001746 83               [ 4] 4543 	add	a, e
    00001747 87               [ 4] 4544 	add	a, a
    00001748 87               [ 4] 4545 	add	a, a
    00001749 83               [ 4] 4546 	add	a, e
    0000174A 81               [ 4] 4547 	add	a, c
                                   4548 ;./exsoccer.c:927: g_Players[i].Direction = (rnd % 8) + 1; 
    0000174B E6 07            [ 7] 4549 	and	a, #0x07
    0000174D 3C               [ 4] 4550 	inc	a
    0000174E DD 6E FD         [19] 4551 	ld	l, -3 (ix)
    00001751 DD 66 FE         [19] 4552 	ld	h, -2 (ix)
    00001754 77               [ 7] 4553 	ld	(hl), a
    00001755                       4554 00112$:
                                   4555 ;./exsoccer.c:930: u8 dir = g_Players[i].Direction;
    00001755 DD 6E FD         [19] 4556 	ld	l, -3 (ix)
    00001758 DD 66 FE         [19] 4557 	ld	h, -2 (ix)
    0000175B 7E               [ 7] 4558 	ld	a, (hl)
    0000175C DD 77 FB         [19] 4559 	ld	-5 (ix), a
                                   4560 ;./exsoccer.c:933: bool movedNorth = false;
    0000175F DD 36 FC 00      [19] 4561 	ld	-4 (ix), #0x00
                                   4562 ;./exsoccer.c:935: if (dir == DIRECTION_UP || dir == DIRECTION_UP_LEFT || dir == DIRECTION_UP_RIGHT) {
    00001763 DD 7E FB         [19] 4563 	ld	a, -5 (ix)
    00001766 D6 08            [ 7] 4564 	sub	a, #0x08
    00001768 3E 01            [ 7] 4565 	ld	a, #0x01
    0000176A 28 01            [12] 4566 	jr	Z, 00428$
    0000176C AF               [ 4] 4567 	xor	a, a
    0000176D                       4568 00428$:
    0000176D 47               [ 4] 4569 	ld	b, a
    0000176E DD 7E FB         [19] 4570 	ld	a, -5 (ix)
    00001771 D6 02            [ 7] 4571 	sub	a, #0x02
    00001773 3E 01            [ 7] 4572 	ld	a, #0x01
    00001775 28 01            [12] 4573 	jr	Z, 00430$
    00001777 AF               [ 4] 4574 	xor	a, a
    00001778                       4575 00430$:
    00001778 4F               [ 4] 4576 	ld	c, a
    00001779 DD 7E FB         [19] 4577 	ld	a, -5 (ix)
    0000177C 3D               [ 4] 4578 	dec	a
    0000177D 28 07            [12] 4579 	jr	Z, 00131$
    0000177F 78               [ 4] 4580 	ld	a, b
    00001780 B7               [ 4] 4581 	or	a,a
    00001781 20 03            [12] 4582 	jr	NZ, 00131$
    00001783 B1               [ 4] 4583 	or	a,c
    00001784 28 24            [12] 4584 	jr	Z, 00132$
    00001786                       4585 00131$:
                                   4586 ;./exsoccer.c:936: if (g_Players[i].Y > limitY_Top) g_Players[i].Y--;
    00001786 DD 6E F7         [19] 4587 	ld	l, -9 (ix)
    00001789 DD 66 F8         [19] 4588 	ld	h, -8 (ix)
    0000178C 5E               [ 7] 4589 	ld	e, (hl)
    0000178D 23               [ 6] 4590 	inc	hl
    0000178E 56               [ 7] 4591 	ld	d, (hl)
    0000178F DD 7E F3         [19] 4592 	ld	a, -13 (ix)
    00001792 93               [ 4] 4593 	sub	a, e
    00001793 DD 7E F4         [19] 4594 	ld	a, -12 (ix)
    00001796 9A               [ 4] 4595 	sbc	a, d
    00001797 30 0A            [12] 4596 	jr	NC, 00114$
    00001799 1B               [ 6] 4597 	dec	de
    0000179A DD 6E F7         [19] 4598 	ld	l, -9 (ix)
    0000179D DD 66 F8         [19] 4599 	ld	h, -8 (ix)
    000017A0 73               [ 7] 4600 	ld	(hl), e
    000017A1 23               [ 6] 4601 	inc	hl
    000017A2 72               [ 7] 4602 	ld	(hl), d
    000017A3                       4603 00114$:
                                   4604 ;./exsoccer.c:937: movedNorth = true;
    000017A3 DD 36 FC 01      [19] 4605 	ld	-4 (ix), #0x01
    000017A7 C3r34r18         [10] 4606 	jp	00133$
    000017AA                       4607 00132$:
                                   4608 ;./exsoccer.c:939: else if (dir == DIRECTION_DOWN || dir == DIRECTION_DOWN_LEFT || dir == DIRECTION_DOWN_RIGHT) {
    000017AA DD 7E FB         [19] 4609 	ld	a, -5 (ix)
    000017AD D6 05            [ 7] 4610 	sub	a, #0x05
    000017AF 28 0E            [12] 4611 	jr	Z, 00126$
    000017B1 DD 7E FB         [19] 4612 	ld	a, -5 (ix)
    000017B4 D6 06            [ 7] 4613 	sub	a, #0x06
    000017B6 28 07            [12] 4614 	jr	Z, 00126$
    000017B8 DD 7E FB         [19] 4615 	ld	a, -5 (ix)
    000017BB D6 04            [ 7] 4616 	sub	a, #0x04
    000017BD 20 20            [12] 4617 	jr	NZ, 00127$
    000017BF                       4618 00126$:
                                   4619 ;./exsoccer.c:940: if (g_Players[i].Y < limitY_Bottom) g_Players[i].Y++;
    000017BF DD 6E F7         [19] 4620 	ld	l, -9 (ix)
    000017C2 DD 66 F8         [19] 4621 	ld	h, -8 (ix)
    000017C5 5E               [ 7] 4622 	ld	e, (hl)
    000017C6 23               [ 6] 4623 	inc	hl
    000017C7 56               [ 7] 4624 	ld	d, (hl)
    000017C8 7B               [ 4] 4625 	ld	a, e
    000017C9 DD 96 F5         [19] 4626 	sub	a, -11 (ix)
    000017CC 7A               [ 4] 4627 	ld	a, d
    000017CD DD 9E F6         [19] 4628 	sbc	a, -10 (ix)
    000017D0 30 62            [12] 4629 	jr	NC, 00133$
    000017D2 13               [ 6] 4630 	inc	de
    000017D3 DD 6E F7         [19] 4631 	ld	l, -9 (ix)
    000017D6 DD 66 F8         [19] 4632 	ld	h, -8 (ix)
    000017D9 73               [ 7] 4633 	ld	(hl), e
    000017DA 23               [ 6] 4634 	inc	hl
    000017DB 72               [ 7] 4635 	ld	(hl), d
    000017DC C3r34r18         [10] 4636 	jp	00133$
    000017DF                       4637 00127$:
                                   4638 ;./exsoccer.c:942: else if (dir == DIRECTION_LEFT) {
    000017DF DD 7E FB         [19] 4639 	ld	a, -5 (ix)
    000017E2 D6 07            [ 7] 4640 	sub	a, #0x07
    000017E4 20 25            [12] 4641 	jr	NZ, 00124$
                                   4642 ;./exsoccer.c:943: if (g_Players[i].X > FIELD_BOUND_X_LEFT) g_Players[i].X--;
    000017E6 DD 6E F7         [19] 4643 	ld	l, -9 (ix)
                                   4644 ;	spillPairReg hl
                                   4645 ;	spillPairReg hl
    000017E9 DD 66 F8         [19] 4646 	ld	h, -8 (ix)
                                   4647 ;	spillPairReg hl
                                   4648 ;	spillPairReg hl
    000017EC 23               [ 6] 4649 	inc	hl
    000017ED 23               [ 6] 4650 	inc	hl
    000017EE 5E               [ 7] 4651 	ld	e, (hl)
    000017EF 23               [ 6] 4652 	inc	hl
    000017F0 56               [ 7] 4653 	ld	d, (hl)
    000017F1 2B               [ 6] 4654 	dec	hl
    000017F2 DD 73 FD         [19] 4655 	ld	-3 (ix), e
    000017F5 DD 72 FE         [19] 4656 	ld	-2 (ix), d
    000017F8 3E 0A            [ 7] 4657 	ld	a, #0x0a
    000017FA DD BE FD         [19] 4658 	cp	a, -3 (ix)
    000017FD 3E 00            [ 7] 4659 	ld	a, #0x00
    000017FF DD 9E FE         [19] 4660 	sbc	a, -2 (ix)
    00001802 30 30            [12] 4661 	jr	NC, 00133$
    00001804 1B               [ 6] 4662 	dec	de
    00001805 73               [ 7] 4663 	ld	(hl), e
    00001806 23               [ 6] 4664 	inc	hl
    00001807 72               [ 7] 4665 	ld	(hl), d
    00001808 C3r34r18         [10] 4666 	jp	00133$
    0000180B                       4667 00124$:
                                   4668 ;./exsoccer.c:945: else if (dir == DIRECTION_RIGHT) {
    0000180B DD 7E FB         [19] 4669 	ld	a, -5 (ix)
    0000180E D6 03            [ 7] 4670 	sub	a, #0x03
    00001810 20 22            [12] 4671 	jr	NZ, 00133$
                                   4672 ;./exsoccer.c:946: if (g_Players[i].X < FIELD_BOUND_X_RIGHT) g_Players[i].X++;
    00001812 DD 6E F7         [19] 4673 	ld	l, -9 (ix)
                                   4674 ;	spillPairReg hl
                                   4675 ;	spillPairReg hl
    00001815 DD 66 F8         [19] 4676 	ld	h, -8 (ix)
                                   4677 ;	spillPairReg hl
                                   4678 ;	spillPairReg hl
    00001818 23               [ 6] 4679 	inc	hl
    00001819 23               [ 6] 4680 	inc	hl
    0000181A 5E               [ 7] 4681 	ld	e, (hl)
    0000181B 23               [ 6] 4682 	inc	hl
    0000181C 56               [ 7] 4683 	ld	d, (hl)
    0000181D 2B               [ 6] 4684 	dec	hl
    0000181E DD 73 FD         [19] 4685 	ld	-3 (ix), e
    00001821 DD 72 FE         [19] 4686 	ld	-2 (ix), d
    00001824 DD 7E FD         [19] 4687 	ld	a, -3 (ix)
    00001827 D6 F6            [ 7] 4688 	sub	a, #0xf6
    00001829 DD 7E FE         [19] 4689 	ld	a, -2 (ix)
    0000182C DE 00            [ 7] 4690 	sbc	a, #0x00
    0000182E 30 04            [12] 4691 	jr	NC, 00133$
    00001830 13               [ 6] 4692 	inc	de
    00001831 73               [ 7] 4693 	ld	(hl), e
    00001832 23               [ 6] 4694 	inc	hl
    00001833 72               [ 7] 4695 	ld	(hl), d
    00001834                       4696 00133$:
                                   4697 ;./exsoccer.c:950: if (dir == DIRECTION_UP_LEFT || dir == DIRECTION_DOWN_LEFT) {
    00001834 78               [ 4] 4698 	ld	a, b
    00001835 B7               [ 4] 4699 	or	a, a
    00001836 20 07            [12] 4700 	jr	NZ, 00138$
    00001838 DD 7E FB         [19] 4701 	ld	a, -5 (ix)
    0000183B D6 06            [ 7] 4702 	sub	a, #0x06
    0000183D 20 22            [12] 4703 	jr	NZ, 00139$
    0000183F                       4704 00138$:
                                   4705 ;./exsoccer.c:951: if (g_Players[i].X > FIELD_BOUND_X_LEFT) g_Players[i].X--;
    0000183F DD 6E F7         [19] 4706 	ld	l, -9 (ix)
                                   4707 ;	spillPairReg hl
                                   4708 ;	spillPairReg hl
    00001842 DD 66 F8         [19] 4709 	ld	h, -8 (ix)
                                   4710 ;	spillPairReg hl
                                   4711 ;	spillPairReg hl
    00001845 23               [ 6] 4712 	inc	hl
    00001846 23               [ 6] 4713 	inc	hl
    00001847 5E               [ 7] 4714 	ld	e, (hl)
    00001848 23               [ 6] 4715 	inc	hl
    00001849 56               [ 7] 4716 	ld	d, (hl)
    0000184A 2B               [ 6] 4717 	dec	hl
    0000184B DD 73 FD         [19] 4718 	ld	-3 (ix), e
    0000184E DD 72 FE         [19] 4719 	ld	-2 (ix), d
    00001851 3E 0A            [ 7] 4720 	ld	a, #0x0a
    00001853 DD BE FD         [19] 4721 	cp	a, -3 (ix)
    00001856 3E 00            [ 7] 4722 	ld	a, #0x00
    00001858 DD 9E FE         [19] 4723 	sbc	a, -2 (ix)
    0000185B 30 04            [12] 4724 	jr	NC, 00139$
    0000185D 1B               [ 6] 4725 	dec	de
    0000185E 73               [ 7] 4726 	ld	(hl), e
    0000185F 23               [ 6] 4727 	inc	hl
    00001860 72               [ 7] 4728 	ld	(hl), d
    00001861                       4729 00139$:
                                   4730 ;./exsoccer.c:953: if (dir == DIRECTION_UP_RIGHT || dir == DIRECTION_DOWN_RIGHT) {
    00001861 79               [ 4] 4731 	ld	a, c
    00001862 B7               [ 4] 4732 	or	a, a
    00001863 20 07            [12] 4733 	jr	NZ, 00143$
    00001865 DD 7E FB         [19] 4734 	ld	a, -5 (ix)
    00001868 D6 04            [ 7] 4735 	sub	a, #0x04
    0000186A 20 1A            [12] 4736 	jr	NZ, 00144$
    0000186C                       4737 00143$:
                                   4738 ;./exsoccer.c:954: if (g_Players[i].X < FIELD_BOUND_X_RIGHT) g_Players[i].X++;
    0000186C DD 6E F7         [19] 4739 	ld	l, -9 (ix)
                                   4740 ;	spillPairReg hl
                                   4741 ;	spillPairReg hl
    0000186F DD 66 F8         [19] 4742 	ld	h, -8 (ix)
                                   4743 ;	spillPairReg hl
                                   4744 ;	spillPairReg hl
    00001872 23               [ 6] 4745 	inc	hl
    00001873 23               [ 6] 4746 	inc	hl
    00001874 4E               [ 7] 4747 	ld	c, (hl)
    00001875 23               [ 6] 4748 	inc	hl
    00001876 46               [ 7] 4749 	ld	b, (hl)
    00001877 2B               [ 6] 4750 	dec	hl
    00001878 59               [ 4] 4751 	ld	e, c
    00001879 50               [ 4] 4752 	ld	d, b
    0000187A 7B               [ 4] 4753 	ld	a, e
    0000187B D6 F6            [ 7] 4754 	sub	a, #0xf6
    0000187D 7A               [ 4] 4755 	ld	a, d
    0000187E DE 00            [ 7] 4756 	sbc	a, #0x00
    00001880 30 04            [12] 4757 	jr	NC, 00144$
    00001882 03               [ 6] 4758 	inc	bc
    00001883 71               [ 7] 4759 	ld	(hl), c
    00001884 23               [ 6] 4760 	inc	hl
    00001885 70               [ 7] 4761 	ld	(hl), b
    00001886                       4762 00144$:
                                   4763 ;./exsoccer.c:959: bool animFrame1 = ((g_Timer / 8) % 2) == 0;
    00001886 3Ar06r00         [13] 4764 	ld	a, (_g_Timer+0)
    00001889 5F               [ 4] 4765 	ld	e, a
    0000188A 16 00            [ 7] 4766 	ld	d, #0x00
    0000188C 4B               [ 4] 4767 	ld	c, e
    0000188D 42               [ 4] 4768 	ld	b, d
    0000188E CB 7A            [ 8] 4769 	bit	7, d
    00001890 28 06            [12] 4770 	jr	Z, 00186$
    00001892 21 07 00         [10] 4771 	ld	hl, #0x0007
    00001895 19               [11] 4772 	add	hl, de
    00001896 4D               [ 4] 4773 	ld	c, l
    00001897 44               [ 4] 4774 	ld	b, h
    00001898                       4775 00186$:
    00001898 DD 71 FD         [19] 4776 	ld	-3 (ix), c
    0000189B DD 70 FE         [19] 4777 	ld	-2 (ix), b
    0000189E DD CB FE 2E      [23] 4778 	sra	-2 (ix)
    000018A2 DD CB FD 1E      [23] 4779 	rr	-3 (ix)
    000018A6 DD CB FE 2E      [23] 4780 	sra	-2 (ix)
    000018AA DD CB FD 1E      [23] 4781 	rr	-3 (ix)
    000018AE DD CB FE 2E      [23] 4782 	sra	-2 (ix)
    000018B2 DD CB FD 1E      [23] 4783 	rr	-3 (ix)
    000018B6 11 02 00         [10] 4784 	ld	de, #0x0002
    000018B9 DD 6E FD         [19] 4785 	ld	l, -3 (ix)
                                   4786 ;	spillPairReg hl
                                   4787 ;	spillPairReg hl
    000018BC DD 66 FE         [19] 4788 	ld	h, -2 (ix)
                                   4789 ;	spillPairReg hl
                                   4790 ;	spillPairReg hl
    000018BF CDr00r00         [17] 4791 	call	__modsint
    000018C2 DD 73 FD         [19] 4792 	ld	-3 (ix), e
    000018C5 DD 72 FE         [19] 4793 	ld	-2 (ix), d
    000018C8 DD 7E FD         [19] 4794 	ld	a, -3 (ix)
    000018CB B7               [ 4] 4795 	or	a, a
    000018CC DD B6 FE         [19] 4796 	or	a, -2 (ix)
    000018CF 3E 01            [ 7] 4797 	ld	a, #0x01
    000018D1 28 01            [12] 4798 	jr	Z, 00445$
    000018D3 AF               [ 4] 4799 	xor	a, a
    000018D4                       4800 00445$:
    000018D4 DD 77 FE         [19] 4801 	ld	-2 (ix), a
                                   4802 ;./exsoccer.c:961: if (movedNorth) {
    000018D7 DD 7E FC         [19] 4803 	ld	a, -4 (ix)
    000018DA B7               [ 4] 4804 	or	a, a
    000018DB 28 2C            [12] 4805 	jr	Z, 00147$
                                   4806 ;./exsoccer.c:963: g_Players[i].PatternId = (animFrame1) ? PLAYER_POSE_CELEBRATION_BACK_1 : PLAYER_POSE_CELEBRATION_BACK_2;
    000018DD DD 7E FE         [19] 4807 	ld	a, -2 (ix)
    000018E0 B7               [ 4] 4808 	or	a, a
    000018E1 28 0B            [12] 4809 	jr	Z, 00187$
    000018E3 DD 36 FD 32      [19] 4810 	ld	-3 (ix), #0x32
    000018E7 DD 36 FE 00      [19] 4811 	ld	-2 (ix), #0
    000018EB C3rF6r18         [10] 4812 	jp	00188$
    000018EE                       4813 00187$:
    000018EE DD 36 FD 33      [19] 4814 	ld	-3 (ix), #0x33
    000018F2 DD 36 FE 00      [19] 4815 	ld	-2 (ix), #0
    000018F6                       4816 00188$:
    000018F6 DD 7E FD         [19] 4817 	ld	a, -3 (ix)
    000018F9 DD 77 FE         [19] 4818 	ld	-2 (ix), a
    000018FC DD 6E F9         [19] 4819 	ld	l, -7 (ix)
    000018FF DD 66 FA         [19] 4820 	ld	h, -6 (ix)
    00001902 DD 7E FE         [19] 4821 	ld	a, -2 (ix)
    00001905 77               [ 7] 4822 	ld	(hl), a
    00001906 C3r63r19         [10] 4823 	jp	00157$
    00001909                       4824 00147$:
                                   4825 ;./exsoccer.c:966: g_Players[i].PatternId = (animFrame1) ? PLAYER_POSE_CELEBRATION_FRONT_1 : PLAYER_POSE_CELEBRATION_FRONT_2;
    00001909 DD 7E FE         [19] 4826 	ld	a, -2 (ix)
    0000190C B7               [ 4] 4827 	or	a, a
    0000190D 28 0B            [12] 4828 	jr	Z, 00189$
    0000190F DD 36 FD 30      [19] 4829 	ld	-3 (ix), #0x30
    00001913 DD 36 FE 00      [19] 4830 	ld	-2 (ix), #0
    00001917 C3r22r19         [10] 4831 	jp	00190$
    0000191A                       4832 00189$:
    0000191A DD 36 FD 31      [19] 4833 	ld	-3 (ix), #0x31
    0000191E DD 36 FE 00      [19] 4834 	ld	-2 (ix), #0
    00001922                       4835 00190$:
    00001922 DD 7E FD         [19] 4836 	ld	a, -3 (ix)
    00001925 DD 77 FE         [19] 4837 	ld	-2 (ix), a
    00001928 DD 6E F9         [19] 4838 	ld	l, -7 (ix)
    0000192B DD 66 FA         [19] 4839 	ld	h, -6 (ix)
    0000192E DD 7E FE         [19] 4840 	ld	a, -2 (ix)
    00001931 77               [ 7] 4841 	ld	(hl), a
    00001932 C3r63r19         [10] 4842 	jp	00157$
    00001935                       4843 00155$:
                                   4844 ;./exsoccer.c:973: if (g_Players[i].Direction == DIRECTION_UP || 
    00001935 DD 6E FD         [19] 4845 	ld	l, -3 (ix)
    00001938 DD 66 FE         [19] 4846 	ld	h, -2 (ix)
    0000193B 7E               [ 7] 4847 	ld	a, (hl)
    0000193C DD 77 FE         [19] 4848 	ld	-2 (ix), a
    0000193F 3D               [ 4] 4849 	dec	a
    00001940 28 0E            [12] 4850 	jr	Z, 00149$
                                   4851 ;./exsoccer.c:974: g_Players[i].Direction == DIRECTION_UP_LEFT || 
    00001942 DD 7E FE         [19] 4852 	ld	a, -2 (ix)
    00001945 D6 08            [ 7] 4853 	sub	a, #0x08
    00001947 28 07            [12] 4854 	jr	Z, 00149$
                                   4855 ;./exsoccer.c:975: g_Players[i].Direction == DIRECTION_UP_RIGHT) {
    00001949 DD 7E FE         [19] 4856 	ld	a, -2 (ix)
    0000194C D6 02            [ 7] 4857 	sub	a, #0x02
    0000194E 20 0B            [12] 4858 	jr	NZ, 00150$
    00001950                       4859 00149$:
                                   4860 ;./exsoccer.c:976: g_Players[i].PatternId = PLAYER_POSE_BACK;
    00001950 DD 6E F9         [19] 4861 	ld	l, -7 (ix)
    00001953 DD 66 FA         [19] 4862 	ld	h, -6 (ix)
    00001956 36 11            [10] 4863 	ld	(hl), #0x11
    00001958 C3r63r19         [10] 4864 	jp	00157$
    0000195B                       4865 00150$:
                                   4866 ;./exsoccer.c:978: g_Players[i].PatternId = PLAYER_POSE_FRONT;
    0000195B DD 6E F9         [19] 4867 	ld	l, -7 (ix)
    0000195E DD 66 FA         [19] 4868 	ld	h, -6 (ix)
    00001961 36 10            [10] 4869 	ld	(hl), #0x10
    00001963                       4870 00157$:
                                   4871 ;./exsoccer.c:915: for(u8 i=0; i<15; i++){
    00001963 DD 34 FF         [23] 4872 	inc	-1 (ix)
    00001966 C3rD5r16         [10] 4873 	jp	00178$
    00001969                       4874 00160$:
                                   4875 ;./exsoccer.c:984: if(g_Timer > 150){
    00001969 3E 96            [ 7] 4876 	ld	a, #0x96
    0000196B 21r06r00         [10] 4877 	ld	hl, #_g_Timer
    0000196E 96               [ 7] 4878 	sub	a, (hl)
    0000196F D2r84r1A         [10] 4879 	jp	NC, 00182$
                                   4880 ;E:/Dropbox/FAUSTO/SVILUPPI/MSX/CODE/C/MSXgl/engine/src/v9990.h:480: inline void V9_SetBackgroundColor(u8 color) { V9_SetRegister(15, color); }
    00001972 2E 01            [ 7] 4881 	ld	l, #0x01
                                   4882 ;	spillPairReg hl
                                   4883 ;	spillPairReg hl
    00001974 3E 0F            [ 7] 4884 	ld	a, #0x0f
    00001976 CDr00r00         [17] 4885 	call	_V9_SetRegister
                                   4886 ;./exsoccer.c:986: ClearTextFromLayerA(12, 18, 8); // "IN  GOAL"
    00001979 3E 08            [ 7] 4887 	ld	a, #0x08
    0000197B F5               [11] 4888 	push	af
    0000197C 33               [ 6] 4889 	inc	sp
    0000197D 2E 12            [ 7] 4890 	ld	l, #0x12
                                   4891 ;	spillPairReg hl
                                   4892 ;	spillPairReg hl
    0000197F 3E 0C            [ 7] 4893 	ld	a, #0x0c
    00001981 CDr00r00         [17] 4894 	call	_ClearTextFromLayerA
                                   4895 ;./exsoccer.c:988: g_MatchStatus = MATCH_BEFORE_KICK_OFF;
    00001984 21r04r00         [10] 4896 	ld	hl, #_g_MatchStatus
    00001987 36 01            [10] 4897 	ld	(hl), #0x01
                                   4898 ;./exsoccer.c:989: g_Ball.PossessionPlayerId = NO_VALUE;
    00001989 21r0Br01         [10] 4899 	ld	hl, #(_g_Ball + 6)
    0000198C 36 FF            [10] 4900 	ld	(hl), #0xff
                                   4901 ;./exsoccer.c:990: g_Ball.KickMoveState = 0;
    0000198E 21r12r01         [10] 4902 	ld	hl, #(_g_Ball + 13)
    00001991 36 00            [10] 4903 	ld	(hl), #0x00
                                   4904 ;./exsoccer.c:991: g_Ball.ShotActive = 0;
    00001993 21r20r01         [10] 4905 	ld	hl, #(_g_Ball + 27)
    00001996 36 00            [10] 4906 	ld	(hl), #0x00
                                   4907 ;./exsoccer.c:992: if(g_Team1ActivePlayer!=NO_VALUE) g_Players[g_Team1ActivePlayer].Status=PLAYER_STATUS_NONE;
    00001998 3Ar07r00         [13] 4908 	ld	a, (_g_Team1ActivePlayer+0)
    0000199B 3C               [ 4] 4909 	inc	a
    0000199C 28 19            [12] 4910 	jr	Z, 00162$
    0000199E 01r06r00         [10] 4911 	ld	bc, #_g_Players+0
    000019A1 ED 5Br07r00      [20] 4912 	ld	de, (_g_Team1ActivePlayer)
    000019A5 16 00            [ 7] 4913 	ld	d, #0x00
    000019A7 6B               [ 4] 4914 	ld	l, e
    000019A8 62               [ 4] 4915 	ld	h, d
    000019A9 29               [11] 4916 	add	hl, hl
    000019AA 29               [11] 4917 	add	hl, hl
    000019AB 29               [11] 4918 	add	hl, hl
    000019AC 29               [11] 4919 	add	hl, hl
    000019AD 19               [11] 4920 	add	hl, de
    000019AE 09               [11] 4921 	add	hl, bc
    000019AF 01 0E 00         [10] 4922 	ld	bc, #0x000e
    000019B2 09               [11] 4923 	add	hl, bc
    000019B3 AF               [ 4] 4924 	xor	a, a
    000019B4 77               [ 7] 4925 	ld	(hl), a
    000019B5 23               [ 6] 4926 	inc	hl
    000019B6 77               [ 7] 4927 	ld	(hl), a
    000019B7                       4928 00162$:
                                   4929 ;./exsoccer.c:993: if(g_Team2ActivePlayer!=NO_VALUE) g_Players[g_Team2ActivePlayer].Status=PLAYER_STATUS_NONE;
    000019B7 3Ar08r00         [13] 4930 	ld	a, (_g_Team2ActivePlayer+0)
    000019BA 3C               [ 4] 4931 	inc	a
    000019BB 28 19            [12] 4932 	jr	Z, 00164$
    000019BD 01r06r00         [10] 4933 	ld	bc, #_g_Players+0
    000019C0 ED 5Br08r00      [20] 4934 	ld	de, (_g_Team2ActivePlayer)
    000019C4 16 00            [ 7] 4935 	ld	d, #0x00
    000019C6 6B               [ 4] 4936 	ld	l, e
    000019C7 62               [ 4] 4937 	ld	h, d
    000019C8 29               [11] 4938 	add	hl, hl
    000019C9 29               [11] 4939 	add	hl, hl
    000019CA 29               [11] 4940 	add	hl, hl
    000019CB 29               [11] 4941 	add	hl, hl
    000019CC 19               [11] 4942 	add	hl, de
    000019CD 09               [11] 4943 	add	hl, bc
    000019CE 01 0E 00         [10] 4944 	ld	bc, #0x000e
    000019D1 09               [11] 4945 	add	hl, bc
    000019D2 AF               [ 4] 4946 	xor	a, a
    000019D3 77               [ 7] 4947 	ld	(hl), a
    000019D4 23               [ 6] 4948 	inc	hl
    000019D5 77               [ 7] 4949 	ld	(hl), a
    000019D6                       4950 00164$:
                                   4951 ;./exsoccer.c:994: g_Team1ActivePlayer=NO_VALUE;
    000019D6 21r07r00         [10] 4952 	ld	hl, #_g_Team1ActivePlayer
    000019D9 36 FF            [10] 4953 	ld	(hl), #0xff
                                   4954 ;./exsoccer.c:995: g_Team2ActivePlayer=NO_VALUE;
    000019DB 21r08r00         [10] 4955 	ld	hl, #_g_Team2ActivePlayer
    000019DE 36 FF            [10] 4956 	ld	(hl), #0xff
                                   4957 ;./exsoccer.c:997: g_Ball.X = FIELD_POS_X_CENTER;
    000019E0 21 78 00         [10] 4958 	ld	hl, #0x0078
    000019E3 22r07r01         [16] 4959 	ld	((_g_Ball + 2)), hl
                                   4960 ;./exsoccer.c:998: g_Ball.Y = FIELD_POS_Y_CENTER;
    000019E6 2E F3            [ 7] 4961 	ld	l, #0xf3
    000019E8 22r05r01         [16] 4962 	ld	(_g_Ball), hl
                                   4963 ;./exsoccer.c:999: g_Ball.PreviousY = g_Ball.Y;
    000019EB ED 4Br05r01      [20] 4964 	ld	bc, (#_g_Ball + 0)
    000019EF ED 43r0Cr01      [20] 4965 	ld	((_g_Ball + 7)), bc
                                   4966 ;./exsoccer.c:1000: PutBallSprite();
    000019F3 CDr00r00         [17] 4967 	call	_PutBallSprite
                                   4968 ;./exsoccer.c:1002: for(u8 i=0; i<15; i++){
    000019F6 11r06r00         [10] 4969 	ld	de, #_g_Players
    000019F9 DD 36 FF 00      [19] 4970 	ld	-1 (ix), #0x00
    000019FD                       4971 00180$:
    000019FD DD 7E FF         [19] 4972 	ld	a, -1 (ix)
    00001A00 D6 0F            [ 7] 4973 	sub	a, #0x0f
    00001A02 30 7B            [12] 4974 	jr	NC, 00171$
                                   4975 ;./exsoccer.c:1003: if(i==REFEREE || g_Players[i].TeamId==TEAM_1 || g_Players[i].TeamId==TEAM_2){
    00001A04 DD 7E FF         [19] 4976 	ld	a, -1 (ix)
    00001A07 D6 0E            [ 7] 4977 	sub	a, #0x0e
    00001A09 3E 01            [ 7] 4978 	ld	a, #0x01
    00001A0B 28 01            [12] 4979 	jr	Z, 00453$
    00001A0D AF               [ 4] 4980 	xor	a, a
    00001A0E                       4981 00453$:
    00001A0E 4F               [ 4] 4982 	ld	c, a
    00001A0F B7               [ 4] 4983 	or	a, a
    00001A10 20 23            [12] 4984 	jr	NZ, 00167$
    00001A12 D5               [11] 4985 	push	de
    00001A13 DD 5E FF         [19] 4986 	ld	e, -1 (ix)
    00001A16 16 00            [ 7] 4987 	ld	d, #0x00
    00001A18 6B               [ 4] 4988 	ld	l, e
    00001A19 62               [ 4] 4989 	ld	h, d
    00001A1A 29               [11] 4990 	add	hl, hl
    00001A1B 29               [11] 4991 	add	hl, hl
    00001A1C 29               [11] 4992 	add	hl, hl
    00001A1D 29               [11] 4993 	add	hl, hl
    00001A1E 19               [11] 4994 	add	hl, de
    00001A1F D1               [10] 4995 	pop	de
    00001A20 FD 21r06r00      [14] 4996 	ld	iy, #_g_Players
    00001A24 C5               [11] 4997 	push	bc
    00001A25 4D               [ 4] 4998 	ld	c, l
    00001A26 44               [ 4] 4999 	ld	b, h
    00001A27 FD 09            [15] 5000 	add	iy, bc
    00001A29 C1               [10] 5001 	pop	bc
    00001A2A FD 7E 05         [19] 5002 	ld	a, 5 (iy)
    00001A2D FE 01            [ 7] 5003 	cp	a, #0x01
    00001A2F 28 04            [12] 5004 	jr	Z, 00167$
    00001A31 D6 02            [ 7] 5005 	sub	a, #0x02
    00001A33 20 44            [12] 5006 	jr	NZ, 00181$
    00001A35                       5007 00167$:
                                   5008 ;./exsoccer.c:1005: if (i==REFEREE) {
    00001A35 79               [ 4] 5009 	ld	a, c
    00001A36 B7               [ 4] 5010 	or	a, a
    00001A37 28 38            [12] 5011 	jr	Z, 00166$
                                   5012 ;./exsoccer.c:1006: g_Players[i].Direction=DIRECTION_RIGHT;
    00001A39 DD 4E FF         [19] 5013 	ld	c, -1 (ix)
    00001A3C 06 00            [ 7] 5014 	ld	b, #0x00
    00001A3E 69               [ 4] 5015 	ld	l, c
    00001A3F 60               [ 4] 5016 	ld	h, b
    00001A40 29               [11] 5017 	add	hl, hl
    00001A41 29               [11] 5018 	add	hl, hl
    00001A42 29               [11] 5019 	add	hl, hl
    00001A43 29               [11] 5020 	add	hl, hl
    00001A44 09               [11] 5021 	add	hl, bc
    00001A45 DD 75 FB         [19] 5022 	ld	-5 (ix), l
    00001A48 DD 74 FC         [19] 5023 	ld	-4 (ix), h
    00001A4B 7B               [ 4] 5024 	ld	a, e
    00001A4C DD 86 FB         [19] 5025 	add	a, -5 (ix)
    00001A4F DD 77 FD         [19] 5026 	ld	-3 (ix), a
    00001A52 7A               [ 4] 5027 	ld	a, d
    00001A53 DD 8E FC         [19] 5028 	adc	a, -4 (ix)
    00001A56 DD 77 FE         [19] 5029 	ld	-2 (ix), a
    00001A59 DD 6E FD         [19] 5030 	ld	l, -3 (ix)
    00001A5C DD 66 FE         [19] 5031 	ld	h, -2 (ix)
    00001A5F 01 06 00         [10] 5032 	ld	bc, #0x0006
    00001A62 09               [11] 5033 	add	hl, bc
    00001A63 36 03            [10] 5034 	ld	(hl), #0x03
                                   5035 ;./exsoccer.c:1007: g_Players[i].LastPose=0;
    00001A65 DD 6E FD         [19] 5036 	ld	l, -3 (ix)
    00001A68 DD 66 FE         [19] 5037 	ld	h, -2 (ix)
    00001A6B 01 08 00         [10] 5038 	ld	bc, #0x0008
    00001A6E 09               [11] 5039 	add	hl, bc
    00001A6F 36 00            [10] 5040 	ld	(hl), #0x00
    00001A71                       5041 00166$:
                                   5042 ;./exsoccer.c:1009: SetPlayerTarget(i); 
    00001A71 D5               [11] 5043 	push	de
    00001A72 DD 7E FF         [19] 5044 	ld	a, -1 (ix)
    00001A75 CDr59r1F         [17] 5045 	call	_SetPlayerTarget
    00001A78 D1               [10] 5046 	pop	de
    00001A79                       5047 00181$:
                                   5048 ;./exsoccer.c:1002: for(u8 i=0; i<15; i++){
    00001A79 DD 34 FF         [23] 5049 	inc	-1 (ix)
    00001A7C C3rFDr19         [10] 5050 	jp	00180$
    00001A7F                       5051 00171$:
                                   5052 ;./exsoccer.c:1014: ShowFieldZone(FIELD_CENTRAL_ZONE);
    00001A7F 3E 01            [ 7] 5053 	ld	a, #0x01
    00001A81 CDr00r00         [17] 5054 	call	_ShowFieldZone
    00001A84                       5055 00182$:
                                   5056 ;./exsoccer.c:1016: }
    00001A84 DD F9            [10] 5057 	ld	sp, ix
    00001A86 DD E1            [14] 5058 	pop	ix
    00001A88 C9               [10] 5059 	ret
                                   5060 ;./exsoccer.c:1019: void main()
                                   5061 ;	---------------------------------
                                   5062 ; Function main
                                   5063 ; ---------------------------------
    00001A89                       5064 _main::
    00001A89 DD E5            [15] 5065 	push	ix
    00001A8B DD 21 00 00      [14] 5066 	ld	ix,#0
    00001A8F DD 39            [15] 5067 	add	ix,sp
    00001A91 3B               [ 6] 5068 	dec	sp
                                   5069 ;./exsoccer.c:1021: DEBUG_INIT();
    00001A92 CDr00r00         [17] 5070 	call	_DEBUG_INIT
                                   5071 ;E:/Dropbox/FAUSTO/SVILUPPI/MSX/CODE/C/MSXgl/engine/src/rom_mapper.h:112: g_Bank0Segment[b] = s;
    00001A95 21 01 00         [10] 5072 	ld	hl, #0x0001
    00001A98 22r04r00         [16] 5073 	ld	((_g_Bank0Segment + 4)), hl
                                   5074 ;E:/Dropbox/FAUSTO/SVILUPPI/MSX/CODE/C/MSXgl/engine/src/system.h:109: inline void Poke16(u16 addr, u16 val) { *(u16*)addr = val; }
    00001A9B 22 00 70         [16] 5075 	ld	(0x7000), hl
                                   5076 ;./exsoccer.c:1023: InitVariables();
    00001A9E CDr03r00         [17] 5077 	call	_InitVariables
                                   5078 ;./exsoccer.c:1024: V9_SetPort(V9_P15, 0);
    00001AA1 2E 00            [ 7] 5079 	ld	l, #0x00
                                   5080 ;	spillPairReg hl
                                   5081 ;	spillPairReg hl
    00001AA3 3E 6F            [ 7] 5082 	ld	a, #0x6f
    00001AA5 CDr00r00         [17] 5083 	call	_V9_SetPort
                                   5084 ;./exsoccer.c:1026: VDP_SetMode(VDP_MODE_SCREEN0);
    00001AA8 AF               [ 4] 5085 	xor	a, a
    00001AA9 CDr00r00         [17] 5086 	call	_VDP_SetMode
                                   5087 ;E:/Dropbox/FAUSTO/SVILUPPI/MSX/CODE/C/MSXgl/engine/src/vdp.h:712: inline void VDP_EnableVBlank(bool enable) { VDP_RegWriteBakMask(1, (u8)~R01_IE0, enable ? R01_IE0 : 0); }
    00001AAC AF               [ 4] 5088 	xor	a, a
    00001AAD F5               [11] 5089 	push	af
    00001AAE 33               [ 6] 5090 	inc	sp
    00001AAF 2E DF            [ 7] 5091 	ld	l, #0xdf
                                   5092 ;	spillPairReg hl
                                   5093 ;	spillPairReg hl
    00001AB1 3E 01            [ 7] 5094 	ld	a, #0x01
    00001AB3 CDr00r00         [17] 5095 	call	_VDP_RegWriteBakMask
                                   5096 ;./exsoccer.c:1028: VDP_ClearVRAM();
    00001AB6 CDr00r00         [17] 5097 	call	_VDP_ClearVRAM
                                   5098 ;E:/Dropbox/FAUSTO/SVILUPPI/MSX/CODE/C/MSXgl/engine/src/rom_mapper.h:112: g_Bank0Segment[b] = s;
    00001AB9 21 0A 00         [10] 5099 	ld	hl, #0x000a
    00001ABC 22r04r00         [16] 5100 	ld	((_g_Bank0Segment + 4)), hl
                                   5101 ;E:/Dropbox/FAUSTO/SVILUPPI/MSX/CODE/C/MSXgl/engine/src/system.h:109: inline void Poke16(u16 addr, u16 val) { *(u16*)addr = val; }
    00001ABF 22 00 70         [16] 5102 	ld	(0x7000), hl
                                   5103 ;./exsoccer.c:1035: Print_SetTextFont(g_Font_MGL_Sample6, 1);
    00001AC2 3E 01            [ 7] 5104 	ld	a, #0x01
    00001AC4 F5               [11] 5105 	push	af
    00001AC5 33               [ 6] 5106 	inc	sp
    00001AC6 21r00r00         [10] 5107 	ld	hl, #_g_Font_MGL_Sample6
    00001AC9 CDr00r00         [17] 5108 	call	_Print_SetTextFont
                                   5109 ;E:/Dropbox/FAUSTO/SVILUPPI/MSX/CODE/C/MSXgl/engine/src/rom_mapper.h:112: g_Bank0Segment[b] = s;
    00001ACC 21 01 00         [10] 5110 	ld	hl, #0x0001
    00001ACF 22r04r00         [16] 5111 	ld	((_g_Bank0Segment + 4)), hl
                                   5112 ;E:/Dropbox/FAUSTO/SVILUPPI/MSX/CODE/C/MSXgl/engine/src/system.h:109: inline void Poke16(u16 addr, u16 val) { *(u16*)addr = val; }
    00001AD2 22 00 70         [16] 5113 	ld	(0x7000), hl
                                   5114 ;./exsoccer.c:1037: Print_SetColor(15, 1);
    00001AD5 2E 01            [ 7] 5115 	ld	l, #0x01
                                   5116 ;	spillPairReg hl
                                   5117 ;	spillPairReg hl
    00001AD7 3E 0F            [ 7] 5118 	ld	a, #0x0f
    00001AD9 CDr00r00         [17] 5119 	call	_Print_SetColor
                                   5120 ;E:/Dropbox/FAUSTO/SVILUPPI/MSX/CODE/C/MSXgl/engine/src/print.h:223: g_PrintData.CursorX = x;
    00001ADC 01r05r00         [10] 5121 	ld	bc, #_g_PrintData + 5
    00001ADF AF               [ 4] 5122 	xor	a, a
    00001AE0 02               [ 7] 5123 	ld	(bc), a
                                   5124 ;E:/Dropbox/FAUSTO/SVILUPPI/MSX/CODE/C/MSXgl/engine/src/print.h:224: g_PrintData.CursorY = y;
    00001AE1 21r06r00         [10] 5125 	ld	hl, #(_g_PrintData + 6)
    00001AE4 36 00            [10] 5126 	ld	(hl), #0x00
                                   5127 ;./exsoccer.c:1039: Print_DrawText("EX Soccer - 2026 Fausto Pracek");
    00001AE6 C5               [11] 5128 	push	bc
    00001AE7 21r5Ar1B         [10] 5129 	ld	hl, #___str_5
    00001AEA CDr00r00         [17] 5130 	call	_Print_DrawText
    00001AED C1               [10] 5131 	pop	bc
                                   5132 ;E:/Dropbox/FAUSTO/SVILUPPI/MSX/CODE/C/MSXgl/engine/src/print.h:223: g_PrintData.CursorX = x;
    00001AEE AF               [ 4] 5133 	xor	a, a
    00001AEF 02               [ 7] 5134 	ld	(bc), a
                                   5135 ;E:/Dropbox/FAUSTO/SVILUPPI/MSX/CODE/C/MSXgl/engine/src/print.h:224: g_PrintData.CursorY = y;
    00001AF0 21r06r00         [10] 5136 	ld	hl, #(_g_PrintData + 6)
    00001AF3 36 01            [10] 5137 	ld	(hl), #0x01
                                   5138 ;./exsoccer.c:1041: Print_DrawText("fpracek@gmail.com");
    00001AF5 C5               [11] 5139 	push	bc
    00001AF6 21r79r1B         [10] 5140 	ld	hl, #___str_6
    00001AF9 CDr00r00         [17] 5141 	call	_Print_DrawText
    00001AFC C1               [10] 5142 	pop	bc
                                   5143 ;./exsoccer.c:1043: const c8* str = "V9990 not found!";
    00001AFD 11r49r1B         [10] 5144 	ld	de, #___str_4
                                   5145 ;./exsoccer.c:1044: bool v9990IsFound=V9_Detect();
    00001B00 C5               [11] 5146 	push	bc
    00001B01 D5               [11] 5147 	push	de
    00001B02 CDr00r00         [17] 5148 	call	_V9_Detect
    00001B05 D1               [10] 5149 	pop	de
    00001B06 C1               [10] 5150 	pop	bc
    00001B07 DD 77 FF         [19] 5151 	ld	-1 (ix), a
                                   5152 ;./exsoccer.c:1046: if (v9990IsFound){
    00001B0A B7               [ 4] 5153 	or	a, a
    00001B0B 28 14            [12] 5154 	jr	Z, 00102$
                                   5155 ;./exsoccer.c:1047: str = "V9990 found!";
    00001B0D 11r8Br1B         [10] 5156 	ld	de, #___str_7
                                   5157 ;E:/Dropbox/FAUSTO/SVILUPPI/MSX/CODE/C/MSXgl/engine/src/print.h:223: g_PrintData.CursorX = x;
    00001B10 AF               [ 4] 5158 	xor	a, a
    00001B11 02               [ 7] 5159 	ld	(bc), a
                                   5160 ;E:/Dropbox/FAUSTO/SVILUPPI/MSX/CODE/C/MSXgl/engine/src/print.h:224: g_PrintData.CursorY = y;
    00001B12 21r06r00         [10] 5161 	ld	hl, #(_g_PrintData + 6)
    00001B15 36 07            [10] 5162 	ld	(hl), #0x07
                                   5163 ;./exsoccer.c:1049: Print_DrawText("The game is running on V9990 monitor.");
    00001B17 C5               [11] 5164 	push	bc
    00001B18 D5               [11] 5165 	push	de
    00001B19 21r98r1B         [10] 5166 	ld	hl, #___str_8
    00001B1C CDr00r00         [17] 5167 	call	_Print_DrawText
    00001B1F D1               [10] 5168 	pop	de
    00001B20 C1               [10] 5169 	pop	bc
    00001B21                       5170 00102$:
                                   5171 ;E:/Dropbox/FAUSTO/SVILUPPI/MSX/CODE/C/MSXgl/engine/src/print.h:223: g_PrintData.CursorX = x;
    00001B21 AF               [ 4] 5172 	xor	a, a
    00001B22 02               [ 7] 5173 	ld	(bc), a
                                   5174 ;E:/Dropbox/FAUSTO/SVILUPPI/MSX/CODE/C/MSXgl/engine/src/print.h:224: g_PrintData.CursorY = y;
    00001B23 21r06r00         [10] 5175 	ld	hl, #(_g_PrintData + 6)
    00001B26 36 03            [10] 5176 	ld	(hl), #0x03
                                   5177 ;./exsoccer.c:1052: Print_DrawText(str);
    00001B28 EB               [ 4] 5178 	ex	de, hl
    00001B29 CDr00r00         [17] 5179 	call	_Print_DrawText
                                   5180 ;./exsoccer.c:1053: if(!v9990IsFound){
    00001B2C DD 7E FF         [19] 5181 	ld	a, -1 (ix)
    00001B2F B7               [ 4] 5182 	or	a, a
    00001B30 20 03            [12] 5183 	jr	NZ, 00105$
    00001B32                       5184 00148$:
    00001B32 C3r32r1B         [10] 5185 	jp	00148$
    00001B35                       5186 00105$:
                                   5187 ;./exsoccer.c:1057: InitializeV9990();
    00001B35 CDr3Ar07         [17] 5188 	call	_InitializeV9990
                                   5189 ;./exsoccer.c:1060: V9_SetPort(V9_P15, 0x10);
    00001B38 2E 10            [ 7] 5190 	ld	l, #0x10
                                   5191 ;	spillPairReg hl
                                   5192 ;	spillPairReg hl
    00001B3A 3E 6F            [ 7] 5193 	ld	a, #0x6f
    00001B3C CDr00r00         [17] 5194 	call	_V9_SetPort
                                   5195 ;./exsoccer.c:1062: GameStart();
    00001B3F CDr73r02         [17] 5196 	call	_GameStart
                                   5197 ;./exsoccer.c:1063: MainGameLoop();
    00001B42 CDrBEr1B         [17] 5198 	call	_MainGameLoop
                                   5199 ;./exsoccer.c:1067: }
    00001B45 33               [ 6] 5200 	inc	sp
    00001B46 DD E1            [14] 5201 	pop	ix
    00001B48 C9               [10] 5202 	ret
    00001B49                       5203 ___str_4:
    00001B49 56 39 39 39 30 20 6E  5204 	.ascii "V9990 not found!"
             6F 74 20 66 6F 75 6E
             64 21
    00001B59 00                    5205 	.db 0x00
    00001B5A                       5206 ___str_5:
    00001B5A 45 58 20 53 6F 63 63  5207 	.ascii "EX Soccer - 2026 Fausto Pracek"
             65 72 20 2D 20 32 30
             32 36 20 46 61 75 73
             74 6F 20 50 72 61 63
             65 6B
    00001B78 00                    5208 	.db 0x00
    00001B79                       5209 ___str_6:
    00001B79 66 70 72 61 63 65 6B  5210 	.ascii "fpracek@gmail.com"
             40 67 6D 61 69 6C 2E
             63 6F 6D
    00001B8A 00                    5211 	.db 0x00
    00001B8B                       5212 ___str_7:
    00001B8B 56 39 39 39 30 20 66  5213 	.ascii "V9990 found!"
             6F 75 6E 64 21
    00001B97 00                    5214 	.db 0x00
    00001B98                       5215 ___str_8:
    00001B98 54 68 65 20 67 61 6D  5216 	.ascii "The game is running on V9990 monitor."
             65 20 69 73 20 72 75
             6E 6E 69 6E 67 20 6F
             6E 20 56 39 39 39 30
             20 6D 6F 6E 69 74 6F
             72 2E
    00001BBD 00                    5217 	.db 0x00
                                   5218 ;./exsoccer.c:1068: void MainGameLoop(){
                                   5219 ;	---------------------------------
                                   5220 ; Function MainGameLoop
                                   5221 ; ---------------------------------
    00001BBE                       5222 _MainGameLoop::
    00001BBE DD E5            [15] 5223 	push	ix
    00001BC0 DD 21 00 00      [14] 5224 	ld	ix,#0
    00001BC4 DD 39            [15] 5225 	add	ix,sp
    00001BC6 F5               [11] 5226 	push	af
                                   5227 ;./exsoccer.c:1069: u8 TickAiPlayerId=0;
    00001BC7 DD 36 FE 00      [19] 5228 	ld	-2 (ix), #0x00
                                   5229 ;./exsoccer.c:1070: u8 AiTickSpeed=0;
    00001BCB DD 36 FF 00      [19] 5230 	ld	-1 (ix), #0x00
    00001BCF                       5231 00142$:
                                   5232 ;./exsoccer.c:1072: UpdateV9990();
    00001BCF CDr00r00         [17] 5233 	call	_UpdateV9990
                                   5234 ;./exsoccer.c:1074: if(g_MatchStatus==MATCH_NOT_STARTED && g_FieldScrollingActionInProgress==NO_VALUE && g_ActiveFieldZone==FIELD_CENTRAL_ZONE){
    00001BD2 3Ar04r00         [13] 5235 	ld	a, (_g_MatchStatus+0)
    00001BD5 B7               [ 4] 5236 	or	a, a
    00001BD6 20 25            [12] 5237 	jr	NZ, 00103$
    00001BD8 3Ar02r00         [13] 5238 	ld	a, (_g_FieldScrollingActionInProgress+0)
    00001BDB 3C               [ 4] 5239 	inc	a
    00001BDC 20 1F            [12] 5240 	jr	NZ, 00103$
    00001BDE 3Ar22r01         [13] 5241 	ld	a, (_g_ActiveFieldZone+0)
    00001BE1 3D               [ 4] 5242 	dec	a
    00001BE2 20 19            [12] 5243 	jr	NZ, 00103$
                                   5244 ;./exsoccer.c:1075: g_MatchStatus=MATCH_BEFORE_KICK_OFF;
    00001BE4 21r04r00         [10] 5245 	ld	hl, #_g_MatchStatus
    00001BE7 36 01            [10] 5246 	ld	(hl), #0x01
                                   5247 ;./exsoccer.c:1076: for(u8 i=0;i<15;i++){
    00001BE9 0E 00            [ 7] 5248 	ld	c, #0x00
    00001BEB                       5249 00140$:
    00001BEB 79               [ 4] 5250 	ld	a, c
    00001BEC D6 0F            [ 7] 5251 	sub	a, #0x0f
    00001BEE 30 0A            [12] 5252 	jr	NC, 00101$
                                   5253 ;./exsoccer.c:1077: SetPlayerTarget(i);
    00001BF0 C5               [11] 5254 	push	bc
    00001BF1 79               [ 4] 5255 	ld	a, c
    00001BF2 CDr59r1F         [17] 5256 	call	_SetPlayerTarget
    00001BF5 C1               [10] 5257 	pop	bc
                                   5258 ;./exsoccer.c:1076: for(u8 i=0;i<15;i++){
    00001BF6 0C               [ 4] 5259 	inc	c
    00001BF7 C3rEBr1B         [10] 5260 	jp	00140$
    00001BFA                       5261 00101$:
                                   5262 ;./exsoccer.c:1079: TickPlayerToOwnTarget();
    00001BFA CDr00r00         [17] 5263 	call	_TickPlayerToOwnTarget
    00001BFD                       5264 00103$:
                                   5265 ;./exsoccer.c:1082: TickGoalCelebration();
    00001BFD CDr3Br16         [17] 5266 	call	_TickGoalCelebration
                                   5267 ;./exsoccer.c:1083: TickPlayerToOwnTarget();
    00001C00 CDr00r00         [17] 5268 	call	_TickPlayerToOwnTarget
                                   5269 ;./exsoccer.c:1084: TickActiveFieldZone();
    00001C03 CDr75r04         [17] 5270 	call	_TickActiveFieldZone
                                   5271 ;./exsoccer.c:1085: if(g_FieldScrollingActionInProgress==NO_VALUE){
    00001C06 3Ar02r00         [13] 5272 	ld	a, (_g_FieldScrollingActionInProgress+0)
    00001C09 3C               [ 4] 5273 	inc	a
    00001C0A 20 46            [12] 5274 	jr	NZ, 00119$
                                   5275 ;./exsoccer.c:1087: if(g_MatchStatus == MATCH_IN_ACTION || g_MatchStatus == MATCH_BALL_ON_GOALKEEPER) {
    00001C0C 3Ar04r00         [13] 5276 	ld	a,(_g_MatchStatus+0)
    00001C0F FE 0C            [ 7] 5277 	cp	a,#0x0c
    00001C11 28 04            [12] 5278 	jr	Z, 00115$
    00001C13 D6 0D            [ 7] 5279 	sub	a, #0x0d
    00001C15 20 3B            [12] 5280 	jr	NZ, 00119$
    00001C17                       5281 00115$:
                                   5282 ;./exsoccer.c:1089: if(AiTickSpeed >= 2){ // Speed up AI cycle (was 5)
    00001C17 DD 7E FF         [19] 5283 	ld	a, -1 (ix)
    00001C1A D6 02            [ 7] 5284 	sub	a, #0x02
    00001C1C 38 34            [12] 5285 	jr	C, 00119$
                                   5286 ;./exsoccer.c:1090: AiTickSpeed=0;
    00001C1E DD 36 FF 00      [19] 5287 	ld	-1 (ix), #0x00
                                   5288 ;./exsoccer.c:1091: TickAI(REFEREE);
    00001C22 3E 0E            [ 7] 5289 	ld	a, #0x0e
    00001C24 CDr00r00         [17] 5290 	call	_TickAI
                                   5291 ;./exsoccer.c:1092: TickAI(TickAiPlayerId);
    00001C27 DD 7E FE         [19] 5292 	ld	a, -2 (ix)
    00001C2A CDr00r00         [17] 5293 	call	_TickAI
                                   5294 ;./exsoccer.c:1093: TickAiPlayerId++;
    00001C2D DD 34 FE         [23] 5295 	inc	-2 (ix)
                                   5296 ;./exsoccer.c:1094: if(TickAiPlayerId==14){ // Only iterate 0-13 (Players)
    00001C30 DD 7E FE         [19] 5297 	ld	a, -2 (ix)
    00001C33 D6 0E            [ 7] 5298 	sub	a, #0x0e
    00001C35 20 04            [12] 5299 	jr	NZ, 00107$
                                   5300 ;./exsoccer.c:1095: TickAiPlayerId=0;
    00001C37 DD 36 FE 00      [19] 5301 	ld	-2 (ix), #0x00
    00001C3B                       5302 00107$:
                                   5303 ;./exsoccer.c:1099: if (g_Ball.PossessionPlayerId != NO_VALUE && g_Ball.PossessionPlayerId < 14) {
    00001C3B 21r0Br01         [10] 5304 	ld	hl, #_g_Ball+6
    00001C3E 4E               [ 7] 5305 	ld	c, (hl)
    00001C3F 79               [ 4] 5306 	ld	a, c
    00001C40 3C               [ 4] 5307 	inc	a
    00001C41 28 0F            [12] 5308 	jr	Z, 00119$
    00001C43 79               [ 4] 5309 	ld	a, c
    00001C44 D6 0E            [ 7] 5310 	sub	a, #0x0e
    00001C46 30 0A            [12] 5311 	jr	NC, 00119$
                                   5312 ;./exsoccer.c:1101: if (g_Ball.PossessionPlayerId != TickAiPlayerId) {
    00001C48 DD 7E FE         [19] 5313 	ld	a, -2 (ix)
    00001C4B 91               [ 4] 5314 	sub	a, c
    00001C4C 28 04            [12] 5315 	jr	Z, 00119$
                                   5316 ;./exsoccer.c:1102: TickAI(g_Ball.PossessionPlayerId);
    00001C4E 79               [ 4] 5317 	ld	a, c
    00001C4F CDr00r00         [17] 5318 	call	_TickAI
    00001C52                       5319 00119$:
                                   5320 ;./exsoccer.c:1110: UpdateSpritesPositions();
    00001C52 CDr00r00         [17] 5321 	call	_UpdateSpritesPositions
                                   5322 ;./exsoccer.c:1111: TickUpdateTime();
    00001C55 CDrD5r04         [17] 5323 	call	_TickUpdateTime
                                   5324 ;./exsoccer.c:1112: TickShowKickOff();
    00001C58 CDr00r00         [17] 5325 	call	_TickShowKickOff
                                   5326 ;./exsoccer.c:1113: if(g_FieldScrollingActionInProgress==NO_VALUE){
    00001C5B 3Ar02r00         [13] 5327 	ld	a, (_g_FieldScrollingActionInProgress+0)
    00001C5E 3C               [ 4] 5328 	inc	a
    00001C5F 20 0C            [12] 5329 	jr	NZ, 00121$
                                   5330 ;./exsoccer.c:1114: TickBallCollision();
    00001C61 CDr00r00         [17] 5331 	call	_TickBallCollision
                                   5332 ;./exsoccer.c:1115: TickBallFlying();
    00001C64 CDr00r00         [17] 5333 	call	_TickBallFlying
                                   5334 ;./exsoccer.c:1116: UpdatePassTarget();
    00001C67 CDr00r00         [17] 5335 	call	_UpdatePassTarget
                                   5336 ;./exsoccer.c:1117: TickGoalkeeperAnimation();
    00001C6A CDr00r00         [17] 5337 	call	_TickGoalkeeperAnimation
    00001C6D                       5338 00121$:
                                   5339 ;./exsoccer.c:1120: TickCheckBallBoundaries();
    00001C6D CDr00r00         [17] 5340 	call	_TickCheckBallBoundaries
                                   5341 ;./exsoccer.c:1121: TickTeamJoystick(TEAM_1,GetJoystick1Direction());
    00001C70 CDr00r00         [17] 5342 	call	_GetJoystick1Direction
    00001C73 6F               [ 4] 5343 	ld	l, a
                                   5344 ;	spillPairReg hl
                                   5345 ;	spillPairReg hl
    00001C74 3E 01            [ 7] 5346 	ld	a, #0x01
    00001C76 CDrEDr07         [17] 5347 	call	_TickTeamJoystick
                                   5348 ;./exsoccer.c:1122: if(g_GameWith2Players){
    00001C79 3Ar0Ar00         [13] 5349 	ld	a, (_g_GameWith2Players+0)
    00001C7C B7               [ 4] 5350 	or	a, a
    00001C7D 28 09            [12] 5351 	jr	Z, 00123$
                                   5352 ;./exsoccer.c:1123: TickTeamJoystick(TEAM_2,GetJoystick2Direction());
    00001C7F CDr00r00         [17] 5353 	call	_GetJoystick2Direction
    00001C82 6F               [ 4] 5354 	ld	l, a
                                   5355 ;	spillPairReg hl
                                   5356 ;	spillPairReg hl
    00001C83 3E 02            [ 7] 5357 	ld	a, #0x02
    00001C85 CDrEDr07         [17] 5358 	call	_TickTeamJoystick
    00001C88                       5359 00123$:
                                   5360 ;./exsoccer.c:1126: AiTickSpeed++;
    00001C88 DD 34 FF         [23] 5361 	inc	-1 (ix)
                                   5362 ;./exsoccer.c:1128: if (g_ActionCooldown > 0) {
    00001C8B 3Ar0Cr00         [13] 5363 	ld	a, (_g_ActionCooldown+0)
    00001C8E B7               [ 4] 5364 	or	a, a
    00001C8F 28 07            [12] 5365 	jr	Z, 00132$
                                   5366 ;./exsoccer.c:1129: g_ActionCooldown--;
    00001C91 21r0Cr00         [10] 5367 	ld	hl, #_g_ActionCooldown
    00001C94 35               [11] 5368 	dec	(hl)
    00001C95 C3rEEr1C         [10] 5369 	jp	00133$
    00001C98                       5370 00132$:
                                   5371 ;./exsoccer.c:1132: if (g_Team1ActivePlayer != NO_VALUE && g_Players[g_Team1ActivePlayer].Status == PLAYER_STATUS_POSITIONED) 
    00001C98 3Ar07r00         [13] 5372 	ld	a, (_g_Team1ActivePlayer+0)
    00001C9B 3C               [ 4] 5373 	inc	a
    00001C9C 28 22            [12] 5374 	jr	Z, 00125$
    00001C9E 01r06r00         [10] 5375 	ld	bc, #_g_Players+0
    00001CA1 ED 5Br07r00      [20] 5376 	ld	de, (_g_Team1ActivePlayer)
    00001CA5 16 00            [ 7] 5377 	ld	d, #0x00
    00001CA7 6B               [ 4] 5378 	ld	l, e
    00001CA8 62               [ 4] 5379 	ld	h, d
    00001CA9 29               [11] 5380 	add	hl, hl
    00001CAA 29               [11] 5381 	add	hl, hl
    00001CAB 29               [11] 5382 	add	hl, hl
    00001CAC 29               [11] 5383 	add	hl, hl
    00001CAD 19               [11] 5384 	add	hl, de
    00001CAE 09               [11] 5385 	add	hl, bc
    00001CAF 01 0E 00         [10] 5386 	ld	bc, #0x000e
    00001CB2 09               [11] 5387 	add	hl, bc
    00001CB3 4E               [ 7] 5388 	ld	c, (hl)
    00001CB4 23               [ 6] 5389 	inc	hl
    00001CB5 46               [ 7] 5390 	ld	b, (hl)
    00001CB6 2B               [ 6] 5391 	dec	hl
    00001CB7 79               [ 4] 5392 	ld	a, c
    00001CB8 D6 04            [ 7] 5393 	sub	a, #0x04
                                   5394 ;./exsoccer.c:1133: g_Players[g_Team1ActivePlayer].Status = PLAYER_STATUS_NONE;
    00001CBA B0               [ 4] 5395 	or	a,b
    00001CBB 20 03            [12] 5396 	jr	NZ, 00125$
    00001CBD 77               [ 7] 5397 	ld	(hl), a
    00001CBE 23               [ 6] 5398 	inc	hl
    00001CBF 77               [ 7] 5399 	ld	(hl), a
    00001CC0                       5400 00125$:
                                   5401 ;./exsoccer.c:1134: if (g_GameWith2Players && g_Team2ActivePlayer != NO_VALUE && g_Players[g_Team2ActivePlayer].Status == PLAYER_STATUS_POSITIONED)
    00001CC0 3Ar0Ar00         [13] 5402 	ld	a, (_g_GameWith2Players+0)
    00001CC3 B7               [ 4] 5403 	or	a, a
    00001CC4 28 28            [12] 5404 	jr	Z, 00133$
    00001CC6 3Ar08r00         [13] 5405 	ld	a, (_g_Team2ActivePlayer+0)
    00001CC9 3C               [ 4] 5406 	inc	a
    00001CCA 28 22            [12] 5407 	jr	Z, 00133$
    00001CCC ED 4Br08r00      [20] 5408 	ld	bc, (_g_Team2ActivePlayer)
    00001CD0 06 00            [ 7] 5409 	ld	b, #0x00
    00001CD2 69               [ 4] 5410 	ld	l, c
    00001CD3 60               [ 4] 5411 	ld	h, b
    00001CD4 29               [11] 5412 	add	hl, hl
    00001CD5 29               [11] 5413 	add	hl, hl
    00001CD6 29               [11] 5414 	add	hl, hl
    00001CD7 29               [11] 5415 	add	hl, hl
    00001CD8 09               [11] 5416 	add	hl, bc
    00001CD9 11r06r00         [10] 5417 	ld	de, #_g_Players
    00001CDC 19               [11] 5418 	add	hl, de
    00001CDD 01 0E 00         [10] 5419 	ld	bc, #0x000e
    00001CE0 09               [11] 5420 	add	hl, bc
    00001CE1 4E               [ 7] 5421 	ld	c, (hl)
    00001CE2 23               [ 6] 5422 	inc	hl
    00001CE3 46               [ 7] 5423 	ld	b, (hl)
    00001CE4 2B               [ 6] 5424 	dec	hl
    00001CE5 79               [ 4] 5425 	ld	a, c
    00001CE6 D6 04            [ 7] 5426 	sub	a, #0x04
                                   5427 ;./exsoccer.c:1135: g_Players[g_Team2ActivePlayer].Status = PLAYER_STATUS_NONE;
    00001CE8 B0               [ 4] 5428 	or	a,b
    00001CE9 20 03            [12] 5429 	jr	NZ, 00133$
    00001CEB 77               [ 7] 5430 	ld	(hl), a
    00001CEC 23               [ 6] 5431 	inc	hl
    00001CED 77               [ 7] 5432 	ld	(hl), a
    00001CEE                       5433 00133$:
                                   5434 ;./exsoccer.c:1139: g_ShotCursorX += g_ShotCursorDir;
    00001CEE 3Ar0Fr00         [13] 5435 	ld	a, (_g_ShotCursorDir+0)
    00001CF1 4F               [ 4] 5436 	ld	c, a
    00001CF2 07               [ 4] 5437 	rlca
    00001CF3 9F               [ 4] 5438 	sbc	a, a
    00001CF4 2Ar0Dr00         [16] 5439 	ld	hl, (_g_ShotCursorX)
    00001CF7 47               [ 4] 5440 	ld	b, a
    00001CF8 09               [11] 5441 	add	hl, bc
    00001CF9 22r0Dr00         [16] 5442 	ld	(_g_ShotCursorX), hl
                                   5443 ;./exsoccer.c:1140: if (g_ShotCursorX < (GOAL_X_MIN - 20)) {
    00001CFC 11 4C 00         [10] 5444 	ld	de, #0x004c
    00001CFF 2Ar0Dr00         [16] 5445 	ld	hl, (_g_ShotCursorX)
    00001D02 BF               [ 4] 5446 	cp	a, a
    00001D03 ED 52            [15] 5447 	sbc	hl, de
    00001D05 30 0C            [12] 5448 	jr	NC, 00135$
                                   5449 ;./exsoccer.c:1141: g_ShotCursorX = (GOAL_X_MIN - 20);
    00001D07 21 4C 00         [10] 5450 	ld	hl, #0x004c
    00001D0A 22r0Dr00         [16] 5451 	ld	(_g_ShotCursorX), hl
                                   5452 ;./exsoccer.c:1142: g_ShotCursorDir = -g_ShotCursorDir;
    00001D0D 21r0Fr00         [10] 5453 	ld	hl, #_g_ShotCursorDir
    00001D10 AF               [ 4] 5454 	xor	a, a
    00001D11 96               [ 7] 5455 	sub	a, (hl)
    00001D12 77               [ 7] 5456 	ld	(hl), a
    00001D13                       5457 00135$:
                                   5458 ;./exsoccer.c:1144: if (g_ShotCursorX > (GOAL_X_MAX + 20)) {
    00001D13 3E A4            [ 7] 5459 	ld	a, #0xa4
    00001D15 FD 21r0Dr00      [14] 5460 	ld	iy, #_g_ShotCursorX
    00001D19 FD BE 00         [19] 5461 	cp	a, 0 (iy)
    00001D1C 3E 00            [ 7] 5462 	ld	a, #0x00
    00001D1E FD 9E 01         [19] 5463 	sbc	a, 1 (iy)
    00001D21 D2rCFr1B         [10] 5464 	jp	NC, 00142$
                                   5465 ;./exsoccer.c:1145: g_ShotCursorX = (GOAL_X_MAX + 20);
    00001D24 21 A4 00         [10] 5466 	ld	hl, #0x00a4
    00001D27 22r0Dr00         [16] 5467 	ld	(_g_ShotCursorX), hl
                                   5468 ;./exsoccer.c:1146: g_ShotCursorDir = -g_ShotCursorDir;
    00001D2A 21r0Fr00         [10] 5469 	ld	hl, #_g_ShotCursorDir
    00001D2D AF               [ 4] 5470 	xor	a, a
    00001D2E 96               [ 7] 5471 	sub	a, (hl)
    00001D2F 77               [ 7] 5472 	ld	(hl), a
                                   5473 ;./exsoccer.c:1149: }
    00001D30 C3rCFr1B         [10] 5474 	jp	00142$
                                   5475 ;./exsoccer.c:1153: void UpdatePlayerPatternByDirection(u8 playerId){
                                   5476 ;	---------------------------------
                                   5477 ; Function UpdatePlayerPatternByDirection
                                   5478 ; ---------------------------------
    00001D33                       5479 _UpdatePlayerPatternByDirection::
    00001D33 DD E5            [15] 5480 	push	ix
    00001D35 DD 21 00 00      [14] 5481 	ld	ix,#0
    00001D39 DD 39            [15] 5482 	add	ix,sp
    00001D3B 21 FB FF         [10] 5483 	ld	hl, #-5
    00001D3E 39               [11] 5484 	add	hl, sp
    00001D3F F9               [ 6] 5485 	ld	sp, hl
    00001D40 DD 77 FF         [19] 5486 	ld	-1 (ix), a
                                   5487 ;./exsoccer.c:1154: if(g_Players[playerId].Status==PLAYER_STATUS_POSITIONED){
    00001D43 01r06r00         [10] 5488 	ld	bc, #_g_Players+0
    00001D46 DD 5E FF         [19] 5489 	ld	e, -1 (ix)
    00001D49 16 00            [ 7] 5490 	ld	d, #0x00
    00001D4B 6B               [ 4] 5491 	ld	l, e
    00001D4C 62               [ 4] 5492 	ld	h, d
    00001D4D 29               [11] 5493 	add	hl, hl
    00001D4E 29               [11] 5494 	add	hl, hl
    00001D4F 29               [11] 5495 	add	hl, hl
    00001D50 29               [11] 5496 	add	hl, hl
    00001D51 19               [11] 5497 	add	hl, de
    00001D52 09               [11] 5498 	add	hl, bc
    00001D53 EB               [ 4] 5499 	ex	de, hl
    00001D54 4B               [ 4] 5500 	ld	c, e
    00001D55 42               [ 4] 5501 	ld	b, d
    00001D56 21 0E 00         [10] 5502 	ld	hl, #14
    00001D59 09               [11] 5503 	add	hl, bc
    00001D5A 4E               [ 7] 5504 	ld	c, (hl)
    00001D5B 23               [ 6] 5505 	inc	hl
    00001D5C 46               [ 7] 5506 	ld	b, (hl)
    00001D5D 79               [ 4] 5507 	ld	a, c
    00001D5E D6 04            [ 7] 5508 	sub	a, #0x04
    00001D60 B0               [ 4] 5509 	or	a, b
    00001D61 CArF4r1D         [10] 5510 	jp	Z,00122$
                                   5511 ;./exsoccer.c:1155: return;
    00001D64 C3r67r1D         [10] 5512 	jp	00102$
    00001D67                       5513 00102$:
                                   5514 ;./exsoccer.c:1159: if(g_Players[playerId].Direction!=g_Players[playerId].PreviousDirection){
    00001D67 21 06 00         [10] 5515 	ld	hl, #0x0006
    00001D6A 19               [11] 5516 	add	hl, de
    00001D6B E3               [19] 5517 	ex	(sp), hl
    00001D6C E1               [10] 5518 	pop	hl
    00001D6D E5               [11] 5519 	push	hl
    00001D6E 4E               [ 7] 5520 	ld	c, (hl)
    00001D6F 21 07 00         [10] 5521 	ld	hl, #0x0007
    00001D72 19               [11] 5522 	add	hl, de
    00001D73 DD 75 FD         [19] 5523 	ld	-3 (ix), l
    00001D76 DD 74 FE         [19] 5524 	ld	-2 (ix), h
    00001D79 46               [ 7] 5525 	ld	b, (hl)
                                   5526 ;./exsoccer.c:1160: if(g_Players[playerId].Direction==DIRECTION_NONE){
    00001D7A 79               [ 4] 5527 	ld	a,c
    00001D7B B8               [ 4] 5528 	cp	a,b
    00001D7C 28 2B            [12] 5529 	jr	Z, 00112$
    00001D7E B7               [ 4] 5530 	or	a, a
    00001D7F 20 18            [12] 5531 	jr	NZ, 00104$
                                   5532 ;./exsoccer.c:1161: g_Players[playerId].PatternId=GetNoMovingPlayerPatternId(g_Players[playerId].PreviousDirection);
    00001D81 21 04 00         [10] 5533 	ld	hl, #0x0004
    00001D84 19               [11] 5534 	add	hl, de
    00001D85 E5               [11] 5535 	push	hl
    00001D86 D5               [11] 5536 	push	de
    00001D87 78               [ 4] 5537 	ld	a, b
    00001D88 CDrF9r1D         [17] 5538 	call	_GetNoMovingPlayerPatternId
    00001D8B D1               [10] 5539 	pop	de
    00001D8C E1               [10] 5540 	pop	hl
    00001D8D 77               [ 7] 5541 	ld	(hl), a
                                   5542 ;./exsoccer.c:1162: g_Players[playerId].PreviousDirection=g_Players[playerId].Direction;
    00001D8E E1               [10] 5543 	pop	hl
    00001D8F E5               [11] 5544 	push	hl
    00001D90 7E               [ 7] 5545 	ld	a, (hl)
    00001D91 C1               [10] 5546 	pop	bc
    00001D92 E1               [10] 5547 	pop	hl
    00001D93 E5               [11] 5548 	push	hl
    00001D94 C5               [11] 5549 	push	bc
    00001D95 77               [ 7] 5550 	ld	(hl), a
    00001D96 C3rBBr1D         [10] 5551 	jp	00113$
    00001D99                       5552 00104$:
                                   5553 ;./exsoccer.c:1165: g_Players[playerId].PreviousDirection=g_Players[playerId].Direction;
    00001D99 DD 6E FD         [19] 5554 	ld	l, -3 (ix)
    00001D9C DD 66 FE         [19] 5555 	ld	h, -2 (ix)
    00001D9F 71               [ 7] 5556 	ld	(hl), c
                                   5557 ;./exsoccer.c:1166: g_Players[playerId].LastPose=0;
    00001DA0 21 08 00         [10] 5558 	ld	hl, #0x0008
    00001DA3 19               [11] 5559 	add	hl, de
    00001DA4 36 00            [10] 5560 	ld	(hl), #0x00
    00001DA6 C3rBBr1D         [10] 5561 	jp	00113$
    00001DA9                       5562 00112$:
                                   5563 ;./exsoccer.c:1172: if(g_Players[playerId].Direction!=DIRECTION_NONE){
    00001DA9 79               [ 4] 5564 	ld	a, c
    00001DAA B7               [ 4] 5565 	or	a, a
    00001DAB 28 0E            [12] 5566 	jr	Z, 00113$
                                   5567 ;./exsoccer.c:1173: if(g_Players[playerId].LastPose==1){
    00001DAD 21 08 00         [10] 5568 	ld	hl, #0x0008
    00001DB0 19               [11] 5569 	add	hl, de
    00001DB1 7E               [ 7] 5570 	ld	a, (hl)
                                   5571 ;./exsoccer.c:1174: g_Players[playerId].LastPose=0;
    00001DB2 3D               [ 4] 5572 	dec	a
    00001DB3 20 04            [12] 5573 	jr	NZ, 00107$
    00001DB5 77               [ 7] 5574 	ld	(hl),a
    00001DB6 C3rBBr1D         [10] 5575 	jp	00113$
    00001DB9                       5576 00107$:
                                   5577 ;./exsoccer.c:1177: g_Players[playerId].LastPose=1;
    00001DB9 36 01            [10] 5578 	ld	(hl), #0x01
    00001DBB                       5579 00113$:
                                   5580 ;./exsoccer.c:1183: if(g_Players[playerId].TeamId==REFEREE && g_MatchStatus==MATCH_BEFORE_KICK_OFF ){
    00001DBB 4B               [ 4] 5581 	ld	c, e
    00001DBC 42               [ 4] 5582 	ld	b, d
    00001DBD 21 05 00         [10] 5583 	ld	hl, #5
    00001DC0 09               [11] 5584 	add	hl, bc
    00001DC1 7E               [ 7] 5585 	ld	a, (hl)
                                   5586 ;./exsoccer.c:1159: if(g_Players[playerId].Direction!=g_Players[playerId].PreviousDirection){
    00001DC2 E1               [10] 5587 	pop	hl
    00001DC3 E5               [11] 5588 	push	hl
    00001DC4 4E               [ 7] 5589 	ld	c, (hl)
                                   5590 ;./exsoccer.c:1183: if(g_Players[playerId].TeamId==REFEREE && g_MatchStatus==MATCH_BEFORE_KICK_OFF ){
    00001DC5 D6 0E            [ 7] 5591 	sub	a, #0x0e
    00001DC7 20 1A            [12] 5592 	jr	NZ, 00119$
    00001DC9 3Ar04r00         [13] 5593 	ld	a, (_g_MatchStatus+0)
    00001DCC 3D               [ 4] 5594 	dec	a
    00001DCD 20 14            [12] 5595 	jr	NZ, 00119$
                                   5596 ;./exsoccer.c:1186: if(g_Players[playerId].Direction!=DIRECTION_NONE){
    00001DCF 79               [ 4] 5597 	ld	a, c
    00001DD0 B7               [ 4] 5598 	or	a, a
    00001DD1 28 21            [12] 5599 	jr	Z, 00122$
                                   5600 ;./exsoccer.c:1187: g_Players[playerId].PatternId=GetPatternIdByPoseAndDirection(playerId);
    00001DD3 13               [ 6] 5601 	inc	de
    00001DD4 13               [ 6] 5602 	inc	de
    00001DD5 13               [ 6] 5603 	inc	de
    00001DD6 13               [ 6] 5604 	inc	de
    00001DD7 D5               [11] 5605 	push	de
    00001DD8 DD 7E FF         [19] 5606 	ld	a, -1 (ix)
    00001DDB CDr9Fr1E         [17] 5607 	call	_GetPatternIdByPoseAndDirection
    00001DDE D1               [10] 5608 	pop	de
    00001DDF 12               [ 7] 5609 	ld	(de), a
    00001DE0 C3rF4r1D         [10] 5610 	jp	00122$
    00001DE3                       5611 00119$:
                                   5612 ;./exsoccer.c:1191: if(g_Players[playerId].Direction!=DIRECTION_NONE){
    00001DE3 79               [ 4] 5613 	ld	a, c
    00001DE4 B7               [ 4] 5614 	or	a, a
    00001DE5 28 0D            [12] 5615 	jr	Z, 00122$
                                   5616 ;./exsoccer.c:1192: g_Players[playerId].PatternId=GetPatternIdByPoseAndDirection(playerId);
    00001DE7 13               [ 6] 5617 	inc	de
    00001DE8 13               [ 6] 5618 	inc	de
    00001DE9 13               [ 6] 5619 	inc	de
    00001DEA 13               [ 6] 5620 	inc	de
    00001DEB D5               [11] 5621 	push	de
    00001DEC DD 7E FF         [19] 5622 	ld	a, -1 (ix)
    00001DEF CDr9Fr1E         [17] 5623 	call	_GetPatternIdByPoseAndDirection
    00001DF2 D1               [10] 5624 	pop	de
    00001DF3 12               [ 7] 5625 	ld	(de), a
    00001DF4                       5626 00122$:
                                   5627 ;./exsoccer.c:1195: }
    00001DF4 DD F9            [10] 5628 	ld	sp, ix
    00001DF6 DD E1            [14] 5629 	pop	ix
    00001DF8 C9               [10] 5630 	ret
                                   5631 ;./exsoccer.c:1198: u8 GetNoMovingPlayerPatternId(u8 direction){
                                   5632 ;	---------------------------------
                                   5633 ; Function GetNoMovingPlayerPatternId
                                   5634 ; ---------------------------------
    00001DF9                       5635 _GetNoMovingPlayerPatternId::
    00001DF9 5F               [ 4] 5636 	ld	e, a
                                   5637 ;./exsoccer.c:1199: u8 patternId=NO_VALUE;
    00001DFA 0E FF            [ 7] 5638 	ld	c, #0xff
                                   5639 ;./exsoccer.c:1200: switch (direction){
    00001DFC 3E 08            [ 7] 5640 	ld	a, #0x08
    00001DFE 93               [ 4] 5641 	sub	a, e
    00001DFF 38 49            [12] 5642 	jr	C, 00109$
    00001E01 16 00            [ 7] 5643 	ld	d, #0x00
    00001E03 21r0Ar1E         [10] 5644 	ld	hl, #00117$
    00001E06 19               [11] 5645 	add	hl, de
    00001E07 19               [11] 5646 	add	hl, de
    00001E08 19               [11] 5647 	add	hl, de
    00001E09 E9               [ 4] 5648 	jp	(hl)
    00001E0A                       5649 00117$:
    00001E0A C3r4Ar1E         [10] 5650 	jp	00109$
    00001E0D C3r2Ar1E         [10] 5651 	jp	00102$
    00001E10 C3r3Er1E         [10] 5652 	jp	00106$
    00001E13 C3r34r1E         [10] 5653 	jp	00104$
    00001E16 C3r48r1E         [10] 5654 	jp	00108$
    00001E19 C3r25r1E         [10] 5655 	jp	00101$
    00001E1C C3r43r1E         [10] 5656 	jp	00107$
    00001E1F C3r2Fr1E         [10] 5657 	jp	00103$
    00001E22 C3r39r1E         [10] 5658 	jp	00105$
                                   5659 ;./exsoccer.c:1201: case DIRECTION_DOWN:
    00001E25                       5660 00101$:
                                   5661 ;./exsoccer.c:1202: patternId=PLAYER_POSE_FRONT_PLAYING;
    00001E25 0E 13            [ 7] 5662 	ld	c, #0x13
                                   5663 ;./exsoccer.c:1203: break;
    00001E27 C3r4Ar1E         [10] 5664 	jp	00109$
                                   5665 ;./exsoccer.c:1204: case DIRECTION_UP:
    00001E2A                       5666 00102$:
                                   5667 ;./exsoccer.c:1205: patternId=PLAYER_POSE_BACK_PLAYING;
    00001E2A 0E 16            [ 7] 5668 	ld	c, #0x16
                                   5669 ;./exsoccer.c:1206: break;
    00001E2C C3r4Ar1E         [10] 5670 	jp	00109$
                                   5671 ;./exsoccer.c:1207: case DIRECTION_LEFT:
    00001E2F                       5672 00103$:
                                   5673 ;./exsoccer.c:1208: patternId=PLAYER_POSE_LEFT;
    00001E2F 0E 12            [ 7] 5674 	ld	c, #0x12
                                   5675 ;./exsoccer.c:1209: break;
    00001E31 C3r4Ar1E         [10] 5676 	jp	00109$
                                   5677 ;./exsoccer.c:1210: case DIRECTION_RIGHT:
    00001E34                       5678 00104$:
                                   5679 ;./exsoccer.c:1211: patternId=PLAYER_POSE_RIGHT;
    00001E34 0E 9D            [ 7] 5680 	ld	c, #0x9d
                                   5681 ;./exsoccer.c:1212: break;
    00001E36 C3r4Ar1E         [10] 5682 	jp	00109$
                                   5683 ;./exsoccer.c:1213: case DIRECTION_UP_LEFT:
    00001E39                       5684 00105$:
                                   5685 ;./exsoccer.c:1214: patternId=PLAYER_POSE_MOVE_UP_LEFT_2;
    00001E39 0E 82            [ 7] 5686 	ld	c, #0x82
                                   5687 ;./exsoccer.c:1215: break;
    00001E3B C3r4Ar1E         [10] 5688 	jp	00109$
                                   5689 ;./exsoccer.c:1216: case DIRECTION_UP_RIGHT:
    00001E3E                       5690 00106$:
                                   5691 ;./exsoccer.c:1217: patternId=PLAYER_POSE_MOVE_UP_RIGHT_1;
    00001E3E 0E 0D            [ 7] 5692 	ld	c, #0x0d
                                   5693 ;./exsoccer.c:1218: break;
    00001E40 C3r4Ar1E         [10] 5694 	jp	00109$
                                   5695 ;./exsoccer.c:1219: case DIRECTION_DOWN_LEFT:
    00001E43                       5696 00107$:
                                   5697 ;./exsoccer.c:1220: patternId=PLAYER_POSE_MOVE_DOWN_LEFT_1;
    00001E43 0E 09            [ 7] 5698 	ld	c, #0x09
                                   5699 ;./exsoccer.c:1221: break;
    00001E45 C3r4Ar1E         [10] 5700 	jp	00109$
                                   5701 ;./exsoccer.c:1222: case DIRECTION_DOWN_RIGHT:
    00001E48                       5702 00108$:
                                   5703 ;./exsoccer.c:1223: patternId=PLAYER_POSE_MOVE_DOWN_RIGHT_2;
    00001E48 0E 86            [ 7] 5704 	ld	c, #0x86
                                   5705 ;./exsoccer.c:1225: }
    00001E4A                       5706 00109$:
                                   5707 ;./exsoccer.c:1226: return patternId;
    00001E4A 79               [ 4] 5708 	ld	a, c
                                   5709 ;./exsoccer.c:1227: }
    00001E4B C9               [10] 5710 	ret
                                   5711 ;./exsoccer.c:1229: u8 GetNewPoseByDirection(u8 direction){
                                   5712 ;	---------------------------------
                                   5713 ; Function GetNewPoseByDirection
                                   5714 ; ---------------------------------
    00001E4C                       5715 _GetNewPoseByDirection::
    00001E4C 5F               [ 4] 5716 	ld	e, a
                                   5717 ;./exsoccer.c:1230: u8 pose=NO_VALUE;
    00001E4D 0E FF            [ 7] 5718 	ld	c, #0xff
                                   5719 ;./exsoccer.c:1231: switch (direction)
    00001E4F 3E 08            [ 7] 5720 	ld	a, #0x08
    00001E51 93               [ 4] 5721 	sub	a, e
    00001E52 38 49            [12] 5722 	jr	C, 00109$
    00001E54 16 00            [ 7] 5723 	ld	d, #0x00
    00001E56 21r5Dr1E         [10] 5724 	ld	hl, #00117$
    00001E59 19               [11] 5725 	add	hl, de
    00001E5A 19               [11] 5726 	add	hl, de
    00001E5B 19               [11] 5727 	add	hl, de
    00001E5C E9               [ 4] 5728 	jp	(hl)
    00001E5D                       5729 00117$:
    00001E5D C3r9Dr1E         [10] 5730 	jp	00109$
    00001E60 C3r7Dr1E         [10] 5731 	jp	00102$
    00001E63 C3r8Cr1E         [10] 5732 	jp	00105$
    00001E66 C3r87r1E         [10] 5733 	jp	00104$
    00001E69 C3r91r1E         [10] 5734 	jp	00106$
    00001E6C C3r78r1E         [10] 5735 	jp	00101$
    00001E6F C3r9Br1E         [10] 5736 	jp	00108$
    00001E72 C3r82r1E         [10] 5737 	jp	00103$
    00001E75 C3r96r1E         [10] 5738 	jp	00107$
                                   5739 ;./exsoccer.c:1233: case DIRECTION_DOWN:
    00001E78                       5740 00101$:
                                   5741 ;./exsoccer.c:1234: pose=PLAYER_POSE_MOVE_DOWN_1;
    00001E78 0E 00            [ 7] 5742 	ld	c, #0x00
                                   5743 ;./exsoccer.c:1235: break;
    00001E7A C3r9Dr1E         [10] 5744 	jp	00109$
                                   5745 ;./exsoccer.c:1236: case DIRECTION_UP:
    00001E7D                       5746 00102$:
                                   5747 ;./exsoccer.c:1237: pose=PLAYER_POSE_MOVE_UP_1;
    00001E7D 0E 02            [ 7] 5748 	ld	c, #0x02
                                   5749 ;./exsoccer.c:1238: break;
    00001E7F C3r9Dr1E         [10] 5750 	jp	00109$
                                   5751 ;./exsoccer.c:1239: case DIRECTION_LEFT:
    00001E82                       5752 00103$:
                                   5753 ;./exsoccer.c:1240: pose=PLAYER_POSE_MOVE_LEFT_1;
    00001E82 0E 05            [ 7] 5754 	ld	c, #0x05
                                   5755 ;./exsoccer.c:1241: break;	
    00001E84 C3r9Dr1E         [10] 5756 	jp	00109$
                                   5757 ;./exsoccer.c:1242: case DIRECTION_RIGHT:
    00001E87                       5758 00104$:
                                   5759 ;./exsoccer.c:1243: pose=PLAYER_POSE_MOVE_RIGHT_1;
    00001E87 0E 89            [ 7] 5760 	ld	c, #0x89
                                   5761 ;./exsoccer.c:1244: break;	
    00001E89 C3r9Dr1E         [10] 5762 	jp	00109$
                                   5763 ;./exsoccer.c:1245: case DIRECTION_UP_RIGHT:
    00001E8C                       5764 00105$:
                                   5765 ;./exsoccer.c:1246: pose=PLAYER_POSE_MOVE_UP_RIGHT_1;
    00001E8C 0E 0D            [ 7] 5766 	ld	c, #0x0d
                                   5767 ;./exsoccer.c:1247: break;	
    00001E8E C3r9Dr1E         [10] 5768 	jp	00109$
                                   5769 ;./exsoccer.c:1248: case DIRECTION_DOWN_RIGHT:
    00001E91                       5770 00106$:
                                   5771 ;./exsoccer.c:1249: pose=PLAYER_POSE_MOVE_DOWN_RIGHT_1;
    00001E91 0E 85            [ 7] 5772 	ld	c, #0x85
                                   5773 ;./exsoccer.c:1250: break;	
    00001E93 C3r9Dr1E         [10] 5774 	jp	00109$
                                   5775 ;./exsoccer.c:1251: case DIRECTION_UP_LEFT:
    00001E96                       5776 00107$:
                                   5777 ;./exsoccer.c:1252: pose=PLAYER_POSE_MOVE_UP_LEFT_1;
    00001E96 0E 83            [ 7] 5778 	ld	c, #0x83
                                   5779 ;./exsoccer.c:1253: break;	
    00001E98 C3r9Dr1E         [10] 5780 	jp	00109$
                                   5781 ;./exsoccer.c:1254: case DIRECTION_DOWN_LEFT:
    00001E9B                       5782 00108$:
                                   5783 ;./exsoccer.c:1255: pose=PLAYER_POSE_MOVE_DOWN_LEFT_1;
    00001E9B 0E 09            [ 7] 5784 	ld	c, #0x09
                                   5785 ;./exsoccer.c:1257: }
    00001E9D                       5786 00109$:
                                   5787 ;./exsoccer.c:1258: return pose;
    00001E9D 79               [ 4] 5788 	ld	a, c
                                   5789 ;./exsoccer.c:1259: }
    00001E9E C9               [10] 5790 	ret
                                   5791 ;./exsoccer.c:1261: u8 GetPatternIdByPoseAndDirection(u8 playerId){
                                   5792 ;	---------------------------------
                                   5793 ; Function GetPatternIdByPoseAndDirection
                                   5794 ; ---------------------------------
    00001E9F                       5795 _GetPatternIdByPoseAndDirection::
    00001E9F 5F               [ 4] 5796 	ld	e, a
                                   5797 ;./exsoccer.c:1262: u8 pose=g_Players[playerId].LastPose;
    00001EA0 01r06r00         [10] 5798 	ld	bc, #_g_Players+0
    00001EA3 16 00            [ 7] 5799 	ld	d, #0x00
    00001EA5 6B               [ 4] 5800 	ld	l, e
    00001EA6 62               [ 4] 5801 	ld	h, d
    00001EA7 29               [11] 5802 	add	hl, hl
    00001EA8 29               [11] 5803 	add	hl, hl
    00001EA9 29               [11] 5804 	add	hl, hl
    00001EAA 29               [11] 5805 	add	hl, hl
    00001EAB 19               [11] 5806 	add	hl, de
    00001EAC 09               [11] 5807 	add	hl, bc
    00001EAD EB               [ 4] 5808 	ex	de, hl
    00001EAE D5               [11] 5809 	push	de
    00001EAF FD E1            [14] 5810 	pop	iy
    00001EB1 FD 4E 08         [19] 5811 	ld	c, 8 (iy)
                                   5812 ;./exsoccer.c:1263: u8 direction=g_Players[playerId].Direction;
    00001EB4 21 06 00         [10] 5813 	ld	hl, #6
    00001EB7 19               [11] 5814 	add	hl, de
    00001EB8 46               [ 7] 5815 	ld	b, (hl)
                                   5816 ;./exsoccer.c:1264: u8 patternId=NO_VALUE;
    00001EB9 1E FF            [ 7] 5817 	ld	e, #0xff
                                   5818 ;./exsoccer.c:1265: switch(direction){
    00001EBB 3E 08            [ 7] 5819 	ld	a, #0x08
    00001EBD 90               [ 4] 5820 	sub	a, b
    00001EBE DAr57r1F         [10] 5821 	jp	C, 00134$
    00001EC1 58               [ 4] 5822 	ld	e, b
    00001EC2 16 00            [ 7] 5823 	ld	d, #0x00
    00001EC4 21rCBr1E         [10] 5824 	ld	hl, #00182$
    00001EC7 19               [11] 5825 	add	hl, de
    00001EC8 19               [11] 5826 	add	hl, de
    00001EC9 19               [11] 5827 	add	hl, de
    00001ECA E9               [ 4] 5828 	jp	(hl)
    00001ECB                       5829 00182$:
    00001ECB C3rE6r1E         [10] 5830 	jp	00101$
    00001ECE C3rEEr1E         [10] 5831 	jp	00102$
    00001ED1 C3r41r1F         [10] 5832 	jp	00126$
    00001ED4 C3r17r1F         [10] 5833 	jp	00114$
    00001ED7 C3r4Fr1F         [10] 5834 	jp	00130$
    00001EDA C3rFCr1E         [10] 5835 	jp	00106$
    00001EDD C3r33r1F         [10] 5836 	jp	00122$
    00001EE0 C3r09r1F         [10] 5837 	jp	00110$
    00001EE3 C3r25r1F         [10] 5838 	jp	00118$
                                   5839 ;./exsoccer.c:1266: case DIRECTION_NONE:
    00001EE6                       5840 00101$:
                                   5841 ;./exsoccer.c:1267: patternId=GetNoMovingPlayerPatternId(direction);
    00001EE6 78               [ 4] 5842 	ld	a, b
    00001EE7 CDrF9r1D         [17] 5843 	call	_GetNoMovingPlayerPatternId
    00001EEA 5F               [ 4] 5844 	ld	e, a
                                   5845 ;./exsoccer.c:1268: break;
    00001EEB C3r57r1F         [10] 5846 	jp	00134$
                                   5847 ;./exsoccer.c:1269: case DIRECTION_UP:
    00001EEE                       5848 00102$:
                                   5849 ;./exsoccer.c:1270: if(pose==0){
    00001EEE 79               [ 4] 5850 	ld	a, c
    00001EEF B7               [ 4] 5851 	or	a, a
    00001EF0 20 05            [12] 5852 	jr	NZ, 00104$
                                   5853 ;./exsoccer.c:1271: patternId=PLAYER_POSE_MOVE_UP_1;
    00001EF2 1E 02            [ 7] 5854 	ld	e, #0x02
    00001EF4 C3r57r1F         [10] 5855 	jp	00134$
    00001EF7                       5856 00104$:
                                   5857 ;./exsoccer.c:1274: patternId=PLAYER_POSE_MOVE_UP_2;
    00001EF7 1E 03            [ 7] 5858 	ld	e, #0x03
                                   5859 ;./exsoccer.c:1276: break;
    00001EF9 C3r57r1F         [10] 5860 	jp	00134$
                                   5861 ;./exsoccer.c:1277: case DIRECTION_DOWN:
    00001EFC                       5862 00106$:
                                   5863 ;./exsoccer.c:1278: if(pose==0){
    00001EFC 79               [ 4] 5864 	ld	a, c
                                   5865 ;./exsoccer.c:1279: patternId=PLAYER_POSE_MOVE_DOWN_1;
    00001EFD B7               [ 4] 5866 	or	a,a
    00001EFE 20 04            [12] 5867 	jr	NZ, 00108$
    00001F00 5F               [ 4] 5868 	ld	e,a
    00001F01 C3r57r1F         [10] 5869 	jp	00134$
    00001F04                       5870 00108$:
                                   5871 ;./exsoccer.c:1282: patternId=PLAYER_POSE_MOVE_DOWN_2;
    00001F04 1E 01            [ 7] 5872 	ld	e, #0x01
                                   5873 ;./exsoccer.c:1284: break;
    00001F06 C3r57r1F         [10] 5874 	jp	00134$
                                   5875 ;./exsoccer.c:1285: case DIRECTION_LEFT:
    00001F09                       5876 00110$:
                                   5877 ;./exsoccer.c:1286: if(pose==0){
    00001F09 79               [ 4] 5878 	ld	a, c
    00001F0A B7               [ 4] 5879 	or	a, a
    00001F0B 20 05            [12] 5880 	jr	NZ, 00112$
                                   5881 ;./exsoccer.c:1287: patternId=PLAYER_POSE_MOVE_LEFT_1;
    00001F0D 1E 05            [ 7] 5882 	ld	e, #0x05
    00001F0F C3r57r1F         [10] 5883 	jp	00134$
    00001F12                       5884 00112$:
                                   5885 ;./exsoccer.c:1290: patternId=PLAYER_POSE_MOVE_LEFT_2;
    00001F12 1E 06            [ 7] 5886 	ld	e, #0x06
                                   5887 ;./exsoccer.c:1292: break;
    00001F14 C3r57r1F         [10] 5888 	jp	00134$
                                   5889 ;./exsoccer.c:1293: case DIRECTION_RIGHT:
    00001F17                       5890 00114$:
                                   5891 ;./exsoccer.c:1294: if(pose==0){
    00001F17 79               [ 4] 5892 	ld	a, c
    00001F18 B7               [ 4] 5893 	or	a, a
    00001F19 20 05            [12] 5894 	jr	NZ, 00116$
                                   5895 ;./exsoccer.c:1295: patternId=PLAYER_POSE_MOVE_RIGHT_1;
    00001F1B 1E 89            [ 7] 5896 	ld	e, #0x89
    00001F1D C3r57r1F         [10] 5897 	jp	00134$
    00001F20                       5898 00116$:
                                   5899 ;./exsoccer.c:1298: patternId=PLAYER_POSE_MOVE_RIGHT_2;
    00001F20 1E 8A            [ 7] 5900 	ld	e, #0x8a
                                   5901 ;./exsoccer.c:1300: break;
    00001F22 C3r57r1F         [10] 5902 	jp	00134$
                                   5903 ;./exsoccer.c:1301: case DIRECTION_UP_LEFT:
    00001F25                       5904 00118$:
                                   5905 ;./exsoccer.c:1302: if(pose==0){
    00001F25 79               [ 4] 5906 	ld	a, c
    00001F26 B7               [ 4] 5907 	or	a, a
    00001F27 20 05            [12] 5908 	jr	NZ, 00120$
                                   5909 ;./exsoccer.c:1303: patternId=PLAYER_POSE_MOVE_UP_LEFT_1;
    00001F29 1E 83            [ 7] 5910 	ld	e, #0x83
    00001F2B C3r57r1F         [10] 5911 	jp	00134$
    00001F2E                       5912 00120$:
                                   5913 ;./exsoccer.c:1306: patternId=PLAYER_POSE_MOVE_UP_LEFT_2;
    00001F2E 1E 82            [ 7] 5914 	ld	e, #0x82
                                   5915 ;./exsoccer.c:1308: break;
    00001F30 C3r57r1F         [10] 5916 	jp	00134$
                                   5917 ;./exsoccer.c:1309: case DIRECTION_DOWN_LEFT:
    00001F33                       5918 00122$:
                                   5919 ;./exsoccer.c:1310: if(pose==0){
    00001F33 79               [ 4] 5920 	ld	a, c
    00001F34 B7               [ 4] 5921 	or	a, a
    00001F35 20 05            [12] 5922 	jr	NZ, 00124$
                                   5923 ;./exsoccer.c:1311: patternId=PLAYER_POSE_MOVE_DOWN_LEFT_1;
    00001F37 1E 09            [ 7] 5924 	ld	e, #0x09
    00001F39 C3r57r1F         [10] 5925 	jp	00134$
    00001F3C                       5926 00124$:
                                   5927 ;./exsoccer.c:1314: patternId=PLAYER_POSE_MOVE_DOWN_LEFT_2;
    00001F3C 1E 0A            [ 7] 5928 	ld	e, #0x0a
                                   5929 ;./exsoccer.c:1316: break;
    00001F3E C3r57r1F         [10] 5930 	jp	00134$
                                   5931 ;./exsoccer.c:1317: case DIRECTION_UP_RIGHT:
    00001F41                       5932 00126$:
                                   5933 ;./exsoccer.c:1318: if(pose==0){
    00001F41 79               [ 4] 5934 	ld	a, c
    00001F42 B7               [ 4] 5935 	or	a, a
    00001F43 20 05            [12] 5936 	jr	NZ, 00128$
                                   5937 ;./exsoccer.c:1319: patternId=PLAYER_POSE_MOVE_UP_RIGHT_1;
    00001F45 1E 0D            [ 7] 5938 	ld	e, #0x0d
    00001F47 C3r57r1F         [10] 5939 	jp	00134$
    00001F4A                       5940 00128$:
                                   5941 ;./exsoccer.c:1322: patternId=PLAYER_POSE_MOVE_UP_RIGHT_2;
    00001F4A 1E 0E            [ 7] 5942 	ld	e, #0x0e
                                   5943 ;./exsoccer.c:1324: break;
    00001F4C C3r57r1F         [10] 5944 	jp	00134$
                                   5945 ;./exsoccer.c:1325: case DIRECTION_DOWN_RIGHT:
    00001F4F                       5946 00130$:
                                   5947 ;./exsoccer.c:1326: if(pose==0){
    00001F4F 79               [ 4] 5948 	ld	a, c
    00001F50 B7               [ 4] 5949 	or	a, a
                                   5950 ;./exsoccer.c:1327: patternId=PLAYER_POSE_MOVE_DOWN_RIGHT_1;
                                   5951 ;./exsoccer.c:1330: patternId=PLAYER_POSE_MOVE_DOWN_RIGHT_2;
                                   5952 ;./exsoccer.c:1333: }
    00001F51 1E 85            [ 7] 5953 	ld	e, #0x85
    00001F53 28 02            [12] 5954 	jr	Z, 00134$
    00001F55 1E 86            [ 7] 5955 	ld	e, #0x86
    00001F57                       5956 00134$:
                                   5957 ;./exsoccer.c:1334: return patternId;
    00001F57 7B               [ 4] 5958 	ld	a, e
                                   5959 ;./exsoccer.c:1335: }
    00001F58 C9               [10] 5960 	ret
                                   5961 ;./exsoccer.c:1336: void SetPlayerTarget(u8 playerId){
                                   5962 ;	---------------------------------
                                   5963 ; Function SetPlayerTarget
                                   5964 ; ---------------------------------
    00001F59                       5965 _SetPlayerTarget::
    00001F59 DD E5            [15] 5966 	push	ix
    00001F5B DD 21 00 00      [14] 5967 	ld	ix,#0
    00001F5F DD 39            [15] 5968 	add	ix,sp
    00001F61 3B               [ 6] 5969 	dec	sp
    00001F62 4F               [ 4] 5970 	ld	c, a
                                   5971 ;./exsoccer.c:1337: if(g_FieldScrollingActionInProgress!=NO_VALUE && g_MatchStatus!=MATCH_BEFORE_KICK_OFF){
    00001F63 3Ar04r00         [13] 5972 	ld	a, (_g_MatchStatus+0)
    00001F66 3D               [ 4] 5973 	dec	a
    00001F67 3E 01            [ 7] 5974 	ld	a, #0x01
    00001F69 28 01            [12] 5975 	jr	Z, 00198$
    00001F6B AF               [ 4] 5976 	xor	a, a
    00001F6C                       5977 00198$:
    00001F6C 5F               [ 4] 5978 	ld	e, a
    00001F6D 3Ar02r00         [13] 5979 	ld	a, (_g_FieldScrollingActionInProgress+0)
    00001F70 3C               [ 4] 5980 	inc	a
    00001F71 28 05            [12] 5981 	jr	Z, 00102$
    00001F73 CB 43            [ 8] 5982 	bit	0, e
                                   5983 ;./exsoccer.c:1338: return;
    00001F75 CAr51r21         [10] 5984 	jp	Z,00140$
    00001F78                       5985 00102$:
                                   5986 ;./exsoccer.c:1340: switch(g_MatchStatus){
    00001F78 7B               [ 4] 5987 	ld	a, e
    00001F79 B7               [ 4] 5988 	or	a, a
    00001F7A CAr51r21         [10] 5989 	jp	Z, 00140$
                                   5990 ;./exsoccer.c:1342: if(g_Players[playerId].TeamId==REFEREE){
    00001F7D 11r06r00         [10] 5991 	ld	de, #_g_Players+0
    00001F80 06 00            [ 7] 5992 	ld	b, #0x00
    00001F82 69               [ 4] 5993 	ld	l, c
    00001F83 60               [ 4] 5994 	ld	h, b
    00001F84 29               [11] 5995 	add	hl, hl
    00001F85 29               [11] 5996 	add	hl, hl
    00001F86 29               [11] 5997 	add	hl, hl
    00001F87 29               [11] 5998 	add	hl, hl
    00001F88 09               [11] 5999 	add	hl, bc
    00001F89 19               [11] 6000 	add	hl, de
    00001F8A EB               [ 4] 6001 	ex	de, hl
    00001F8B D5               [11] 6002 	push	de
    00001F8C FD E1            [14] 6003 	pop	iy
    00001F8E FD 4E 05         [19] 6004 	ld	c, 5 (iy)
    00001F91 79               [ 4] 6005 	ld	a, c
    00001F92 D6 0E            [ 7] 6006 	sub	a, #0x0e
    00001F94 20 15            [12] 6007 	jr	NZ, 00137$
                                   6008 ;./exsoccer.c:1344: g_Players[playerId].TargetX=FIELD_POS_X_CENTER - 30; 
    00001F96 21 0C 00         [10] 6009 	ld	hl, #0x000c
    00001F99 19               [11] 6010 	add	hl, de
    00001F9A 36 5A            [10] 6011 	ld	(hl), #0x5a
    00001F9C 23               [ 6] 6012 	inc	hl
    00001F9D 36 00            [10] 6013 	ld	(hl), #0x00
                                   6014 ;./exsoccer.c:1345: g_Players[playerId].TargetY=FIELD_POS_Y_CENTER - 40; 
    00001F9F 21 0A 00         [10] 6015 	ld	hl, #0x000a
    00001FA2 19               [11] 6016 	add	hl, de
    00001FA3 36 CB            [10] 6017 	ld	(hl), #0xcb
    00001FA5 23               [ 6] 6018 	inc	hl
    00001FA6 36 00            [10] 6019 	ld	(hl), #0x00
    00001FA8 C3r51r21         [10] 6020 	jp	00140$
    00001FAB                       6021 00137$:
                                   6022 ;./exsoccer.c:1349: switch (g_Players[playerId].Role)
    00001FAB D5               [11] 6023 	push	de
    00001FAC FD E1            [14] 6024 	pop	iy
    00001FAE FD 7E 09         [19] 6025 	ld	a, 9 (iy)
    00001FB1 DD 77 FF         [19] 6026 	ld	-1 (ix), a
    00001FB4 3E 06            [ 7] 6027 	ld	a, #0x06
    00001FB6 DD 96 FF         [19] 6028 	sub	a, -1 (ix)
    00001FB9 3E 00            [ 7] 6029 	ld	a, #0x00
    00001FBB 17               [ 4] 6030 	rla
    00001FBC 6F               [ 4] 6031 	ld	l, a
                                   6032 ;	spillPairReg hl
                                   6033 ;	spillPairReg hl
                                   6034 ;./exsoccer.c:1348: if(g_Players[playerId].TeamId==TEAM_1){
    00001FBD 0D               [ 4] 6035 	dec	c
    00001FBE C2r8Dr20         [10] 6036 	jp	NZ,00134$
                                   6037 ;./exsoccer.c:1349: switch (g_Players[playerId].Role)
    00001FC1 7D               [ 4] 6038 	ld	a, l
    00001FC2 B7               [ 4] 6039 	or	a, a
    00001FC3 C2r51r21         [10] 6040 	jp	NZ, 00140$
                                   6041 ;./exsoccer.c:1344: g_Players[playerId].TargetX=FIELD_POS_X_CENTER - 30; 
    00001FC6 21 0C 00         [10] 6042 	ld	hl, #0x000c
    00001FC9 19               [11] 6043 	add	hl, de
    00001FCA 4D               [ 4] 6044 	ld	c, l
    00001FCB 44               [ 4] 6045 	ld	b, h
                                   6046 ;./exsoccer.c:1345: g_Players[playerId].TargetY=FIELD_POS_Y_CENTER - 40; 
    00001FCC 21 0A 00         [10] 6047 	ld	hl, #0x000a
    00001FCF 19               [11] 6048 	add	hl, de
                                   6049 ;./exsoccer.c:1349: switch (g_Players[playerId].Role)
    00001FD0 E5               [11] 6050 	push	hl
    00001FD1 DD 5E FF         [19] 6051 	ld	e, -1 (ix)
    00001FD4 16 00            [ 7] 6052 	ld	d, #0x00
    00001FD6 21rDEr1F         [10] 6053 	ld	hl, #00204$
    00001FD9 19               [11] 6054 	add	hl, de
    00001FDA 19               [11] 6055 	add	hl, de
    00001FDB 19               [11] 6056 	add	hl, de
    00001FDC D1               [10] 6057 	pop	de
    00001FDD E9               [ 4] 6058 	jp	(hl)
    00001FDE                       6059 00204$:
    00001FDE C3rF3r1F         [10] 6060 	jp	00105$
    00001FE1 C3r03r20         [10] 6061 	jp	00106$
    00001FE4 C3r13r20         [10] 6062 	jp	00107$
    00001FE7 C3r23r20         [10] 6063 	jp	00108$
    00001FEA C3r48r20         [10] 6064 	jp	00112$
    00001FED C3r6Dr20         [10] 6065 	jp	00116$
    00001FF0 C3r7Dr20         [10] 6066 	jp	00117$
                                   6067 ;./exsoccer.c:1351: case PLAYER_ROLE_GOALKEEPER:
    00001FF3                       6068 00105$:
                                   6069 ;./exsoccer.c:1352: g_Players[playerId].TargetX=FIELD_POS_X_CENTER;
    00001FF3 3E 78            [ 7] 6070 	ld	a, #0x78
    00001FF5 02               [ 7] 6071 	ld	(bc), a
    00001FF6 03               [ 6] 6072 	inc	bc
    00001FF7 AF               [ 4] 6073 	xor	a, a
    00001FF8 02               [ 7] 6074 	ld	(bc), a
                                   6075 ;./exsoccer.c:1353: g_Players[playerId].TargetY=FIELD_POS_Y_TEAM1_GOALKEEPER;
    00001FF9 3E A8            [ 7] 6076 	ld	a, #0xa8
    00001FFB 12               [ 7] 6077 	ld	(de), a
    00001FFC 13               [ 6] 6078 	inc	de
    00001FFD 3E 01            [ 7] 6079 	ld	a, #0x01
    00001FFF 12               [ 7] 6080 	ld	(de), a
                                   6081 ;./exsoccer.c:1354: break;
    00002000 C3r51r21         [10] 6082 	jp	00140$
                                   6083 ;./exsoccer.c:1355: case PLAYER_ROLE_LEFT_DEFENDER:
    00002003                       6084 00106$:
                                   6085 ;./exsoccer.c:1356: g_Players[playerId].TargetX=FIELD_POS_X_LEFT;
    00002003 3E 28            [ 7] 6086 	ld	a, #0x28
    00002005 02               [ 7] 6087 	ld	(bc), a
    00002006 03               [ 6] 6088 	inc	bc
    00002007 AF               [ 4] 6089 	xor	a, a
    00002008 02               [ 7] 6090 	ld	(bc), a
                                   6091 ;./exsoccer.c:1357: g_Players[playerId].TargetY=FIELD_POS_Y_TEAM1_DEFENDERS;
    00002009 3E 76            [ 7] 6092 	ld	a, #0x76
    0000200B 12               [ 7] 6093 	ld	(de), a
    0000200C 13               [ 6] 6094 	inc	de
    0000200D 3E 01            [ 7] 6095 	ld	a, #0x01
    0000200F 12               [ 7] 6096 	ld	(de), a
                                   6097 ;./exsoccer.c:1358: break;
    00002010 C3r51r21         [10] 6098 	jp	00140$
                                   6099 ;./exsoccer.c:1359: case PLAYER_ROLE_RIGHT_DEFENDER:
    00002013                       6100 00107$:
                                   6101 ;./exsoccer.c:1360: g_Players[playerId].TargetX=FIELD_POS_X_RIGHT;
    00002013 3E C6            [ 7] 6102 	ld	a, #0xc6
    00002015 02               [ 7] 6103 	ld	(bc), a
    00002016 03               [ 6] 6104 	inc	bc
    00002017 AF               [ 4] 6105 	xor	a, a
    00002018 02               [ 7] 6106 	ld	(bc), a
                                   6107 ;./exsoccer.c:1361: g_Players[playerId].TargetY=FIELD_POS_Y_TEAM1_DEFENDERS;
    00002019 3E 76            [ 7] 6108 	ld	a, #0x76
    0000201B 12               [ 7] 6109 	ld	(de), a
    0000201C 13               [ 6] 6110 	inc	de
    0000201D 3E 01            [ 7] 6111 	ld	a, #0x01
    0000201F 12               [ 7] 6112 	ld	(de), a
                                   6113 ;./exsoccer.c:1362: break;
    00002020 C3r51r21         [10] 6114 	jp	00140$
                                   6115 ;./exsoccer.c:1363: case PLAYER_ROLE_LEFT_HALFFIELDER:
    00002023                       6116 00108$:
                                   6117 ;./exsoccer.c:1364: if(g_RestartKickTeamId!=TEAM_1){
    00002023 3Ar23r01         [13] 6118 	ld	a, (_g_RestartKickTeamId+0)
    00002026 3D               [ 4] 6119 	dec	a
    00002027 28 10            [12] 6120 	jr	Z, 00110$
                                   6121 ;./exsoccer.c:1365: g_Players[playerId].TargetX=FIELD_POS_X_LEFT+100;
    00002029 3E 8C            [ 7] 6122 	ld	a, #0x8c
    0000202B 02               [ 7] 6123 	ld	(bc), a
    0000202C 03               [ 6] 6124 	inc	bc
    0000202D AF               [ 4] 6125 	xor	a, a
    0000202E 02               [ 7] 6126 	ld	(bc), a
                                   6127 ;./exsoccer.c:1366: g_Players[playerId].TargetY=FIELD_POS_Y_TEAM1_HALFFIELDERS+40;
    0000202F 3E 44            [ 7] 6128 	ld	a, #0x44
    00002031 12               [ 7] 6129 	ld	(de), a
    00002032 13               [ 6] 6130 	inc	de
    00002033 3E 01            [ 7] 6131 	ld	a, #0x01
    00002035 12               [ 7] 6132 	ld	(de), a
    00002036 C3r51r21         [10] 6133 	jp	00140$
    00002039                       6134 00110$:
                                   6135 ;./exsoccer.c:1369: g_Players[playerId].TargetX=FIELD_POS_X_CENTER-7;
    00002039 3E 71            [ 7] 6136 	ld	a, #0x71
    0000203B 02               [ 7] 6137 	ld	(bc), a
    0000203C 03               [ 6] 6138 	inc	bc
    0000203D AF               [ 4] 6139 	xor	a, a
    0000203E 02               [ 7] 6140 	ld	(bc), a
                                   6141 ;./exsoccer.c:1370: g_Players[playerId].TargetY=FIELD_POS_Y_CENTER;
    0000203F 3E F3            [ 7] 6142 	ld	a, #0xf3
    00002041 12               [ 7] 6143 	ld	(de), a
    00002042 13               [ 6] 6144 	inc	de
    00002043 AF               [ 4] 6145 	xor	a, a
    00002044 12               [ 7] 6146 	ld	(de), a
                                   6147 ;./exsoccer.c:1372: break;
    00002045 C3r51r21         [10] 6148 	jp	00140$
                                   6149 ;./exsoccer.c:1373: case PLAYER_ROLE_RIGHT_HALFFIELDER:
    00002048                       6150 00112$:
                                   6151 ;./exsoccer.c:1374: if(g_RestartKickTeamId!=TEAM_1){
    00002048 3Ar23r01         [13] 6152 	ld	a, (_g_RestartKickTeamId+0)
    0000204B 3D               [ 4] 6153 	dec	a
    0000204C 28 10            [12] 6154 	jr	Z, 00114$
                                   6155 ;./exsoccer.c:1375: g_Players[playerId].TargetX=FIELD_POS_X_RIGHT-100;
    0000204E 3E 62            [ 7] 6156 	ld	a, #0x62
    00002050 02               [ 7] 6157 	ld	(bc), a
    00002051 03               [ 6] 6158 	inc	bc
    00002052 AF               [ 4] 6159 	xor	a, a
    00002053 02               [ 7] 6160 	ld	(bc), a
                                   6161 ;./exsoccer.c:1376: g_Players[playerId].TargetY=FIELD_POS_Y_TEAM1_HALFFIELDERS+40;
    00002054 3E 44            [ 7] 6162 	ld	a, #0x44
    00002056 12               [ 7] 6163 	ld	(de), a
    00002057 13               [ 6] 6164 	inc	de
    00002058 3E 01            [ 7] 6165 	ld	a, #0x01
    0000205A 12               [ 7] 6166 	ld	(de), a
    0000205B C3r51r21         [10] 6167 	jp	00140$
    0000205E                       6168 00114$:
                                   6169 ;./exsoccer.c:1379: g_Players[playerId].TargetX=FIELD_POS_X_CENTER+7;
    0000205E 3E 7F            [ 7] 6170 	ld	a, #0x7f
    00002060 02               [ 7] 6171 	ld	(bc), a
    00002061 03               [ 6] 6172 	inc	bc
    00002062 AF               [ 4] 6173 	xor	a, a
    00002063 02               [ 7] 6174 	ld	(bc), a
                                   6175 ;./exsoccer.c:1380: g_Players[playerId].TargetY=FIELD_POS_Y_CENTER;
    00002064 3E F3            [ 7] 6176 	ld	a, #0xf3
    00002066 12               [ 7] 6177 	ld	(de), a
    00002067 13               [ 6] 6178 	inc	de
    00002068 AF               [ 4] 6179 	xor	a, a
    00002069 12               [ 7] 6180 	ld	(de), a
                                   6181 ;./exsoccer.c:1382: break;
    0000206A C3r51r21         [10] 6182 	jp	00140$
                                   6183 ;./exsoccer.c:1383: case PLAYER_ROLE_LEFT_STRIKER:
    0000206D                       6184 00116$:
                                   6185 ;./exsoccer.c:1384: g_Players[playerId].TargetX=FIELD_POS_X_LEFT;
    0000206D 3E 28            [ 7] 6186 	ld	a, #0x28
    0000206F 02               [ 7] 6187 	ld	(bc), a
    00002070 03               [ 6] 6188 	inc	bc
    00002071 AF               [ 4] 6189 	xor	a, a
    00002072 02               [ 7] 6190 	ld	(bc), a
                                   6191 ;./exsoccer.c:1385: g_Players[playerId].TargetY=FIELD_POS_Y_TEAM1_HALFFIELDERS;
    00002073 3E 1C            [ 7] 6192 	ld	a, #0x1c
    00002075 12               [ 7] 6193 	ld	(de), a
    00002076 13               [ 6] 6194 	inc	de
    00002077 3E 01            [ 7] 6195 	ld	a, #0x01
    00002079 12               [ 7] 6196 	ld	(de), a
                                   6197 ;./exsoccer.c:1386: break;
    0000207A C3r51r21         [10] 6198 	jp	00140$
                                   6199 ;./exsoccer.c:1387: case PLAYER_ROLE_RIGHT_STRIKER:
    0000207D                       6200 00117$:
                                   6201 ;./exsoccer.c:1388: g_Players[playerId].TargetX=FIELD_POS_X_RIGHT;
    0000207D 3E C6            [ 7] 6202 	ld	a, #0xc6
    0000207F 02               [ 7] 6203 	ld	(bc), a
    00002080 03               [ 6] 6204 	inc	bc
    00002081 AF               [ 4] 6205 	xor	a, a
    00002082 02               [ 7] 6206 	ld	(bc), a
                                   6207 ;./exsoccer.c:1389: g_Players[playerId].TargetY=FIELD_POS_Y_TEAM1_HALFFIELDERS;
    00002083 3E 1C            [ 7] 6208 	ld	a, #0x1c
    00002085 12               [ 7] 6209 	ld	(de), a
    00002086 13               [ 6] 6210 	inc	de
    00002087 3E 01            [ 7] 6211 	ld	a, #0x01
    00002089 12               [ 7] 6212 	ld	(de), a
                                   6213 ;./exsoccer.c:1391: }
    0000208A C3r51r21         [10] 6214 	jp	00140$
    0000208D                       6215 00134$:
                                   6216 ;./exsoccer.c:1394: switch (g_Players[playerId].Role)
    0000208D 7D               [ 4] 6217 	ld	a, l
    0000208E B7               [ 4] 6218 	or	a, a
    0000208F C2r51r21         [10] 6219 	jp	NZ, 00140$
                                   6220 ;./exsoccer.c:1344: g_Players[playerId].TargetX=FIELD_POS_X_CENTER - 30; 
    00002092 21 0C 00         [10] 6221 	ld	hl, #0x000c
    00002095 19               [11] 6222 	add	hl, de
    00002096 4D               [ 4] 6223 	ld	c, l
    00002097 44               [ 4] 6224 	ld	b, h
                                   6225 ;./exsoccer.c:1345: g_Players[playerId].TargetY=FIELD_POS_Y_CENTER - 40; 
    00002098 21 0A 00         [10] 6226 	ld	hl, #0x000a
    0000209B 19               [11] 6227 	add	hl, de
                                   6228 ;./exsoccer.c:1394: switch (g_Players[playerId].Role)
    0000209C E5               [11] 6229 	push	hl
    0000209D DD 5E FF         [19] 6230 	ld	e, -1 (ix)
    000020A0 16 00            [ 7] 6231 	ld	d, #0x00
    000020A2 21rAAr20         [10] 6232 	ld	hl, #00207$
    000020A5 19               [11] 6233 	add	hl, de
    000020A6 19               [11] 6234 	add	hl, de
    000020A7 19               [11] 6235 	add	hl, de
    000020A8 D1               [10] 6236 	pop	de
    000020A9 E9               [ 4] 6237 	jp	(hl)
    000020AA                       6238 00207$:
    000020AA C3rBFr20         [10] 6239 	jp	00119$
    000020AD C3rCEr20         [10] 6240 	jp	00120$
    000020B0 C3rDDr20         [10] 6241 	jp	00121$
    000020B3 C3rECr20         [10] 6242 	jp	00122$
    000020B6 C3r11r21         [10] 6243 	jp	00126$
    000020B9 C3r36r21         [10] 6244 	jp	00130$
    000020BC C3r45r21         [10] 6245 	jp	00131$
                                   6246 ;./exsoccer.c:1396: case PLAYER_ROLE_GOALKEEPER:
    000020BF                       6247 00119$:
                                   6248 ;./exsoccer.c:1397: g_Players[playerId].TargetX=FIELD_POS_X_CENTER;
    000020BF 3E 78            [ 7] 6249 	ld	a, #0x78
    000020C1 02               [ 7] 6250 	ld	(bc), a
    000020C2 03               [ 6] 6251 	inc	bc
    000020C3 AF               [ 4] 6252 	xor	a, a
    000020C4 02               [ 7] 6253 	ld	(bc), a
                                   6254 ;./exsoccer.c:1398: g_Players[playerId].TargetY=FIELD_POS_Y_TEAM2_GOALKEEPER;
    000020C5 3E 32            [ 7] 6255 	ld	a, #0x32
    000020C7 12               [ 7] 6256 	ld	(de), a
    000020C8 13               [ 6] 6257 	inc	de
    000020C9 AF               [ 4] 6258 	xor	a, a
    000020CA 12               [ 7] 6259 	ld	(de), a
                                   6260 ;./exsoccer.c:1399: break;
    000020CB C3r51r21         [10] 6261 	jp	00140$
                                   6262 ;./exsoccer.c:1400: case PLAYER_ROLE_LEFT_DEFENDER:
    000020CE                       6263 00120$:
                                   6264 ;./exsoccer.c:1401: g_Players[playerId].TargetX=FIELD_POS_X_LEFT;
    000020CE 3E 28            [ 7] 6265 	ld	a, #0x28
    000020D0 02               [ 7] 6266 	ld	(bc), a
    000020D1 03               [ 6] 6267 	inc	bc
    000020D2 AF               [ 4] 6268 	xor	a, a
    000020D3 02               [ 7] 6269 	ld	(bc), a
                                   6270 ;./exsoccer.c:1402: g_Players[playerId].TargetY=FIELD_POS_Y_TEAM2_DEFENDERS;
    000020D4 3E 82            [ 7] 6271 	ld	a, #0x82
    000020D6 12               [ 7] 6272 	ld	(de), a
    000020D7 13               [ 6] 6273 	inc	de
    000020D8 AF               [ 4] 6274 	xor	a, a
    000020D9 12               [ 7] 6275 	ld	(de), a
                                   6276 ;./exsoccer.c:1403: break;
    000020DA C3r51r21         [10] 6277 	jp	00140$
                                   6278 ;./exsoccer.c:1404: case PLAYER_ROLE_RIGHT_DEFENDER:
    000020DD                       6279 00121$:
                                   6280 ;./exsoccer.c:1405: g_Players[playerId].TargetX=FIELD_POS_X_RIGHT;
    000020DD 3E C6            [ 7] 6281 	ld	a, #0xc6
    000020DF 02               [ 7] 6282 	ld	(bc), a
    000020E0 03               [ 6] 6283 	inc	bc
    000020E1 AF               [ 4] 6284 	xor	a, a
    000020E2 02               [ 7] 6285 	ld	(bc), a
                                   6286 ;./exsoccer.c:1406: g_Players[playerId].TargetY=FIELD_POS_Y_TEAM2_DEFENDERS;
    000020E3 3E 82            [ 7] 6287 	ld	a, #0x82
    000020E5 12               [ 7] 6288 	ld	(de), a
    000020E6 13               [ 6] 6289 	inc	de
    000020E7 AF               [ 4] 6290 	xor	a, a
    000020E8 12               [ 7] 6291 	ld	(de), a
                                   6292 ;./exsoccer.c:1407: break;
    000020E9 C3r51r21         [10] 6293 	jp	00140$
                                   6294 ;./exsoccer.c:1408: case PLAYER_ROLE_LEFT_HALFFIELDER:
    000020EC                       6295 00122$:
                                   6296 ;./exsoccer.c:1409: if(g_RestartKickTeamId!=TEAM_2){
    000020EC 3Ar23r01         [13] 6297 	ld	a, (_g_RestartKickTeamId+0)
    000020EF D6 02            [ 7] 6298 	sub	a, #0x02
    000020F1 28 0F            [12] 6299 	jr	Z, 00124$
                                   6300 ;./exsoccer.c:1410: g_Players[playerId].TargetX=FIELD_POS_X_LEFT+100;
    000020F3 3E 8C            [ 7] 6301 	ld	a, #0x8c
    000020F5 02               [ 7] 6302 	ld	(bc), a
    000020F6 03               [ 6] 6303 	inc	bc
    000020F7 AF               [ 4] 6304 	xor	a, a
    000020F8 02               [ 7] 6305 	ld	(bc), a
                                   6306 ;./exsoccer.c:1411: g_Players[playerId].TargetY=FIELD_POS_Y_TEAM2_HALFFIELDERS-40;
    000020F9 3E B4            [ 7] 6307 	ld	a, #0xb4
    000020FB 12               [ 7] 6308 	ld	(de), a
    000020FC 13               [ 6] 6309 	inc	de
    000020FD AF               [ 4] 6310 	xor	a, a
    000020FE 12               [ 7] 6311 	ld	(de), a
    000020FF C3r51r21         [10] 6312 	jp	00140$
    00002102                       6313 00124$:
                                   6314 ;./exsoccer.c:1414: g_Players[playerId].TargetX=FIELD_POS_X_CENTER-7;
    00002102 3E 71            [ 7] 6315 	ld	a, #0x71
    00002104 02               [ 7] 6316 	ld	(bc), a
    00002105 03               [ 6] 6317 	inc	bc
    00002106 AF               [ 4] 6318 	xor	a, a
    00002107 02               [ 7] 6319 	ld	(bc), a
                                   6320 ;./exsoccer.c:1415: g_Players[playerId].TargetY=FIELD_POS_Y_CENTER-10;
    00002108 3E E9            [ 7] 6321 	ld	a, #0xe9
    0000210A 12               [ 7] 6322 	ld	(de), a
    0000210B 13               [ 6] 6323 	inc	de
    0000210C AF               [ 4] 6324 	xor	a, a
    0000210D 12               [ 7] 6325 	ld	(de), a
                                   6326 ;./exsoccer.c:1417: break;
    0000210E C3r51r21         [10] 6327 	jp	00140$
                                   6328 ;./exsoccer.c:1418: case PLAYER_ROLE_RIGHT_HALFFIELDER:
    00002111                       6329 00126$:
                                   6330 ;./exsoccer.c:1419: if(g_RestartKickTeamId!=TEAM_2){
    00002111 3Ar23r01         [13] 6331 	ld	a, (_g_RestartKickTeamId+0)
    00002114 D6 02            [ 7] 6332 	sub	a, #0x02
    00002116 28 0F            [12] 6333 	jr	Z, 00128$
                                   6334 ;./exsoccer.c:1420: g_Players[playerId].TargetX=FIELD_POS_X_RIGHT-116;
    00002118 3E 52            [ 7] 6335 	ld	a, #0x52
    0000211A 02               [ 7] 6336 	ld	(bc), a
    0000211B 03               [ 6] 6337 	inc	bc
    0000211C AF               [ 4] 6338 	xor	a, a
    0000211D 02               [ 7] 6339 	ld	(bc), a
                                   6340 ;./exsoccer.c:1421: g_Players[playerId].TargetY=FIELD_POS_Y_TEAM2_HALFFIELDERS-40;
    0000211E 3E B4            [ 7] 6341 	ld	a, #0xb4
    00002120 12               [ 7] 6342 	ld	(de), a
    00002121 13               [ 6] 6343 	inc	de
    00002122 AF               [ 4] 6344 	xor	a, a
    00002123 12               [ 7] 6345 	ld	(de), a
    00002124 C3r51r21         [10] 6346 	jp	00140$
    00002127                       6347 00128$:
                                   6348 ;./exsoccer.c:1424: g_Players[playerId].TargetX=FIELD_POS_X_CENTER+7;
    00002127 3E 7F            [ 7] 6349 	ld	a, #0x7f
    00002129 02               [ 7] 6350 	ld	(bc), a
    0000212A 03               [ 6] 6351 	inc	bc
    0000212B AF               [ 4] 6352 	xor	a, a
    0000212C 02               [ 7] 6353 	ld	(bc), a
                                   6354 ;./exsoccer.c:1425: g_Players[playerId].TargetY=FIELD_POS_Y_CENTER-10;
    0000212D 3E E9            [ 7] 6355 	ld	a, #0xe9
    0000212F 12               [ 7] 6356 	ld	(de), a
    00002130 13               [ 6] 6357 	inc	de
    00002131 AF               [ 4] 6358 	xor	a, a
    00002132 12               [ 7] 6359 	ld	(de), a
                                   6360 ;./exsoccer.c:1427: break;
    00002133 C3r51r21         [10] 6361 	jp	00140$
                                   6362 ;./exsoccer.c:1428: case PLAYER_ROLE_LEFT_STRIKER:
    00002136                       6363 00130$:
                                   6364 ;./exsoccer.c:1429: g_Players[playerId].TargetX=FIELD_POS_X_LEFT;
    00002136 3E 28            [ 7] 6365 	ld	a, #0x28
    00002138 02               [ 7] 6366 	ld	(bc), a
    00002139 03               [ 6] 6367 	inc	bc
    0000213A AF               [ 4] 6368 	xor	a, a
    0000213B 02               [ 7] 6369 	ld	(bc), a
                                   6370 ;./exsoccer.c:1430: g_Players[playerId].TargetY=FIELD_POS_Y_TEAM2_HALFFIELDERS;
    0000213C 3E DC            [ 7] 6371 	ld	a, #0xdc
    0000213E 12               [ 7] 6372 	ld	(de), a
    0000213F 13               [ 6] 6373 	inc	de
    00002140 AF               [ 4] 6374 	xor	a, a
    00002141 12               [ 7] 6375 	ld	(de), a
                                   6376 ;./exsoccer.c:1431: break;
    00002142 C3r51r21         [10] 6377 	jp	00140$
                                   6378 ;./exsoccer.c:1432: case PLAYER_ROLE_RIGHT_STRIKER:
    00002145                       6379 00131$:
                                   6380 ;./exsoccer.c:1433: g_Players[playerId].TargetX=FIELD_POS_X_RIGHT;
    00002145 3E C6            [ 7] 6381 	ld	a, #0xc6
    00002147 02               [ 7] 6382 	ld	(bc), a
    00002148 03               [ 6] 6383 	inc	bc
    00002149 AF               [ 4] 6384 	xor	a, a
    0000214A 02               [ 7] 6385 	ld	(bc), a
                                   6386 ;./exsoccer.c:1434: g_Players[playerId].TargetY=FIELD_POS_Y_TEAM2_HALFFIELDERS;
    0000214B 3E DC            [ 7] 6387 	ld	a, #0xdc
    0000214D 12               [ 7] 6388 	ld	(de), a
    0000214E 13               [ 6] 6389 	inc	de
    0000214F AF               [ 4] 6390 	xor	a, a
    00002150 12               [ 7] 6391 	ld	(de), a
                                   6392 ;./exsoccer.c:1441: }
    00002151                       6393 00140$:
                                   6394 ;./exsoccer.c:1442: }
    00002151 33               [ 6] 6395 	inc	sp
    00002152 DD E1            [14] 6396 	pop	ix
    00002154 C9               [10] 6397 	ret
                                   6398 ;./exsoccer.c:1443: void SetPlayerBallPossession(u8 playerId){
                                   6399 ;	---------------------------------
                                   6400 ; Function SetPlayerBallPossession
                                   6401 ; ---------------------------------
    00002155                       6402 _SetPlayerBallPossession::
                                   6403 ;./exsoccer.c:1444: if (playerId == NO_VALUE) {
    00002155 4F               [ 4] 6404 	ld	c, a
    00002156 3C               [ 4] 6405 	inc	a
    00002157 C8               [11] 6406 	ret	Z
                                   6407 ;./exsoccer.c:1449: return;
    00002158 C3r5Br21         [10] 6408 	jp	00102$
    0000215B                       6409 00102$:
                                   6410 ;./exsoccer.c:1452: if(g_Players[playerId].TeamId==TEAM_1){
    0000215B 11r06r00         [10] 6411 	ld	de, #_g_Players+0
    0000215E 06 00            [ 7] 6412 	ld	b, #0x00
    00002160 69               [ 4] 6413 	ld	l, c
    00002161 60               [ 4] 6414 	ld	h, b
    00002162 29               [11] 6415 	add	hl, hl
    00002163 29               [11] 6416 	add	hl, hl
    00002164 29               [11] 6417 	add	hl, hl
    00002165 29               [11] 6418 	add	hl, hl
    00002166 09               [11] 6419 	add	hl, bc
    00002167 19               [11] 6420 	add	hl, de
                                   6421 ;	spillPairReg hl
                                   6422 ;	spillPairReg hl
    00002168 5D               [ 4] 6423 	ld	e, l
    00002169 54               [ 4] 6424 	ld	d, h
                                   6425 ;	spillPairReg hl
                                   6426 ;	spillPairReg hl
    0000216A 23               [ 6] 6427 	inc	hl
    0000216B 23               [ 6] 6428 	inc	hl
    0000216C 23               [ 6] 6429 	inc	hl
    0000216D 23               [ 6] 6430 	inc	hl
    0000216E 23               [ 6] 6431 	inc	hl
    0000216F 7E               [ 7] 6432 	ld	a, (hl)
                                   6433 ;./exsoccer.c:1453: if (g_Players[playerId].Role != PLAYER_ROLE_GOALKEEPER) g_Team1ActivePlayer=playerId;
    00002170 21 09 00         [10] 6434 	ld	hl, #9
    00002173 19               [11] 6435 	add	hl, de
    00002174 46               [ 7] 6436 	ld	b, (hl)
                                   6437 ;./exsoccer.c:1452: if(g_Players[playerId].TeamId==TEAM_1){
    00002175 3D               [ 4] 6438 	dec	a
    00002176 20 0B            [12] 6439 	jr	NZ, 00108$
                                   6440 ;./exsoccer.c:1453: if (g_Players[playerId].Role != PLAYER_ROLE_GOALKEEPER) g_Team1ActivePlayer=playerId;
    00002178 78               [ 4] 6441 	ld	a, b
    00002179 B7               [ 4] 6442 	or	a, a
    0000217A 28 0F            [12] 6443 	jr	Z, 00109$
    0000217C 21r07r00         [10] 6444 	ld	hl, #_g_Team1ActivePlayer
    0000217F 71               [ 7] 6445 	ld	(hl), c
    00002180 C3r8Br21         [10] 6446 	jp	00109$
    00002183                       6447 00108$:
                                   6448 ;./exsoccer.c:1456: if (g_Players[playerId].Role != PLAYER_ROLE_GOALKEEPER) g_Team2ActivePlayer=playerId;
    00002183 78               [ 4] 6449 	ld	a, b
    00002184 B7               [ 4] 6450 	or	a, a
    00002185 28 04            [12] 6451 	jr	Z, 00109$
    00002187 21r08r00         [10] 6452 	ld	hl, #_g_Team2ActivePlayer
    0000218A 71               [ 7] 6453 	ld	(hl), c
    0000218B                       6454 00109$:
                                   6455 ;./exsoccer.c:1459: g_Ball.PossessionTimer = 0; // Reset hold timer
    0000218B 21r21r01         [10] 6456 	ld	hl, #(_g_Ball + 28)
    0000218E 36 00            [10] 6457 	ld	(hl), #0x00
                                   6458 ;./exsoccer.c:1460: }
    00002190 C9               [10] 6459 	ret
                                   6460 	.area _CODE
                                   6461 	.area _INITIALIZER
    00000000                       6462 __xinit__g_FieldCurrentYPosition:
    00000000 00 00                 6463 	.dw #0x0000
    00000002                       6464 __xinit__g_FieldScrollingActionInProgress:
    00000002 00                    6465 	.db #0x00	; 0
    00000003                       6466 __xinit__g_PlayersPositioningPhaseCount:
    00000003 FF                    6467 	.db #0xff	; 255
    00000004                       6468 __xinit__g_MatchStatus:
    00000004 00                    6469 	.db #0x00	; 0
    00000005                       6470 __xinit__g_FieldScrollSpeed:
    00000005 01                    6471 	.db #0x01	; 1
    00000006                       6472 __xinit__g_Timer:
    00000006 FF                    6473 	.db #0xff	; 255
    00000007                       6474 __xinit__g_Team1ActivePlayer:
    00000007 FF                    6475 	.db #0xff	; 255
    00000008                       6476 __xinit__g_Team2ActivePlayer:
    00000008 FF                    6477 	.db #0xff	; 255
    00000009                       6478 __xinit__g_PassTargetPlayer:
    00000009 FF                    6479 	.db #0xff	; 255
    0000000A                       6480 __xinit__g_GameWith2Players:
    0000000A 00                    6481 	.db #0x00	; 0
    0000000B                       6482 __xinit__g_GameLevel:
    0000000B 01                    6483 	.db #0x01	; 1
    0000000C                       6484 __xinit__g_ActionCooldown:
    0000000C 00                    6485 	.db #0x00	; 0
    0000000D                       6486 __xinit__g_ShotCursorX:
    0000000D 78 00                 6487 	.dw #0x0078
    0000000F                       6488 __xinit__g_ShotCursorDir:
    0000000F 04                    6489 	.db #0x04	;  4
    00000010                       6490 __xinit__g_FioBre:
    00000010 00                    6491 	.db #0x00	; 0
    00000011                       6492 __xinit__g_GoalScorerId:
    00000011 FF                    6493 	.db #0xff	; 255
    00000012                       6494 __xinit__g_VSynch:
    00000012 00                    6495 	.db #0x00	; 0
                                   6496 	.area _CABS (ABS)
