                                      1 ;--------------------------------------------------------
                                      2 ; File Created by SDCC : free open source ANSI-C Compiler
                                      3 ; Version 4.2.0 #13081 (MINGW64)
                                      4 ;--------------------------------------------------------
                                      5 	.module exsoccer_s1_b2
                                      6 	.optsdcc -mz80
                                      7 	
                                      8 ;--------------------------------------------------------
                                      9 ; Public variables in this module
                                     10 ;--------------------------------------------------------
                                     11 	.globl _HandleOffside
                                     12 	.globl _GetTeamStats
                                     13 	.globl _PerformPass
                                     14 	.globl _GetClosestPlayerToBall
                                     15 	.globl _GoalkeeperWithBall
                                     16 	.globl _PerformShot
                                     17 	.globl _GetBestPassTarget
                                     18 	.globl _GetNoMovingPlayerPatternId
                                     19 	.globl _SetPlayerBallPossession
                                     20 	.globl _GetPlayerIdByRole
                                     21 	.globl _ClearTextFromLayerA
                                     22 	.globl _IsTeamJoystickTriggerPressed
                                     23 	.globl _GetJoystick2Direction
                                     24 	.globl _GetJoystick1Direction
                                     25 	.globl _ShowFieldZone
                                     26 	.globl _V9_PrintLayerAStringAtPos
                                     27 	.globl _V9_SetPaletteEntry
                                     28 	.globl _V9_SetRegister
                                     29 	.globl _g_SLTSL
                                     30 	.globl _g_GRPACY
                                     31 	.globl _g_GRPACX
                                     32 	.globl _g_LOGOPR
                                     33 	.globl _g_CMASK
                                     34 	.globl _g_CLOC
                                     35 	.globl _g_FNKSTR
                                     36 	.globl _g_ATRBYT
                                     37 	.globl _g_BDRCLR
                                     38 	.globl _g_BAKCLR
                                     39 	.globl _g_FORCLR
                                     40 	.globl _g_CSRX
                                     41 	.globl _g_CSRY
                                     42 	.globl _g_CLIKSW
                                     43 	.globl _g_MLTPAT
                                     44 	.globl _g_MLTATR
                                     45 	.globl _g_MLTCGP
                                     46 	.globl _g_MLTCOL
                                     47 	.globl _g_MLTNAM
                                     48 	.globl _g_GRPPAT
                                     49 	.globl _g_GRPATR
                                     50 	.globl _g_GRPCGP
                                     51 	.globl _g_GRPCOL
                                     52 	.globl _g_GRPNAM
                                     53 	.globl _g_T32PAT
                                     54 	.globl _g_T32ATR
                                     55 	.globl _g_T32CGP
                                     56 	.globl _g_T32COL
                                     57 	.globl _g_T32NAM
                                     58 	.globl _g_TXTPAT
                                     59 	.globl _g_TXTATR
                                     60 	.globl _g_TXTCGP
                                     61 	.globl _g_TXTCOL
                                     62 	.globl _g_TXTNAM
                                     63 	.globl _g_CLMLST
                                     64 	.globl _g_CRTCNT
                                     65 	.globl _g_LINLEN
                                     66 	.globl _g_LINL32
                                     67 	.globl _g_LINL40
                                     68 	.globl _g_Sprites1_palette_fio
                                     69 	.globl _g_Sprites1_palette_bra
                                     70 	.globl _g_Sprites1_palette_gbr
                                     71 	.globl _g_Sprites1_palette_ger
                                     72 	.globl _g_Sprites1_palette_fra
                                     73 	.globl _g_Sprites1_palette_aus
                                     74 	.globl _g_Sprites1_palette_ita
                                     75 	.globl _g_GameFieldLayerBTilesPalette
                                     76 	.globl _g_GameFieldLayerATilesPalette
                                     77 	.globl _g_BDOS
                                     78 	.globl _g_MASTER
                                     79 	.globl _g_RAMAD3
                                     80 	.globl _g_RAMAD2
                                     81 	.globl _g_RAMAD1
                                     82 	.globl _g_RAMAD0
                                     83 	.globl _g_BREAKV
                                     84 	.globl _g_DISKVE
                                     85 	.globl _g_KANJTABLE
                                     86 	.globl _g_STRSRC
                                     87 	.globl _g_SUBRID
                                     88 	.globl _g_CHAR_16
                                     89 	.globl _g_MSXMID
                                     90 	.globl _g_MSXVER
                                     91 	.globl _g_ROMVersion
                                     92 	.globl _g_BASRVN
                                     93 	.globl _g_VDP_DW
                                     94 	.globl _g_VDP_DR
                                     95 	.globl _g_CGTABL
                                     96 	.globl _g_SVFFFD
                                     97 	.globl _g_RG27SAV
                                     98 	.globl _g_RG26SAV
                                     99 	.globl _g_RG25SAV
                                    100 	.globl _g_SVFFF8
                                    101 	.globl _g_MINROM
                                    102 	.globl _g_RG23SAV
                                    103 	.globl _g_RG22SAV
                                    104 	.globl _g_RG21SAV
                                    105 	.globl _g_RG20SAV
                                    106 	.globl _g_RG19SAV
                                    107 	.globl _g_RG18SAV
                                    108 	.globl _g_RG17SAV
                                    109 	.globl _g_RG16SAV
                                    110 	.globl _g_RG15SAV
                                    111 	.globl _g_RG14SAV
                                    112 	.globl _g_RG13SAV
                                    113 	.globl _g_RG12SAV
                                    114 	.globl _g_RG11SAV
                                    115 	.globl _g_RG10SAV
                                    116 	.globl _g_RG09SAV
                                    117 	.globl _g_RG08SAV
                                    118 	.globl _g_PROCNM
                                    119 	.globl _g_SLTWRK
                                    120 	.globl _g_SLTATR
                                    121 	.globl _g_SLTTBL
                                    122 	.globl _g_EXPTBL
                                    123 	.globl _g_MNROM
                                    124 	.globl _g_DRWANG
                                    125 	.globl _g_DRWSCL
                                    126 	.globl _g_DRWFLG
                                    127 	.globl _g_GYPOS
                                    128 	.globl _g_GXPOS
                                    129 	.globl _g_BRDATR
                                    130 	.globl _g_CASPRV
                                    131 	.globl _g_OLDSCR
                                    132 	.globl _g_SCRMOD
                                    133 	.globl _g_FLBMEM
                                    134 	.globl _g_KANAMD
                                    135 	.globl _g_KANAST
                                    136 	.globl _g_CAPST
                                    137 	.globl _g_CSTYLE
                                    138 	.globl _g_CSRSW
                                    139 	.globl _g_INSFLG
                                    140 	.globl _g_ESCCNT
                                    141 	.globl _g_GRPHED
                                    142 	.globl _g_WINWID
                                    143 	.globl _g_LOWLIM
                                    144 	.globl _g_INTCNT
                                    145 	.globl _g_INTVAL
                                    146 	.globl _g_JIFFY
                                    147 	.globl _g_PADX
                                    148 	.globl _g_PADY
                                    149 	.globl _g_INTFLG
                                    150 	.globl _g_RTYCNT
                                    151 	.globl _g_TRPTBL
                                    152 	.globl _g_HIMEM
                                    153 	.globl _g_BOTTOM
                                    154 	.globl _g_PATWRK
                                    155 	.globl _g_LINWRK
                                    156 	.globl _g_KEYBUF
                                    157 	.globl _g_NEWKEY
                                    158 	.globl _g_OLDKEY
                                    159 	.globl _g_CLIKFL
                                    160 	.globl _g_ONGSBF
                                    161 	.globl _g_FNKFLG
                                    162 	.globl _g_FNKSWI
                                    163 	.globl _g_CODSAV
                                    164 	.globl _g_FSTPOS
                                    165 	.globl _g_LINTTB
                                    166 	.globl _g_BASROM
                                    167 	.globl _g_ENSTOP
                                    168 	.globl _g_VCBC
                                    169 	.globl _g_VCBB
                                    170 	.globl _g_VCBA
                                    171 	.globl _g_PLYCNT
                                    172 	.globl _g_MUSICF
                                    173 	.globl _g_QUEUEN
                                    174 	.globl _g_MCLPTR
                                    175 	.globl _g_MCLLEN
                                    176 	.globl _g_SAVVOL
                                    177 	.globl _g_VOICEN
                                    178 	.globl _g_SAVSP
                                    179 	.globl _g_PRSCNT
                                    180 	.globl _g_LSTMOD
                                    181 	.globl _g_LSTCOM
                                    182 	.globl _g_COMMSK
                                    183 	.globl _g_ESTBLS
                                    184 	.globl _g_FLAGS
                                    185 	.globl _g_ERRORS
                                    186 	.globl _g_DATCNT
                                    187 	.globl _g_DEVNUM
                                    188 	.globl _g_OLDINT
                                    189 	.globl _g_OLDSTT
                                    190 	.globl _g_MEXBIh
                                    191 	.globl _g_RSIQLN
                                    192 	.globl _g_RSFCB
                                    193 	.globl _g_TOCNT
                                    194 	.globl _g_RSTMP
                                    195 	.globl _g_YSAVE
                                    196 	.globl _g_XSAVE
                                    197 	.globl _g_NORUSE
                                    198 	.globl _g_MODE
                                    199 	.globl _g_ROMA
                                    200 	.globl _g_CHRCNT
                                    201 	.globl _g_EXBRSA
                                    202 	.globl _g_AVCSAV
                                    203 	.globl _g_ACPAGE
                                    204 	.globl _g_DPPAGE
                                    205 	.globl _g_RS2IQ
                                    206 	.globl _g_VOICCQ
                                    207 	.globl _g_VOICBQ
                                    208 	.globl _g_VOICAQ
                                    209 	.globl _g_QUEBAK
                                    210 	.globl _g_QUETAB
                                    211 	.globl _g_ASPCT2
                                    212 	.globl _g_ASPCT1
                                    213 	.globl _g_HEADER
                                    214 	.globl _g_HIGH
                                    215 	.globl _g_LOW
                                    216 	.globl _g_CS240
                                    217 	.globl _g_CS120
                                    218 	.globl _g_GETPNT
                                    219 	.globl _g_PUTPNT
                                    220 	.globl _g_REPCNT
                                    221 	.globl _g_SCNCNT
                                    222 	.globl _g_FRCNEW
                                    223 	.globl _g_QUEUES
                                    224 	.globl _g_MINUPD
                                    225 	.globl _g_MAXUPD
                                    226 	.globl _g_TRGFLG
                                    227 	.globl _g_STATFL
                                    228 	.globl _g_RG7SAV
                                    229 	.globl _g_RG6SAV
                                    230 	.globl _g_RG5SAV
                                    231 	.globl _g_RG4SAV
                                    232 	.globl _g_RG3SAV
                                    233 	.globl _g_RG2SAV
                                    234 	.globl _g_RG1SAV
                                    235 	.globl _g_RG0SAV
                                    236 	.globl _g_CNSDFG
                                    237 	.globl _g_USRTAB
                                    238 	.globl _g_CLPRIM
                                    239 	.globl _g_WRPRIM
                                    240 	.globl _g_RDPRIM
                                    241 	.globl _GoalKick
                                    242 	.globl _CornerKick
                                    243 	.globl _TickCornerKick
                                    244 	.globl _TickTeamJoystick
                                    245 	.globl _PutBallOnPlayerFeet
                                    246 	.globl _TickBallCollision
                                    247 	.globl _EnforcePenaltyBoxRestriction
                                    248 	.globl _InitPalette
                                    249 	.globl _TickTeamSelection
                                    250 	.globl _SetTeam1Palette
                                    251 	.globl _SetTeam2Palette
                                    252 	.globl _GetTeamPaletteById
                                    253 	.globl _TickShowKickOff
                                    254 	.globl _ResetBallInfo
                                    255 ;--------------------------------------------------------
                                    256 ; special function registers
                                    257 ;--------------------------------------------------------
                         000000A8   258 _g_PortPrimarySlot	=	0x00a8
                         000000A9   259 _g_PortReadKeyboard	=	0x00a9
                         000000AA   260 _g_PortAccessKeyboard	=	0x00aa
                         000000AB   261 _g_PortControl	=	0x00ab
                         00000098   262 _g_VDP_DataPort	=	0x0098
                         00000099   263 _g_VDP_RegPort	=	0x0099
                         00000099   264 _g_VDP_AddrPort	=	0x0099
                         00000099   265 _g_VDP_StatPort	=	0x0099
                         000000A0   266 _g_PSG_RegPort	=	0x00a0
                         000000A1   267 _g_PSG_DataPort	=	0x00a1
                         000000A2   268 _g_PSG_StatPort	=	0x00a2
                         00000010   269 _g_PSG_Ext_RegPort	=	0x0010
                         00000011   270 _g_PSG_Ext_DataPort	=	0x0011
                         00000012   271 _g_PSG_Ext_StatPort	=	0x0012
                         0000007C   272 _g_MSXMusic_IndexPort	=	0x007c
                         0000007D   273 _g_MSXMusic_DataPort	=	0x007d
                         000000C0   274 _g_MSXAudio_IndexPort	=	0x00c0
                         000000C1   275 _g_MSXAudio_DataPort	=	0x00c1
                         000000C2   276 _g_MSXAudio_IndexPort2	=	0x00c2
                         000000C3   277 _g_MSXAudio_DataPort2	=	0x00c3
                         000000B4   278 _g_RTC_AddrPort	=	0x00b4
                         000000B5   279 _g_RTC_DataPort	=	0x00b5
                         00000060   280 _g_V9_VRAMPort	=	0x0060
                         00000061   281 _g_V9_PalettePort	=	0x0061
                         00000062   282 _g_V9_CmdDataPort	=	0x0062
                         00000063   283 _g_V9_RegDataPort	=	0x0063
                         00000064   284 _g_V9_RegSelectPort	=	0x0064
                         00000065   285 _g_V9_SatusPort	=	0x0065
                         00000066   286 _g_V9_IntFlagPort	=	0x0066
                         00000067   287 _g_V9_SysCtrlPort	=	0x0067
                         00000068   288 _g_V9_KanjiAddrLPort	=	0x0068
                         00000069   289 _g_V9_KanjiAddrHPort	=	0x0069
                         00000069   290 _g_V9_KanjiDataPort	=	0x0069
                         0000006A   291 _g_V9_Kanji2AddrLPort	=	0x006a
                         0000006B   292 _g_V9_Kanji2AddrHPort	=	0x006b
                         0000006B   293 _g_V9_Kanji2DataPort	=	0x006b
                         0000006F   294 _g_V9_OutputCtrPort	=	0x006f
                                    295 ;--------------------------------------------------------
                                    296 ; ram data
                                    297 ;--------------------------------------------------------
                                    298 	.area _DATA
                         0000F3AE   299 _g_LINL40	=	0xf3ae
                         0000F3AF   300 _g_LINL32	=	0xf3af
                         0000F3B0   301 _g_LINLEN	=	0xf3b0
                         0000F3B1   302 _g_CRTCNT	=	0xf3b1
                         0000F3B2   303 _g_CLMLST	=	0xf3b2
                         0000F3B3   304 _g_TXTNAM	=	0xf3b3
                         0000F3B5   305 _g_TXTCOL	=	0xf3b5
                         0000F3B7   306 _g_TXTCGP	=	0xf3b7
                         0000F3B9   307 _g_TXTATR	=	0xf3b9
                         0000F3BB   308 _g_TXTPAT	=	0xf3bb
                         0000F3BD   309 _g_T32NAM	=	0xf3bd
                         0000F3BF   310 _g_T32COL	=	0xf3bf
                         0000F3C1   311 _g_T32CGP	=	0xf3c1
                         0000F3C3   312 _g_T32ATR	=	0xf3c3
                         0000F3C5   313 _g_T32PAT	=	0xf3c5
                         0000F3C7   314 _g_GRPNAM	=	0xf3c7
                         0000F3C9   315 _g_GRPCOL	=	0xf3c9
                         0000F3CB   316 _g_GRPCGP	=	0xf3cb
                         0000F3CD   317 _g_GRPATR	=	0xf3cd
                         0000F3CF   318 _g_GRPPAT	=	0xf3cf
                         0000F3D1   319 _g_MLTNAM	=	0xf3d1
                         0000F3D3   320 _g_MLTCOL	=	0xf3d3
                         0000F3D5   321 _g_MLTCGP	=	0xf3d5
                         0000F3D7   322 _g_MLTATR	=	0xf3d7
                         0000F3D9   323 _g_MLTPAT	=	0xf3d9
                         0000F3DB   324 _g_CLIKSW	=	0xf3db
                         0000F3DC   325 _g_CSRY	=	0xf3dc
                         0000F3DD   326 _g_CSRX	=	0xf3dd
                         0000F3E9   327 _g_FORCLR	=	0xf3e9
                         0000F3EA   328 _g_BAKCLR	=	0xf3ea
                         0000F3EB   329 _g_BDRCLR	=	0xf3eb
                         0000F3F2   330 _g_ATRBYT	=	0xf3f2
                         0000F87F   331 _g_FNKSTR	=	0xf87f
                         0000F92A   332 _g_CLOC	=	0xf92a
                         0000F92C   333 _g_CMASK	=	0xf92c
                         0000FB02   334 _g_LOGOPR	=	0xfb02
                         0000FCB7   335 _g_GRPACX	=	0xfcb7
                         0000FCB9   336 _g_GRPACY	=	0xfcb9
                         0000FFFF   337 _g_SLTSL	=	0xffff
    00000000                        338 _TickCornerKick_s_ForceKickTimer_65537_1180:
    00000000                        339 	.ds 2
    00000002                        340 _TickCornerKick_joyMoved_196614_1214:
    00000002                        341 	.ds 1
    00000003                        342 _TickCornerKick_t1Latched_196615_1219:
    00000003                        343 	.ds 1
    00000004                        344 _TickCornerKick_joyMoved_196613_1222:
    00000004                        345 	.ds 1
                                    346 ;--------------------------------------------------------
                                    347 ; ram data
                                    348 ;--------------------------------------------------------
                                    349 	.area _INITIALIZED
                                    350 ;--------------------------------------------------------
                                    351 ; absolute external ram data
                                    352 ;--------------------------------------------------------
                                    353 	.area _DABS (ABS)
                                    354 ;--------------------------------------------------------
                                    355 ; global & static initialisations
                                    356 ;--------------------------------------------------------
                                    357 	.area _HOME
                                    358 	.area _GSINIT
                                    359 	.area _GSFINAL
                                    360 	.area _GSINIT
                                    361 ;E:\Dropbox\FAUSTO\SVILUPPI\MSX\CODE\C\MSXgl\projects\exsoccer/exsoccer_s1_b2.c:195: static u16 s_ForceKickTimer = 0;
    00000000 21 00 00         [10]  362 	ld	hl, #0x0000
    00000003 22r00r00         [16]  363 	ld	(_TickCornerKick_s_ForceKickTimer_65537_1180), hl
                                    364 ;E:\Dropbox\FAUSTO\SVILUPPI\MSX\CODE\C\MSXgl\projects\exsoccer/exsoccer_s1_b2.c:345: static bool joyMoved = false;
    00000006 FD 21r02r00      [14]  365 	ld	iy, #_TickCornerKick_joyMoved_196614_1214
    0000000A FD 36 00 00      [19]  366 	ld	0 (iy), #0x00
                                    367 ;E:\Dropbox\FAUSTO\SVILUPPI\MSX\CODE\C\MSXgl\projects\exsoccer/exsoccer_s1_b2.c:371: static bool t1Latched = false;
    0000000E FD 21r03r00      [14]  368 	ld	iy, #_TickCornerKick_t1Latched_196615_1219
    00000012 FD 36 00 00      [19]  369 	ld	0 (iy), #0x00
                                    370 ;E:\Dropbox\FAUSTO\SVILUPPI\MSX\CODE\C\MSXgl\projects\exsoccer/exsoccer_s1_b2.c:391: static bool joyMoved = false;
    00000016 FD 21r04r00      [14]  371 	ld	iy, #_TickCornerKick_joyMoved_196613_1222
    0000001A FD 36 00 00      [19]  372 	ld	0 (iy), #0x00
                                    373 ;--------------------------------------------------------
                                    374 ; Home
                                    375 ;--------------------------------------------------------
                                    376 	.area _HOME
                                    377 	.area _HOME
                                    378 ;--------------------------------------------------------
                                    379 ; code
                                    380 ;--------------------------------------------------------
                                    381 	.area _SEG1
                                    382 ;E:\Dropbox\FAUSTO\SVILUPPI\MSX\CODE\C\MSXgl\projects\exsoccer/exsoccer_s1_b2.c:43: void GoalKick(u8 teamId){
                                    383 ;	---------------------------------
                                    384 ; Function GoalKick
                                    385 ; ---------------------------------
    00000000                        386 _GoalKick::
    00000000 4F               [ 4]  387 	ld	c, a
                                    388 ;E:\Dropbox\FAUSTO\SVILUPPI\MSX\CODE\C\MSXgl\projects\exsoccer/exsoccer_s1_b2.c:45: V9_PrintLayerAStringAtPos(10,18,"GOAL KICK");
    00000001 C5               [11]  389 	push	bc
    00000002 21r33r00         [10]  390 	ld	hl, #___str_0
    00000005 E5               [11]  391 	push	hl
    00000006 2E 12            [ 7]  392 	ld	l, #0x12
                                    393 ;	spillPairReg hl
                                    394 ;	spillPairReg hl
    00000008 3E 0A            [ 7]  395 	ld	a, #0x0a
    0000000A CDr00r00         [17]  396 	call	_V9_PrintLayerAStringAtPos
    0000000D C1               [10]  397 	pop	bc
                                    398 ;E:\Dropbox\FAUSTO\SVILUPPI\MSX\CODE\C\MSXgl\projects\exsoccer/exsoccer_s1_b2.c:46: g_MatchStatus=MATCH_BEFORE_GOAL_KICK;
    0000000E 21r00r00         [10]  399 	ld	hl, #_g_MatchStatus
    00000011 36 05            [10]  400 	ld	(hl), #0x05
                                    401 ;E:\Dropbox\FAUSTO\SVILUPPI\MSX\CODE\C\MSXgl\projects\exsoccer/exsoccer_s1_b2.c:47: g_RestartKickTeamId = teamId;
    00000013 21r00r00         [10]  402 	ld	hl, #_g_RestartKickTeamId
    00000016 71               [ 7]  403 	ld	(hl), c
                                    404 ;E:\Dropbox\FAUSTO\SVILUPPI\MSX\CODE\C\MSXgl\projects\exsoccer/exsoccer_s1_b2.c:48: g_Timer = 0;
    00000017 21r00r00         [10]  405 	ld	hl, #_g_Timer
    0000001A 36 00            [10]  406 	ld	(hl), #0x00
                                    407 ;E:\Dropbox\FAUSTO\SVILUPPI\MSX\CODE\C\MSXgl\projects\exsoccer/exsoccer_s1_b2.c:51: if (g_Ball.X < FIELD_POS_X_CENTER) g_GoalKickSide = CORNER_SIDE_LEFT;
    0000001C 2Ar02r00         [16]  408 	ld	hl, (#(_g_Ball + 2) + 0)
    0000001F 11 78 00         [10]  409 	ld	de, #0x0078
    00000022 BF               [ 4]  410 	cp	a, a
    00000023 ED 52            [15]  411 	sbc	hl, de
    00000025 30 06            [12]  412 	jr	NC, 00102$
    00000027 21r00r00         [10]  413 	ld	hl, #_g_GoalKickSide
    0000002A 36 00            [10]  414 	ld	(hl), #0x00
    0000002C C9               [10]  415 	ret
    0000002D                        416 00102$:
                                    417 ;E:\Dropbox\FAUSTO\SVILUPPI\MSX\CODE\C\MSXgl\projects\exsoccer/exsoccer_s1_b2.c:52: else g_GoalKickSide = CORNER_SIDE_RIGHT;
    0000002D 21r00r00         [10]  418 	ld	hl, #_g_GoalKickSide
    00000030 36 01            [10]  419 	ld	(hl), #0x01
                                    420 ;E:\Dropbox\FAUSTO\SVILUPPI\MSX\CODE\C\MSXgl\projects\exsoccer/exsoccer_s1_b2.c:53: }
    00000032 C9               [10]  421 	ret
                         0000F380   422 _g_RDPRIM	=	0xf380
                         0000F385   423 _g_WRPRIM	=	0xf385
                         0000F38C   424 _g_CLPRIM	=	0xf38c
                         0000F39A   425 _g_USRTAB	=	0xf39a
                         0000F3DE   426 _g_CNSDFG	=	0xf3de
                         0000F3DF   427 _g_RG0SAV	=	0xf3df
                         0000F3E0   428 _g_RG1SAV	=	0xf3e0
                         0000F3E1   429 _g_RG2SAV	=	0xf3e1
                         0000F3E2   430 _g_RG3SAV	=	0xf3e2
                         0000F3E3   431 _g_RG4SAV	=	0xf3e3
                         0000F3E4   432 _g_RG5SAV	=	0xf3e4
                         0000F3E5   433 _g_RG6SAV	=	0xf3e5
                         0000F3E6   434 _g_RG7SAV	=	0xf3e6
                         0000F3E7   435 _g_STATFL	=	0xf3e7
                         0000F3E8   436 _g_TRGFLG	=	0xf3e8
                         0000F3EC   437 _g_MAXUPD	=	0xf3ec
                         0000F3EF   438 _g_MINUPD	=	0xf3ef
                         0000F3F3   439 _g_QUEUES	=	0xf3f3
                         0000F3F5   440 _g_FRCNEW	=	0xf3f5
                         0000F3F6   441 _g_SCNCNT	=	0xf3f6
                         0000F3F7   442 _g_REPCNT	=	0xf3f7
                         0000F3F8   443 _g_PUTPNT	=	0xf3f8
                         0000F3FA   444 _g_GETPNT	=	0xf3fa
                         0000F3FC   445 _g_CS120	=	0xf3fc
                         0000F401   446 _g_CS240	=	0xf401
                         0000F406   447 _g_LOW	=	0xf406
                         0000F408   448 _g_HIGH	=	0xf408
                         0000F40A   449 _g_HEADER	=	0xf40a
                         0000F40B   450 _g_ASPCT1	=	0xf40b
                         0000F40D   451 _g_ASPCT2	=	0xf40d
                         0000F959   452 _g_QUETAB	=	0xf959
                         0000F971   453 _g_QUEBAK	=	0xf971
                         0000F975   454 _g_VOICAQ	=	0xf975
                         0000F9F5   455 _g_VOICBQ	=	0xf9f5
                         0000FA75   456 _g_VOICCQ	=	0xfa75
                         0000FAF5   457 _g_RS2IQ	=	0xfaf5
                         0000FAF5   458 _g_DPPAGE	=	0xfaf5
                         0000FAF6   459 _g_ACPAGE	=	0xfaf6
                         0000FAF7   460 _g_AVCSAV	=	0xfaf7
                         0000FAF8   461 _g_EXBRSA	=	0xfaf8
                         0000FAF9   462 _g_CHRCNT	=	0xfaf9
                         0000FAFA   463 _g_ROMA	=	0xfafa
                         0000FAFC   464 _g_MODE	=	0xfafc
                         0000FAFD   465 _g_NORUSE	=	0xfafd
                         0000FAFE   466 _g_XSAVE	=	0xfafe
                         0000FB00   467 _g_YSAVE	=	0xfb00
                         0000FB03   468 _g_RSTMP	=	0xfb03
                         0000FB03   469 _g_TOCNT	=	0xfb03
                         0000FB04   470 _g_RSFCB	=	0xfb04
                         0000FB06   471 _g_RSIQLN	=	0xfb06
                         0000FB07   472 _g_MEXBIh	=	0xfb07
                         0000FB0C   473 _g_OLDSTT	=	0xfb0c
                         0000FB0C   474 _g_OLDINT	=	0xfb0c
                         0000FB16   475 _g_DEVNUM	=	0xfb16
                         0000FB17   476 _g_DATCNT	=	0xfb17
                         0000FB1A   477 _g_ERRORS	=	0xfb1a
                         0000FB1B   478 _g_FLAGS	=	0xfb1b
                         0000FB1C   479 _g_ESTBLS	=	0xfb1c
                         0000FB1D   480 _g_COMMSK	=	0xfb1d
                         0000FB1E   481 _g_LSTCOM	=	0xfb1e
                         0000FB1F   482 _g_LSTMOD	=	0xfb1f
                         0000FB35   483 _g_PRSCNT	=	0xfb35
                         0000FB36   484 _g_SAVSP	=	0xfb36
                         0000FB38   485 _g_VOICEN	=	0xfb38
                         0000FB39   486 _g_SAVVOL	=	0xfb39
                         0000FB3B   487 _g_MCLLEN	=	0xfb3b
                         0000FB3C   488 _g_MCLPTR	=	0xfb3c
                         0000FB3E   489 _g_QUEUEN	=	0xfb3e
                         0000FB3F   490 _g_MUSICF	=	0xfb3f
                         0000FB40   491 _g_PLYCNT	=	0xfb40
                         0000FB41   492 _g_VCBA	=	0xfb41
                         0000FB66   493 _g_VCBB	=	0xfb66
                         0000FB8B   494 _g_VCBC	=	0xfb8b
                         0000FBB0   495 _g_ENSTOP	=	0xfbb0
                         0000FBB1   496 _g_BASROM	=	0xfbb1
                         0000FBB2   497 _g_LINTTB	=	0xfbb2
                         0000FBCA   498 _g_FSTPOS	=	0xfbca
                         0000FBCC   499 _g_CODSAV	=	0xfbcc
                         0000FBCD   500 _g_FNKSWI	=	0xfbcd
                         0000FBCE   501 _g_FNKFLG	=	0xfbce
                         0000FBD8   502 _g_ONGSBF	=	0xfbd8
                         0000FBD9   503 _g_CLIKFL	=	0xfbd9
                         0000FBDA   504 _g_OLDKEY	=	0xfbda
                         0000FBE5   505 _g_NEWKEY	=	0xfbe5
                         0000FBF0   506 _g_KEYBUF	=	0xfbf0
                         0000FC18   507 _g_LINWRK	=	0xfc18
                         0000FC40   508 _g_PATWRK	=	0xfc40
                         0000FC48   509 _g_BOTTOM	=	0xfc48
                         0000FC4A   510 _g_HIMEM	=	0xfc4a
                         0000FC4C   511 _g_TRPTBL	=	0xfc4c
                         0000FC9A   512 _g_RTYCNT	=	0xfc9a
                         0000FC9B   513 _g_INTFLG	=	0xfc9b
                         0000FC9C   514 _g_PADY	=	0xfc9c
                         0000FC9D   515 _g_PADX	=	0xfc9d
                         0000FC9E   516 _g_JIFFY	=	0xfc9e
                         0000FCA0   517 _g_INTVAL	=	0xfca0
                         0000FCA2   518 _g_INTCNT	=	0xfca2
                         0000FCA4   519 _g_LOWLIM	=	0xfca4
                         0000FCA5   520 _g_WINWID	=	0xfca5
                         0000FCA6   521 _g_GRPHED	=	0xfca6
                         0000FCA7   522 _g_ESCCNT	=	0xfca7
                         0000FCA8   523 _g_INSFLG	=	0xfca8
                         0000FCA9   524 _g_CSRSW	=	0xfca9
                         0000FCAA   525 _g_CSTYLE	=	0xfcaa
                         0000FCAB   526 _g_CAPST	=	0xfcab
                         0000FCAC   527 _g_KANAST	=	0xfcac
                         0000FCAD   528 _g_KANAMD	=	0xfcad
                         0000FCAE   529 _g_FLBMEM	=	0xfcae
                         0000FCAF   530 _g_SCRMOD	=	0xfcaf
                         0000FCB0   531 _g_OLDSCR	=	0xfcb0
                         0000FCB1   532 _g_CASPRV	=	0xfcb1
                         0000FCB2   533 _g_BRDATR	=	0xfcb2
                         0000FCB3   534 _g_GXPOS	=	0xfcb3
                         0000FCB5   535 _g_GYPOS	=	0xfcb5
                         0000FCBB   536 _g_DRWFLG	=	0xfcbb
                         0000FCBC   537 _g_DRWSCL	=	0xfcbc
                         0000FCBD   538 _g_DRWANG	=	0xfcbd
                         0000FCC1   539 _g_MNROM	=	0xfcc1
                         0000FCC1   540 _g_EXPTBL	=	0xfcc1
                         0000FCC5   541 _g_SLTTBL	=	0xfcc5
                         0000FCC9   542 _g_SLTATR	=	0xfcc9
                         0000FD09   543 _g_SLTWRK	=	0xfd09
                         0000FD89   544 _g_PROCNM	=	0xfd89
                         0000FFE7   545 _g_RG08SAV	=	0xffe7
                         0000FFE8   546 _g_RG09SAV	=	0xffe8
                         0000FFE9   547 _g_RG10SAV	=	0xffe9
                         0000FFEA   548 _g_RG11SAV	=	0xffea
                         0000FFEB   549 _g_RG12SAV	=	0xffeb
                         0000FFEC   550 _g_RG13SAV	=	0xffec
                         0000FFED   551 _g_RG14SAV	=	0xffed
                         0000FFEE   552 _g_RG15SAV	=	0xffee
                         0000FFEF   553 _g_RG16SAV	=	0xffef
                         0000FFF0   554 _g_RG17SAV	=	0xfff0
                         0000FFF1   555 _g_RG18SAV	=	0xfff1
                         0000FFF2   556 _g_RG19SAV	=	0xfff2
                         0000FFF3   557 _g_RG20SAV	=	0xfff3
                         0000FFF4   558 _g_RG21SAV	=	0xfff4
                         0000FFF5   559 _g_RG22SAV	=	0xfff5
                         0000FFF6   560 _g_RG23SAV	=	0xfff6
                         0000FFF7   561 _g_MINROM	=	0xfff7
                         0000FFF8   562 _g_SVFFF8	=	0xfff8
                         0000FFFA   563 _g_RG25SAV	=	0xfffa
                         0000FFFB   564 _g_RG26SAV	=	0xfffb
                         0000FFFC   565 _g_RG27SAV	=	0xfffc
                         0000FFFD   566 _g_SVFFFD	=	0xfffd
                         00000004   567 _g_CGTABL	=	0x0004
                         00000006   568 _g_VDP_DR	=	0x0006
                         00000007   569 _g_VDP_DW	=	0x0007
                         0000002B   570 _g_BASRVN	=	0x002b
                         0000002B   571 _g_ROMVersion	=	0x002b
                         0000002D   572 _g_MSXVER	=	0x002d
                         0000002E   573 _g_MSXMID	=	0x002e
                         00000034   574 _g_CHAR_16	=	0x0034
                         00000000   575 _g_SUBRID	=	0x0000
                         00000002   576 _g_STRSRC	=	0x0002
                         0000F30F   577 _g_KANJTABLE	=	0xf30f
                         0000F323   578 _g_DISKVE	=	0xf323
                         0000F325   579 _g_BREAKV	=	0xf325
                         0000F341   580 _g_RAMAD0	=	0xf341
                         0000F342   581 _g_RAMAD1	=	0xf342
                         0000F343   582 _g_RAMAD2	=	0xf343
                         0000F344   583 _g_RAMAD3	=	0xf344
                         0000F348   584 _g_MASTER	=	0xf348
                         0000F37D   585 _g_BDOS	=	0xf37d
    00000033                        586 ___str_0:
    00000033 47 4F 41 4C 20 4B 49   587 	.ascii "GOAL KICK"
             43 4B
    0000003C 00                     588 	.db 0x00
                                    589 ;E:\Dropbox\FAUSTO\SVILUPPI\MSX\CODE\C\MSXgl\projects\exsoccer/exsoccer_s1_b2.c:54: void CornerKick(u8 teamId){
                                    590 ;	---------------------------------
                                    591 ; Function CornerKick
                                    592 ; ---------------------------------
    0000003D                        593 _CornerKick::
    0000003D DD E5            [15]  594 	push	ix
    0000003F DD 21 00 00      [14]  595 	ld	ix,#0
    00000043 DD 39            [15]  596 	add	ix,sp
    00000045 21 E7 FF         [10]  597 	ld	hl, #-25
    00000048 39               [11]  598 	add	hl, sp
    00000049 F9               [ 6]  599 	ld	sp, hl
    0000004A DD 77 FE         [19]  600 	ld	-2 (ix), a
                                    601 ;E:\Dropbox\FAUSTO\SVILUPPI\MSX\CODE\C\MSXgl\projects\exsoccer/exsoccer_s1_b2.c:56: V9_PrintLayerAStringAtPos(10,12,"CORNER KICK");
    0000004D 21r6Er04         [10]  602 	ld	hl, #___str_1
    00000050 E5               [11]  603 	push	hl
    00000051 2E 0C            [ 7]  604 	ld	l, #0x0c
                                    605 ;	spillPairReg hl
                                    606 ;	spillPairReg hl
    00000053 3E 0A            [ 7]  607 	ld	a, #0x0a
    00000055 CDr00r00         [17]  608 	call	_V9_PrintLayerAStringAtPos
                                    609 ;E:\Dropbox\FAUSTO\SVILUPPI\MSX\CODE\C\MSXgl\projects\exsoccer/exsoccer_s1_b2.c:57: g_MatchStatus=MATCH_BEFORE_CORNER_KICK;
    00000058 21r00r00         [10]  610 	ld	hl, #_g_MatchStatus
    0000005B 36 02            [10]  611 	ld	(hl), #0x02
                                    612 ;E:\Dropbox\FAUSTO\SVILUPPI\MSX\CODE\C\MSXgl\projects\exsoccer/exsoccer_s1_b2.c:58: g_RestartKickTeamId = teamId;
    0000005D DD 7E FE         [19]  613 	ld	a, -2 (ix)
    00000060 32r00r00         [13]  614 	ld	(_g_RestartKickTeamId+0), a
                                    615 ;E:\Dropbox\FAUSTO\SVILUPPI\MSX\CODE\C\MSXgl\projects\exsoccer/exsoccer_s1_b2.c:59: g_CornerKickTargetId = NO_VALUE;
    00000063 21r00r00         [10]  616 	ld	hl, #_g_CornerKickTargetId
    00000066 36 FF            [10]  617 	ld	(hl), #0xff
                                    618 ;E:\Dropbox\FAUSTO\SVILUPPI\MSX\CODE\C\MSXgl\projects\exsoccer/exsoccer_s1_b2.c:60: g_Timer = 0;
    00000068 21r00r00         [10]  619 	ld	hl, #_g_Timer
    0000006B 36 00            [10]  620 	ld	(hl), #0x00
                                    621 ;E:\Dropbox\FAUSTO\SVILUPPI\MSX\CODE\C\MSXgl\projects\exsoccer/exsoccer_s1_b2.c:63: if (g_Ball.X < FIELD_POS_X_CENTER) g_CornerKickSide = CORNER_SIDE_LEFT;
    0000006D 01r00r00         [10]  622 	ld	bc, #_g_Ball+0
    00000070 2Ar02r00         [16]  623 	ld	hl, (#(_g_Ball + 2) + 0)
    00000073 11 78 00         [10]  624 	ld	de, #0x0078
    00000076 BF               [ 4]  625 	cp	a, a
    00000077 ED 52            [15]  626 	sbc	hl, de
    00000079 30 08            [12]  627 	jr	NC, 00102$
    0000007B 21r00r00         [10]  628 	ld	hl, #_g_CornerKickSide
    0000007E 36 00            [10]  629 	ld	(hl), #0x00
    00000080 C3r8Br00         [10]  630 	jp	00103$
    00000083                        631 00102$:
                                    632 ;E:\Dropbox\FAUSTO\SVILUPPI\MSX\CODE\C\MSXgl\projects\exsoccer/exsoccer_s1_b2.c:64: else g_CornerKickSide = CORNER_SIDE_RIGHT;
    00000083 21r00r00         [10]  633 	ld	hl, #_g_CornerKickSide
    00000086 36 01            [10]  634 	ld	(hl), #0x01
                                    635 ;E:\Dropbox\FAUSTO\SVILUPPI\MSX\CODE\C\MSXgl\projects\exsoccer/exsoccer_s1_b2.c:69: u16 kickX = (g_CornerKickSide == CORNER_SIDE_LEFT) ? FIELD_BOUND_X_LEFT : FIELD_BOUND_X_RIGHT;
    00000088 C3r91r00         [10]  636 	jp	00155$
                                    637 ;E:\Dropbox\FAUSTO\SVILUPPI\MSX\CODE\C\MSXgl\projects\exsoccer/exsoccer_s1_b2.c:64: else g_CornerKickSide = CORNER_SIDE_RIGHT;
    0000008B                        638 00103$:
                                    639 ;E:\Dropbox\FAUSTO\SVILUPPI\MSX\CODE\C\MSXgl\projects\exsoccer/exsoccer_s1_b2.c:69: u16 kickX = (g_CornerKickSide == CORNER_SIDE_LEFT) ? FIELD_BOUND_X_LEFT : FIELD_BOUND_X_RIGHT;
    0000008B 11 0A 00         [10]  640 	ld	de, #0x000a
    0000008E C3r94r00         [10]  641 	jp	00156$
    00000091                        642 00155$:
    00000091 11 F6 00         [10]  643 	ld	de, #0x00f6
    00000094                        644 00156$:
    00000094 DD 73 E9         [19]  645 	ld	-23 (ix), e
    00000097 DD 72 EA         [19]  646 	ld	-22 (ix), d
                                    647 ;E:\Dropbox\FAUSTO\SVILUPPI\MSX\CODE\C\MSXgl\projects\exsoccer/exsoccer_s1_b2.c:70: u16 kickY = (teamId == TEAM_1) ? FIELD_BOUND_Y_TOP : FIELD_BOUND_Y_BOTTOM;
    0000009A DD 7E FE         [19]  648 	ld	a, -2 (ix)
    0000009D 3D               [ 4]  649 	dec	a
    0000009E 3E 01            [ 7]  650 	ld	a, #0x01
    000000A0 28 01            [12]  651 	jr	Z, 00323$
    000000A2 AF               [ 4]  652 	xor	a, a
    000000A3                        653 00323$:
    000000A3 DD 77 FD         [19]  654 	ld	-3 (ix), a
    000000A6 B7               [ 4]  655 	or	a, a
    000000A7 28 06            [12]  656 	jr	Z, 00157$
    000000A9 11 32 00         [10]  657 	ld	de, #0x0032
    000000AC C3rB2r00         [10]  658 	jp	00158$
    000000AF                        659 00157$:
    000000AF 11 AE 01         [10]  660 	ld	de, #0x01ae
    000000B2                        661 00158$:
    000000B2 DD 73 EB         [19]  662 	ld	-21 (ix), e
    000000B5 DD 72 EC         [19]  663 	ld	-20 (ix), d
                                    664 ;E:\Dropbox\FAUSTO\SVILUPPI\MSX\CODE\C\MSXgl\projects\exsoccer/exsoccer_s1_b2.c:73: if (teamId == TEAM_1) ShowFieldZone(FIELD_NORTH_ZONE);
    000000B8 DD 7E FD         [19]  665 	ld	a, -3 (ix)
    000000BB B7               [ 4]  666 	or	a, a
    000000BC 28 09            [12]  667 	jr	Z, 00105$
    000000BE C5               [11]  668 	push	bc
    000000BF AF               [ 4]  669 	xor	a, a
    000000C0 CDr00r00         [17]  670 	call	_ShowFieldZone
    000000C3 C1               [10]  671 	pop	bc
    000000C4 C3rCEr00         [10]  672 	jp	00106$
    000000C7                        673 00105$:
                                    674 ;E:\Dropbox\FAUSTO\SVILUPPI\MSX\CODE\C\MSXgl\projects\exsoccer/exsoccer_s1_b2.c:74: else ShowFieldZone(FIELD_SOUTH_ZONE);
    000000C7 C5               [11]  675 	push	bc
    000000C8 3E 02            [ 7]  676 	ld	a, #0x02
    000000CA CDr00r00         [17]  677 	call	_ShowFieldZone
    000000CD C1               [10]  678 	pop	bc
    000000CE                        679 00106$:
                                    680 ;E:\Dropbox\FAUSTO\SVILUPPI\MSX\CODE\C\MSXgl\projects\exsoccer/exsoccer_s1_b2.c:78: if (g_CornerKickSide == CORNER_SIDE_LEFT) kickerId = GetPlayerIdByRole(teamId, PLAYER_ROLE_LEFT_STRIKER);
    000000CE 3Ar00r00         [13]  681 	ld	a, (_g_CornerKickSide+0)
    000000D1 B7               [ 4]  682 	or	a, a
    000000D2 20 10            [12]  683 	jr	NZ, 00108$
    000000D4 C5               [11]  684 	push	bc
    000000D5 2E 05            [ 7]  685 	ld	l, #0x05
                                    686 ;	spillPairReg hl
                                    687 ;	spillPairReg hl
    000000D7 DD 7E FE         [19]  688 	ld	a, -2 (ix)
    000000DA CDr00r00         [17]  689 	call	_GetPlayerIdByRole
    000000DD C1               [10]  690 	pop	bc
    000000DE DD 77 ED         [19]  691 	ld	-19 (ix), a
    000000E1 C3rF1r00         [10]  692 	jp	00109$
    000000E4                        693 00108$:
                                    694 ;E:\Dropbox\FAUSTO\SVILUPPI\MSX\CODE\C\MSXgl\projects\exsoccer/exsoccer_s1_b2.c:79: else kickerId = GetPlayerIdByRole(teamId, PLAYER_ROLE_RIGHT_STRIKER);
    000000E4 C5               [11]  695 	push	bc
    000000E5 2E 06            [ 7]  696 	ld	l, #0x06
                                    697 ;	spillPairReg hl
                                    698 ;	spillPairReg hl
    000000E7 DD 7E FE         [19]  699 	ld	a, -2 (ix)
    000000EA CDr00r00         [17]  700 	call	_GetPlayerIdByRole
    000000ED C1               [10]  701 	pop	bc
    000000EE DD 77 ED         [19]  702 	ld	-19 (ix), a
    000000F1                        703 00109$:
                                    704 ;E:\Dropbox\FAUSTO\SVILUPPI\MSX\CODE\C\MSXgl\projects\exsoccer/exsoccer_s1_b2.c:82: g_Ball.PossessionPlayerId = NO_VALUE; 
    000000F1 21r06r00         [10]  705 	ld	hl, #(_g_Ball + 6)
    000000F4 36 FF            [10]  706 	ld	(hl), #0xff
                                    707 ;E:\Dropbox\FAUSTO\SVILUPPI\MSX\CODE\C\MSXgl\projects\exsoccer/exsoccer_s1_b2.c:83: SetPlayerBallPossession(NO_VALUE);
    000000F6 C5               [11]  708 	push	bc
    000000F7 3E FF            [ 7]  709 	ld	a, #0xff
    000000F9 CDr00r00         [17]  710 	call	_SetPlayerBallPossession
    000000FC C1               [10]  711 	pop	bc
                                    712 ;E:\Dropbox\FAUSTO\SVILUPPI\MSX\CODE\C\MSXgl\projects\exsoccer/exsoccer_s1_b2.c:84: if(teamId == TEAM_1) g_Team1ActivePlayer = kickerId; // Ensure kicker is selected active
    000000FD DD 7E FD         [19]  713 	ld	a, -3 (ix)
    00000100 B7               [ 4]  714 	or	a, a
    00000101 28 09            [12]  715 	jr	Z, 00111$
    00000103 DD 7E ED         [19]  716 	ld	a, -19 (ix)
    00000106 32r00r00         [13]  717 	ld	(_g_Team1ActivePlayer+0), a
    00000109 C3r12r01         [10]  718 	jp	00112$
    0000010C                        719 00111$:
                                    720 ;E:\Dropbox\FAUSTO\SVILUPPI\MSX\CODE\C\MSXgl\projects\exsoccer/exsoccer_s1_b2.c:85: else g_Team2ActivePlayer = kickerId;
    0000010C DD 7E ED         [19]  721 	ld	a, -19 (ix)
    0000010F 32r00r00         [13]  722 	ld	(_g_Team2ActivePlayer+0), a
    00000112                        723 00112$:
                                    724 ;E:\Dropbox\FAUSTO\SVILUPPI\MSX\CODE\C\MSXgl\projects\exsoccer/exsoccer_s1_b2.c:93: i8 offX = 0; i8 offY = 0;
    00000112 2E 00            [ 7]  725 	ld	l, #0x00
                                    726 ;	spillPairReg hl
                                    727 ;	spillPairReg hl
    00000114 DD 36 FF 00      [19]  728 	ld	-1 (ix), #0x00
                                    729 ;E:\Dropbox\FAUSTO\SVILUPPI\MSX\CODE\C\MSXgl\projects\exsoccer/exsoccer_s1_b2.c:94: if (teamId == TEAM_2 && g_CornerKickSide == CORNER_SIDE_RIGHT) {
    00000118 DD 7E FE         [19]  730 	ld	a, -2 (ix)
    0000011B D6 02            [ 7]  731 	sub	a, #0x02
    0000011D 20 0C            [12]  732 	jr	NZ, 00114$
    0000011F 3Ar00r00         [13]  733 	ld	a, (_g_CornerKickSide+0)
    00000122 3D               [ 4]  734 	dec	a
    00000123 20 06            [12]  735 	jr	NZ, 00114$
                                    736 ;E:\Dropbox\FAUSTO\SVILUPPI\MSX\CODE\C\MSXgl\projects\exsoccer/exsoccer_s1_b2.c:95: offX = -30;
    00000125 2E E2            [ 7]  737 	ld	l, #0xe2
                                    738 ;	spillPairReg hl
                                    739 ;	spillPairReg hl
                                    740 ;E:\Dropbox\FAUSTO\SVILUPPI\MSX\CODE\C\MSXgl\projects\exsoccer/exsoccer_s1_b2.c:96: offY = -5;
    00000127 DD 36 FF FB      [19]  741 	ld	-1 (ix), #0xfb
    0000012B                        742 00114$:
                                    743 ;E:\Dropbox\FAUSTO\SVILUPPI\MSX\CODE\C\MSXgl\projects\exsoccer/exsoccer_s1_b2.c:99: g_Ball.X = kickX + offX;
    0000012B 7D               [ 4]  744 	ld	a, l
    0000012C 07               [ 4]  745 	rlca
    0000012D 9F               [ 4]  746 	sbc	a, a
    0000012E 67               [ 4]  747 	ld	h, a
                                    748 ;	spillPairReg hl
                                    749 ;	spillPairReg hl
    0000012F DD 5E E9         [19]  750 	ld	e, -23 (ix)
    00000132 DD 56 EA         [19]  751 	ld	d, -22 (ix)
    00000135 19               [11]  752 	add	hl, de
    00000136 EB               [ 4]  753 	ex	de, hl
    00000137 ED 53r02r00      [20]  754 	ld	((_g_Ball + 2)), de
                                    755 ;E:\Dropbox\FAUSTO\SVILUPPI\MSX\CODE\C\MSXgl\projects\exsoccer/exsoccer_s1_b2.c:100: g_Ball.Y = kickY + offY;
    0000013B DD 7E FF         [19]  756 	ld	a, -1 (ix)
    0000013E 6F               [ 4]  757 	ld	l, a
                                    758 ;	spillPairReg hl
                                    759 ;	spillPairReg hl
    0000013F 07               [ 4]  760 	rlca
    00000140 9F               [ 4]  761 	sbc	a, a
    00000141 67               [ 4]  762 	ld	h, a
                                    763 ;	spillPairReg hl
                                    764 ;	spillPairReg hl
    00000142 DD 5E EB         [19]  765 	ld	e, -21 (ix)
    00000145 DD 56 EC         [19]  766 	ld	d, -20 (ix)
    00000148 19               [11]  767 	add	hl, de
    00000149 EB               [ 4]  768 	ex	de, hl
    0000014A 69               [ 4]  769 	ld	l, c
    0000014B 60               [ 4]  770 	ld	h, b
    0000014C 73               [ 7]  771 	ld	(hl), e
    0000014D 23               [ 6]  772 	inc	hl
    0000014E 72               [ 7]  773 	ld	(hl), d
                                    774 ;E:\Dropbox\FAUSTO\SVILUPPI\MSX\CODE\C\MSXgl\projects\exsoccer/exsoccer_s1_b2.c:101: g_Ball.PreviousY = g_Ball.Y;
    0000014F ED 53r07r00      [20]  775 	ld	((_g_Ball + 7)), de
                                    776 ;E:\Dropbox\FAUSTO\SVILUPPI\MSX\CODE\C\MSXgl\projects\exsoccer/exsoccer_s1_b2.c:105: bool attackingUp = (teamId == TEAM_1);
    00000153 DD 7E FD         [19]  777 	ld	a, -3 (ix)
                                    778 ;E:\Dropbox\FAUSTO\SVILUPPI\MSX\CODE\C\MSXgl\projects\exsoccer/exsoccer_s1_b2.c:109: u16 yBoxInside     = (attackingUp) ? (FIELD_BOUND_Y_TOP + 40) : (FIELD_BOUND_Y_BOTTOM - 40);
    00000156 DD 77 EE         [19]  779 	ld	-18 (ix), a
    00000159 B7               [ 4]  780 	or	a, a
    0000015A 28 06            [12]  781 	jr	Z, 00161$
    0000015C 01 5A 00         [10]  782 	ld	bc, #0x005a
    0000015F C3r65r01         [10]  783 	jp	00162$
    00000162                        784 00161$:
    00000162 01 86 01         [10]  785 	ld	bc, #0x0186
    00000165                        786 00162$:
    00000165 DD 71 EF         [19]  787 	ld	-17 (ix), c
    00000168 DD 70 F0         [19]  788 	ld	-16 (ix), b
                                    789 ;E:\Dropbox\FAUSTO\SVILUPPI\MSX\CODE\C\MSXgl\projects\exsoccer/exsoccer_s1_b2.c:110: u16 yBoxOutside    = (attackingUp) ? (FIELD_BOUND_Y_TOP + 90) : (FIELD_BOUND_Y_BOTTOM - 90);
    0000016B DD 7E EE         [19]  790 	ld	a, -18 (ix)
    0000016E B7               [ 4]  791 	or	a, a
    0000016F 28 06            [12]  792 	jr	Z, 00163$
    00000171 01 8C 00         [10]  793 	ld	bc, #0x008c
    00000174 C3r7Ar01         [10]  794 	jp	00164$
    00000177                        795 00163$:
    00000177 01 54 01         [10]  796 	ld	bc, #0x0154
    0000017A                        797 00164$:
    0000017A DD 71 F1         [19]  798 	ld	-15 (ix), c
    0000017D DD 70 F2         [19]  799 	ld	-14 (ix), b
                                    800 ;E:\Dropbox\FAUSTO\SVILUPPI\MSX\CODE\C\MSXgl\projects\exsoccer/exsoccer_s1_b2.c:111: u16 yMidfieldAdv   = (attackingUp) ? (FIELD_BOUND_Y_TOP + 160) : (FIELD_BOUND_Y_BOTTOM - 160);
    00000180 DD 7E EE         [19]  801 	ld	a, -18 (ix)
    00000183 B7               [ 4]  802 	or	a, a
    00000184 28 06            [12]  803 	jr	Z, 00165$
    00000186 01 D2 00         [10]  804 	ld	bc, #0x00d2
    00000189 C3r8Fr01         [10]  805 	jp	00166$
    0000018C                        806 00165$:
    0000018C 01 0E 01         [10]  807 	ld	bc, #0x010e
    0000018F                        808 00166$:
    0000018F DD 71 F3         [19]  809 	ld	-13 (ix), c
    00000192 DD 70 F4         [19]  810 	ld	-12 (ix), b
                                    811 ;E:\Dropbox\FAUSTO\SVILUPPI\MSX\CODE\C\MSXgl\projects\exsoccer/exsoccer_s1_b2.c:113: u16 ySafety        = (attackingUp) ? (FIELD_BOUND_Y_BOTTOM - 100) : (FIELD_BOUND_Y_TOP + 100);
    00000195 DD 7E EE         [19]  812 	ld	a, -18 (ix)
    00000198 B7               [ 4]  813 	or	a, a
    00000199 28 06            [12]  814 	jr	Z, 00167$
    0000019B 01 4A 01         [10]  815 	ld	bc, #0x014a
    0000019E C3rA4r01         [10]  816 	jp	00168$
    000001A1                        817 00167$:
    000001A1 01 96 00         [10]  818 	ld	bc, #0x0096
    000001A4                        819 00168$:
    000001A4 DD 71 F5         [19]  820 	ld	-11 (ix), c
    000001A7 DD 70 F6         [19]  821 	ld	-10 (ix), b
                                    822 ;E:\Dropbox\FAUSTO\SVILUPPI\MSX\CODE\C\MSXgl\projects\exsoccer/exsoccer_s1_b2.c:115: for(u8 i=0; i<14; i++) {
    000001AA DD 36 FF 00      [19]  823 	ld	-1 (ix), #0x00
    000001AE                        824 00152$:
    000001AE DD 7E FF         [19]  825 	ld	a, -1 (ix)
    000001B1 D6 0E            [ 7]  826 	sub	a, #0x0e
    000001B3 D2r69r04         [10]  827 	jp	NC, 00153$
                                    828 ;E:\Dropbox\FAUSTO\SVILUPPI\MSX\CODE\C\MSXgl\projects\exsoccer/exsoccer_s1_b2.c:116: g_Players[i].Status = PLAYER_STATUS_NONE;
    000001B6 DD 4E FF         [19]  829 	ld	c, -1 (ix)
    000001B9 06 00            [ 7]  830 	ld	b, #0x00
    000001BB 69               [ 4]  831 	ld	l, c
    000001BC 60               [ 4]  832 	ld	h, b
    000001BD 29               [11]  833 	add	hl, hl
    000001BE 29               [11]  834 	add	hl, hl
    000001BF 09               [11]  835 	add	hl, bc
    000001C0 29               [11]  836 	add	hl, hl
    000001C1 29               [11]  837 	add	hl, hl
    000001C2 09               [11]  838 	add	hl, bc
    000001C3 DD 75 FA         [19]  839 	ld	-6 (ix), l
    000001C6 DD 74 FB         [19]  840 	ld	-5 (ix), h
    000001C9 DD 7E FA         [19]  841 	ld	a, -6 (ix)
    000001CC C6r00            [ 7]  842 	add	a, #<(_g_Players)
    000001CE DD 77 FC         [19]  843 	ld	-4 (ix), a
    000001D1 DD 7E FB         [19]  844 	ld	a, -5 (ix)
    000001D4 CEs00            [ 7]  845 	adc	a, #>(_g_Players)
    000001D6 DD 77 FD         [19]  846 	ld	-3 (ix), a
    000001D9 DD 7E FC         [19]  847 	ld	a, -4 (ix)
    000001DC C6 12            [ 7]  848 	add	a, #0x12
    000001DE DD 77 FA         [19]  849 	ld	-6 (ix), a
    000001E1 DD 7E FD         [19]  850 	ld	a, -3 (ix)
    000001E4 CE 00            [ 7]  851 	adc	a, #0x00
    000001E6 DD 77 FB         [19]  852 	ld	-5 (ix), a
    000001E9 DD 6E FA         [19]  853 	ld	l, -6 (ix)
    000001EC DD 66 FB         [19]  854 	ld	h, -5 (ix)
    000001EF AF               [ 4]  855 	xor	a, a
    000001F0 77               [ 7]  856 	ld	(hl), a
    000001F1 23               [ 6]  857 	inc	hl
    000001F2 77               [ 7]  858 	ld	(hl), a
                                    859 ;E:\Dropbox\FAUSTO\SVILUPPI\MSX\CODE\C\MSXgl\projects\exsoccer/exsoccer_s1_b2.c:117: g_Players[i].TargetX = g_Players[i].X;
    000001F3 DD 7E FC         [19]  860 	ld	a, -4 (ix)
    000001F6 C6 10            [ 7]  861 	add	a, #0x10
    000001F8 DD 77 F7         [19]  862 	ld	-9 (ix), a
    000001FB DD 7E FD         [19]  863 	ld	a, -3 (ix)
    000001FE CE 00            [ 7]  864 	adc	a, #0x00
    00000200 DD 77 F8         [19]  865 	ld	-8 (ix), a
    00000203 DD 7E FC         [19]  866 	ld	a, -4 (ix)
    00000206 DD 77 FA         [19]  867 	ld	-6 (ix), a
    00000209 DD 7E FD         [19]  868 	ld	a, -3 (ix)
    0000020C DD 77 FB         [19]  869 	ld	-5 (ix), a
    0000020F DD 6E FA         [19]  870 	ld	l, -6 (ix)
    00000212 DD 66 FB         [19]  871 	ld	h, -5 (ix)
    00000215 23               [ 6]  872 	inc	hl
    00000216 23               [ 6]  873 	inc	hl
    00000217 7E               [ 7]  874 	ld	a, (hl)
    00000218 DD 77 FA         [19]  875 	ld	-6 (ix), a
    0000021B 23               [ 6]  876 	inc	hl
    0000021C 7E               [ 7]  877 	ld	a, (hl)
    0000021D DD 77 FB         [19]  878 	ld	-5 (ix), a
    00000220 DD 6E F7         [19]  879 	ld	l, -9 (ix)
    00000223 DD 66 F8         [19]  880 	ld	h, -8 (ix)
    00000226 DD 7E FA         [19]  881 	ld	a, -6 (ix)
    00000229 77               [ 7]  882 	ld	(hl), a
    0000022A 23               [ 6]  883 	inc	hl
    0000022B DD 7E FB         [19]  884 	ld	a, -5 (ix)
    0000022E 77               [ 7]  885 	ld	(hl), a
                                    886 ;E:\Dropbox\FAUSTO\SVILUPPI\MSX\CODE\C\MSXgl\projects\exsoccer/exsoccer_s1_b2.c:118: g_Players[i].TargetY = g_Players[i].Y;
    0000022F DD 7E FC         [19]  887 	ld	a, -4 (ix)
    00000232 C6 0E            [ 7]  888 	add	a, #0x0e
    00000234 DD 77 F9         [19]  889 	ld	-7 (ix), a
    00000237 DD 7E FD         [19]  890 	ld	a, -3 (ix)
    0000023A CE 00            [ 7]  891 	adc	a, #0x00
    0000023C DD 77 FA         [19]  892 	ld	-6 (ix), a
    0000023F DD 6E FC         [19]  893 	ld	l, -4 (ix)
    00000242 DD 66 FD         [19]  894 	ld	h, -3 (ix)
    00000245 4E               [ 7]  895 	ld	c, (hl)
    00000246 23               [ 6]  896 	inc	hl
    00000247 46               [ 7]  897 	ld	b, (hl)
    00000248 DD 6E F9         [19]  898 	ld	l, -7 (ix)
    0000024B DD 66 FA         [19]  899 	ld	h, -6 (ix)
    0000024E 71               [ 7]  900 	ld	(hl), c
    0000024F 23               [ 6]  901 	inc	hl
    00000250 70               [ 7]  902 	ld	(hl), b
                                    903 ;E:\Dropbox\FAUSTO\SVILUPPI\MSX\CODE\C\MSXgl\projects\exsoccer/exsoccer_s1_b2.c:120: u8 role = g_Players[i].Role;
    00000251 DD 7E FC         [19]  904 	ld	a, -4 (ix)
    00000254 DD 77 E7         [19]  905 	ld	-25 (ix), a
    00000257 DD 7E FD         [19]  906 	ld	a, -3 (ix)
    0000025A DD 77 E8         [19]  907 	ld	-24 (ix), a
    0000025D E1               [10]  908 	pop	hl
    0000025E E5               [11]  909 	push	hl
    0000025F 11 0D 00         [10]  910 	ld	de, #0x000d
    00000262 19               [11]  911 	add	hl, de
    00000263 7E               [ 7]  912 	ld	a, (hl)
    00000264 DD 77 FB         [19]  913 	ld	-5 (ix), a
                                    914 ;E:\Dropbox\FAUSTO\SVILUPPI\MSX\CODE\C\MSXgl\projects\exsoccer/exsoccer_s1_b2.c:121: bool isAttacker = (g_Players[i].TeamId == teamId);
    00000267 DD 6E FC         [19]  915 	ld	l, -4 (ix)
    0000026A DD 66 FD         [19]  916 	ld	h, -3 (ix)
    0000026D 11 09 00         [10]  917 	ld	de, #0x0009
    00000270 19               [11]  918 	add	hl, de
    00000271 DD 7E FE         [19]  919 	ld	a,-2 (ix)
    00000274 96               [ 7]  920 	sub	a,(hl)
    00000275 3E 01            [ 7]  921 	ld	a, #0x01
    00000277 28 01            [12]  922 	jr	Z, 00329$
    00000279 AF               [ 4]  923 	xor	a, a
    0000027A                        924 00329$:
    0000027A 4F               [ 4]  925 	ld	c, a
                                    926 ;E:\Dropbox\FAUSTO\SVILUPPI\MSX\CODE\C\MSXgl\projects\exsoccer/exsoccer_s1_b2.c:124: if (i == kickerId) {
    0000027B DD 7E ED         [19]  927 	ld	a, -19 (ix)
    0000027E DD 96 FF         [19]  928 	sub	a, -1 (ix)
    00000281 20 21            [12]  929 	jr	NZ, 00117$
                                    930 ;E:\Dropbox\FAUSTO\SVILUPPI\MSX\CODE\C\MSXgl\projects\exsoccer/exsoccer_s1_b2.c:125: g_Players[i].TargetX = kickX;
    00000283 DD 6E F7         [19]  931 	ld	l, -9 (ix)
    00000286 DD 66 F8         [19]  932 	ld	h, -8 (ix)
    00000289 DD 7E E9         [19]  933 	ld	a, -23 (ix)
    0000028C 77               [ 7]  934 	ld	(hl), a
    0000028D 23               [ 6]  935 	inc	hl
    0000028E DD 7E EA         [19]  936 	ld	a, -22 (ix)
    00000291 77               [ 7]  937 	ld	(hl), a
                                    938 ;E:\Dropbox\FAUSTO\SVILUPPI\MSX\CODE\C\MSXgl\projects\exsoccer/exsoccer_s1_b2.c:126: g_Players[i].TargetY = kickY;
    00000292 DD 6E F9         [19]  939 	ld	l, -7 (ix)
    00000295 DD 66 FA         [19]  940 	ld	h, -6 (ix)
    00000298 DD 7E EB         [19]  941 	ld	a, -21 (ix)
    0000029B 77               [ 7]  942 	ld	(hl), a
    0000029C 23               [ 6]  943 	inc	hl
    0000029D DD 7E EC         [19]  944 	ld	a, -20 (ix)
    000002A0 77               [ 7]  945 	ld	(hl), a
                                    946 ;E:\Dropbox\FAUSTO\SVILUPPI\MSX\CODE\C\MSXgl\projects\exsoccer/exsoccer_s1_b2.c:127: continue;
    000002A1 C3r63r04         [10]  947 	jp	00149$
    000002A4                        948 00117$:
                                    949 ;E:\Dropbox\FAUSTO\SVILUPPI\MSX\CODE\C\MSXgl\projects\exsoccer/exsoccer_s1_b2.c:130: if (isAttacker) {
    000002A4 79               [ 4]  950 	ld	a, c
    000002A5 B7               [ 4]  951 	or	a, a
    000002A6 CAr97r03         [10]  952 	jp	Z, 00147$
                                    953 ;E:\Dropbox\FAUSTO\SVILUPPI\MSX\CODE\C\MSXgl\projects\exsoccer/exsoccer_s1_b2.c:132: if (role == PLAYER_ROLE_GOALKEEPER) {
    000002A9 DD 7E FB         [19]  954 	ld	a, -5 (ix)
    000002AC B7               [ 4]  955 	or	a, a
    000002AD 20 26            [12]  956 	jr	NZ, 00133$
                                    957 ;E:\Dropbox\FAUSTO\SVILUPPI\MSX\CODE\C\MSXgl\projects\exsoccer/exsoccer_s1_b2.c:134: g_Players[i].TargetX = FIELD_POS_X_CENTER;
    000002AF DD 6E F7         [19]  958 	ld	l, -9 (ix)
    000002B2 DD 66 F8         [19]  959 	ld	h, -8 (ix)
    000002B5 36 78            [10]  960 	ld	(hl), #0x78
    000002B7 23               [ 6]  961 	inc	hl
    000002B8 36 00            [10]  962 	ld	(hl), #0x00
                                    963 ;E:\Dropbox\FAUSTO\SVILUPPI\MSX\CODE\C\MSXgl\projects\exsoccer/exsoccer_s1_b2.c:135: g_Players[i].TargetY = (attackingUp) ? FIELD_BOUND_Y_BOTTOM - 20 : FIELD_BOUND_Y_TOP + 20;
    000002BA DD 6E F9         [19]  964 	ld	l, -7 (ix)
                                    965 ;	spillPairReg hl
                                    966 ;	spillPairReg hl
    000002BD DD 66 FA         [19]  967 	ld	h, -6 (ix)
                                    968 ;	spillPairReg hl
                                    969 ;	spillPairReg hl
    000002C0 DD 7E EE         [19]  970 	ld	a, -18 (ix)
    000002C3 B7               [ 4]  971 	or	a, a
    000002C4 28 06            [12]  972 	jr	Z, 00169$
    000002C6 11 9A 01         [10]  973 	ld	de, #0x019a
    000002C9 C3rCFr02         [10]  974 	jp	00170$
    000002CC                        975 00169$:
    000002CC 11 46 00         [10]  976 	ld	de, #0x0046
    000002CF                        977 00170$:
    000002CF 73               [ 7]  978 	ld	(hl), e
    000002D0 23               [ 6]  979 	inc	hl
    000002D1 72               [ 7]  980 	ld	(hl), d
    000002D2 C3r63r04         [10]  981 	jp	00149$
    000002D5                        982 00133$:
                                    983 ;E:\Dropbox\FAUSTO\SVILUPPI\MSX\CODE\C\MSXgl\projects\exsoccer/exsoccer_s1_b2.c:137: else if (role == PLAYER_ROLE_LEFT_DEFENDER || role == PLAYER_ROLE_RIGHT_DEFENDER) {
    000002D5 DD 7E FB         [19]  984 	ld	a, -5 (ix)
    000002D8 3D               [ 4]  985 	dec	a
    000002D9 3E 01            [ 7]  986 	ld	a, #0x01
    000002DB 28 01            [12]  987 	jr	Z, 00333$
    000002DD AF               [ 4]  988 	xor	a, a
    000002DE                        989 00333$:
    000002DE 4F               [ 4]  990 	ld	c, a
    000002DF B7               [ 4]  991 	or	a, a
    000002E0 20 07            [12]  992 	jr	NZ, 00128$
    000002E2 DD 7E FB         [19]  993 	ld	a, -5 (ix)
    000002E5 D6 02            [ 7]  994 	sub	a, #0x02
    000002E7 20 3E            [12]  995 	jr	NZ, 00129$
    000002E9                        996 00128$:
                                    997 ;E:\Dropbox\FAUSTO\SVILUPPI\MSX\CODE\C\MSXgl\projects\exsoccer/exsoccer_s1_b2.c:138: if (role == PLAYER_ROLE_LEFT_DEFENDER) {
    000002E9 79               [ 4]  998 	ld	a, c
    000002EA B7               [ 4]  999 	or	a, a
    000002EB 28 1D            [12] 1000 	jr	Z, 00119$
                                   1001 ;E:\Dropbox\FAUSTO\SVILUPPI\MSX\CODE\C\MSXgl\projects\exsoccer/exsoccer_s1_b2.c:140: g_Players[i].TargetX = FIELD_POS_X_CENTER - 30;
    000002ED DD 6E F7         [19] 1002 	ld	l, -9 (ix)
    000002F0 DD 66 F8         [19] 1003 	ld	h, -8 (ix)
    000002F3 36 5A            [10] 1004 	ld	(hl), #0x5a
    000002F5 23               [ 6] 1005 	inc	hl
    000002F6 36 00            [10] 1006 	ld	(hl), #0x00
                                   1007 ;E:\Dropbox\FAUSTO\SVILUPPI\MSX\CODE\C\MSXgl\projects\exsoccer/exsoccer_s1_b2.c:141: g_Players[i].TargetY = yMidfieldAdv;
    000002F8 DD 6E F9         [19] 1008 	ld	l, -7 (ix)
    000002FB DD 66 FA         [19] 1009 	ld	h, -6 (ix)
    000002FE DD 7E F3         [19] 1010 	ld	a, -13 (ix)
    00000301 77               [ 7] 1011 	ld	(hl), a
    00000302 23               [ 6] 1012 	inc	hl
    00000303 DD 7E F4         [19] 1013 	ld	a, -12 (ix)
    00000306 77               [ 7] 1014 	ld	(hl), a
    00000307 C3r63r04         [10] 1015 	jp	00149$
    0000030A                       1016 00119$:
                                   1017 ;E:\Dropbox\FAUSTO\SVILUPPI\MSX\CODE\C\MSXgl\projects\exsoccer/exsoccer_s1_b2.c:144: g_Players[i].TargetX = FIELD_POS_X_CENTER;
    0000030A DD 6E F7         [19] 1018 	ld	l, -9 (ix)
    0000030D DD 66 F8         [19] 1019 	ld	h, -8 (ix)
    00000310 36 78            [10] 1020 	ld	(hl), #0x78
    00000312 23               [ 6] 1021 	inc	hl
    00000313 36 00            [10] 1022 	ld	(hl), #0x00
                                   1023 ;E:\Dropbox\FAUSTO\SVILUPPI\MSX\CODE\C\MSXgl\projects\exsoccer/exsoccer_s1_b2.c:145: g_Players[i].TargetY = ySafety;
    00000315 DD 6E F9         [19] 1024 	ld	l, -7 (ix)
    00000318 DD 66 FA         [19] 1025 	ld	h, -6 (ix)
    0000031B DD 7E F5         [19] 1026 	ld	a, -11 (ix)
    0000031E 77               [ 7] 1027 	ld	(hl), a
    0000031F 23               [ 6] 1028 	inc	hl
    00000320 DD 7E F6         [19] 1029 	ld	a, -10 (ix)
    00000323 77               [ 7] 1030 	ld	(hl), a
    00000324 C3r63r04         [10] 1031 	jp	00149$
    00000327                       1032 00129$:
                                   1033 ;E:\Dropbox\FAUSTO\SVILUPPI\MSX\CODE\C\MSXgl\projects\exsoccer/exsoccer_s1_b2.c:148: else if (role == PLAYER_ROLE_LEFT_HALFFIELDER || role == PLAYER_ROLE_RIGHT_HALFFIELDER) {
    00000327 DD 7E FB         [19] 1034 	ld	a, -5 (ix)
    0000032A D6 03            [ 7] 1035 	sub	a, #0x03
    0000032C 3E 01            [ 7] 1036 	ld	a, #0x01
    0000032E 28 01            [12] 1037 	jr	Z, 00337$
    00000330 AF               [ 4] 1038 	xor	a, a
    00000331                       1039 00337$:
    00000331 4F               [ 4] 1040 	ld	c, a
    00000332 B7               [ 4] 1041 	or	a, a
    00000333 20 07            [12] 1042 	jr	NZ, 00124$
    00000335 DD 7E FB         [19] 1043 	ld	a, -5 (ix)
    00000338 D6 04            [ 7] 1044 	sub	a, #0x04
    0000033A 20 3E            [12] 1045 	jr	NZ, 00125$
    0000033C                       1046 00124$:
                                   1047 ;E:\Dropbox\FAUSTO\SVILUPPI\MSX\CODE\C\MSXgl\projects\exsoccer/exsoccer_s1_b2.c:149: if (role == PLAYER_ROLE_LEFT_HALFFIELDER) {
    0000033C 79               [ 4] 1048 	ld	a, c
    0000033D B7               [ 4] 1049 	or	a, a
    0000033E 28 1D            [12] 1050 	jr	Z, 00122$
                                   1051 ;E:\Dropbox\FAUSTO\SVILUPPI\MSX\CODE\C\MSXgl\projects\exsoccer/exsoccer_s1_b2.c:151: g_Players[i].TargetX = FIELD_POS_X_CENTER - 50; 
    00000340 DD 6E F7         [19] 1052 	ld	l, -9 (ix)
    00000343 DD 66 F8         [19] 1053 	ld	h, -8 (ix)
    00000346 36 46            [10] 1054 	ld	(hl), #0x46
    00000348 23               [ 6] 1055 	inc	hl
    00000349 36 00            [10] 1056 	ld	(hl), #0x00
                                   1057 ;E:\Dropbox\FAUSTO\SVILUPPI\MSX\CODE\C\MSXgl\projects\exsoccer/exsoccer_s1_b2.c:152: g_Players[i].TargetY = yBoxOutside;
    0000034B DD 6E F9         [19] 1058 	ld	l, -7 (ix)
    0000034E DD 66 FA         [19] 1059 	ld	h, -6 (ix)
    00000351 DD 7E F1         [19] 1060 	ld	a, -15 (ix)
    00000354 77               [ 7] 1061 	ld	(hl), a
    00000355 23               [ 6] 1062 	inc	hl
    00000356 DD 7E F2         [19] 1063 	ld	a, -14 (ix)
    00000359 77               [ 7] 1064 	ld	(hl), a
    0000035A C3r63r04         [10] 1065 	jp	00149$
    0000035D                       1066 00122$:
                                   1067 ;E:\Dropbox\FAUSTO\SVILUPPI\MSX\CODE\C\MSXgl\projects\exsoccer/exsoccer_s1_b2.c:155: g_Players[i].TargetX = FIELD_POS_X_CENTER + 30;
    0000035D DD 6E F7         [19] 1068 	ld	l, -9 (ix)
    00000360 DD 66 F8         [19] 1069 	ld	h, -8 (ix)
    00000363 36 96            [10] 1070 	ld	(hl), #0x96
    00000365 23               [ 6] 1071 	inc	hl
    00000366 36 00            [10] 1072 	ld	(hl), #0x00
                                   1073 ;E:\Dropbox\FAUSTO\SVILUPPI\MSX\CODE\C\MSXgl\projects\exsoccer/exsoccer_s1_b2.c:156: g_Players[i].TargetY = yMidfieldAdv;
    00000368 DD 6E F9         [19] 1074 	ld	l, -7 (ix)
    0000036B DD 66 FA         [19] 1075 	ld	h, -6 (ix)
    0000036E DD 7E F3         [19] 1076 	ld	a, -13 (ix)
    00000371 77               [ 7] 1077 	ld	(hl), a
    00000372 23               [ 6] 1078 	inc	hl
    00000373 DD 7E F4         [19] 1079 	ld	a, -12 (ix)
    00000376 77               [ 7] 1080 	ld	(hl), a
    00000377 C3r63r04         [10] 1081 	jp	00149$
    0000037A                       1082 00125$:
                                   1083 ;E:\Dropbox\FAUSTO\SVILUPPI\MSX\CODE\C\MSXgl\projects\exsoccer/exsoccer_s1_b2.c:162: g_Players[i].TargetX = FIELD_POS_X_CENTER + 50;
    0000037A DD 6E F7         [19] 1084 	ld	l, -9 (ix)
    0000037D DD 66 F8         [19] 1085 	ld	h, -8 (ix)
    00000380 36 AA            [10] 1086 	ld	(hl), #0xaa
    00000382 23               [ 6] 1087 	inc	hl
    00000383 36 00            [10] 1088 	ld	(hl), #0x00
                                   1089 ;E:\Dropbox\FAUSTO\SVILUPPI\MSX\CODE\C\MSXgl\projects\exsoccer/exsoccer_s1_b2.c:163: g_Players[i].TargetY = yBoxOutside;
    00000385 DD 6E F9         [19] 1090 	ld	l, -7 (ix)
    00000388 DD 66 FA         [19] 1091 	ld	h, -6 (ix)
    0000038B DD 7E F1         [19] 1092 	ld	a, -15 (ix)
    0000038E 77               [ 7] 1093 	ld	(hl), a
    0000038F 23               [ 6] 1094 	inc	hl
    00000390 DD 7E F2         [19] 1095 	ld	a, -14 (ix)
    00000393 77               [ 7] 1096 	ld	(hl), a
    00000394 C3r63r04         [10] 1097 	jp	00149$
    00000397                       1098 00147$:
                                   1099 ;E:\Dropbox\FAUSTO\SVILUPPI\MSX\CODE\C\MSXgl\projects\exsoccer/exsoccer_s1_b2.c:168: if (role == PLAYER_ROLE_GOALKEEPER) {
    00000397 DD 7E FB         [19] 1100 	ld	a, -5 (ix)
    0000039A B7               [ 4] 1101 	or	a, a
    0000039B 20 26            [12] 1102 	jr	NZ, 00144$
                                   1103 ;E:\Dropbox\FAUSTO\SVILUPPI\MSX\CODE\C\MSXgl\projects\exsoccer/exsoccer_s1_b2.c:170: g_Players[i].TargetX = FIELD_POS_X_CENTER;
    0000039D DD 6E F7         [19] 1104 	ld	l, -9 (ix)
    000003A0 DD 66 F8         [19] 1105 	ld	h, -8 (ix)
    000003A3 36 78            [10] 1106 	ld	(hl), #0x78
    000003A5 23               [ 6] 1107 	inc	hl
    000003A6 36 00            [10] 1108 	ld	(hl), #0x00
                                   1109 ;E:\Dropbox\FAUSTO\SVILUPPI\MSX\CODE\C\MSXgl\projects\exsoccer/exsoccer_s1_b2.c:171: g_Players[i].TargetY = (attackingUp) ? FIELD_POS_Y_TEAM2_GOALKEEPER : FIELD_POS_Y_TEAM1_GOALKEEPER;
    000003A8 DD 6E F9         [19] 1110 	ld	l, -7 (ix)
                                   1111 ;	spillPairReg hl
                                   1112 ;	spillPairReg hl
    000003AB DD 66 FA         [19] 1113 	ld	h, -6 (ix)
                                   1114 ;	spillPairReg hl
                                   1115 ;	spillPairReg hl
    000003AE DD 7E EE         [19] 1116 	ld	a, -18 (ix)
    000003B1 B7               [ 4] 1117 	or	a, a
    000003B2 28 06            [12] 1118 	jr	Z, 00171$
    000003B4 11 32 00         [10] 1119 	ld	de, #0x0032
    000003B7 C3rBDr03         [10] 1120 	jp	00172$
    000003BA                       1121 00171$:
    000003BA 11 A8 01         [10] 1122 	ld	de, #0x01a8
    000003BD                       1123 00172$:
    000003BD 73               [ 7] 1124 	ld	(hl), e
    000003BE 23               [ 6] 1125 	inc	hl
    000003BF 72               [ 7] 1126 	ld	(hl), d
    000003C0 C3r63r04         [10] 1127 	jp	00149$
    000003C3                       1128 00144$:
                                   1129 ;E:\Dropbox\FAUSTO\SVILUPPI\MSX\CODE\C\MSXgl\projects\exsoccer/exsoccer_s1_b2.c:173: else if (role == PLAYER_ROLE_LEFT_DEFENDER || role == PLAYER_ROLE_RIGHT_DEFENDER) {
    000003C3 DD 7E FB         [19] 1130 	ld	a, -5 (ix)
    000003C6 3D               [ 4] 1131 	dec	a
    000003C7 3E 01            [ 7] 1132 	ld	a, #0x01
    000003C9 28 01            [12] 1133 	jr	Z, 00341$
    000003CB AF               [ 4] 1134 	xor	a, a
    000003CC                       1135 00341$:
    000003CC 4F               [ 4] 1136 	ld	c, a
    000003CD B7               [ 4] 1137 	or	a, a
    000003CE 20 07            [12] 1138 	jr	NZ, 00139$
    000003D0 DD 7E FB         [19] 1139 	ld	a, -5 (ix)
    000003D3 D6 02            [ 7] 1140 	sub	a, #0x02
    000003D5 20 25            [12] 1141 	jr	NZ, 00140$
    000003D7                       1142 00139$:
                                   1143 ;E:\Dropbox\FAUSTO\SVILUPPI\MSX\CODE\C\MSXgl\projects\exsoccer/exsoccer_s1_b2.c:175: g_Players[i].TargetX = (role == PLAYER_ROLE_LEFT_DEFENDER) ? FIELD_POS_X_CENTER - 20 : FIELD_POS_X_CENTER + 20;
    000003D7 79               [ 4] 1144 	ld	a, c
    000003D8 B7               [ 4] 1145 	or	a, a
    000003D9 0E 64            [ 7] 1146 	ld	c, #0x64
    000003DB 20 02            [12] 1147 	jr	NZ, 00174$
    000003DD 0E 8C            [ 7] 1148 	ld	c, #0x8c
    000003DF                       1149 00174$:
    000003DF 06 00            [ 7] 1150 	ld	b, #0x00
    000003E1 DD 6E F7         [19] 1151 	ld	l, -9 (ix)
    000003E4 DD 66 F8         [19] 1152 	ld	h, -8 (ix)
    000003E7 71               [ 7] 1153 	ld	(hl), c
    000003E8 23               [ 6] 1154 	inc	hl
    000003E9 70               [ 7] 1155 	ld	(hl), b
                                   1156 ;E:\Dropbox\FAUSTO\SVILUPPI\MSX\CODE\C\MSXgl\projects\exsoccer/exsoccer_s1_b2.c:176: g_Players[i].TargetY = yBoxInside;
    000003EA DD 6E F9         [19] 1157 	ld	l, -7 (ix)
    000003ED DD 66 FA         [19] 1158 	ld	h, -6 (ix)
    000003F0 DD 7E EF         [19] 1159 	ld	a, -17 (ix)
    000003F3 77               [ 7] 1160 	ld	(hl), a
    000003F4 23               [ 6] 1161 	inc	hl
    000003F5 DD 7E F0         [19] 1162 	ld	a, -16 (ix)
    000003F8 77               [ 7] 1163 	ld	(hl), a
    000003F9 C3r63r04         [10] 1164 	jp	00149$
    000003FC                       1165 00140$:
                                   1166 ;E:\Dropbox\FAUSTO\SVILUPPI\MSX\CODE\C\MSXgl\projects\exsoccer/exsoccer_s1_b2.c:178: else if (role == PLAYER_ROLE_LEFT_HALFFIELDER || role == PLAYER_ROLE_RIGHT_HALFFIELDER) {
    000003FC DD 7E FB         [19] 1167 	ld	a, -5 (ix)
    000003FF D6 03            [ 7] 1168 	sub	a, #0x03
    00000401 3E 01            [ 7] 1169 	ld	a, #0x01
    00000403 28 01            [12] 1170 	jr	Z, 00345$
    00000405 AF               [ 4] 1171 	xor	a, a
    00000406                       1172 00345$:
    00000406 4F               [ 4] 1173 	ld	c, a
    00000407 B7               [ 4] 1174 	or	a, a
    00000408 20 07            [12] 1175 	jr	NZ, 00135$
    0000040A DD 7E FB         [19] 1176 	ld	a, -5 (ix)
    0000040D D6 04            [ 7] 1177 	sub	a, #0x04
    0000040F 20 25            [12] 1178 	jr	NZ, 00136$
    00000411                       1179 00135$:
                                   1180 ;E:\Dropbox\FAUSTO\SVILUPPI\MSX\CODE\C\MSXgl\projects\exsoccer/exsoccer_s1_b2.c:180: g_Players[i].TargetX = (role == PLAYER_ROLE_LEFT_HALFFIELDER) ? FIELD_POS_X_CENTER - 40 : FIELD_POS_X_CENTER + 40;
    00000411 79               [ 4] 1181 	ld	a, c
    00000412 B7               [ 4] 1182 	or	a, a
    00000413 0E 50            [ 7] 1183 	ld	c, #0x50
    00000415 20 02            [12] 1184 	jr	NZ, 00176$
    00000417 0E A0            [ 7] 1185 	ld	c, #0xa0
    00000419                       1186 00176$:
    00000419 06 00            [ 7] 1187 	ld	b, #0x00
    0000041B DD 6E F7         [19] 1188 	ld	l, -9 (ix)
    0000041E DD 66 F8         [19] 1189 	ld	h, -8 (ix)
    00000421 71               [ 7] 1190 	ld	(hl), c
    00000422 23               [ 6] 1191 	inc	hl
    00000423 70               [ 7] 1192 	ld	(hl), b
                                   1193 ;E:\Dropbox\FAUSTO\SVILUPPI\MSX\CODE\C\MSXgl\projects\exsoccer/exsoccer_s1_b2.c:181: g_Players[i].TargetY = yBoxOutside;
    00000424 DD 6E F9         [19] 1194 	ld	l, -7 (ix)
    00000427 DD 66 FA         [19] 1195 	ld	h, -6 (ix)
    0000042A DD 7E F1         [19] 1196 	ld	a, -15 (ix)
    0000042D 77               [ 7] 1197 	ld	(hl), a
    0000042E 23               [ 6] 1198 	inc	hl
    0000042F DD 7E F2         [19] 1199 	ld	a, -14 (ix)
    00000432 77               [ 7] 1200 	ld	(hl), a
    00000433 C3r63r04         [10] 1201 	jp	00149$
    00000436                       1202 00136$:
                                   1203 ;E:\Dropbox\FAUSTO\SVILUPPI\MSX\CODE\C\MSXgl\projects\exsoccer/exsoccer_s1_b2.c:185: g_Players[i].TargetX = (role == PLAYER_ROLE_LEFT_STRIKER) ? FIELD_POS_X_LEFT + 20 : FIELD_POS_X_RIGHT - 20;
    00000436 DD 7E F7         [19] 1204 	ld	a, -9 (ix)
    00000439 DD 77 FC         [19] 1205 	ld	-4 (ix), a
    0000043C DD 7E F8         [19] 1206 	ld	a, -8 (ix)
    0000043F DD 77 FD         [19] 1207 	ld	-3 (ix), a
    00000442 DD 7E FB         [19] 1208 	ld	a, -5 (ix)
    00000445 D6 05            [ 7] 1209 	sub	a, #0x05
    00000447 0E 3C            [ 7] 1210 	ld	c, #0x3c
    00000449 28 02            [12] 1211 	jr	Z, 00178$
    0000044B 0E B2            [ 7] 1212 	ld	c, #0xb2
    0000044D                       1213 00178$:
    0000044D 06 00            [ 7] 1214 	ld	b, #0x00
    0000044F DD 6E FC         [19] 1215 	ld	l, -4 (ix)
    00000452 DD 66 FD         [19] 1216 	ld	h, -3 (ix)
    00000455 71               [ 7] 1217 	ld	(hl), c
    00000456 23               [ 6] 1218 	inc	hl
    00000457 70               [ 7] 1219 	ld	(hl), b
                                   1220 ;E:\Dropbox\FAUSTO\SVILUPPI\MSX\CODE\C\MSXgl\projects\exsoccer/exsoccer_s1_b2.c:186: g_Players[i].TargetY = yMidfield;
    00000458 DD 6E F9         [19] 1221 	ld	l, -7 (ix)
    0000045B DD 66 FA         [19] 1222 	ld	h, -6 (ix)
    0000045E 36 F3            [10] 1223 	ld	(hl), #0xf3
    00000460 23               [ 6] 1224 	inc	hl
    00000461 36 00            [10] 1225 	ld	(hl), #0x00
    00000463                       1226 00149$:
                                   1227 ;E:\Dropbox\FAUSTO\SVILUPPI\MSX\CODE\C\MSXgl\projects\exsoccer/exsoccer_s1_b2.c:115: for(u8 i=0; i<14; i++) {
    00000463 DD 34 FF         [23] 1228 	inc	-1 (ix)
    00000466 C3rAEr01         [10] 1229 	jp	00152$
    00000469                       1230 00153$:
                                   1231 ;E:\Dropbox\FAUSTO\SVILUPPI\MSX\CODE\C\MSXgl\projects\exsoccer/exsoccer_s1_b2.c:190: }
    00000469 DD F9            [10] 1232 	ld	sp, ix
    0000046B DD E1            [14] 1233 	pop	ix
    0000046D C9               [10] 1234 	ret
    0000046E                       1235 ___str_1:
    0000046E 43 4F 52 4E 45 52 20  1236 	.ascii "CORNER KICK"
             4B 49 43 4B
    00000479 00                    1237 	.db 0x00
                                   1238 ;E:\Dropbox\FAUSTO\SVILUPPI\MSX\CODE\C\MSXgl\projects\exsoccer/exsoccer_s1_b2.c:192: void TickCornerKick() {
                                   1239 ;	---------------------------------
                                   1240 ; Function TickCornerKick
                                   1241 ; ---------------------------------
    0000047A                       1242 _TickCornerKick::
    0000047A DD E5            [15] 1243 	push	ix
    0000047C DD 21 00 00      [14] 1244 	ld	ix,#0
    00000480 DD 39            [15] 1245 	add	ix,sp
    00000482 21 E9 FF         [10] 1246 	ld	hl, #-23
    00000485 39               [11] 1247 	add	hl, sp
    00000486 F9               [ 6] 1248 	ld	sp, hl
                                   1249 ;E:\Dropbox\FAUSTO\SVILUPPI\MSX\CODE\C\MSXgl\projects\exsoccer/exsoccer_s1_b2.c:193: if (g_MatchStatus != MATCH_BEFORE_CORNER_KICK) return;
    00000487 3Ar00r00         [13] 1250 	ld	a, (_g_MatchStatus+0)
    0000048A D6 02            [ 7] 1251 	sub	a, #0x02
    0000048C C2r52r0F         [10] 1252 	jp	NZ,00270$
                                   1253 ;E:\Dropbox\FAUSTO\SVILUPPI\MSX\CODE\C\MSXgl\projects\exsoccer/exsoccer_s1_b2.c:196: if (g_Timer == 0) s_ForceKickTimer = 0;
    0000048F 3Ar00r00         [13] 1254 	ld	a, (_g_Timer+0)
    00000492 B7               [ 4] 1255 	or	a, a
    00000493 20 06            [12] 1256 	jr	NZ, 00104$
    00000495 21 00 00         [10] 1257 	ld	hl, #0x0000
    00000498 22r00r00         [16] 1258 	ld	(_TickCornerKick_s_ForceKickTimer_65537_1180), hl
    0000049B                       1259 00104$:
                                   1260 ;E:\Dropbox\FAUSTO\SVILUPPI\MSX\CODE\C\MSXgl\projects\exsoccer/exsoccer_s1_b2.c:202: if (g_Ball.PossessionPlayerId != NO_VALUE) {
    0000049B 3Ar06r00         [13] 1261 	ld	a, (#(_g_Ball + 6) + 0)
    0000049E FE FF            [ 7] 1262 	cp	a, #0xff
    000004A0 28 06            [12] 1263 	jr	Z, 00109$
                                   1264 ;E:\Dropbox\FAUSTO\SVILUPPI\MSX\CODE\C\MSXgl\projects\exsoccer/exsoccer_s1_b2.c:203: kickerId = g_Ball.PossessionPlayerId;
    000004A2 DD 77 E9         [19] 1265 	ld	-23 (ix), a
    000004A5 C3rC7r04         [10] 1266 	jp	00110$
    000004A8                       1267 00109$:
                                   1268 ;E:\Dropbox\FAUSTO\SVILUPPI\MSX\CODE\C\MSXgl\projects\exsoccer/exsoccer_s1_b2.c:205: if (g_CornerKickSide == CORNER_SIDE_LEFT) kickerId = GetPlayerIdByRole(g_RestartKickTeamId, PLAYER_ROLE_LEFT_STRIKER);
    000004A8 3Ar00r00         [13] 1269 	ld	a, (_g_CornerKickSide+0)
    000004AB B7               [ 4] 1270 	or	a, a
    000004AC 20 0E            [12] 1271 	jr	NZ, 00106$
    000004AE 2E 05            [ 7] 1272 	ld	l, #0x05
                                   1273 ;	spillPairReg hl
                                   1274 ;	spillPairReg hl
    000004B0 3Ar00r00         [13] 1275 	ld	a, (_g_RestartKickTeamId+0)
    000004B3 CDr00r00         [17] 1276 	call	_GetPlayerIdByRole
    000004B6 DD 77 E9         [19] 1277 	ld	-23 (ix), a
    000004B9 C3rC7r04         [10] 1278 	jp	00110$
    000004BC                       1279 00106$:
                                   1280 ;E:\Dropbox\FAUSTO\SVILUPPI\MSX\CODE\C\MSXgl\projects\exsoccer/exsoccer_s1_b2.c:206: else kickerId = GetPlayerIdByRole(g_RestartKickTeamId, PLAYER_ROLE_RIGHT_STRIKER);
    000004BC 2E 06            [ 7] 1281 	ld	l, #0x06
                                   1282 ;	spillPairReg hl
                                   1283 ;	spillPairReg hl
    000004BE 3Ar00r00         [13] 1284 	ld	a, (_g_RestartKickTeamId+0)
    000004C1 CDr00r00         [17] 1285 	call	_GetPlayerIdByRole
    000004C4 DD 77 E9         [19] 1286 	ld	-23 (ix), a
    000004C7                       1287 00110$:
                                   1288 ;E:\Dropbox\FAUSTO\SVILUPPI\MSX\CODE\C\MSXgl\projects\exsoccer/exsoccer_s1_b2.c:210: if (kickerId == NO_VALUE) {
    000004C7 DD 7E E9         [19] 1289 	ld	a, -23 (ix)
    000004CA 3C               [ 4] 1290 	inc	a
    000004CB 20 0B            [12] 1291 	jr	NZ, 00112$
                                   1292 ;E:\Dropbox\FAUSTO\SVILUPPI\MSX\CODE\C\MSXgl\projects\exsoccer/exsoccer_s1_b2.c:211: kickerId = GetClosestPlayerToBall(g_RestartKickTeamId, NO_VALUE);
    000004CD 2E FF            [ 7] 1293 	ld	l, #0xff
                                   1294 ;	spillPairReg hl
                                   1295 ;	spillPairReg hl
    000004CF 3Ar00r00         [13] 1296 	ld	a, (_g_RestartKickTeamId+0)
    000004D2 CDr00r00         [17] 1297 	call	_GetClosestPlayerToBall
    000004D5 DD 77 E9         [19] 1298 	ld	-23 (ix), a
    000004D8                       1299 00112$:
                                   1300 ;E:\Dropbox\FAUSTO\SVILUPPI\MSX\CODE\C\MSXgl\projects\exsoccer/exsoccer_s1_b2.c:219: bool kickerArrived = false;
    000004D8 DD 36 EA 00      [19] 1301 	ld	-22 (ix), #0x00
                                   1302 ;E:\Dropbox\FAUSTO\SVILUPPI\MSX\CODE\C\MSXgl\projects\exsoccer/exsoccer_s1_b2.c:220: if (kickerId != NO_VALUE) {
    000004DC DD 7E E9         [19] 1303 	ld	a, -23 (ix)
    000004DF 3C               [ 4] 1304 	inc	a
    000004E0 3E 01            [ 7] 1305 	ld	a, #0x01
    000004E2 28 01            [12] 1306 	jr	Z, 00800$
    000004E4 AF               [ 4] 1307 	xor	a, a
    000004E5                       1308 00800$:
    000004E5 DD 77 EB         [19] 1309 	ld	-21 (ix), a
    000004E8 DD CB EB 46      [20] 1310 	bit	0, -21 (ix)
    000004EC C2r75r06         [10] 1311 	jp	NZ, 00121$
                                   1312 ;E:\Dropbox\FAUSTO\SVILUPPI\MSX\CODE\C\MSXgl\projects\exsoccer/exsoccer_s1_b2.c:221: i16 dx = (i16)g_Players[kickerId].X - (i16)g_Players[kickerId].TargetX;
    000004EF DD 4E E9         [19] 1313 	ld	c, -23 (ix)
    000004F2 06 00            [ 7] 1314 	ld	b, #0x00
    000004F4 69               [ 4] 1315 	ld	l, c
    000004F5 60               [ 4] 1316 	ld	h, b
    000004F6 29               [11] 1317 	add	hl, hl
    000004F7 29               [11] 1318 	add	hl, hl
    000004F8 09               [11] 1319 	add	hl, bc
    000004F9 29               [11] 1320 	add	hl, hl
    000004FA 29               [11] 1321 	add	hl, hl
    000004FB 09               [11] 1322 	add	hl, bc
    000004FC DD 75 FE         [19] 1323 	ld	-2 (ix), l
    000004FF DD 74 FF         [19] 1324 	ld	-1 (ix), h
    00000502 3Er00            [ 7] 1325 	ld	a, #<(_g_Players)
    00000504 DD 86 FE         [19] 1326 	add	a, -2 (ix)
    00000507 DD 77 F0         [19] 1327 	ld	-16 (ix), a
    0000050A 3Es00            [ 7] 1328 	ld	a, #>(_g_Players)
    0000050C DD 8E FF         [19] 1329 	adc	a, -1 (ix)
    0000050F DD 77 F1         [19] 1330 	ld	-15 (ix), a
    00000512 DD 7E F0         [19] 1331 	ld	a, -16 (ix)
    00000515 C6 02            [ 7] 1332 	add	a, #0x02
    00000517 DD 77 F2         [19] 1333 	ld	-14 (ix), a
    0000051A DD 7E F1         [19] 1334 	ld	a, -15 (ix)
    0000051D CE 00            [ 7] 1335 	adc	a, #0x00
    0000051F DD 77 F3         [19] 1336 	ld	-13 (ix), a
    00000522 DD 6E F2         [19] 1337 	ld	l, -14 (ix)
    00000525 DD 66 F3         [19] 1338 	ld	h, -13 (ix)
    00000528 7E               [ 7] 1339 	ld	a, (hl)
    00000529 DD 77 FE         [19] 1340 	ld	-2 (ix), a
    0000052C 23               [ 6] 1341 	inc	hl
    0000052D 7E               [ 7] 1342 	ld	a, (hl)
    0000052E DD 77 FF         [19] 1343 	ld	-1 (ix), a
    00000531 DD 7E FE         [19] 1344 	ld	a, -2 (ix)
    00000534 DD 77 FA         [19] 1345 	ld	-6 (ix), a
    00000537 DD 7E FF         [19] 1346 	ld	a, -1 (ix)
    0000053A DD 77 FB         [19] 1347 	ld	-5 (ix), a
    0000053D DD 7E F0         [19] 1348 	ld	a, -16 (ix)
    00000540 DD 77 FE         [19] 1349 	ld	-2 (ix), a
    00000543 DD 7E F1         [19] 1350 	ld	a, -15 (ix)
    00000546 DD 77 FF         [19] 1351 	ld	-1 (ix), a
    00000549 DD 6E FE         [19] 1352 	ld	l, -2 (ix)
    0000054C DD 66 FF         [19] 1353 	ld	h, -1 (ix)
    0000054F 11 10 00         [10] 1354 	ld	de, #0x0010
    00000552 19               [11] 1355 	add	hl, de
    00000553 7E               [ 7] 1356 	ld	a, (hl)
    00000554 DD 77 F4         [19] 1357 	ld	-12 (ix), a
    00000557 23               [ 6] 1358 	inc	hl
    00000558 7E               [ 7] 1359 	ld	a, (hl)
    00000559 DD 77 F5         [19] 1360 	ld	-11 (ix), a
    0000055C DD 7E F4         [19] 1361 	ld	a, -12 (ix)
    0000055F DD 77 FC         [19] 1362 	ld	-4 (ix), a
    00000562 DD 7E F5         [19] 1363 	ld	a, -11 (ix)
    00000565 DD 77 FD         [19] 1364 	ld	-3 (ix), a
    00000568 DD 7E FA         [19] 1365 	ld	a, -6 (ix)
    0000056B DD 96 FC         [19] 1366 	sub	a, -4 (ix)
    0000056E DD 77 FE         [19] 1367 	ld	-2 (ix), a
    00000571 DD 7E FB         [19] 1368 	ld	a, -5 (ix)
    00000574 DD 9E FD         [19] 1369 	sbc	a, -3 (ix)
    00000577 DD 77 FF         [19] 1370 	ld	-1 (ix), a
    0000057A DD 7E FE         [19] 1371 	ld	a, -2 (ix)
    0000057D DD 77 F6         [19] 1372 	ld	-10 (ix), a
    00000580 DD 7E FF         [19] 1373 	ld	a, -1 (ix)
    00000583 DD 77 F7         [19] 1374 	ld	-9 (ix), a
                                   1375 ;E:\Dropbox\FAUSTO\SVILUPPI\MSX\CODE\C\MSXgl\projects\exsoccer/exsoccer_s1_b2.c:222: i16 dy = (i16)g_Players[kickerId].Y - (i16)g_Players[kickerId].TargetY;
    00000586 DD 6E F0         [19] 1376 	ld	l, -16 (ix)
    00000589 DD 66 F1         [19] 1377 	ld	h, -15 (ix)
    0000058C 7E               [ 7] 1378 	ld	a, (hl)
    0000058D DD 77 FE         [19] 1379 	ld	-2 (ix), a
    00000590 23               [ 6] 1380 	inc	hl
    00000591 7E               [ 7] 1381 	ld	a, (hl)
    00000592 DD 77 FF         [19] 1382 	ld	-1 (ix), a
    00000595 DD 7E FE         [19] 1383 	ld	a, -2 (ix)
    00000598 DD 77 F8         [19] 1384 	ld	-8 (ix), a
    0000059B DD 7E FF         [19] 1385 	ld	a, -1 (ix)
    0000059E DD 77 F9         [19] 1386 	ld	-7 (ix), a
    000005A1 DD 7E F0         [19] 1387 	ld	a, -16 (ix)
    000005A4 C6 0E            [ 7] 1388 	add	a, #0x0e
    000005A6 DD 77 FA         [19] 1389 	ld	-6 (ix), a
    000005A9 DD 7E F1         [19] 1390 	ld	a, -15 (ix)
    000005AC CE 00            [ 7] 1391 	adc	a, #0x00
    000005AE DD 77 FB         [19] 1392 	ld	-5 (ix), a
    000005B1 DD 6E FA         [19] 1393 	ld	l, -6 (ix)
    000005B4 DD 66 FB         [19] 1394 	ld	h, -5 (ix)
    000005B7 7E               [ 7] 1395 	ld	a, (hl)
    000005B8 DD 77 FE         [19] 1396 	ld	-2 (ix), a
    000005BB 23               [ 6] 1397 	inc	hl
    000005BC 7E               [ 7] 1398 	ld	a, (hl)
    000005BD DD 77 FF         [19] 1399 	ld	-1 (ix), a
    000005C0 DD 7E FE         [19] 1400 	ld	a, -2 (ix)
    000005C3 DD 77 FC         [19] 1401 	ld	-4 (ix), a
    000005C6 DD 7E FF         [19] 1402 	ld	a, -1 (ix)
    000005C9 DD 77 FD         [19] 1403 	ld	-3 (ix), a
    000005CC DD 7E F8         [19] 1404 	ld	a, -8 (ix)
    000005CF DD 96 FC         [19] 1405 	sub	a, -4 (ix)
    000005D2 DD 77 FE         [19] 1406 	ld	-2 (ix), a
    000005D5 DD 7E F9         [19] 1407 	ld	a, -7 (ix)
    000005D8 DD 9E FD         [19] 1408 	sbc	a, -3 (ix)
    000005DB DD 77 FF         [19] 1409 	ld	-1 (ix), a
                                   1410 ;E:\Dropbox\FAUSTO\SVILUPPI\MSX\CODE\C\MSXgl\projects\exsoccer/exsoccer_s1_b2.c:224: if (dx >= -2 && dx <= 2 && dy >= -2 && dy <= 2) {
    000005DE DD 7E F6         [19] 1411 	ld	a, -10 (ix)
    000005E1 D6 FE            [ 7] 1412 	sub	a, #0xfe
    000005E3 DD 7E F7         [19] 1413 	ld	a, -9 (ix)
    000005E6 17               [ 4] 1414 	rla
    000005E7 3F               [ 4] 1415 	ccf
    000005E8 1F               [ 4] 1416 	rra
    000005E9 DE 7F            [ 7] 1417 	sbc	a, #0x7f
    000005EB DAr75r06         [10] 1418 	jp	C, 00121$
    000005EE DD 4E F6         [19] 1419 	ld	c, -10 (ix)
    000005F1 DD 46 F7         [19] 1420 	ld	b, -9 (ix)
    000005F4 3E 02            [ 7] 1421 	ld	a, #0x02
    000005F6 B9               [ 4] 1422 	cp	a, c
    000005F7 3E 00            [ 7] 1423 	ld	a, #0x00
    000005F9 98               [ 4] 1424 	sbc	a, b
    000005FA E2rFFr05         [10] 1425 	jp	PO, 00801$
    000005FD EE 80            [ 7] 1426 	xor	a, #0x80
    000005FF                       1427 00801$:
    000005FF FAr75r06         [10] 1428 	jp	M, 00121$
    00000602 DD 7E FE         [19] 1429 	ld	a, -2 (ix)
    00000605 D6 FE            [ 7] 1430 	sub	a, #0xfe
    00000607 DD 7E FF         [19] 1431 	ld	a, -1 (ix)
    0000060A 17               [ 4] 1432 	rla
    0000060B 3F               [ 4] 1433 	ccf
    0000060C 1F               [ 4] 1434 	rra
    0000060D DE 7F            [ 7] 1435 	sbc	a, #0x7f
    0000060F 38 64            [12] 1436 	jr	C, 00121$
    00000611 DD 4E FE         [19] 1437 	ld	c, -2 (ix)
    00000614 DD 46 FF         [19] 1438 	ld	b, -1 (ix)
    00000617 3E 02            [ 7] 1439 	ld	a, #0x02
    00000619 B9               [ 4] 1440 	cp	a, c
    0000061A 3E 00            [ 7] 1441 	ld	a, #0x00
    0000061C 98               [ 4] 1442 	sbc	a, b
    0000061D E2r22r06         [10] 1443 	jp	PO, 00802$
    00000620 EE 80            [ 7] 1444 	xor	a, #0x80
    00000622                       1445 00802$:
    00000622 FAr75r06         [10] 1446 	jp	M, 00121$
                                   1447 ;E:\Dropbox\FAUSTO\SVILUPPI\MSX\CODE\C\MSXgl\projects\exsoccer/exsoccer_s1_b2.c:225: kickerArrived = true;
    00000625 DD 36 EA 01      [19] 1448 	ld	-22 (ix), #0x01
                                   1449 ;E:\Dropbox\FAUSTO\SVILUPPI\MSX\CODE\C\MSXgl\projects\exsoccer/exsoccer_s1_b2.c:226: g_Players[kickerId].X = g_Players[kickerId].TargetX;
    00000629 DD 6E F2         [19] 1450 	ld	l, -14 (ix)
    0000062C DD 66 F3         [19] 1451 	ld	h, -13 (ix)
    0000062F DD 7E F4         [19] 1452 	ld	a, -12 (ix)
    00000632 77               [ 7] 1453 	ld	(hl), a
    00000633 23               [ 6] 1454 	inc	hl
    00000634 DD 7E F5         [19] 1455 	ld	a, -11 (ix)
    00000637 77               [ 7] 1456 	ld	(hl), a
                                   1457 ;E:\Dropbox\FAUSTO\SVILUPPI\MSX\CODE\C\MSXgl\projects\exsoccer/exsoccer_s1_b2.c:227: g_Players[kickerId].Y = g_Players[kickerId].TargetY;
    00000638 DD 6E FA         [19] 1458 	ld	l, -6 (ix)
    0000063B DD 66 FB         [19] 1459 	ld	h, -5 (ix)
    0000063E 4E               [ 7] 1460 	ld	c, (hl)
    0000063F 23               [ 6] 1461 	inc	hl
    00000640 46               [ 7] 1462 	ld	b, (hl)
    00000641 DD 6E F0         [19] 1463 	ld	l, -16 (ix)
    00000644 DD 66 F1         [19] 1464 	ld	h, -15 (ix)
    00000647 71               [ 7] 1465 	ld	(hl), c
    00000648 23               [ 6] 1466 	inc	hl
    00000649 70               [ 7] 1467 	ld	(hl), b
                                   1468 ;E:\Dropbox\FAUSTO\SVILUPPI\MSX\CODE\C\MSXgl\projects\exsoccer/exsoccer_s1_b2.c:228: g_Players[kickerId].Status = PLAYER_STATUS_POSITIONED;
    0000064A DD 6E F0         [19] 1469 	ld	l, -16 (ix)
    0000064D DD 66 F1         [19] 1470 	ld	h, -15 (ix)
    00000650 11 12 00         [10] 1471 	ld	de, #0x0012
    00000653 19               [11] 1472 	add	hl, de
    00000654 36 04            [10] 1473 	ld	(hl), #0x04
    00000656 23               [ 6] 1474 	inc	hl
    00000657 36 00            [10] 1475 	ld	(hl), #0x00
                                   1476 ;E:\Dropbox\FAUSTO\SVILUPPI\MSX\CODE\C\MSXgl\projects\exsoccer/exsoccer_s1_b2.c:230: if (g_Ball.PossessionPlayerId != kickerId) {
    00000659 21r06r00         [10] 1477 	ld	hl, #(_g_Ball + 6)
    0000065C DD 7E E9         [19] 1478 	ld	a,-23 (ix)
    0000065F 96               [ 7] 1479 	sub	a,(hl)
    00000660 28 13            [12] 1480 	jr	Z, 00121$
                                   1481 ;E:\Dropbox\FAUSTO\SVILUPPI\MSX\CODE\C\MSXgl\projects\exsoccer/exsoccer_s1_b2.c:231: SetPlayerBallPossession(kickerId);
    00000662 DD 7E E9         [19] 1482 	ld	a, -23 (ix)
    00000665 CDr00r00         [17] 1483 	call	_SetPlayerBallPossession
                                   1484 ;E:\Dropbox\FAUSTO\SVILUPPI\MSX\CODE\C\MSXgl\projects\exsoccer/exsoccer_s1_b2.c:232: g_Ball.PossessionPlayerId = kickerId;
    00000668 21r06r00         [10] 1485 	ld	hl, #(_g_Ball + 6)
    0000066B DD 7E E9         [19] 1486 	ld	a, -23 (ix)
    0000066E 77               [ 7] 1487 	ld	(hl), a
                                   1488 ;E:\Dropbox\FAUSTO\SVILUPPI\MSX\CODE\C\MSXgl\projects\exsoccer/exsoccer_s1_b2.c:233: PutBallOnPlayerFeet(kickerId);
    0000066F DD 7E E9         [19] 1489 	ld	a, -23 (ix)
    00000672 CDrF7r1C         [17] 1490 	call	_PutBallOnPlayerFeet
    00000675                       1491 00121$:
                                   1492 ;E:\Dropbox\FAUSTO\SVILUPPI\MSX\CODE\C\MSXgl\projects\exsoccer/exsoccer_s1_b2.c:239: bool teammatesArrived = true;
    00000675 DD 36 EC 01      [19] 1493 	ld	-20 (ix), #0x01
                                   1494 ;E:\Dropbox\FAUSTO\SVILUPPI\MSX\CODE\C\MSXgl\projects\exsoccer/exsoccer_s1_b2.c:240: for(u8 i=0; i<14; i++) {
    00000679 DD 36 FF 00      [19] 1495 	ld	-1 (ix), #0x00
    0000067D                       1496 00263$:
    0000067D DD 7E FF         [19] 1497 	ld	a, -1 (ix)
    00000680 D6 0E            [ 7] 1498 	sub	a, #0x0e
    00000682 D2r54r08         [10] 1499 	jp	NC, 00134$
                                   1500 ;E:\Dropbox\FAUSTO\SVILUPPI\MSX\CODE\C\MSXgl\projects\exsoccer/exsoccer_s1_b2.c:241: if (g_Players[i].TeamId == g_RestartKickTeamId && i != kickerId && g_Players[i].Role != PLAYER_ROLE_GOALKEEPER) {
    00000685 DD 4E FF         [19] 1501 	ld	c, -1 (ix)
    00000688 06 00            [ 7] 1502 	ld	b, #0x00
    0000068A 69               [ 4] 1503 	ld	l, c
    0000068B 60               [ 4] 1504 	ld	h, b
    0000068C 29               [11] 1505 	add	hl, hl
    0000068D 29               [11] 1506 	add	hl, hl
    0000068E 09               [11] 1507 	add	hl, bc
    0000068F 29               [11] 1508 	add	hl, hl
    00000690 29               [11] 1509 	add	hl, hl
    00000691 09               [11] 1510 	add	hl, bc
    00000692 DD 75 FD         [19] 1511 	ld	-3 (ix), l
    00000695 DD 74 FE         [19] 1512 	ld	-2 (ix), h
    00000698 DD 7E FD         [19] 1513 	ld	a, -3 (ix)
    0000069B C6r00            [ 7] 1514 	add	a, #<(_g_Players)
    0000069D DD 77 ED         [19] 1515 	ld	-19 (ix), a
    000006A0 DD 7E FE         [19] 1516 	ld	a, -2 (ix)
    000006A3 CEs00            [ 7] 1517 	adc	a, #>(_g_Players)
    000006A5 DD 77 EE         [19] 1518 	ld	-18 (ix), a
    000006A8 DD 7E ED         [19] 1519 	ld	a, -19 (ix)
    000006AB DD 77 FD         [19] 1520 	ld	-3 (ix), a
    000006AE DD 7E EE         [19] 1521 	ld	a, -18 (ix)
    000006B1 DD 77 FE         [19] 1522 	ld	-2 (ix), a
    000006B4 DD 6E FD         [19] 1523 	ld	l, -3 (ix)
    000006B7 DD 66 FE         [19] 1524 	ld	h, -2 (ix)
    000006BA 11 09 00         [10] 1525 	ld	de, #0x0009
    000006BD 19               [11] 1526 	add	hl, de
    000006BE 4E               [ 7] 1527 	ld	c, (hl)
    000006BF 3Ar00r00         [13] 1528 	ld	a, (_g_RestartKickTeamId+0)
    000006C2 91               [ 4] 1529 	sub	a, c
    000006C3 C2r4Er08         [10] 1530 	jp	NZ,00264$
    000006C6 DD 7E FF         [19] 1531 	ld	a, -1 (ix)
    000006C9 DD 96 E9         [19] 1532 	sub	a, -23 (ix)
    000006CC CAr4Er08         [10] 1533 	jp	Z,00264$
    000006CF DD 7E ED         [19] 1534 	ld	a, -19 (ix)
    000006D2 DD 77 FD         [19] 1535 	ld	-3 (ix), a
    000006D5 DD 7E EE         [19] 1536 	ld	a, -18 (ix)
    000006D8 DD 77 FE         [19] 1537 	ld	-2 (ix), a
    000006DB DD 6E FD         [19] 1538 	ld	l, -3 (ix)
    000006DE DD 66 FE         [19] 1539 	ld	h, -2 (ix)
    000006E1 11 0D 00         [10] 1540 	ld	de, #0x000d
    000006E4 19               [11] 1541 	add	hl, de
    000006E5 7E               [ 7] 1542 	ld	a, (hl)
    000006E6 DD 77 FE         [19] 1543 	ld	-2 (ix), a
    000006E9 B7               [ 4] 1544 	or	a, a
    000006EA CAr4Er08         [10] 1545 	jp	Z, 00264$
                                   1546 ;E:\Dropbox\FAUSTO\SVILUPPI\MSX\CODE\C\MSXgl\projects\exsoccer/exsoccer_s1_b2.c:243: if (g_Players[i].Status != PLAYER_STATUS_POSITIONED) {
    000006ED DD 7E ED         [19] 1547 	ld	a, -19 (ix)
    000006F0 C6 12            [ 7] 1548 	add	a, #0x12
    000006F2 DD 77 EF         [19] 1549 	ld	-17 (ix), a
    000006F5 DD 7E EE         [19] 1550 	ld	a, -18 (ix)
    000006F8 CE 00            [ 7] 1551 	adc	a, #0x00
    000006FA DD 77 F0         [19] 1552 	ld	-16 (ix), a
    000006FD DD 6E EF         [19] 1553 	ld	l, -17 (ix)
    00000700 DD 66 F0         [19] 1554 	ld	h, -16 (ix)
    00000703 7E               [ 7] 1555 	ld	a, (hl)
    00000704 DD 77 FD         [19] 1556 	ld	-3 (ix), a
    00000707 23               [ 6] 1557 	inc	hl
    00000708 7E               [ 7] 1558 	ld	a, (hl)
    00000709 DD 77 FE         [19] 1559 	ld	-2 (ix), a
    0000070C DD 7E FD         [19] 1560 	ld	a, -3 (ix)
    0000070F D6 04            [ 7] 1561 	sub	a, #0x04
    00000711 DD B6 FE         [19] 1562 	or	a, -2 (ix)
    00000714 CAr4Er08         [10] 1563 	jp	Z,00264$
                                   1564 ;E:\Dropbox\FAUSTO\SVILUPPI\MSX\CODE\C\MSXgl\projects\exsoccer/exsoccer_s1_b2.c:244: i16 dx = (i16)g_Players[i].X - (i16)g_Players[i].TargetX;
    00000717 DD 7E ED         [19] 1565 	ld	a, -19 (ix)
    0000071A C6 02            [ 7] 1566 	add	a, #0x02
    0000071C DD 77 F1         [19] 1567 	ld	-15 (ix), a
    0000071F DD 7E EE         [19] 1568 	ld	a, -18 (ix)
    00000722 CE 00            [ 7] 1569 	adc	a, #0x00
    00000724 DD 77 F2         [19] 1570 	ld	-14 (ix), a
    00000727 DD 6E F1         [19] 1571 	ld	l, -15 (ix)
    0000072A DD 66 F2         [19] 1572 	ld	h, -14 (ix)
    0000072D 7E               [ 7] 1573 	ld	a, (hl)
    0000072E DD 77 FD         [19] 1574 	ld	-3 (ix), a
    00000731 23               [ 6] 1575 	inc	hl
    00000732 7E               [ 7] 1576 	ld	a, (hl)
    00000733 DD 77 FE         [19] 1577 	ld	-2 (ix), a
    00000736 DD 7E FD         [19] 1578 	ld	a, -3 (ix)
    00000739 DD 77 FB         [19] 1579 	ld	-5 (ix), a
    0000073C DD 7E FE         [19] 1580 	ld	a, -2 (ix)
    0000073F DD 77 FC         [19] 1581 	ld	-4 (ix), a
    00000742 DD 7E ED         [19] 1582 	ld	a, -19 (ix)
    00000745 DD 77 FD         [19] 1583 	ld	-3 (ix), a
    00000748 DD 7E EE         [19] 1584 	ld	a, -18 (ix)
    0000074B DD 77 FE         [19] 1585 	ld	-2 (ix), a
    0000074E DD 6E FD         [19] 1586 	ld	l, -3 (ix)
    00000751 DD 66 FE         [19] 1587 	ld	h, -2 (ix)
    00000754 11 10 00         [10] 1588 	ld	de, #0x0010
    00000757 19               [11] 1589 	add	hl, de
    00000758 7E               [ 7] 1590 	ld	a, (hl)
    00000759 DD 77 F3         [19] 1591 	ld	-13 (ix), a
    0000075C 23               [ 6] 1592 	inc	hl
    0000075D 7E               [ 7] 1593 	ld	a, (hl)
    0000075E DD 77 F4         [19] 1594 	ld	-12 (ix), a
    00000761 DD 6E F3         [19] 1595 	ld	l, -13 (ix)
                                   1596 ;	spillPairReg hl
                                   1597 ;	spillPairReg hl
    00000764 DD 66 F4         [19] 1598 	ld	h, -12 (ix)
                                   1599 ;	spillPairReg hl
                                   1600 ;	spillPairReg hl
    00000767 DD 7E FB         [19] 1601 	ld	a, -5 (ix)
    0000076A 95               [ 4] 1602 	sub	a, l
    0000076B DD 77 FD         [19] 1603 	ld	-3 (ix), a
    0000076E DD 7E FC         [19] 1604 	ld	a, -4 (ix)
    00000771 9C               [ 4] 1605 	sbc	a, h
    00000772 DD 77 FE         [19] 1606 	ld	-2 (ix), a
    00000775 DD 7E FD         [19] 1607 	ld	a, -3 (ix)
    00000778 DD 77 F5         [19] 1608 	ld	-11 (ix), a
    0000077B DD 7E FE         [19] 1609 	ld	a, -2 (ix)
    0000077E DD 77 F6         [19] 1610 	ld	-10 (ix), a
                                   1611 ;E:\Dropbox\FAUSTO\SVILUPPI\MSX\CODE\C\MSXgl\projects\exsoccer/exsoccer_s1_b2.c:245: i16 dy = (i16)g_Players[i].Y - (i16)g_Players[i].TargetY;
    00000781 DD 6E ED         [19] 1612 	ld	l, -19 (ix)
    00000784 DD 66 EE         [19] 1613 	ld	h, -18 (ix)
    00000787 7E               [ 7] 1614 	ld	a, (hl)
    00000788 DD 77 FD         [19] 1615 	ld	-3 (ix), a
    0000078B 23               [ 6] 1616 	inc	hl
    0000078C 7E               [ 7] 1617 	ld	a, (hl)
    0000078D DD 77 FE         [19] 1618 	ld	-2 (ix), a
    00000790 DD 7E FD         [19] 1619 	ld	a, -3 (ix)
    00000793 DD 77 F7         [19] 1620 	ld	-9 (ix), a
    00000796 DD 7E FE         [19] 1621 	ld	a, -2 (ix)
    00000799 DD 77 F8         [19] 1622 	ld	-8 (ix), a
    0000079C DD 7E ED         [19] 1623 	ld	a, -19 (ix)
    0000079F C6 0E            [ 7] 1624 	add	a, #0x0e
    000007A1 DD 77 F9         [19] 1625 	ld	-7 (ix), a
    000007A4 DD 7E EE         [19] 1626 	ld	a, -18 (ix)
    000007A7 CE 00            [ 7] 1627 	adc	a, #0x00
    000007A9 DD 77 FA         [19] 1628 	ld	-6 (ix), a
    000007AC DD 6E F9         [19] 1629 	ld	l, -7 (ix)
    000007AF DD 66 FA         [19] 1630 	ld	h, -6 (ix)
    000007B2 7E               [ 7] 1631 	ld	a, (hl)
    000007B3 DD 77 FD         [19] 1632 	ld	-3 (ix), a
    000007B6 23               [ 6] 1633 	inc	hl
    000007B7 7E               [ 7] 1634 	ld	a, (hl)
    000007B8 DD 77 FE         [19] 1635 	ld	-2 (ix), a
    000007BB DD 7E FD         [19] 1636 	ld	a, -3 (ix)
    000007BE DD 77 FB         [19] 1637 	ld	-5 (ix), a
    000007C1 DD 7E FE         [19] 1638 	ld	a, -2 (ix)
    000007C4 DD 77 FC         [19] 1639 	ld	-4 (ix), a
    000007C7 DD 7E F7         [19] 1640 	ld	a, -9 (ix)
    000007CA DD 96 FB         [19] 1641 	sub	a, -5 (ix)
    000007CD DD 77 FD         [19] 1642 	ld	-3 (ix), a
    000007D0 DD 7E F8         [19] 1643 	ld	a, -8 (ix)
    000007D3 DD 9E FC         [19] 1644 	sbc	a, -4 (ix)
    000007D6 DD 77 FE         [19] 1645 	ld	-2 (ix), a
    000007D9 DD 4E FD         [19] 1646 	ld	c, -3 (ix)
    000007DC DD 46 FE         [19] 1647 	ld	b, -2 (ix)
                                   1648 ;E:\Dropbox\FAUSTO\SVILUPPI\MSX\CODE\C\MSXgl\projects\exsoccer/exsoccer_s1_b2.c:246: if (dx < -6 || dx > 6 || dy < -6 || dy > 6) {
    000007DF DD 7E F5         [19] 1649 	ld	a, -11 (ix)
    000007E2 D6 FA            [ 7] 1650 	sub	a, #0xfa
    000007E4 DD 7E F6         [19] 1651 	ld	a, -10 (ix)
    000007E7 17               [ 4] 1652 	rla
    000007E8 3F               [ 4] 1653 	ccf
    000007E9 1F               [ 4] 1654 	rra
    000007EA DE 7F            [ 7] 1655 	sbc	a, #0x7f
    000007EC 38 2D            [12] 1656 	jr	C, 00122$
    000007EE DD 5E F5         [19] 1657 	ld	e, -11 (ix)
    000007F1 DD 56 F6         [19] 1658 	ld	d, -10 (ix)
    000007F4 3E 06            [ 7] 1659 	ld	a, #0x06
    000007F6 BB               [ 4] 1660 	cp	a, e
    000007F7 3E 00            [ 7] 1661 	ld	a, #0x00
    000007F9 9A               [ 4] 1662 	sbc	a, d
    000007FA E2rFFr07         [10] 1663 	jp	PO, 00808$
    000007FD EE 80            [ 7] 1664 	xor	a, #0x80
    000007FF                       1665 00808$:
    000007FF FAr1Br08         [10] 1666 	jp	M, 00122$
    00000802 79               [ 4] 1667 	ld	a, c
    00000803 D6 FA            [ 7] 1668 	sub	a, #0xfa
    00000805 78               [ 4] 1669 	ld	a, b
    00000806 17               [ 4] 1670 	rla
    00000807 3F               [ 4] 1671 	ccf
    00000808 1F               [ 4] 1672 	rra
    00000809 DE 7F            [ 7] 1673 	sbc	a, #0x7f
    0000080B 38 0E            [12] 1674 	jr	C, 00122$
    0000080D 3E 06            [ 7] 1675 	ld	a, #0x06
    0000080F B9               [ 4] 1676 	cp	a, c
    00000810 3E 00            [ 7] 1677 	ld	a, #0x00
    00000812 98               [ 4] 1678 	sbc	a, b
    00000813 E2r18r08         [10] 1679 	jp	PO, 00809$
    00000816 EE 80            [ 7] 1680 	xor	a, #0x80
    00000818                       1681 00809$:
    00000818 F2r22r08         [10] 1682 	jp	P, 00123$
    0000081B                       1683 00122$:
                                   1684 ;E:\Dropbox\FAUSTO\SVILUPPI\MSX\CODE\C\MSXgl\projects\exsoccer/exsoccer_s1_b2.c:247: teammatesArrived = false; // Someone is still far away
    0000081B DD 36 EC 00      [19] 1685 	ld	-20 (ix), #0x00
    0000081F C3r4Er08         [10] 1686 	jp	00264$
    00000822                       1687 00123$:
                                   1688 ;E:\Dropbox\FAUSTO\SVILUPPI\MSX\CODE\C\MSXgl\projects\exsoccer/exsoccer_s1_b2.c:250: g_Players[i].X = g_Players[i].TargetX;
    00000822 DD 6E F1         [19] 1689 	ld	l, -15 (ix)
    00000825 DD 66 F2         [19] 1690 	ld	h, -14 (ix)
    00000828 DD 7E F3         [19] 1691 	ld	a, -13 (ix)
    0000082B 77               [ 7] 1692 	ld	(hl), a
    0000082C 23               [ 6] 1693 	inc	hl
    0000082D DD 7E F4         [19] 1694 	ld	a, -12 (ix)
    00000830 77               [ 7] 1695 	ld	(hl), a
                                   1696 ;E:\Dropbox\FAUSTO\SVILUPPI\MSX\CODE\C\MSXgl\projects\exsoccer/exsoccer_s1_b2.c:251: g_Players[i].Y = g_Players[i].TargetY;
    00000831 DD 6E F9         [19] 1697 	ld	l, -7 (ix)
    00000834 DD 66 FA         [19] 1698 	ld	h, -6 (ix)
    00000837 4E               [ 7] 1699 	ld	c, (hl)
    00000838 23               [ 6] 1700 	inc	hl
    00000839 46               [ 7] 1701 	ld	b, (hl)
    0000083A DD 6E ED         [19] 1702 	ld	l, -19 (ix)
    0000083D DD 66 EE         [19] 1703 	ld	h, -18 (ix)
    00000840 71               [ 7] 1704 	ld	(hl), c
    00000841 23               [ 6] 1705 	inc	hl
    00000842 70               [ 7] 1706 	ld	(hl), b
                                   1707 ;E:\Dropbox\FAUSTO\SVILUPPI\MSX\CODE\C\MSXgl\projects\exsoccer/exsoccer_s1_b2.c:252: g_Players[i].Status = PLAYER_STATUS_POSITIONED;
    00000843 DD 6E EF         [19] 1708 	ld	l, -17 (ix)
    00000846 DD 66 F0         [19] 1709 	ld	h, -16 (ix)
    00000849 36 04            [10] 1710 	ld	(hl), #0x04
    0000084B 23               [ 6] 1711 	inc	hl
    0000084C 36 00            [10] 1712 	ld	(hl), #0x00
    0000084E                       1713 00264$:
                                   1714 ;E:\Dropbox\FAUSTO\SVILUPPI\MSX\CODE\C\MSXgl\projects\exsoccer/exsoccer_s1_b2.c:240: for(u8 i=0; i<14; i++) {
    0000084E DD 34 FF         [23] 1715 	inc	-1 (ix)
    00000851 C3r7Dr06         [10] 1716 	jp	00263$
    00000854                       1717 00134$:
                                   1718 ;E:\Dropbox\FAUSTO\SVILUPPI\MSX\CODE\C\MSXgl\projects\exsoccer/exsoccer_s1_b2.c:259: if (g_Timer < 180 || (kickerId != NO_VALUE && !kickerArrived) || !teammatesArrived) {
    00000854 3Ar00r00         [13] 1719 	ld	a, (_g_Timer+0)
    00000857 D6 B4            [ 7] 1720 	sub	a, #0xb4
    00000859 3E 00            [ 7] 1721 	ld	a, #0x00
    0000085B 17               [ 4] 1722 	rla
    0000085C 4F               [ 4] 1723 	ld	c, a
    0000085D B7               [ 4] 1724 	or	a, a
    0000085E 20 13            [12] 1725 	jr	NZ, 00165$
    00000860 DD CB EB 46      [20] 1726 	bit	0, -21 (ix)
    00000864 20 06            [12] 1727 	jr	NZ, 00169$
    00000866 DD 7E EA         [19] 1728 	ld	a, -22 (ix)
    00000869 B7               [ 4] 1729 	or	a, a
    0000086A 28 07            [12] 1730 	jr	Z, 00165$
    0000086C                       1731 00169$:
    0000086C DD 7E EC         [19] 1732 	ld	a, -20 (ix)
    0000086F B7               [ 4] 1733 	or	a, a
    00000870 C2r87r0A         [10] 1734 	jp	NZ, 00166$
    00000873                       1735 00165$:
                                   1736 ;E:\Dropbox\FAUSTO\SVILUPPI\MSX\CODE\C\MSXgl\projects\exsoccer/exsoccer_s1_b2.c:260: if (g_Timer < 180) g_Timer++;
    00000873 79               [ 4] 1737 	ld	a, c
    00000874 B7               [ 4] 1738 	or	a, a
    00000875 28 04            [12] 1739 	jr	Z, 00346$
    00000877 21r00r00         [10] 1740 	ld	hl, #_g_Timer
    0000087A 34               [11] 1741 	inc	(hl)
                                   1742 ;E:\Dropbox\FAUSTO\SVILUPPI\MSX\CODE\C\MSXgl\projects\exsoccer/exsoccer_s1_b2.c:263: for(u8 i=0; i<14; i++) {
    0000087B                       1743 00346$:
    0000087B 0E 00            [ 7] 1744 	ld	c, #0x00
    0000087D                       1745 00266$:
    0000087D 79               [ 4] 1746 	ld	a, c
    0000087E D6 0E            [ 7] 1747 	sub	a, #0x0e
    00000880 D2r52r0F         [10] 1748 	jp	NC,00270$
                                   1749 ;E:\Dropbox\FAUSTO\SVILUPPI\MSX\CODE\C\MSXgl\projects\exsoccer/exsoccer_s1_b2.c:265: if (i != kickerId && g_Players[i].Status != PLAYER_STATUS_POSITIONED && 
    00000883 DD 7E E9         [19] 1750 	ld	a, -23 (ix)
    00000886 91               [ 4] 1751 	sub	a, c
    00000887 3E 01            [ 7] 1752 	ld	a, #0x01
    00000889 28 01            [12] 1753 	jr	Z, 00811$
    0000088B AF               [ 4] 1754 	xor	a, a
    0000088C                       1755 00811$:
    0000088C DD 77 FD         [19] 1756 	ld	-3 (ix), a
    0000088F DD CB FD 46      [20] 1757 	bit	0, -3 (ix)
    00000893 20 55            [12] 1758 	jr	NZ, 00138$
    00000895 06 00            [ 7] 1759 	ld	b, #0x00
    00000897 69               [ 4] 1760 	ld	l, c
    00000898 60               [ 4] 1761 	ld	h, b
    00000899 29               [11] 1762 	add	hl, hl
    0000089A 29               [11] 1763 	add	hl, hl
    0000089B 09               [11] 1764 	add	hl, bc
    0000089C 29               [11] 1765 	add	hl, hl
    0000089D 29               [11] 1766 	add	hl, hl
    0000089E 09               [11] 1767 	add	hl, bc
    0000089F EB               [ 4] 1768 	ex	de, hl
    000008A0 FD 21r00r00      [14] 1769 	ld	iy, #_g_Players
    000008A4 FD 19            [15] 1770 	add	iy, de
    000008A6 FD E5            [15] 1771 	push	iy
    000008A8 D1               [10] 1772 	pop	de
    000008A9 21 12 00         [10] 1773 	ld	hl, #18
    000008AC 19               [11] 1774 	add	hl, de
    000008AD 5E               [ 7] 1775 	ld	e, (hl)
    000008AE 23               [ 6] 1776 	inc	hl
    000008AF 56               [ 7] 1777 	ld	d, (hl)
    000008B0 7B               [ 4] 1778 	ld	a, e
    000008B1 D6 04            [ 7] 1779 	sub	a, #0x04
    000008B3 B2               [ 4] 1780 	or	a, d
    000008B4 28 34            [12] 1781 	jr	Z, 00138$
                                   1782 ;E:\Dropbox\FAUSTO\SVILUPPI\MSX\CODE\C\MSXgl\projects\exsoccer/exsoccer_s1_b2.c:266: !(g_Players[i].X == g_Players[i].TargetX && g_Players[i].Y == g_Players[i].TargetY)) continue;
    000008B6 FD E5            [15] 1783 	push	iy
    000008B8 E1               [10] 1784 	pop	hl
    000008B9 23               [ 6] 1785 	inc	hl
    000008BA 23               [ 6] 1786 	inc	hl
    000008BB 5E               [ 7] 1787 	ld	e, (hl)
    000008BC 23               [ 6] 1788 	inc	hl
    000008BD 56               [ 7] 1789 	ld	d, (hl)
    000008BE FD E5            [15] 1790 	push	iy
    000008C0 E1               [10] 1791 	pop	hl
    000008C1 C5               [11] 1792 	push	bc
    000008C2 01 10 00         [10] 1793 	ld	bc, #0x0010
    000008C5 09               [11] 1794 	add	hl, bc
    000008C6 C1               [10] 1795 	pop	bc
    000008C7 46               [ 7] 1796 	ld	b, (hl)
    000008C8 23               [ 6] 1797 	inc	hl
    000008C9 66               [ 7] 1798 	ld	h, (hl)
                                   1799 ;	spillPairReg hl
    000008CA 68               [ 4] 1800 	ld	l, b
    000008CB BF               [ 4] 1801 	cp	a, a
    000008CC ED 52            [15] 1802 	sbc	hl, de
    000008CE C2r83r0A         [10] 1803 	jp	NZ,00163$
    000008D1 FD 5E 00         [19] 1804 	ld	e, 0 (iy)
    000008D4 FD 56 01         [19] 1805 	ld	d, 1 (iy)
    000008D7 FD E5            [15] 1806 	push	iy
    000008D9 E1               [10] 1807 	pop	hl
    000008DA C5               [11] 1808 	push	bc
    000008DB 01 0E 00         [10] 1809 	ld	bc, #0x000e
    000008DE 09               [11] 1810 	add	hl, bc
    000008DF C1               [10] 1811 	pop	bc
    000008E0 46               [ 7] 1812 	ld	b, (hl)
    000008E1 23               [ 6] 1813 	inc	hl
    000008E2 66               [ 7] 1814 	ld	h, (hl)
                                   1815 ;	spillPairReg hl
    000008E3 68               [ 4] 1816 	ld	l, b
    000008E4 BF               [ 4] 1817 	cp	a, a
    000008E5 ED 52            [15] 1818 	sbc	hl, de
    000008E7 C2r83r0A         [10] 1819 	jp	NZ,00163$
    000008EA                       1820 00138$:
                                   1821 ;E:\Dropbox\FAUSTO\SVILUPPI\MSX\CODE\C\MSXgl\projects\exsoccer/exsoccer_s1_b2.c:270: if (i == kickerId) {
    000008EA DD 7E FD         [19] 1822 	ld	a, -3 (ix)
    000008ED B7               [ 4] 1823 	or	a, a
    000008EE 28 30            [12] 1824 	jr	Z, 00159$
                                   1825 ;E:\Dropbox\FAUSTO\SVILUPPI\MSX\CODE\C\MSXgl\projects\exsoccer/exsoccer_s1_b2.c:272: if (g_RestartKickTeamId == TEAM_1) lookDir = (g_CornerKickSide == CORNER_SIDE_LEFT) ? DIRECTION_DOWN_RIGHT : DIRECTION_DOWN_LEFT;
    000008F0 3Ar00r00         [13] 1826 	ld	a, (_g_RestartKickTeamId+0)
    000008F3 3D               [ 4] 1827 	dec	a
    000008F4 20 15            [12] 1828 	jr	NZ, 00143$
    000008F6 3Ar00r00         [13] 1829 	ld	a, (_g_CornerKickSide+0)
    000008F9 B7               [ 4] 1830 	or	a, a
    000008FA 20 06            [12] 1831 	jr	NZ, 00272$
    000008FC 11 04 00         [10] 1832 	ld	de, #0x0004
    000008FF C3r05r09         [10] 1833 	jp	00273$
    00000902                       1834 00272$:
    00000902 11 06 00         [10] 1835 	ld	de, #0x0006
    00000905                       1836 00273$:
    00000905 DD 73 FF         [19] 1837 	ld	-1 (ix), e
    00000908 C3r56r0A         [10] 1838 	jp	00160$
    0000090B                       1839 00143$:
                                   1840 ;E:\Dropbox\FAUSTO\SVILUPPI\MSX\CODE\C\MSXgl\projects\exsoccer/exsoccer_s1_b2.c:273: else lookDir = (g_CornerKickSide == CORNER_SIDE_LEFT) ? DIRECTION_UP_RIGHT : DIRECTION_UP_LEFT;
    0000090B 3Ar00r00         [13] 1841 	ld	a, (_g_CornerKickSide+0)
    0000090E B7               [ 4] 1842 	or	a, a
    0000090F 20 06            [12] 1843 	jr	NZ, 00274$
    00000911 11 02 00         [10] 1844 	ld	de, #0x0002
    00000914 C3r1Ar09         [10] 1845 	jp	00275$
    00000917                       1846 00274$:
    00000917 11 08 00         [10] 1847 	ld	de, #0x0008
    0000091A                       1848 00275$:
    0000091A DD 73 FF         [19] 1849 	ld	-1 (ix), e
    0000091D C3r56r0A         [10] 1850 	jp	00160$
    00000920                       1851 00159$:
                                   1852 ;E:\Dropbox\FAUSTO\SVILUPPI\MSX\CODE\C\MSXgl\projects\exsoccer/exsoccer_s1_b2.c:275: else if (g_Players[i].TeamId == g_RestartKickTeamId) {
    00000920 06 00            [ 7] 1853 	ld	b, #0x00
    00000922 69               [ 4] 1854 	ld	l, c
    00000923 60               [ 4] 1855 	ld	h, b
    00000924 29               [11] 1856 	add	hl, hl
    00000925 29               [11] 1857 	add	hl, hl
    00000926 09               [11] 1858 	add	hl, bc
    00000927 29               [11] 1859 	add	hl, hl
    00000928 29               [11] 1860 	add	hl, hl
    00000929 09               [11] 1861 	add	hl, bc
    0000092A 11r00r00         [10] 1862 	ld	de, #_g_Players
    0000092D 19               [11] 1863 	add	hl, de
    0000092E DD 75 FE         [19] 1864 	ld	-2 (ix), l
    00000931 DD 74 FF         [19] 1865 	ld	-1 (ix), h
    00000934 11 09 00         [10] 1866 	ld	de, #9
    00000937 19               [11] 1867 	add	hl, de
    00000938 46               [ 7] 1868 	ld	b, (hl)
                                   1869 ;E:\Dropbox\FAUSTO\SVILUPPI\MSX\CODE\C\MSXgl\projects\exsoccer/exsoccer_s1_b2.c:277: if (g_RestartKickTeamId == TEAM_1 && i != kickerId) { 
    00000939 3Ar00r00         [13] 1870 	ld	a,(_g_RestartKickTeamId+0)
    0000093C B8               [ 4] 1871 	cp	a,b
    0000093D 20 3C            [12] 1872 	jr	NZ, 00156$
    0000093F 3D               [ 4] 1873 	dec	a
    00000940 3E 01            [ 7] 1874 	ld	a, #0x01
    00000942 28 01            [12] 1875 	jr	Z, 00822$
    00000944 AF               [ 4] 1876 	xor	a, a
    00000945                       1877 00822$:
    00000945 DD 77 FF         [19] 1878 	ld	-1 (ix), a
    00000948 B7               [ 4] 1879 	or	a, a
    00000949 28 1B            [12] 1880 	jr	Z, 00146$
    0000094B DD CB FD 46      [20] 1881 	bit	0, -3 (ix)
    0000094F 20 15            [12] 1882 	jr	NZ, 00146$
                                   1883 ;E:\Dropbox\FAUSTO\SVILUPPI\MSX\CODE\C\MSXgl\projects\exsoccer/exsoccer_s1_b2.c:279: lookDir = (g_CornerKickSide == CORNER_SIDE_LEFT) ? DIRECTION_UP_LEFT : DIRECTION_UP_RIGHT;
    00000951 3Ar00r00         [13] 1884 	ld	a, (_g_CornerKickSide+0)
    00000954 B7               [ 4] 1885 	or	a, a
    00000955 20 06            [12] 1886 	jr	NZ, 00276$
    00000957 11 08 00         [10] 1887 	ld	de, #0x0008
    0000095A C3r60r09         [10] 1888 	jp	00277$
    0000095D                       1889 00276$:
    0000095D 11 02 00         [10] 1890 	ld	de, #0x0002
    00000960                       1891 00277$:
    00000960 DD 73 FF         [19] 1892 	ld	-1 (ix), e
    00000963 C3r56r0A         [10] 1893 	jp	00160$
    00000966                       1894 00146$:
                                   1895 ;E:\Dropbox\FAUSTO\SVILUPPI\MSX\CODE\C\MSXgl\projects\exsoccer/exsoccer_s1_b2.c:282: lookDir = (g_RestartKickTeamId == TEAM_1) ? DIRECTION_UP : DIRECTION_DOWN;
    00000966 DD 7E FF         [19] 1896 	ld	a, -1 (ix)
    00000969 B7               [ 4] 1897 	or	a, a
    0000096A 28 06            [12] 1898 	jr	Z, 00278$
    0000096C 11 01 00         [10] 1899 	ld	de, #0x0001
    0000096F C3r75r09         [10] 1900 	jp	00279$
    00000972                       1901 00278$:
    00000972 11 05 00         [10] 1902 	ld	de, #0x0005
    00000975                       1903 00279$:
    00000975 DD 73 FF         [19] 1904 	ld	-1 (ix), e
    00000978 C3r56r0A         [10] 1905 	jp	00160$
    0000097B                       1906 00156$:
                                   1907 ;E:\Dropbox\FAUSTO\SVILUPPI\MSX\CODE\C\MSXgl\projects\exsoccer/exsoccer_s1_b2.c:286: i16 dx = (i16)g_Ball.X - (i16)g_Players[i].X;
    0000097B ED 5Br02r00      [20] 1908 	ld	de, (#_g_Ball + 2)
    0000097F DD 6E FE         [19] 1909 	ld	l, -2 (ix)
                                   1910 ;	spillPairReg hl
                                   1911 ;	spillPairReg hl
    00000982 DD 66 FF         [19] 1912 	ld	h, -1 (ix)
                                   1913 ;	spillPairReg hl
                                   1914 ;	spillPairReg hl
    00000985 23               [ 6] 1915 	inc	hl
    00000986 23               [ 6] 1916 	inc	hl
    00000987 7E               [ 7] 1917 	ld	a, (hl)
    00000988 23               [ 6] 1918 	inc	hl
    00000989 66               [ 7] 1919 	ld	h, (hl)
                                   1920 ;	spillPairReg hl
    0000098A 6F               [ 4] 1921 	ld	l, a
                                   1922 ;	spillPairReg hl
                                   1923 ;	spillPairReg hl
    0000098B 7B               [ 4] 1924 	ld	a, e
    0000098C 95               [ 4] 1925 	sub	a, l
    0000098D 47               [ 4] 1926 	ld	b, a
    0000098E 7A               [ 4] 1927 	ld	a, d
    0000098F 9C               [ 4] 1928 	sbc	a, h
    00000990 DD 70 FC         [19] 1929 	ld	-4 (ix), b
    00000993 DD 77 FD         [19] 1930 	ld	-3 (ix), a
                                   1931 ;E:\Dropbox\FAUSTO\SVILUPPI\MSX\CODE\C\MSXgl\projects\exsoccer/exsoccer_s1_b2.c:287: i16 dy = (i16)g_Ball.Y - (i16)g_Players[i].Y;
    00000996 ED 5Br00r00      [20] 1932 	ld	de, (#_g_Ball + 0)
    0000099A DD 6E FE         [19] 1933 	ld	l, -2 (ix)
    0000099D DD 66 FF         [19] 1934 	ld	h, -1 (ix)
    000009A0 7E               [ 7] 1935 	ld	a, (hl)
    000009A1 23               [ 6] 1936 	inc	hl
    000009A2 66               [ 7] 1937 	ld	h, (hl)
                                   1938 ;	spillPairReg hl
    000009A3 6F               [ 4] 1939 	ld	l, a
                                   1940 ;	spillPairReg hl
                                   1941 ;	spillPairReg hl
    000009A4 7B               [ 4] 1942 	ld	a, e
    000009A5 95               [ 4] 1943 	sub	a, l
    000009A6 5F               [ 4] 1944 	ld	e, a
    000009A7 7A               [ 4] 1945 	ld	a, d
    000009A8 9C               [ 4] 1946 	sbc	a, h
    000009A9 57               [ 4] 1947 	ld	d, a
                                   1948 ;E:\Dropbox\FAUSTO\SVILUPPI\MSX\CODE\C\MSXgl\projects\exsoccer/exsoccer_s1_b2.c:289: if (dy < -20) lookDir = (dx > 20) ? DIRECTION_UP_RIGHT : ((dx < -20) ? DIRECTION_UP_LEFT : DIRECTION_UP);
    000009AA DD 7E FC         [19] 1949 	ld	a, -4 (ix)
    000009AD DD 77 FE         [19] 1950 	ld	-2 (ix), a
    000009B0 DD 7E FD         [19] 1951 	ld	a, -3 (ix)
    000009B3 DD 77 FF         [19] 1952 	ld	-1 (ix), a
    000009B6 7B               [ 4] 1953 	ld	a, e
    000009B7 D6 EC            [ 7] 1954 	sub	a, #0xec
    000009B9 7A               [ 4] 1955 	ld	a, d
    000009BA 17               [ 4] 1956 	rla
    000009BB 3F               [ 4] 1957 	ccf
    000009BC 1F               [ 4] 1958 	rra
    000009BD DE 7F            [ 7] 1959 	sbc	a, #0x7f
    000009BF 30 36            [12] 1960 	jr	NC, 00153$
    000009C1 3E 14            [ 7] 1961 	ld	a, #0x14
    000009C3 DD BE FE         [19] 1962 	cp	a, -2 (ix)
    000009C6 3E 00            [ 7] 1963 	ld	a, #0x00
    000009C8 DD 9E FF         [19] 1964 	sbc	a, -1 (ix)
    000009CB E2rD0r09         [10] 1965 	jp	PO, 00823$
    000009CE EE 80            [ 7] 1966 	xor	a, #0x80
    000009D0                       1967 00823$:
    000009D0 F2rD9r09         [10] 1968 	jp	P, 00280$
    000009D3 11 02 00         [10] 1969 	ld	de, #0x0002
    000009D6 C3rF1r09         [10] 1970 	jp	00281$
    000009D9                       1971 00280$:
    000009D9 DD 7E FC         [19] 1972 	ld	a, -4 (ix)
    000009DC D6 EC            [ 7] 1973 	sub	a, #0xec
    000009DE DD 7E FD         [19] 1974 	ld	a, -3 (ix)
    000009E1 17               [ 4] 1975 	rla
    000009E2 3F               [ 4] 1976 	ccf
    000009E3 1F               [ 4] 1977 	rra
    000009E4 DE 7F            [ 7] 1978 	sbc	a, #0x7f
    000009E6 30 06            [12] 1979 	jr	NC, 00282$
    000009E8 11 08 00         [10] 1980 	ld	de, #0x0008
    000009EB C3rF1r09         [10] 1981 	jp	00283$
    000009EE                       1982 00282$:
    000009EE 11 01 00         [10] 1983 	ld	de, #0x0001
    000009F1                       1984 00283$:
    000009F1                       1985 00281$:
    000009F1 DD 73 FF         [19] 1986 	ld	-1 (ix), e
    000009F4 C3r56r0A         [10] 1987 	jp	00160$
    000009F7                       1988 00153$:
                                   1989 ;E:\Dropbox\FAUSTO\SVILUPPI\MSX\CODE\C\MSXgl\projects\exsoccer/exsoccer_s1_b2.c:290: else if (dy > 20) lookDir = (dx > 20) ? DIRECTION_DOWN_RIGHT : ((dx < -20) ? DIRECTION_DOWN_LEFT : DIRECTION_DOWN);
    000009F7 3E 14            [ 7] 1990 	ld	a, #0x14
    000009F9 BB               [ 4] 1991 	cp	a, e
    000009FA 3E 00            [ 7] 1992 	ld	a, #0x00
    000009FC 9A               [ 4] 1993 	sbc	a, d
    000009FD E2r02r0A         [10] 1994 	jp	PO, 00824$
    00000A00 EE 80            [ 7] 1995 	xor	a, #0x80
    00000A02                       1996 00824$:
    00000A02 F2r3Br0A         [10] 1997 	jp	P, 00150$
    00000A05 3E 14            [ 7] 1998 	ld	a, #0x14
    00000A07 DD BE FE         [19] 1999 	cp	a, -2 (ix)
    00000A0A 3E 00            [ 7] 2000 	ld	a, #0x00
    00000A0C DD 9E FF         [19] 2001 	sbc	a, -1 (ix)
    00000A0F E2r14r0A         [10] 2002 	jp	PO, 00825$
    00000A12 EE 80            [ 7] 2003 	xor	a, #0x80
    00000A14                       2004 00825$:
    00000A14 F2r1Dr0A         [10] 2005 	jp	P, 00284$
    00000A17 11 04 00         [10] 2006 	ld	de, #0x0004
    00000A1A C3r35r0A         [10] 2007 	jp	00285$
    00000A1D                       2008 00284$:
    00000A1D DD 7E FC         [19] 2009 	ld	a, -4 (ix)
    00000A20 D6 EC            [ 7] 2010 	sub	a, #0xec
    00000A22 DD 7E FD         [19] 2011 	ld	a, -3 (ix)
    00000A25 17               [ 4] 2012 	rla
    00000A26 3F               [ 4] 2013 	ccf
    00000A27 1F               [ 4] 2014 	rra
    00000A28 DE 7F            [ 7] 2015 	sbc	a, #0x7f
    00000A2A 30 06            [12] 2016 	jr	NC, 00286$
    00000A2C 11 06 00         [10] 2017 	ld	de, #0x0006
    00000A2F C3r35r0A         [10] 2018 	jp	00287$
    00000A32                       2019 00286$:
    00000A32 11 05 00         [10] 2020 	ld	de, #0x0005
    00000A35                       2021 00287$:
    00000A35                       2022 00285$:
    00000A35 DD 73 FF         [19] 2023 	ld	-1 (ix), e
    00000A38 C3r56r0A         [10] 2024 	jp	00160$
    00000A3B                       2025 00150$:
                                   2026 ;E:\Dropbox\FAUSTO\SVILUPPI\MSX\CODE\C\MSXgl\projects\exsoccer/exsoccer_s1_b2.c:291: else lookDir = (dx > 0) ? DIRECTION_RIGHT : DIRECTION_LEFT;
    00000A3B AF               [ 4] 2027 	xor	a, a
    00000A3C DD BE FE         [19] 2028 	cp	a, -2 (ix)
    00000A3F DD 9E FF         [19] 2029 	sbc	a, -1 (ix)
    00000A42 E2r47r0A         [10] 2030 	jp	PO, 00826$
    00000A45 EE 80            [ 7] 2031 	xor	a, #0x80
    00000A47                       2032 00826$:
    00000A47 F2r50r0A         [10] 2033 	jp	P, 00288$
    00000A4A 11 03 00         [10] 2034 	ld	de, #0x0003
    00000A4D C3r53r0A         [10] 2035 	jp	00289$
    00000A50                       2036 00288$:
    00000A50 11 07 00         [10] 2037 	ld	de, #0x0007
    00000A53                       2038 00289$:
    00000A53 DD 73 FF         [19] 2039 	ld	-1 (ix), e
    00000A56                       2040 00160$:
                                   2041 ;E:\Dropbox\FAUSTO\SVILUPPI\MSX\CODE\C\MSXgl\projects\exsoccer/exsoccer_s1_b2.c:294: if (lookDir != DIRECTION_NONE) {
    00000A56 DD 7E FF         [19] 2042 	ld	a, -1 (ix)
    00000A59 B7               [ 4] 2043 	or	a, a
    00000A5A 28 27            [12] 2044 	jr	Z, 00163$
                                   2045 ;E:\Dropbox\FAUSTO\SVILUPPI\MSX\CODE\C\MSXgl\projects\exsoccer/exsoccer_s1_b2.c:295: g_Players[i].Direction = lookDir;
    00000A5C 06 00            [ 7] 2046 	ld	b, #0x00
    00000A5E 69               [ 4] 2047 	ld	l, c
    00000A5F 60               [ 4] 2048 	ld	h, b
    00000A60 29               [11] 2049 	add	hl, hl
    00000A61 29               [11] 2050 	add	hl, hl
    00000A62 09               [11] 2051 	add	hl, bc
    00000A63 29               [11] 2052 	add	hl, hl
    00000A64 29               [11] 2053 	add	hl, hl
    00000A65 09               [11] 2054 	add	hl, bc
    00000A66 EB               [ 4] 2055 	ex	de, hl
    00000A67 21r00r00         [10] 2056 	ld	hl, #_g_Players
    00000A6A 19               [11] 2057 	add	hl, de
    00000A6B EB               [ 4] 2058 	ex	de, hl
    00000A6C 21 0A 00         [10] 2059 	ld	hl, #0x000a
    00000A6F 19               [11] 2060 	add	hl, de
    00000A70 DD 7E FF         [19] 2061 	ld	a, -1 (ix)
    00000A73 77               [ 7] 2062 	ld	(hl), a
                                   2063 ;E:\Dropbox\FAUSTO\SVILUPPI\MSX\CODE\C\MSXgl\projects\exsoccer/exsoccer_s1_b2.c:296: g_Players[i].PatternId = GetNoMovingPlayerPatternId(lookDir);
    00000A74 21 08 00         [10] 2064 	ld	hl, #0x0008
    00000A77 19               [11] 2065 	add	hl, de
    00000A78 E5               [11] 2066 	push	hl
    00000A79 C5               [11] 2067 	push	bc
    00000A7A DD 7E FF         [19] 2068 	ld	a, -1 (ix)
    00000A7D CDr00r00         [17] 2069 	call	_GetNoMovingPlayerPatternId
    00000A80 C1               [10] 2070 	pop	bc
    00000A81 E1               [10] 2071 	pop	hl
    00000A82 77               [ 7] 2072 	ld	(hl), a
    00000A83                       2073 00163$:
                                   2074 ;E:\Dropbox\FAUSTO\SVILUPPI\MSX\CODE\C\MSXgl\projects\exsoccer/exsoccer_s1_b2.c:263: for(u8 i=0; i<14; i++) {
    00000A83 0C               [ 4] 2075 	inc	c
                                   2076 ;E:\Dropbox\FAUSTO\SVILUPPI\MSX\CODE\C\MSXgl\projects\exsoccer/exsoccer_s1_b2.c:299: return; // END SETUP PHASE
    00000A84 C3r7Dr08         [10] 2077 	jp	00266$
    00000A87                       2078 00166$:
                                   2079 ;E:\Dropbox\FAUSTO\SVILUPPI\MSX\CODE\C\MSXgl\projects\exsoccer/exsoccer_s1_b2.c:303: ClearTextFromLayerA(10, 12, 11);
    00000A87 3E 0B            [ 7] 2080 	ld	a, #0x0b
    00000A89 F5               [11] 2081 	push	af
    00000A8A 33               [ 6] 2082 	inc	sp
    00000A8B 2E 0C            [ 7] 2083 	ld	l, #0x0c
                                   2084 ;	spillPairReg hl
                                   2085 ;	spillPairReg hl
    00000A8D 3E 0A            [ 7] 2086 	ld	a, #0x0a
    00000A8F CDr00r00         [17] 2087 	call	_ClearTextFromLayerA
                                   2088 ;E:\Dropbox\FAUSTO\SVILUPPI\MSX\CODE\C\MSXgl\projects\exsoccer/exsoccer_s1_b2.c:310: if (kickerId != NO_VALUE) {
    00000A92 DD CB EB 46      [20] 2089 	bit	0, -21 (ix)
    00000A96 C2r28r0B         [10] 2090 	jp	NZ, 00171$
                                   2091 ;E:\Dropbox\FAUSTO\SVILUPPI\MSX\CODE\C\MSXgl\projects\exsoccer/exsoccer_s1_b2.c:311: g_Players[kickerId].X = g_Players[kickerId].TargetX;
    00000A99 DD 4E E9         [19] 2092 	ld	c, -23 (ix)
    00000A9C 06 00            [ 7] 2093 	ld	b, #0x00
    00000A9E 69               [ 4] 2094 	ld	l, c
    00000A9F 60               [ 4] 2095 	ld	h, b
    00000AA0 29               [11] 2096 	add	hl, hl
    00000AA1 29               [11] 2097 	add	hl, hl
    00000AA2 09               [11] 2098 	add	hl, bc
    00000AA3 29               [11] 2099 	add	hl, hl
    00000AA4 29               [11] 2100 	add	hl, hl
    00000AA5 09               [11] 2101 	add	hl, bc
    00000AA6 DD 75 FE         [19] 2102 	ld	-2 (ix), l
    00000AA9 DD 74 FF         [19] 2103 	ld	-1 (ix), h
    00000AAC DD 7E FE         [19] 2104 	ld	a, -2 (ix)
    00000AAF C6r00            [ 7] 2105 	add	a, #<(_g_Players)
    00000AB1 DD 77 FA         [19] 2106 	ld	-6 (ix), a
    00000AB4 DD 7E FF         [19] 2107 	ld	a, -1 (ix)
    00000AB7 CEs00            [ 7] 2108 	adc	a, #>(_g_Players)
    00000AB9 DD 77 FB         [19] 2109 	ld	-5 (ix), a
    00000ABC DD 7E FA         [19] 2110 	ld	a, -6 (ix)
    00000ABF C6 02            [ 7] 2111 	add	a, #0x02
    00000AC1 DD 77 FC         [19] 2112 	ld	-4 (ix), a
    00000AC4 DD 7E FB         [19] 2113 	ld	a, -5 (ix)
    00000AC7 CE 00            [ 7] 2114 	adc	a, #0x00
    00000AC9 DD 77 FD         [19] 2115 	ld	-3 (ix), a
    00000ACC DD 7E FA         [19] 2116 	ld	a, -6 (ix)
    00000ACF DD 77 FE         [19] 2117 	ld	-2 (ix), a
    00000AD2 DD 7E FB         [19] 2118 	ld	a, -5 (ix)
    00000AD5 DD 77 FF         [19] 2119 	ld	-1 (ix), a
    00000AD8 DD 6E FE         [19] 2120 	ld	l, -2 (ix)
    00000ADB DD 66 FF         [19] 2121 	ld	h, -1 (ix)
    00000ADE 11 10 00         [10] 2122 	ld	de, #0x0010
    00000AE1 19               [11] 2123 	add	hl, de
    00000AE2 7E               [ 7] 2124 	ld	a, (hl)
    00000AE3 DD 77 FE         [19] 2125 	ld	-2 (ix), a
    00000AE6 23               [ 6] 2126 	inc	hl
    00000AE7 7E               [ 7] 2127 	ld	a, (hl)
    00000AE8 DD 77 FF         [19] 2128 	ld	-1 (ix), a
    00000AEB DD 6E FC         [19] 2129 	ld	l, -4 (ix)
    00000AEE DD 66 FD         [19] 2130 	ld	h, -3 (ix)
    00000AF1 DD 7E FE         [19] 2131 	ld	a, -2 (ix)
    00000AF4 77               [ 7] 2132 	ld	(hl), a
    00000AF5 23               [ 6] 2133 	inc	hl
    00000AF6 DD 7E FF         [19] 2134 	ld	a, -1 (ix)
    00000AF9 77               [ 7] 2135 	ld	(hl), a
                                   2136 ;E:\Dropbox\FAUSTO\SVILUPPI\MSX\CODE\C\MSXgl\projects\exsoccer/exsoccer_s1_b2.c:312: g_Players[kickerId].Y = g_Players[kickerId].TargetY;
    00000AFA DD 7E FA         [19] 2137 	ld	a, -6 (ix)
    00000AFD DD 77 FE         [19] 2138 	ld	-2 (ix), a
    00000B00 DD 7E FB         [19] 2139 	ld	a, -5 (ix)
    00000B03 DD 77 FF         [19] 2140 	ld	-1 (ix), a
    00000B06 DD 6E FE         [19] 2141 	ld	l, -2 (ix)
    00000B09 DD 66 FF         [19] 2142 	ld	h, -1 (ix)
    00000B0C 11 0E 00         [10] 2143 	ld	de, #0x000e
    00000B0F 19               [11] 2144 	add	hl, de
    00000B10 7E               [ 7] 2145 	ld	a, (hl)
    00000B11 DD 77 FE         [19] 2146 	ld	-2 (ix), a
    00000B14 23               [ 6] 2147 	inc	hl
    00000B15 7E               [ 7] 2148 	ld	a, (hl)
    00000B16 DD 77 FF         [19] 2149 	ld	-1 (ix), a
    00000B19 DD 6E FA         [19] 2150 	ld	l, -6 (ix)
    00000B1C DD 66 FB         [19] 2151 	ld	h, -5 (ix)
    00000B1F DD 7E FE         [19] 2152 	ld	a, -2 (ix)
    00000B22 77               [ 7] 2153 	ld	(hl), a
    00000B23 23               [ 6] 2154 	inc	hl
    00000B24 DD 7E FF         [19] 2155 	ld	a, -1 (ix)
    00000B27 77               [ 7] 2156 	ld	(hl), a
    00000B28                       2157 00171$:
                                   2158 ;E:\Dropbox\FAUSTO\SVILUPPI\MSX\CODE\C\MSXgl\projects\exsoccer/exsoccer_s1_b2.c:272: if (g_RestartKickTeamId == TEAM_1) lookDir = (g_CornerKickSide == CORNER_SIDE_LEFT) ? DIRECTION_DOWN_RIGHT : DIRECTION_DOWN_LEFT;
    00000B28 3Ar00r00         [13] 2159 	ld	a, (_g_RestartKickTeamId+0)
    00000B2B 3D               [ 4] 2160 	dec	a
    00000B2C 3E 01            [ 7] 2161 	ld	a, #0x01
    00000B2E 28 01            [12] 2162 	jr	Z, 00828$
    00000B30 AF               [ 4] 2163 	xor	a, a
    00000B31                       2164 00828$:
    00000B31 4F               [ 4] 2165 	ld	c, a
                                   2166 ;E:\Dropbox\FAUSTO\SVILUPPI\MSX\CODE\C\MSXgl\projects\exsoccer/exsoccer_s1_b2.c:315: bool isHuman = (g_RestartKickTeamId == TEAM_1 || (g_GameWith2Players && g_RestartKickTeamId == TEAM_2));
    00000B32 41               [ 4] 2167 	ld	b, c
    00000B33 CB 40            [ 8] 2168 	bit	0, b
    00000B35 20 11            [12] 2169 	jr	NZ, 00291$
    00000B37 3Ar00r00         [13] 2170 	ld	a, (_g_GameWith2Players+0)
    00000B3A B7               [ 4] 2171 	or	a, a
    00000B3B 28 07            [12] 2172 	jr	Z, 00290$
    00000B3D 3Ar00r00         [13] 2173 	ld	a, (_g_RestartKickTeamId+0)
    00000B40 D6 02            [ 7] 2174 	sub	a, #0x02
    00000B42 28 04            [12] 2175 	jr	Z, 00291$
    00000B44                       2176 00290$:
    00000B44 AF               [ 4] 2177 	xor	a, a
    00000B45 C3r4Ar0B         [10] 2178 	jp	00292$
    00000B48                       2179 00291$:
    00000B48 3E 01            [ 7] 2180 	ld	a, #0x01
    00000B4A                       2181 00292$:
    00000B4A 47               [ 4] 2182 	ld	b, a
                                   2183 ;E:\Dropbox\FAUSTO\SVILUPPI\MSX\CODE\C\MSXgl\projects\exsoccer/exsoccer_s1_b2.c:318: if (isHuman) s_ForceKickTimer++;
    00000B4B B7               [ 4] 2184 	or	a, a
    00000B4C 28 07            [12] 2185 	jr	Z, 00173$
    00000B4E 2Ar00r00         [16] 2186 	ld	hl, (_TickCornerKick_s_ForceKickTimer_65537_1180)
    00000B51 23               [ 6] 2187 	inc	hl
    00000B52 22r00r00         [16] 2188 	ld	(_TickCornerKick_s_ForceKickTimer_65537_1180), hl
    00000B55                       2189 00173$:
                                   2190 ;E:\Dropbox\FAUSTO\SVILUPPI\MSX\CODE\C\MSXgl\projects\exsoccer/exsoccer_s1_b2.c:320: if (isHuman) {
    00000B55 78               [ 4] 2191 	ld	a, b
    00000B56 B7               [ 4] 2192 	or	a, a
    00000B57 CArE9r0E         [10] 2193 	jp	Z, 00260$
                                   2194 ;E:\Dropbox\FAUSTO\SVILUPPI\MSX\CODE\C\MSXgl\projects\exsoccer/exsoccer_s1_b2.c:321: if (g_RestartKickTeamId == TEAM_1) {
    00000B5A 79               [ 4] 2195 	ld	a, c
    00000B5B B7               [ 4] 2196 	or	a, a
    00000B5C CAr04r0E         [10] 2197 	jp	Z, 00246$
                                   2198 ;E:\Dropbox\FAUSTO\SVILUPPI\MSX\CODE\C\MSXgl\projects\exsoccer/exsoccer_s1_b2.c:323: u8 candLeft = NO_VALUE;
    00000B5F DD 36 F9 FF      [19] 2199 	ld	-7 (ix), #0xff
                                   2200 ;E:\Dropbox\FAUSTO\SVILUPPI\MSX\CODE\C\MSXgl\projects\exsoccer/exsoccer_s1_b2.c:324: u8 candRight = NO_VALUE;
    00000B63 DD 36 FA FF      [19] 2201 	ld	-6 (ix), #0xff
                                   2202 ;E:\Dropbox\FAUSTO\SVILUPPI\MSX\CODE\C\MSXgl\projects\exsoccer/exsoccer_s1_b2.c:326: for(u8 c=0; c<14; c++) {
    00000B67 DD 36 FF 00      [19] 2203 	ld	-1 (ix), #0x00
    00000B6B                       2204 00268$:
    00000B6B DD 7E FF         [19] 2205 	ld	a, -1 (ix)
    00000B6E D6 0E            [ 7] 2206 	sub	a, #0x0e
    00000B70 D2r1Ar0C         [10] 2207 	jp	NC, 00184$
                                   2208 ;E:\Dropbox\FAUSTO\SVILUPPI\MSX\CODE\C\MSXgl\projects\exsoccer/exsoccer_s1_b2.c:327: if (g_Players[c].TeamId == TEAM_1 && c != kickerId && g_Players[c].Role != PLAYER_ROLE_GOALKEEPER) {
    00000B73 DD 4E FF         [19] 2209 	ld	c, -1 (ix)
    00000B76 06 00            [ 7] 2210 	ld	b, #0x00
    00000B78 69               [ 4] 2211 	ld	l, c
    00000B79 60               [ 4] 2212 	ld	h, b
    00000B7A 29               [11] 2213 	add	hl, hl
    00000B7B 29               [11] 2214 	add	hl, hl
    00000B7C 09               [11] 2215 	add	hl, bc
    00000B7D 29               [11] 2216 	add	hl, hl
    00000B7E 29               [11] 2217 	add	hl, hl
    00000B7F 09               [11] 2218 	add	hl, bc
    00000B80 DD 75 FD         [19] 2219 	ld	-3 (ix), l
    00000B83 DD 74 FE         [19] 2220 	ld	-2 (ix), h
    00000B86 DD 7E FD         [19] 2221 	ld	a, -3 (ix)
    00000B89 C6r00            [ 7] 2222 	add	a, #<(_g_Players)
    00000B8B DD 77 FB         [19] 2223 	ld	-5 (ix), a
    00000B8E DD 7E FE         [19] 2224 	ld	a, -2 (ix)
    00000B91 CEs00            [ 7] 2225 	adc	a, #>(_g_Players)
    00000B93 DD 77 FC         [19] 2226 	ld	-4 (ix), a
    00000B96 DD 7E FB         [19] 2227 	ld	a, -5 (ix)
    00000B99 DD 77 FD         [19] 2228 	ld	-3 (ix), a
    00000B9C DD 7E FC         [19] 2229 	ld	a, -4 (ix)
    00000B9F DD 77 FE         [19] 2230 	ld	-2 (ix), a
    00000BA2 DD 6E FD         [19] 2231 	ld	l, -3 (ix)
    00000BA5 DD 66 FE         [19] 2232 	ld	h, -2 (ix)
    00000BA8 11 09 00         [10] 2233 	ld	de, #0x0009
    00000BAB 19               [11] 2234 	add	hl, de
    00000BAC 7E               [ 7] 2235 	ld	a, (hl)
    00000BAD 3D               [ 4] 2236 	dec	a
    00000BAE 20 64            [12] 2237 	jr	NZ, 00269$
    00000BB0 DD 7E E9         [19] 2238 	ld	a, -23 (ix)
    00000BB3 DD 96 FF         [19] 2239 	sub	a, -1 (ix)
    00000BB6 28 5C            [12] 2240 	jr	Z, 00269$
    00000BB8 DD 7E FB         [19] 2241 	ld	a, -5 (ix)
    00000BBB DD 77 FD         [19] 2242 	ld	-3 (ix), a
    00000BBE DD 7E FC         [19] 2243 	ld	a, -4 (ix)
    00000BC1 DD 77 FE         [19] 2244 	ld	-2 (ix), a
    00000BC4 DD 6E FD         [19] 2245 	ld	l, -3 (ix)
    00000BC7 DD 66 FE         [19] 2246 	ld	h, -2 (ix)
    00000BCA 11 0D 00         [10] 2247 	ld	de, #0x000d
    00000BCD 19               [11] 2248 	add	hl, de
    00000BCE 7E               [ 7] 2249 	ld	a, (hl)
    00000BCF DD 77 FE         [19] 2250 	ld	-2 (ix), a
    00000BD2 B7               [ 4] 2251 	or	a, a
    00000BD3 28 3F            [12] 2252 	jr	Z, 00269$
                                   2253 ;E:\Dropbox\FAUSTO\SVILUPPI\MSX\CODE\C\MSXgl\projects\exsoccer/exsoccer_s1_b2.c:328: u8 tx = g_Players[c].TargetX;
    00000BD5 DD 7E FB         [19] 2254 	ld	a, -5 (ix)
    00000BD8 DD 77 FD         [19] 2255 	ld	-3 (ix), a
    00000BDB DD 7E FC         [19] 2256 	ld	a, -4 (ix)
    00000BDE DD 77 FE         [19] 2257 	ld	-2 (ix), a
    00000BE1 DD 6E FD         [19] 2258 	ld	l, -3 (ix)
    00000BE4 DD 66 FE         [19] 2259 	ld	h, -2 (ix)
    00000BE7 11 10 00         [10] 2260 	ld	de, #0x0010
    00000BEA 19               [11] 2261 	add	hl, de
    00000BEB 7E               [ 7] 2262 	ld	a, (hl)
                                   2263 ;E:\Dropbox\FAUSTO\SVILUPPI\MSX\CODE\C\MSXgl\projects\exsoccer/exsoccer_s1_b2.c:330: if (tx >= 40 && tx <= 110) candLeft = c;
    00000BEC DD 77 FE         [19] 2264 	ld	-2 (ix), a
    00000BEF D6 28            [ 7] 2265 	sub	a, #0x28
    00000BF1 38 0D            [12] 2266 	jr	C, 00175$
    00000BF3 3E 6E            [ 7] 2267 	ld	a, #0x6e
    00000BF5 DD 96 FE         [19] 2268 	sub	a, -2 (ix)
    00000BF8 38 06            [12] 2269 	jr	C, 00175$
    00000BFA DD 7E FF         [19] 2270 	ld	a, -1 (ix)
    00000BFD DD 77 F9         [19] 2271 	ld	-7 (ix), a
    00000C00                       2272 00175$:
                                   2273 ;E:\Dropbox\FAUSTO\SVILUPPI\MSX\CODE\C\MSXgl\projects\exsoccer/exsoccer_s1_b2.c:331: if (tx >= 130 && tx <= 220) candRight = c;
    00000C00 DD 7E FE         [19] 2274 	ld	a, -2 (ix)
    00000C03 D6 82            [ 7] 2275 	sub	a, #0x82
    00000C05 38 0D            [12] 2276 	jr	C, 00269$
    00000C07 3E DC            [ 7] 2277 	ld	a, #0xdc
    00000C09 DD 96 FE         [19] 2278 	sub	a, -2 (ix)
    00000C0C 38 06            [12] 2279 	jr	C, 00269$
    00000C0E DD 7E FF         [19] 2280 	ld	a, -1 (ix)
    00000C11 DD 77 FA         [19] 2281 	ld	-6 (ix), a
    00000C14                       2282 00269$:
                                   2283 ;E:\Dropbox\FAUSTO\SVILUPPI\MSX\CODE\C\MSXgl\projects\exsoccer/exsoccer_s1_b2.c:326: for(u8 c=0; c<14; c++) {
    00000C14 DD 34 FF         [23] 2284 	inc	-1 (ix)
    00000C17 C3r6Br0B         [10] 2285 	jp	00268$
    00000C1A                       2286 00184$:
                                   2287 ;E:\Dropbox\FAUSTO\SVILUPPI\MSX\CODE\C\MSXgl\projects\exsoccer/exsoccer_s1_b2.c:334: if (candLeft == NO_VALUE) candLeft = GetPlayerIdByRole(TEAM_1, PLAYER_ROLE_LEFT_HALFFIELDER);
    00000C1A DD 7E F9         [19] 2288 	ld	a, -7 (ix)
    00000C1D 3C               [ 4] 2289 	inc	a
    00000C1E 20 0A            [12] 2290 	jr	NZ, 00186$
    00000C20 2E 03            [ 7] 2291 	ld	l, #0x03
                                   2292 ;	spillPairReg hl
                                   2293 ;	spillPairReg hl
    00000C22 3E 01            [ 7] 2294 	ld	a, #0x01
    00000C24 CDr00r00         [17] 2295 	call	_GetPlayerIdByRole
    00000C27 DD 77 F9         [19] 2296 	ld	-7 (ix), a
    00000C2A                       2297 00186$:
                                   2298 ;E:\Dropbox\FAUSTO\SVILUPPI\MSX\CODE\C\MSXgl\projects\exsoccer/exsoccer_s1_b2.c:335: if (candRight == NO_VALUE) candRight = GetPlayerIdByRole(TEAM_1, PLAYER_ROLE_RIGHT_HALFFIELDER);
    00000C2A DD 7E FA         [19] 2299 	ld	a, -6 (ix)
    00000C2D 3C               [ 4] 2300 	inc	a
    00000C2E 20 0A            [12] 2301 	jr	NZ, 00188$
    00000C30 2E 04            [ 7] 2302 	ld	l, #0x04
                                   2303 ;	spillPairReg hl
                                   2304 ;	spillPairReg hl
    00000C32 3E 01            [ 7] 2305 	ld	a, #0x01
    00000C34 CDr00r00         [17] 2306 	call	_GetPlayerIdByRole
    00000C37 DD 77 FA         [19] 2307 	ld	-6 (ix), a
    00000C3A                       2308 00188$:
                                   2309 ;E:\Dropbox\FAUSTO\SVILUPPI\MSX\CODE\C\MSXgl\projects\exsoccer/exsoccer_s1_b2.c:338: if (g_CornerKickTargetId == NO_VALUE) {
    00000C3A 3Ar00r00         [13] 2310 	ld	a, (_g_CornerKickTargetId+0)
    00000C3D 3C               [ 4] 2311 	inc	a
    00000C3E 20 1B            [12] 2312 	jr	NZ, 00195$
                                   2313 ;E:\Dropbox\FAUSTO\SVILUPPI\MSX\CODE\C\MSXgl\projects\exsoccer/exsoccer_s1_b2.c:339: if (candLeft != NO_VALUE) g_CornerKickTargetId = candLeft;
    00000C40 DD 7E F9         [19] 2314 	ld	a, -7 (ix)
    00000C43 3C               [ 4] 2315 	inc	a
    00000C44 28 09            [12] 2316 	jr	Z, 00192$
    00000C46 DD 7E F9         [19] 2317 	ld	a, -7 (ix)
    00000C49 32r00r00         [13] 2318 	ld	(_g_CornerKickTargetId+0), a
    00000C4C C3r5Br0C         [10] 2319 	jp	00195$
    00000C4F                       2320 00192$:
                                   2321 ;E:\Dropbox\FAUSTO\SVILUPPI\MSX\CODE\C\MSXgl\projects\exsoccer/exsoccer_s1_b2.c:340: else if (candRight != NO_VALUE) g_CornerKickTargetId = candRight; 
    00000C4F DD 7E FA         [19] 2322 	ld	a, -6 (ix)
    00000C52 3C               [ 4] 2323 	inc	a
    00000C53 28 06            [12] 2324 	jr	Z, 00195$
    00000C55 DD 7E FA         [19] 2325 	ld	a, -6 (ix)
    00000C58 32r00r00         [13] 2326 	ld	(_g_CornerKickTargetId+0), a
    00000C5B                       2327 00195$:
                                   2328 ;E:\Dropbox\FAUSTO\SVILUPPI\MSX\CODE\C\MSXgl\projects\exsoccer/exsoccer_s1_b2.c:344: u8 joyDir = GetJoystick1Direction();
    00000C5B CDr00r00         [17] 2329 	call	_GetJoystick1Direction
                                   2330 ;E:\Dropbox\FAUSTO\SVILUPPI\MSX\CODE\C\MSXgl\projects\exsoccer/exsoccer_s1_b2.c:347: if (joyDir == DIRECTION_LEFT && !joyMoved && candLeft != NO_VALUE) {
    00000C5E 4F               [ 4] 2331 	ld	c, a
    00000C5F D6 07            [ 7] 2332 	sub	a, #0x07
    00000C61 20 1A            [12] 2333 	jr	NZ, 00204$
    00000C63 3Ar02r00         [13] 2334 	ld	a, (_TickCornerKick_joyMoved_196614_1214+0)
    00000C66 B7               [ 4] 2335 	or	a, a
    00000C67 20 14            [12] 2336 	jr	NZ, 00204$
    00000C69 DD 7E F9         [19] 2337 	ld	a, -7 (ix)
    00000C6C 3C               [ 4] 2338 	inc	a
    00000C6D 28 0E            [12] 2339 	jr	Z, 00204$
                                   2340 ;E:\Dropbox\FAUSTO\SVILUPPI\MSX\CODE\C\MSXgl\projects\exsoccer/exsoccer_s1_b2.c:348: g_CornerKickTargetId = candLeft; joyMoved = true;
    00000C6F DD 7E F9         [19] 2341 	ld	a, -7 (ix)
    00000C72 32r00r00         [13] 2342 	ld	(_g_CornerKickTargetId+0), a
    00000C75 21r02r00         [10] 2343 	ld	hl, #_TickCornerKick_joyMoved_196614_1214
    00000C78 36 01            [10] 2344 	ld	(hl), #0x01
    00000C7A C3rA5r0C         [10] 2345 	jp	00205$
    00000C7D                       2346 00204$:
                                   2347 ;E:\Dropbox\FAUSTO\SVILUPPI\MSX\CODE\C\MSXgl\projects\exsoccer/exsoccer_s1_b2.c:349: } else if (joyDir == DIRECTION_RIGHT && !joyMoved && candRight != NO_VALUE) {
    00000C7D 79               [ 4] 2348 	ld	a, c
    00000C7E D6 03            [ 7] 2349 	sub	a, #0x03
    00000C80 20 1A            [12] 2350 	jr	NZ, 00199$
    00000C82 3Ar02r00         [13] 2351 	ld	a, (_TickCornerKick_joyMoved_196614_1214+0)
    00000C85 B7               [ 4] 2352 	or	a, a
    00000C86 20 14            [12] 2353 	jr	NZ, 00199$
    00000C88 DD 7E FA         [19] 2354 	ld	a, -6 (ix)
    00000C8B 3C               [ 4] 2355 	inc	a
    00000C8C 28 0E            [12] 2356 	jr	Z, 00199$
                                   2357 ;E:\Dropbox\FAUSTO\SVILUPPI\MSX\CODE\C\MSXgl\projects\exsoccer/exsoccer_s1_b2.c:350: g_CornerKickTargetId = candRight; joyMoved = true;
    00000C8E DD 7E FA         [19] 2358 	ld	a, -6 (ix)
    00000C91 32r00r00         [13] 2359 	ld	(_g_CornerKickTargetId+0), a
    00000C94 21r02r00         [10] 2360 	ld	hl, #_TickCornerKick_joyMoved_196614_1214
    00000C97 36 01            [10] 2361 	ld	(hl), #0x01
    00000C99 C3rA5r0C         [10] 2362 	jp	00205$
    00000C9C                       2363 00199$:
                                   2364 ;E:\Dropbox\FAUSTO\SVILUPPI\MSX\CODE\C\MSXgl\projects\exsoccer/exsoccer_s1_b2.c:351: } else if (joyDir == DIRECTION_NONE) {
    00000C9C 79               [ 4] 2365 	ld	a, c
    00000C9D B7               [ 4] 2366 	or	a, a
    00000C9E 20 05            [12] 2367 	jr	NZ, 00205$
                                   2368 ;E:\Dropbox\FAUSTO\SVILUPPI\MSX\CODE\C\MSXgl\projects\exsoccer/exsoccer_s1_b2.c:352: joyMoved = false;
    00000CA0 21r02r00         [10] 2369 	ld	hl, #_TickCornerKick_joyMoved_196614_1214
    00000CA3 36 00            [10] 2370 	ld	(hl), #0x00
    00000CA5                       2371 00205$:
                                   2372 ;E:\Dropbox\FAUSTO\SVILUPPI\MSX\CODE\C\MSXgl\projects\exsoccer/exsoccer_s1_b2.c:359: if (kickerId != NO_VALUE) {
    00000CA5 DD CB EB 46      [20] 2373 	bit	0, -21 (ix)
    00000CA9 C2rA6r0D         [10] 2374 	jp	NZ, 00209$
                                   2375 ;E:\Dropbox\FAUSTO\SVILUPPI\MSX\CODE\C\MSXgl\projects\exsoccer/exsoccer_s1_b2.c:360: u8 kDir = (g_CornerKickSide == CORNER_SIDE_LEFT) ? DIRECTION_DOWN_RIGHT : DIRECTION_DOWN_LEFT;
    00000CAC 3Ar00r00         [13] 2376 	ld	a, (_g_CornerKickSide+0)
    00000CAF B7               [ 4] 2377 	or	a, a
    00000CB0 20 0B            [12] 2378 	jr	NZ, 00296$
    00000CB2 DD 36 FE 04      [19] 2379 	ld	-2 (ix), #0x04
    00000CB6 DD 36 FF 00      [19] 2380 	ld	-1 (ix), #0
    00000CBA C3rC5r0C         [10] 2381 	jp	00297$
    00000CBD                       2382 00296$:
    00000CBD DD 36 FE 06      [19] 2383 	ld	-2 (ix), #0x06
    00000CC1 DD 36 FF 00      [19] 2384 	ld	-1 (ix), #0
    00000CC5                       2385 00297$:
    00000CC5 DD 7E FE         [19] 2386 	ld	a, -2 (ix)
    00000CC8 DD 77 FD         [19] 2387 	ld	-3 (ix), a
                                   2388 ;E:\Dropbox\FAUSTO\SVILUPPI\MSX\CODE\C\MSXgl\projects\exsoccer/exsoccer_s1_b2.c:361: g_Players[kickerId].Direction = kDir;
    00000CCB DD 4E E9         [19] 2389 	ld	c, -23 (ix)
    00000CCE 06 00            [ 7] 2390 	ld	b, #0x00
    00000CD0 69               [ 4] 2391 	ld	l, c
    00000CD1 60               [ 4] 2392 	ld	h, b
    00000CD2 29               [11] 2393 	add	hl, hl
    00000CD3 29               [11] 2394 	add	hl, hl
    00000CD4 09               [11] 2395 	add	hl, bc
    00000CD5 29               [11] 2396 	add	hl, hl
    00000CD6 29               [11] 2397 	add	hl, hl
    00000CD7 09               [11] 2398 	add	hl, bc
    00000CD8 DD 75 FE         [19] 2399 	ld	-2 (ix), l
    00000CDB DD 74 FF         [19] 2400 	ld	-1 (ix), h
    00000CDE 3Er00            [ 7] 2401 	ld	a, #<(_g_Players)
    00000CE0 DD 86 FE         [19] 2402 	add	a, -2 (ix)
    00000CE3 DD 77 FA         [19] 2403 	ld	-6 (ix), a
    00000CE6 3Es00            [ 7] 2404 	ld	a, #>(_g_Players)
    00000CE8 DD 8E FF         [19] 2405 	adc	a, -1 (ix)
    00000CEB DD 77 FB         [19] 2406 	ld	-5 (ix), a
    00000CEE DD 7E FA         [19] 2407 	ld	a, -6 (ix)
    00000CF1 C6 0A            [ 7] 2408 	add	a, #0x0a
    00000CF3 DD 77 FE         [19] 2409 	ld	-2 (ix), a
    00000CF6 DD 7E FB         [19] 2410 	ld	a, -5 (ix)
    00000CF9 CE 00            [ 7] 2411 	adc	a, #0x00
    00000CFB DD 77 FF         [19] 2412 	ld	-1 (ix), a
    00000CFE DD 6E FE         [19] 2413 	ld	l, -2 (ix)
    00000D01 DD 66 FF         [19] 2414 	ld	h, -1 (ix)
    00000D04 DD 7E FD         [19] 2415 	ld	a, -3 (ix)
    00000D07 77               [ 7] 2416 	ld	(hl), a
                                   2417 ;E:\Dropbox\FAUSTO\SVILUPPI\MSX\CODE\C\MSXgl\projects\exsoccer/exsoccer_s1_b2.c:362: g_Players[kickerId].PatternId = GetNoMovingPlayerPatternId(kDir);
    00000D08 DD 7E FA         [19] 2418 	ld	a, -6 (ix)
    00000D0B C6 08            [ 7] 2419 	add	a, #0x08
    00000D0D DD 77 FE         [19] 2420 	ld	-2 (ix), a
    00000D10 DD 7E FB         [19] 2421 	ld	a, -5 (ix)
    00000D13 CE 00            [ 7] 2422 	adc	a, #0x00
    00000D15 DD 77 FF         [19] 2423 	ld	-1 (ix), a
    00000D18 DD 7E FD         [19] 2424 	ld	a, -3 (ix)
    00000D1B CDr00r00         [17] 2425 	call	_GetNoMovingPlayerPatternId
    00000D1E DD 77 FD         [19] 2426 	ld	-3 (ix), a
    00000D21 DD 6E FE         [19] 2427 	ld	l, -2 (ix)
    00000D24 DD 66 FF         [19] 2428 	ld	h, -1 (ix)
    00000D27 DD 7E FD         [19] 2429 	ld	a, -3 (ix)
    00000D2A 77               [ 7] 2430 	ld	(hl), a
                                   2431 ;E:\Dropbox\FAUSTO\SVILUPPI\MSX\CODE\C\MSXgl\projects\exsoccer/exsoccer_s1_b2.c:363: g_Players[kickerId].X = g_Players[kickerId].TargetX;
    00000D2B DD 7E FA         [19] 2432 	ld	a, -6 (ix)
    00000D2E C6 02            [ 7] 2433 	add	a, #0x02
    00000D30 DD 77 FC         [19] 2434 	ld	-4 (ix), a
    00000D33 DD 7E FB         [19] 2435 	ld	a, -5 (ix)
    00000D36 CE 00            [ 7] 2436 	adc	a, #0x00
    00000D38 DD 77 FD         [19] 2437 	ld	-3 (ix), a
    00000D3B DD 7E FA         [19] 2438 	ld	a, -6 (ix)
    00000D3E DD 77 FE         [19] 2439 	ld	-2 (ix), a
    00000D41 DD 7E FB         [19] 2440 	ld	a, -5 (ix)
    00000D44 DD 77 FF         [19] 2441 	ld	-1 (ix), a
    00000D47 DD 6E FE         [19] 2442 	ld	l, -2 (ix)
    00000D4A DD 66 FF         [19] 2443 	ld	h, -1 (ix)
    00000D4D 11 10 00         [10] 2444 	ld	de, #0x0010
    00000D50 19               [11] 2445 	add	hl, de
    00000D51 7E               [ 7] 2446 	ld	a, (hl)
    00000D52 DD 77 FE         [19] 2447 	ld	-2 (ix), a
    00000D55 23               [ 6] 2448 	inc	hl
    00000D56 7E               [ 7] 2449 	ld	a, (hl)
    00000D57 DD 77 FF         [19] 2450 	ld	-1 (ix), a
    00000D5A DD 6E FC         [19] 2451 	ld	l, -4 (ix)
    00000D5D DD 66 FD         [19] 2452 	ld	h, -3 (ix)
    00000D60 DD 7E FE         [19] 2453 	ld	a, -2 (ix)
    00000D63 77               [ 7] 2454 	ld	(hl), a
    00000D64 23               [ 6] 2455 	inc	hl
    00000D65 DD 7E FF         [19] 2456 	ld	a, -1 (ix)
    00000D68 77               [ 7] 2457 	ld	(hl), a
                                   2458 ;E:\Dropbox\FAUSTO\SVILUPPI\MSX\CODE\C\MSXgl\projects\exsoccer/exsoccer_s1_b2.c:364: g_Players[kickerId].Y = g_Players[kickerId].TargetY;
    00000D69 DD 7E FA         [19] 2459 	ld	a, -6 (ix)
    00000D6C DD 77 FE         [19] 2460 	ld	-2 (ix), a
    00000D6F DD 7E FB         [19] 2461 	ld	a, -5 (ix)
    00000D72 DD 77 FF         [19] 2462 	ld	-1 (ix), a
    00000D75 DD 6E FE         [19] 2463 	ld	l, -2 (ix)
    00000D78 DD 66 FF         [19] 2464 	ld	h, -1 (ix)
    00000D7B 11 0E 00         [10] 2465 	ld	de, #0x000e
    00000D7E 19               [11] 2466 	add	hl, de
    00000D7F 7E               [ 7] 2467 	ld	a, (hl)
    00000D80 DD 77 FE         [19] 2468 	ld	-2 (ix), a
    00000D83 23               [ 6] 2469 	inc	hl
    00000D84 7E               [ 7] 2470 	ld	a, (hl)
    00000D85 DD 77 FF         [19] 2471 	ld	-1 (ix), a
    00000D88 DD 6E FA         [19] 2472 	ld	l, -6 (ix)
    00000D8B DD 66 FB         [19] 2473 	ld	h, -5 (ix)
    00000D8E DD 7E FE         [19] 2474 	ld	a, -2 (ix)
    00000D91 77               [ 7] 2475 	ld	(hl), a
    00000D92 23               [ 6] 2476 	inc	hl
    00000D93 DD 7E FF         [19] 2477 	ld	a, -1 (ix)
    00000D96 77               [ 7] 2478 	ld	(hl), a
                                   2479 ;E:\Dropbox\FAUSTO\SVILUPPI\MSX\CODE\C\MSXgl\projects\exsoccer/exsoccer_s1_b2.c:366: g_Players[kickerId].Status = PLAYER_STATUS_POSITIONED; 
    00000D97 DD 6E FA         [19] 2480 	ld	l, -6 (ix)
    00000D9A DD 66 FB         [19] 2481 	ld	h, -5 (ix)
    00000D9D 11 12 00         [10] 2482 	ld	de, #0x0012
    00000DA0 19               [11] 2483 	add	hl, de
    00000DA1 36 04            [10] 2484 	ld	(hl), #0x04
    00000DA3 23               [ 6] 2485 	inc	hl
    00000DA4 36 00            [10] 2486 	ld	(hl), #0x00
    00000DA6                       2487 00209$:
                                   2488 ;E:\Dropbox\FAUSTO\SVILUPPI\MSX\CODE\C\MSXgl\projects\exsoccer/exsoccer_s1_b2.c:370: bool t1Trigger = IsTeamJoystickTriggerPressed(TEAM_1);
    00000DA6 3E 01            [ 7] 2489 	ld	a, #0x01
    00000DA8 CDr00r00         [17] 2490 	call	_IsTeamJoystickTriggerPressed
    00000DAB 4F               [ 4] 2491 	ld	c, a
                                   2492 ;E:\Dropbox\FAUSTO\SVILUPPI\MSX\CODE\C\MSXgl\projects\exsoccer/exsoccer_s1_b2.c:372: if (g_Timer == 180) t1Latched = true;
    00000DAC 3Ar00r00         [13] 2493 	ld	a, (_g_Timer+0)
    00000DAF D6 B4            [ 7] 2494 	sub	a, #0xb4
    00000DB1 20 05            [12] 2495 	jr	NZ, 00211$
    00000DB3 21r03r00         [10] 2496 	ld	hl, #_TickCornerKick_t1Latched_196615_1219
    00000DB6 36 01            [10] 2497 	ld	(hl), #0x01
    00000DB8                       2498 00211$:
                                   2499 ;E:\Dropbox\FAUSTO\SVILUPPI\MSX\CODE\C\MSXgl\projects\exsoccer/exsoccer_s1_b2.c:373: if (!t1Trigger) t1Latched = false;
    00000DB8 79               [ 4] 2500 	ld	a, c
    00000DB9 B7               [ 4] 2501 	or	a, a
    00000DBA 20 05            [12] 2502 	jr	NZ, 00213$
    00000DBC 21r03r00         [10] 2503 	ld	hl, #_TickCornerKick_t1Latched_196615_1219
    00000DBF 36 00            [10] 2504 	ld	(hl), #0x00
    00000DC1                       2505 00213$:
                                   2506 ;E:\Dropbox\FAUSTO\SVILUPPI\MSX\CODE\C\MSXgl\projects\exsoccer/exsoccer_s1_b2.c:376: if (g_CornerKickTargetId != NO_VALUE) {
    00000DC1 3Ar00r00         [13] 2507 	ld	a, (_g_CornerKickTargetId+0)
    00000DC4 3C               [ 4] 2508 	inc	a
    00000DC5 28 0D            [12] 2509 	jr	Z, 00215$
                                   2510 ;E:\Dropbox\FAUSTO\SVILUPPI\MSX\CODE\C\MSXgl\projects\exsoccer/exsoccer_s1_b2.c:377: g_Ball.PassTargetPlayerId = g_CornerKickTargetId;
    00000DC7 21r10r00         [10] 2511 	ld	hl, #(_g_Ball + 16)
    00000DCA 3Ar00r00         [13] 2512 	ld	a, (_g_CornerKickTargetId+0)
    00000DCD 77               [ 7] 2513 	ld	(hl), a
                                   2514 ;E:\Dropbox\FAUSTO\SVILUPPI\MSX\CODE\C\MSXgl\projects\exsoccer/exsoccer_s1_b2.c:378: g_PassTargetPlayer = g_CornerKickTargetId;
    00000DCE 3Ar00r00         [13] 2515 	ld	a, (_g_CornerKickTargetId+0)
    00000DD1 32r00r00         [13] 2516 	ld	(_g_PassTargetPlayer+0), a
    00000DD4                       2517 00215$:
                                   2518 ;E:\Dropbox\FAUSTO\SVILUPPI\MSX\CODE\C\MSXgl\projects\exsoccer/exsoccer_s1_b2.c:381: if ((t1Trigger && !t1Latched || s_ForceKickTimer > 240) && g_CornerKickTargetId != NO_VALUE) {
    00000DD4 79               [ 4] 2519 	ld	a, c
    00000DD5 B7               [ 4] 2520 	or	a, a
    00000DD6 28 06            [12] 2521 	jr	Z, 00219$
    00000DD8 3Ar03r00         [13] 2522 	ld	a, (_TickCornerKick_t1Latched_196615_1219+0)
    00000DDB B7               [ 4] 2523 	or	a, a
    00000DDC 28 0C            [12] 2524 	jr	Z, 00220$
    00000DDE                       2525 00219$:
    00000DDE 2Ar00r00         [16] 2526 	ld	hl, (_TickCornerKick_s_ForceKickTimer_65537_1180)
    00000DE1 3E F0            [ 7] 2527 	ld	a, #0xf0
    00000DE3 BD               [ 4] 2528 	cp	a, l
    00000DE4 3E 00            [ 7] 2529 	ld	a, #0x00
    00000DE6 9C               [ 4] 2530 	sbc	a, h
    00000DE7 D2r52r0F         [10] 2531 	jp	NC, 00270$
    00000DEA                       2532 00220$:
    00000DEA 3Ar00r00         [13] 2533 	ld	a, (_g_CornerKickTargetId+0)
    00000DED 3C               [ 4] 2534 	inc	a
    00000DEE CAr52r0F         [10] 2535 	jp	Z,00270$
                                   2536 ;E:\Dropbox\FAUSTO\SVILUPPI\MSX\CODE\C\MSXgl\projects\exsoccer/exsoccer_s1_b2.c:382: PerformPass(g_CornerKickTargetId);
    00000DF1 3Ar00r00         [13] 2537 	ld	a, (_g_CornerKickTargetId+0)
    00000DF4 CDr00r00         [17] 2538 	call	_PerformPass
                                   2539 ;E:\Dropbox\FAUSTO\SVILUPPI\MSX\CODE\C\MSXgl\projects\exsoccer/exsoccer_s1_b2.c:383: g_MatchStatus = MATCH_IN_ACTION;
    00000DF7 21r00r00         [10] 2540 	ld	hl, #_g_MatchStatus
    00000DFA 36 0C            [10] 2541 	ld	(hl), #0x0c
                                   2542 ;E:\Dropbox\FAUSTO\SVILUPPI\MSX\CODE\C\MSXgl\projects\exsoccer/exsoccer_s1_b2.c:384: g_CornerKickTargetId = NO_VALUE;
    00000DFC 21r00r00         [10] 2543 	ld	hl, #_g_CornerKickTargetId
    00000DFF 36 FF            [10] 2544 	ld	(hl), #0xff
    00000E01 C3r52r0F         [10] 2545 	jp	00270$
    00000E04                       2546 00246$:
                                   2547 ;E:\Dropbox\FAUSTO\SVILUPPI\MSX\CODE\C\MSXgl\projects\exsoccer/exsoccer_s1_b2.c:389: u8 joyDir = GetJoystick2Direction();
    00000E04 CDr00r00         [17] 2548 	call	_GetJoystick2Direction
    00000E07 47               [ 4] 2549 	ld	b, a
                                   2550 ;E:\Dropbox\FAUSTO\SVILUPPI\MSX\CODE\C\MSXgl\projects\exsoccer/exsoccer_s1_b2.c:390: bool trigger = IsTeamJoystickTriggerPressed(TEAM_2);
    00000E08 C5               [11] 2551 	push	bc
    00000E09 3E 02            [ 7] 2552 	ld	a, #0x02
    00000E0B CDr00r00         [17] 2553 	call	_IsTeamJoystickTriggerPressed
    00000E0E C1               [10] 2554 	pop	bc
    00000E0F DD 77 FC         [19] 2555 	ld	-4 (ix), a
                                   2556 ;E:\Dropbox\FAUSTO\SVILUPPI\MSX\CODE\C\MSXgl\projects\exsoccer/exsoccer_s1_b2.c:393: if (g_CornerKickTargetId == NO_VALUE) g_CornerKickTargetId = GetPlayerIdByRole(TEAM_2, PLAYER_ROLE_LEFT_STRIKER);
    00000E12 3Ar00r00         [13] 2557 	ld	a, (_g_CornerKickTargetId+0)
    00000E15 3C               [ 4] 2558 	inc	a
    00000E16 20 0C            [12] 2559 	jr	NZ, 00222$
    00000E18 C5               [11] 2560 	push	bc
    00000E19 2E 05            [ 7] 2561 	ld	l, #0x05
                                   2562 ;	spillPairReg hl
                                   2563 ;	spillPairReg hl
    00000E1B 3E 02            [ 7] 2564 	ld	a, #0x02
    00000E1D CDr00r00         [17] 2565 	call	_GetPlayerIdByRole
    00000E20 C1               [10] 2566 	pop	bc
    00000E21 32r00r00         [13] 2567 	ld	(_g_CornerKickTargetId+0), a
    00000E24                       2568 00222$:
                                   2569 ;E:\Dropbox\FAUSTO\SVILUPPI\MSX\CODE\C\MSXgl\projects\exsoccer/exsoccer_s1_b2.c:395: if ((joyDir == DIRECTION_LEFT || joyDir == DIRECTION_RIGHT) && !joyMoved) {
    00000E24 78               [ 4] 2570 	ld	a,b
    00000E25 FE 07            [ 7] 2571 	cp	a,#0x07
    00000E27 28 04            [12] 2572 	jr	Z, 00238$
    00000E29 D6 03            [ 7] 2573 	sub	a, #0x03
    00000E2B 20 75            [12] 2574 	jr	NZ, 00235$
    00000E2D                       2575 00238$:
    00000E2D 3Ar04r00         [13] 2576 	ld	a, (_TickCornerKick_joyMoved_196613_1222+0)
    00000E30 B7               [ 4] 2577 	or	a, a
    00000E31 20 6F            [12] 2578 	jr	NZ, 00235$
                                   2579 ;E:\Dropbox\FAUSTO\SVILUPPI\MSX\CODE\C\MSXgl\projects\exsoccer/exsoccer_s1_b2.c:396: u8 curr = g_CornerKickTargetId;
    00000E33 3Ar00r00         [13] 2580 	ld	a, (_g_CornerKickTargetId+0)
    00000E36 4F               [ 4] 2581 	ld	c, a
                                   2582 ;E:\Dropbox\FAUSTO\SVILUPPI\MSX\CODE\C\MSXgl\projects\exsoccer/exsoccer_s1_b2.c:398: do {
    00000E37 78               [ 4] 2583 	ld	a, b
    00000E38 D6 03            [ 7] 2584 	sub	a, #0x03
    00000E3A 3E 01            [ 7] 2585 	ld	a, #0x01
    00000E3C 28 01            [12] 2586 	jr	Z, 00857$
    00000E3E AF               [ 4] 2587 	xor	a, a
    00000E3F                       2588 00857$:
    00000E3F DD 77 FD         [19] 2589 	ld	-3 (ix), a
    00000E42 DD 36 FF 00      [19] 2590 	ld	-1 (ix), #0x00
    00000E46                       2591 00229$:
                                   2592 ;E:\Dropbox\FAUSTO\SVILUPPI\MSX\CODE\C\MSXgl\projects\exsoccer/exsoccer_s1_b2.c:399: curr = (joyDir==DIRECTION_RIGHT) ? curr+1 : curr-1;
    00000E46 DD 71 FE         [19] 2593 	ld	-2 (ix), c
    00000E49 DD 7E FD         [19] 2594 	ld	a, -3 (ix)
    00000E4C B7               [ 4] 2595 	or	a, a
    00000E4D 28 07            [12] 2596 	jr	Z, 00298$
    00000E4F DD 4E FE         [19] 2597 	ld	c, -2 (ix)
    00000E52 0C               [ 4] 2598 	inc	c
    00000E53 C3r5Ar0E         [10] 2599 	jp	00299$
    00000E56                       2600 00298$:
    00000E56 DD 4E FE         [19] 2601 	ld	c, -2 (ix)
    00000E59 0D               [ 4] 2602 	dec	c
    00000E5A                       2603 00299$:
                                   2604 ;E:\Dropbox\FAUSTO\SVILUPPI\MSX\CODE\C\MSXgl\projects\exsoccer/exsoccer_s1_b2.c:400: if (curr > 13) curr = 0;
    00000E5A 3E 0D            [ 7] 2605 	ld	a, #0x0d
    00000E5C 91               [ 4] 2606 	sub	a, c
    00000E5D 30 02            [12] 2607 	jr	NC, 00224$
    00000E5F 0E 00            [ 7] 2608 	ld	c, #0x00
    00000E61                       2609 00224$:
                                   2610 ;E:\Dropbox\FAUSTO\SVILUPPI\MSX\CODE\C\MSXgl\projects\exsoccer/exsoccer_s1_b2.c:401: if (g_Players[curr].TeamId == TEAM_2 && g_Players[curr].Role != PLAYER_ROLE_GOALKEEPER && curr != kickerId) {
    00000E61 06 00            [ 7] 2611 	ld	b, #0x00
    00000E63 69               [ 4] 2612 	ld	l, c
    00000E64 60               [ 4] 2613 	ld	h, b
    00000E65 29               [11] 2614 	add	hl, hl
    00000E66 29               [11] 2615 	add	hl, hl
    00000E67 09               [11] 2616 	add	hl, bc
    00000E68 29               [11] 2617 	add	hl, hl
    00000E69 29               [11] 2618 	add	hl, hl
    00000E6A 09               [11] 2619 	add	hl, bc
    00000E6B EB               [ 4] 2620 	ex	de, hl
    00000E6C 21r00r00         [10] 2621 	ld	hl, #_g_Players
    00000E6F 19               [11] 2622 	add	hl, de
    00000E70 EB               [ 4] 2623 	ex	de, hl
    00000E71 D5               [11] 2624 	push	de
    00000E72 FD E1            [14] 2625 	pop	iy
    00000E74 FD 7E 09         [19] 2626 	ld	a, 9 (iy)
    00000E77 D6 02            [ 7] 2627 	sub	a, #0x02
    00000E79 20 15            [12] 2628 	jr	NZ, 00226$
    00000E7B 21 0D 00         [10] 2629 	ld	hl, #13
    00000E7E 19               [11] 2630 	add	hl, de
    00000E7F 7E               [ 7] 2631 	ld	a, (hl)
    00000E80 B7               [ 4] 2632 	or	a, a
    00000E81 28 0D            [12] 2633 	jr	Z, 00226$
    00000E83 DD 7E E9         [19] 2634 	ld	a, -23 (ix)
    00000E86 91               [ 4] 2635 	sub	a, c
    00000E87 28 07            [12] 2636 	jr	Z, 00226$
                                   2637 ;E:\Dropbox\FAUSTO\SVILUPPI\MSX\CODE\C\MSXgl\projects\exsoccer/exsoccer_s1_b2.c:402: g_CornerKickTargetId = curr; break;
    00000E89 21r00r00         [10] 2638 	ld	hl, #_g_CornerKickTargetId
    00000E8C 71               [ 7] 2639 	ld	(hl), c
    00000E8D C3r9Ar0E         [10] 2640 	jp	00231$
    00000E90                       2641 00226$:
                                   2642 ;E:\Dropbox\FAUSTO\SVILUPPI\MSX\CODE\C\MSXgl\projects\exsoccer/exsoccer_s1_b2.c:404: loop++;
    00000E90 DD 34 FF         [23] 2643 	inc	-1 (ix)
                                   2644 ;E:\Dropbox\FAUSTO\SVILUPPI\MSX\CODE\C\MSXgl\projects\exsoccer/exsoccer_s1_b2.c:405: } while (loop < 15);
    00000E93 DD 7E FF         [19] 2645 	ld	a, -1 (ix)
    00000E96 D6 0F            [ 7] 2646 	sub	a, #0x0f
    00000E98 38 AC            [12] 2647 	jr	C, 00229$
    00000E9A                       2648 00231$:
                                   2649 ;E:\Dropbox\FAUSTO\SVILUPPI\MSX\CODE\C\MSXgl\projects\exsoccer/exsoccer_s1_b2.c:406: joyMoved = true;
    00000E9A 21r04r00         [10] 2650 	ld	hl, #_TickCornerKick_joyMoved_196613_1222
    00000E9D 36 01            [10] 2651 	ld	(hl), #0x01
    00000E9F C3rABr0E         [10] 2652 	jp	00236$
    00000EA2                       2653 00235$:
                                   2654 ;E:\Dropbox\FAUSTO\SVILUPPI\MSX\CODE\C\MSXgl\projects\exsoccer/exsoccer_s1_b2.c:407: } else if (joyDir == DIRECTION_NONE) joyMoved = false;
    00000EA2 78               [ 4] 2655 	ld	a, b
    00000EA3 B7               [ 4] 2656 	or	a, a
    00000EA4 20 05            [12] 2657 	jr	NZ, 00236$
    00000EA6 21r04r00         [10] 2658 	ld	hl, #_TickCornerKick_joyMoved_196613_1222
    00000EA9 36 00            [10] 2659 	ld	(hl), #0x00
    00000EAB                       2660 00236$:
                                   2661 ;E:\Dropbox\FAUSTO\SVILUPPI\MSX\CODE\C\MSXgl\projects\exsoccer/exsoccer_s1_b2.c:409: if (g_CornerKickTargetId != NO_VALUE) {
    00000EAB 3Ar00r00         [13] 2662 	ld	a, (_g_CornerKickTargetId+0)
    00000EAE 3C               [ 4] 2663 	inc	a
    00000EAF 28 0D            [12] 2664 	jr	Z, 00240$
                                   2665 ;E:\Dropbox\FAUSTO\SVILUPPI\MSX\CODE\C\MSXgl\projects\exsoccer/exsoccer_s1_b2.c:410: g_Ball.PassTargetPlayerId = g_CornerKickTargetId;
    00000EB1 21r10r00         [10] 2666 	ld	hl, #(_g_Ball + 16)
    00000EB4 3Ar00r00         [13] 2667 	ld	a, (_g_CornerKickTargetId+0)
    00000EB7 77               [ 7] 2668 	ld	(hl), a
                                   2669 ;E:\Dropbox\FAUSTO\SVILUPPI\MSX\CODE\C\MSXgl\projects\exsoccer/exsoccer_s1_b2.c:411: g_PassTargetPlayer = g_CornerKickTargetId;
    00000EB8 3Ar00r00         [13] 2670 	ld	a, (_g_CornerKickTargetId+0)
    00000EBB 32r00r00         [13] 2671 	ld	(_g_PassTargetPlayer+0), a
    00000EBE                       2672 00240$:
                                   2673 ;E:\Dropbox\FAUSTO\SVILUPPI\MSX\CODE\C\MSXgl\projects\exsoccer/exsoccer_s1_b2.c:414: if ((trigger || s_ForceKickTimer > 240) && g_CornerKickTargetId != NO_VALUE) {
    00000EBE DD 7E FC         [19] 2674 	ld	a, -4 (ix)
    00000EC1 B7               [ 4] 2675 	or	a, a
    00000EC2 20 0C            [12] 2676 	jr	NZ, 00244$
    00000EC4 2Ar00r00         [16] 2677 	ld	hl, (_TickCornerKick_s_ForceKickTimer_65537_1180)
    00000EC7 3E F0            [ 7] 2678 	ld	a, #0xf0
    00000EC9 BD               [ 4] 2679 	cp	a, l
    00000ECA 3E 00            [ 7] 2680 	ld	a, #0x00
    00000ECC 9C               [ 4] 2681 	sbc	a, h
    00000ECD D2r52r0F         [10] 2682 	jp	NC, 00270$
    00000ED0                       2683 00244$:
    00000ED0 3Ar00r00         [13] 2684 	ld	a, (_g_CornerKickTargetId+0)
    00000ED3 3C               [ 4] 2685 	inc	a
    00000ED4 28 7C            [12] 2686 	jr	Z, 00270$
                                   2687 ;E:\Dropbox\FAUSTO\SVILUPPI\MSX\CODE\C\MSXgl\projects\exsoccer/exsoccer_s1_b2.c:415: PerformPass(g_CornerKickTargetId);
    00000ED6 3Ar00r00         [13] 2688 	ld	a, (_g_CornerKickTargetId+0)
    00000ED9 CDr00r00         [17] 2689 	call	_PerformPass
                                   2690 ;E:\Dropbox\FAUSTO\SVILUPPI\MSX\CODE\C\MSXgl\projects\exsoccer/exsoccer_s1_b2.c:416: g_MatchStatus = MATCH_IN_ACTION;
    00000EDC 21r00r00         [10] 2691 	ld	hl, #_g_MatchStatus
    00000EDF 36 0C            [10] 2692 	ld	(hl), #0x0c
                                   2693 ;E:\Dropbox\FAUSTO\SVILUPPI\MSX\CODE\C\MSXgl\projects\exsoccer/exsoccer_s1_b2.c:417: g_CornerKickTargetId = NO_VALUE;
    00000EE1 21r00r00         [10] 2694 	ld	hl, #_g_CornerKickTargetId
    00000EE4 36 FF            [10] 2695 	ld	(hl), #0xff
    00000EE6 C3r52r0F         [10] 2696 	jp	00270$
    00000EE9                       2697 00260$:
                                   2698 ;E:\Dropbox\FAUSTO\SVILUPPI\MSX\CODE\C\MSXgl\projects\exsoccer/exsoccer_s1_b2.c:423: if (g_CornerKickTargetId == NO_VALUE) {
    00000EE9 3Ar00r00         [13] 2699 	ld	a, (_g_CornerKickTargetId+0)
    00000EEC 3C               [ 4] 2700 	inc	a
    00000EED 20 32            [12] 2701 	jr	NZ, 00253$
                                   2702 ;E:\Dropbox\FAUSTO\SVILUPPI\MSX\CODE\C\MSXgl\projects\exsoccer/exsoccer_s1_b2.c:424: u8 randomRole = ((g_Timer & 1) == 0) ? PLAYER_ROLE_LEFT_STRIKER : PLAYER_ROLE_RIGHT_STRIKER;
    00000EEF 3Ar00r00         [13] 2703 	ld	a, (_g_Timer+0)
    00000EF2 0F               [ 4] 2704 	rrca
    00000EF3 38 06            [12] 2705 	jr	C, 00300$
    00000EF5 21 05 00         [10] 2706 	ld	hl, #0x0005
    00000EF8 C3rFEr0E         [10] 2707 	jp	00301$
    00000EFB                       2708 00300$:
    00000EFB 21 06 00         [10] 2709 	ld	hl, #0x0006
    00000EFE                       2710 00301$:
                                   2711 ;E:\Dropbox\FAUSTO\SVILUPPI\MSX\CODE\C\MSXgl\projects\exsoccer/exsoccer_s1_b2.c:425: u8 strikerId = GetPlayerIdByRole(g_RestartKickTeamId, randomRole);
    00000EFE 3Ar00r00         [13] 2712 	ld	a, (_g_RestartKickTeamId+0)
    00000F01 CDr00r00         [17] 2713 	call	_GetPlayerIdByRole
                                   2714 ;E:\Dropbox\FAUSTO\SVILUPPI\MSX\CODE\C\MSXgl\projects\exsoccer/exsoccer_s1_b2.c:428: if (strikerId != NO_VALUE && strikerId != kickerId) {
    00000F04 4F               [ 4] 2715 	ld	c, a
    00000F05 3C               [ 4] 2716 	inc	a
    00000F06 28 0D            [12] 2717 	jr	Z, 00249$
    00000F08 DD 7E E9         [19] 2718 	ld	a, -23 (ix)
    00000F0B 91               [ 4] 2719 	sub	a, c
    00000F0C 28 07            [12] 2720 	jr	Z, 00249$
                                   2721 ;E:\Dropbox\FAUSTO\SVILUPPI\MSX\CODE\C\MSXgl\projects\exsoccer/exsoccer_s1_b2.c:429: g_CornerKickTargetId = strikerId;
    00000F0E 21r00r00         [10] 2722 	ld	hl, #_g_CornerKickTargetId
    00000F11 71               [ 7] 2723 	ld	(hl), c
    00000F12 C3r21r0F         [10] 2724 	jp	00253$
    00000F15                       2725 00249$:
                                   2726 ;E:\Dropbox\FAUSTO\SVILUPPI\MSX\CODE\C\MSXgl\projects\exsoccer/exsoccer_s1_b2.c:431: g_CornerKickTargetId = GetClosestPlayerToBall(g_RestartKickTeamId, kickerId);
    00000F15 DD 6E E9         [19] 2727 	ld	l, -23 (ix)
                                   2728 ;	spillPairReg hl
                                   2729 ;	spillPairReg hl
    00000F18 3Ar00r00         [13] 2730 	ld	a, (_g_RestartKickTeamId+0)
    00000F1B CDr00r00         [17] 2731 	call	_GetClosestPlayerToBall
    00000F1E 32r00r00         [13] 2732 	ld	(_g_CornerKickTargetId+0), a
    00000F21                       2733 00253$:
                                   2734 ;E:\Dropbox\FAUSTO\SVILUPPI\MSX\CODE\C\MSXgl\projects\exsoccer/exsoccer_s1_b2.c:435: if (g_Timer > 200) {
    00000F21 3E C8            [ 7] 2735 	ld	a, #0xc8
    00000F23 21r00r00         [10] 2736 	ld	hl, #_g_Timer
    00000F26 96               [ 7] 2737 	sub	a, (hl)
    00000F27 30 25            [12] 2738 	jr	NC, 00257$
                                   2739 ;E:\Dropbox\FAUSTO\SVILUPPI\MSX\CODE\C\MSXgl\projects\exsoccer/exsoccer_s1_b2.c:436: if (g_CornerKickTargetId == NO_VALUE) g_CornerKickTargetId = GetClosestPlayerToBall(g_RestartKickTeamId, kickerId);
    00000F29 3Ar00r00         [13] 2740 	ld	a, (_g_CornerKickTargetId+0)
    00000F2C 3C               [ 4] 2741 	inc	a
    00000F2D 20 0C            [12] 2742 	jr	NZ, 00255$
    00000F2F DD 6E E9         [19] 2743 	ld	l, -23 (ix)
                                   2744 ;	spillPairReg hl
                                   2745 ;	spillPairReg hl
    00000F32 3Ar00r00         [13] 2746 	ld	a, (_g_RestartKickTeamId+0)
    00000F35 CDr00r00         [17] 2747 	call	_GetClosestPlayerToBall
    00000F38 32r00r00         [13] 2748 	ld	(_g_CornerKickTargetId+0), a
    00000F3B                       2749 00255$:
                                   2750 ;E:\Dropbox\FAUSTO\SVILUPPI\MSX\CODE\C\MSXgl\projects\exsoccer/exsoccer_s1_b2.c:438: PerformPass(g_CornerKickTargetId);
    00000F3B 3Ar00r00         [13] 2751 	ld	a, (_g_CornerKickTargetId+0)
    00000F3E CDr00r00         [17] 2752 	call	_PerformPass
                                   2753 ;E:\Dropbox\FAUSTO\SVILUPPI\MSX\CODE\C\MSXgl\projects\exsoccer/exsoccer_s1_b2.c:439: g_MatchStatus = MATCH_IN_ACTION; 
    00000F41 21r00r00         [10] 2754 	ld	hl, #_g_MatchStatus
    00000F44 36 0C            [10] 2755 	ld	(hl), #0x0c
                                   2756 ;E:\Dropbox\FAUSTO\SVILUPPI\MSX\CODE\C\MSXgl\projects\exsoccer/exsoccer_s1_b2.c:440: g_CornerKickTargetId = NO_VALUE;
    00000F46 21r00r00         [10] 2757 	ld	hl, #_g_CornerKickTargetId
    00000F49 36 FF            [10] 2758 	ld	(hl), #0xff
    00000F4B C3r52r0F         [10] 2759 	jp	00270$
    00000F4E                       2760 00257$:
                                   2761 ;E:\Dropbox\FAUSTO\SVILUPPI\MSX\CODE\C\MSXgl\projects\exsoccer/exsoccer_s1_b2.c:442: g_Timer++;
    00000F4E 21r00r00         [10] 2762 	ld	hl, #_g_Timer
    00000F51 34               [11] 2763 	inc	(hl)
    00000F52                       2764 00270$:
                                   2765 ;E:\Dropbox\FAUSTO\SVILUPPI\MSX\CODE\C\MSXgl\projects\exsoccer/exsoccer_s1_b2.c:445: }
    00000F52 DD F9            [10] 2766 	ld	sp, ix
    00000F54 DD E1            [14] 2767 	pop	ix
    00000F56 C9               [10] 2768 	ret
                                   2769 ;E:\Dropbox\FAUSTO\SVILUPPI\MSX\CODE\C\MSXgl\projects\exsoccer/exsoccer_s1_b2.c:446: void TickTeamJoystick(u8 teamId, u8 direction){
                                   2770 ;	---------------------------------
                                   2771 ; Function TickTeamJoystick
                                   2772 ; ---------------------------------
    00000F57                       2773 _TickTeamJoystick::
    00000F57 DD E5            [15] 2774 	push	ix
    00000F59 DD 21 00 00      [14] 2775 	ld	ix,#0
    00000F5D DD 39            [15] 2776 	add	ix,sp
    00000F5F FD 21 C3 FF      [14] 2777 	ld	iy, #-61
    00000F63 FD 39            [15] 2778 	add	iy, sp
    00000F65 FD F9            [10] 2779 	ld	sp, iy
    00000F67 DD 77 FF         [19] 2780 	ld	-1 (ix), a
    00000F6A DD 75 FE         [19] 2781 	ld	-2 (ix), l
                                   2782 ;E:\Dropbox\FAUSTO\SVILUPPI\MSX\CODE\C\MSXgl\projects\exsoccer/exsoccer_s1_b2.c:449: if (g_MatchStatus == MATCH_NOT_STARTED || 
    00000F6D 3Ar00r00         [13] 2783 	ld	a, (_g_MatchStatus+0)
    00000F70 B7               [ 4] 2784 	or	a, a
    00000F71 CArE0r1C         [10] 2785 	jp	Z,00261$
                                   2786 ;E:\Dropbox\FAUSTO\SVILUPPI\MSX\CODE\C\MSXgl\projects\exsoccer/exsoccer_s1_b2.c:450: g_MatchStatus == MATCH_PLAYERS_PRESENTATION || 
                                   2787 ;E:\Dropbox\FAUSTO\SVILUPPI\MSX\CODE\C\MSXgl\projects\exsoccer/exsoccer_s1_b2.c:451: g_MatchStatus == MATCH_AFTER_IN_GOAL || 
    00000F74 3Ar00r00         [13] 2788 	ld	a,(_g_MatchStatus+0)
    00000F77 FE 0B            [ 7] 2789 	cp	a,#0x0b
    00000F79 CArE0r1C         [10] 2790 	jp	Z,00261$
                                   2791 ;E:\Dropbox\FAUSTO\SVILUPPI\MSX\CODE\C\MSXgl\projects\exsoccer/exsoccer_s1_b2.c:452: g_MatchStatus == MATCH_BEFORE_CORNER_KICK || 
                                   2792 ;E:\Dropbox\FAUSTO\SVILUPPI\MSX\CODE\C\MSXgl\projects\exsoccer/exsoccer_s1_b2.c:453: g_MatchStatus == MATCH_BEFORE_GOAL_KICK || 
    00000F7C FE 06            [ 7] 2793 	cp	a,#0x06
    00000F7E CArE0r1C         [10] 2794 	jp	Z,00261$
    00000F81 FE 02            [ 7] 2795 	cp	a,#0x02
    00000F83 CArE0r1C         [10] 2796 	jp	Z,00261$
                                   2797 ;E:\Dropbox\FAUSTO\SVILUPPI\MSX\CODE\C\MSXgl\projects\exsoccer/exsoccer_s1_b2.c:454: g_MatchStatus == MATCH_BEFORE_THROW_IN ||
                                   2798 ;E:\Dropbox\FAUSTO\SVILUPPI\MSX\CODE\C\MSXgl\projects\exsoccer/exsoccer_s1_b2.c:455: g_MatchStatus == MATCH_BEFORE_OFFSIDE) {
    00000F86 FE 05            [ 7] 2799 	cp	a,#0x05
    00000F88 CArE0r1C         [10] 2800 	jp	Z,00261$
    00000F8B FE 03            [ 7] 2801 	cp	a,#0x03
    00000F8D CArE0r1C         [10] 2802 	jp	Z,00261$
    00000F90 D6 0E            [ 7] 2803 	sub	a, #0x0e
                                   2804 ;E:\Dropbox\FAUSTO\SVILUPPI\MSX\CODE\C\MSXgl\projects\exsoccer/exsoccer_s1_b2.c:456: return;
    00000F92 CArE0r1C         [10] 2805 	jp	Z,00261$
                                   2806 ;E:\Dropbox\FAUSTO\SVILUPPI\MSX\CODE\C\MSXgl\projects\exsoccer/exsoccer_s1_b2.c:460: if(teamId==TEAM_1){
    00000F95 DD 7E FF         [19] 2807 	ld	a, -1 (ix)
    00000F98 3D               [ 4] 2808 	dec	a
    00000F99 3E 01            [ 7] 2809 	ld	a, #0x01
    00000F9B 28 01            [12] 2810 	jr	Z, 00732$
    00000F9D AF               [ 4] 2811 	xor	a, a
    00000F9E                       2812 00732$:
    00000F9E DD 77 C3         [19] 2813 	ld	-61 (ix), a
    00000FA1 B7               [ 4] 2814 	or	a, a
    00000FA2 28 13            [12] 2815 	jr	Z, 00116$
                                   2816 ;E:\Dropbox\FAUSTO\SVILUPPI\MSX\CODE\C\MSXgl\projects\exsoccer/exsoccer_s1_b2.c:461: if(g_Team1ActivePlayer==NO_VALUE){
    00000FA4 3Ar00r00         [13] 2817 	ld	a, (_g_Team1ActivePlayer+0)
    00000FA7 3C               [ 4] 2818 	inc	a
    00000FA8 CArE0r1C         [10] 2819 	jp	Z,00261$
                                   2820 ;E:\Dropbox\FAUSTO\SVILUPPI\MSX\CODE\C\MSXgl\projects\exsoccer/exsoccer_s1_b2.c:462: return;
    00000FAB C3rAEr0F         [10] 2821 	jp	00110$
    00000FAE                       2822 00110$:
                                   2823 ;E:\Dropbox\FAUSTO\SVILUPPI\MSX\CODE\C\MSXgl\projects\exsoccer/exsoccer_s1_b2.c:465: playerId=g_Team1ActivePlayer;
    00000FAE 3Ar00r00         [13] 2824 	ld	a, (_g_Team1ActivePlayer+0)
    00000FB1 DD 77 FD         [19] 2825 	ld	-3 (ix), a
    00000FB4 C3rC7r0F         [10] 2826 	jp	00117$
    00000FB7                       2827 00116$:
                                   2828 ;E:\Dropbox\FAUSTO\SVILUPPI\MSX\CODE\C\MSXgl\projects\exsoccer/exsoccer_s1_b2.c:469: if(g_Team2ActivePlayer==NO_VALUE){
    00000FB7 3Ar00r00         [13] 2829 	ld	a, (_g_Team2ActivePlayer+0)
    00000FBA 3C               [ 4] 2830 	inc	a
    00000FBB CArE0r1C         [10] 2831 	jp	Z,00261$
                                   2832 ;E:\Dropbox\FAUSTO\SVILUPPI\MSX\CODE\C\MSXgl\projects\exsoccer/exsoccer_s1_b2.c:470: return;
    00000FBE C3rC1r0F         [10] 2833 	jp	00113$
    00000FC1                       2834 00113$:
                                   2835 ;E:\Dropbox\FAUSTO\SVILUPPI\MSX\CODE\C\MSXgl\projects\exsoccer/exsoccer_s1_b2.c:473: playerId=g_Team2ActivePlayer;
    00000FC1 3Ar00r00         [13] 2836 	ld	a, (_g_Team2ActivePlayer+0)
    00000FC4 DD 77 FD         [19] 2837 	ld	-3 (ix), a
    00000FC7                       2838 00117$:
                                   2839 ;E:\Dropbox\FAUSTO\SVILUPPI\MSX\CODE\C\MSXgl\projects\exsoccer/exsoccer_s1_b2.c:479: bool frameTriggerPressed = IsTeamJoystickTriggerPressed(teamId);
    00000FC7 DD 7E FF         [19] 2840 	ld	a, -1 (ix)
    00000FCA CDr00r00         [17] 2841 	call	_IsTeamJoystickTriggerPressed
    00000FCD DD 77 C4         [19] 2842 	ld	-60 (ix), a
                                   2843 ;E:\Dropbox\FAUSTO\SVILUPPI\MSX\CODE\C\MSXgl\projects\exsoccer/exsoccer_s1_b2.c:482: bool canSwitch = false;
    00000FD0 DD 36 FC 00      [19] 2844 	ld	-4 (ix), #0x00
                                   2845 ;E:\Dropbox\FAUSTO\SVILUPPI\MSX\CODE\C\MSXgl\projects\exsoccer/exsoccer_s1_b2.c:483: if (g_Ball.PossessionPlayerId == NO_VALUE) {
    00000FD4 3Ar06r00         [13] 2846 	ld	a, (#(_g_Ball + 6) + 0)
    00000FD7 FE FF            [ 7] 2847 	cp	a, #0xff
    00000FD9 20 07            [12] 2848 	jr	NZ, 00121$
                                   2849 ;E:\Dropbox\FAUSTO\SVILUPPI\MSX\CODE\C\MSXgl\projects\exsoccer/exsoccer_s1_b2.c:484: canSwitch = true; // Always allow switch on loose ball
    00000FDB DD 36 FC 01      [19] 2850 	ld	-4 (ix), #0x01
    00000FDF C3rFFr0F         [10] 2851 	jp	00122$
    00000FE2                       2852 00121$:
                                   2853 ;E:\Dropbox\FAUSTO\SVILUPPI\MSX\CODE\C\MSXgl\projects\exsoccer/exsoccer_s1_b2.c:486: u8 ballOwner = g_Ball.PossessionPlayerId;
    00000FE2 5F               [ 4] 2854 	ld	e, a
                                   2855 ;E:\Dropbox\FAUSTO\SVILUPPI\MSX\CODE\C\MSXgl\projects\exsoccer/exsoccer_s1_b2.c:487: if (g_Players[ballOwner].TeamId != teamId) {
    00000FE3 01r00r00         [10] 2856 	ld	bc, #_g_Players+0
    00000FE6 16 00            [ 7] 2857 	ld	d, #0x00
    00000FE8 6B               [ 4] 2858 	ld	l, e
    00000FE9 62               [ 4] 2859 	ld	h, d
    00000FEA 29               [11] 2860 	add	hl, hl
    00000FEB 29               [11] 2861 	add	hl, hl
    00000FEC 19               [11] 2862 	add	hl, de
    00000FED 29               [11] 2863 	add	hl, hl
    00000FEE 29               [11] 2864 	add	hl, hl
    00000FEF 19               [11] 2865 	add	hl, de
    00000FF0 09               [11] 2866 	add	hl, bc
    00000FF1 11 09 00         [10] 2867 	ld	de, #0x0009
    00000FF4 19               [11] 2868 	add	hl, de
    00000FF5 DD 7E FF         [19] 2869 	ld	a,-1 (ix)
    00000FF8 96               [ 7] 2870 	sub	a,(hl)
    00000FF9 28 04            [12] 2871 	jr	Z, 00122$
                                   2872 ;E:\Dropbox\FAUSTO\SVILUPPI\MSX\CODE\C\MSXgl\projects\exsoccer/exsoccer_s1_b2.c:488: canSwitch = true;
    00000FFB DD 36 FC 01      [19] 2873 	ld	-4 (ix), #0x01
    00000FFF                       2874 00122$:
                                   2875 ;E:\Dropbox\FAUSTO\SVILUPPI\MSX\CODE\C\MSXgl\projects\exsoccer/exsoccer_s1_b2.c:492: if (canSwitch) {
    00000FFF DD 7E FC         [19] 2876 	ld	a, -4 (ix)
    00001002 B7               [ 4] 2877 	or	a, a
    00001003 CAr0Cr12         [10] 2878 	jp	Z, 00144$
                                   2879 ;E:\Dropbox\FAUSTO\SVILUPPI\MSX\CODE\C\MSXgl\projects\exsoccer/exsoccer_s1_b2.c:495: bool forceSwitch = frameTriggerPressed;
    00001006 DD 7E C4         [19] 2880 	ld	a, -60 (ix)
    00001009 DD 77 F8         [19] 2881 	ld	-8 (ix), a
                                   2882 ;E:\Dropbox\FAUSTO\SVILUPPI\MSX\CODE\C\MSXgl\projects\exsoccer/exsoccer_s1_b2.c:499: bool inputActive = (direction != DIRECTION_NONE);
    0000100C DD 7E FE         [19] 2883 	ld	a, -2 (ix)
    0000100F D6 01            [ 7] 2884 	sub	a,#0x01
    00001011 3E 00            [ 7] 2885 	ld	a, #0x00
    00001013 17               [ 4] 2886 	rla
    00001014 DD 77 FC         [19] 2887 	ld	-4 (ix), a
    00001017 EE 01            [ 7] 2888 	xor	a, #0x01
    00001019 DD 77 FC         [19] 2889 	ld	-4 (ix), a
                                   2890 ;E:\Dropbox\FAUSTO\SVILUPPI\MSX\CODE\C\MSXgl\projects\exsoccer/exsoccer_s1_b2.c:501: if (!inputActive || forceSwitch) {
    0000101C B7               [ 4] 2891 	or	a, a
    0000101D 28 07            [12] 2892 	jr	Z, 00140$
    0000101F DD 7E C4         [19] 2893 	ld	a, -60 (ix)
    00001022 B7               [ 4] 2894 	or	a, a
    00001023 CAr0Cr12         [10] 2895 	jp	Z, 00144$
    00001026                       2896 00140$:
                                   2897 ;E:\Dropbox\FAUSTO\SVILUPPI\MSX\CODE\C\MSXgl\projects\exsoccer/exsoccer_s1_b2.c:503: u8 closestId = GetClosestPlayerToBall(teamId, NO_VALUE);
    00001026 2E FF            [ 7] 2898 	ld	l, #0xff
                                   2899 ;	spillPairReg hl
                                   2900 ;	spillPairReg hl
    00001028 DD 7E FF         [19] 2901 	ld	a, -1 (ix)
    0000102B CDr00r00         [17] 2902 	call	_GetClosestPlayerToBall
                                   2903 ;E:\Dropbox\FAUSTO\SVILUPPI\MSX\CODE\C\MSXgl\projects\exsoccer/exsoccer_s1_b2.c:506: if (closestId != NO_VALUE && g_Players[closestId].Role == PLAYER_ROLE_GOALKEEPER) {
    0000102E DD 77 F5         [19] 2904 	ld	-11 (ix), a
    00001031 3C               [ 4] 2905 	inc	a
    00001032 28 3D            [12] 2906 	jr	Z, 00124$
    00001034 DD 4E F5         [19] 2907 	ld	c, -11 (ix)
    00001037 06 00            [ 7] 2908 	ld	b, #0x00
    00001039 69               [ 4] 2909 	ld	l, c
    0000103A 60               [ 4] 2910 	ld	h, b
    0000103B 29               [11] 2911 	add	hl, hl
    0000103C 29               [11] 2912 	add	hl, hl
    0000103D 09               [11] 2913 	add	hl, bc
    0000103E 29               [11] 2914 	add	hl, hl
    0000103F 29               [11] 2915 	add	hl, hl
    00001040 09               [11] 2916 	add	hl, bc
    00001041 DD 75 F9         [19] 2917 	ld	-7 (ix), l
    00001044 DD 74 FA         [19] 2918 	ld	-6 (ix), h
    00001047 3Er00            [ 7] 2919 	ld	a, #<(_g_Players)
    00001049 DD 86 F9         [19] 2920 	add	a, -7 (ix)
    0000104C DD 77 FB         [19] 2921 	ld	-5 (ix), a
    0000104F 3Es00            [ 7] 2922 	ld	a, #>(_g_Players)
    00001051 DD 8E FA         [19] 2923 	adc	a, -6 (ix)
    00001054 DD 77 FC         [19] 2924 	ld	-4 (ix), a
    00001057 DD 6E FB         [19] 2925 	ld	l, -5 (ix)
    0000105A DD 66 FC         [19] 2926 	ld	h, -4 (ix)
    0000105D 11 0D 00         [10] 2927 	ld	de, #0x000d
    00001060 19               [11] 2928 	add	hl, de
    00001061 7E               [ 7] 2929 	ld	a, (hl)
    00001062 B7               [ 4] 2930 	or	a, a
    00001063 20 0C            [12] 2931 	jr	NZ, 00124$
                                   2932 ;E:\Dropbox\FAUSTO\SVILUPPI\MSX\CODE\C\MSXgl\projects\exsoccer/exsoccer_s1_b2.c:508: closestId = GetClosestPlayerToBall(teamId, closestId);
    00001065 DD 6E F5         [19] 2933 	ld	l, -11 (ix)
                                   2934 ;	spillPairReg hl
                                   2935 ;	spillPairReg hl
    00001068 DD 7E FF         [19] 2936 	ld	a, -1 (ix)
    0000106B CDr00r00         [17] 2937 	call	_GetClosestPlayerToBall
    0000106E DD 77 F5         [19] 2938 	ld	-11 (ix), a
    00001071                       2939 00124$:
                                   2940 ;E:\Dropbox\FAUSTO\SVILUPPI\MSX\CODE\C\MSXgl\projects\exsoccer/exsoccer_s1_b2.c:511: if (closestId != playerId && closestId != NO_VALUE) {
    00001071 DD 7E F5         [19] 2941 	ld	a, -11 (ix)
    00001074 DD 96 FD         [19] 2942 	sub	a, -3 (ix)
    00001077 CAr0Cr12         [10] 2943 	jp	Z,00144$
    0000107A DD 7E F5         [19] 2944 	ld	a, -11 (ix)
    0000107D 3C               [ 4] 2945 	inc	a
    0000107E CAr0Cr12         [10] 2946 	jp	Z,00144$
                                   2947 ;E:\Dropbox\FAUSTO\SVILUPPI\MSX\CODE\C\MSXgl\projects\exsoccer/exsoccer_s1_b2.c:513: if (forceSwitch) {
    00001081 DD 7E F8         [19] 2948 	ld	a, -8 (ix)
    00001084 B7               [ 4] 2949 	or	a, a
    00001085 28 22            [12] 2950 	jr	Z, 00135$
                                   2951 ;E:\Dropbox\FAUSTO\SVILUPPI\MSX\CODE\C\MSXgl\projects\exsoccer/exsoccer_s1_b2.c:515: if (teamId == TEAM_1) g_Team1ActivePlayer = closestId;
    00001087 DD 7E C3         [19] 2952 	ld	a, -61 (ix)
    0000108A B7               [ 4] 2953 	or	a, a
    0000108B 28 09            [12] 2954 	jr	Z, 00127$
    0000108D DD 7E F5         [19] 2955 	ld	a, -11 (ix)
    00001090 32r00r00         [13] 2956 	ld	(_g_Team1ActivePlayer+0), a
    00001093 C3r9Cr10         [10] 2957 	jp	00128$
    00001096                       2958 00127$:
                                   2959 ;E:\Dropbox\FAUSTO\SVILUPPI\MSX\CODE\C\MSXgl\projects\exsoccer/exsoccer_s1_b2.c:516: else g_Team2ActivePlayer = closestId;
    00001096 DD 7E F5         [19] 2960 	ld	a, -11 (ix)
    00001099 32r00r00         [13] 2961 	ld	(_g_Team2ActivePlayer+0), a
    0000109C                       2962 00128$:
                                   2963 ;E:\Dropbox\FAUSTO\SVILUPPI\MSX\CODE\C\MSXgl\projects\exsoccer/exsoccer_s1_b2.c:517: playerId = closestId; 
    0000109C DD 7E F5         [19] 2964 	ld	a, -11 (ix)
    0000109F DD 77 FD         [19] 2965 	ld	-3 (ix), a
                                   2966 ;E:\Dropbox\FAUSTO\SVILUPPI\MSX\CODE\C\MSXgl\projects\exsoccer/exsoccer_s1_b2.c:520: frameTriggerPressed = false;
    000010A2 DD 36 C4 00      [19] 2967 	ld	-60 (ix), #0x00
    000010A6 C3r0Cr12         [10] 2968 	jp	00144$
    000010A9                       2969 00135$:
                                   2970 ;E:\Dropbox\FAUSTO\SVILUPPI\MSX\CODE\C\MSXgl\projects\exsoccer/exsoccer_s1_b2.c:525: u8 histThreshold = (g_Ball.PossessionPlayerId == NO_VALUE) ? 10 : 30;
    000010A9 3Ar06r00         [13] 2971 	ld	a, (#(_g_Ball + 6) + 0)
    000010AC 3C               [ 4] 2972 	inc	a
    000010AD 20 0B            [12] 2973 	jr	NZ, 00263$
    000010AF DD 36 FB 0A      [19] 2974 	ld	-5 (ix), #0x0a
    000010B3 DD 36 FC 00      [19] 2975 	ld	-4 (ix), #0
    000010B7 C3rC2r10         [10] 2976 	jp	00264$
    000010BA                       2977 00263$:
    000010BA DD 36 FB 1E      [19] 2978 	ld	-5 (ix), #0x1e
    000010BE DD 36 FC 00      [19] 2979 	ld	-4 (ix), #0
    000010C2                       2980 00264$:
    000010C2 DD 7E FB         [19] 2981 	ld	a, -5 (ix)
    000010C5 DD 77 F6         [19] 2982 	ld	-10 (ix), a
                                   2983 ;E:\Dropbox\FAUSTO\SVILUPPI\MSX\CODE\C\MSXgl\projects\exsoccer/exsoccer_s1_b2.c:528: u16 distX_Curr = (g_Players[playerId].X > g_Ball.X) ? (g_Players[playerId].X - g_Ball.X) : (g_Ball.X - g_Players[playerId].X);
    000010C8 DD 4E FD         [19] 2984 	ld	c, -3 (ix)
    000010CB 06 00            [ 7] 2985 	ld	b, #0x00
    000010CD 69               [ 4] 2986 	ld	l, c
    000010CE 60               [ 4] 2987 	ld	h, b
    000010CF 29               [11] 2988 	add	hl, hl
    000010D0 29               [11] 2989 	add	hl, hl
    000010D1 09               [11] 2990 	add	hl, bc
    000010D2 29               [11] 2991 	add	hl, hl
    000010D3 29               [11] 2992 	add	hl, hl
    000010D4 09               [11] 2993 	add	hl, bc
    000010D5 DD 75 FB         [19] 2994 	ld	-5 (ix), l
    000010D8 DD 74 FC         [19] 2995 	ld	-4 (ix), h
    000010DB 3Er00            [ 7] 2996 	ld	a, #<(_g_Players)
    000010DD DD 86 FB         [19] 2997 	add	a, -5 (ix)
    000010E0 DD 77 F7         [19] 2998 	ld	-9 (ix), a
    000010E3 3Es00            [ 7] 2999 	ld	a, #>(_g_Players)
    000010E5 DD 8E FC         [19] 3000 	adc	a, -4 (ix)
    000010E8 DD 77 F8         [19] 3001 	ld	-8 (ix), a
    000010EB DD 7E F7         [19] 3002 	ld	a, -9 (ix)
    000010EE DD 77 FB         [19] 3003 	ld	-5 (ix), a
    000010F1 DD 7E F8         [19] 3004 	ld	a, -8 (ix)
    000010F4 DD 77 FC         [19] 3005 	ld	-4 (ix), a
    000010F7 DD 6E FB         [19] 3006 	ld	l, -5 (ix)
    000010FA DD 66 FC         [19] 3007 	ld	h, -4 (ix)
    000010FD 23               [ 6] 3008 	inc	hl
    000010FE 23               [ 6] 3009 	inc	hl
    000010FF 7E               [ 7] 3010 	ld	a, (hl)
    00001100 DD 77 F3         [19] 3011 	ld	-13 (ix), a
    00001103 23               [ 6] 3012 	inc	hl
    00001104 7E               [ 7] 3013 	ld	a, (hl)
    00001105 DD 77 F4         [19] 3014 	ld	-12 (ix), a
    00001108 21r02r00         [10] 3015 	ld	hl, #_g_Ball + 2
    0000110B 7E               [ 7] 3016 	ld	a, (hl)
    0000110C DD 77 F9         [19] 3017 	ld	-7 (ix), a
    0000110F 23               [ 6] 3018 	inc	hl
    00001110 7E               [ 7] 3019 	ld	a, (hl)
    00001111 DD 77 FA         [19] 3020 	ld	-6 (ix), a
    00001114 DD 7E F9         [19] 3021 	ld	a, -7 (ix)
    00001117 DD 96 F3         [19] 3022 	sub	a, -13 (ix)
    0000111A DD 7E FA         [19] 3023 	ld	a, -6 (ix)
    0000111D DD 9E F4         [19] 3024 	sbc	a, -12 (ix)
    00001120 30 15            [12] 3025 	jr	NC, 00265$
    00001122 DD 7E F3         [19] 3026 	ld	a, -13 (ix)
    00001125 DD 96 F9         [19] 3027 	sub	a, -7 (ix)
    00001128 DD 77 FB         [19] 3028 	ld	-5 (ix), a
    0000112B DD 7E F4         [19] 3029 	ld	a, -12 (ix)
    0000112E DD 9E FA         [19] 3030 	sbc	a, -6 (ix)
    00001131 DD 77 FC         [19] 3031 	ld	-4 (ix), a
    00001134 C3r49r11         [10] 3032 	jp	00266$
    00001137                       3033 00265$:
    00001137 DD 7E F9         [19] 3034 	ld	a, -7 (ix)
    0000113A DD 96 F3         [19] 3035 	sub	a, -13 (ix)
    0000113D DD 77 FB         [19] 3036 	ld	-5 (ix), a
    00001140 DD 7E FA         [19] 3037 	ld	a, -6 (ix)
    00001143 DD 9E F4         [19] 3038 	sbc	a, -12 (ix)
    00001146 DD 77 FC         [19] 3039 	ld	-4 (ix), a
    00001149                       3040 00266$:
                                   3041 ;E:\Dropbox\FAUSTO\SVILUPPI\MSX\CODE\C\MSXgl\projects\exsoccer/exsoccer_s1_b2.c:529: u16 distY_Curr = (g_Players[playerId].Y > g_Ball.Y) ? (g_Players[playerId].Y - g_Ball.Y) : (g_Ball.Y - g_Players[playerId].Y);
    00001149 DD 6E F7         [19] 3042 	ld	l, -9 (ix)
    0000114C DD 66 F8         [19] 3043 	ld	h, -8 (ix)
    0000114F 4E               [ 7] 3044 	ld	c, (hl)
    00001150 23               [ 6] 3045 	inc	hl
    00001151 46               [ 7] 3046 	ld	b, (hl)
    00001152 ED 5Br00r00      [20] 3047 	ld	de, (#_g_Ball + 0)
    00001156 7B               [ 4] 3048 	ld	a, e
    00001157 91               [ 4] 3049 	sub	a, c
    00001158 7A               [ 4] 3050 	ld	a, d
    00001159 98               [ 4] 3051 	sbc	a, b
    0000115A 30 08            [12] 3052 	jr	NC, 00267$
    0000115C 79               [ 4] 3053 	ld	a, c
    0000115D 93               [ 4] 3054 	sub	a, e
    0000115E 4F               [ 4] 3055 	ld	c, a
    0000115F 78               [ 4] 3056 	ld	a, b
    00001160 9A               [ 4] 3057 	sbc	a, d
    00001161 C3r69r11         [10] 3058 	jp	00268$
    00001164                       3059 00267$:
    00001164 7B               [ 4] 3060 	ld	a, e
    00001165 91               [ 4] 3061 	sub	a, c
    00001166 4F               [ 4] 3062 	ld	c, a
    00001167 7A               [ 4] 3063 	ld	a, d
    00001168 98               [ 4] 3064 	sbc	a, b
    00001169                       3065 00268$:
    00001169 47               [ 4] 3066 	ld	b, a
                                   3067 ;E:\Dropbox\FAUSTO\SVILUPPI\MSX\CODE\C\MSXgl\projects\exsoccer/exsoccer_s1_b2.c:530: u16 distCurr = distX_Curr + distY_Curr;
    0000116A DD 6E FB         [19] 3068 	ld	l, -5 (ix)
    0000116D DD 66 FC         [19] 3069 	ld	h, -4 (ix)
    00001170 09               [11] 3070 	add	hl, bc
    00001171 DD 75 F7         [19] 3071 	ld	-9 (ix), l
    00001174 DD 74 F8         [19] 3072 	ld	-8 (ix), h
                                   3073 ;E:\Dropbox\FAUSTO\SVILUPPI\MSX\CODE\C\MSXgl\projects\exsoccer/exsoccer_s1_b2.c:532: u16 distX_New = (g_Players[closestId].X > g_Ball.X) ? (g_Players[closestId].X - g_Ball.X) : (g_Ball.X - g_Players[closestId].X);
    00001177 DD 4E F5         [19] 3074 	ld	c, -11 (ix)
    0000117A 06 00            [ 7] 3075 	ld	b, #0x00
    0000117C 69               [ 4] 3076 	ld	l, c
    0000117D 60               [ 4] 3077 	ld	h, b
    0000117E 29               [11] 3078 	add	hl, hl
    0000117F 29               [11] 3079 	add	hl, hl
    00001180 09               [11] 3080 	add	hl, bc
    00001181 29               [11] 3081 	add	hl, hl
    00001182 29               [11] 3082 	add	hl, hl
    00001183 09               [11] 3083 	add	hl, bc
    00001184 01r00r00         [10] 3084 	ld	bc,#_g_Players
    00001187 09               [11] 3085 	add	hl,bc
                                   3086 ;	spillPairReg hl
                                   3087 ;	spillPairReg hl
    00001188 DD 75 FB         [19] 3088 	ld	-5 (ix), l
    0000118B DD 74 FC         [19] 3089 	ld	-4 (ix), h
                                   3090 ;	spillPairReg hl
                                   3091 ;	spillPairReg hl
    0000118E 23               [ 6] 3092 	inc	hl
    0000118F 23               [ 6] 3093 	inc	hl
    00001190 4E               [ 7] 3094 	ld	c, (hl)
    00001191 23               [ 6] 3095 	inc	hl
    00001192 46               [ 7] 3096 	ld	b, (hl)
    00001193 DD 7E F9         [19] 3097 	ld	a, -7 (ix)
    00001196 91               [ 4] 3098 	sub	a, c
    00001197 DD 7E FA         [19] 3099 	ld	a, -6 (ix)
    0000119A 98               [ 4] 3100 	sbc	a, b
    0000119B 30 0C            [12] 3101 	jr	NC, 00269$
    0000119D 79               [ 4] 3102 	ld	a, c
    0000119E DD 96 F9         [19] 3103 	sub	a, -7 (ix)
    000011A1 4F               [ 4] 3104 	ld	c, a
    000011A2 78               [ 4] 3105 	ld	a, b
    000011A3 DD 9E FA         [19] 3106 	sbc	a, -6 (ix)
    000011A6 C3rB2r11         [10] 3107 	jp	00270$
    000011A9                       3108 00269$:
    000011A9 DD 7E F9         [19] 3109 	ld	a, -7 (ix)
    000011AC 91               [ 4] 3110 	sub	a, c
    000011AD 4F               [ 4] 3111 	ld	c, a
    000011AE DD 7E FA         [19] 3112 	ld	a, -6 (ix)
    000011B1 98               [ 4] 3113 	sbc	a, b
    000011B2                       3114 00270$:
    000011B2 DD 71 F9         [19] 3115 	ld	-7 (ix), c
    000011B5 DD 77 FA         [19] 3116 	ld	-6 (ix), a
                                   3117 ;E:\Dropbox\FAUSTO\SVILUPPI\MSX\CODE\C\MSXgl\projects\exsoccer/exsoccer_s1_b2.c:533: u16 distY_New = (g_Players[closestId].Y > g_Ball.Y) ? (g_Players[closestId].Y - g_Ball.Y) : (g_Ball.Y - g_Players[closestId].Y);
    000011B8 DD 6E FB         [19] 3118 	ld	l, -5 (ix)
    000011BB DD 66 FC         [19] 3119 	ld	h, -4 (ix)
    000011BE 4E               [ 7] 3120 	ld	c, (hl)
    000011BF 23               [ 6] 3121 	inc	hl
    000011C0 46               [ 7] 3122 	ld	b, (hl)
    000011C1 7B               [ 4] 3123 	ld	a, e
    000011C2 91               [ 4] 3124 	sub	a, c
    000011C3 7A               [ 4] 3125 	ld	a, d
    000011C4 98               [ 4] 3126 	sbc	a, b
    000011C5 30 08            [12] 3127 	jr	NC, 00271$
    000011C7 79               [ 4] 3128 	ld	a, c
    000011C8 93               [ 4] 3129 	sub	a, e
    000011C9 4F               [ 4] 3130 	ld	c, a
    000011CA 78               [ 4] 3131 	ld	a, b
    000011CB 9A               [ 4] 3132 	sbc	a, d
    000011CC C3rD4r11         [10] 3133 	jp	00272$
    000011CF                       3134 00271$:
    000011CF 7B               [ 4] 3135 	ld	a, e
    000011D0 91               [ 4] 3136 	sub	a, c
    000011D1 4F               [ 4] 3137 	ld	c, a
    000011D2 7A               [ 4] 3138 	ld	a, d
    000011D3 98               [ 4] 3139 	sbc	a, b
    000011D4                       3140 00272$:
    000011D4 47               [ 4] 3141 	ld	b, a
                                   3142 ;E:\Dropbox\FAUSTO\SVILUPPI\MSX\CODE\C\MSXgl\projects\exsoccer/exsoccer_s1_b2.c:534: u16 distNew = distX_New + distY_New;
    000011D5 DD 6E F9         [19] 3143 	ld	l, -7 (ix)
    000011D8 DD 66 FA         [19] 3144 	ld	h, -6 (ix)
    000011DB 09               [11] 3145 	add	hl, bc
    000011DC EB               [ 4] 3146 	ex	de, hl
                                   3147 ;E:\Dropbox\FAUSTO\SVILUPPI\MSX\CODE\C\MSXgl\projects\exsoccer/exsoccer_s1_b2.c:536: if (distNew < (distCurr - histThreshold)) {
    000011DD DD 4E F6         [19] 3148 	ld	c, -10 (ix)
    000011E0 06 00            [ 7] 3149 	ld	b, #0x00
    000011E2 DD 6E F7         [19] 3150 	ld	l, -9 (ix)
                                   3151 ;	spillPairReg hl
                                   3152 ;	spillPairReg hl
    000011E5 DD 66 F8         [19] 3153 	ld	h, -8 (ix)
                                   3154 ;	spillPairReg hl
                                   3155 ;	spillPairReg hl
    000011E8 BF               [ 4] 3156 	cp	a, a
    000011E9 ED 42            [15] 3157 	sbc	hl, bc
    000011EB 7B               [ 4] 3158 	ld	a, e
    000011EC 95               [ 4] 3159 	sub	a, l
    000011ED 7A               [ 4] 3160 	ld	a, d
    000011EE 9C               [ 4] 3161 	sbc	a, h
    000011EF 30 1B            [12] 3162 	jr	NC, 00144$
                                   3163 ;E:\Dropbox\FAUSTO\SVILUPPI\MSX\CODE\C\MSXgl\projects\exsoccer/exsoccer_s1_b2.c:537: if (teamId == TEAM_1) g_Team1ActivePlayer = closestId;
    000011F1 DD 7E C3         [19] 3164 	ld	a, -61 (ix)
    000011F4 B7               [ 4] 3165 	or	a, a
    000011F5 28 09            [12] 3166 	jr	Z, 00130$
    000011F7 DD 7E F5         [19] 3167 	ld	a, -11 (ix)
    000011FA 32r00r00         [13] 3168 	ld	(_g_Team1ActivePlayer+0), a
    000011FD C3r06r12         [10] 3169 	jp	00131$
    00001200                       3170 00130$:
                                   3171 ;E:\Dropbox\FAUSTO\SVILUPPI\MSX\CODE\C\MSXgl\projects\exsoccer/exsoccer_s1_b2.c:538: else g_Team2ActivePlayer = closestId;
    00001200 DD 7E F5         [19] 3172 	ld	a, -11 (ix)
    00001203 32r00r00         [13] 3173 	ld	(_g_Team2ActivePlayer+0), a
    00001206                       3174 00131$:
                                   3175 ;E:\Dropbox\FAUSTO\SVILUPPI\MSX\CODE\C\MSXgl\projects\exsoccer/exsoccer_s1_b2.c:539: playerId = closestId;
    00001206 DD 7E F5         [19] 3176 	ld	a, -11 (ix)
    00001209 DD 77 FD         [19] 3177 	ld	-3 (ix), a
    0000120C                       3178 00144$:
                                   3179 ;E:\Dropbox\FAUSTO\SVILUPPI\MSX\CODE\C\MSXgl\projects\exsoccer/exsoccer_s1_b2.c:546: if (g_Players[playerId].Status == PLAYER_STATUS_POSITIONED) return;
    0000120C 01r00r00         [10] 3180 	ld	bc, #_g_Players+0
    0000120F DD 5E FD         [19] 3181 	ld	e, -3 (ix)
    00001212 16 00            [ 7] 3182 	ld	d, #0x00
    00001214 6B               [ 4] 3183 	ld	l, e
    00001215 62               [ 4] 3184 	ld	h, d
    00001216 29               [11] 3185 	add	hl, hl
    00001217 29               [11] 3186 	add	hl, hl
    00001218 19               [11] 3187 	add	hl, de
    00001219 29               [11] 3188 	add	hl, hl
    0000121A 29               [11] 3189 	add	hl, hl
    0000121B 19               [11] 3190 	add	hl, de
    0000121C 09               [11] 3191 	add	hl, bc
    0000121D DD 75 F1         [19] 3192 	ld	-15 (ix), l
    00001220 DD 74 F2         [19] 3193 	ld	-14 (ix), h
    00001223 DD 7E F1         [19] 3194 	ld	a, -15 (ix)
    00001226 C6 12            [ 7] 3195 	add	a, #0x12
    00001228 DD 77 F3         [19] 3196 	ld	-13 (ix), a
    0000122B DD 7E F2         [19] 3197 	ld	a, -14 (ix)
    0000122E CE 00            [ 7] 3198 	adc	a, #0x00
    00001230 DD 77 F4         [19] 3199 	ld	-12 (ix), a
    00001233 DD 6E F3         [19] 3200 	ld	l, -13 (ix)
    00001236 DD 66 F4         [19] 3201 	ld	h, -12 (ix)
    00001239 4E               [ 7] 3202 	ld	c, (hl)
    0000123A 23               [ 6] 3203 	inc	hl
    0000123B 46               [ 7] 3204 	ld	b, (hl)
    0000123C 79               [ 4] 3205 	ld	a, c
    0000123D D6 04            [ 7] 3206 	sub	a, #0x04
    0000123F B0               [ 4] 3207 	or	a, b
    00001240 CArE0r1C         [10] 3208 	jp	Z,00261$
    00001243 C3r46r12         [10] 3209 	jp	00146$
    00001246                       3210 00146$:
                                   3211 ;E:\Dropbox\FAUSTO\SVILUPPI\MSX\CODE\C\MSXgl\projects\exsoccer/exsoccer_s1_b2.c:553: if (g_ActionCooldown > 0) frameTriggerPressed = false;
    00001246 3Ar00r00         [13] 3212 	ld	a, (_g_ActionCooldown+0)
    00001249 B7               [ 4] 3213 	or	a, a
    0000124A 28 04            [12] 3214 	jr	Z, 00148$
    0000124C DD 36 C4 00      [19] 3215 	ld	-60 (ix), #0x00
    00001250                       3216 00148$:
                                   3217 ;E:\Dropbox\FAUSTO\SVILUPPI\MSX\CODE\C\MSXgl\projects\exsoccer/exsoccer_s1_b2.c:556: if (frameTriggerPressed && g_Ball.PossessionPlayerId == NO_VALUE) {
    00001250 DD 7E C4         [19] 3218 	ld	a, -60 (ix)
    00001253 B7               [ 4] 3219 	or	a, a
    00001254 CAr1Ar13         [10] 3220 	jp	Z, 00155$
    00001257 3Ar06r00         [13] 3221 	ld	a, (#(_g_Ball + 6) + 0)
    0000125A 3C               [ 4] 3222 	inc	a
    0000125B C2r1Ar13         [10] 3223 	jp	NZ,00155$
                                   3224 ;E:\Dropbox\FAUSTO\SVILUPPI\MSX\CODE\C\MSXgl\projects\exsoccer/exsoccer_s1_b2.c:557: i16 dx = (i16)g_Players[playerId].X - (i16)g_Ball.X;
    0000125E DD 7E F1         [19] 3225 	ld	a, -15 (ix)
    00001261 DD 77 FB         [19] 3226 	ld	-5 (ix), a
    00001264 DD 7E F2         [19] 3227 	ld	a, -14 (ix)
    00001267 DD 77 FC         [19] 3228 	ld	-4 (ix), a
    0000126A DD 6E FB         [19] 3229 	ld	l, -5 (ix)
    0000126D DD 66 FC         [19] 3230 	ld	h, -4 (ix)
    00001270 23               [ 6] 3231 	inc	hl
    00001271 23               [ 6] 3232 	inc	hl
    00001272 7E               [ 7] 3233 	ld	a, (hl)
    00001273 DD 77 FB         [19] 3234 	ld	-5 (ix), a
    00001276 23               [ 6] 3235 	inc	hl
    00001277 7E               [ 7] 3236 	ld	a, (hl)
    00001278 DD 77 FC         [19] 3237 	ld	-4 (ix), a
    0000127B 2Ar02r00         [16] 3238 	ld	hl, (#_g_Ball + 2)
    0000127E DD 7E FB         [19] 3239 	ld	a, -5 (ix)
    00001281 95               [ 4] 3240 	sub	a, l
    00001282 4F               [ 4] 3241 	ld	c, a
    00001283 DD 7E FC         [19] 3242 	ld	a, -4 (ix)
    00001286 9C               [ 4] 3243 	sbc	a, h
    00001287 47               [ 4] 3244 	ld	b, a
    00001288 DD 71 F5         [19] 3245 	ld	-11 (ix), c
    0000128B DD 70 F6         [19] 3246 	ld	-10 (ix), b
                                   3247 ;E:\Dropbox\FAUSTO\SVILUPPI\MSX\CODE\C\MSXgl\projects\exsoccer/exsoccer_s1_b2.c:558: i16 dy = (i16)g_Players[playerId].Y - (i16)g_Ball.Y;
    0000128E DD 6E F1         [19] 3248 	ld	l, -15 (ix)
    00001291 DD 66 F2         [19] 3249 	ld	h, -14 (ix)
    00001294 7E               [ 7] 3250 	ld	a, (hl)
    00001295 DD 77 FB         [19] 3251 	ld	-5 (ix), a
    00001298 23               [ 6] 3252 	inc	hl
    00001299 7E               [ 7] 3253 	ld	a, (hl)
    0000129A DD 77 FC         [19] 3254 	ld	-4 (ix), a
    0000129D DD 7E FB         [19] 3255 	ld	a, -5 (ix)
    000012A0 DD 77 F7         [19] 3256 	ld	-9 (ix), a
    000012A3 DD 7E FC         [19] 3257 	ld	a, -4 (ix)
    000012A6 DD 77 F8         [19] 3258 	ld	-8 (ix), a
    000012A9 21r00r00         [10] 3259 	ld	hl, #_g_Ball
    000012AC 7E               [ 7] 3260 	ld	a, (hl)
    000012AD DD 77 FB         [19] 3261 	ld	-5 (ix), a
    000012B0 23               [ 6] 3262 	inc	hl
    000012B1 7E               [ 7] 3263 	ld	a, (hl)
    000012B2 DD 77 FC         [19] 3264 	ld	-4 (ix), a
    000012B5 DD 7E FB         [19] 3265 	ld	a, -5 (ix)
    000012B8 DD 77 F9         [19] 3266 	ld	-7 (ix), a
    000012BB DD 7E FC         [19] 3267 	ld	a, -4 (ix)
    000012BE DD 77 FA         [19] 3268 	ld	-6 (ix), a
    000012C1 DD 7E F7         [19] 3269 	ld	a, -9 (ix)
    000012C4 DD 96 F9         [19] 3270 	sub	a, -7 (ix)
    000012C7 DD 77 FB         [19] 3271 	ld	-5 (ix), a
    000012CA DD 7E F8         [19] 3272 	ld	a, -8 (ix)
    000012CD DD 9E FA         [19] 3273 	sbc	a, -6 (ix)
    000012D0 DD 77 FC         [19] 3274 	ld	-4 (ix), a
    000012D3 DD 4E FB         [19] 3275 	ld	c, -5 (ix)
    000012D6 DD 46 FC         [19] 3276 	ld	b, -4 (ix)
                                   3277 ;E:\Dropbox\FAUSTO\SVILUPPI\MSX\CODE\C\MSXgl\projects\exsoccer/exsoccer_s1_b2.c:559: if (dx > -16 && dx < 16 && dy > -16 && dy < 16) {
    000012D9 3E F0            [ 7] 3278 	ld	a, #0xf0
    000012DB DD BE F5         [19] 3279 	cp	a, -11 (ix)
    000012DE 3E FF            [ 7] 3280 	ld	a, #0xff
    000012E0 DD 9E F6         [19] 3281 	sbc	a, -10 (ix)
    000012E3 E2rE8r12         [10] 3282 	jp	PO, 00749$
    000012E6 EE 80            [ 7] 3283 	xor	a, #0x80
    000012E8                       3284 00749$:
    000012E8 F2r1Ar13         [10] 3285 	jp	P, 00155$
    000012EB DD 7E F5         [19] 3286 	ld	a, -11 (ix)
    000012EE DD 56 F6         [19] 3287 	ld	d, -10 (ix)
    000012F1 D6 10            [ 7] 3288 	sub	a, #0x10
    000012F3 7A               [ 4] 3289 	ld	a, d
    000012F4 17               [ 4] 3290 	rla
    000012F5 3F               [ 4] 3291 	ccf
    000012F6 1F               [ 4] 3292 	rra
    000012F7 DE 80            [ 7] 3293 	sbc	a, #0x80
    000012F9 30 1F            [12] 3294 	jr	NC, 00155$
    000012FB 3E F0            [ 7] 3295 	ld	a, #0xf0
    000012FD B9               [ 4] 3296 	cp	a, c
    000012FE 3E FF            [ 7] 3297 	ld	a, #0xff
    00001300 98               [ 4] 3298 	sbc	a, b
    00001301 E2r06r13         [10] 3299 	jp	PO, 00750$
    00001304 EE 80            [ 7] 3300 	xor	a, #0x80
    00001306                       3301 00750$:
    00001306 F2r1Ar13         [10] 3302 	jp	P, 00155$
    00001309 79               [ 4] 3303 	ld	a, c
    0000130A D6 10            [ 7] 3304 	sub	a, #0x10
    0000130C 78               [ 4] 3305 	ld	a, b
    0000130D 17               [ 4] 3306 	rla
    0000130E 3F               [ 4] 3307 	ccf
    0000130F 1F               [ 4] 3308 	rra
    00001310 DE 80            [ 7] 3309 	sbc	a, #0x80
    00001312 30 06            [12] 3310 	jr	NC, 00155$
                                   3311 ;E:\Dropbox\FAUSTO\SVILUPPI\MSX\CODE\C\MSXgl\projects\exsoccer/exsoccer_s1_b2.c:560: PutBallOnPlayerFeet(playerId);
    00001314 DD 7E FD         [19] 3312 	ld	a, -3 (ix)
    00001317 CDrF7r1C         [17] 3313 	call	_PutBallOnPlayerFeet
    0000131A                       3314 00155$:
                                   3315 ;E:\Dropbox\FAUSTO\SVILUPPI\MSX\CODE\C\MSXgl\projects\exsoccer/exsoccer_s1_b2.c:564: if(g_Ball.PossessionPlayerId==playerId){
    0000131A 21r06r00         [10] 3316 	ld	hl, #(_g_Ball + 6)
    0000131D DD 7E FD         [19] 3317 	ld	a,-3 (ix)
    00001320 96               [ 7] 3318 	sub	a,(hl)
    00001321 C2rECr1A         [10] 3319 	jp	NZ,00259$
                                   3320 ;E:\Dropbox\FAUSTO\SVILUPPI\MSX\CODE\C\MSXgl\projects\exsoccer/exsoccer_s1_b2.c:569: if (frameTriggerPressed) {
    00001324 DD 7E C4         [19] 3321 	ld	a, -60 (ix)
    00001327 B7               [ 4] 3322 	or	a, a
    00001328 CAr91r14         [10] 3323 	jp	Z, 00202$
                                   3324 ;E:\Dropbox\FAUSTO\SVILUPPI\MSX\CODE\C\MSXgl\projects\exsoccer/exsoccer_s1_b2.c:573: if (g_MatchStatus == MATCH_IN_ACTION) {
    0000132B 3Ar00r00         [13] 3325 	ld	a, (_g_MatchStatus+0)
    0000132E D6 0C            [ 7] 3326 	sub	a, #0x0c
    00001330 C2r68r14         [10] 3327 	jp	NZ,00196$
                                   3328 ;E:\Dropbox\FAUSTO\SVILUPPI\MSX\CODE\C\MSXgl\projects\exsoccer/exsoccer_s1_b2.c:575: if (g_ActionCooldown > 0) {
    00001333 3Ar00r00         [13] 3329 	ld	a, (_g_ActionCooldown+0)
    00001336 B7               [ 4] 3330 	or	a, a
    00001337 C2r68r14         [10] 3331 	jp	NZ, 00196$
                                   3332 ;E:\Dropbox\FAUSTO\SVILUPPI\MSX\CODE\C\MSXgl\projects\exsoccer/exsoccer_s1_b2.c:578: bool isShooting = false;
    0000133A DD 36 F6 00      [19] 3333 	ld	-10 (ix), #0x00
                                   3334 ;E:\Dropbox\FAUSTO\SVILUPPI\MSX\CODE\C\MSXgl\projects\exsoccer/exsoccer_s1_b2.c:585: u16 plY = g_Players[playerId].Y;
    0000133E DD 6E F1         [19] 3335 	ld	l, -15 (ix)
    00001341 DD 66 F2         [19] 3336 	ld	h, -14 (ix)
    00001344 7E               [ 7] 3337 	ld	a, (hl)
    00001345 DD 77 F7         [19] 3338 	ld	-9 (ix), a
    00001348 23               [ 6] 3339 	inc	hl
    00001349 7E               [ 7] 3340 	ld	a, (hl)
    0000134A DD 77 F8         [19] 3341 	ld	-8 (ix), a
                                   3342 ;E:\Dropbox\FAUSTO\SVILUPPI\MSX\CODE\C\MSXgl\projects\exsoccer/exsoccer_s1_b2.c:586: u16 plX = g_Players[playerId].X;
    0000134D DD 7E F1         [19] 3343 	ld	a, -15 (ix)
    00001350 DD 77 FB         [19] 3344 	ld	-5 (ix), a
    00001353 DD 7E F2         [19] 3345 	ld	a, -14 (ix)
    00001356 DD 77 FC         [19] 3346 	ld	-4 (ix), a
    00001359 DD 6E FB         [19] 3347 	ld	l, -5 (ix)
    0000135C DD 66 FC         [19] 3348 	ld	h, -4 (ix)
    0000135F 23               [ 6] 3349 	inc	hl
    00001360 23               [ 6] 3350 	inc	hl
    00001361 7E               [ 7] 3351 	ld	a, (hl)
    00001362 DD 77 F9         [19] 3352 	ld	-7 (ix), a
    00001365 23               [ 6] 3353 	inc	hl
    00001366 7E               [ 7] 3354 	ld	a, (hl)
    00001367 DD 77 FA         [19] 3355 	ld	-6 (ix), a
                                   3356 ;E:\Dropbox\FAUSTO\SVILUPPI\MSX\CODE\C\MSXgl\projects\exsoccer/exsoccer_s1_b2.c:590: if (plY >= FIELD_BOUND_Y_TOP && plY <= (FIELD_BOUND_Y_TOP + 120)) { 
    0000136A DD 7E F7         [19] 3357 	ld	a, -9 (ix)
    0000136D DD 77 FB         [19] 3358 	ld	-5 (ix), a
    00001370 DD 7E F8         [19] 3359 	ld	a, -8 (ix)
    00001373 DD 77 FC         [19] 3360 	ld	-4 (ix), a
                                   3361 ;E:\Dropbox\FAUSTO\SVILUPPI\MSX\CODE\C\MSXgl\projects\exsoccer/exsoccer_s1_b2.c:588: if (teamId == TEAM_1) { // Attacking UP (Towards Top)
    00001376 DD 7E C3         [19] 3362 	ld	a, -61 (ix)
    00001379 B7               [ 4] 3363 	or	a, a
    0000137A 28 71            [12] 3364 	jr	Z, 00186$
                                   3365 ;E:\Dropbox\FAUSTO\SVILUPPI\MSX\CODE\C\MSXgl\projects\exsoccer/exsoccer_s1_b2.c:590: if (plY >= FIELD_BOUND_Y_TOP && plY <= (FIELD_BOUND_Y_TOP + 120)) { 
    0000137C DD 7E FB         [19] 3366 	ld	a, -5 (ix)
    0000137F D6 32            [ 7] 3367 	sub	a, #0x32
    00001381 DD 7E FC         [19] 3368 	ld	a, -4 (ix)
    00001384 DE 00            [ 7] 3369 	sbc	a, #0x00
    00001386 DAr53r14         [10] 3370 	jp	C, 00187$
    00001389 3E AA            [ 7] 3371 	ld	a, #0xaa
    0000138B DD BE F7         [19] 3372 	cp	a, -9 (ix)
    0000138E 3E 00            [ 7] 3373 	ld	a, #0x00
    00001390 DD 9E F8         [19] 3374 	sbc	a, -8 (ix)
    00001393 DAr53r14         [10] 3375 	jp	C, 00187$
                                   3376 ;E:\Dropbox\FAUSTO\SVILUPPI\MSX\CODE\C\MSXgl\projects\exsoccer/exsoccer_s1_b2.c:591: if (checkDir == DIRECTION_UP || checkDir == DIRECTION_UP_LEFT || checkDir == DIRECTION_UP_RIGHT) {
    00001396 DD 7E FE         [19] 3377 	ld	a, -2 (ix)
    00001399 3D               [ 4] 3378 	dec	a
    0000139A 28 0F            [12] 3379 	jr	Z, 00164$
    0000139C DD 7E FE         [19] 3380 	ld	a, -2 (ix)
    0000139F D6 08            [ 7] 3381 	sub	a, #0x08
    000013A1 28 08            [12] 3382 	jr	Z, 00164$
    000013A3 DD 7E FE         [19] 3383 	ld	a, -2 (ix)
    000013A6 D6 02            [ 7] 3384 	sub	a, #0x02
    000013A8 C2r53r14         [10] 3385 	jp	NZ,00187$
    000013AB                       3386 00164$:
                                   3387 ;E:\Dropbox\FAUSTO\SVILUPPI\MSX\CODE\C\MSXgl\projects\exsoccer/exsoccer_s1_b2.c:594: bool allowed = true;
    000013AB DD 36 FC 01      [19] 3388 	ld	-4 (ix), #0x01
                                   3389 ;E:\Dropbox\FAUSTO\SVILUPPI\MSX\CODE\C\MSXgl\projects\exsoccer/exsoccer_s1_b2.c:595: if (plY < (FIELD_BOUND_Y_TOP + 20)) {
    000013AF DD 7E F7         [19] 3390 	ld	a, -9 (ix)
    000013B2 D6 46            [ 7] 3391 	sub	a, #0x46
    000013B4 DD 7E F8         [19] 3392 	ld	a, -8 (ix)
    000013B7 DE 00            [ 7] 3393 	sbc	a, #0x00
    000013B9 30 1C            [12] 3394 	jr	NC, 00161$
                                   3395 ;E:\Dropbox\FAUSTO\SVILUPPI\MSX\CODE\C\MSXgl\projects\exsoccer/exsoccer_s1_b2.c:596: if (plX < (GOAL_X_MIN - 5) || plX > (GOAL_X_MAX + 5)) allowed = false;
    000013BB DD 7E F9         [19] 3396 	ld	a, -7 (ix)
    000013BE D6 5B            [ 7] 3397 	sub	a, #0x5b
    000013C0 DD 7E FA         [19] 3398 	ld	a, -6 (ix)
    000013C3 DE 00            [ 7] 3399 	sbc	a, #0x00
    000013C5 38 0C            [12] 3400 	jr	C, 00157$
    000013C7 3E 95            [ 7] 3401 	ld	a, #0x95
    000013C9 DD BE F9         [19] 3402 	cp	a, -7 (ix)
    000013CC 3E 00            [ 7] 3403 	ld	a, #0x00
    000013CE DD 9E FA         [19] 3404 	sbc	a, -6 (ix)
    000013D1 30 04            [12] 3405 	jr	NC, 00161$
    000013D3                       3406 00157$:
    000013D3 DD 36 FC 00      [19] 3407 	ld	-4 (ix), #0x00
    000013D7                       3408 00161$:
                                   3409 ;E:\Dropbox\FAUSTO\SVILUPPI\MSX\CODE\C\MSXgl\projects\exsoccer/exsoccer_s1_b2.c:599: if (allowed) {
    000013D7 DD 7E FC         [19] 3410 	ld	a, -4 (ix)
    000013DA B7               [ 4] 3411 	or	a, a
    000013DB 28 76            [12] 3412 	jr	Z, 00187$
                                   3413 ;E:\Dropbox\FAUSTO\SVILUPPI\MSX\CODE\C\MSXgl\projects\exsoccer/exsoccer_s1_b2.c:600: isShooting = true;
    000013DD DD 36 F6 01      [19] 3414 	ld	-10 (ix), #0x01
                                   3415 ;E:\Dropbox\FAUSTO\SVILUPPI\MSX\CODE\C\MSXgl\projects\exsoccer/exsoccer_s1_b2.c:601: PerformShot(g_ShotCursorX, FIELD_BOUND_Y_TOP - 40);
    000013E1 11 0A 00         [10] 3416 	ld	de, #0x000a
    000013E4 2Ar00r00         [16] 3417 	ld	hl, (_g_ShotCursorX)
    000013E7 CDr00r00         [17] 3418 	call	_PerformShot
    000013EA C3r53r14         [10] 3419 	jp	00187$
    000013ED                       3420 00186$:
                                   3421 ;E:\Dropbox\FAUSTO\SVILUPPI\MSX\CODE\C\MSXgl\projects\exsoccer/exsoccer_s1_b2.c:607: if (plY <= FIELD_BOUND_Y_BOTTOM && plY >= (FIELD_BOUND_Y_BOTTOM - 120)) { 
    000013ED 3E AE            [ 7] 3422 	ld	a, #0xae
    000013EF DD BE FB         [19] 3423 	cp	a, -5 (ix)
    000013F2 3E 01            [ 7] 3424 	ld	a, #0x01
    000013F4 DD 9E FC         [19] 3425 	sbc	a, -4 (ix)
    000013F7 38 5A            [12] 3426 	jr	C, 00187$
    000013F9 DD 7E FB         [19] 3427 	ld	a, -5 (ix)
    000013FC D6 36            [ 7] 3428 	sub	a, #0x36
    000013FE DD 7E FC         [19] 3429 	ld	a, -4 (ix)
    00001401 DE 01            [ 7] 3430 	sbc	a, #0x01
    00001403 38 4E            [12] 3431 	jr	C, 00187$
                                   3432 ;E:\Dropbox\FAUSTO\SVILUPPI\MSX\CODE\C\MSXgl\projects\exsoccer/exsoccer_s1_b2.c:608: if (checkDir == DIRECTION_DOWN || checkDir == DIRECTION_DOWN_LEFT || checkDir == DIRECTION_DOWN_RIGHT) {
    00001405 DD 7E FE         [19] 3433 	ld	a, -2 (ix)
    00001408 D6 05            [ 7] 3434 	sub	a, #0x05
    0000140A 28 0E            [12] 3435 	jr	Z, 00178$
    0000140C DD 7E FE         [19] 3436 	ld	a, -2 (ix)
    0000140F D6 06            [ 7] 3437 	sub	a, #0x06
    00001411 28 07            [12] 3438 	jr	Z, 00178$
    00001413 DD 7E FE         [19] 3439 	ld	a, -2 (ix)
    00001416 D6 04            [ 7] 3440 	sub	a, #0x04
    00001418 20 39            [12] 3441 	jr	NZ, 00187$
    0000141A                       3442 00178$:
                                   3443 ;E:\Dropbox\FAUSTO\SVILUPPI\MSX\CODE\C\MSXgl\projects\exsoccer/exsoccer_s1_b2.c:611: bool allowed = true;
    0000141A 1E 01            [ 7] 3444 	ld	e, #0x01
                                   3445 ;E:\Dropbox\FAUSTO\SVILUPPI\MSX\CODE\C\MSXgl\projects\exsoccer/exsoccer_s1_b2.c:612: if (plY > (FIELD_BOUND_Y_BOTTOM - 20)) {
    0000141C 3E 9A            [ 7] 3446 	ld	a, #0x9a
    0000141E DD BE FB         [19] 3447 	cp	a, -5 (ix)
    00001421 3E 01            [ 7] 3448 	ld	a, #0x01
    00001423 DD 9E FC         [19] 3449 	sbc	a, -4 (ix)
    00001426 30 1A            [12] 3450 	jr	NC, 00175$
                                   3451 ;E:\Dropbox\FAUSTO\SVILUPPI\MSX\CODE\C\MSXgl\projects\exsoccer/exsoccer_s1_b2.c:613: if (plX < (GOAL_X_MIN - 5) || plX > (GOAL_X_MAX + 5)) allowed = false;
    00001428 DD 7E F9         [19] 3452 	ld	a, -7 (ix)
    0000142B D6 5B            [ 7] 3453 	sub	a, #0x5b
    0000142D DD 7E FA         [19] 3454 	ld	a, -6 (ix)
    00001430 DE 00            [ 7] 3455 	sbc	a, #0x00
    00001432 38 0C            [12] 3456 	jr	C, 00171$
    00001434 3E 95            [ 7] 3457 	ld	a, #0x95
    00001436 DD BE F9         [19] 3458 	cp	a, -7 (ix)
    00001439 3E 00            [ 7] 3459 	ld	a, #0x00
    0000143B DD 9E FA         [19] 3460 	sbc	a, -6 (ix)
    0000143E 30 02            [12] 3461 	jr	NC, 00175$
    00001440                       3462 00171$:
    00001440 1E 00            [ 7] 3463 	ld	e, #0x00
    00001442                       3464 00175$:
                                   3465 ;E:\Dropbox\FAUSTO\SVILUPPI\MSX\CODE\C\MSXgl\projects\exsoccer/exsoccer_s1_b2.c:616: if (allowed) {
    00001442 7B               [ 4] 3466 	ld	a, e
    00001443 B7               [ 4] 3467 	or	a, a
    00001444 28 0D            [12] 3468 	jr	Z, 00187$
                                   3469 ;E:\Dropbox\FAUSTO\SVILUPPI\MSX\CODE\C\MSXgl\projects\exsoccer/exsoccer_s1_b2.c:617: isShooting = true;
    00001446 DD 36 F6 01      [19] 3470 	ld	-10 (ix), #0x01
                                   3471 ;E:\Dropbox\FAUSTO\SVILUPPI\MSX\CODE\C\MSXgl\projects\exsoccer/exsoccer_s1_b2.c:618: PerformShot(g_ShotCursorX, FIELD_BOUND_Y_BOTTOM + 40);
    0000144A 11 D6 01         [10] 3472 	ld	de, #0x01d6
    0000144D 2Ar00r00         [16] 3473 	ld	hl, (_g_ShotCursorX)
    00001450 CDr00r00         [17] 3474 	call	_PerformShot
    00001453                       3475 00187$:
                                   3476 ;E:\Dropbox\FAUSTO\SVILUPPI\MSX\CODE\C\MSXgl\projects\exsoccer/exsoccer_s1_b2.c:624: if (isShooting) {
    00001453 DD 7E F6         [19] 3477 	ld	a, -10 (ix)
    00001456 B7               [ 4] 3478 	or	a, a
    00001457 28 0F            [12] 3479 	jr	Z, 00196$
                                   3480 ;E:\Dropbox\FAUSTO\SVILUPPI\MSX\CODE\C\MSXgl\projects\exsoccer/exsoccer_s1_b2.c:625: if (g_ShootCooldown > 0) return; // Prevent shooting if cooldown active
    00001459 3Ar00r00         [13] 3481 	ld	a, (_g_ShootCooldown+0)
    0000145C B7               [ 4] 3482 	or	a, a
    0000145D C2rE0r1C         [10] 3483 	jp	NZ,00261$
                                   3484 ;E:\Dropbox\FAUSTO\SVILUPPI\MSX\CODE\C\MSXgl\projects\exsoccer/exsoccer_s1_b2.c:626: g_ActionCooldown = 20;
    00001460 21r00r00         [10] 3485 	ld	hl, #_g_ActionCooldown
    00001463 36 14            [10] 3486 	ld	(hl), #0x14
                                   3487 ;E:\Dropbox\FAUSTO\SVILUPPI\MSX\CODE\C\MSXgl\projects\exsoccer/exsoccer_s1_b2.c:627: return;
    00001465 C3rE0r1C         [10] 3488 	jp	00261$
    00001468                       3489 00196$:
                                   3490 ;E:\Dropbox\FAUSTO\SVILUPPI\MSX\CODE\C\MSXgl\projects\exsoccer/exsoccer_s1_b2.c:637: if(direction != DIRECTION_NONE){
    00001468 DD 7E FE         [19] 3491 	ld	a, -2 (ix)
    0000146B B7               [ 4] 3492 	or	a, a
    0000146C 28 0E            [12] 3493 	jr	Z, 00198$
                                   3494 ;E:\Dropbox\FAUSTO\SVILUPPI\MSX\CODE\C\MSXgl\projects\exsoccer/exsoccer_s1_b2.c:638: g_Players[playerId].Direction = direction;
    0000146E DD 6E F1         [19] 3495 	ld	l, -15 (ix)
    00001471 DD 66 F2         [19] 3496 	ld	h, -14 (ix)
    00001474 11 0A 00         [10] 3497 	ld	de, #0x000a
    00001477 19               [11] 3498 	add	hl, de
    00001478 DD 7E FE         [19] 3499 	ld	a, -2 (ix)
    0000147B 77               [ 7] 3500 	ld	(hl), a
    0000147C                       3501 00198$:
                                   3502 ;E:\Dropbox\FAUSTO\SVILUPPI\MSX\CODE\C\MSXgl\projects\exsoccer/exsoccer_s1_b2.c:642: g_PassTargetPlayer = GetBestPassTarget(playerId);
    0000147C DD 7E FD         [19] 3503 	ld	a, -3 (ix)
    0000147F CDr00r00         [17] 3504 	call	_GetBestPassTarget
                                   3505 ;E:\Dropbox\FAUSTO\SVILUPPI\MSX\CODE\C\MSXgl\projects\exsoccer/exsoccer_s1_b2.c:644: if (g_PassTargetPlayer != NO_VALUE) {
    00001482 32r00r00         [13] 3506 	ld	(_g_PassTargetPlayer+0), a
    00001485 3C               [ 4] 3507 	inc	a
    00001486 28 09            [12] 3508 	jr	Z, 00202$
                                   3509 ;E:\Dropbox\FAUSTO\SVILUPPI\MSX\CODE\C\MSXgl\projects\exsoccer/exsoccer_s1_b2.c:646: PerformPass(g_PassTargetPlayer);
    00001488 3Ar00r00         [13] 3510 	ld	a, (_g_PassTargetPlayer+0)
    0000148B CDr00r00         [17] 3511 	call	_PerformPass
                                   3512 ;E:\Dropbox\FAUSTO\SVILUPPI\MSX\CODE\C\MSXgl\projects\exsoccer/exsoccer_s1_b2.c:649: return; 
    0000148E C3rE0r1C         [10] 3513 	jp	00261$
    00001491                       3514 00202$:
                                   3515 ;E:\Dropbox\FAUSTO\SVILUPPI\MSX\CODE\C\MSXgl\projects\exsoccer/exsoccer_s1_b2.c:653: if((g_FrameCounter % 3)!=0){ 
    00001491 2Ar00r00         [16] 3516 	ld	hl, (_g_FrameCounter)
    00001494 11 03 00         [10] 3517 	ld	de, #0x0003
    00001497 CDr00r00         [17] 3518 	call	__moduint
    0000149A 7A               [ 4] 3519 	ld	a, d
    0000149B B3               [ 4] 3520 	or	a, e
                                   3521 ;E:\Dropbox\FAUSTO\SVILUPPI\MSX\CODE\C\MSXgl\projects\exsoccer/exsoccer_s1_b2.c:654: return;
    0000149C C2rE0r1C         [10] 3522 	jp	NZ,00261$
                                   3523 ;E:\Dropbox\FAUSTO\SVILUPPI\MSX\CODE\C\MSXgl\projects\exsoccer/exsoccer_s1_b2.c:657: if(g_Ball.KickMoveState==NO_VALUE){
    0000149F 01r0Dr00         [10] 3524 	ld	bc, #_g_Ball + 13
    000014A2 0A               [ 7] 3525 	ld	a, (bc)
                                   3526 ;E:\Dropbox\FAUSTO\SVILUPPI\MSX\CODE\C\MSXgl\projects\exsoccer/exsoccer_s1_b2.c:658: g_Ball.KickMoveState=0;
    000014A3 3C               [ 4] 3527 	inc	a
    000014A4 20 01            [12] 3528 	jr	NZ, 00206$
    000014A6 02               [ 7] 3529 	ld	(bc), a
    000014A7                       3530 00206$:
                                   3531 ;E:\Dropbox\FAUSTO\SVILUPPI\MSX\CODE\C\MSXgl\projects\exsoccer/exsoccer_s1_b2.c:661: u8 moveDir = direction;
    000014A7 DD 7E FE         [19] 3532 	ld	a, -2 (ix)
    000014AA DD 77 F5         [19] 3533 	ld	-11 (ix), a
                                   3534 ;E:\Dropbox\FAUSTO\SVILUPPI\MSX\CODE\C\MSXgl\projects\exsoccer/exsoccer_s1_b2.c:662: if(g_Ball.KickMoveState != 0){
    000014AD 0A               [ 7] 3535 	ld	a, (bc)
    000014AE B7               [ 4] 3536 	or	a, a
    000014AF 28 0E            [12] 3537 	jr	Z, 00208$
                                   3538 ;E:\Dropbox\FAUSTO\SVILUPPI\MSX\CODE\C\MSXgl\projects\exsoccer/exsoccer_s1_b2.c:663: moveDir = g_Players[playerId].Direction;
    000014B1 DD 5E F1         [19] 3539 	ld	e, -15 (ix)
    000014B4 DD 56 F2         [19] 3540 	ld	d, -14 (ix)
    000014B7 21 0A 00         [10] 3541 	ld	hl, #10
    000014BA 19               [11] 3542 	add	hl, de
    000014BB 7E               [ 7] 3543 	ld	a, (hl)
    000014BC DD 77 F5         [19] 3544 	ld	-11 (ix), a
    000014BF                       3545 00208$:
                                   3546 ;E:\Dropbox\FAUSTO\SVILUPPI\MSX\CODE\C\MSXgl\projects\exsoccer/exsoccer_s1_b2.c:669: if(g_Players[playerId].PreviousDirection!=DIRECTION_NONE){
    000014BF DD 7E F1         [19] 3547 	ld	a, -15 (ix)
    000014C2 C6 0B            [ 7] 3548 	add	a, #0x0b
    000014C4 DD 77 F6         [19] 3549 	ld	-10 (ix), a
    000014C7 DD 7E F2         [19] 3550 	ld	a, -14 (ix)
    000014CA CE 00            [ 7] 3551 	adc	a, #0x00
    000014CC DD 77 F7         [19] 3552 	ld	-9 (ix), a
                                   3553 ;E:\Dropbox\FAUSTO\SVILUPPI\MSX\CODE\C\MSXgl\projects\exsoccer/exsoccer_s1_b2.c:666: if(moveDir==DIRECTION_NONE){
    000014CF DD 7E F5         [19] 3554 	ld	a, -11 (ix)
    000014D2 B7               [ 4] 3555 	or	a, a
    000014D3 20 38            [12] 3556 	jr	NZ, 00223$
                                   3557 ;E:\Dropbox\FAUSTO\SVILUPPI\MSX\CODE\C\MSXgl\projects\exsoccer/exsoccer_s1_b2.c:667: g_Players[playerId].Status=PLAYER_STATUS_POSITIONED;
    000014D5 DD 6E F3         [19] 3558 	ld	l, -13 (ix)
    000014D8 DD 66 F4         [19] 3559 	ld	h, -12 (ix)
    000014DB 36 04            [10] 3560 	ld	(hl), #0x04
    000014DD 23               [ 6] 3561 	inc	hl
    000014DE 36 00            [10] 3562 	ld	(hl), #0x00
                                   3563 ;E:\Dropbox\FAUSTO\SVILUPPI\MSX\CODE\C\MSXgl\projects\exsoccer/exsoccer_s1_b2.c:668: PutBallOnPlayerFeet(playerId);
    000014E0 C5               [11] 3564 	push	bc
    000014E1 DD 7E FD         [19] 3565 	ld	a, -3 (ix)
    000014E4 CDrF7r1C         [17] 3566 	call	_PutBallOnPlayerFeet
    000014E7 C1               [10] 3567 	pop	bc
                                   3568 ;E:\Dropbox\FAUSTO\SVILUPPI\MSX\CODE\C\MSXgl\projects\exsoccer/exsoccer_s1_b2.c:669: if(g_Players[playerId].PreviousDirection!=DIRECTION_NONE){
    000014E8 DD 6E F6         [19] 3569 	ld	l, -10 (ix)
    000014EB DD 66 F7         [19] 3570 	ld	h, -9 (ix)
    000014EE 5E               [ 7] 3571 	ld	e, (hl)
    000014EF 7B               [ 4] 3572 	ld	a, e
    000014F0 B7               [ 4] 3573 	or	a, a
    000014F1 28 15            [12] 3574 	jr	Z, 00210$
                                   3575 ;E:\Dropbox\FAUSTO\SVILUPPI\MSX\CODE\C\MSXgl\projects\exsoccer/exsoccer_s1_b2.c:670: g_Players[playerId].PatternId=GetNoMovingPlayerPatternId(g_Players[playerId].PreviousDirection);
    000014F3 DD 7E F1         [19] 3576 	ld	a, -15 (ix)
    000014F6 C6 08            [ 7] 3577 	add	a, #0x08
    000014F8 6F               [ 4] 3578 	ld	l, a
                                   3579 ;	spillPairReg hl
                                   3580 ;	spillPairReg hl
    000014F9 DD 7E F2         [19] 3581 	ld	a, -14 (ix)
    000014FC CE 00            [ 7] 3582 	adc	a, #0x00
    000014FE 67               [ 4] 3583 	ld	h, a
                                   3584 ;	spillPairReg hl
                                   3585 ;	spillPairReg hl
    000014FF E5               [11] 3586 	push	hl
    00001500 C5               [11] 3587 	push	bc
    00001501 7B               [ 4] 3588 	ld	a, e
    00001502 CDr00r00         [17] 3589 	call	_GetNoMovingPlayerPatternId
    00001505 C1               [10] 3590 	pop	bc
    00001506 E1               [10] 3591 	pop	hl
    00001507 77               [ 7] 3592 	ld	(hl), a
    00001508                       3593 00210$:
                                   3594 ;E:\Dropbox\FAUSTO\SVILUPPI\MSX\CODE\C\MSXgl\projects\exsoccer/exsoccer_s1_b2.c:672: g_Ball.KickMoveState=0;
    00001508 AF               [ 4] 3595 	xor	a, a
    00001509 02               [ 7] 3596 	ld	(bc), a
    0000150A C3rE0r1C         [10] 3597 	jp	00261$
    0000150D                       3598 00223$:
                                   3599 ;E:\Dropbox\FAUSTO\SVILUPPI\MSX\CODE\C\MSXgl\projects\exsoccer/exsoccer_s1_b2.c:678: const u8 BallBaseDistX[] = { 0, 0, 4, 6, 4, 0, 4, 6, 4 };
    0000150D DD 36 C5 00      [19] 3600 	ld	-59 (ix), #0x00
    00001511 DD 36 C6 00      [19] 3601 	ld	-58 (ix), #0x00
    00001515 DD 36 C7 04      [19] 3602 	ld	-57 (ix), #0x04
    00001519 DD 36 C8 06      [19] 3603 	ld	-56 (ix), #0x06
    0000151D DD 36 C9 04      [19] 3604 	ld	-55 (ix), #0x04
    00001521 DD 36 CA 00      [19] 3605 	ld	-54 (ix), #0x00
    00001525 DD 36 CB 04      [19] 3606 	ld	-53 (ix), #0x04
    00001529 DD 36 CC 06      [19] 3607 	ld	-52 (ix), #0x06
    0000152D DD 36 CD 04      [19] 3608 	ld	-51 (ix), #0x04
                                   3609 ;E:\Dropbox\FAUSTO\SVILUPPI\MSX\CODE\C\MSXgl\projects\exsoccer/exsoccer_s1_b2.c:679: const u8 BallBaseDistY[] = { 0, 6, 4, 0, 4, 6, 4, 0, 4 };
    00001531 DD 36 CE 00      [19] 3610 	ld	-50 (ix), #0x00
    00001535 DD 36 CF 06      [19] 3611 	ld	-49 (ix), #0x06
    00001539 DD 36 D0 04      [19] 3612 	ld	-48 (ix), #0x04
    0000153D DD 36 D1 00      [19] 3613 	ld	-47 (ix), #0x00
    00001541 DD 36 D2 04      [19] 3614 	ld	-46 (ix), #0x04
    00001545 DD 36 D3 06      [19] 3615 	ld	-45 (ix), #0x06
    00001549 DD 36 D4 04      [19] 3616 	ld	-44 (ix), #0x04
    0000154D DD 36 D5 00      [19] 3617 	ld	-43 (ix), #0x00
    00001551 DD 36 D6 04      [19] 3618 	ld	-42 (ix), #0x04
                                   3619 ;E:\Dropbox\FAUSTO\SVILUPPI\MSX\CODE\C\MSXgl\projects\exsoccer/exsoccer_s1_b2.c:698: const i8 BallAlignCorrectX[] = { 0, 0, 0, 0, 2, 0, -2, 0, 0 };
    00001555 DD 36 D7 00      [19] 3620 	ld	-41 (ix), #0x00
    00001559 DD 36 D8 00      [19] 3621 	ld	-40 (ix), #0x00
    0000155D DD 36 D9 00      [19] 3622 	ld	-39 (ix), #0x00
    00001561 DD 36 DA 00      [19] 3623 	ld	-38 (ix), #0x00
    00001565 DD 36 DB 02      [19] 3624 	ld	-37 (ix), #0x02
    00001569 DD 36 DC 00      [19] 3625 	ld	-36 (ix), #0x00
    0000156D DD 36 DD FE      [19] 3626 	ld	-35 (ix), #0xfe
    00001571 DD 36 DE 00      [19] 3627 	ld	-34 (ix), #0x00
    00001575 DD 36 DF 00      [19] 3628 	ld	-33 (ix), #0x00
                                   3629 ;E:\Dropbox\FAUSTO\SVILUPPI\MSX\CODE\C\MSXgl\projects\exsoccer/exsoccer_s1_b2.c:699: const i8 BallAlignCorrectY[] = { 0, 0, 0, 8, 2, -2, 2, 8, 0 };
    00001579 DD 36 E0 00      [19] 3630 	ld	-32 (ix), #0x00
    0000157D DD 36 E1 00      [19] 3631 	ld	-31 (ix), #0x00
    00001581 DD 36 E2 00      [19] 3632 	ld	-30 (ix), #0x00
    00001585 DD 36 E3 08      [19] 3633 	ld	-29 (ix), #0x08
    00001589 DD 36 E4 02      [19] 3634 	ld	-28 (ix), #0x02
    0000158D DD 36 E5 FE      [19] 3635 	ld	-27 (ix), #0xfe
    00001591 DD 36 E6 02      [19] 3636 	ld	-26 (ix), #0x02
    00001595 DD 36 E7 08      [19] 3637 	ld	-25 (ix), #0x08
    00001599 DD 36 E8 00      [19] 3638 	ld	-24 (ix), #0x00
                                   3639 ;E:\Dropbox\FAUSTO\SVILUPPI\MSX\CODE\C\MSXgl\projects\exsoccer/exsoccer_s1_b2.c:701: const u8 DribbleAnimOffsets[] = {5, 4, 2, 0};
    0000159D DD 36 E9 05      [19] 3640 	ld	-23 (ix), #0x05
    000015A1 DD 36 EA 04      [19] 3641 	ld	-22 (ix), #0x04
    000015A5 DD 36 EB 02      [19] 3642 	ld	-21 (ix), #0x02
    000015A9 DD 36 EC 00      [19] 3643 	ld	-20 (ix), #0x00
                                   3644 ;E:\Dropbox\FAUSTO\SVILUPPI\MSX\CODE\C\MSXgl\projects\exsoccer/exsoccer_s1_b2.c:702: const u8 DribbleAnimOffsetsDiag[] = {3, 3, 1, 0};
    000015AD DD 36 ED 03      [19] 3645 	ld	-19 (ix), #0x03
    000015B1 DD 36 EE 03      [19] 3646 	ld	-18 (ix), #0x03
    000015B5 DD 36 EF 01      [19] 3647 	ld	-17 (ix), #0x01
    000015B9 DD 36 F0 00      [19] 3648 	ld	-16 (ix), #0x00
                                   3649 ;E:\Dropbox\FAUSTO\SVILUPPI\MSX\CODE\C\MSXgl\projects\exsoccer/exsoccer_s1_b2.c:704: u8 animStep = g_Ball.KickMoveState;
    000015BD 0A               [ 7] 3650 	ld	a, (bc)
    000015BE 5F               [ 4] 3651 	ld	e, a
                                   3652 ;E:\Dropbox\FAUSTO\SVILUPPI\MSX\CODE\C\MSXgl\projects\exsoccer/exsoccer_s1_b2.c:705: u8 diagStep = (animStep % 2) ? 1 : 2;
    000015BF CB 43            [ 8] 3653 	bit	0, e
    000015C1 28 06            [12] 3654 	jr	Z, 00273$
    000015C3 21 01 00         [10] 3655 	ld	hl, #0x0001
    000015C6 C3rCCr15         [10] 3656 	jp	00274$
    000015C9                       3657 00273$:
    000015C9 21 02 00         [10] 3658 	ld	hl, #0x0002
    000015CC                       3659 00274$:
    000015CC DD 75 F8         [19] 3660 	ld	-8 (ix), l
                                   3661 ;E:\Dropbox\FAUSTO\SVILUPPI\MSX\CODE\C\MSXgl\projects\exsoccer/exsoccer_s1_b2.c:707: u8 currentOffset = DribbleAnimOffsets[animStep];
    000015CF D5               [11] 3662 	push	de
    000015D0 16 00            [ 7] 3663 	ld	d, #0x00
    000015D2 21 28 00         [10] 3664 	ld	hl, #40
    000015D5 39               [11] 3665 	add	hl, sp
    000015D6 19               [11] 3666 	add	hl, de
    000015D7 D1               [10] 3667 	pop	de
    000015D8 7E               [ 7] 3668 	ld	a, (hl)
    000015D9 DD 77 F9         [19] 3669 	ld	-7 (ix), a
                                   3670 ;E:\Dropbox\FAUSTO\SVILUPPI\MSX\CODE\C\MSXgl\projects\exsoccer/exsoccer_s1_b2.c:708: u8 currentOffsetDiag = DribbleAnimOffsetsDiag[animStep];
    000015DC 16 00            [ 7] 3671 	ld	d, #0x00
    000015DE 21 2A 00         [10] 3672 	ld	hl, #42
    000015E1 39               [11] 3673 	add	hl, sp
    000015E2 19               [11] 3674 	add	hl, de
    000015E3 7E               [ 7] 3675 	ld	a, (hl)
    000015E4 DD 77 FA         [19] 3676 	ld	-6 (ix), a
                                   3677 ;E:\Dropbox\FAUSTO\SVILUPPI\MSX\CODE\C\MSXgl\projects\exsoccer/exsoccer_s1_b2.c:710: u8 distX = BallBaseDistX[moveDir] + ((moveDir==DIRECTION_UP || moveDir==DIRECTION_DOWN) ? 0 : (moveDir == DIRECTION_LEFT || moveDir == DIRECTION_RIGHT ? currentOffset : currentOffsetDiag));
    000015E7 DD 5E F5         [19] 3678 	ld	e, -11 (ix)
    000015EA 16 00            [ 7] 3679 	ld	d, #0x00
    000015EC 21 02 00         [10] 3680 	ld	hl, #2
    000015EF 39               [11] 3681 	add	hl, sp
    000015F0 19               [11] 3682 	add	hl, de
    000015F1 5E               [ 7] 3683 	ld	e, (hl)
    000015F2 DD 7E F5         [19] 3684 	ld	a, -11 (ix)
    000015F5 3D               [ 4] 3685 	dec	a
    000015F6 3E 01            [ 7] 3686 	ld	a, #0x01
    000015F8 28 01            [12] 3687 	jr	Z, 00768$
    000015FA AF               [ 4] 3688 	xor	a, a
    000015FB                       3689 00768$:
    000015FB DD 77 FB         [19] 3690 	ld	-5 (ix), a
    000015FE DD 7E F5         [19] 3691 	ld	a, -11 (ix)
    00001601 D6 07            [ 7] 3692 	sub	a, #0x07
    00001603 3E 01            [ 7] 3693 	ld	a, #0x01
    00001605 28 01            [12] 3694 	jr	Z, 00770$
    00001607 AF               [ 4] 3695 	xor	a, a
    00001608                       3696 00770$:
    00001608 DD 77 FC         [19] 3697 	ld	-4 (ix), a
    0000160B DD CB FB 46      [20] 3698 	bit	0, -5 (ix)
    0000160F 20 07            [12] 3699 	jr	NZ, 00278$
    00001611 DD 7E F5         [19] 3700 	ld	a, -11 (ix)
    00001614 D6 05            [ 7] 3701 	sub	a, #0x05
    00001616 20 04            [12] 3702 	jr	NZ, 00275$
    00001618                       3703 00278$:
    00001618 AF               [ 4] 3704 	xor	a, a
    00001619 C3r32r16         [10] 3705 	jp	00276$
    0000161C                       3706 00275$:
    0000161C DD CB FC 46      [20] 3707 	bit	0, -4 (ix)
    00001620 20 07            [12] 3708 	jr	NZ, 00283$
    00001622 DD 7E F5         [19] 3709 	ld	a, -11 (ix)
    00001625 D6 03            [ 7] 3710 	sub	a, #0x03
    00001627 20 06            [12] 3711 	jr	NZ, 00280$
    00001629                       3712 00283$:
    00001629 DD 7E F9         [19] 3713 	ld	a, -7 (ix)
    0000162C C3r32r16         [10] 3714 	jp	00281$
    0000162F                       3715 00280$:
    0000162F DD 7E FA         [19] 3716 	ld	a, -6 (ix)
    00001632                       3717 00281$:
    00001632                       3718 00276$:
    00001632 83               [ 4] 3719 	add	a, e
    00001633 DD 77 FD         [19] 3720 	ld	-3 (ix), a
                                   3721 ;E:\Dropbox\FAUSTO\SVILUPPI\MSX\CODE\C\MSXgl\projects\exsoccer/exsoccer_s1_b2.c:711: u8 distY = BallBaseDistY[moveDir] + ((moveDir==DIRECTION_LEFT || moveDir==DIRECTION_RIGHT) ? 0 : (moveDir == DIRECTION_UP || moveDir == DIRECTION_DOWN ? currentOffset : currentOffsetDiag));
    00001636 DD 5E F5         [19] 3722 	ld	e, -11 (ix)
    00001639 16 00            [ 7] 3723 	ld	d, #0x00
    0000163B 21 0B 00         [10] 3724 	ld	hl, #11
    0000163E 39               [11] 3725 	add	hl, sp
    0000163F 19               [11] 3726 	add	hl, de
    00001640 6E               [ 7] 3727 	ld	l, (hl)
                                   3728 ;	spillPairReg hl
    00001641 DD CB FC 46      [20] 3729 	bit	0, -4 (ix)
    00001645 20 07            [12] 3730 	jr	NZ, 00288$
    00001647 DD 7E F5         [19] 3731 	ld	a, -11 (ix)
    0000164A D6 03            [ 7] 3732 	sub	a, #0x03
    0000164C 20 0A            [12] 3733 	jr	NZ, 00285$
    0000164E                       3734 00288$:
    0000164E AF               [ 4] 3735 	xor	a, a
    0000164F DD 77 FB         [19] 3736 	ld	-5 (ix), a
    00001652 DD 77 FC         [19] 3737 	ld	-4 (ix), a
    00001655 C3r75r16         [10] 3738 	jp	00286$
    00001658                       3739 00285$:
    00001658 DD CB FB 46      [20] 3740 	bit	0, -5 (ix)
    0000165C 20 07            [12] 3741 	jr	NZ, 00293$
    0000165E DD 7E F5         [19] 3742 	ld	a, -11 (ix)
    00001661 D6 05            [ 7] 3743 	sub	a, #0x05
    00001663 20 06            [12] 3744 	jr	NZ, 00290$
    00001665                       3745 00293$:
    00001665 DD 7E F9         [19] 3746 	ld	a, -7 (ix)
    00001668 C3r6Er16         [10] 3747 	jp	00291$
    0000166B                       3748 00290$:
    0000166B DD 7E FA         [19] 3749 	ld	a, -6 (ix)
    0000166E                       3750 00291$:
    0000166E DD 77 FB         [19] 3751 	ld	-5 (ix), a
    00001671 DD 36 FC 00      [19] 3752 	ld	-4 (ix), #0x00
    00001675                       3753 00286$:
    00001675 DD 7E FB         [19] 3754 	ld	a, -5 (ix)
    00001678 85               [ 4] 3755 	add	a, l
    00001679 DD 77 FA         [19] 3756 	ld	-6 (ix), a
                                   3757 ;E:\Dropbox\FAUSTO\SVILUPPI\MSX\CODE\C\MSXgl\projects\exsoccer/exsoccer_s1_b2.c:557: i16 dx = (i16)g_Players[playerId].X - (i16)g_Ball.X;
    0000167C DD 7E F1         [19] 3758 	ld	a, -15 (ix)
    0000167F C6 02            [ 7] 3759 	add	a, #0x02
    00001681 DD 77 FB         [19] 3760 	ld	-5 (ix), a
    00001684 DD 7E F2         [19] 3761 	ld	a, -14 (ix)
    00001687 CE 00            [ 7] 3762 	adc	a, #0x00
    00001689 DD 77 FC         [19] 3763 	ld	-4 (ix), a
                                   3764 ;E:\Dropbox\FAUSTO\SVILUPPI\MSX\CODE\C\MSXgl\projects\exsoccer/exsoccer_s1_b2.c:713: switch(moveDir){
    0000168C 3E 08            [ 7] 3765 	ld	a, #0x08
    0000168E DD 96 F5         [19] 3766 	sub	a, -11 (ix)
    00001691 DAr49r1A         [10] 3767 	jp	C, 00219$
    00001694 DD 5E F5         [19] 3768 	ld	e, -11 (ix)
    00001697 16 00            [ 7] 3769 	ld	d, #0x00
    00001699 21rA0r16         [10] 3770 	ld	hl, #00779$
    0000169C 19               [11] 3771 	add	hl, de
    0000169D 19               [11] 3772 	add	hl, de
    0000169E 19               [11] 3773 	add	hl, de
    0000169F E9               [ 4] 3774 	jp	(hl)
    000016A0                       3775 00779$:
    000016A0 C3r49r1A         [10] 3776 	jp	00219$
    000016A3 C3rBBr16         [10] 3777 	jp	00211$
    000016A6 C3r27r18         [10] 3778 	jp	00215$
    000016A9 C3rCCr17         [10] 3779 	jp	00214$
    000016AC C3r3Dr19         [10] 3780 	jp	00217$
    000016AF C3r14r17         [10] 3781 	jp	00212$
    000016B2 C3rC2r19         [10] 3782 	jp	00218$
    000016B5 C3r6Cr17         [10] 3783 	jp	00213$
    000016B8 C3rB0r18         [10] 3784 	jp	00216$
                                   3785 ;E:\Dropbox\FAUSTO\SVILUPPI\MSX\CODE\C\MSXgl\projects\exsoccer/exsoccer_s1_b2.c:714: case DIRECTION_UP:
    000016BB                       3786 00211$:
                                   3787 ;E:\Dropbox\FAUSTO\SVILUPPI\MSX\CODE\C\MSXgl\projects\exsoccer/exsoccer_s1_b2.c:715: g_Players[playerId].Y -= 2;
    000016BB DD 6E F1         [19] 3788 	ld	l, -15 (ix)
    000016BE DD 66 F2         [19] 3789 	ld	h, -14 (ix)
    000016C1 5E               [ 7] 3790 	ld	e, (hl)
    000016C2 23               [ 6] 3791 	inc	hl
    000016C3 56               [ 7] 3792 	ld	d, (hl)
    000016C4 1B               [ 6] 3793 	dec	de
    000016C5 1B               [ 6] 3794 	dec	de
    000016C6 DD 6E F1         [19] 3795 	ld	l, -15 (ix)
    000016C9 DD 66 F2         [19] 3796 	ld	h, -14 (ix)
    000016CC 73               [ 7] 3797 	ld	(hl), e
    000016CD 23               [ 6] 3798 	inc	hl
    000016CE 72               [ 7] 3799 	ld	(hl), d
                                   3800 ;E:\Dropbox\FAUSTO\SVILUPPI\MSX\CODE\C\MSXgl\projects\exsoccer/exsoccer_s1_b2.c:716: g_Ball.Y = g_Players[playerId].Y - distY + BallAlignCorrectY[moveDir];
    000016CF DD 6E FA         [19] 3801 	ld	l, -6 (ix)
                                   3802 ;	spillPairReg hl
                                   3803 ;	spillPairReg hl
    000016D2 26 00            [ 7] 3804 	ld	h, #0x00
                                   3805 ;	spillPairReg hl
                                   3806 ;	spillPairReg hl
    000016D4 7B               [ 4] 3807 	ld	a, e
    000016D5 95               [ 4] 3808 	sub	a, l
    000016D6 5F               [ 4] 3809 	ld	e, a
    000016D7 7A               [ 4] 3810 	ld	a, d
    000016D8 9C               [ 4] 3811 	sbc	a, h
    000016D9 57               [ 4] 3812 	ld	d, a
    000016DA D5               [11] 3813 	push	de
    000016DB DD 5E F5         [19] 3814 	ld	e, -11 (ix)
    000016DE 16 00            [ 7] 3815 	ld	d, #0x00
    000016E0 21 1F 00         [10] 3816 	ld	hl, #31
    000016E3 39               [11] 3817 	add	hl, sp
    000016E4 19               [11] 3818 	add	hl, de
    000016E5 D1               [10] 3819 	pop	de
    000016E6 7E               [ 7] 3820 	ld	a, (hl)
    000016E7 6F               [ 4] 3821 	ld	l, a
                                   3822 ;	spillPairReg hl
                                   3823 ;	spillPairReg hl
    000016E8 07               [ 4] 3824 	rlca
    000016E9 9F               [ 4] 3825 	sbc	a, a
    000016EA 67               [ 4] 3826 	ld	h, a
                                   3827 ;	spillPairReg hl
                                   3828 ;	spillPairReg hl
    000016EB 19               [11] 3829 	add	hl, de
    000016EC EB               [ 4] 3830 	ex	de, hl
    000016ED ED 53r00r00      [20] 3831 	ld	(_g_Ball), de
                                   3832 ;E:\Dropbox\FAUSTO\SVILUPPI\MSX\CODE\C\MSXgl\projects\exsoccer/exsoccer_s1_b2.c:717: g_Ball.X = g_Players[playerId].X + BallAlignCorrectX[moveDir];
    000016F1 DD 6E FB         [19] 3833 	ld	l, -5 (ix)
    000016F4 DD 66 FC         [19] 3834 	ld	h, -4 (ix)
    000016F7 5E               [ 7] 3835 	ld	e, (hl)
    000016F8 23               [ 6] 3836 	inc	hl
    000016F9 56               [ 7] 3837 	ld	d, (hl)
    000016FA D5               [11] 3838 	push	de
    000016FB DD 5E F5         [19] 3839 	ld	e, -11 (ix)
    000016FE 16 00            [ 7] 3840 	ld	d, #0x00
    00001700 21 16 00         [10] 3841 	ld	hl, #22
    00001703 39               [11] 3842 	add	hl, sp
    00001704 19               [11] 3843 	add	hl, de
    00001705 D1               [10] 3844 	pop	de
    00001706 7E               [ 7] 3845 	ld	a, (hl)
    00001707 6F               [ 4] 3846 	ld	l, a
                                   3847 ;	spillPairReg hl
                                   3848 ;	spillPairReg hl
    00001708 07               [ 4] 3849 	rlca
    00001709 9F               [ 4] 3850 	sbc	a, a
    0000170A 67               [ 4] 3851 	ld	h, a
                                   3852 ;	spillPairReg hl
                                   3853 ;	spillPairReg hl
    0000170B 19               [11] 3854 	add	hl, de
    0000170C EB               [ 4] 3855 	ex	de, hl
    0000170D ED 53r02r00      [20] 3856 	ld	((_g_Ball + 2)), de
                                   3857 ;E:\Dropbox\FAUSTO\SVILUPPI\MSX\CODE\C\MSXgl\projects\exsoccer/exsoccer_s1_b2.c:718: break;
    00001711 C3r49r1A         [10] 3858 	jp	00219$
                                   3859 ;E:\Dropbox\FAUSTO\SVILUPPI\MSX\CODE\C\MSXgl\projects\exsoccer/exsoccer_s1_b2.c:719: case DIRECTION_DOWN:
    00001714                       3860 00212$:
                                   3861 ;E:\Dropbox\FAUSTO\SVILUPPI\MSX\CODE\C\MSXgl\projects\exsoccer/exsoccer_s1_b2.c:720: g_Players[playerId].Y += 2;
    00001714 DD 6E F1         [19] 3862 	ld	l, -15 (ix)
    00001717 DD 66 F2         [19] 3863 	ld	h, -14 (ix)
    0000171A 5E               [ 7] 3864 	ld	e, (hl)
    0000171B 23               [ 6] 3865 	inc	hl
    0000171C 56               [ 7] 3866 	ld	d, (hl)
    0000171D 13               [ 6] 3867 	inc	de
    0000171E 13               [ 6] 3868 	inc	de
    0000171F DD 6E F1         [19] 3869 	ld	l, -15 (ix)
    00001722 DD 66 F2         [19] 3870 	ld	h, -14 (ix)
    00001725 73               [ 7] 3871 	ld	(hl), e
    00001726 23               [ 6] 3872 	inc	hl
    00001727 72               [ 7] 3873 	ld	(hl), d
                                   3874 ;E:\Dropbox\FAUSTO\SVILUPPI\MSX\CODE\C\MSXgl\projects\exsoccer/exsoccer_s1_b2.c:721: g_Ball.Y = g_Players[playerId].Y + distY + BallAlignCorrectY[moveDir]+5;
    00001728 DD 6E FA         [19] 3875 	ld	l, -6 (ix)
                                   3876 ;	spillPairReg hl
                                   3877 ;	spillPairReg hl
    0000172B 26 00            [ 7] 3878 	ld	h, #0x00
                                   3879 ;	spillPairReg hl
                                   3880 ;	spillPairReg hl
    0000172D 19               [11] 3881 	add	hl, de
    0000172E E5               [11] 3882 	push	hl
    0000172F DD 5E F5         [19] 3883 	ld	e, -11 (ix)
    00001732 16 00            [ 7] 3884 	ld	d, #0x00
    00001734 21 1F 00         [10] 3885 	ld	hl, #31
    00001737 39               [11] 3886 	add	hl, sp
    00001738 19               [11] 3887 	add	hl, de
    00001739 D1               [10] 3888 	pop	de
    0000173A 7E               [ 7] 3889 	ld	a, (hl)
    0000173B 6F               [ 4] 3890 	ld	l, a
                                   3891 ;	spillPairReg hl
                                   3892 ;	spillPairReg hl
    0000173C 07               [ 4] 3893 	rlca
    0000173D 9F               [ 4] 3894 	sbc	a, a
    0000173E 67               [ 4] 3895 	ld	h, a
                                   3896 ;	spillPairReg hl
                                   3897 ;	spillPairReg hl
    0000173F 19               [11] 3898 	add	hl, de
    00001740 11 05 00         [10] 3899 	ld	de, #0x0005
    00001743 19               [11] 3900 	add	hl, de
    00001744 EB               [ 4] 3901 	ex	de, hl
    00001745 ED 53r00r00      [20] 3902 	ld	(_g_Ball), de
                                   3903 ;E:\Dropbox\FAUSTO\SVILUPPI\MSX\CODE\C\MSXgl\projects\exsoccer/exsoccer_s1_b2.c:722: g_Ball.X = g_Players[playerId].X + BallAlignCorrectX[moveDir];
    00001749 DD 6E FB         [19] 3904 	ld	l, -5 (ix)
    0000174C DD 66 FC         [19] 3905 	ld	h, -4 (ix)
    0000174F 5E               [ 7] 3906 	ld	e, (hl)
    00001750 23               [ 6] 3907 	inc	hl
    00001751 56               [ 7] 3908 	ld	d, (hl)
    00001752 D5               [11] 3909 	push	de
    00001753 DD 5E F5         [19] 3910 	ld	e, -11 (ix)
    00001756 16 00            [ 7] 3911 	ld	d, #0x00
    00001758 21 16 00         [10] 3912 	ld	hl, #22
    0000175B 39               [11] 3913 	add	hl, sp
    0000175C 19               [11] 3914 	add	hl, de
    0000175D D1               [10] 3915 	pop	de
    0000175E 7E               [ 7] 3916 	ld	a, (hl)
    0000175F 6F               [ 4] 3917 	ld	l, a
                                   3918 ;	spillPairReg hl
                                   3919 ;	spillPairReg hl
    00001760 07               [ 4] 3920 	rlca
    00001761 9F               [ 4] 3921 	sbc	a, a
    00001762 67               [ 4] 3922 	ld	h, a
                                   3923 ;	spillPairReg hl
                                   3924 ;	spillPairReg hl
    00001763 19               [11] 3925 	add	hl, de
    00001764 EB               [ 4] 3926 	ex	de, hl
    00001765 ED 53r02r00      [20] 3927 	ld	((_g_Ball + 2)), de
                                   3928 ;E:\Dropbox\FAUSTO\SVILUPPI\MSX\CODE\C\MSXgl\projects\exsoccer/exsoccer_s1_b2.c:723: break;
    00001769 C3r49r1A         [10] 3929 	jp	00219$
                                   3930 ;E:\Dropbox\FAUSTO\SVILUPPI\MSX\CODE\C\MSXgl\projects\exsoccer/exsoccer_s1_b2.c:724: case DIRECTION_LEFT:
    0000176C                       3931 00213$:
                                   3932 ;E:\Dropbox\FAUSTO\SVILUPPI\MSX\CODE\C\MSXgl\projects\exsoccer/exsoccer_s1_b2.c:725: g_Players[playerId].X -= 2;
    0000176C DD 6E FB         [19] 3933 	ld	l, -5 (ix)
    0000176F DD 66 FC         [19] 3934 	ld	h, -4 (ix)
    00001772 5E               [ 7] 3935 	ld	e, (hl)
    00001773 23               [ 6] 3936 	inc	hl
    00001774 56               [ 7] 3937 	ld	d, (hl)
    00001775 1B               [ 6] 3938 	dec	de
    00001776 1B               [ 6] 3939 	dec	de
    00001777 DD 6E FB         [19] 3940 	ld	l, -5 (ix)
    0000177A DD 66 FC         [19] 3941 	ld	h, -4 (ix)
    0000177D 73               [ 7] 3942 	ld	(hl), e
    0000177E 23               [ 6] 3943 	inc	hl
    0000177F 72               [ 7] 3944 	ld	(hl), d
                                   3945 ;E:\Dropbox\FAUSTO\SVILUPPI\MSX\CODE\C\MSXgl\projects\exsoccer/exsoccer_s1_b2.c:726: g_Ball.X = g_Players[playerId].X - distX + BallAlignCorrectX[moveDir];
    00001780 DD 6E FD         [19] 3946 	ld	l, -3 (ix)
                                   3947 ;	spillPairReg hl
                                   3948 ;	spillPairReg hl
    00001783 26 00            [ 7] 3949 	ld	h, #0x00
                                   3950 ;	spillPairReg hl
                                   3951 ;	spillPairReg hl
    00001785 7B               [ 4] 3952 	ld	a, e
    00001786 95               [ 4] 3953 	sub	a, l
    00001787 5F               [ 4] 3954 	ld	e, a
    00001788 7A               [ 4] 3955 	ld	a, d
    00001789 9C               [ 4] 3956 	sbc	a, h
    0000178A 57               [ 4] 3957 	ld	d, a
    0000178B D5               [11] 3958 	push	de
    0000178C DD 5E F5         [19] 3959 	ld	e, -11 (ix)
    0000178F 16 00            [ 7] 3960 	ld	d, #0x00
    00001791 21 16 00         [10] 3961 	ld	hl, #22
    00001794 39               [11] 3962 	add	hl, sp
    00001795 19               [11] 3963 	add	hl, de
    00001796 D1               [10] 3964 	pop	de
    00001797 7E               [ 7] 3965 	ld	a, (hl)
    00001798 6F               [ 4] 3966 	ld	l, a
                                   3967 ;	spillPairReg hl
                                   3968 ;	spillPairReg hl
    00001799 07               [ 4] 3969 	rlca
    0000179A 9F               [ 4] 3970 	sbc	a, a
    0000179B 67               [ 4] 3971 	ld	h, a
                                   3972 ;	spillPairReg hl
                                   3973 ;	spillPairReg hl
    0000179C 19               [11] 3974 	add	hl, de
    0000179D EB               [ 4] 3975 	ex	de, hl
    0000179E ED 53r02r00      [20] 3976 	ld	((_g_Ball + 2)), de
                                   3977 ;E:\Dropbox\FAUSTO\SVILUPPI\MSX\CODE\C\MSXgl\projects\exsoccer/exsoccer_s1_b2.c:727: g_Ball.Y = g_Players[playerId].Y + BallAlignCorrectY[moveDir]-4;
    000017A2 DD 6E F1         [19] 3978 	ld	l, -15 (ix)
    000017A5 DD 66 F2         [19] 3979 	ld	h, -14 (ix)
    000017A8 5E               [ 7] 3980 	ld	e, (hl)
    000017A9 23               [ 6] 3981 	inc	hl
    000017AA 56               [ 7] 3982 	ld	d, (hl)
    000017AB D5               [11] 3983 	push	de
    000017AC DD 5E F5         [19] 3984 	ld	e, -11 (ix)
    000017AF 16 00            [ 7] 3985 	ld	d, #0x00
    000017B1 21 1F 00         [10] 3986 	ld	hl, #31
    000017B4 39               [11] 3987 	add	hl, sp
    000017B5 19               [11] 3988 	add	hl, de
    000017B6 D1               [10] 3989 	pop	de
    000017B7 7E               [ 7] 3990 	ld	a, (hl)
    000017B8 6F               [ 4] 3991 	ld	l, a
                                   3992 ;	spillPairReg hl
                                   3993 ;	spillPairReg hl
    000017B9 07               [ 4] 3994 	rlca
    000017BA 9F               [ 4] 3995 	sbc	a, a
    000017BB 67               [ 4] 3996 	ld	h, a
                                   3997 ;	spillPairReg hl
                                   3998 ;	spillPairReg hl
    000017BC 19               [11] 3999 	add	hl, de
    000017BD 7D               [ 4] 4000 	ld	a, l
    000017BE C6 FC            [ 7] 4001 	add	a, #0xfc
    000017C0 5F               [ 4] 4002 	ld	e, a
    000017C1 7C               [ 4] 4003 	ld	a, h
    000017C2 CE FF            [ 7] 4004 	adc	a, #0xff
    000017C4 57               [ 4] 4005 	ld	d, a
    000017C5 ED 53r00r00      [20] 4006 	ld	(_g_Ball), de
                                   4007 ;E:\Dropbox\FAUSTO\SVILUPPI\MSX\CODE\C\MSXgl\projects\exsoccer/exsoccer_s1_b2.c:728: break;
    000017C9 C3r49r1A         [10] 4008 	jp	00219$
                                   4009 ;E:\Dropbox\FAUSTO\SVILUPPI\MSX\CODE\C\MSXgl\projects\exsoccer/exsoccer_s1_b2.c:729: case DIRECTION_RIGHT:
    000017CC                       4010 00214$:
                                   4011 ;E:\Dropbox\FAUSTO\SVILUPPI\MSX\CODE\C\MSXgl\projects\exsoccer/exsoccer_s1_b2.c:730: g_Players[playerId].X += 2;
    000017CC DD 6E FB         [19] 4012 	ld	l, -5 (ix)
    000017CF DD 66 FC         [19] 4013 	ld	h, -4 (ix)
    000017D2 5E               [ 7] 4014 	ld	e, (hl)
    000017D3 23               [ 6] 4015 	inc	hl
    000017D4 56               [ 7] 4016 	ld	d, (hl)
    000017D5 13               [ 6] 4017 	inc	de
    000017D6 13               [ 6] 4018 	inc	de
    000017D7 DD 6E FB         [19] 4019 	ld	l, -5 (ix)
    000017DA DD 66 FC         [19] 4020 	ld	h, -4 (ix)
    000017DD 73               [ 7] 4021 	ld	(hl), e
    000017DE 23               [ 6] 4022 	inc	hl
    000017DF 72               [ 7] 4023 	ld	(hl), d
                                   4024 ;E:\Dropbox\FAUSTO\SVILUPPI\MSX\CODE\C\MSXgl\projects\exsoccer/exsoccer_s1_b2.c:731: g_Ball.X = g_Players[playerId].X + distX + BallAlignCorrectX[moveDir];
    000017E0 DD 6E FD         [19] 4025 	ld	l, -3 (ix)
                                   4026 ;	spillPairReg hl
                                   4027 ;	spillPairReg hl
    000017E3 26 00            [ 7] 4028 	ld	h, #0x00
                                   4029 ;	spillPairReg hl
                                   4030 ;	spillPairReg hl
    000017E5 19               [11] 4031 	add	hl, de
    000017E6 E5               [11] 4032 	push	hl
    000017E7 DD 5E F5         [19] 4033 	ld	e, -11 (ix)
    000017EA 16 00            [ 7] 4034 	ld	d, #0x00
    000017EC 21 16 00         [10] 4035 	ld	hl, #22
    000017EF 39               [11] 4036 	add	hl, sp
    000017F0 19               [11] 4037 	add	hl, de
    000017F1 D1               [10] 4038 	pop	de
    000017F2 7E               [ 7] 4039 	ld	a, (hl)
    000017F3 6F               [ 4] 4040 	ld	l, a
                                   4041 ;	spillPairReg hl
                                   4042 ;	spillPairReg hl
    000017F4 07               [ 4] 4043 	rlca
    000017F5 9F               [ 4] 4044 	sbc	a, a
    000017F6 67               [ 4] 4045 	ld	h, a
                                   4046 ;	spillPairReg hl
                                   4047 ;	spillPairReg hl
    000017F7 19               [11] 4048 	add	hl, de
    000017F8 EB               [ 4] 4049 	ex	de, hl
    000017F9 ED 53r02r00      [20] 4050 	ld	((_g_Ball + 2)), de
                                   4051 ;E:\Dropbox\FAUSTO\SVILUPPI\MSX\CODE\C\MSXgl\projects\exsoccer/exsoccer_s1_b2.c:732: g_Ball.Y = g_Players[playerId].Y + BallAlignCorrectY[moveDir]-4;
    000017FD DD 6E F1         [19] 4052 	ld	l, -15 (ix)
    00001800 DD 66 F2         [19] 4053 	ld	h, -14 (ix)
    00001803 5E               [ 7] 4054 	ld	e, (hl)
    00001804 23               [ 6] 4055 	inc	hl
    00001805 56               [ 7] 4056 	ld	d, (hl)
    00001806 D5               [11] 4057 	push	de
    00001807 DD 5E F5         [19] 4058 	ld	e, -11 (ix)
    0000180A 16 00            [ 7] 4059 	ld	d, #0x00
    0000180C 21 1F 00         [10] 4060 	ld	hl, #31
    0000180F 39               [11] 4061 	add	hl, sp
    00001810 19               [11] 4062 	add	hl, de
    00001811 D1               [10] 4063 	pop	de
    00001812 7E               [ 7] 4064 	ld	a, (hl)
    00001813 6F               [ 4] 4065 	ld	l, a
                                   4066 ;	spillPairReg hl
                                   4067 ;	spillPairReg hl
    00001814 07               [ 4] 4068 	rlca
    00001815 9F               [ 4] 4069 	sbc	a, a
    00001816 67               [ 4] 4070 	ld	h, a
                                   4071 ;	spillPairReg hl
                                   4072 ;	spillPairReg hl
    00001817 19               [11] 4073 	add	hl, de
    00001818 7D               [ 4] 4074 	ld	a, l
    00001819 C6 FC            [ 7] 4075 	add	a, #0xfc
    0000181B 5F               [ 4] 4076 	ld	e, a
    0000181C 7C               [ 4] 4077 	ld	a, h
    0000181D CE FF            [ 7] 4078 	adc	a, #0xff
    0000181F 57               [ 4] 4079 	ld	d, a
    00001820 ED 53r00r00      [20] 4080 	ld	(_g_Ball), de
                                   4081 ;E:\Dropbox\FAUSTO\SVILUPPI\MSX\CODE\C\MSXgl\projects\exsoccer/exsoccer_s1_b2.c:733: break;
    00001824 C3r49r1A         [10] 4082 	jp	00219$
                                   4083 ;E:\Dropbox\FAUSTO\SVILUPPI\MSX\CODE\C\MSXgl\projects\exsoccer/exsoccer_s1_b2.c:734: case DIRECTION_UP_RIGHT:
    00001827                       4084 00215$:
                                   4085 ;E:\Dropbox\FAUSTO\SVILUPPI\MSX\CODE\C\MSXgl\projects\exsoccer/exsoccer_s1_b2.c:735: g_Players[playerId].Y -= diagStep;
    00001827 DD 6E F1         [19] 4086 	ld	l, -15 (ix)
    0000182A DD 66 F2         [19] 4087 	ld	h, -14 (ix)
    0000182D 7E               [ 7] 4088 	ld	a, (hl)
    0000182E 23               [ 6] 4089 	inc	hl
    0000182F 66               [ 7] 4090 	ld	h, (hl)
                                   4091 ;	spillPairReg hl
    00001830 6F               [ 4] 4092 	ld	l, a
                                   4093 ;	spillPairReg hl
                                   4094 ;	spillPairReg hl
    00001831 DD 5E F8         [19] 4095 	ld	e, -8 (ix)
    00001834 16 00            [ 7] 4096 	ld	d, #0x00
    00001836 BF               [ 4] 4097 	cp	a, a
    00001837 ED 52            [15] 4098 	sbc	hl, de
    00001839 E3               [19] 4099 	ex	(sp), hl
    0000183A DD 6E F1         [19] 4100 	ld	l, -15 (ix)
    0000183D DD 66 F2         [19] 4101 	ld	h, -14 (ix)
    00001840 DD 7E C3         [19] 4102 	ld	a, -61 (ix)
    00001843 77               [ 7] 4103 	ld	(hl), a
    00001844 23               [ 6] 4104 	inc	hl
    00001845 DD 7E C4         [19] 4105 	ld	a, -60 (ix)
    00001848 77               [ 7] 4106 	ld	(hl), a
                                   4107 ;E:\Dropbox\FAUSTO\SVILUPPI\MSX\CODE\C\MSXgl\projects\exsoccer/exsoccer_s1_b2.c:736: g_Players[playerId].X += diagStep;
    00001849 DD 6E FB         [19] 4108 	ld	l, -5 (ix)
    0000184C DD 66 FC         [19] 4109 	ld	h, -4 (ix)
    0000184F 7E               [ 7] 4110 	ld	a, (hl)
    00001850 23               [ 6] 4111 	inc	hl
    00001851 66               [ 7] 4112 	ld	h, (hl)
                                   4113 ;	spillPairReg hl
    00001852 6F               [ 4] 4114 	ld	l, a
                                   4115 ;	spillPairReg hl
                                   4116 ;	spillPairReg hl
    00001853 19               [11] 4117 	add	hl, de
    00001854 DD 75 F8         [19] 4118 	ld	-8 (ix), l
    00001857 DD 74 F9         [19] 4119 	ld	-7 (ix), h
    0000185A DD 6E FB         [19] 4120 	ld	l, -5 (ix)
    0000185D DD 66 FC         [19] 4121 	ld	h, -4 (ix)
    00001860 DD 7E F8         [19] 4122 	ld	a, -8 (ix)
    00001863 77               [ 7] 4123 	ld	(hl), a
    00001864 23               [ 6] 4124 	inc	hl
    00001865 DD 7E F9         [19] 4125 	ld	a, -7 (ix)
    00001868 77               [ 7] 4126 	ld	(hl), a
                                   4127 ;E:\Dropbox\FAUSTO\SVILUPPI\MSX\CODE\C\MSXgl\projects\exsoccer/exsoccer_s1_b2.c:737: g_Ball.Y = g_Players[playerId].Y - distY + BallAlignCorrectY[moveDir];
    00001869 DD 5E FA         [19] 4128 	ld	e, -6 (ix)
    0000186C 16 00            [ 7] 4129 	ld	d, #0x00
    0000186E E1               [10] 4130 	pop	hl
    0000186F E5               [11] 4131 	push	hl
    00001870 BF               [ 4] 4132 	cp	a, a
    00001871 ED 52            [15] 4133 	sbc	hl, de
    00001873 E5               [11] 4134 	push	hl
    00001874 DD 5E F5         [19] 4135 	ld	e, -11 (ix)
    00001877 16 00            [ 7] 4136 	ld	d, #0x00
    00001879 21 1F 00         [10] 4137 	ld	hl, #31
    0000187C 39               [11] 4138 	add	hl, sp
    0000187D 19               [11] 4139 	add	hl, de
    0000187E D1               [10] 4140 	pop	de
    0000187F 7E               [ 7] 4141 	ld	a, (hl)
    00001880 6F               [ 4] 4142 	ld	l, a
                                   4143 ;	spillPairReg hl
                                   4144 ;	spillPairReg hl
    00001881 07               [ 4] 4145 	rlca
    00001882 9F               [ 4] 4146 	sbc	a, a
    00001883 67               [ 4] 4147 	ld	h, a
                                   4148 ;	spillPairReg hl
                                   4149 ;	spillPairReg hl
    00001884 19               [11] 4150 	add	hl, de
    00001885 EB               [ 4] 4151 	ex	de, hl
    00001886 ED 53r00r00      [20] 4152 	ld	(_g_Ball), de
                                   4153 ;E:\Dropbox\FAUSTO\SVILUPPI\MSX\CODE\C\MSXgl\projects\exsoccer/exsoccer_s1_b2.c:738: g_Ball.X = g_Players[playerId].X + distX + BallAlignCorrectX[moveDir];
    0000188A DD 6E FD         [19] 4154 	ld	l, -3 (ix)
                                   4155 ;	spillPairReg hl
                                   4156 ;	spillPairReg hl
    0000188D 26 00            [ 7] 4157 	ld	h, #0x00
                                   4158 ;	spillPairReg hl
                                   4159 ;	spillPairReg hl
    0000188F DD 5E F8         [19] 4160 	ld	e, -8 (ix)
    00001892 DD 56 F9         [19] 4161 	ld	d, -7 (ix)
    00001895 19               [11] 4162 	add	hl, de
    00001896 E5               [11] 4163 	push	hl
    00001897 DD 5E F5         [19] 4164 	ld	e, -11 (ix)
    0000189A 16 00            [ 7] 4165 	ld	d, #0x00
    0000189C 21 16 00         [10] 4166 	ld	hl, #22
    0000189F 39               [11] 4167 	add	hl, sp
    000018A0 19               [11] 4168 	add	hl, de
    000018A1 D1               [10] 4169 	pop	de
    000018A2 7E               [ 7] 4170 	ld	a, (hl)
    000018A3 6F               [ 4] 4171 	ld	l, a
                                   4172 ;	spillPairReg hl
                                   4173 ;	spillPairReg hl
    000018A4 07               [ 4] 4174 	rlca
    000018A5 9F               [ 4] 4175 	sbc	a, a
    000018A6 67               [ 4] 4176 	ld	h, a
                                   4177 ;	spillPairReg hl
                                   4178 ;	spillPairReg hl
    000018A7 19               [11] 4179 	add	hl, de
    000018A8 EB               [ 4] 4180 	ex	de, hl
    000018A9 ED 53r02r00      [20] 4181 	ld	((_g_Ball + 2)), de
                                   4182 ;E:\Dropbox\FAUSTO\SVILUPPI\MSX\CODE\C\MSXgl\projects\exsoccer/exsoccer_s1_b2.c:739: break;
    000018AD C3r49r1A         [10] 4183 	jp	00219$
                                   4184 ;E:\Dropbox\FAUSTO\SVILUPPI\MSX\CODE\C\MSXgl\projects\exsoccer/exsoccer_s1_b2.c:740: case DIRECTION_UP_LEFT:
    000018B0                       4185 00216$:
                                   4186 ;E:\Dropbox\FAUSTO\SVILUPPI\MSX\CODE\C\MSXgl\projects\exsoccer/exsoccer_s1_b2.c:741: g_Players[playerId].Y -= diagStep;
    000018B0 DD 6E F1         [19] 4187 	ld	l, -15 (ix)
    000018B3 DD 66 F2         [19] 4188 	ld	h, -14 (ix)
    000018B6 7E               [ 7] 4189 	ld	a, (hl)
    000018B7 23               [ 6] 4190 	inc	hl
    000018B8 66               [ 7] 4191 	ld	h, (hl)
                                   4192 ;	spillPairReg hl
    000018B9 6F               [ 4] 4193 	ld	l, a
                                   4194 ;	spillPairReg hl
                                   4195 ;	spillPairReg hl
    000018BA DD 5E F8         [19] 4196 	ld	e, -8 (ix)
    000018BD 16 00            [ 7] 4197 	ld	d, #0x00
    000018BF BF               [ 4] 4198 	cp	a, a
    000018C0 ED 52            [15] 4199 	sbc	hl, de
    000018C2 E3               [19] 4200 	ex	(sp), hl
    000018C3 DD 6E F1         [19] 4201 	ld	l, -15 (ix)
    000018C6 DD 66 F2         [19] 4202 	ld	h, -14 (ix)
    000018C9 DD 7E C3         [19] 4203 	ld	a, -61 (ix)
    000018CC 77               [ 7] 4204 	ld	(hl), a
    000018CD 23               [ 6] 4205 	inc	hl
    000018CE DD 7E C4         [19] 4206 	ld	a, -60 (ix)
    000018D1 77               [ 7] 4207 	ld	(hl), a
                                   4208 ;E:\Dropbox\FAUSTO\SVILUPPI\MSX\CODE\C\MSXgl\projects\exsoccer/exsoccer_s1_b2.c:742: g_Players[playerId].X -= diagStep;
    000018D2 DD 6E FB         [19] 4209 	ld	l, -5 (ix)
    000018D5 DD 66 FC         [19] 4210 	ld	h, -4 (ix)
    000018D8 7E               [ 7] 4211 	ld	a, (hl)
    000018D9 23               [ 6] 4212 	inc	hl
    000018DA 66               [ 7] 4213 	ld	h, (hl)
                                   4214 ;	spillPairReg hl
    000018DB 6F               [ 4] 4215 	ld	l, a
                                   4216 ;	spillPairReg hl
                                   4217 ;	spillPairReg hl
    000018DC BF               [ 4] 4218 	cp	a, a
    000018DD ED 52            [15] 4219 	sbc	hl, de
    000018DF DD 75 F8         [19] 4220 	ld	-8 (ix), l
    000018E2 DD 74 F9         [19] 4221 	ld	-7 (ix), h
    000018E5 DD 6E FB         [19] 4222 	ld	l, -5 (ix)
    000018E8 DD 66 FC         [19] 4223 	ld	h, -4 (ix)
    000018EB DD 7E F8         [19] 4224 	ld	a, -8 (ix)
    000018EE 77               [ 7] 4225 	ld	(hl), a
    000018EF 23               [ 6] 4226 	inc	hl
    000018F0 DD 7E F9         [19] 4227 	ld	a, -7 (ix)
    000018F3 77               [ 7] 4228 	ld	(hl), a
                                   4229 ;E:\Dropbox\FAUSTO\SVILUPPI\MSX\CODE\C\MSXgl\projects\exsoccer/exsoccer_s1_b2.c:743: g_Ball.Y = g_Players[playerId].Y - distY + BallAlignCorrectY[moveDir];
    000018F4 DD 5E FA         [19] 4230 	ld	e, -6 (ix)
    000018F7 16 00            [ 7] 4231 	ld	d, #0x00
    000018F9 E1               [10] 4232 	pop	hl
    000018FA E5               [11] 4233 	push	hl
    000018FB BF               [ 4] 4234 	cp	a, a
    000018FC ED 52            [15] 4235 	sbc	hl, de
    000018FE E5               [11] 4236 	push	hl
    000018FF DD 5E F5         [19] 4237 	ld	e, -11 (ix)
    00001902 16 00            [ 7] 4238 	ld	d, #0x00
    00001904 21 1F 00         [10] 4239 	ld	hl, #31
    00001907 39               [11] 4240 	add	hl, sp
    00001908 19               [11] 4241 	add	hl, de
    00001909 D1               [10] 4242 	pop	de
    0000190A 7E               [ 7] 4243 	ld	a, (hl)
    0000190B 6F               [ 4] 4244 	ld	l, a
                                   4245 ;	spillPairReg hl
                                   4246 ;	spillPairReg hl
    0000190C 07               [ 4] 4247 	rlca
    0000190D 9F               [ 4] 4248 	sbc	a, a
    0000190E 67               [ 4] 4249 	ld	h, a
                                   4250 ;	spillPairReg hl
                                   4251 ;	spillPairReg hl
    0000190F 19               [11] 4252 	add	hl, de
    00001910 EB               [ 4] 4253 	ex	de, hl
    00001911 ED 53r00r00      [20] 4254 	ld	(_g_Ball), de
                                   4255 ;E:\Dropbox\FAUSTO\SVILUPPI\MSX\CODE\C\MSXgl\projects\exsoccer/exsoccer_s1_b2.c:744: g_Ball.X = g_Players[playerId].X - distX + BallAlignCorrectX[moveDir];
    00001915 DD 5E FD         [19] 4256 	ld	e, -3 (ix)
    00001918 16 00            [ 7] 4257 	ld	d, #0x00
    0000191A DD 6E F8         [19] 4258 	ld	l, -8 (ix)
                                   4259 ;	spillPairReg hl
                                   4260 ;	spillPairReg hl
    0000191D DD 66 F9         [19] 4261 	ld	h, -7 (ix)
                                   4262 ;	spillPairReg hl
                                   4263 ;	spillPairReg hl
    00001920 BF               [ 4] 4264 	cp	a, a
    00001921 ED 52            [15] 4265 	sbc	hl, de
    00001923 E5               [11] 4266 	push	hl
    00001924 DD 5E F5         [19] 4267 	ld	e, -11 (ix)
    00001927 16 00            [ 7] 4268 	ld	d, #0x00
    00001929 21 16 00         [10] 4269 	ld	hl, #22
    0000192C 39               [11] 4270 	add	hl, sp
    0000192D 19               [11] 4271 	add	hl, de
    0000192E D1               [10] 4272 	pop	de
    0000192F 7E               [ 7] 4273 	ld	a, (hl)
    00001930 6F               [ 4] 4274 	ld	l, a
                                   4275 ;	spillPairReg hl
                                   4276 ;	spillPairReg hl
    00001931 07               [ 4] 4277 	rlca
    00001932 9F               [ 4] 4278 	sbc	a, a
    00001933 67               [ 4] 4279 	ld	h, a
                                   4280 ;	spillPairReg hl
                                   4281 ;	spillPairReg hl
    00001934 19               [11] 4282 	add	hl, de
    00001935 EB               [ 4] 4283 	ex	de, hl
    00001936 ED 53r02r00      [20] 4284 	ld	((_g_Ball + 2)), de
                                   4285 ;E:\Dropbox\FAUSTO\SVILUPPI\MSX\CODE\C\MSXgl\projects\exsoccer/exsoccer_s1_b2.c:745: break;
    0000193A C3r49r1A         [10] 4286 	jp	00219$
                                   4287 ;E:\Dropbox\FAUSTO\SVILUPPI\MSX\CODE\C\MSXgl\projects\exsoccer/exsoccer_s1_b2.c:746: case DIRECTION_DOWN_RIGHT:
    0000193D                       4288 00217$:
                                   4289 ;E:\Dropbox\FAUSTO\SVILUPPI\MSX\CODE\C\MSXgl\projects\exsoccer/exsoccer_s1_b2.c:747: g_Players[playerId].Y += diagStep;
    0000193D DD 6E F1         [19] 4290 	ld	l, -15 (ix)
    00001940 DD 66 F2         [19] 4291 	ld	h, -14 (ix)
    00001943 7E               [ 7] 4292 	ld	a, (hl)
    00001944 23               [ 6] 4293 	inc	hl
    00001945 66               [ 7] 4294 	ld	h, (hl)
                                   4295 ;	spillPairReg hl
    00001946 6F               [ 4] 4296 	ld	l, a
                                   4297 ;	spillPairReg hl
                                   4298 ;	spillPairReg hl
    00001947 DD 5E F8         [19] 4299 	ld	e, -8 (ix)
    0000194A 16 00            [ 7] 4300 	ld	d, #0x00
    0000194C 19               [11] 4301 	add	hl, de
    0000194D E3               [19] 4302 	ex	(sp), hl
    0000194E DD 6E F1         [19] 4303 	ld	l, -15 (ix)
    00001951 DD 66 F2         [19] 4304 	ld	h, -14 (ix)
    00001954 DD 7E C3         [19] 4305 	ld	a, -61 (ix)
    00001957 77               [ 7] 4306 	ld	(hl), a
    00001958 23               [ 6] 4307 	inc	hl
    00001959 DD 7E C4         [19] 4308 	ld	a, -60 (ix)
    0000195C 77               [ 7] 4309 	ld	(hl), a
                                   4310 ;E:\Dropbox\FAUSTO\SVILUPPI\MSX\CODE\C\MSXgl\projects\exsoccer/exsoccer_s1_b2.c:748: g_Players[playerId].X += diagStep;
    0000195D DD 6E FB         [19] 4311 	ld	l, -5 (ix)
    00001960 DD 66 FC         [19] 4312 	ld	h, -4 (ix)
    00001963 7E               [ 7] 4313 	ld	a, (hl)
    00001964 23               [ 6] 4314 	inc	hl
    00001965 66               [ 7] 4315 	ld	h, (hl)
                                   4316 ;	spillPairReg hl
    00001966 6F               [ 4] 4317 	ld	l, a
                                   4318 ;	spillPairReg hl
                                   4319 ;	spillPairReg hl
    00001967 19               [11] 4320 	add	hl, de
    00001968 DD 75 F8         [19] 4321 	ld	-8 (ix), l
    0000196B DD 74 F9         [19] 4322 	ld	-7 (ix), h
    0000196E DD 6E FB         [19] 4323 	ld	l, -5 (ix)
    00001971 DD 66 FC         [19] 4324 	ld	h, -4 (ix)
    00001974 DD 7E F8         [19] 4325 	ld	a, -8 (ix)
    00001977 77               [ 7] 4326 	ld	(hl), a
    00001978 23               [ 6] 4327 	inc	hl
    00001979 DD 7E F9         [19] 4328 	ld	a, -7 (ix)
    0000197C 77               [ 7] 4329 	ld	(hl), a
                                   4330 ;E:\Dropbox\FAUSTO\SVILUPPI\MSX\CODE\C\MSXgl\projects\exsoccer/exsoccer_s1_b2.c:749: g_Ball.Y = g_Players[playerId].Y + distY + BallAlignCorrectY[moveDir];
    0000197D DD 6E FA         [19] 4331 	ld	l, -6 (ix)
                                   4332 ;	spillPairReg hl
                                   4333 ;	spillPairReg hl
    00001980 26 00            [ 7] 4334 	ld	h, #0x00
                                   4335 ;	spillPairReg hl
                                   4336 ;	spillPairReg hl
    00001982 D1               [10] 4337 	pop	de
    00001983 D5               [11] 4338 	push	de
    00001984 19               [11] 4339 	add	hl, de
    00001985 E5               [11] 4340 	push	hl
    00001986 DD 5E F5         [19] 4341 	ld	e, -11 (ix)
    00001989 16 00            [ 7] 4342 	ld	d, #0x00
    0000198B 21 1F 00         [10] 4343 	ld	hl, #31
    0000198E 39               [11] 4344 	add	hl, sp
    0000198F 19               [11] 4345 	add	hl, de
    00001990 D1               [10] 4346 	pop	de
    00001991 7E               [ 7] 4347 	ld	a, (hl)
    00001992 6F               [ 4] 4348 	ld	l, a
                                   4349 ;	spillPairReg hl
                                   4350 ;	spillPairReg hl
    00001993 07               [ 4] 4351 	rlca
    00001994 9F               [ 4] 4352 	sbc	a, a
    00001995 67               [ 4] 4353 	ld	h, a
                                   4354 ;	spillPairReg hl
                                   4355 ;	spillPairReg hl
    00001996 19               [11] 4356 	add	hl, de
    00001997 EB               [ 4] 4357 	ex	de, hl
    00001998 ED 53r00r00      [20] 4358 	ld	(_g_Ball), de
                                   4359 ;E:\Dropbox\FAUSTO\SVILUPPI\MSX\CODE\C\MSXgl\projects\exsoccer/exsoccer_s1_b2.c:750: g_Ball.X = g_Players[playerId].X + distX + BallAlignCorrectX[moveDir];
    0000199C DD 6E FD         [19] 4360 	ld	l, -3 (ix)
                                   4361 ;	spillPairReg hl
                                   4362 ;	spillPairReg hl
    0000199F 26 00            [ 7] 4363 	ld	h, #0x00
                                   4364 ;	spillPairReg hl
                                   4365 ;	spillPairReg hl
    000019A1 DD 5E F8         [19] 4366 	ld	e, -8 (ix)
    000019A4 DD 56 F9         [19] 4367 	ld	d, -7 (ix)
    000019A7 19               [11] 4368 	add	hl, de
    000019A8 E5               [11] 4369 	push	hl
    000019A9 DD 5E F5         [19] 4370 	ld	e, -11 (ix)
    000019AC 16 00            [ 7] 4371 	ld	d, #0x00
    000019AE 21 16 00         [10] 4372 	ld	hl, #22
    000019B1 39               [11] 4373 	add	hl, sp
    000019B2 19               [11] 4374 	add	hl, de
    000019B3 D1               [10] 4375 	pop	de
    000019B4 7E               [ 7] 4376 	ld	a, (hl)
    000019B5 6F               [ 4] 4377 	ld	l, a
                                   4378 ;	spillPairReg hl
                                   4379 ;	spillPairReg hl
    000019B6 07               [ 4] 4380 	rlca
    000019B7 9F               [ 4] 4381 	sbc	a, a
    000019B8 67               [ 4] 4382 	ld	h, a
                                   4383 ;	spillPairReg hl
                                   4384 ;	spillPairReg hl
    000019B9 19               [11] 4385 	add	hl, de
    000019BA EB               [ 4] 4386 	ex	de, hl
    000019BB ED 53r02r00      [20] 4387 	ld	((_g_Ball + 2)), de
                                   4388 ;E:\Dropbox\FAUSTO\SVILUPPI\MSX\CODE\C\MSXgl\projects\exsoccer/exsoccer_s1_b2.c:751: break;
    000019BF C3r49r1A         [10] 4389 	jp	00219$
                                   4390 ;E:\Dropbox\FAUSTO\SVILUPPI\MSX\CODE\C\MSXgl\projects\exsoccer/exsoccer_s1_b2.c:752: case DIRECTION_DOWN_LEFT:
    000019C2                       4391 00218$:
                                   4392 ;E:\Dropbox\FAUSTO\SVILUPPI\MSX\CODE\C\MSXgl\projects\exsoccer/exsoccer_s1_b2.c:753: g_Players[playerId].Y += diagStep;
    000019C2 DD 6E F1         [19] 4393 	ld	l, -15 (ix)
    000019C5 DD 66 F2         [19] 4394 	ld	h, -14 (ix)
    000019C8 5E               [ 7] 4395 	ld	e, (hl)
    000019C9 23               [ 6] 4396 	inc	hl
    000019CA 56               [ 7] 4397 	ld	d, (hl)
    000019CB DD 6E F8         [19] 4398 	ld	l, -8 (ix)
                                   4399 ;	spillPairReg hl
                                   4400 ;	spillPairReg hl
    000019CE 26 00            [ 7] 4401 	ld	h, #0x00
                                   4402 ;	spillPairReg hl
                                   4403 ;	spillPairReg hl
    000019D0 DD 75 F8         [19] 4404 	ld	-8 (ix), l
    000019D3 DD 74 F9         [19] 4405 	ld	-7 (ix), h
    000019D6 19               [11] 4406 	add	hl, de
    000019D7 EB               [ 4] 4407 	ex	de, hl
    000019D8 DD 6E F1         [19] 4408 	ld	l, -15 (ix)
    000019DB DD 66 F2         [19] 4409 	ld	h, -14 (ix)
    000019DE 73               [ 7] 4410 	ld	(hl), e
    000019DF 23               [ 6] 4411 	inc	hl
    000019E0 72               [ 7] 4412 	ld	(hl), d
                                   4413 ;E:\Dropbox\FAUSTO\SVILUPPI\MSX\CODE\C\MSXgl\projects\exsoccer/exsoccer_s1_b2.c:754: g_Players[playerId].X -= diagStep;
    000019E1 DD 6E FB         [19] 4414 	ld	l, -5 (ix)
    000019E4 DD 66 FC         [19] 4415 	ld	h, -4 (ix)
    000019E7 7E               [ 7] 4416 	ld	a, (hl)
    000019E8 23               [ 6] 4417 	inc	hl
    000019E9 66               [ 7] 4418 	ld	h, (hl)
                                   4419 ;	spillPairReg hl
                                   4420 ;	spillPairReg hl
                                   4421 ;	spillPairReg hl
    000019EA DD 96 F8         [19] 4422 	sub	a, -8 (ix)
    000019ED 6F               [ 4] 4423 	ld	l, a
                                   4424 ;	spillPairReg hl
                                   4425 ;	spillPairReg hl
    000019EE 7C               [ 4] 4426 	ld	a, h
    000019EF DD 9E F9         [19] 4427 	sbc	a, -7 (ix)
    000019F2 DD 75 F8         [19] 4428 	ld	-8 (ix), l
    000019F5 DD 77 F9         [19] 4429 	ld	-7 (ix), a
    000019F8 DD 6E FB         [19] 4430 	ld	l, -5 (ix)
    000019FB DD 66 FC         [19] 4431 	ld	h, -4 (ix)
    000019FE DD 7E F8         [19] 4432 	ld	a, -8 (ix)
    00001A01 77               [ 7] 4433 	ld	(hl), a
    00001A02 23               [ 6] 4434 	inc	hl
    00001A03 DD 7E F9         [19] 4435 	ld	a, -7 (ix)
    00001A06 77               [ 7] 4436 	ld	(hl), a
                                   4437 ;E:\Dropbox\FAUSTO\SVILUPPI\MSX\CODE\C\MSXgl\projects\exsoccer/exsoccer_s1_b2.c:755: g_Ball.Y = g_Players[playerId].Y + distY + BallAlignCorrectY[moveDir];
    00001A07 DD 6E FA         [19] 4438 	ld	l, -6 (ix)
                                   4439 ;	spillPairReg hl
                                   4440 ;	spillPairReg hl
    00001A0A 26 00            [ 7] 4441 	ld	h, #0x00
                                   4442 ;	spillPairReg hl
                                   4443 ;	spillPairReg hl
    00001A0C 19               [11] 4444 	add	hl, de
    00001A0D E5               [11] 4445 	push	hl
    00001A0E DD 5E F5         [19] 4446 	ld	e, -11 (ix)
    00001A11 16 00            [ 7] 4447 	ld	d, #0x00
    00001A13 21 1F 00         [10] 4448 	ld	hl, #31
    00001A16 39               [11] 4449 	add	hl, sp
    00001A17 19               [11] 4450 	add	hl, de
    00001A18 D1               [10] 4451 	pop	de
    00001A19 7E               [ 7] 4452 	ld	a, (hl)
    00001A1A 6F               [ 4] 4453 	ld	l, a
                                   4454 ;	spillPairReg hl
                                   4455 ;	spillPairReg hl
    00001A1B 07               [ 4] 4456 	rlca
    00001A1C 9F               [ 4] 4457 	sbc	a, a
    00001A1D 67               [ 4] 4458 	ld	h, a
                                   4459 ;	spillPairReg hl
                                   4460 ;	spillPairReg hl
    00001A1E 19               [11] 4461 	add	hl, de
    00001A1F EB               [ 4] 4462 	ex	de, hl
    00001A20 ED 53r00r00      [20] 4463 	ld	(_g_Ball), de
                                   4464 ;E:\Dropbox\FAUSTO\SVILUPPI\MSX\CODE\C\MSXgl\projects\exsoccer/exsoccer_s1_b2.c:756: g_Ball.X = g_Players[playerId].X - distX + BallAlignCorrectX[moveDir];
    00001A24 DD 5E FD         [19] 4465 	ld	e, -3 (ix)
    00001A27 16 00            [ 7] 4466 	ld	d, #0x00
    00001A29 DD 6E F8         [19] 4467 	ld	l, -8 (ix)
                                   4468 ;	spillPairReg hl
                                   4469 ;	spillPairReg hl
    00001A2C DD 66 F9         [19] 4470 	ld	h, -7 (ix)
                                   4471 ;	spillPairReg hl
                                   4472 ;	spillPairReg hl
    00001A2F BF               [ 4] 4473 	cp	a, a
    00001A30 ED 52            [15] 4474 	sbc	hl, de
    00001A32 E5               [11] 4475 	push	hl
    00001A33 DD 5E F5         [19] 4476 	ld	e, -11 (ix)
    00001A36 16 00            [ 7] 4477 	ld	d, #0x00
    00001A38 21 16 00         [10] 4478 	ld	hl, #22
    00001A3B 39               [11] 4479 	add	hl, sp
    00001A3C 19               [11] 4480 	add	hl, de
    00001A3D D1               [10] 4481 	pop	de
    00001A3E 7E               [ 7] 4482 	ld	a, (hl)
    00001A3F 6F               [ 4] 4483 	ld	l, a
                                   4484 ;	spillPairReg hl
                                   4485 ;	spillPairReg hl
    00001A40 07               [ 4] 4486 	rlca
    00001A41 9F               [ 4] 4487 	sbc	a, a
    00001A42 67               [ 4] 4488 	ld	h, a
                                   4489 ;	spillPairReg hl
                                   4490 ;	spillPairReg hl
    00001A43 19               [11] 4491 	add	hl, de
    00001A44 EB               [ 4] 4492 	ex	de, hl
    00001A45 ED 53r02r00      [20] 4493 	ld	((_g_Ball + 2)), de
                                   4494 ;E:\Dropbox\FAUSTO\SVILUPPI\MSX\CODE\C\MSXgl\projects\exsoccer/exsoccer_s1_b2.c:758: }
    00001A49                       4495 00219$:
                                   4496 ;E:\Dropbox\FAUSTO\SVILUPPI\MSX\CODE\C\MSXgl\projects\exsoccer/exsoccer_s1_b2.c:759: g_Players[playerId].TargetY=g_Players[playerId].Y;
    00001A49 DD 7E F1         [19] 4497 	ld	a, -15 (ix)
    00001A4C C6 0E            [ 7] 4498 	add	a, #0x0e
    00001A4E DD 77 F9         [19] 4499 	ld	-7 (ix), a
    00001A51 DD 7E F2         [19] 4500 	ld	a, -14 (ix)
    00001A54 CE 00            [ 7] 4501 	adc	a, #0x00
    00001A56 DD 77 FA         [19] 4502 	ld	-6 (ix), a
    00001A59 DD 6E F1         [19] 4503 	ld	l, -15 (ix)
    00001A5C DD 66 F2         [19] 4504 	ld	h, -14 (ix)
    00001A5F 5E               [ 7] 4505 	ld	e, (hl)
    00001A60 23               [ 6] 4506 	inc	hl
    00001A61 56               [ 7] 4507 	ld	d, (hl)
    00001A62 DD 6E F9         [19] 4508 	ld	l, -7 (ix)
    00001A65 DD 66 FA         [19] 4509 	ld	h, -6 (ix)
    00001A68 73               [ 7] 4510 	ld	(hl), e
    00001A69 23               [ 6] 4511 	inc	hl
    00001A6A 72               [ 7] 4512 	ld	(hl), d
                                   4513 ;E:\Dropbox\FAUSTO\SVILUPPI\MSX\CODE\C\MSXgl\projects\exsoccer/exsoccer_s1_b2.c:760: g_Players[playerId].TargetX=g_Players[playerId].X;
    00001A6B DD 7E F1         [19] 4514 	ld	a, -15 (ix)
    00001A6E C6 10            [ 7] 4515 	add	a, #0x10
    00001A70 DD 77 F9         [19] 4516 	ld	-7 (ix), a
    00001A73 DD 7E F2         [19] 4517 	ld	a, -14 (ix)
    00001A76 CE 00            [ 7] 4518 	adc	a, #0x00
    00001A78 DD 77 FA         [19] 4519 	ld	-6 (ix), a
    00001A7B DD 6E FB         [19] 4520 	ld	l, -5 (ix)
    00001A7E DD 66 FC         [19] 4521 	ld	h, -4 (ix)
    00001A81 5E               [ 7] 4522 	ld	e, (hl)
    00001A82 23               [ 6] 4523 	inc	hl
    00001A83 56               [ 7] 4524 	ld	d, (hl)
    00001A84 DD 6E F9         [19] 4525 	ld	l, -7 (ix)
    00001A87 DD 66 FA         [19] 4526 	ld	h, -6 (ix)
    00001A8A 73               [ 7] 4527 	ld	(hl), e
    00001A8B 23               [ 6] 4528 	inc	hl
    00001A8C 72               [ 7] 4529 	ld	(hl), d
                                   4530 ;E:\Dropbox\FAUSTO\SVILUPPI\MSX\CODE\C\MSXgl\projects\exsoccer/exsoccer_s1_b2.c:761: g_Players[playerId].Status=PLAYER_STATUS_HAS_BALL; 
    00001A8D DD 6E F3         [19] 4531 	ld	l, -13 (ix)
    00001A90 DD 66 F4         [19] 4532 	ld	h, -12 (ix)
    00001A93 36 01            [10] 4533 	ld	(hl), #0x01
    00001A95 23               [ 6] 4534 	inc	hl
    00001A96 36 00            [10] 4535 	ld	(hl), #0x00
                                   4536 ;E:\Dropbox\FAUSTO\SVILUPPI\MSX\CODE\C\MSXgl\projects\exsoccer/exsoccer_s1_b2.c:762: g_Players[playerId].Direction=moveDir;
    00001A98 DD 7E F1         [19] 4537 	ld	a, -15 (ix)
    00001A9B C6 0A            [ 7] 4538 	add	a, #0x0a
    00001A9D 5F               [ 4] 4539 	ld	e, a
    00001A9E DD 7E F2         [19] 4540 	ld	a, -14 (ix)
    00001AA1 CE 00            [ 7] 4541 	adc	a, #0x00
    00001AA3 57               [ 4] 4542 	ld	d, a
    00001AA4 DD 7E F5         [19] 4543 	ld	a, -11 (ix)
    00001AA7 12               [ 7] 4544 	ld	(de), a
                                   4545 ;E:\Dropbox\FAUSTO\SVILUPPI\MSX\CODE\C\MSXgl\projects\exsoccer/exsoccer_s1_b2.c:764: g_Players[playerId].PatternId=GetNoMovingPlayerPatternId(g_Players[playerId].PreviousDirection);
    00001AA8 DD 7E F1         [19] 4546 	ld	a, -15 (ix)
    00001AAB C6 08            [ 7] 4547 	add	a, #0x08
    00001AAD DD 77 FC         [19] 4548 	ld	-4 (ix), a
    00001AB0 DD 7E F2         [19] 4549 	ld	a, -14 (ix)
    00001AB3 CE 00            [ 7] 4550 	adc	a, #0x00
    00001AB5 DD 77 FD         [19] 4551 	ld	-3 (ix), a
    00001AB8 DD 6E F6         [19] 4552 	ld	l, -10 (ix)
    00001ABB DD 66 F7         [19] 4553 	ld	h, -9 (ix)
    00001ABE 6E               [ 7] 4554 	ld	l, (hl)
                                   4555 ;	spillPairReg hl
    00001ABF C5               [11] 4556 	push	bc
    00001AC0 D5               [11] 4557 	push	de
    00001AC1 7D               [ 4] 4558 	ld	a, l
    00001AC2 CDr00r00         [17] 4559 	call	_GetNoMovingPlayerPatternId
    00001AC5 D1               [10] 4560 	pop	de
    00001AC6 C1               [10] 4561 	pop	bc
    00001AC7 DD 6E FC         [19] 4562 	ld	l, -4 (ix)
    00001ACA DD 66 FD         [19] 4563 	ld	h, -3 (ix)
    00001ACD 77               [ 7] 4564 	ld	(hl), a
                                   4565 ;E:\Dropbox\FAUSTO\SVILUPPI\MSX\CODE\C\MSXgl\projects\exsoccer/exsoccer_s1_b2.c:765: g_Players[playerId].PreviousDirection=g_Players[playerId].Direction;
    00001ACE 1A               [ 7] 4566 	ld	a, (de)
    00001ACF DD 6E F6         [19] 4567 	ld	l, -10 (ix)
    00001AD2 DD 66 F7         [19] 4568 	ld	h, -9 (ix)
    00001AD5 77               [ 7] 4569 	ld	(hl), a
                                   4570 ;E:\Dropbox\FAUSTO\SVILUPPI\MSX\CODE\C\MSXgl\projects\exsoccer/exsoccer_s1_b2.c:767: g_Ball.Direction = moveDir;
    00001AD6 21r05r00         [10] 4571 	ld	hl, #(_g_Ball + 5)
    00001AD9 DD 7E F5         [19] 4572 	ld	a, -11 (ix)
    00001ADC 77               [ 7] 4573 	ld	(hl), a
                                   4574 ;E:\Dropbox\FAUSTO\SVILUPPI\MSX\CODE\C\MSXgl\projects\exsoccer/exsoccer_s1_b2.c:769: g_Ball.KickMoveState++;
    00001ADD 0A               [ 7] 4575 	ld	a, (bc)
    00001ADE 3C               [ 4] 4576 	inc	a
    00001ADF 5F               [ 4] 4577 	ld	e, a
    00001AE0 02               [ 7] 4578 	ld	(bc), a
                                   4579 ;E:\Dropbox\FAUSTO\SVILUPPI\MSX\CODE\C\MSXgl\projects\exsoccer/exsoccer_s1_b2.c:770: if(g_Ball.KickMoveState>3){
    00001AE1 3E 03            [ 7] 4580 	ld	a, #0x03
    00001AE3 93               [ 4] 4581 	sub	a, e
    00001AE4 D2rE0r1C         [10] 4582 	jp	NC, 00261$
                                   4583 ;E:\Dropbox\FAUSTO\SVILUPPI\MSX\CODE\C\MSXgl\projects\exsoccer/exsoccer_s1_b2.c:771: g_Ball.KickMoveState=0;
    00001AE7 AF               [ 4] 4584 	xor	a, a
    00001AE8 02               [ 7] 4585 	ld	(bc), a
    00001AE9 C3rE0r1C         [10] 4586 	jp	00261$
    00001AEC                       4587 00259$:
                                   4588 ;E:\Dropbox\FAUSTO\SVILUPPI\MSX\CODE\C\MSXgl\projects\exsoccer/exsoccer_s1_b2.c:778: if (frameTriggerPressed) {
    00001AEC DD 7E C4         [19] 4589 	ld	a, -60 (ix)
    00001AEF B7               [ 4] 4590 	or	a, a
    00001AF0 CAr9Br1B         [10] 4591 	jp	Z, 00244$
                                   4592 ;E:\Dropbox\FAUSTO\SVILUPPI\MSX\CODE\C\MSXgl\projects\exsoccer/exsoccer_s1_b2.c:779: i16 dx = (i16)g_Players[playerId].X - (i16)g_Ball.X;
    00001AF3 DD 6E F1         [19] 4593 	ld	l, -15 (ix)
                                   4594 ;	spillPairReg hl
                                   4595 ;	spillPairReg hl
    00001AF6 DD 66 F2         [19] 4596 	ld	h, -14 (ix)
                                   4597 ;	spillPairReg hl
                                   4598 ;	spillPairReg hl
    00001AF9 23               [ 6] 4599 	inc	hl
    00001AFA 23               [ 6] 4600 	inc	hl
    00001AFB 4E               [ 7] 4601 	ld	c, (hl)
    00001AFC 23               [ 6] 4602 	inc	hl
    00001AFD 46               [ 7] 4603 	ld	b, (hl)
    00001AFE 2Ar02r00         [16] 4604 	ld	hl, (#_g_Ball + 2)
    00001B01 79               [ 4] 4605 	ld	a, c
    00001B02 95               [ 4] 4606 	sub	a, l
    00001B03 4F               [ 4] 4607 	ld	c, a
    00001B04 78               [ 4] 4608 	ld	a, b
    00001B05 9C               [ 4] 4609 	sbc	a, h
    00001B06 47               [ 4] 4610 	ld	b, a
                                   4611 ;E:\Dropbox\FAUSTO\SVILUPPI\MSX\CODE\C\MSXgl\projects\exsoccer/exsoccer_s1_b2.c:780: i16 dy = (i16)g_Players[playerId].Y - (i16)g_Ball.Y;
    00001B07 DD 6E F1         [19] 4612 	ld	l, -15 (ix)
    00001B0A DD 66 F2         [19] 4613 	ld	h, -14 (ix)
    00001B0D 5E               [ 7] 4614 	ld	e, (hl)
    00001B0E 23               [ 6] 4615 	inc	hl
    00001B0F 56               [ 7] 4616 	ld	d, (hl)
    00001B10 2Ar00r00         [16] 4617 	ld	hl, (#_g_Ball + 0)
    00001B13 7B               [ 4] 4618 	ld	a, e
    00001B14 95               [ 4] 4619 	sub	a, l
    00001B15 5F               [ 4] 4620 	ld	e, a
    00001B16 7A               [ 4] 4621 	ld	a, d
    00001B17 9C               [ 4] 4622 	sbc	a, h
    00001B18 57               [ 4] 4623 	ld	d, a
                                   4624 ;E:\Dropbox\FAUSTO\SVILUPPI\MSX\CODE\C\MSXgl\projects\exsoccer/exsoccer_s1_b2.c:783: if (dx > -16 && dx < 16 && dy > -16 && dy < 16) {
    00001B19 3E F0            [ 7] 4625 	ld	a, #0xf0
    00001B1B B9               [ 4] 4626 	cp	a, c
    00001B1C 3E FF            [ 7] 4627 	ld	a, #0xff
    00001B1E 98               [ 4] 4628 	sbc	a, b
    00001B1F E2r24r1B         [10] 4629 	jp	PO, 00780$
    00001B22 EE 80            [ 7] 4630 	xor	a, #0x80
    00001B24                       4631 00780$:
    00001B24 F2r9Br1B         [10] 4632 	jp	P, 00244$
    00001B27 79               [ 4] 4633 	ld	a, c
    00001B28 D6 10            [ 7] 4634 	sub	a, #0x10
    00001B2A 78               [ 4] 4635 	ld	a, b
    00001B2B 17               [ 4] 4636 	rla
    00001B2C 3F               [ 4] 4637 	ccf
    00001B2D 1F               [ 4] 4638 	rra
    00001B2E DE 80            [ 7] 4639 	sbc	a, #0x80
    00001B30 30 69            [12] 4640 	jr	NC, 00244$
    00001B32 3E F0            [ 7] 4641 	ld	a, #0xf0
    00001B34 BB               [ 4] 4642 	cp	a, e
    00001B35 3E FF            [ 7] 4643 	ld	a, #0xff
    00001B37 9A               [ 4] 4644 	sbc	a, d
    00001B38 E2r3Dr1B         [10] 4645 	jp	PO, 00781$
    00001B3B EE 80            [ 7] 4646 	xor	a, #0x80
    00001B3D                       4647 00781$:
    00001B3D F2r9Br1B         [10] 4648 	jp	P, 00244$
    00001B40 7B               [ 4] 4649 	ld	a, e
    00001B41 D6 10            [ 7] 4650 	sub	a, #0x10
    00001B43 7A               [ 4] 4651 	ld	a, d
    00001B44 17               [ 4] 4652 	rla
    00001B45 3F               [ 4] 4653 	ccf
    00001B46 1F               [ 4] 4654 	rra
    00001B47 DE 80            [ 7] 4655 	sbc	a, #0x80
    00001B49 30 50            [12] 4656 	jr	NC, 00244$
                                   4657 ;E:\Dropbox\FAUSTO\SVILUPPI\MSX\CODE\C\MSXgl\projects\exsoccer/exsoccer_s1_b2.c:794: if (dx < 0) slidePose = PLAYER_POSE_TACKLE_FROM_UP_LEFT;    // UP-LEFT -> Slides towards Bottom-Right?
    00001B4B 78               [ 4] 4658 	ld	a, b
    00001B4C 07               [ 4] 4659 	rlca
    00001B4D E6 01            [ 7] 4660 	and	a,#0x01
    00001B4F 4F               [ 4] 4661 	ld	c, a
                                   4662 ;E:\Dropbox\FAUSTO\SVILUPPI\MSX\CODE\C\MSXgl\projects\exsoccer/exsoccer_s1_b2.c:792: if (dy < 0) {
    00001B50 CB 7A            [ 8] 4663 	bit	7, d
    00001B52 28 0E            [12] 4664 	jr	Z, 00232$
                                   4665 ;E:\Dropbox\FAUSTO\SVILUPPI\MSX\CODE\C\MSXgl\projects\exsoccer/exsoccer_s1_b2.c:794: if (dx < 0) slidePose = PLAYER_POSE_TACKLE_FROM_UP_LEFT;    // UP-LEFT -> Slides towards Bottom-Right?
    00001B54 79               [ 4] 4666 	ld	a, c
    00001B55 B7               [ 4] 4667 	or	a, a
    00001B56 28 05            [12] 4668 	jr	Z, 00226$
    00001B58 06 24            [ 7] 4669 	ld	b, #0x24
    00001B5A C3r6Dr1B         [10] 4670 	jp	00233$
    00001B5D                       4671 00226$:
                                   4672 ;E:\Dropbox\FAUSTO\SVILUPPI\MSX\CODE\C\MSXgl\projects\exsoccer/exsoccer_s1_b2.c:795: else        slidePose = PLAYER_POSE_TACKLE_FROM_UP_RIGHT;   // UP-RIGHT -> Slides towards Bottom-Left?
    00001B5D 06 AC            [ 7] 4673 	ld	b, #0xac
    00001B5F C3r6Dr1B         [10] 4674 	jp	00233$
    00001B62                       4675 00232$:
                                   4676 ;E:\Dropbox\FAUSTO\SVILUPPI\MSX\CODE\C\MSXgl\projects\exsoccer/exsoccer_s1_b2.c:798: if (dx < 0) slidePose = PLAYER_POSE_TACKLE_FROM_DOWN_LEFT;  // DOWN-LEFT -> Slides towards Top-Right?
    00001B62 79               [ 4] 4677 	ld	a, c
    00001B63 B7               [ 4] 4678 	or	a, a
    00001B64 28 05            [12] 4679 	jr	Z, 00229$
    00001B66 06 22            [ 7] 4680 	ld	b, #0x22
    00001B68 C3r6Dr1B         [10] 4681 	jp	00233$
    00001B6B                       4682 00229$:
                                   4683 ;E:\Dropbox\FAUSTO\SVILUPPI\MSX\CODE\C\MSXgl\projects\exsoccer/exsoccer_s1_b2.c:799: else        slidePose = PLAYER_POSE_TACKLE_FROM_DOWN_RIGHT; // DOWN-RIGHT -> Slides towards Top-Left?
    00001B6B 06 AE            [ 7] 4684 	ld	b, #0xae
    00001B6D                       4685 00233$:
                                   4686 ;E:\Dropbox\FAUSTO\SVILUPPI\MSX\CODE\C\MSXgl\projects\exsoccer/exsoccer_s1_b2.c:802: if (slidePose != 0) {
    00001B6D 78               [ 4] 4687 	ld	a, b
    00001B6E B7               [ 4] 4688 	or	a, a
    00001B6F 28 0B            [12] 4689 	jr	Z, 00235$
                                   4690 ;E:\Dropbox\FAUSTO\SVILUPPI\MSX\CODE\C\MSXgl\projects\exsoccer/exsoccer_s1_b2.c:803: g_Players[playerId].PatternId = slidePose;
    00001B71 DD 6E F1         [19] 4691 	ld	l, -15 (ix)
    00001B74 DD 66 F2         [19] 4692 	ld	h, -14 (ix)
    00001B77 11 08 00         [10] 4693 	ld	de, #0x0008
    00001B7A 19               [11] 4694 	add	hl, de
    00001B7B 70               [ 7] 4695 	ld	(hl), b
    00001B7C                       4696 00235$:
                                   4697 ;E:\Dropbox\FAUSTO\SVILUPPI\MSX\CODE\C\MSXgl\projects\exsoccer/exsoccer_s1_b2.c:807: PutBallOnPlayerFeet(playerId);
    00001B7C C5               [11] 4698 	push	bc
    00001B7D DD 7E FD         [19] 4699 	ld	a, -3 (ix)
    00001B80 CDrF7r1C         [17] 4700 	call	_PutBallOnPlayerFeet
    00001B83 C1               [10] 4701 	pop	bc
                                   4702 ;E:\Dropbox\FAUSTO\SVILUPPI\MSX\CODE\C\MSXgl\projects\exsoccer/exsoccer_s1_b2.c:809: if (slidePose != 0) {
    00001B84 78               [ 4] 4703 	ld	a, b
    00001B85 B7               [ 4] 4704 	or	a, a
    00001B86 28 0B            [12] 4705 	jr	Z, 00237$
                                   4706 ;E:\Dropbox\FAUSTO\SVILUPPI\MSX\CODE\C\MSXgl\projects\exsoccer/exsoccer_s1_b2.c:810: g_Players[playerId].Status = PLAYER_STATUS_POSITIONED; // Lock visual (Override HAS_BALL)
    00001B88 DD 6E F3         [19] 4707 	ld	l, -13 (ix)
    00001B8B DD 66 F4         [19] 4708 	ld	h, -12 (ix)
    00001B8E 36 04            [10] 4709 	ld	(hl), #0x04
    00001B90 23               [ 6] 4710 	inc	hl
    00001B91 36 00            [10] 4711 	ld	(hl), #0x00
    00001B93                       4712 00237$:
                                   4713 ;E:\Dropbox\FAUSTO\SVILUPPI\MSX\CODE\C\MSXgl\projects\exsoccer/exsoccer_s1_b2.c:813: g_ActionCooldown = 15; // Set 15 frames cooldown to avoid immediate pass
    00001B93 21r00r00         [10] 4714 	ld	hl, #_g_ActionCooldown
    00001B96 36 0F            [10] 4715 	ld	(hl), #0x0f
                                   4716 ;E:\Dropbox\FAUSTO\SVILUPPI\MSX\CODE\C\MSXgl\projects\exsoccer/exsoccer_s1_b2.c:814: return;
    00001B98 C3rE0r1C         [10] 4717 	jp	00261$
    00001B9B                       4718 00244$:
                                   4719 ;E:\Dropbox\FAUSTO\SVILUPPI\MSX\CODE\C\MSXgl\projects\exsoccer/exsoccer_s1_b2.c:818: if((g_FrameCounter % 3)!=0){ 
    00001B9B 2Ar00r00         [16] 4720 	ld	hl, (_g_FrameCounter)
    00001B9E 11 03 00         [10] 4721 	ld	de, #0x0003
    00001BA1 CDr00r00         [17] 4722 	call	__moduint
    00001BA4 7A               [ 4] 4723 	ld	a, d
    00001BA5 B3               [ 4] 4724 	or	a, e
                                   4725 ;E:\Dropbox\FAUSTO\SVILUPPI\MSX\CODE\C\MSXgl\projects\exsoccer/exsoccer_s1_b2.c:819: return;
    00001BA6 C2rE0r1C         [10] 4726 	jp	NZ,00261$
                                   4727 ;E:\Dropbox\FAUSTO\SVILUPPI\MSX\CODE\C\MSXgl\projects\exsoccer/exsoccer_s1_b2.c:557: i16 dx = (i16)g_Players[playerId].X - (i16)g_Ball.X;
    00001BA9 DD 7E F1         [19] 4728 	ld	a, -15 (ix)
    00001BAC C6 02            [ 7] 4729 	add	a, #0x02
    00001BAE DD 77 FC         [19] 4730 	ld	-4 (ix), a
    00001BB1 DD 7E F2         [19] 4731 	ld	a, -14 (ix)
    00001BB4 CE 00            [ 7] 4732 	adc	a, #0x00
    00001BB6 DD 77 FD         [19] 4733 	ld	-3 (ix), a
                                   4734 ;E:\Dropbox\FAUSTO\SVILUPPI\MSX\CODE\C\MSXgl\projects\exsoccer/exsoccer_s1_b2.c:825: if (direction <= 8) {
    00001BB9 3E 08            [ 7] 4735 	ld	a, #0x08
    00001BBB DD 96 FE         [19] 4736 	sub	a, -2 (ix)
    00001BBE 38 44            [12] 4737 	jr	C, 00248$
                                   4738 ;E:\Dropbox\FAUSTO\SVILUPPI\MSX\CODE\C\MSXgl\projects\exsoccer/exsoccer_s1_b2.c:826: g_Players[playerId].X += k_MoveDX[direction];
    00001BC0 DD 6E FC         [19] 4739 	ld	l, -4 (ix)
    00001BC3 DD 66 FD         [19] 4740 	ld	h, -3 (ix)
    00001BC6 4E               [ 7] 4741 	ld	c, (hl)
    00001BC7 23               [ 6] 4742 	inc	hl
    00001BC8 46               [ 7] 4743 	ld	b, (hl)
    00001BC9 11rE5r1C         [10] 4744 	ld	de, #_TickTeamJoystick_k_MoveDX_131075_1292+0
    00001BCC DD 6E FE         [19] 4745 	ld	l, -2 (ix)
    00001BCF 26 00            [ 7] 4746 	ld	h, #0x00
    00001BD1 19               [11] 4747 	add	hl, de
    00001BD2 7E               [ 7] 4748 	ld	a, (hl)
    00001BD3 6F               [ 4] 4749 	ld	l, a
                                   4750 ;	spillPairReg hl
                                   4751 ;	spillPairReg hl
    00001BD4 07               [ 4] 4752 	rlca
    00001BD5 9F               [ 4] 4753 	sbc	a, a
    00001BD6 67               [ 4] 4754 	ld	h, a
                                   4755 ;	spillPairReg hl
                                   4756 ;	spillPairReg hl
    00001BD7 09               [11] 4757 	add	hl, bc
    00001BD8 EB               [ 4] 4758 	ex	de, hl
    00001BD9 DD 6E FC         [19] 4759 	ld	l, -4 (ix)
    00001BDC DD 66 FD         [19] 4760 	ld	h, -3 (ix)
    00001BDF 73               [ 7] 4761 	ld	(hl), e
    00001BE0 23               [ 6] 4762 	inc	hl
    00001BE1 72               [ 7] 4763 	ld	(hl), d
                                   4764 ;E:\Dropbox\FAUSTO\SVILUPPI\MSX\CODE\C\MSXgl\projects\exsoccer/exsoccer_s1_b2.c:827: g_Players[playerId].Y += k_MoveDY[direction];
    00001BE2 DD 6E F1         [19] 4765 	ld	l, -15 (ix)
    00001BE5 DD 66 F2         [19] 4766 	ld	h, -14 (ix)
    00001BE8 4E               [ 7] 4767 	ld	c, (hl)
    00001BE9 23               [ 6] 4768 	inc	hl
    00001BEA 46               [ 7] 4769 	ld	b, (hl)
    00001BEB 11rEEr1C         [10] 4770 	ld	de, #_TickTeamJoystick_k_MoveDY_131075_1292+0
    00001BEE DD 6E FE         [19] 4771 	ld	l, -2 (ix)
    00001BF1 26 00            [ 7] 4772 	ld	h, #0x00
    00001BF3 19               [11] 4773 	add	hl, de
    00001BF4 7E               [ 7] 4774 	ld	a, (hl)
    00001BF5 6F               [ 4] 4775 	ld	l, a
                                   4776 ;	spillPairReg hl
                                   4777 ;	spillPairReg hl
    00001BF6 07               [ 4] 4778 	rlca
    00001BF7 9F               [ 4] 4779 	sbc	a, a
    00001BF8 67               [ 4] 4780 	ld	h, a
                                   4781 ;	spillPairReg hl
                                   4782 ;	spillPairReg hl
    00001BF9 09               [11] 4783 	add	hl, bc
    00001BFA EB               [ 4] 4784 	ex	de, hl
    00001BFB DD 6E F1         [19] 4785 	ld	l, -15 (ix)
    00001BFE DD 66 F2         [19] 4786 	ld	h, -14 (ix)
    00001C01 73               [ 7] 4787 	ld	(hl), e
    00001C02 23               [ 6] 4788 	inc	hl
    00001C03 72               [ 7] 4789 	ld	(hl), d
    00001C04                       4790 00248$:
                                   4791 ;E:\Dropbox\FAUSTO\SVILUPPI\MSX\CODE\C\MSXgl\projects\exsoccer/exsoccer_s1_b2.c:831: if(g_Players[playerId].Y < FIELD_BOUND_Y_TOP) g_Players[playerId].Y = FIELD_BOUND_Y_TOP;
    00001C04 DD 6E F1         [19] 4792 	ld	l, -15 (ix)
    00001C07 DD 66 F2         [19] 4793 	ld	h, -14 (ix)
    00001C0A 4E               [ 7] 4794 	ld	c, (hl)
    00001C0B 23               [ 6] 4795 	inc	hl
    00001C0C 46               [ 7] 4796 	ld	b, (hl)
    00001C0D 79               [ 4] 4797 	ld	a, c
    00001C0E D6 32            [ 7] 4798 	sub	a, #0x32
    00001C10 78               [ 4] 4799 	ld	a, b
    00001C11 DE 00            [ 7] 4800 	sbc	a, #0x00
    00001C13 30 0B            [12] 4801 	jr	NC, 00250$
    00001C15 DD 6E F1         [19] 4802 	ld	l, -15 (ix)
    00001C18 DD 66 F2         [19] 4803 	ld	h, -14 (ix)
    00001C1B 36 32            [10] 4804 	ld	(hl), #0x32
    00001C1D 23               [ 6] 4805 	inc	hl
    00001C1E 36 00            [10] 4806 	ld	(hl), #0x00
    00001C20                       4807 00250$:
                                   4808 ;E:\Dropbox\FAUSTO\SVILUPPI\MSX\CODE\C\MSXgl\projects\exsoccer/exsoccer_s1_b2.c:832: if(g_Players[playerId].Y > FIELD_BOUND_Y_BOTTOM) g_Players[playerId].Y = FIELD_BOUND_Y_BOTTOM;
    00001C20 DD 6E F1         [19] 4809 	ld	l, -15 (ix)
    00001C23 DD 66 F2         [19] 4810 	ld	h, -14 (ix)
    00001C26 4E               [ 7] 4811 	ld	c, (hl)
    00001C27 23               [ 6] 4812 	inc	hl
    00001C28 46               [ 7] 4813 	ld	b, (hl)
    00001C29 3E AE            [ 7] 4814 	ld	a, #0xae
    00001C2B B9               [ 4] 4815 	cp	a, c
    00001C2C 3E 01            [ 7] 4816 	ld	a, #0x01
    00001C2E 98               [ 4] 4817 	sbc	a, b
    00001C2F 30 0B            [12] 4818 	jr	NC, 00252$
    00001C31 DD 6E F1         [19] 4819 	ld	l, -15 (ix)
    00001C34 DD 66 F2         [19] 4820 	ld	h, -14 (ix)
    00001C37 36 AE            [10] 4821 	ld	(hl), #0xae
    00001C39 23               [ 6] 4822 	inc	hl
    00001C3A 36 01            [10] 4823 	ld	(hl), #0x01
    00001C3C                       4824 00252$:
                                   4825 ;E:\Dropbox\FAUSTO\SVILUPPI\MSX\CODE\C\MSXgl\projects\exsoccer/exsoccer_s1_b2.c:834: g_Players[playerId].TargetY=g_Players[playerId].Y;
    00001C3C DD 7E F1         [19] 4826 	ld	a, -15 (ix)
    00001C3F C6 0E            [ 7] 4827 	add	a, #0x0e
    00001C41 4F               [ 4] 4828 	ld	c, a
    00001C42 DD 7E F2         [19] 4829 	ld	a, -14 (ix)
    00001C45 CE 00            [ 7] 4830 	adc	a, #0x00
    00001C47 47               [ 4] 4831 	ld	b, a
    00001C48 DD 6E F1         [19] 4832 	ld	l, -15 (ix)
    00001C4B DD 66 F2         [19] 4833 	ld	h, -14 (ix)
    00001C4E 5E               [ 7] 4834 	ld	e, (hl)
    00001C4F 23               [ 6] 4835 	inc	hl
    00001C50 56               [ 7] 4836 	ld	d, (hl)
    00001C51 7B               [ 4] 4837 	ld	a, e
    00001C52 02               [ 7] 4838 	ld	(bc), a
    00001C53 03               [ 6] 4839 	inc	bc
    00001C54 7A               [ 4] 4840 	ld	a, d
    00001C55 02               [ 7] 4841 	ld	(bc), a
                                   4842 ;E:\Dropbox\FAUSTO\SVILUPPI\MSX\CODE\C\MSXgl\projects\exsoccer/exsoccer_s1_b2.c:835: g_Players[playerId].TargetX=g_Players[playerId].X;
    00001C56 DD 7E F1         [19] 4843 	ld	a, -15 (ix)
    00001C59 C6 10            [ 7] 4844 	add	a, #0x10
    00001C5B 4F               [ 4] 4845 	ld	c, a
    00001C5C DD 7E F2         [19] 4846 	ld	a, -14 (ix)
    00001C5F CE 00            [ 7] 4847 	adc	a, #0x00
    00001C61 47               [ 4] 4848 	ld	b, a
    00001C62 DD 6E FC         [19] 4849 	ld	l, -4 (ix)
    00001C65 DD 66 FD         [19] 4850 	ld	h, -3 (ix)
    00001C68 5E               [ 7] 4851 	ld	e, (hl)
    00001C69 23               [ 6] 4852 	inc	hl
    00001C6A 56               [ 7] 4853 	ld	d, (hl)
    00001C6B 7B               [ 4] 4854 	ld	a, e
    00001C6C 02               [ 7] 4855 	ld	(bc), a
    00001C6D 03               [ 6] 4856 	inc	bc
    00001C6E 7A               [ 4] 4857 	ld	a, d
    00001C6F 02               [ 7] 4858 	ld	(bc), a
                                   4859 ;E:\Dropbox\FAUSTO\SVILUPPI\MSX\CODE\C\MSXgl\projects\exsoccer/exsoccer_s1_b2.c:669: if(g_Players[playerId].PreviousDirection!=DIRECTION_NONE){
    00001C70 DD 7E F1         [19] 4860 	ld	a, -15 (ix)
    00001C73 C6 0B            [ 7] 4861 	add	a, #0x0b
    00001C75 DD 77 FC         [19] 4862 	ld	-4 (ix), a
    00001C78 DD 7E F2         [19] 4863 	ld	a, -14 (ix)
    00001C7B CE 00            [ 7] 4864 	adc	a, #0x00
    00001C7D DD 77 FD         [19] 4865 	ld	-3 (ix), a
                                   4866 ;E:\Dropbox\FAUSTO\SVILUPPI\MSX\CODE\C\MSXgl\projects\exsoccer/exsoccer_s1_b2.c:836: if(direction==DIRECTION_NONE){
    00001C80 DD 7E FE         [19] 4867 	ld	a, -2 (ix)
    00001C83 B7               [ 4] 4868 	or	a, a
    00001C84 20 38            [12] 4869 	jr	NZ, 00256$
                                   4870 ;E:\Dropbox\FAUSTO\SVILUPPI\MSX\CODE\C\MSXgl\projects\exsoccer/exsoccer_s1_b2.c:837: g_Players[playerId].Status=PLAYER_STATUS_POSITIONED;
    00001C86 DD 6E F3         [19] 4871 	ld	l, -13 (ix)
    00001C89 DD 66 F4         [19] 4872 	ld	h, -12 (ix)
    00001C8C 36 04            [10] 4873 	ld	(hl), #0x04
    00001C8E 23               [ 6] 4874 	inc	hl
    00001C8F 36 00            [10] 4875 	ld	(hl), #0x00
                                   4876 ;E:\Dropbox\FAUSTO\SVILUPPI\MSX\CODE\C\MSXgl\projects\exsoccer/exsoccer_s1_b2.c:838: if(g_Players[playerId].PreviousDirection!=DIRECTION_NONE){
    00001C91 DD 6E FC         [19] 4877 	ld	l, -4 (ix)
    00001C94 DD 66 FD         [19] 4878 	ld	h, -3 (ix)
    00001C97 7E               [ 7] 4879 	ld	a, (hl)
    00001C98 DD 77 F9         [19] 4880 	ld	-7 (ix), a
    00001C9B B7               [ 4] 4881 	or	a, a
    00001C9C 28 2A            [12] 4882 	jr	Z, 00257$
                                   4883 ;E:\Dropbox\FAUSTO\SVILUPPI\MSX\CODE\C\MSXgl\projects\exsoccer/exsoccer_s1_b2.c:839: g_Players[playerId].PatternId=GetNoMovingPlayerPatternId(g_Players[playerId].PreviousDirection);
    00001C9E DD 7E F1         [19] 4884 	ld	a, -15 (ix)
    00001CA1 C6 08            [ 7] 4885 	add	a, #0x08
    00001CA3 DD 77 FA         [19] 4886 	ld	-6 (ix), a
    00001CA6 DD 7E F2         [19] 4887 	ld	a, -14 (ix)
    00001CA9 CE 00            [ 7] 4888 	adc	a, #0x00
    00001CAB DD 77 FB         [19] 4889 	ld	-5 (ix), a
    00001CAE DD 7E F9         [19] 4890 	ld	a, -7 (ix)
    00001CB1 CDr00r00         [17] 4891 	call	_GetNoMovingPlayerPatternId
    00001CB4 DD 6E FA         [19] 4892 	ld	l, -6 (ix)
    00001CB7 DD 66 FB         [19] 4893 	ld	h, -5 (ix)
    00001CBA 77               [ 7] 4894 	ld	(hl), a
    00001CBB C3rC8r1C         [10] 4895 	jp	00257$
    00001CBE                       4896 00256$:
                                   4897 ;E:\Dropbox\FAUSTO\SVILUPPI\MSX\CODE\C\MSXgl\projects\exsoccer/exsoccer_s1_b2.c:844: g_Players[playerId].Status=PLAYER_STATUS_NONE;
    00001CBE DD 6E F3         [19] 4898 	ld	l, -13 (ix)
    00001CC1 DD 66 F4         [19] 4899 	ld	h, -12 (ix)
    00001CC4 AF               [ 4] 4900 	xor	a, a
    00001CC5 77               [ 7] 4901 	ld	(hl), a
    00001CC6 23               [ 6] 4902 	inc	hl
    00001CC7 77               [ 7] 4903 	ld	(hl), a
    00001CC8                       4904 00257$:
                                   4905 ;E:\Dropbox\FAUSTO\SVILUPPI\MSX\CODE\C\MSXgl\projects\exsoccer/exsoccer_s1_b2.c:847: g_Players[playerId].Direction=direction;
    00001CC8 DD 6E F1         [19] 4906 	ld	l, -15 (ix)
    00001CCB DD 66 F2         [19] 4907 	ld	h, -14 (ix)
    00001CCE 11 0A 00         [10] 4908 	ld	de, #0x000a
    00001CD1 19               [11] 4909 	add	hl, de
    00001CD2 DD 7E FE         [19] 4910 	ld	a, -2 (ix)
    00001CD5 77               [ 7] 4911 	ld	(hl), a
                                   4912 ;E:\Dropbox\FAUSTO\SVILUPPI\MSX\CODE\C\MSXgl\projects\exsoccer/exsoccer_s1_b2.c:848: g_Players[playerId].PreviousDirection=g_Players[playerId].Direction;
    00001CD6 DD 6E FC         [19] 4913 	ld	l, -4 (ix)
    00001CD9 DD 66 FD         [19] 4914 	ld	h, -3 (ix)
    00001CDC DD 7E FE         [19] 4915 	ld	a, -2 (ix)
    00001CDF 77               [ 7] 4916 	ld	(hl), a
    00001CE0                       4917 00261$:
                                   4918 ;E:\Dropbox\FAUSTO\SVILUPPI\MSX\CODE\C\MSXgl\projects\exsoccer/exsoccer_s1_b2.c:853: }
    00001CE0 DD F9            [10] 4919 	ld	sp, ix
    00001CE2 DD E1            [14] 4920 	pop	ix
    00001CE4 C9               [10] 4921 	ret
    00001CE5                       4922 _TickTeamJoystick_k_MoveDX_131075_1292:
    00001CE5 00                    4923 	.db #0x00	;  0
    00001CE6 00                    4924 	.db #0x00	;  0
    00001CE7 02                    4925 	.db #0x02	;  2
    00001CE8 02                    4926 	.db #0x02	;  2
    00001CE9 02                    4927 	.db #0x02	;  2
    00001CEA 00                    4928 	.db #0x00	;  0
    00001CEB FE                    4929 	.db #0xfe	; -2
    00001CEC FE                    4930 	.db #0xfe	; -2
    00001CED FE                    4931 	.db #0xfe	; -2
    00001CEE                       4932 _TickTeamJoystick_k_MoveDY_131075_1292:
    00001CEE 00                    4933 	.db #0x00	;  0
    00001CEF FE                    4934 	.db #0xfe	; -2
    00001CF0 FE                    4935 	.db #0xfe	; -2
    00001CF1 00                    4936 	.db #0x00	;  0
    00001CF2 02                    4937 	.db #0x02	;  2
    00001CF3 02                    4938 	.db #0x02	;  2
    00001CF4 02                    4939 	.db #0x02	;  2
    00001CF5 00                    4940 	.db #0x00	;  0
    00001CF6 FE                    4941 	.db #0xfe	; -2
                                   4942 ;E:\Dropbox\FAUSTO\SVILUPPI\MSX\CODE\C\MSXgl\projects\exsoccer/exsoccer_s1_b2.c:855: void PutBallOnPlayerFeet(u8 playerId){
                                   4943 ;	---------------------------------
                                   4944 ; Function PutBallOnPlayerFeet
                                   4945 ; ---------------------------------
    00001CF7                       4946 _PutBallOnPlayerFeet::
    00001CF7 DD E5            [15] 4947 	push	ix
    00001CF9 DD 21 00 00      [14] 4948 	ld	ix,#0
    00001CFD DD 39            [15] 4949 	add	ix,sp
    00001CFF 21 C9 FF         [10] 4950 	ld	hl, #-55
    00001D02 39               [11] 4951 	add	hl, sp
    00001D03 F9               [ 6] 4952 	ld	sp, hl
    00001D04 4F               [ 4] 4953 	ld	c, a
                                   4954 ;E:\Dropbox\FAUSTO\SVILUPPI\MSX\CODE\C\MSXgl\projects\exsoccer/exsoccer_s1_b2.c:857: if (g_Ball.PossessionPlayerId != playerId) {
    00001D05 21r06r00         [10] 4955 	ld	hl, #(_g_Ball + 6)
    00001D08 46               [ 7] 4956 	ld	b, (hl)
                                   4957 ;E:\Dropbox\FAUSTO\SVILUPPI\MSX\CODE\C\MSXgl\projects\exsoccer/exsoccer_s1_b2.c:859: g_Ball.LastTouchTeamId=g_Players[playerId].TeamId;
    00001D09 59               [ 4] 4958 	ld	e, c
    00001D0A 16 00            [ 7] 4959 	ld	d, #0x00
    00001D0C 6B               [ 4] 4960 	ld	l, e
    00001D0D 62               [ 4] 4961 	ld	h, d
    00001D0E 29               [11] 4962 	add	hl, hl
    00001D0F 29               [11] 4963 	add	hl, hl
    00001D10 19               [11] 4964 	add	hl, de
    00001D11 29               [11] 4965 	add	hl, hl
    00001D12 29               [11] 4966 	add	hl, hl
    00001D13 19               [11] 4967 	add	hl, de
    00001D14 EB               [ 4] 4968 	ex	de, hl
                                   4969 ;E:\Dropbox\FAUSTO\SVILUPPI\MSX\CODE\C\MSXgl\projects\exsoccer/exsoccer_s1_b2.c:857: if (g_Ball.PossessionPlayerId != playerId) {
    00001D15 79               [ 4] 4970 	ld	a, c
    00001D16 90               [ 4] 4971 	sub	a, b
    00001D17 28 39            [12] 4972 	jr	Z, 00104$
                                   4973 ;E:\Dropbox\FAUSTO\SVILUPPI\MSX\CODE\C\MSXgl\projects\exsoccer/exsoccer_s1_b2.c:858: g_Ball.PossessionPlayerId=playerId;
    00001D19 21r06r00         [10] 4974 	ld	hl, #(_g_Ball + 6)
    00001D1C 71               [ 7] 4975 	ld	(hl), c
                                   4976 ;E:\Dropbox\FAUSTO\SVILUPPI\MSX\CODE\C\MSXgl\projects\exsoccer/exsoccer_s1_b2.c:859: g_Ball.LastTouchTeamId=g_Players[playerId].TeamId;
    00001D1D FD 21r00r00      [14] 4977 	ld	iy, #_g_Players
    00001D21 FD 19            [15] 4978 	add	iy, de
    00001D23 FD 7E 09         [19] 4979 	ld	a, 9 (iy)
    00001D26 32r0Er00         [13] 4980 	ld	(#(_g_Ball + 14)),a
                                   4981 ;E:\Dropbox\FAUSTO\SVILUPPI\MSX\CODE\C\MSXgl\projects\exsoccer/exsoccer_s1_b2.c:860: g_Ball.PassTargetPlayerId = NO_VALUE; // Clear any pending pass
    00001D29 21r10r00         [10] 4982 	ld	hl, #(_g_Ball + 16)
    00001D2C 36 FF            [10] 4983 	ld	(hl), #0xff
                                   4984 ;E:\Dropbox\FAUSTO\SVILUPPI\MSX\CODE\C\MSXgl\projects\exsoccer/exsoccer_s1_b2.c:861: g_Ball.ShotActive = 0; // Clear any pending shot
    00001D2E 21r1Br00         [10] 4985 	ld	hl, #(_g_Ball + 27)
    00001D31 36 00            [10] 4986 	ld	(hl), #0x00
                                   4987 ;E:\Dropbox\FAUSTO\SVILUPPI\MSX\CODE\C\MSXgl\projects\exsoccer/exsoccer_s1_b2.c:862: SetPlayerBallPossession(g_Ball.PossessionPlayerId);
    00001D33 D5               [11] 4988 	push	de
    00001D34 79               [ 4] 4989 	ld	a, c
    00001D35 CDr00r00         [17] 4990 	call	_SetPlayerBallPossession
    00001D38 D1               [10] 4991 	pop	de
                                   4992 ;E:\Dropbox\FAUSTO\SVILUPPI\MSX\CODE\C\MSXgl\projects\exsoccer/exsoccer_s1_b2.c:865: g_ActionCooldown = 8;
    00001D39 FD 21r00r00      [14] 4993 	ld	iy, #_g_ActionCooldown
    00001D3D FD 36 00 08      [19] 4994 	ld	0 (iy), #0x08
                                   4995 ;E:\Dropbox\FAUSTO\SVILUPPI\MSX\CODE\C\MSXgl\projects\exsoccer/exsoccer_s1_b2.c:867: if (g_Ball.ComingFromRestart) {
    00001D41 01r1Dr00         [10] 4996 	ld	bc, #_g_Ball + 29
    00001D44 0A               [ 7] 4997 	ld	a, (bc)
    00001D45 B7               [ 4] 4998 	or	a, a
    00001D46 28 0A            [12] 4999 	jr	Z, 00104$
                                   5000 ;E:\Dropbox\FAUSTO\SVILUPPI\MSX\CODE\C\MSXgl\projects\exsoccer/exsoccer_s1_b2.c:868: g_ShootCooldown = 45; // 0.75s ban on shooting after restart
    00001D48 FD 21r00r00      [14] 5001 	ld	iy, #_g_ShootCooldown
    00001D4C FD 36 00 2D      [19] 5002 	ld	0 (iy), #0x2d
                                   5003 ;E:\Dropbox\FAUSTO\SVILUPPI\MSX\CODE\C\MSXgl\projects\exsoccer/exsoccer_s1_b2.c:869: g_Ball.ComingFromRestart = 0;
    00001D50 AF               [ 4] 5004 	xor	a, a
    00001D51 02               [ 7] 5005 	ld	(bc), a
    00001D52                       5006 00104$:
                                   5007 ;E:\Dropbox\FAUSTO\SVILUPPI\MSX\CODE\C\MSXgl\projects\exsoccer/exsoccer_s1_b2.c:875: const u8 BallBaseDistX[] = { 0, 0, 4, 6, 4, 0, 4, 6, 4 };
    00001D52 DD 36 C9 00      [19] 5008 	ld	-55 (ix), #0x00
    00001D56 DD 36 CA 00      [19] 5009 	ld	-54 (ix), #0x00
    00001D5A DD 36 CB 04      [19] 5010 	ld	-53 (ix), #0x04
    00001D5E DD 36 CC 06      [19] 5011 	ld	-52 (ix), #0x06
    00001D62 DD 36 CD 04      [19] 5012 	ld	-51 (ix), #0x04
    00001D66 DD 36 CE 00      [19] 5013 	ld	-50 (ix), #0x00
    00001D6A DD 36 CF 04      [19] 5014 	ld	-49 (ix), #0x04
    00001D6E DD 36 D0 06      [19] 5015 	ld	-48 (ix), #0x06
    00001D72 DD 36 D1 04      [19] 5016 	ld	-47 (ix), #0x04
                                   5017 ;E:\Dropbox\FAUSTO\SVILUPPI\MSX\CODE\C\MSXgl\projects\exsoccer/exsoccer_s1_b2.c:876: const u8 BallBaseDistY[] = { 0, 6, 4, 0, 4, 6, 4, 2, 4 };
    00001D76 21 09 00         [10] 5018 	ld	hl, #9
    00001D79 39               [11] 5019 	add	hl, sp
    00001D7A 4D               [ 4] 5020 	ld	c, l
    00001D7B 44               [ 4] 5021 	ld	b, h
    00001D7C AF               [ 4] 5022 	xor	a, a
    00001D7D 02               [ 7] 5023 	ld	(bc), a
    00001D7E DD 36 D3 06      [19] 5024 	ld	-45 (ix), #0x06
    00001D82 DD 36 D4 04      [19] 5025 	ld	-44 (ix), #0x04
    00001D86 DD 36 D5 00      [19] 5026 	ld	-43 (ix), #0x00
    00001D8A DD 36 D6 04      [19] 5027 	ld	-42 (ix), #0x04
    00001D8E DD 36 D7 06      [19] 5028 	ld	-41 (ix), #0x06
    00001D92 DD 36 D8 04      [19] 5029 	ld	-40 (ix), #0x04
    00001D96 DD 36 D9 02      [19] 5030 	ld	-39 (ix), #0x02
    00001D9A DD 36 DA 04      [19] 5031 	ld	-38 (ix), #0x04
                                   5032 ;E:\Dropbox\FAUSTO\SVILUPPI\MSX\CODE\C\MSXgl\projects\exsoccer/exsoccer_s1_b2.c:878: const u8 DribbleAnimOffsets[] = {5, 4, 2, 0};
    00001D9E DD 36 DB 05      [19] 5033 	ld	-37 (ix), #0x05
    00001DA2 DD 36 DC 04      [19] 5034 	ld	-36 (ix), #0x04
    00001DA6 DD 36 DD 02      [19] 5035 	ld	-35 (ix), #0x02
    00001DAA DD 36 DE 00      [19] 5036 	ld	-34 (ix), #0x00
                                   5037 ;E:\Dropbox\FAUSTO\SVILUPPI\MSX\CODE\C\MSXgl\projects\exsoccer/exsoccer_s1_b2.c:879: const u8 DribbleAnimOffsetsDiag[] = {3, 3, 1, 0};
    00001DAE DD 36 DF 03      [19] 5038 	ld	-33 (ix), #0x03
    00001DB2 DD 36 E0 03      [19] 5039 	ld	-32 (ix), #0x03
    00001DB6 DD 36 E1 01      [19] 5040 	ld	-31 (ix), #0x01
    00001DBA DD 36 E2 00      [19] 5041 	ld	-30 (ix), #0x00
                                   5042 ;E:\Dropbox\FAUSTO\SVILUPPI\MSX\CODE\C\MSXgl\projects\exsoccer/exsoccer_s1_b2.c:883: const i8 BallAlignCorrectX[] = { 0, 0, 0, 0, 2, 0, -2, 0, 0 };
    00001DBE DD 36 E3 00      [19] 5043 	ld	-29 (ix), #0x00
    00001DC2 DD 36 E4 00      [19] 5044 	ld	-28 (ix), #0x00
    00001DC6 DD 36 E5 00      [19] 5045 	ld	-27 (ix), #0x00
    00001DCA DD 36 E6 00      [19] 5046 	ld	-26 (ix), #0x00
    00001DCE DD 36 E7 02      [19] 5047 	ld	-25 (ix), #0x02
    00001DD2 DD 36 E8 00      [19] 5048 	ld	-24 (ix), #0x00
    00001DD6 DD 36 E9 FE      [19] 5049 	ld	-23 (ix), #0xfe
    00001DDA DD 36 EA 00      [19] 5050 	ld	-22 (ix), #0x00
    00001DDE DD 36 EB 00      [19] 5051 	ld	-21 (ix), #0x00
                                   5052 ;E:\Dropbox\FAUSTO\SVILUPPI\MSX\CODE\C\MSXgl\projects\exsoccer/exsoccer_s1_b2.c:884: const i8 BallAlignCorrectY[] = { 0, 0, 0, 4, 2, 4, 2, 4, 0 };
    00001DE2 DD 36 EC 00      [19] 5053 	ld	-20 (ix), #0x00
    00001DE6 DD 36 ED 00      [19] 5054 	ld	-19 (ix), #0x00
    00001DEA DD 36 EE 00      [19] 5055 	ld	-18 (ix), #0x00
    00001DEE DD 36 EF 04      [19] 5056 	ld	-17 (ix), #0x04
    00001DF2 DD 36 F0 02      [19] 5057 	ld	-16 (ix), #0x02
    00001DF6 DD 36 F1 04      [19] 5058 	ld	-15 (ix), #0x04
    00001DFA DD 36 F2 02      [19] 5059 	ld	-14 (ix), #0x02
    00001DFE DD 36 F3 04      [19] 5060 	ld	-13 (ix), #0x04
    00001E02 DD 36 F4 00      [19] 5061 	ld	-12 (ix), #0x00
                                   5062 ;E:\Dropbox\FAUSTO\SVILUPPI\MSX\CODE\C\MSXgl\projects\exsoccer/exsoccer_s1_b2.c:886: u8 dir = g_Players[playerId].Direction;
    00001E06 21r00r00         [10] 5063 	ld	hl, #_g_Players
    00001E09 19               [11] 5064 	add	hl, de
    00001E0A DD 75 F5         [19] 5065 	ld	-11 (ix), l
    00001E0D DD 74 F6         [19] 5066 	ld	-10 (ix), h
    00001E10 11 0A 00         [10] 5067 	ld	de, #10
    00001E13 19               [11] 5068 	add	hl, de
    00001E14 7E               [ 7] 5069 	ld	a, (hl)
                                   5070 ;E:\Dropbox\FAUSTO\SVILUPPI\MSX\CODE\C\MSXgl\projects\exsoccer/exsoccer_s1_b2.c:887: if(dir == DIRECTION_NONE) dir = g_Players[playerId].PreviousDirection; // Fallback se fermo
    00001E15 DD 77 F7         [19] 5071 	ld	-9 (ix), a
    00001E18 B7               [ 4] 5072 	or	a, a
    00001E19 20 0E            [12] 5073 	jr	NZ, 00106$
    00001E1B DD 5E F5         [19] 5074 	ld	e, -11 (ix)
    00001E1E DD 56 F6         [19] 5075 	ld	d, -10 (ix)
    00001E21 21 0B 00         [10] 5076 	ld	hl, #11
    00001E24 19               [11] 5077 	add	hl, de
    00001E25 7E               [ 7] 5078 	ld	a, (hl)
    00001E26 DD 77 F7         [19] 5079 	ld	-9 (ix), a
    00001E29                       5080 00106$:
                                   5081 ;E:\Dropbox\FAUSTO\SVILUPPI\MSX\CODE\C\MSXgl\projects\exsoccer/exsoccer_s1_b2.c:890: u8 calcDir = dir;
    00001E29 DD 7E F7         [19] 5082 	ld	a, -9 (ix)
    00001E2C DD 77 F8         [19] 5083 	ld	-8 (ix), a
                                   5084 ;E:\Dropbox\FAUSTO\SVILUPPI\MSX\CODE\C\MSXgl\projects\exsoccer/exsoccer_s1_b2.c:892: if (g_Players[playerId].Role == PLAYER_ROLE_GOALKEEPER && (dir == DIRECTION_LEFT || dir == DIRECTION_RIGHT)) {
    00001E2F DD 5E F5         [19] 5085 	ld	e, -11 (ix)
    00001E32 DD 56 F6         [19] 5086 	ld	d, -10 (ix)
    00001E35 21 0D 00         [10] 5087 	ld	hl, #13
    00001E38 19               [11] 5088 	add	hl, de
    00001E39 7E               [ 7] 5089 	ld	a, (hl)
    00001E3A DD 77 F9         [19] 5090 	ld	-7 (ix), a
    00001E3D B7               [ 4] 5091 	or	a, a
    00001E3E 20 27            [12] 5092 	jr	NZ, 00111$
    00001E40 DD 7E F7         [19] 5093 	ld	a, -9 (ix)
    00001E43 D6 07            [ 7] 5094 	sub	a, #0x07
    00001E45 28 07            [12] 5095 	jr	Z, 00110$
    00001E47 DD 7E F7         [19] 5096 	ld	a, -9 (ix)
    00001E4A D6 03            [ 7] 5097 	sub	a, #0x03
    00001E4C 20 19            [12] 5098 	jr	NZ, 00111$
    00001E4E                       5099 00110$:
                                   5100 ;E:\Dropbox\FAUSTO\SVILUPPI\MSX\CODE\C\MSXgl\projects\exsoccer/exsoccer_s1_b2.c:894: if (g_Players[playerId].TeamId == TEAM_1) calcDir = DIRECTION_UP;
    00001E4E DD 5E F5         [19] 5101 	ld	e, -11 (ix)
    00001E51 DD 56 F6         [19] 5102 	ld	d, -10 (ix)
    00001E54 21 09 00         [10] 5103 	ld	hl, #9
    00001E57 19               [11] 5104 	add	hl, de
    00001E58 7E               [ 7] 5105 	ld	a, (hl)
    00001E59 3D               [ 4] 5106 	dec	a
    00001E5A 20 07            [12] 5107 	jr	NZ, 00108$
    00001E5C DD 36 F8 01      [19] 5108 	ld	-8 (ix), #0x01
    00001E60 C3r67r1E         [10] 5109 	jp	00111$
    00001E63                       5110 00108$:
                                   5111 ;E:\Dropbox\FAUSTO\SVILUPPI\MSX\CODE\C\MSXgl\projects\exsoccer/exsoccer_s1_b2.c:895: else calcDir = DIRECTION_DOWN;
    00001E63 DD 36 F8 05      [19] 5112 	ld	-8 (ix), #0x05
    00001E67                       5113 00111$:
                                   5114 ;E:\Dropbox\FAUSTO\SVILUPPI\MSX\CODE\C\MSXgl\projects\exsoccer/exsoccer_s1_b2.c:899: u8 animStep = g_Ball.KickMoveState;
    00001E67 21r0Dr00         [10] 5115 	ld	hl, #_g_Ball + 13
    00001E6A 5E               [ 7] 5116 	ld	e, (hl)
                                   5117 ;E:\Dropbox\FAUSTO\SVILUPPI\MSX\CODE\C\MSXgl\projects\exsoccer/exsoccer_s1_b2.c:900: if (animStep > 3) animStep = 3; // Default/Reset to 3 (Close) if NO_VALUE (255)
    00001E6B 3E 03            [ 7] 5118 	ld	a, #0x03
    00001E6D 93               [ 4] 5119 	sub	a, e
    00001E6E 30 02            [12] 5120 	jr	NC, 00115$
    00001E70 1E 03            [ 7] 5121 	ld	e, #0x03
    00001E72                       5122 00115$:
                                   5123 ;E:\Dropbox\FAUSTO\SVILUPPI\MSX\CODE\C\MSXgl\projects\exsoccer/exsoccer_s1_b2.c:902: u8 currentOffset = DribbleAnimOffsets[animStep];
    00001E72 D5               [11] 5124 	push	de
    00001E73 16 00            [ 7] 5125 	ld	d, #0x00
    00001E75 21 14 00         [10] 5126 	ld	hl, #20
    00001E78 39               [11] 5127 	add	hl, sp
    00001E79 19               [11] 5128 	add	hl, de
    00001E7A D1               [10] 5129 	pop	de
    00001E7B 7E               [ 7] 5130 	ld	a, (hl)
    00001E7C DD 77 FA         [19] 5131 	ld	-6 (ix), a
                                   5132 ;E:\Dropbox\FAUSTO\SVILUPPI\MSX\CODE\C\MSXgl\projects\exsoccer/exsoccer_s1_b2.c:903: u8 currentOffsetDiag = DribbleAnimOffsetsDiag[animStep];
    00001E7F 16 00            [ 7] 5133 	ld	d, #0x00
    00001E81 21 16 00         [10] 5134 	ld	hl, #22
    00001E84 39               [11] 5135 	add	hl, sp
    00001E85 19               [11] 5136 	add	hl, de
    00001E86 7E               [ 7] 5137 	ld	a, (hl)
    00001E87 DD 77 FB         [19] 5138 	ld	-5 (ix), a
                                   5139 ;E:\Dropbox\FAUSTO\SVILUPPI\MSX\CODE\C\MSXgl\projects\exsoccer/exsoccer_s1_b2.c:905: u8 distX = BallBaseDistX[calcDir] + ((calcDir==DIRECTION_UP || calcDir==DIRECTION_DOWN) ? 0 : (calcDir == DIRECTION_LEFT || calcDir == DIRECTION_RIGHT ? currentOffset : currentOffsetDiag));
    00001E8A DD 5E F8         [19] 5140 	ld	e, -8 (ix)
    00001E8D 16 00            [ 7] 5141 	ld	d, #0x00
    00001E8F 21 00 00         [10] 5142 	ld	hl, #0
    00001E92 39               [11] 5143 	add	hl, sp
    00001E93 19               [11] 5144 	add	hl, de
    00001E94 5E               [ 7] 5145 	ld	e, (hl)
    00001E95 DD 7E F8         [19] 5146 	ld	a, -8 (ix)
    00001E98 3D               [ 4] 5147 	dec	a
    00001E99 3E 01            [ 7] 5148 	ld	a, #0x01
    00001E9B 28 01            [12] 5149 	jr	Z, 00232$
    00001E9D AF               [ 4] 5150 	xor	a, a
    00001E9E                       5151 00232$:
    00001E9E DD 77 FC         [19] 5152 	ld	-4 (ix), a
    00001EA1 DD 7E F8         [19] 5153 	ld	a, -8 (ix)
    00001EA4 D6 07            [ 7] 5154 	sub	a, #0x07
    00001EA6 3E 01            [ 7] 5155 	ld	a, #0x01
    00001EA8 28 01            [12] 5156 	jr	Z, 00234$
    00001EAA AF               [ 4] 5157 	xor	a, a
    00001EAB                       5158 00234$:
    00001EAB DD 77 FD         [19] 5159 	ld	-3 (ix), a
    00001EAE DD CB FC 46      [20] 5160 	bit	0, -4 (ix)
    00001EB2 20 07            [12] 5161 	jr	NZ, 00132$
    00001EB4 DD 7E F8         [19] 5162 	ld	a, -8 (ix)
    00001EB7 D6 05            [ 7] 5163 	sub	a, #0x05
    00001EB9 20 05            [12] 5164 	jr	NZ, 00129$
    00001EBB                       5165 00132$:
    00001EBB AF               [ 4] 5166 	xor	a, a
    00001EBC 57               [ 4] 5167 	ld	d, a
    00001EBD C3rD8r1E         [10] 5168 	jp	00130$
    00001EC0                       5169 00129$:
    00001EC0 DD CB FD 46      [20] 5170 	bit	0, -3 (ix)
    00001EC4 20 07            [12] 5171 	jr	NZ, 00137$
    00001EC6 DD 7E F8         [19] 5172 	ld	a, -8 (ix)
    00001EC9 D6 03            [ 7] 5173 	sub	a, #0x03
    00001ECB 20 06            [12] 5174 	jr	NZ, 00134$
    00001ECD                       5175 00137$:
    00001ECD DD 7E FA         [19] 5176 	ld	a, -6 (ix)
    00001ED0 C3rD6r1E         [10] 5177 	jp	00135$
    00001ED3                       5178 00134$:
    00001ED3 DD 7E FB         [19] 5179 	ld	a, -5 (ix)
    00001ED6                       5180 00135$:
    00001ED6 16 00            [ 7] 5181 	ld	d, #0x00
    00001ED8                       5182 00130$:
    00001ED8 83               [ 4] 5183 	add	a, e
    00001ED9 DD 77 FE         [19] 5184 	ld	-2 (ix), a
                                   5185 ;E:\Dropbox\FAUSTO\SVILUPPI\MSX\CODE\C\MSXgl\projects\exsoccer/exsoccer_s1_b2.c:906: u8 distY = BallBaseDistY[calcDir] + ((calcDir==DIRECTION_LEFT || calcDir==DIRECTION_RIGHT) ? 0 : (calcDir == DIRECTION_UP || calcDir == DIRECTION_DOWN ? currentOffset : currentOffsetDiag));
    00001EDC DD 6E F8         [19] 5186 	ld	l, -8 (ix)
    00001EDF 26 00            [ 7] 5187 	ld	h, #0x00
    00001EE1 09               [11] 5188 	add	hl, bc
    00001EE2 7E               [ 7] 5189 	ld	a, (hl)
    00001EE3 DD 77 FF         [19] 5190 	ld	-1 (ix), a
    00001EE6 DD CB FD 46      [20] 5191 	bit	0, -3 (ix)
    00001EEA 20 07            [12] 5192 	jr	NZ, 00142$
    00001EEC DD 7E F8         [19] 5193 	ld	a, -8 (ix)
    00001EEF D6 03            [ 7] 5194 	sub	a, #0x03
    00001EF1 20 0A            [12] 5195 	jr	NZ, 00139$
    00001EF3                       5196 00142$:
    00001EF3 AF               [ 4] 5197 	xor	a, a
    00001EF4 DD 77 FC         [19] 5198 	ld	-4 (ix), a
    00001EF7 DD 77 FD         [19] 5199 	ld	-3 (ix), a
    00001EFA C3r1Ar1F         [10] 5200 	jp	00140$
    00001EFD                       5201 00139$:
    00001EFD DD CB FC 46      [20] 5202 	bit	0, -4 (ix)
    00001F01 20 07            [12] 5203 	jr	NZ, 00147$
    00001F03 DD 7E F8         [19] 5204 	ld	a, -8 (ix)
    00001F06 D6 05            [ 7] 5205 	sub	a, #0x05
    00001F08 20 06            [12] 5206 	jr	NZ, 00144$
    00001F0A                       5207 00147$:
    00001F0A DD 7E FA         [19] 5208 	ld	a, -6 (ix)
    00001F0D C3r13r1F         [10] 5209 	jp	00145$
    00001F10                       5210 00144$:
    00001F10 DD 7E FB         [19] 5211 	ld	a, -5 (ix)
    00001F13                       5212 00145$:
    00001F13 DD 77 FC         [19] 5213 	ld	-4 (ix), a
    00001F16 DD 36 FD 00      [19] 5214 	ld	-3 (ix), #0x00
    00001F1A                       5215 00140$:
    00001F1A DD 7E FC         [19] 5216 	ld	a, -4 (ix)
    00001F1D DD 77 FD         [19] 5217 	ld	-3 (ix), a
    00001F20 DD 7E FF         [19] 5218 	ld	a, -1 (ix)
    00001F23 DD 86 FD         [19] 5219 	add	a, -3 (ix)
    00001F26 DD 77 FF         [19] 5220 	ld	-1 (ix), a
                                   5221 ;E:\Dropbox\FAUSTO\SVILUPPI\MSX\CODE\C\MSXgl\projects\exsoccer/exsoccer_s1_b2.c:909: if (g_Players[playerId].Role == PLAYER_ROLE_GOALKEEPER) {
    00001F29 DD 7E F9         [19] 5222 	ld	a, -7 (ix)
    00001F2C B7               [ 4] 5223 	or	a, a
    00001F2D 20 15            [12] 5224 	jr	NZ, 00117$
                                   5225 ;E:\Dropbox\FAUSTO\SVILUPPI\MSX\CODE\C\MSXgl\projects\exsoccer/exsoccer_s1_b2.c:910: distY = (distY > 2) ? (distY - 2) : distY; // bring ball 2px closer vertically
    00001F2F 3E 02            [ 7] 5226 	ld	a, #0x02
    00001F31 DD 96 FF         [19] 5227 	sub	a, -1 (ix)
    00001F34 30 08            [12] 5228 	jr	NC, 00149$
    00001F36 DD 7E FF         [19] 5229 	ld	a, -1 (ix)
    00001F39 3D               [ 4] 5230 	dec	a
    00001F3A 3D               [ 4] 5231 	dec	a
    00001F3B C3r41r1F         [10] 5232 	jp	00150$
    00001F3E                       5233 00149$:
    00001F3E DD 7E FF         [19] 5234 	ld	a, -1 (ix)
    00001F41                       5235 00150$:
    00001F41 DD 77 FF         [19] 5236 	ld	-1 (ix), a
    00001F44                       5237 00117$:
                                   5238 ;E:\Dropbox\FAUSTO\SVILUPPI\MSX\CODE\C\MSXgl\projects\exsoccer/exsoccer_s1_b2.c:915: switch (calcDir){
    00001F44 3E 08            [ 7] 5239 	ld	a, #0x08
    00001F46 DD 96 F8         [19] 5240 	sub	a, -8 (ix)
    00001F49 DArEAr21         [10] 5241 	jp	C, 00126$
    00001F4C DD 4E F8         [19] 5242 	ld	c, -8 (ix)
    00001F4F 06 00            [ 7] 5243 	ld	b, #0x00
    00001F51 21r58r1F         [10] 5244 	ld	hl, #00243$
    00001F54 09               [11] 5245 	add	hl, bc
    00001F55 09               [11] 5246 	add	hl, bc
    00001F56 09               [11] 5247 	add	hl, bc
    00001F57 E9               [ 4] 5248 	jp	(hl)
    00001F58                       5249 00243$:
    00001F58 C3rEAr21         [10] 5250 	jp	00126$
    00001F5B C3r73r1F         [10] 5251 	jp	00118$
    00001F5E C3rF4r20         [10] 5252 	jp	00123$
    00001F61 C3r54r20         [10] 5253 	jp	00121$
    00001F64 C3r9Cr21         [10] 5254 	jp	00125$
    00001F67 C3rBFr1F         [10] 5255 	jp	00119$
    00001F6A C3r48r21         [10] 5256 	jp	00124$
    00001F6D C3r08r20         [10] 5257 	jp	00120$
    00001F70 C3r9Dr20         [10] 5258 	jp	00122$
                                   5259 ;E:\Dropbox\FAUSTO\SVILUPPI\MSX\CODE\C\MSXgl\projects\exsoccer/exsoccer_s1_b2.c:916: case DIRECTION_UP:
    00001F73                       5260 00118$:
                                   5261 ;E:\Dropbox\FAUSTO\SVILUPPI\MSX\CODE\C\MSXgl\projects\exsoccer/exsoccer_s1_b2.c:917: g_Ball.X=g_Players[playerId].X + BallAlignCorrectX[calcDir] + extraX;
    00001F73 DD 6E F5         [19] 5262 	ld	l, -11 (ix)
                                   5263 ;	spillPairReg hl
                                   5264 ;	spillPairReg hl
    00001F76 DD 66 F6         [19] 5265 	ld	h, -10 (ix)
                                   5266 ;	spillPairReg hl
                                   5267 ;	spillPairReg hl
    00001F79 23               [ 6] 5268 	inc	hl
    00001F7A 23               [ 6] 5269 	inc	hl
    00001F7B 4E               [ 7] 5270 	ld	c, (hl)
    00001F7C 23               [ 6] 5271 	inc	hl
    00001F7D 46               [ 7] 5272 	ld	b, (hl)
    00001F7E DD 5E F8         [19] 5273 	ld	e, -8 (ix)
    00001F81 16 00            [ 7] 5274 	ld	d, #0x00
    00001F83 21 1A 00         [10] 5275 	ld	hl, #26
    00001F86 39               [11] 5276 	add	hl, sp
    00001F87 19               [11] 5277 	add	hl, de
    00001F88 7E               [ 7] 5278 	ld	a, (hl)
    00001F89 6F               [ 4] 5279 	ld	l, a
                                   5280 ;	spillPairReg hl
                                   5281 ;	spillPairReg hl
    00001F8A 07               [ 4] 5282 	rlca
    00001F8B 9F               [ 4] 5283 	sbc	a, a
    00001F8C 67               [ 4] 5284 	ld	h, a
                                   5285 ;	spillPairReg hl
                                   5286 ;	spillPairReg hl
    00001F8D 09               [11] 5287 	add	hl, bc
    00001F8E EB               [ 4] 5288 	ex	de, hl
    00001F8F ED 53r02r00      [20] 5289 	ld	((_g_Ball + 2)), de
                                   5290 ;E:\Dropbox\FAUSTO\SVILUPPI\MSX\CODE\C\MSXgl\projects\exsoccer/exsoccer_s1_b2.c:918: g_Ball.Y=g_Players[playerId].Y - distY + BallAlignCorrectY[calcDir];
    00001F93 DD 6E F5         [19] 5291 	ld	l, -11 (ix)
    00001F96 DD 66 F6         [19] 5292 	ld	h, -10 (ix)
    00001F99 4E               [ 7] 5293 	ld	c, (hl)
    00001F9A 23               [ 6] 5294 	inc	hl
    00001F9B 46               [ 7] 5295 	ld	b, (hl)
    00001F9C DD 5E FF         [19] 5296 	ld	e, -1 (ix)
    00001F9F 16 00            [ 7] 5297 	ld	d, #0x00
    00001FA1 79               [ 4] 5298 	ld	a, c
    00001FA2 93               [ 4] 5299 	sub	a, e
    00001FA3 4F               [ 4] 5300 	ld	c, a
    00001FA4 78               [ 4] 5301 	ld	a, b
    00001FA5 9A               [ 4] 5302 	sbc	a, d
    00001FA6 47               [ 4] 5303 	ld	b, a
    00001FA7 DD 5E F8         [19] 5304 	ld	e, -8 (ix)
    00001FAA 16 00            [ 7] 5305 	ld	d, #0x00
    00001FAC 21 23 00         [10] 5306 	ld	hl, #35
    00001FAF 39               [11] 5307 	add	hl, sp
    00001FB0 19               [11] 5308 	add	hl, de
    00001FB1 7E               [ 7] 5309 	ld	a, (hl)
    00001FB2 6F               [ 4] 5310 	ld	l, a
                                   5311 ;	spillPairReg hl
                                   5312 ;	spillPairReg hl
    00001FB3 07               [ 4] 5313 	rlca
    00001FB4 9F               [ 4] 5314 	sbc	a, a
    00001FB5 67               [ 4] 5315 	ld	h, a
                                   5316 ;	spillPairReg hl
                                   5317 ;	spillPairReg hl
    00001FB6 09               [11] 5318 	add	hl, bc
    00001FB7 EB               [ 4] 5319 	ex	de, hl
    00001FB8 ED 53r00r00      [20] 5320 	ld	(_g_Ball), de
                                   5321 ;E:\Dropbox\FAUSTO\SVILUPPI\MSX\CODE\C\MSXgl\projects\exsoccer/exsoccer_s1_b2.c:919: break;
    00001FBC C3rEAr21         [10] 5322 	jp	00126$
                                   5323 ;E:\Dropbox\FAUSTO\SVILUPPI\MSX\CODE\C\MSXgl\projects\exsoccer/exsoccer_s1_b2.c:920: case DIRECTION_DOWN:
    00001FBF                       5324 00119$:
                                   5325 ;E:\Dropbox\FAUSTO\SVILUPPI\MSX\CODE\C\MSXgl\projects\exsoccer/exsoccer_s1_b2.c:921: g_Ball.X=g_Players[playerId].X + BallAlignCorrectX[calcDir];
    00001FBF DD 6E F5         [19] 5326 	ld	l, -11 (ix)
                                   5327 ;	spillPairReg hl
                                   5328 ;	spillPairReg hl
    00001FC2 DD 66 F6         [19] 5329 	ld	h, -10 (ix)
                                   5330 ;	spillPairReg hl
                                   5331 ;	spillPairReg hl
    00001FC5 23               [ 6] 5332 	inc	hl
    00001FC6 23               [ 6] 5333 	inc	hl
    00001FC7 4E               [ 7] 5334 	ld	c, (hl)
    00001FC8 23               [ 6] 5335 	inc	hl
    00001FC9 46               [ 7] 5336 	ld	b, (hl)
    00001FCA DD 5E F8         [19] 5337 	ld	e, -8 (ix)
    00001FCD 16 00            [ 7] 5338 	ld	d, #0x00
    00001FCF 21 1A 00         [10] 5339 	ld	hl, #26
    00001FD2 39               [11] 5340 	add	hl, sp
    00001FD3 19               [11] 5341 	add	hl, de
    00001FD4 7E               [ 7] 5342 	ld	a, (hl)
    00001FD5 6F               [ 4] 5343 	ld	l, a
                                   5344 ;	spillPairReg hl
                                   5345 ;	spillPairReg hl
    00001FD6 07               [ 4] 5346 	rlca
    00001FD7 9F               [ 4] 5347 	sbc	a, a
    00001FD8 67               [ 4] 5348 	ld	h, a
                                   5349 ;	spillPairReg hl
                                   5350 ;	spillPairReg hl
    00001FD9 09               [11] 5351 	add	hl, bc
    00001FDA EB               [ 4] 5352 	ex	de, hl
    00001FDB ED 53r02r00      [20] 5353 	ld	((_g_Ball + 2)), de
                                   5354 ;E:\Dropbox\FAUSTO\SVILUPPI\MSX\CODE\C\MSXgl\projects\exsoccer/exsoccer_s1_b2.c:922: g_Ball.Y=g_Players[playerId].Y + distY + BallAlignCorrectY[calcDir];
    00001FDF DD 6E F5         [19] 5355 	ld	l, -11 (ix)
    00001FE2 DD 66 F6         [19] 5356 	ld	h, -10 (ix)
    00001FE5 4E               [ 7] 5357 	ld	c, (hl)
    00001FE6 23               [ 6] 5358 	inc	hl
    00001FE7 46               [ 7] 5359 	ld	b, (hl)
    00001FE8 DD 6E FF         [19] 5360 	ld	l, -1 (ix)
                                   5361 ;	spillPairReg hl
                                   5362 ;	spillPairReg hl
    00001FEB 26 00            [ 7] 5363 	ld	h, #0x00
                                   5364 ;	spillPairReg hl
                                   5365 ;	spillPairReg hl
    00001FED 09               [11] 5366 	add	hl, bc
    00001FEE 4D               [ 4] 5367 	ld	c, l
    00001FEF 44               [ 4] 5368 	ld	b, h
    00001FF0 DD 5E F8         [19] 5369 	ld	e, -8 (ix)
    00001FF3 16 00            [ 7] 5370 	ld	d, #0x00
    00001FF5 21 23 00         [10] 5371 	ld	hl, #35
    00001FF8 39               [11] 5372 	add	hl, sp
    00001FF9 19               [11] 5373 	add	hl, de
    00001FFA 7E               [ 7] 5374 	ld	a, (hl)
    00001FFB 6F               [ 4] 5375 	ld	l, a
                                   5376 ;	spillPairReg hl
                                   5377 ;	spillPairReg hl
    00001FFC 07               [ 4] 5378 	rlca
    00001FFD 9F               [ 4] 5379 	sbc	a, a
    00001FFE 67               [ 4] 5380 	ld	h, a
                                   5381 ;	spillPairReg hl
                                   5382 ;	spillPairReg hl
    00001FFF 09               [11] 5383 	add	hl, bc
    00002000 EB               [ 4] 5384 	ex	de, hl
    00002001 ED 53r00r00      [20] 5385 	ld	(_g_Ball), de
                                   5386 ;E:\Dropbox\FAUSTO\SVILUPPI\MSX\CODE\C\MSXgl\projects\exsoccer/exsoccer_s1_b2.c:923: break;
    00002005 C3rEAr21         [10] 5387 	jp	00126$
                                   5388 ;E:\Dropbox\FAUSTO\SVILUPPI\MSX\CODE\C\MSXgl\projects\exsoccer/exsoccer_s1_b2.c:924: case DIRECTION_LEFT:
    00002008                       5389 00120$:
                                   5390 ;E:\Dropbox\FAUSTO\SVILUPPI\MSX\CODE\C\MSXgl\projects\exsoccer/exsoccer_s1_b2.c:925: g_Ball.X=g_Players[playerId].X - distX + BallAlignCorrectX[calcDir];
    00002008 DD 6E F5         [19] 5391 	ld	l, -11 (ix)
                                   5392 ;	spillPairReg hl
                                   5393 ;	spillPairReg hl
    0000200B DD 66 F6         [19] 5394 	ld	h, -10 (ix)
                                   5395 ;	spillPairReg hl
                                   5396 ;	spillPairReg hl
    0000200E 23               [ 6] 5397 	inc	hl
    0000200F 23               [ 6] 5398 	inc	hl
    00002010 4E               [ 7] 5399 	ld	c, (hl)
    00002011 23               [ 6] 5400 	inc	hl
    00002012 46               [ 7] 5401 	ld	b, (hl)
    00002013 DD 5E FE         [19] 5402 	ld	e, -2 (ix)
    00002016 16 00            [ 7] 5403 	ld	d, #0x00
    00002018 79               [ 4] 5404 	ld	a, c
    00002019 93               [ 4] 5405 	sub	a, e
    0000201A 4F               [ 4] 5406 	ld	c, a
    0000201B 78               [ 4] 5407 	ld	a, b
    0000201C 9A               [ 4] 5408 	sbc	a, d
    0000201D 47               [ 4] 5409 	ld	b, a
    0000201E DD 5E F8         [19] 5410 	ld	e, -8 (ix)
    00002021 16 00            [ 7] 5411 	ld	d, #0x00
    00002023 21 1A 00         [10] 5412 	ld	hl, #26
    00002026 39               [11] 5413 	add	hl, sp
    00002027 19               [11] 5414 	add	hl, de
    00002028 7E               [ 7] 5415 	ld	a, (hl)
    00002029 6F               [ 4] 5416 	ld	l, a
                                   5417 ;	spillPairReg hl
                                   5418 ;	spillPairReg hl
    0000202A 07               [ 4] 5419 	rlca
    0000202B 9F               [ 4] 5420 	sbc	a, a
    0000202C 67               [ 4] 5421 	ld	h, a
                                   5422 ;	spillPairReg hl
                                   5423 ;	spillPairReg hl
    0000202D 09               [11] 5424 	add	hl, bc
    0000202E EB               [ 4] 5425 	ex	de, hl
    0000202F ED 53r02r00      [20] 5426 	ld	((_g_Ball + 2)), de
                                   5427 ;E:\Dropbox\FAUSTO\SVILUPPI\MSX\CODE\C\MSXgl\projects\exsoccer/exsoccer_s1_b2.c:926: g_Ball.Y=g_Players[playerId].Y + BallAlignCorrectY[calcDir];
    00002033 DD 6E F5         [19] 5428 	ld	l, -11 (ix)
    00002036 DD 66 F6         [19] 5429 	ld	h, -10 (ix)
    00002039 4E               [ 7] 5430 	ld	c, (hl)
    0000203A 23               [ 6] 5431 	inc	hl
    0000203B 46               [ 7] 5432 	ld	b, (hl)
    0000203C DD 5E F8         [19] 5433 	ld	e, -8 (ix)
    0000203F 16 00            [ 7] 5434 	ld	d, #0x00
    00002041 21 23 00         [10] 5435 	ld	hl, #35
    00002044 39               [11] 5436 	add	hl, sp
    00002045 19               [11] 5437 	add	hl, de
    00002046 7E               [ 7] 5438 	ld	a, (hl)
    00002047 6F               [ 4] 5439 	ld	l, a
                                   5440 ;	spillPairReg hl
                                   5441 ;	spillPairReg hl
    00002048 07               [ 4] 5442 	rlca
    00002049 9F               [ 4] 5443 	sbc	a, a
    0000204A 67               [ 4] 5444 	ld	h, a
                                   5445 ;	spillPairReg hl
                                   5446 ;	spillPairReg hl
    0000204B 09               [11] 5447 	add	hl, bc
    0000204C EB               [ 4] 5448 	ex	de, hl
    0000204D ED 53r00r00      [20] 5449 	ld	(_g_Ball), de
                                   5450 ;E:\Dropbox\FAUSTO\SVILUPPI\MSX\CODE\C\MSXgl\projects\exsoccer/exsoccer_s1_b2.c:927: break;
    00002051 C3rEAr21         [10] 5451 	jp	00126$
                                   5452 ;E:\Dropbox\FAUSTO\SVILUPPI\MSX\CODE\C\MSXgl\projects\exsoccer/exsoccer_s1_b2.c:928: case DIRECTION_RIGHT:
    00002054                       5453 00121$:
                                   5454 ;E:\Dropbox\FAUSTO\SVILUPPI\MSX\CODE\C\MSXgl\projects\exsoccer/exsoccer_s1_b2.c:929: g_Ball.X=g_Players[playerId].X + distX + BallAlignCorrectX[calcDir];
    00002054 DD 6E F5         [19] 5455 	ld	l, -11 (ix)
                                   5456 ;	spillPairReg hl
                                   5457 ;	spillPairReg hl
    00002057 DD 66 F6         [19] 5458 	ld	h, -10 (ix)
                                   5459 ;	spillPairReg hl
                                   5460 ;	spillPairReg hl
    0000205A 23               [ 6] 5461 	inc	hl
    0000205B 23               [ 6] 5462 	inc	hl
    0000205C 4E               [ 7] 5463 	ld	c, (hl)
    0000205D 23               [ 6] 5464 	inc	hl
    0000205E 46               [ 7] 5465 	ld	b, (hl)
    0000205F DD 6E FE         [19] 5466 	ld	l, -2 (ix)
                                   5467 ;	spillPairReg hl
                                   5468 ;	spillPairReg hl
    00002062 26 00            [ 7] 5469 	ld	h, #0x00
                                   5470 ;	spillPairReg hl
                                   5471 ;	spillPairReg hl
    00002064 09               [11] 5472 	add	hl, bc
    00002065 4D               [ 4] 5473 	ld	c, l
    00002066 44               [ 4] 5474 	ld	b, h
    00002067 DD 5E F8         [19] 5475 	ld	e, -8 (ix)
    0000206A 16 00            [ 7] 5476 	ld	d, #0x00
    0000206C 21 1A 00         [10] 5477 	ld	hl, #26
    0000206F 39               [11] 5478 	add	hl, sp
    00002070 19               [11] 5479 	add	hl, de
    00002071 7E               [ 7] 5480 	ld	a, (hl)
    00002072 6F               [ 4] 5481 	ld	l, a
                                   5482 ;	spillPairReg hl
                                   5483 ;	spillPairReg hl
    00002073 07               [ 4] 5484 	rlca
    00002074 9F               [ 4] 5485 	sbc	a, a
    00002075 67               [ 4] 5486 	ld	h, a
                                   5487 ;	spillPairReg hl
                                   5488 ;	spillPairReg hl
    00002076 09               [11] 5489 	add	hl, bc
    00002077 EB               [ 4] 5490 	ex	de, hl
    00002078 ED 53r02r00      [20] 5491 	ld	((_g_Ball + 2)), de
                                   5492 ;E:\Dropbox\FAUSTO\SVILUPPI\MSX\CODE\C\MSXgl\projects\exsoccer/exsoccer_s1_b2.c:930: g_Ball.Y=g_Players[playerId].Y + BallAlignCorrectY[calcDir];
    0000207C DD 6E F5         [19] 5493 	ld	l, -11 (ix)
    0000207F DD 66 F6         [19] 5494 	ld	h, -10 (ix)
    00002082 4E               [ 7] 5495 	ld	c, (hl)
    00002083 23               [ 6] 5496 	inc	hl
    00002084 46               [ 7] 5497 	ld	b, (hl)
    00002085 DD 5E F8         [19] 5498 	ld	e, -8 (ix)
    00002088 16 00            [ 7] 5499 	ld	d, #0x00
    0000208A 21 23 00         [10] 5500 	ld	hl, #35
    0000208D 39               [11] 5501 	add	hl, sp
    0000208E 19               [11] 5502 	add	hl, de
    0000208F 7E               [ 7] 5503 	ld	a, (hl)
    00002090 6F               [ 4] 5504 	ld	l, a
                                   5505 ;	spillPairReg hl
                                   5506 ;	spillPairReg hl
    00002091 07               [ 4] 5507 	rlca
    00002092 9F               [ 4] 5508 	sbc	a, a
    00002093 67               [ 4] 5509 	ld	h, a
                                   5510 ;	spillPairReg hl
                                   5511 ;	spillPairReg hl
    00002094 09               [11] 5512 	add	hl, bc
    00002095 EB               [ 4] 5513 	ex	de, hl
    00002096 ED 53r00r00      [20] 5514 	ld	(_g_Ball), de
                                   5515 ;E:\Dropbox\FAUSTO\SVILUPPI\MSX\CODE\C\MSXgl\projects\exsoccer/exsoccer_s1_b2.c:931: break;
    0000209A C3rEAr21         [10] 5516 	jp	00126$
                                   5517 ;E:\Dropbox\FAUSTO\SVILUPPI\MSX\CODE\C\MSXgl\projects\exsoccer/exsoccer_s1_b2.c:932: case DIRECTION_UP_LEFT:
    0000209D                       5518 00122$:
                                   5519 ;E:\Dropbox\FAUSTO\SVILUPPI\MSX\CODE\C\MSXgl\projects\exsoccer/exsoccer_s1_b2.c:933: g_Ball.X=g_Players[playerId].X - distX + BallAlignCorrectX[calcDir];
    0000209D DD 6E F5         [19] 5520 	ld	l, -11 (ix)
                                   5521 ;	spillPairReg hl
                                   5522 ;	spillPairReg hl
    000020A0 DD 66 F6         [19] 5523 	ld	h, -10 (ix)
                                   5524 ;	spillPairReg hl
                                   5525 ;	spillPairReg hl
    000020A3 23               [ 6] 5526 	inc	hl
    000020A4 23               [ 6] 5527 	inc	hl
    000020A5 4E               [ 7] 5528 	ld	c, (hl)
    000020A6 23               [ 6] 5529 	inc	hl
    000020A7 46               [ 7] 5530 	ld	b, (hl)
    000020A8 DD 5E FE         [19] 5531 	ld	e, -2 (ix)
    000020AB 16 00            [ 7] 5532 	ld	d, #0x00
    000020AD 79               [ 4] 5533 	ld	a, c
    000020AE 93               [ 4] 5534 	sub	a, e
    000020AF 4F               [ 4] 5535 	ld	c, a
    000020B0 78               [ 4] 5536 	ld	a, b
    000020B1 9A               [ 4] 5537 	sbc	a, d
    000020B2 47               [ 4] 5538 	ld	b, a
    000020B3 DD 5E F8         [19] 5539 	ld	e, -8 (ix)
    000020B6 16 00            [ 7] 5540 	ld	d, #0x00
    000020B8 21 1A 00         [10] 5541 	ld	hl, #26
    000020BB 39               [11] 5542 	add	hl, sp
    000020BC 19               [11] 5543 	add	hl, de
    000020BD 7E               [ 7] 5544 	ld	a, (hl)
    000020BE 6F               [ 4] 5545 	ld	l, a
                                   5546 ;	spillPairReg hl
                                   5547 ;	spillPairReg hl
    000020BF 07               [ 4] 5548 	rlca
    000020C0 9F               [ 4] 5549 	sbc	a, a
    000020C1 67               [ 4] 5550 	ld	h, a
                                   5551 ;	spillPairReg hl
                                   5552 ;	spillPairReg hl
    000020C2 09               [11] 5553 	add	hl, bc
    000020C3 EB               [ 4] 5554 	ex	de, hl
    000020C4 ED 53r02r00      [20] 5555 	ld	((_g_Ball + 2)), de
                                   5556 ;E:\Dropbox\FAUSTO\SVILUPPI\MSX\CODE\C\MSXgl\projects\exsoccer/exsoccer_s1_b2.c:934: g_Ball.Y=g_Players[playerId].Y - distY + BallAlignCorrectY[calcDir];
    000020C8 DD 6E F5         [19] 5557 	ld	l, -11 (ix)
    000020CB DD 66 F6         [19] 5558 	ld	h, -10 (ix)
    000020CE 4E               [ 7] 5559 	ld	c, (hl)
    000020CF 23               [ 6] 5560 	inc	hl
    000020D0 46               [ 7] 5561 	ld	b, (hl)
    000020D1 DD 5E FF         [19] 5562 	ld	e, -1 (ix)
    000020D4 16 00            [ 7] 5563 	ld	d, #0x00
    000020D6 79               [ 4] 5564 	ld	a, c
    000020D7 93               [ 4] 5565 	sub	a, e
    000020D8 4F               [ 4] 5566 	ld	c, a
    000020D9 78               [ 4] 5567 	ld	a, b
    000020DA 9A               [ 4] 5568 	sbc	a, d
    000020DB 47               [ 4] 5569 	ld	b, a
    000020DC DD 5E F8         [19] 5570 	ld	e, -8 (ix)
    000020DF 16 00            [ 7] 5571 	ld	d, #0x00
    000020E1 21 23 00         [10] 5572 	ld	hl, #35
    000020E4 39               [11] 5573 	add	hl, sp
    000020E5 19               [11] 5574 	add	hl, de
    000020E6 7E               [ 7] 5575 	ld	a, (hl)
    000020E7 6F               [ 4] 5576 	ld	l, a
                                   5577 ;	spillPairReg hl
                                   5578 ;	spillPairReg hl
    000020E8 07               [ 4] 5579 	rlca
    000020E9 9F               [ 4] 5580 	sbc	a, a
    000020EA 67               [ 4] 5581 	ld	h, a
                                   5582 ;	spillPairReg hl
                                   5583 ;	spillPairReg hl
    000020EB 09               [11] 5584 	add	hl, bc
    000020EC EB               [ 4] 5585 	ex	de, hl
    000020ED ED 53r00r00      [20] 5586 	ld	(_g_Ball), de
                                   5587 ;E:\Dropbox\FAUSTO\SVILUPPI\MSX\CODE\C\MSXgl\projects\exsoccer/exsoccer_s1_b2.c:935: break;
    000020F1 C3rEAr21         [10] 5588 	jp	00126$
                                   5589 ;E:\Dropbox\FAUSTO\SVILUPPI\MSX\CODE\C\MSXgl\projects\exsoccer/exsoccer_s1_b2.c:936: case DIRECTION_UP_RIGHT:
    000020F4                       5590 00123$:
                                   5591 ;E:\Dropbox\FAUSTO\SVILUPPI\MSX\CODE\C\MSXgl\projects\exsoccer/exsoccer_s1_b2.c:937: g_Ball.X=g_Players[playerId].X + distX + BallAlignCorrectX[calcDir];
    000020F4 DD 6E F5         [19] 5592 	ld	l, -11 (ix)
                                   5593 ;	spillPairReg hl
                                   5594 ;	spillPairReg hl
    000020F7 DD 66 F6         [19] 5595 	ld	h, -10 (ix)
                                   5596 ;	spillPairReg hl
                                   5597 ;	spillPairReg hl
    000020FA 23               [ 6] 5598 	inc	hl
    000020FB 23               [ 6] 5599 	inc	hl
    000020FC 4E               [ 7] 5600 	ld	c, (hl)
    000020FD 23               [ 6] 5601 	inc	hl
    000020FE 46               [ 7] 5602 	ld	b, (hl)
    000020FF DD 6E FE         [19] 5603 	ld	l, -2 (ix)
                                   5604 ;	spillPairReg hl
                                   5605 ;	spillPairReg hl
    00002102 26 00            [ 7] 5606 	ld	h, #0x00
                                   5607 ;	spillPairReg hl
                                   5608 ;	spillPairReg hl
    00002104 09               [11] 5609 	add	hl, bc
    00002105 4D               [ 4] 5610 	ld	c, l
    00002106 44               [ 4] 5611 	ld	b, h
    00002107 DD 5E F8         [19] 5612 	ld	e, -8 (ix)
    0000210A 16 00            [ 7] 5613 	ld	d, #0x00
    0000210C 21 1A 00         [10] 5614 	ld	hl, #26
    0000210F 39               [11] 5615 	add	hl, sp
    00002110 19               [11] 5616 	add	hl, de
    00002111 7E               [ 7] 5617 	ld	a, (hl)
    00002112 6F               [ 4] 5618 	ld	l, a
                                   5619 ;	spillPairReg hl
                                   5620 ;	spillPairReg hl
    00002113 07               [ 4] 5621 	rlca
    00002114 9F               [ 4] 5622 	sbc	a, a
    00002115 67               [ 4] 5623 	ld	h, a
                                   5624 ;	spillPairReg hl
                                   5625 ;	spillPairReg hl
    00002116 09               [11] 5626 	add	hl, bc
    00002117 EB               [ 4] 5627 	ex	de, hl
    00002118 ED 53r02r00      [20] 5628 	ld	((_g_Ball + 2)), de
                                   5629 ;E:\Dropbox\FAUSTO\SVILUPPI\MSX\CODE\C\MSXgl\projects\exsoccer/exsoccer_s1_b2.c:938: g_Ball.Y=g_Players[playerId].Y - distY + BallAlignCorrectY[calcDir];
    0000211C DD 6E F5         [19] 5630 	ld	l, -11 (ix)
    0000211F DD 66 F6         [19] 5631 	ld	h, -10 (ix)
    00002122 4E               [ 7] 5632 	ld	c, (hl)
    00002123 23               [ 6] 5633 	inc	hl
    00002124 46               [ 7] 5634 	ld	b, (hl)
    00002125 DD 5E FF         [19] 5635 	ld	e, -1 (ix)
    00002128 16 00            [ 7] 5636 	ld	d, #0x00
    0000212A 79               [ 4] 5637 	ld	a, c
    0000212B 93               [ 4] 5638 	sub	a, e
    0000212C 4F               [ 4] 5639 	ld	c, a
    0000212D 78               [ 4] 5640 	ld	a, b
    0000212E 9A               [ 4] 5641 	sbc	a, d
    0000212F 47               [ 4] 5642 	ld	b, a
    00002130 DD 5E F8         [19] 5643 	ld	e, -8 (ix)
    00002133 16 00            [ 7] 5644 	ld	d, #0x00
    00002135 21 23 00         [10] 5645 	ld	hl, #35
    00002138 39               [11] 5646 	add	hl, sp
    00002139 19               [11] 5647 	add	hl, de
    0000213A 7E               [ 7] 5648 	ld	a, (hl)
    0000213B 6F               [ 4] 5649 	ld	l, a
                                   5650 ;	spillPairReg hl
                                   5651 ;	spillPairReg hl
    0000213C 07               [ 4] 5652 	rlca
    0000213D 9F               [ 4] 5653 	sbc	a, a
    0000213E 67               [ 4] 5654 	ld	h, a
                                   5655 ;	spillPairReg hl
                                   5656 ;	spillPairReg hl
    0000213F 09               [11] 5657 	add	hl, bc
    00002140 EB               [ 4] 5658 	ex	de, hl
    00002141 ED 53r00r00      [20] 5659 	ld	(_g_Ball), de
                                   5660 ;E:\Dropbox\FAUSTO\SVILUPPI\MSX\CODE\C\MSXgl\projects\exsoccer/exsoccer_s1_b2.c:939: break;
    00002145 C3rEAr21         [10] 5661 	jp	00126$
                                   5662 ;E:\Dropbox\FAUSTO\SVILUPPI\MSX\CODE\C\MSXgl\projects\exsoccer/exsoccer_s1_b2.c:940: case DIRECTION_DOWN_LEFT:
    00002148                       5663 00124$:
                                   5664 ;E:\Dropbox\FAUSTO\SVILUPPI\MSX\CODE\C\MSXgl\projects\exsoccer/exsoccer_s1_b2.c:941: g_Ball.X=g_Players[playerId].X - distX + BallAlignCorrectX[calcDir];
    00002148 DD 6E F5         [19] 5665 	ld	l, -11 (ix)
                                   5666 ;	spillPairReg hl
                                   5667 ;	spillPairReg hl
    0000214B DD 66 F6         [19] 5668 	ld	h, -10 (ix)
                                   5669 ;	spillPairReg hl
                                   5670 ;	spillPairReg hl
    0000214E 23               [ 6] 5671 	inc	hl
    0000214F 23               [ 6] 5672 	inc	hl
    00002150 4E               [ 7] 5673 	ld	c, (hl)
    00002151 23               [ 6] 5674 	inc	hl
    00002152 46               [ 7] 5675 	ld	b, (hl)
    00002153 DD 5E FE         [19] 5676 	ld	e, -2 (ix)
    00002156 16 00            [ 7] 5677 	ld	d, #0x00
    00002158 79               [ 4] 5678 	ld	a, c
    00002159 93               [ 4] 5679 	sub	a, e
    0000215A 4F               [ 4] 5680 	ld	c, a
    0000215B 78               [ 4] 5681 	ld	a, b
    0000215C 9A               [ 4] 5682 	sbc	a, d
    0000215D 47               [ 4] 5683 	ld	b, a
    0000215E DD 5E F8         [19] 5684 	ld	e, -8 (ix)
    00002161 16 00            [ 7] 5685 	ld	d, #0x00
    00002163 21 1A 00         [10] 5686 	ld	hl, #26
    00002166 39               [11] 5687 	add	hl, sp
    00002167 19               [11] 5688 	add	hl, de
    00002168 7E               [ 7] 5689 	ld	a, (hl)
    00002169 6F               [ 4] 5690 	ld	l, a
                                   5691 ;	spillPairReg hl
                                   5692 ;	spillPairReg hl
    0000216A 07               [ 4] 5693 	rlca
    0000216B 9F               [ 4] 5694 	sbc	a, a
    0000216C 67               [ 4] 5695 	ld	h, a
                                   5696 ;	spillPairReg hl
                                   5697 ;	spillPairReg hl
    0000216D 09               [11] 5698 	add	hl, bc
    0000216E EB               [ 4] 5699 	ex	de, hl
    0000216F ED 53r02r00      [20] 5700 	ld	((_g_Ball + 2)), de
                                   5701 ;E:\Dropbox\FAUSTO\SVILUPPI\MSX\CODE\C\MSXgl\projects\exsoccer/exsoccer_s1_b2.c:942: g_Ball.Y=g_Players[playerId].Y + distY + BallAlignCorrectY[calcDir];
    00002173 DD 6E F5         [19] 5702 	ld	l, -11 (ix)
    00002176 DD 66 F6         [19] 5703 	ld	h, -10 (ix)
    00002179 4E               [ 7] 5704 	ld	c, (hl)
    0000217A 23               [ 6] 5705 	inc	hl
    0000217B 46               [ 7] 5706 	ld	b, (hl)
    0000217C DD 6E FF         [19] 5707 	ld	l, -1 (ix)
                                   5708 ;	spillPairReg hl
                                   5709 ;	spillPairReg hl
    0000217F 26 00            [ 7] 5710 	ld	h, #0x00
                                   5711 ;	spillPairReg hl
                                   5712 ;	spillPairReg hl
    00002181 09               [11] 5713 	add	hl, bc
    00002182 4D               [ 4] 5714 	ld	c, l
    00002183 44               [ 4] 5715 	ld	b, h
    00002184 DD 5E F8         [19] 5716 	ld	e, -8 (ix)
    00002187 16 00            [ 7] 5717 	ld	d, #0x00
    00002189 21 23 00         [10] 5718 	ld	hl, #35
    0000218C 39               [11] 5719 	add	hl, sp
    0000218D 19               [11] 5720 	add	hl, de
    0000218E 7E               [ 7] 5721 	ld	a, (hl)
    0000218F 6F               [ 4] 5722 	ld	l, a
                                   5723 ;	spillPairReg hl
                                   5724 ;	spillPairReg hl
    00002190 07               [ 4] 5725 	rlca
    00002191 9F               [ 4] 5726 	sbc	a, a
    00002192 67               [ 4] 5727 	ld	h, a
                                   5728 ;	spillPairReg hl
                                   5729 ;	spillPairReg hl
    00002193 09               [11] 5730 	add	hl, bc
    00002194 EB               [ 4] 5731 	ex	de, hl
    00002195 ED 53r00r00      [20] 5732 	ld	(_g_Ball), de
                                   5733 ;E:\Dropbox\FAUSTO\SVILUPPI\MSX\CODE\C\MSXgl\projects\exsoccer/exsoccer_s1_b2.c:943: break;
    00002199 C3rEAr21         [10] 5734 	jp	00126$
                                   5735 ;E:\Dropbox\FAUSTO\SVILUPPI\MSX\CODE\C\MSXgl\projects\exsoccer/exsoccer_s1_b2.c:944: case DIRECTION_DOWN_RIGHT:
    0000219C                       5736 00125$:
                                   5737 ;E:\Dropbox\FAUSTO\SVILUPPI\MSX\CODE\C\MSXgl\projects\exsoccer/exsoccer_s1_b2.c:945: g_Ball.X=g_Players[playerId].X + distX + BallAlignCorrectX[calcDir];
    0000219C DD 6E F5         [19] 5738 	ld	l, -11 (ix)
                                   5739 ;	spillPairReg hl
                                   5740 ;	spillPairReg hl
    0000219F DD 66 F6         [19] 5741 	ld	h, -10 (ix)
                                   5742 ;	spillPairReg hl
                                   5743 ;	spillPairReg hl
    000021A2 23               [ 6] 5744 	inc	hl
    000021A3 23               [ 6] 5745 	inc	hl
    000021A4 4E               [ 7] 5746 	ld	c, (hl)
    000021A5 23               [ 6] 5747 	inc	hl
    000021A6 46               [ 7] 5748 	ld	b, (hl)
    000021A7 DD 6E FE         [19] 5749 	ld	l, -2 (ix)
                                   5750 ;	spillPairReg hl
                                   5751 ;	spillPairReg hl
    000021AA 26 00            [ 7] 5752 	ld	h, #0x00
                                   5753 ;	spillPairReg hl
                                   5754 ;	spillPairReg hl
    000021AC 09               [11] 5755 	add	hl, bc
    000021AD 4D               [ 4] 5756 	ld	c, l
    000021AE 44               [ 4] 5757 	ld	b, h
    000021AF DD 5E F8         [19] 5758 	ld	e, -8 (ix)
    000021B2 16 00            [ 7] 5759 	ld	d, #0x00
    000021B4 21 1A 00         [10] 5760 	ld	hl, #26
    000021B7 39               [11] 5761 	add	hl, sp
    000021B8 19               [11] 5762 	add	hl, de
    000021B9 7E               [ 7] 5763 	ld	a, (hl)
    000021BA 6F               [ 4] 5764 	ld	l, a
                                   5765 ;	spillPairReg hl
                                   5766 ;	spillPairReg hl
    000021BB 07               [ 4] 5767 	rlca
    000021BC 9F               [ 4] 5768 	sbc	a, a
    000021BD 67               [ 4] 5769 	ld	h, a
                                   5770 ;	spillPairReg hl
                                   5771 ;	spillPairReg hl
    000021BE 09               [11] 5772 	add	hl, bc
    000021BF EB               [ 4] 5773 	ex	de, hl
    000021C0 ED 53r02r00      [20] 5774 	ld	((_g_Ball + 2)), de
                                   5775 ;E:\Dropbox\FAUSTO\SVILUPPI\MSX\CODE\C\MSXgl\projects\exsoccer/exsoccer_s1_b2.c:946: g_Ball.Y=g_Players[playerId].Y + distY + BallAlignCorrectY[calcDir];
    000021C4 DD 6E F5         [19] 5776 	ld	l, -11 (ix)
    000021C7 DD 66 F6         [19] 5777 	ld	h, -10 (ix)
    000021CA 4E               [ 7] 5778 	ld	c, (hl)
    000021CB 23               [ 6] 5779 	inc	hl
    000021CC 46               [ 7] 5780 	ld	b, (hl)
    000021CD DD 6E FF         [19] 5781 	ld	l, -1 (ix)
                                   5782 ;	spillPairReg hl
                                   5783 ;	spillPairReg hl
    000021D0 26 00            [ 7] 5784 	ld	h, #0x00
                                   5785 ;	spillPairReg hl
                                   5786 ;	spillPairReg hl
    000021D2 09               [11] 5787 	add	hl, bc
    000021D3 4D               [ 4] 5788 	ld	c, l
    000021D4 44               [ 4] 5789 	ld	b, h
    000021D5 DD 5E F8         [19] 5790 	ld	e, -8 (ix)
    000021D8 16 00            [ 7] 5791 	ld	d, #0x00
    000021DA 21 23 00         [10] 5792 	ld	hl, #35
    000021DD 39               [11] 5793 	add	hl, sp
    000021DE 19               [11] 5794 	add	hl, de
    000021DF 7E               [ 7] 5795 	ld	a, (hl)
    000021E0 6F               [ 4] 5796 	ld	l, a
                                   5797 ;	spillPairReg hl
                                   5798 ;	spillPairReg hl
    000021E1 07               [ 4] 5799 	rlca
    000021E2 9F               [ 4] 5800 	sbc	a, a
    000021E3 67               [ 4] 5801 	ld	h, a
                                   5802 ;	spillPairReg hl
                                   5803 ;	spillPairReg hl
    000021E4 09               [11] 5804 	add	hl, bc
    000021E5 EB               [ 4] 5805 	ex	de, hl
    000021E6 ED 53r00r00      [20] 5806 	ld	(_g_Ball), de
                                   5807 ;E:\Dropbox\FAUSTO\SVILUPPI\MSX\CODE\C\MSXgl\projects\exsoccer/exsoccer_s1_b2.c:948: }
    000021EA                       5808 00126$:
                                   5809 ;E:\Dropbox\FAUSTO\SVILUPPI\MSX\CODE\C\MSXgl\projects\exsoccer/exsoccer_s1_b2.c:949: g_Ball.PreviousY=g_Ball.Y;
    000021EA ED 4Br00r00      [20] 5810 	ld	bc, (#_g_Ball + 0)
    000021EE ED 43r07r00      [20] 5811 	ld	((_g_Ball + 7)), bc
                                   5812 ;E:\Dropbox\FAUSTO\SVILUPPI\MSX\CODE\C\MSXgl\projects\exsoccer/exsoccer_s1_b2.c:950: g_Ball.Direction=dir;
    000021F2 21r05r00         [10] 5813 	ld	hl, #(_g_Ball + 5)
    000021F5 DD 7E F7         [19] 5814 	ld	a, -9 (ix)
    000021F8 77               [ 7] 5815 	ld	(hl), a
                                   5816 ;E:\Dropbox\FAUSTO\SVILUPPI\MSX\CODE\C\MSXgl\projects\exsoccer/exsoccer_s1_b2.c:951: }
    000021F9 DD F9            [10] 5817 	ld	sp, ix
    000021FB DD E1            [14] 5818 	pop	ix
    000021FD C9               [10] 5819 	ret
                                   5820 ;E:\Dropbox\FAUSTO\SVILUPPI\MSX\CODE\C\MSXgl\projects\exsoccer/exsoccer_s1_b2.c:952: void TickBallCollision(){
                                   5821 ;	---------------------------------
                                   5822 ; Function TickBallCollision
                                   5823 ; ---------------------------------
    000021FE                       5824 _TickBallCollision::
    000021FE DD E5            [15] 5825 	push	ix
    00002200 DD 21 00 00      [14] 5826 	ld	ix,#0
    00002204 DD 39            [15] 5827 	add	ix,sp
    00002206 21 EB FF         [10] 5828 	ld	hl, #-21
    00002209 39               [11] 5829 	add	hl, sp
    0000220A F9               [ 6] 5830 	ld	sp, hl
                                   5831 ;E:\Dropbox\FAUSTO\SVILUPPI\MSX\CODE\C\MSXgl\projects\exsoccer/exsoccer_s1_b2.c:953: if(g_MatchStatus!=MATCH_IN_ACTION){
    0000220B 3Ar00r00         [13] 5832 	ld	a, (_g_MatchStatus+0)
    0000220E D6 0C            [ 7] 5833 	sub	a, #0x0c
                                   5834 ;E:\Dropbox\FAUSTO\SVILUPPI\MSX\CODE\C\MSXgl\projects\exsoccer/exsoccer_s1_b2.c:954: return;
    00002210 C2rC8r25         [10] 5835 	jp	NZ,00168$
                                   5836 ;E:\Dropbox\FAUSTO\SVILUPPI\MSX\CODE\C\MSXgl\projects\exsoccer/exsoccer_s1_b2.c:958: if (g_Ball.PossessionPlayerId != NO_VALUE) {
    00002213 3Ar06r00         [13] 5837 	ld	a, (#(_g_Ball + 6) + 0)
    00002216 3C               [ 4] 5838 	inc	a
    00002217 28 0A            [12] 5839 	jr	Z, 00106$
                                   5840 ;E:\Dropbox\FAUSTO\SVILUPPI\MSX\CODE\C\MSXgl\projects\exsoccer/exsoccer_s1_b2.c:959: if (g_Ball.PossessionTimer < 255) g_Ball.PossessionTimer++;
    00002219 01r1Cr00         [10] 5841 	ld	bc, #_g_Ball + 28
    0000221C 0A               [ 7] 5842 	ld	a, (bc)
    0000221D FE FF            [ 7] 5843 	cp	a, #0xff
    0000221F 30 02            [12] 5844 	jr	NC, 00106$
    00002221 3C               [ 4] 5845 	inc	a
    00002222 02               [ 7] 5846 	ld	(bc), a
    00002223                       5847 00106$:
                                   5848 ;E:\Dropbox\FAUSTO\SVILUPPI\MSX\CODE\C\MSXgl\projects\exsoccer/exsoccer_s1_b2.c:964: if (g_Ball.PossessionPlayerId == NO_VALUE) { // Ball in air
    00002223 21r06r00         [10] 5849 	ld	hl, #(_g_Ball + 6)
    00002226 4E               [ 7] 5850 	ld	c, (hl)
                                   5851 ;E:\Dropbox\FAUSTO\SVILUPPI\MSX\CODE\C\MSXgl\projects\exsoccer/exsoccer_s1_b2.c:967: if (g_Ball.ShotActive == 1) {
                                   5852 ;E:\Dropbox\FAUSTO\SVILUPPI\MSX\CODE\C\MSXgl\projects\exsoccer/exsoccer_s1_b2.c:968: i16 diffStart = (i16)g_Ball.X - (i16)g_Ball.PassStartX; 
                                   5853 ;E:\Dropbox\FAUSTO\SVILUPPI\MSX\CODE\C\MSXgl\projects\exsoccer/exsoccer_s1_b2.c:964: if (g_Ball.PossessionPlayerId == NO_VALUE) { // Ball in air
    00002227 0C               [ 4] 5854 	inc	c
    00002228 28 00            [12] 5855 	jr	Z, 00318$
    0000222A                       5856 00318$:
                                   5857 ;E:\Dropbox\FAUSTO\SVILUPPI\MSX\CODE\C\MSXgl\projects\exsoccer/exsoccer_s1_b2.c:974: for(u8 i=0; i<14; i++){
    0000222A DD 36 EF 00      [19] 5858 	ld	-17 (ix), #0x00
    0000222E DD 36 FB 00      [19] 5859 	ld	-5 (ix), #0x00
    00002232                       5860 00167$:
    00002232 DD 7E FB         [19] 5861 	ld	a, -5 (ix)
    00002235 D6 0E            [ 7] 5862 	sub	a, #0x0e
    00002237 D2rC8r25         [10] 5863 	jp	NC, 00168$
                                   5864 ;E:\Dropbox\FAUSTO\SVILUPPI\MSX\CODE\C\MSXgl\projects\exsoccer/exsoccer_s1_b2.c:975: if(g_Players[i].Status == PLAYER_STATUS_NONE) continue;
    0000223A DD 4E FB         [19] 5865 	ld	c, -5 (ix)
    0000223D 06 00            [ 7] 5866 	ld	b, #0x00
    0000223F 69               [ 4] 5867 	ld	l, c
    00002240 60               [ 4] 5868 	ld	h, b
    00002241 29               [11] 5869 	add	hl, hl
    00002242 29               [11] 5870 	add	hl, hl
    00002243 09               [11] 5871 	add	hl, bc
    00002244 29               [11] 5872 	add	hl, hl
    00002245 29               [11] 5873 	add	hl, hl
    00002246 09               [11] 5874 	add	hl, bc
    00002247 EB               [ 4] 5875 	ex	de, hl
    00002248 21r00r00         [10] 5876 	ld	hl, #_g_Players
    0000224B 19               [11] 5877 	add	hl, de
    0000224C DD 75 F0         [19] 5878 	ld	-16 (ix), l
    0000224F DD 74 F1         [19] 5879 	ld	-15 (ix), h
                                   5880 ;E:\Dropbox\FAUSTO\SVILUPPI\MSX\CODE\C\MSXgl\projects\exsoccer/exsoccer_s1_b2.c:1049: g_Players[i].Status = PLAYER_STATUS_POSITIONED; // Lock it
    00002252 DD 7E F0         [19] 5881 	ld	a, -16 (ix)
    00002255 C6 12            [ 7] 5882 	add	a, #0x12
    00002257 DD 77 F2         [19] 5883 	ld	-14 (ix), a
    0000225A DD 7E F1         [19] 5884 	ld	a, -15 (ix)
    0000225D CE 00            [ 7] 5885 	adc	a, #0x00
    0000225F DD 77 F3         [19] 5886 	ld	-13 (ix), a
                                   5887 ;E:\Dropbox\FAUSTO\SVILUPPI\MSX\CODE\C\MSXgl\projects\exsoccer/exsoccer_s1_b2.c:975: if(g_Players[i].Status == PLAYER_STATUS_NONE) continue;
    00002262 DD 6E F2         [19] 5888 	ld	l, -14 (ix)
    00002265 DD 66 F3         [19] 5889 	ld	h, -13 (ix)
    00002268 7E               [ 7] 5890 	ld	a, (hl)
    00002269 23               [ 6] 5891 	inc	hl
    0000226A B6               [ 7] 5892 	or	a, (hl)
    0000226B CArBCr25         [10] 5893 	jp	Z, 00164$
                                   5894 ;E:\Dropbox\FAUSTO\SVILUPPI\MSX\CODE\C\MSXgl\projects\exsoccer/exsoccer_s1_b2.c:976: if(g_Ball.PossessionPlayerId == i) continue; // Skip self
    0000226E 21r06r00         [10] 5895 	ld	hl, #(_g_Ball + 6)
    00002271 DD 7E FB         [19] 5896 	ld	a,-5 (ix)
    00002274 96               [ 7] 5897 	sub	a,(hl)
    00002275 CArBCr25         [10] 5898 	jp	Z,00164$
                                   5899 ;E:\Dropbox\FAUSTO\SVILUPPI\MSX\CODE\C\MSXgl\projects\exsoccer/exsoccer_s1_b2.c:981: u8 hitDist = 14;
    00002278 DD 36 FD 0E      [19] 5900 	ld	-3 (ix), #0x0e
                                   5901 ;E:\Dropbox\FAUSTO\SVILUPPI\MSX\CODE\C\MSXgl\projects\exsoccer/exsoccer_s1_b2.c:1021: if (g_Players[i].Role == PLAYER_ROLE_GOALKEEPER) {
    0000227C DD 7E F0         [19] 5902 	ld	a, -16 (ix)
    0000227F C6 0D            [ 7] 5903 	add	a, #0x0d
    00002281 DD 77 F4         [19] 5904 	ld	-12 (ix), a
    00002284 DD 7E F1         [19] 5905 	ld	a, -15 (ix)
    00002287 CE 00            [ 7] 5906 	adc	a, #0x00
    00002289 DD 77 F5         [19] 5907 	ld	-11 (ix), a
                                   5908 ;E:\Dropbox\FAUSTO\SVILUPPI\MSX\CODE\C\MSXgl\projects\exsoccer/exsoccer_s1_b2.c:982: if (g_Players[i].Role == PLAYER_ROLE_GOALKEEPER) {
    0000228C DD 6E F4         [19] 5909 	ld	l, -12 (ix)
    0000228F DD 66 F5         [19] 5910 	ld	h, -11 (ix)
    00002292 7E               [ 7] 5911 	ld	a, (hl)
    00002293 DD 77 FF         [19] 5912 	ld	-1 (ix), a
    00002296 B7               [ 4] 5913 	or	a, a
    00002297 20 3E            [12] 5914 	jr	NZ, 00125$
                                   5915 ;E:\Dropbox\FAUSTO\SVILUPPI\MSX\CODE\C\MSXgl\projects\exsoccer/exsoccer_s1_b2.c:983: const TeamStats* stats = GetTeamStats(g_Players[i].TeamId);
    00002299 DD 7E F0         [19] 5916 	ld	a, -16 (ix)
    0000229C DD 77 FE         [19] 5917 	ld	-2 (ix), a
    0000229F DD 7E F1         [19] 5918 	ld	a, -15 (ix)
    000022A2 DD 77 FF         [19] 5919 	ld	-1 (ix), a
    000022A5 DD 6E FE         [19] 5920 	ld	l, -2 (ix)
    000022A8 DD 66 FF         [19] 5921 	ld	h, -1 (ix)
    000022AB 11 09 00         [10] 5922 	ld	de, #0x0009
    000022AE 19               [11] 5923 	add	hl, de
    000022AF 7E               [ 7] 5924 	ld	a, (hl)
    000022B0 DD 77 FF         [19] 5925 	ld	-1 (ix), a
    000022B3 CDr00r00         [17] 5926 	call	_GetTeamStats
    000022B6 DD 73 FE         [19] 5927 	ld	-2 (ix), e
    000022B9 DD 72 FF         [19] 5928 	ld	-1 (ix), d
                                   5929 ;E:\Dropbox\FAUSTO\SVILUPPI\MSX\CODE\C\MSXgl\projects\exsoccer/exsoccer_s1_b2.c:984: if (g_Ball.ShotActive) hitDist = stats->GkSkill; 
    000022BC 3Ar1Br00         [13] 5930 	ld	a, (#(_g_Ball + 27) + 0)
    000022BF B7               [ 4] 5931 	or	a, a
    000022C0 28 11            [12] 5932 	jr	Z, 00122$
    000022C2 DD 4E FE         [19] 5933 	ld	c, -2 (ix)
    000022C5 DD 46 FF         [19] 5934 	ld	b, -1 (ix)
    000022C8 21 04 00         [10] 5935 	ld	hl, #4
    000022CB 09               [11] 5936 	add	hl, bc
    000022CC 7E               [ 7] 5937 	ld	a, (hl)
    000022CD DD 77 FD         [19] 5938 	ld	-3 (ix), a
    000022D0 C3rD7r22         [10] 5939 	jp	00125$
    000022D3                       5940 00122$:
                                   5941 ;E:\Dropbox\FAUSTO\SVILUPPI\MSX\CODE\C\MSXgl\projects\exsoccer/exsoccer_s1_b2.c:985: else hitDist = 14; 
    000022D3 DD 36 FD 0E      [19] 5942 	ld	-3 (ix), #0x0e
    000022D7                       5943 00125$:
                                   5944 ;E:\Dropbox\FAUSTO\SVILUPPI\MSX\CODE\C\MSXgl\projects\exsoccer/exsoccer_s1_b2.c:989: u16 diffX = (g_Ball.X > g_Players[i].X) ? (g_Ball.X - g_Players[i].X) : (g_Players[i].X - g_Ball.X);
    000022D7 21r02r00         [10] 5945 	ld	hl, #_g_Ball + 2
    000022DA 7E               [ 7] 5946 	ld	a, (hl)
    000022DB DD 77 F6         [19] 5947 	ld	-10 (ix), a
    000022DE 23               [ 6] 5948 	inc	hl
    000022DF 7E               [ 7] 5949 	ld	a, (hl)
    000022E0 DD 77 F7         [19] 5950 	ld	-9 (ix), a
    000022E3 DD 6E F0         [19] 5951 	ld	l, -16 (ix)
                                   5952 ;	spillPairReg hl
                                   5953 ;	spillPairReg hl
    000022E6 DD 66 F1         [19] 5954 	ld	h, -15 (ix)
                                   5955 ;	spillPairReg hl
                                   5956 ;	spillPairReg hl
    000022E9 23               [ 6] 5957 	inc	hl
    000022EA 23               [ 6] 5958 	inc	hl
    000022EB 7E               [ 7] 5959 	ld	a, (hl)
    000022EC DD 77 F8         [19] 5960 	ld	-8 (ix), a
    000022EF 23               [ 6] 5961 	inc	hl
    000022F0 7E               [ 7] 5962 	ld	a, (hl)
    000022F1 DD 77 F9         [19] 5963 	ld	-7 (ix), a
    000022F4 DD 7E F8         [19] 5964 	ld	a, -8 (ix)
    000022F7 DD 96 F6         [19] 5965 	sub	a, -10 (ix)
    000022FA DD 7E F9         [19] 5966 	ld	a, -7 (ix)
    000022FD DD 9E F7         [19] 5967 	sbc	a, -9 (ix)
    00002300 30 15            [12] 5968 	jr	NC, 00170$
    00002302 DD 7E F6         [19] 5969 	ld	a, -10 (ix)
    00002305 DD 96 F8         [19] 5970 	sub	a, -8 (ix)
    00002308 DD 77 FE         [19] 5971 	ld	-2 (ix), a
    0000230B DD 7E F7         [19] 5972 	ld	a, -9 (ix)
    0000230E DD 9E F9         [19] 5973 	sbc	a, -7 (ix)
    00002311 DD 77 FF         [19] 5974 	ld	-1 (ix), a
    00002314 C3r29r23         [10] 5975 	jp	00171$
    00002317                       5976 00170$:
    00002317 DD 7E F8         [19] 5977 	ld	a, -8 (ix)
    0000231A DD 96 F6         [19] 5978 	sub	a, -10 (ix)
    0000231D DD 77 FE         [19] 5979 	ld	-2 (ix), a
    00002320 DD 7E F9         [19] 5980 	ld	a, -7 (ix)
    00002323 DD 9E F7         [19] 5981 	sbc	a, -9 (ix)
    00002326 DD 77 FF         [19] 5982 	ld	-1 (ix), a
    00002329                       5983 00171$:
                                   5984 ;E:\Dropbox\FAUSTO\SVILUPPI\MSX\CODE\C\MSXgl\projects\exsoccer/exsoccer_s1_b2.c:990: u16 diffY = (g_Ball.Y > g_Players[i].Y) ? (g_Ball.Y - g_Players[i].Y) : (g_Players[i].Y - g_Ball.Y);
    00002329 ED 4Br00r00      [20] 5985 	ld	bc, (#_g_Ball + 0)
    0000232D DD 6E F0         [19] 5986 	ld	l, -16 (ix)
    00002330 DD 66 F1         [19] 5987 	ld	h, -15 (ix)
    00002333 5E               [ 7] 5988 	ld	e, (hl)
    00002334 23               [ 6] 5989 	inc	hl
    00002335 56               [ 7] 5990 	ld	d, (hl)
    00002336 7B               [ 4] 5991 	ld	a, e
    00002337 91               [ 4] 5992 	sub	a, c
    00002338 7A               [ 4] 5993 	ld	a, d
    00002339 98               [ 4] 5994 	sbc	a, b
    0000233A 30 08            [12] 5995 	jr	NC, 00172$
    0000233C 79               [ 4] 5996 	ld	a, c
    0000233D 93               [ 4] 5997 	sub	a, e
    0000233E 5F               [ 4] 5998 	ld	e, a
    0000233F 78               [ 4] 5999 	ld	a, b
    00002340 9A               [ 4] 6000 	sbc	a, d
    00002341 C3r49r23         [10] 6001 	jp	00173$
    00002344                       6002 00172$:
    00002344 7B               [ 4] 6003 	ld	a, e
    00002345 91               [ 4] 6004 	sub	a, c
    00002346 5F               [ 4] 6005 	ld	e, a
    00002347 7A               [ 4] 6006 	ld	a, d
    00002348 98               [ 4] 6007 	sbc	a, b
    00002349                       6008 00173$:
    00002349 57               [ 4] 6009 	ld	d, a
                                   6010 ;E:\Dropbox\FAUSTO\SVILUPPI\MSX\CODE\C\MSXgl\projects\exsoccer/exsoccer_s1_b2.c:992: if(diffX < hitDist && diffY < hitDist){ 
    0000234A DD 6E FD         [19] 6011 	ld	l, -3 (ix)
                                   6012 ;	spillPairReg hl
                                   6013 ;	spillPairReg hl
    0000234D 26 00            [ 7] 6014 	ld	h, #0x00
                                   6015 ;	spillPairReg hl
                                   6016 ;	spillPairReg hl
    0000234F DD 7E FE         [19] 6017 	ld	a, -2 (ix)
    00002352 95               [ 4] 6018 	sub	a, l
    00002353 DD 7E FF         [19] 6019 	ld	a, -1 (ix)
    00002356 9C               [ 4] 6020 	sbc	a, h
    00002357 D2rBCr25         [10] 6021 	jp	NC, 00164$
    0000235A 7B               [ 4] 6022 	ld	a, e
    0000235B 95               [ 4] 6023 	sub	a, l
    0000235C 7A               [ 4] 6024 	ld	a, d
    0000235D 9C               [ 4] 6025 	sbc	a, h
    0000235E D2rBCr25         [10] 6026 	jp	NC, 00164$
                                   6027 ;E:\Dropbox\FAUSTO\SVILUPPI\MSX\CODE\C\MSXgl\projects\exsoccer/exsoccer_s1_b2.c:993: if (g_Ball.PossessionPlayerId == NO_VALUE) {
    00002361 3Ar06r00         [13] 6028 	ld	a, (#(_g_Ball + 6) + 0)
    00002364 DD 77 FF         [19] 6029 	ld	-1 (ix), a
    00002367 3C               [ 4] 6030 	inc	a
    00002368 C2r54r25         [10] 6031 	jp	NZ,00159$
                                   6032 ;E:\Dropbox\FAUSTO\SVILUPPI\MSX\CODE\C\MSXgl\projects\exsoccer/exsoccer_s1_b2.c:1012: if (g_Ball.ShotActive == 1 || g_Ball.PassTargetPlayerId != NO_VALUE) {
    0000236B 3Ar1Br00         [13] 6033 	ld	a, (#(_g_Ball + 27) + 0)
    0000236E DD 77 FA         [19] 6034 	ld	-6 (ix), a
    00002371 3D               [ 4] 6035 	dec	a
    00002372 28 07            [12] 6036 	jr	Z, 00132$
    00002374 3Ar10r00         [13] 6037 	ld	a, (#(_g_Ball + 16) + 0)
    00002377 3C               [ 4] 6038 	inc	a
    00002378 CAr1Fr24         [10] 6039 	jp	Z,00133$
    0000237B                       6040 00132$:
                                   6041 ;E:\Dropbox\FAUSTO\SVILUPPI\MSX\CODE\C\MSXgl\projects\exsoccer/exsoccer_s1_b2.c:1013: i16 dxStart = (i16)g_Ball.X - (i16)g_Ball.PassStartX;
    0000237B DD 5E F6         [19] 6042 	ld	e, -10 (ix)
    0000237E DD 56 F7         [19] 6043 	ld	d, -9 (ix)
    00002381 2Ar11r00         [16] 6044 	ld	hl, (#(_g_Ball + 17) + 0)
    00002384 7B               [ 4] 6045 	ld	a, e
    00002385 95               [ 4] 6046 	sub	a, l
    00002386 5F               [ 4] 6047 	ld	e, a
    00002387 7A               [ 4] 6048 	ld	a, d
    00002388 9C               [ 4] 6049 	sbc	a, h
    00002389 DD 73 FC         [19] 6050 	ld	-4 (ix), e
    0000238C DD 77 FD         [19] 6051 	ld	-3 (ix), a
                                   6052 ;E:\Dropbox\FAUSTO\SVILUPPI\MSX\CODE\C\MSXgl\projects\exsoccer/exsoccer_s1_b2.c:1014: i16 dyStart = (i16)g_Ball.Y - (i16)g_Ball.PassStartY;
    0000238F 33               [ 6] 6053 	inc	sp
    00002390 33               [ 6] 6054 	inc	sp
    00002391 C5               [11] 6055 	push	bc
    00002392 21r13r00         [10] 6056 	ld	hl, #_g_Ball + 19
    00002395 7E               [ 7] 6057 	ld	a, (hl)
    00002396 DD 77 FE         [19] 6058 	ld	-2 (ix), a
    00002399 23               [ 6] 6059 	inc	hl
    0000239A 7E               [ 7] 6060 	ld	a, (hl)
    0000239B DD 77 FF         [19] 6061 	ld	-1 (ix), a
    0000239E DD 7E FE         [19] 6062 	ld	a, -2 (ix)
    000023A1 DD 77 ED         [19] 6063 	ld	-19 (ix), a
    000023A4 DD 7E FF         [19] 6064 	ld	a, -1 (ix)
    000023A7 DD 77 EE         [19] 6065 	ld	-18 (ix), a
    000023AA DD 7E EB         [19] 6066 	ld	a, -21 (ix)
    000023AD DD 96 ED         [19] 6067 	sub	a, -19 (ix)
    000023B0 DD 77 FE         [19] 6068 	ld	-2 (ix), a
    000023B3 DD 7E EC         [19] 6069 	ld	a, -20 (ix)
    000023B6 DD 9E EE         [19] 6070 	sbc	a, -18 (ix)
    000023B9 DD 77 FF         [19] 6071 	ld	-1 (ix), a
                                   6072 ;E:\Dropbox\FAUSTO\SVILUPPI\MSX\CODE\C\MSXgl\projects\exsoccer/exsoccer_s1_b2.c:1015: if (dxStart < 0) dxStart = -dxStart;
    000023BC DD 7E FC         [19] 6073 	ld	a, -4 (ix)
    000023BF DD 77 ED         [19] 6074 	ld	-19 (ix), a
    000023C2 DD 7E FD         [19] 6075 	ld	a, -3 (ix)
    000023C5 DD 77 EE         [19] 6076 	ld	-18 (ix), a
    000023C8 DD CB EE 7E      [20] 6077 	bit	7, -18 (ix)
    000023CC 28 0E            [12] 6078 	jr	Z, 00127$
    000023CE AF               [ 4] 6079 	xor	a, a
    000023CF DD 96 FC         [19] 6080 	sub	a, -4 (ix)
    000023D2 DD 77 FC         [19] 6081 	ld	-4 (ix), a
    000023D5 9F               [ 4] 6082 	sbc	a, a
    000023D6 DD 96 FD         [19] 6083 	sub	a, -3 (ix)
    000023D9 DD 77 FD         [19] 6084 	ld	-3 (ix), a
    000023DC                       6085 00127$:
                                   6086 ;E:\Dropbox\FAUSTO\SVILUPPI\MSX\CODE\C\MSXgl\projects\exsoccer/exsoccer_s1_b2.c:1016: if (dyStart < 0) dyStart = -dyStart;
    000023DC DD 46 FF         [19] 6087 	ld	b, -1 (ix)
    000023DF CB 78            [ 8] 6088 	bit	7, b
    000023E1 28 0E            [12] 6089 	jr	Z, 00129$
    000023E3 AF               [ 4] 6090 	xor	a, a
    000023E4 DD 96 FE         [19] 6091 	sub	a, -2 (ix)
    000023E7 DD 77 FE         [19] 6092 	ld	-2 (ix), a
    000023EA 9F               [ 4] 6093 	sbc	a, a
    000023EB DD 96 FF         [19] 6094 	sub	a, -1 (ix)
    000023EE DD 77 FF         [19] 6095 	ld	-1 (ix), a
    000023F1                       6096 00129$:
                                   6097 ;E:\Dropbox\FAUSTO\SVILUPPI\MSX\CODE\C\MSXgl\projects\exsoccer/exsoccer_s1_b2.c:1017: if ((dxStart + dyStart) < 24) continue; 
    000023F1 DD 7E FE         [19] 6098 	ld	a, -2 (ix)
    000023F4 DD 86 FC         [19] 6099 	add	a, -4 (ix)
    000023F7 DD 77 ED         [19] 6100 	ld	-19 (ix), a
    000023FA DD 7E FF         [19] 6101 	ld	a, -1 (ix)
    000023FD DD 8E FD         [19] 6102 	adc	a, -3 (ix)
    00002400 DD 77 EE         [19] 6103 	ld	-18 (ix), a
    00002403 DD 7E ED         [19] 6104 	ld	a, -19 (ix)
    00002406 DD 77 FE         [19] 6105 	ld	-2 (ix), a
    00002409 DD 7E EE         [19] 6106 	ld	a, -18 (ix)
    0000240C DD 77 FF         [19] 6107 	ld	-1 (ix), a
    0000240F DD 7E FE         [19] 6108 	ld	a, -2 (ix)
    00002412 D6 18            [ 7] 6109 	sub	a, #0x18
    00002414 DD 7E FF         [19] 6110 	ld	a, -1 (ix)
    00002417 17               [ 4] 6111 	rla
    00002418 3F               [ 4] 6112 	ccf
    00002419 1F               [ 4] 6113 	rra
    0000241A DE 80            [ 7] 6114 	sbc	a, #0x80
    0000241C DArBCr25         [10] 6115 	jp	C, 00164$
    0000241F                       6116 00133$:
                                   6117 ;E:\Dropbox\FAUSTO\SVILUPPI\MSX\CODE\C\MSXgl\projects\exsoccer/exsoccer_s1_b2.c:1021: if (g_Players[i].Role == PLAYER_ROLE_GOALKEEPER) {
    0000241F DD 6E F4         [19] 6118 	ld	l, -12 (ix)
    00002422 DD 66 F5         [19] 6119 	ld	h, -11 (ix)
                                   6120 ;E:\Dropbox\FAUSTO\SVILUPPI\MSX\CODE\C\MSXgl\projects\exsoccer/exsoccer_s1_b2.c:1060: g_Ball.Size = 2;
                                   6121 ;E:\Dropbox\FAUSTO\SVILUPPI\MSX\CODE\C\MSXgl\projects\exsoccer/exsoccer_s1_b2.c:1021: if (g_Players[i].Role == PLAYER_ROLE_GOALKEEPER) {
    00002425 7E               [ 7] 6122 	ld	a, (hl)
    00002426 B7               [ 4] 6123 	or	a, a
    00002427 C2r2Cr25         [10] 6124 	jp	NZ, 00153$
                                   6125 ;E:\Dropbox\FAUSTO\SVILUPPI\MSX\CODE\C\MSXgl\projects\exsoccer/exsoccer_s1_b2.c:1023: bool wasShot = (g_Ball.ShotActive != 0);
    0000242A DD 7E FA         [19] 6126 	ld	a, -6 (ix)
    0000242D D6 01            [ 7] 6127 	sub	a,#0x01
    0000242F 3E 00            [ 7] 6128 	ld	a, #0x00
    00002431 17               [ 4] 6129 	rla
    00002432 EE 01            [ 7] 6130 	xor	a, #0x01
    00002434 DD 77 FD         [19] 6131 	ld	-3 (ix), a
                                   6132 ;E:\Dropbox\FAUSTO\SVILUPPI\MSX\CODE\C\MSXgl\projects\exsoccer/exsoccer_s1_b2.c:1037: u8 team = g_Players[i].TeamId;
    00002437 DD 7E F0         [19] 6133 	ld	a, -16 (ix)
    0000243A C6 09            [ 7] 6134 	add	a, #0x09
    0000243C DD 77 FE         [19] 6135 	ld	-2 (ix), a
    0000243F DD 7E F1         [19] 6136 	ld	a, -15 (ix)
    00002442 CE 00            [ 7] 6137 	adc	a, #0x00
    00002444 DD 77 FF         [19] 6138 	ld	-1 (ix), a
                                   6139 ;E:\Dropbox\FAUSTO\SVILUPPI\MSX\CODE\C\MSXgl\projects\exsoccer/exsoccer_s1_b2.c:1026: if (g_Ball.ShotActive) {
    00002447 DD 7E FA         [19] 6140 	ld	a, -6 (ix)
    0000244A B7               [ 4] 6141 	or	a, a
    0000244B CArF4r24         [10] 6142 	jp	Z, 00149$
                                   6143 ;E:\Dropbox\FAUSTO\SVILUPPI\MSX\CODE\C\MSXgl\projects\exsoccer/exsoccer_s1_b2.c:1027: i16 signedDiffX = (i16)g_Ball.X - (i16)g_Players[i].X;
    0000244E DD 7E F6         [19] 6144 	ld	a, -10 (ix)
    00002451 DD 77 FB         [19] 6145 	ld	-5 (ix), a
    00002454 DD 7E F7         [19] 6146 	ld	a, -9 (ix)
    00002457 DD 77 FC         [19] 6147 	ld	-4 (ix), a
    0000245A DD 7E F8         [19] 6148 	ld	a, -8 (ix)
    0000245D DD 77 F5         [19] 6149 	ld	-11 (ix), a
    00002460 DD 7E F9         [19] 6150 	ld	a, -7 (ix)
    00002463 DD 77 F6         [19] 6151 	ld	-10 (ix), a
    00002466 DD 7E FB         [19] 6152 	ld	a, -5 (ix)
    00002469 DD 96 F5         [19] 6153 	sub	a, -11 (ix)
    0000246C DD 77 F9         [19] 6154 	ld	-7 (ix), a
    0000246F DD 7E FC         [19] 6155 	ld	a, -4 (ix)
    00002472 DD 9E F6         [19] 6156 	sbc	a, -10 (ix)
    00002475 DD 77 FA         [19] 6157 	ld	-6 (ix), a
    00002478 DD 7E F9         [19] 6158 	ld	a, -7 (ix)
    0000247B DD 77 FB         [19] 6159 	ld	-5 (ix), a
    0000247E DD 7E FA         [19] 6160 	ld	a, -6 (ix)
    00002481 DD 77 FC         [19] 6161 	ld	-4 (ix), a
                                   6162 ;E:\Dropbox\FAUSTO\SVILUPPI\MSX\CODE\C\MSXgl\projects\exsoccer/exsoccer_s1_b2.c:1030: if (signedDiffX >= -5 && signedDiffX <= 5) {
    00002484 DD 7E FB         [19] 6163 	ld	a, -5 (ix)
    00002487 DD 77 F9         [19] 6164 	ld	-7 (ix), a
    0000248A DD 7E FC         [19] 6165 	ld	a, -4 (ix)
    0000248D DD 77 FA         [19] 6166 	ld	-6 (ix), a
    00002490 3E 05            [ 7] 6167 	ld	a, #0x05
    00002492 DD BE F9         [19] 6168 	cp	a, -7 (ix)
    00002495 3E 00            [ 7] 6169 	ld	a, #0x00
    00002497 DD 9E FA         [19] 6170 	sbc	a, -6 (ix)
    0000249A E2r9Fr24         [10] 6171 	jp	PO, 00324$
    0000249D EE 80            [ 7] 6172 	xor	a, #0x80
    0000249F                       6173 00324$:
    0000249F 07               [ 4] 6174 	rlca
    000024A0 E6 01            [ 7] 6175 	and	a,#0x01
    000024A2 47               [ 4] 6176 	ld	b, a
    000024A3 DD 7E FB         [19] 6177 	ld	a, -5 (ix)
    000024A6 D6 FB            [ 7] 6178 	sub	a, #0xfb
    000024A8 DD 7E FC         [19] 6179 	ld	a, -4 (ix)
    000024AB 17               [ 4] 6180 	rla
    000024AC 3F               [ 4] 6181 	ccf
    000024AD 1F               [ 4] 6182 	rra
    000024AE DE 7F            [ 7] 6183 	sbc	a, #0x7f
    000024B0 38 04            [12] 6184 	jr	C, 00145$
    000024B2 CB 40            [ 8] 6185 	bit	0, b
    000024B4 28 3E            [12] 6186 	jr	Z, 00149$
    000024B6                       6187 00145$:
                                   6188 ;E:\Dropbox\FAUSTO\SVILUPPI\MSX\CODE\C\MSXgl\projects\exsoccer/exsoccer_s1_b2.c:1037: u8 team = g_Players[i].TeamId;
    000024B6 DD 6E FE         [19] 6189 	ld	l, -2 (ix)
    000024B9 DD 66 FF         [19] 6190 	ld	h, -1 (ix)
    000024BC 7E               [ 7] 6191 	ld	a, (hl)
                                   6192 ;E:\Dropbox\FAUSTO\SVILUPPI\MSX\CODE\C\MSXgl\projects\exsoccer/exsoccer_s1_b2.c:1041: if (team == TEAM_1) divePose = PLAYER_POSE_TEAM1_GK_DOWN_RIGHT;
    000024BD 3D               [ 4] 6193 	dec	a
    000024BE 3E 01            [ 7] 6194 	ld	a, #0x01
    000024C0 28 01            [12] 6195 	jr	Z, 00326$
    000024C2 AF               [ 4] 6196 	xor	a, a
    000024C3                       6197 00326$:
    000024C3 4F               [ 4] 6198 	ld	c, a
                                   6199 ;E:\Dropbox\FAUSTO\SVILUPPI\MSX\CODE\C\MSXgl\projects\exsoccer/exsoccer_s1_b2.c:1040: if (signedDiffX > 5) { // Ball to Right
    000024C4 78               [ 4] 6200 	ld	a, b
    000024C5 B7               [ 4] 6201 	or	a, a
    000024C6 28 0E            [12] 6202 	jr	Z, 00142$
                                   6203 ;E:\Dropbox\FAUSTO\SVILUPPI\MSX\CODE\C\MSXgl\projects\exsoccer/exsoccer_s1_b2.c:1041: if (team == TEAM_1) divePose = PLAYER_POSE_TEAM1_GK_DOWN_RIGHT;
    000024C8 79               [ 4] 6204 	ld	a, c
    000024C9 B7               [ 4] 6205 	or	a, a
    000024CA 28 05            [12] 6206 	jr	Z, 00136$
    000024CC 0E 3F            [ 7] 6207 	ld	c, #0x3f
    000024CE C3rDEr24         [10] 6208 	jp	00143$
    000024D1                       6209 00136$:
                                   6210 ;E:\Dropbox\FAUSTO\SVILUPPI\MSX\CODE\C\MSXgl\projects\exsoccer/exsoccer_s1_b2.c:1042: else divePose = PLAYER_POSE_TEAM2_GK_DOWN_RIGHT;
    000024D1 0E 2F            [ 7] 6211 	ld	c, #0x2f
    000024D3 C3rDEr24         [10] 6212 	jp	00143$
    000024D6                       6213 00142$:
                                   6214 ;E:\Dropbox\FAUSTO\SVILUPPI\MSX\CODE\C\MSXgl\projects\exsoccer/exsoccer_s1_b2.c:1044: if (team == TEAM_1) divePose = PLAYER_POSE_TEAM1_GK_DOWN_LEFT;
    000024D6 79               [ 4] 6215 	ld	a, c
    000024D7 B7               [ 4] 6216 	or	a, a
                                   6217 ;E:\Dropbox\FAUSTO\SVILUPPI\MSX\CODE\C\MSXgl\projects\exsoccer/exsoccer_s1_b2.c:1045: else divePose = PLAYER_POSE_TEAM2_GK_DOWN_LEFT;
    000024D8 0E A0            [ 7] 6218 	ld	c, #0xa0
    000024DA 20 02            [12] 6219 	jr	NZ, 00143$
    000024DC 0E A0            [ 7] 6220 	ld	c, #0xa0
    000024DE                       6221 00143$:
                                   6222 ;E:\Dropbox\FAUSTO\SVILUPPI\MSX\CODE\C\MSXgl\projects\exsoccer/exsoccer_s1_b2.c:1048: g_Players[i].PatternId = divePose;
    000024DE DD 6E F0         [19] 6223 	ld	l, -16 (ix)
    000024E1 DD 66 F1         [19] 6224 	ld	h, -15 (ix)
    000024E4 11 08 00         [10] 6225 	ld	de, #0x0008
    000024E7 19               [11] 6226 	add	hl, de
    000024E8 71               [ 7] 6227 	ld	(hl), c
                                   6228 ;E:\Dropbox\FAUSTO\SVILUPPI\MSX\CODE\C\MSXgl\projects\exsoccer/exsoccer_s1_b2.c:1049: g_Players[i].Status = PLAYER_STATUS_POSITIONED; // Lock it
    000024E9 DD 6E F2         [19] 6229 	ld	l, -14 (ix)
    000024EC DD 66 F3         [19] 6230 	ld	h, -13 (ix)
    000024EF 36 04            [10] 6231 	ld	(hl), #0x04
    000024F1 23               [ 6] 6232 	inc	hl
    000024F2 36 00            [10] 6233 	ld	(hl), #0x00
    000024F4                       6234 00149$:
                                   6235 ;E:\Dropbox\FAUSTO\SVILUPPI\MSX\CODE\C\MSXgl\projects\exsoccer/exsoccer_s1_b2.c:1053: PutBallOnPlayerFeet(i);
    000024F4 DD 7E EF         [19] 6236 	ld	a, -17 (ix)
    000024F7 CDrF7r1C         [17] 6237 	call	_PutBallOnPlayerFeet
                                   6238 ;E:\Dropbox\FAUSTO\SVILUPPI\MSX\CODE\C\MSXgl\projects\exsoccer/exsoccer_s1_b2.c:1054: GoalkeeperWithBall(g_Players[i].TeamId, !wasShot); 
    000024FA DD 7E FD         [19] 6239 	ld	a, -3 (ix)
    000024FD D6 01            [ 7] 6240 	sub	a,#0x01
    000024FF 3E 00            [ 7] 6241 	ld	a, #0x00
    00002501 17               [ 4] 6242 	rla
    00002502 4F               [ 4] 6243 	ld	c, a
    00002503 DD 6E FE         [19] 6244 	ld	l, -2 (ix)
    00002506 DD 66 FF         [19] 6245 	ld	h, -1 (ix)
    00002509 46               [ 7] 6246 	ld	b, (hl)
    0000250A 69               [ 4] 6247 	ld	l, c
                                   6248 ;	spillPairReg hl
                                   6249 ;	spillPairReg hl
    0000250B 78               [ 4] 6250 	ld	a, b
    0000250C CDr00r00         [17] 6251 	call	_GoalkeeperWithBall
                                   6252 ;E:\Dropbox\FAUSTO\SVILUPPI\MSX\CODE\C\MSXgl\projects\exsoccer/exsoccer_s1_b2.c:1055: if (!wasShot) g_GkIsGroundKick = false; // Force Slow/Hand mode for Steals
    0000250F DD 7E FD         [19] 6253 	ld	a, -3 (ix)
    00002512 B7               [ 4] 6254 	or	a, a
    00002513 20 05            [12] 6255 	jr	NZ, 00151$
    00002515 21r00r00         [10] 6256 	ld	hl, #_g_GkIsGroundKick
    00002518 36 00            [10] 6257 	ld	(hl), #0x00
    0000251A                       6258 00151$:
                                   6259 ;E:\Dropbox\FAUSTO\SVILUPPI\MSX\CODE\C\MSXgl\projects\exsoccer/exsoccer_s1_b2.c:1058: g_Ball.PassTargetPlayerId = NO_VALUE;
    0000251A 21r10r00         [10] 6260 	ld	hl, #(_g_Ball + 16)
    0000251D 36 FF            [10] 6261 	ld	(hl), #0xff
                                   6262 ;E:\Dropbox\FAUSTO\SVILUPPI\MSX\CODE\C\MSXgl\projects\exsoccer/exsoccer_s1_b2.c:1059: g_Ball.ShotActive = 0;
    0000251F 21r1Br00         [10] 6263 	ld	hl, #(_g_Ball + 27)
    00002522 36 00            [10] 6264 	ld	(hl), #0x00
                                   6265 ;E:\Dropbox\FAUSTO\SVILUPPI\MSX\CODE\C\MSXgl\projects\exsoccer/exsoccer_s1_b2.c:1060: g_Ball.Size = 2;
    00002524 21r04r00         [10] 6266 	ld	hl, #(_g_Ball + 4)
    00002527 36 02            [10] 6267 	ld	(hl), #0x02
                                   6268 ;E:\Dropbox\FAUSTO\SVILUPPI\MSX\CODE\C\MSXgl\projects\exsoccer/exsoccer_s1_b2.c:1062: return; // Stop checking
    00002529 C3rC8r25         [10] 6269 	jp	00168$
    0000252C                       6270 00153$:
                                   6271 ;E:\Dropbox\FAUSTO\SVILUPPI\MSX\CODE\C\MSXgl\projects\exsoccer/exsoccer_s1_b2.c:1066: g_Ball.PassTargetPlayerId = NO_VALUE; 
    0000252C 21r10r00         [10] 6272 	ld	hl, #(_g_Ball + 16)
    0000252F 36 FF            [10] 6273 	ld	(hl), #0xff
                                   6274 ;E:\Dropbox\FAUSTO\SVILUPPI\MSX\CODE\C\MSXgl\projects\exsoccer/exsoccer_s1_b2.c:1067: g_Ball.ShotActive = 0; 
    00002531 21r1Br00         [10] 6275 	ld	hl, #(_g_Ball + 27)
    00002534 36 00            [10] 6276 	ld	(hl), #0x00
                                   6277 ;E:\Dropbox\FAUSTO\SVILUPPI\MSX\CODE\C\MSXgl\projects\exsoccer/exsoccer_s1_b2.c:1068: g_Ball.KickMoveState = 3; // Force ball to snap to feet immediately (No visual lag)
    00002536 21r0Dr00         [10] 6278 	ld	hl, #(_g_Ball + 13)
    00002539 36 03            [10] 6279 	ld	(hl), #0x03
                                   6280 ;E:\Dropbox\FAUSTO\SVILUPPI\MSX\CODE\C\MSXgl\projects\exsoccer/exsoccer_s1_b2.c:1069: g_Ball.Size = 1; // On feet = small
    0000253B 21r04r00         [10] 6281 	ld	hl, #(_g_Ball + 4)
    0000253E 36 01            [10] 6282 	ld	(hl), #0x01
                                   6283 ;E:\Dropbox\FAUSTO\SVILUPPI\MSX\CODE\C\MSXgl\projects\exsoccer/exsoccer_s1_b2.c:1070: PutBallOnPlayerFeet(i);
    00002540 DD 7E EF         [19] 6284 	ld	a, -17 (ix)
    00002543 CDrF7r1C         [17] 6285 	call	_PutBallOnPlayerFeet
                                   6286 ;E:\Dropbox\FAUSTO\SVILUPPI\MSX\CODE\C\MSXgl\projects\exsoccer/exsoccer_s1_b2.c:1071: g_Players[i].Status = PLAYER_STATUS_HAS_BALL;
    00002546 DD 6E F2         [19] 6287 	ld	l, -14 (ix)
    00002549 DD 66 F3         [19] 6288 	ld	h, -13 (ix)
    0000254C 36 01            [10] 6289 	ld	(hl), #0x01
    0000254E 23               [ 6] 6290 	inc	hl
    0000254F 36 00            [10] 6291 	ld	(hl), #0x00
                                   6292 ;E:\Dropbox\FAUSTO\SVILUPPI\MSX\CODE\C\MSXgl\projects\exsoccer/exsoccer_s1_b2.c:1072: return; // Stop checking
    00002551 C3rC8r25         [10] 6293 	jp	00168$
    00002554                       6294 00159$:
                                   6295 ;E:\Dropbox\FAUSTO\SVILUPPI\MSX\CODE\C\MSXgl\projects\exsoccer/exsoccer_s1_b2.c:1076: u8 currentOwner = g_Ball.PossessionPlayerId;
    00002554 DD 4E FF         [19] 6296 	ld	c, -1 (ix)
                                   6297 ;E:\Dropbox\FAUSTO\SVILUPPI\MSX\CODE\C\MSXgl\projects\exsoccer/exsoccer_s1_b2.c:1079: if (g_Players[i].Role == PLAYER_ROLE_GOALKEEPER) {
    00002557 DD 6E F4         [19] 6298 	ld	l, -12 (ix)
    0000255A DD 66 F5         [19] 6299 	ld	h, -11 (ix)
    0000255D 46               [ 7] 6300 	ld	b, (hl)
                                   6301 ;E:\Dropbox\FAUSTO\SVILUPPI\MSX\CODE\C\MSXgl\projects\exsoccer/exsoccer_s1_b2.c:1037: u8 team = g_Players[i].TeamId;
    0000255E DD 6E F0         [19] 6302 	ld	l, -16 (ix)
    00002561 DD 66 F1         [19] 6303 	ld	h, -15 (ix)
    00002564 11 09 00         [10] 6304 	ld	de, #0x0009
    00002567 19               [11] 6305 	add	hl, de
                                   6306 ;E:\Dropbox\FAUSTO\SVILUPPI\MSX\CODE\C\MSXgl\projects\exsoccer/exsoccer_s1_b2.c:1079: if (g_Players[i].Role == PLAYER_ROLE_GOALKEEPER) {
    00002568 78               [ 4] 6307 	ld	a, b
    00002569 B7               [ 4] 6308 	or	a, a
    0000256A 20 25            [12] 6309 	jr	NZ, 00155$
                                   6310 ;E:\Dropbox\FAUSTO\SVILUPPI\MSX\CODE\C\MSXgl\projects\exsoccer/exsoccer_s1_b2.c:1080: PutBallOnPlayerFeet(i);
    0000256C E5               [11] 6311 	push	hl
    0000256D DD 7E EF         [19] 6312 	ld	a, -17 (ix)
    00002570 CDrF7r1C         [17] 6313 	call	_PutBallOnPlayerFeet
    00002573 E1               [10] 6314 	pop	hl
                                   6315 ;E:\Dropbox\FAUSTO\SVILUPPI\MSX\CODE\C\MSXgl\projects\exsoccer/exsoccer_s1_b2.c:1081: GoalkeeperWithBall(g_Players[i].TeamId, 1); // Treat as steal (no recoil)
                                   6316 ;	spillPairReg hl
                                   6317 ;	spillPairReg hl
    00002574 7E               [ 7] 6318 	ld	a, (hl)
    00002575 2E 01            [ 7] 6319 	ld	l, #0x01
    00002577 CDr00r00         [17] 6320 	call	_GoalkeeperWithBall
                                   6321 ;E:\Dropbox\FAUSTO\SVILUPPI\MSX\CODE\C\MSXgl\projects\exsoccer/exsoccer_s1_b2.c:1082: g_GkIsGroundKick = false; // Force Slow/Hand mode for Steals
    0000257A 21r00r00         [10] 6322 	ld	hl, #_g_GkIsGroundKick
    0000257D 36 00            [10] 6323 	ld	(hl), #0x00
                                   6324 ;E:\Dropbox\FAUSTO\SVILUPPI\MSX\CODE\C\MSXgl\projects\exsoccer/exsoccer_s1_b2.c:1085: g_Ball.PassTargetPlayerId = NO_VALUE;
    0000257F 21r10r00         [10] 6325 	ld	hl, #(_g_Ball + 16)
    00002582 36 FF            [10] 6326 	ld	(hl), #0xff
                                   6327 ;E:\Dropbox\FAUSTO\SVILUPPI\MSX\CODE\C\MSXgl\projects\exsoccer/exsoccer_s1_b2.c:1086: g_Ball.ShotActive = 0;
    00002584 21r1Br00         [10] 6328 	ld	hl, #(_g_Ball + 27)
    00002587 36 00            [10] 6329 	ld	(hl), #0x00
                                   6330 ;E:\Dropbox\FAUSTO\SVILUPPI\MSX\CODE\C\MSXgl\projects\exsoccer/exsoccer_s1_b2.c:1087: g_Ball.Size = 2;
    00002589 21r04r00         [10] 6331 	ld	hl, #(_g_Ball + 4)
    0000258C 36 02            [10] 6332 	ld	(hl), #0x02
                                   6333 ;E:\Dropbox\FAUSTO\SVILUPPI\MSX\CODE\C\MSXgl\projects\exsoccer/exsoccer_s1_b2.c:1088: return;
    0000258E C3rC8r25         [10] 6334 	jp	00168$
    00002591                       6335 00155$:
                                   6336 ;E:\Dropbox\FAUSTO\SVILUPPI\MSX\CODE\C\MSXgl\projects\exsoccer/exsoccer_s1_b2.c:1091: if (g_Players[i].TeamId != g_Players[currentOwner].TeamId) {
    00002591 5E               [ 7] 6337 	ld	e, (hl)
    00002592 06 00            [ 7] 6338 	ld	b, #0x00
    00002594 69               [ 4] 6339 	ld	l, c
    00002595 60               [ 4] 6340 	ld	h, b
    00002596 29               [11] 6341 	add	hl, hl
    00002597 29               [11] 6342 	add	hl, hl
    00002598 09               [11] 6343 	add	hl, bc
    00002599 29               [11] 6344 	add	hl, hl
    0000259A 29               [11] 6345 	add	hl, hl
    0000259B 09               [11] 6346 	add	hl, bc
    0000259C 01r00r00         [10] 6347 	ld	bc, #_g_Players
    0000259F 09               [11] 6348 	add	hl, bc
    000025A0 01 09 00         [10] 6349 	ld	bc, #0x0009
    000025A3 09               [11] 6350 	add	hl, bc
    000025A4 4E               [ 7] 6351 	ld	c, (hl)
    000025A5 7B               [ 4] 6352 	ld	a, e
    000025A6 91               [ 4] 6353 	sub	a, c
    000025A7 28 13            [12] 6354 	jr	Z, 00164$
                                   6355 ;E:\Dropbox\FAUSTO\SVILUPPI\MSX\CODE\C\MSXgl\projects\exsoccer/exsoccer_s1_b2.c:1093: PutBallOnPlayerFeet(i);
    000025A9 DD 7E EF         [19] 6356 	ld	a, -17 (ix)
    000025AC CDrF7r1C         [17] 6357 	call	_PutBallOnPlayerFeet
                                   6358 ;E:\Dropbox\FAUSTO\SVILUPPI\MSX\CODE\C\MSXgl\projects\exsoccer/exsoccer_s1_b2.c:1095: g_Ball.PassTargetPlayerId = NO_VALUE;
    000025AF 21r10r00         [10] 6359 	ld	hl, #(_g_Ball + 16)
    000025B2 36 FF            [10] 6360 	ld	(hl), #0xff
                                   6361 ;E:\Dropbox\FAUSTO\SVILUPPI\MSX\CODE\C\MSXgl\projects\exsoccer/exsoccer_s1_b2.c:1096: g_Ball.ShotActive = 0;
    000025B4 21r1Br00         [10] 6362 	ld	hl, #(_g_Ball + 27)
    000025B7 36 00            [10] 6363 	ld	(hl), #0x00
                                   6364 ;E:\Dropbox\FAUSTO\SVILUPPI\MSX\CODE\C\MSXgl\projects\exsoccer/exsoccer_s1_b2.c:1097: return;
    000025B9 C3rC8r25         [10] 6365 	jp	00168$
    000025BC                       6366 00164$:
                                   6367 ;E:\Dropbox\FAUSTO\SVILUPPI\MSX\CODE\C\MSXgl\projects\exsoccer/exsoccer_s1_b2.c:974: for(u8 i=0; i<14; i++){
    000025BC DD 34 FB         [23] 6368 	inc	-5 (ix)
    000025BF DD 7E FB         [19] 6369 	ld	a, -5 (ix)
    000025C2 DD 77 EF         [19] 6370 	ld	-17 (ix), a
    000025C5 C3r32r22         [10] 6371 	jp	00167$
    000025C8                       6372 00168$:
                                   6373 ;E:\Dropbox\FAUSTO\SVILUPPI\MSX\CODE\C\MSXgl\projects\exsoccer/exsoccer_s1_b2.c:1102: }
    000025C8 DD F9            [10] 6374 	ld	sp, ix
    000025CA DD E1            [14] 6375 	pop	ix
    000025CC C9               [10] 6376 	ret
                                   6377 ;E:\Dropbox\FAUSTO\SVILUPPI\MSX\CODE\C\MSXgl\projects\exsoccer/exsoccer_s1_b2.c:1104: void HandleOffside(u8 offsidePlayerId) {
                                   6378 ;	---------------------------------
                                   6379 ; Function HandleOffside
                                   6380 ; ---------------------------------
    000025CD                       6381 _HandleOffside::
    000025CD 5F               [ 4] 6382 	ld	e, a
                                   6383 ;E:\Dropbox\FAUSTO\SVILUPPI\MSX\CODE\C\MSXgl\projects\exsoccer/exsoccer_s1_b2.c:1105: V9_PrintLayerAStringAtPos(10,18,"OFFSIDE");
    000025CE D5               [11] 6384 	push	de
    000025CF 21r0Ar26         [10] 6385 	ld	hl, #___str_2
    000025D2 E5               [11] 6386 	push	hl
    000025D3 2E 12            [ 7] 6387 	ld	l, #0x12
                                   6388 ;	spillPairReg hl
                                   6389 ;	spillPairReg hl
    000025D5 3E 0A            [ 7] 6390 	ld	a, #0x0a
    000025D7 CDr00r00         [17] 6391 	call	_V9_PrintLayerAStringAtPos
    000025DA D1               [10] 6392 	pop	de
                                   6393 ;E:\Dropbox\FAUSTO\SVILUPPI\MSX\CODE\C\MSXgl\projects\exsoccer/exsoccer_s1_b2.c:1106: g_MatchStatus=MATCH_BEFORE_OFFSIDE;
    000025DB 21r00r00         [10] 6394 	ld	hl, #_g_MatchStatus
    000025DE 36 0E            [10] 6395 	ld	(hl), #0x0e
                                   6396 ;E:\Dropbox\FAUSTO\SVILUPPI\MSX\CODE\C\MSXgl\projects\exsoccer/exsoccer_s1_b2.c:1107: u8 teamId = g_Players[offsidePlayerId].TeamId;
    000025E0 01r00r00         [10] 6397 	ld	bc, #_g_Players+0
    000025E3 16 00            [ 7] 6398 	ld	d, #0x00
    000025E5 6B               [ 4] 6399 	ld	l, e
    000025E6 62               [ 4] 6400 	ld	h, d
    000025E7 29               [11] 6401 	add	hl, hl
    000025E8 29               [11] 6402 	add	hl, hl
    000025E9 19               [11] 6403 	add	hl, de
    000025EA 29               [11] 6404 	add	hl, hl
    000025EB 29               [11] 6405 	add	hl, hl
    000025EC 19               [11] 6406 	add	hl, de
    000025ED 09               [11] 6407 	add	hl, bc
    000025EE 11 09 00         [10] 6408 	ld	de, #0x0009
    000025F1 19               [11] 6409 	add	hl, de
    000025F2 7E               [ 7] 6410 	ld	a, (hl)
                                   6411 ;E:\Dropbox\FAUSTO\SVILUPPI\MSX\CODE\C\MSXgl\projects\exsoccer/exsoccer_s1_b2.c:1108: g_RestartKickTeamId = (teamId == TEAM_1) ? TEAM_2 : TEAM_1;
    000025F3 3D               [ 4] 6412 	dec	a
    000025F4 20 07            [12] 6413 	jr	NZ, 00103$
    000025F6 3E 02            [ 7] 6414 	ld	a, #0x02
    000025F8 0E 00            [ 7] 6415 	ld	c, #0x00
    000025FA C3r01r26         [10] 6416 	jp	00104$
    000025FD                       6417 00103$:
    000025FD 3E 01            [ 7] 6418 	ld	a, #0x01
    000025FF 0E 00            [ 7] 6419 	ld	c, #0x00
    00002601                       6420 00104$:
    00002601 32r00r00         [13] 6421 	ld	(_g_RestartKickTeamId+0), a
                                   6422 ;E:\Dropbox\FAUSTO\SVILUPPI\MSX\CODE\C\MSXgl\projects\exsoccer/exsoccer_s1_b2.c:1109: g_Timer = 0;
    00002604 21r00r00         [10] 6423 	ld	hl, #_g_Timer
    00002607 36 00            [10] 6424 	ld	(hl), #0x00
                                   6425 ;E:\Dropbox\FAUSTO\SVILUPPI\MSX\CODE\C\MSXgl\projects\exsoccer/exsoccer_s1_b2.c:1110: }
    00002609 C9               [10] 6426 	ret
    0000260A                       6427 ___str_2:
    0000260A 4F 46 46 53 49 44 45  6428 	.ascii "OFFSIDE"
    00002611 00                    6429 	.db 0x00
                                   6430 ;E:\Dropbox\FAUSTO\SVILUPPI\MSX\CODE\C\MSXgl\projects\exsoccer/exsoccer_s1_b2.c:1116: void EnforcePenaltyBoxRestriction() {
                                   6431 ;	---------------------------------
                                   6432 ; Function EnforcePenaltyBoxRestriction
                                   6433 ; ---------------------------------
    00002612                       6434 _EnforcePenaltyBoxRestriction::
    00002612 DD E5            [15] 6435 	push	ix
    00002614 DD 21 00 00      [14] 6436 	ld	ix,#0
    00002618 DD 39            [15] 6437 	add	ix,sp
    0000261A F5               [11] 6438 	push	af
    0000261B 3B               [ 6] 6439 	dec	sp
                                   6440 ;E:\Dropbox\FAUSTO\SVILUPPI\MSX\CODE\C\MSXgl\projects\exsoccer/exsoccer_s1_b2.c:1117: if (g_MatchStatus != MATCH_BALL_ON_GOALKEEPER) {
    0000261C 3Ar00r00         [13] 6441 	ld	a, (_g_MatchStatus+0)
    0000261F D6 0D            [ 7] 6442 	sub	a, #0x0d
                                   6443 ;E:\Dropbox\FAUSTO\SVILUPPI\MSX\CODE\C\MSXgl\projects\exsoccer/exsoccer_s1_b2.c:1118: return;
    00002621 C2rBFr26         [10] 6444 	jp	NZ,00119$
                                   6445 ;E:\Dropbox\FAUSTO\SVILUPPI\MSX\CODE\C\MSXgl\projects\exsoccer/exsoccer_s1_b2.c:1121: u8 gkOwnerId = g_Ball.PossessionPlayerId;
    00002624 21r06r00         [10] 6446 	ld	hl, #_g_Ball+6
    00002627 4E               [ 7] 6447 	ld	c, (hl)
                                   6448 ;E:\Dropbox\FAUSTO\SVILUPPI\MSX\CODE\C\MSXgl\projects\exsoccer/exsoccer_s1_b2.c:1123: if (gkOwnerId == NO_VALUE || g_Players[gkOwnerId].Role != PLAYER_ROLE_GOALKEEPER) {
    00002628 79               [ 4] 6449 	ld	a, c
    00002629 3C               [ 4] 6450 	inc	a
    0000262A CArBFr26         [10] 6451 	jp	Z,00119$
    0000262D 06 00            [ 7] 6452 	ld	b, #0x00
    0000262F 69               [ 4] 6453 	ld	l, c
    00002630 60               [ 4] 6454 	ld	h, b
    00002631 29               [11] 6455 	add	hl, hl
    00002632 29               [11] 6456 	add	hl, hl
    00002633 09               [11] 6457 	add	hl, bc
    00002634 29               [11] 6458 	add	hl, hl
    00002635 29               [11] 6459 	add	hl, hl
    00002636 09               [11] 6460 	add	hl, bc
    00002637 EB               [ 4] 6461 	ex	de, hl
    00002638 21r00r00         [10] 6462 	ld	hl, #_g_Players
    0000263B 19               [11] 6463 	add	hl, de
    0000263C EB               [ 4] 6464 	ex	de, hl
    0000263D D5               [11] 6465 	push	de
    0000263E FD E1            [14] 6466 	pop	iy
    00002640 FD 7E 0D         [19] 6467 	ld	a, 13 (iy)
    00002643 B7               [ 4] 6468 	or	a, a
                                   6469 ;E:\Dropbox\FAUSTO\SVILUPPI\MSX\CODE\C\MSXgl\projects\exsoccer/exsoccer_s1_b2.c:1124: return;
    00002644 20 79            [12] 6470 	jr	NZ, 00119$
                                   6471 ;E:\Dropbox\FAUSTO\SVILUPPI\MSX\CODE\C\MSXgl\projects\exsoccer/exsoccer_s1_b2.c:1127: u8 gkTeamId = g_Players[gkOwnerId].TeamId;
    00002646 21 09 00         [10] 6472 	ld	hl, #9
    00002649 19               [11] 6473 	add	hl, de
    0000264A 7E               [ 7] 6474 	ld	a, (hl)
                                   6475 ;E:\Dropbox\FAUSTO\SVILUPPI\MSX\CODE\C\MSXgl\projects\exsoccer/exsoccer_s1_b2.c:1130: for (u8 i = 0; i < 14; i++) { 
    0000264B 3D               [ 4] 6476 	dec	a
    0000264C 3E 01            [ 7] 6477 	ld	a, #0x01
    0000264E 28 01            [12] 6478 	jr	Z, 00165$
    00002650 AF               [ 4] 6479 	xor	a, a
    00002651                       6480 00165$:
    00002651 DD 77 FD         [19] 6481 	ld	-3 (ix), a
    00002654 06 00            [ 7] 6482 	ld	b, #0x00
    00002656                       6483 00118$:
    00002656 78               [ 4] 6484 	ld	a, b
    00002657 D6 0E            [ 7] 6485 	sub	a, #0x0e
    00002659 30 64            [12] 6486 	jr	NC, 00119$
                                   6487 ;E:\Dropbox\FAUSTO\SVILUPPI\MSX\CODE\C\MSXgl\projects\exsoccer/exsoccer_s1_b2.c:1131: if (i == gkOwnerId) continue; // Skip the GK himself
    0000265B 79               [ 4] 6488 	ld	a, c
    0000265C 90               [ 4] 6489 	sub	a, b
    0000265D 28 5C            [12] 6490 	jr	Z, 00115$
                                   6491 ;E:\Dropbox\FAUSTO\SVILUPPI\MSX\CODE\C\MSXgl\projects\exsoccer/exsoccer_s1_b2.c:1134: if (g_Players[i].TargetY > PENALTY_BOX_Y_BOTTOM) {
    0000265F 58               [ 4] 6492 	ld	e, b
    00002660 16 00            [ 7] 6493 	ld	d, #0x00
    00002662 6B               [ 4] 6494 	ld	l, e
    00002663 62               [ 4] 6495 	ld	h, d
    00002664 29               [11] 6496 	add	hl, hl
    00002665 29               [11] 6497 	add	hl, hl
    00002666 19               [11] 6498 	add	hl, de
    00002667 29               [11] 6499 	add	hl, hl
    00002668 29               [11] 6500 	add	hl, hl
    00002669 19               [11] 6501 	add	hl, de
    0000266A 11r00r00         [10] 6502 	ld	de, #_g_Players
    0000266D 19               [11] 6503 	add	hl, de
    0000266E DD 75 FE         [19] 6504 	ld	-2 (ix), l
    00002671 DD 74 FF         [19] 6505 	ld	-1 (ix), h
    00002674 11 0E 00         [10] 6506 	ld	de, #0x000e
    00002677 19               [11] 6507 	add	hl, de
    00002678 5E               [ 7] 6508 	ld	e, (hl)
    00002679 23               [ 6] 6509 	inc	hl
    0000267A 56               [ 7] 6510 	ld	d, (hl)
    0000267B 2B               [ 6] 6511 	dec	hl
                                   6512 ;E:\Dropbox\FAUSTO\SVILUPPI\MSX\CODE\C\MSXgl\projects\exsoccer/exsoccer_s1_b2.c:1133: if (gkTeamId == TEAM_1) { // Bottom GK has ball, players can't be in y > PENALTY_BOX_Y_BOTTOM
    0000267C DD 7E FD         [19] 6513 	ld	a, -3 (ix)
    0000267F B7               [ 4] 6514 	or	a, a
    00002680 28 1E            [12] 6515 	jr	Z, 00113$
                                   6516 ;E:\Dropbox\FAUSTO\SVILUPPI\MSX\CODE\C\MSXgl\projects\exsoccer/exsoccer_s1_b2.c:1134: if (g_Players[i].TargetY > PENALTY_BOX_Y_BOTTOM) {
    00002682 3E 5E            [ 7] 6517 	ld	a, #0x5e
    00002684 BB               [ 4] 6518 	cp	a, e
    00002685 3E 01            [ 7] 6519 	ld	a, #0x01
    00002687 9A               [ 4] 6520 	sbc	a, d
    00002688 30 31            [12] 6521 	jr	NC, 00115$
                                   6522 ;E:\Dropbox\FAUSTO\SVILUPPI\MSX\CODE\C\MSXgl\projects\exsoccer/exsoccer_s1_b2.c:1135: g_Players[i].TargetY = PENALTY_BOX_Y_BOTTOM;
    0000268A 36 5E            [10] 6523 	ld	(hl), #0x5e
    0000268C 23               [ 6] 6524 	inc	hl
    0000268D 36 01            [10] 6525 	ld	(hl), #0x01
                                   6526 ;E:\Dropbox\FAUSTO\SVILUPPI\MSX\CODE\C\MSXgl\projects\exsoccer/exsoccer_s1_b2.c:1136: g_Players[i].Status = PLAYER_STATUS_NONE;
    0000268F DD 6E FE         [19] 6527 	ld	l, -2 (ix)
    00002692 DD 66 FF         [19] 6528 	ld	h, -1 (ix)
    00002695 11 12 00         [10] 6529 	ld	de, #0x0012
    00002698 19               [11] 6530 	add	hl, de
    00002699 AF               [ 4] 6531 	xor	a, a
    0000269A 77               [ 7] 6532 	ld	(hl), a
    0000269B 23               [ 6] 6533 	inc	hl
    0000269C 77               [ 7] 6534 	ld	(hl), a
    0000269D C3rBBr26         [10] 6535 	jp	00115$
    000026A0                       6536 00113$:
                                   6537 ;E:\Dropbox\FAUSTO\SVILUPPI\MSX\CODE\C\MSXgl\projects\exsoccer/exsoccer_s1_b2.c:1139: if (g_Players[i].TargetY < PENALTY_BOX_Y_TOP) {
    000026A0 7B               [ 4] 6538 	ld	a, e
    000026A1 D6 82            [ 7] 6539 	sub	a, #0x82
    000026A3 7A               [ 4] 6540 	ld	a, d
    000026A4 DE 00            [ 7] 6541 	sbc	a, #0x00
    000026A6 30 13            [12] 6542 	jr	NC, 00115$
                                   6543 ;E:\Dropbox\FAUSTO\SVILUPPI\MSX\CODE\C\MSXgl\projects\exsoccer/exsoccer_s1_b2.c:1140: g_Players[i].TargetY = PENALTY_BOX_Y_TOP;
    000026A8 36 82            [10] 6544 	ld	(hl), #0x82
    000026AA 23               [ 6] 6545 	inc	hl
    000026AB 36 00            [10] 6546 	ld	(hl), #0x00
                                   6547 ;E:\Dropbox\FAUSTO\SVILUPPI\MSX\CODE\C\MSXgl\projects\exsoccer/exsoccer_s1_b2.c:1141: g_Players[i].Status = PLAYER_STATUS_NONE;
    000026AD DD 6E FE         [19] 6548 	ld	l, -2 (ix)
    000026B0 DD 66 FF         [19] 6549 	ld	h, -1 (ix)
    000026B3 11 12 00         [10] 6550 	ld	de, #0x0012
    000026B6 19               [11] 6551 	add	hl, de
    000026B7 AF               [ 4] 6552 	xor	a, a
    000026B8 77               [ 7] 6553 	ld	(hl), a
    000026B9 23               [ 6] 6554 	inc	hl
    000026BA 77               [ 7] 6555 	ld	(hl), a
    000026BB                       6556 00115$:
                                   6557 ;E:\Dropbox\FAUSTO\SVILUPPI\MSX\CODE\C\MSXgl\projects\exsoccer/exsoccer_s1_b2.c:1130: for (u8 i = 0; i < 14; i++) { 
    000026BB 04               [ 4] 6558 	inc	b
    000026BC C3r56r26         [10] 6559 	jp	00118$
    000026BF                       6560 00119$:
                                   6561 ;E:\Dropbox\FAUSTO\SVILUPPI\MSX\CODE\C\MSXgl\projects\exsoccer/exsoccer_s1_b2.c:1145: }
    000026BF DD F9            [10] 6562 	ld	sp, ix
    000026C1 DD E1            [14] 6563 	pop	ix
    000026C3 C9               [10] 6564 	ret
                                   6565 ;E:\Dropbox\FAUSTO\SVILUPPI\MSX\CODE\C\MSXgl\projects\exsoccer/exsoccer_s1_b2.c:1322: void InitPalette()
                                   6566 ;	---------------------------------
                                   6567 ; Function InitPalette
                                   6568 ; ---------------------------------
    000026C4                       6569 _InitPalette::
                                   6570 ;E:\Dropbox\FAUSTO\SVILUPPI\MSX\CODE\C\MSXgl\projects\exsoccer/exsoccer_s1_b2.c:1324: V9_SetPalette(0, 16, g_GameFieldLayerATilesPalette);
    000026C4 21r29r27         [10] 6571 	ld	hl, #_g_GameFieldLayerATilesPalette+0
                                   6572 ;E:\Dropbox\FAUSTO\SVILUPPI\MSX\CODE\C\MSXgl\projects\exsoccer/exsoccer_s1_b2.c:1028: 
    000026C7 01 00 00         [10] 6573 	ld	bc, #0x0
    000026CA                       6574 00107$:
    000026CA 78               [ 4] 6575 	ld	a, b
    000026CB D6 10            [ 7] 6576 	sub	a, #0x10
    000026CD 30 1F            [12] 6577 	jr	NC, 00102$
    000026CF FD E5            [15] 6578 	push	iy
    000026D1 E3               [19] 6579 	ex	(sp), hl
    000026D2 69               [ 4] 6580 	ld	l, c
                                   6581 ;	spillPairReg hl
                                   6582 ;	spillPairReg hl
    000026D3 E3               [19] 6583 	ex	(sp), hl
    000026D4 FD E1            [14] 6584 	pop	iy
    000026D6 0C               [ 4] 6585 	inc	c
    000026D7 E5               [11] 6586 	push	hl
    000026D8 C5               [11] 6587 	push	bc
    000026D9 5D               [ 4] 6588 	ld	e, l
    000026DA 54               [ 4] 6589 	ld	d, h
    000026DB FD E5            [15] 6590 	push	iy
    000026DD E3               [19] 6591 	ex	(sp), hl
    000026DE 7D               [ 4] 6592 	ld	a, l
    000026DF E3               [19] 6593 	ex	(sp), hl
    000026E0 FD E1            [14] 6594 	pop	iy
    000026E2 CDr00r00         [17] 6595 	call	_V9_SetPaletteEntry
    000026E5 C1               [10] 6596 	pop	bc
    000026E6 E1               [10] 6597 	pop	hl
    000026E7 23               [ 6] 6598 	inc	hl
    000026E8 23               [ 6] 6599 	inc	hl
    000026E9 23               [ 6] 6600 	inc	hl
    000026EA 04               [ 4] 6601 	inc	b
    000026EB C3rCAr26         [10] 6602 	jp	00107$
                                   6603 ;E:\Dropbox\FAUSTO\SVILUPPI\MSX\CODE\C\MSXgl\projects\exsoccer/exsoccer_s1_b2.c:1324: V9_SetPalette(0, 16, g_GameFieldLayerATilesPalette);
    000026EE                       6604 00102$:
                                   6605 ;E:\Dropbox\FAUSTO\SVILUPPI\MSX\CODE\C\MSXgl\projects\exsoccer/exsoccer_s1_b2.c:1325: V9_SetPalette(16, 16, g_GameFieldLayerBTilesPalette);
    000026EE 21r59r27         [10] 6606 	ld	hl, #_g_GameFieldLayerBTilesPalette+0
                                   6607 ;E:\Dropbox\FAUSTO\SVILUPPI\MSX\CODE\C\MSXgl\projects\exsoccer/exsoccer_s1_b2.c:1028: 
    000026F1 01 10 00         [10] 6608 	ld	bc, #0x10
    000026F4                       6609 00110$:
    000026F4 78               [ 4] 6610 	ld	a, b
    000026F5 D6 10            [ 7] 6611 	sub	a, #0x10
    000026F7 30 1F            [12] 6612 	jr	NC, 00104$
    000026F9 FD E5            [15] 6613 	push	iy
    000026FB E3               [19] 6614 	ex	(sp), hl
    000026FC 69               [ 4] 6615 	ld	l, c
                                   6616 ;	spillPairReg hl
                                   6617 ;	spillPairReg hl
    000026FD E3               [19] 6618 	ex	(sp), hl
    000026FE FD E1            [14] 6619 	pop	iy
    00002700 0C               [ 4] 6620 	inc	c
    00002701 E5               [11] 6621 	push	hl
    00002702 C5               [11] 6622 	push	bc
    00002703 5D               [ 4] 6623 	ld	e, l
    00002704 54               [ 4] 6624 	ld	d, h
    00002705 FD E5            [15] 6625 	push	iy
    00002707 E3               [19] 6626 	ex	(sp), hl
    00002708 7D               [ 4] 6627 	ld	a, l
    00002709 E3               [19] 6628 	ex	(sp), hl
    0000270A FD E1            [14] 6629 	pop	iy
    0000270C CDr00r00         [17] 6630 	call	_V9_SetPaletteEntry
    0000270F C1               [10] 6631 	pop	bc
    00002710 E1               [10] 6632 	pop	hl
    00002711 23               [ 6] 6633 	inc	hl
    00002712 23               [ 6] 6634 	inc	hl
    00002713 23               [ 6] 6635 	inc	hl
    00002714 04               [ 4] 6636 	inc	b
    00002715 C3rF4r26         [10] 6637 	jp	00110$
                                   6638 ;E:\Dropbox\FAUSTO\SVILUPPI\MSX\CODE\C\MSXgl\projects\exsoccer/exsoccer_s1_b2.c:1325: V9_SetPalette(16, 16, g_GameFieldLayerBTilesPalette);
    00002718                       6639 00104$:
                                   6640 ;E:/Dropbox/FAUSTO/SVILUPPI/MSX/CODE/C/MSXgl/engine/src/v9990.h:1047: inline void V9_SelectPaletteP1(u8 a, u8 b) { V9_SetRegister(13, ((b & 0x3) << 2) + (a & 0x3)); }
    00002718 3E 01            [ 7] 6641 	ld	a, #0x01
    0000271A E6 03            [ 7] 6642 	and	a, #0x03
    0000271C 87               [ 4] 6643 	add	a, a
    0000271D 87               [ 4] 6644 	add	a, a
    0000271E 4F               [ 4] 6645 	ld	c, a
    0000271F AF               [ 4] 6646 	xor	a, a
    00002720 E6 03            [ 7] 6647 	and	a, #0x03
    00002722 81               [ 4] 6648 	add	a, c
    00002723 6F               [ 4] 6649 	ld	l, a
                                   6650 ;	spillPairReg hl
                                   6651 ;	spillPairReg hl
    00002724 3E 0D            [ 7] 6652 	ld	a, #0x0d
                                   6653 ;E:\Dropbox\FAUSTO\SVILUPPI\MSX\CODE\C\MSXgl\projects\exsoccer/exsoccer_s1_b2.c:1326: V9_SelectPaletteP1(0,1);
                                   6654 ;E:\Dropbox\FAUSTO\SVILUPPI\MSX\CODE\C\MSXgl\projects\exsoccer/exsoccer_s1_b2.c:1327: }
    00002726 C3r00r00         [10] 6655 	jp	_V9_SetRegister
    00002729                       6656 _g_GameFieldLayerATilesPalette:
    00002729 00                    6657 	.db #0x00	; 0
    0000272A 00                    6658 	.db #0x00	; 0
    0000272B 00                    6659 	.db #0x00	; 0
    0000272C 01                    6660 	.db #0x01	; 1
    0000272D 01                    6661 	.db #0x01	; 1
    0000272E 01                    6662 	.db #0x01	; 1
    0000272F 01                    6663 	.db #0x01	; 1
    00002730 01                    6664 	.db #0x01	; 1
    00002731 01                    6665 	.db #0x01	; 1
    00002732 01                    6666 	.db #0x01	; 1
    00002733 01                    6667 	.db #0x01	; 1
    00002734 01                    6668 	.db #0x01	; 1
    00002735 FF                    6669 	.db #0xff	; 255
    00002736 FF                    6670 	.db #0xff	; 255
    00002737 FF                    6671 	.db #0xff	; 255
    00002738 1E                    6672 	.db #0x1e	; 30
    00002739 1A                    6673 	.db #0x1a	; 26
    0000273A 08                    6674 	.db #0x08	; 8
    0000273B 01                    6675 	.db #0x01	; 1
    0000273C 01                    6676 	.db #0x01	; 1
    0000273D 01                    6677 	.db #0x01	; 1
    0000273E 14                    6678 	.db #0x14	; 20
    0000273F 09                    6679 	.db #0x09	; 9
    00002740 14                    6680 	.db #0x14	; 20
    00002741 1B                    6681 	.db #0x1b	; 27
    00002742 13                    6682 	.db #0x13	; 19
    00002743 09                    6683 	.db #0x09	; 9
    00002744 01                    6684 	.db #0x01	; 1
    00002745 01                    6685 	.db #0x01	; 1
    00002746 01                    6686 	.db #0x01	; 1
    00002747 01                    6687 	.db #0x01	; 1
    00002748 01                    6688 	.db #0x01	; 1
    00002749 01                    6689 	.db #0x01	; 1
    0000274A 01                    6690 	.db #0x01	; 1
    0000274B 01                    6691 	.db #0x01	; 1
    0000274C 01                    6692 	.db #0x01	; 1
    0000274D 01                    6693 	.db #0x01	; 1
    0000274E 01                    6694 	.db #0x01	; 1
    0000274F 01                    6695 	.db #0x01	; 1
    00002750 01                    6696 	.db #0x01	; 1
    00002751 01                    6697 	.db #0x01	; 1
    00002752 01                    6698 	.db #0x01	; 1
    00002753 01                    6699 	.db #0x01	; 1
    00002754 01                    6700 	.db #0x01	; 1
    00002755 01                    6701 	.db #0x01	; 1
    00002756 FF                    6702 	.db #0xff	; 255
    00002757 FF                    6703 	.db #0xff	; 255
    00002758 FF                    6704 	.db #0xff	; 255
    00002759                       6705 _g_GameFieldLayerBTilesPalette:
    00002759 00                    6706 	.db #0x00	; 0
    0000275A 00                    6707 	.db #0x00	; 0
    0000275B 00                    6708 	.db #0x00	; 0
    0000275C 08                    6709 	.db #0x08	; 8
    0000275D 17                    6710 	.db #0x17	; 23
    0000275E 1B                    6711 	.db #0x1b	; 27
    0000275F 01                    6712 	.db #0x01	; 1
    00002760 01                    6713 	.db #0x01	; 1
    00002761 01                    6714 	.db #0x01	; 1
    00002762 01                    6715 	.db #0x01	; 1
    00002763 01                    6716 	.db #0x01	; 1
    00002764 01                    6717 	.db #0x01	; 1
    00002765 01                    6718 	.db #0x01	; 1
    00002766 01                    6719 	.db #0x01	; 1
    00002767 01                    6720 	.db #0x01	; 1
    00002768 1E                    6721 	.db #0x1e	; 30
    00002769 1A                    6722 	.db #0x1a	; 26
    0000276A 08                    6723 	.db #0x08	; 8
    0000276B 01                    6724 	.db #0x01	; 1
    0000276C 01                    6725 	.db #0x01	; 1
    0000276D 01                    6726 	.db #0x01	; 1
    0000276E 01                    6727 	.db #0x01	; 1
    0000276F 01                    6728 	.db #0x01	; 1
    00002770 01                    6729 	.db #0x01	; 1
    00002771 01                    6730 	.db #0x01	; 1
    00002772 01                    6731 	.db #0x01	; 1
    00002773 01                    6732 	.db #0x01	; 1
    00002774 1F                    6733 	.db #0x1f	; 31
    00002775 00                    6734 	.db #0x00	; 0
    00002776 00                    6735 	.db #0x00	; 0
    00002777 1B                    6736 	.db #0x1b	; 27
    00002778 1B                    6737 	.db #0x1b	; 27
    00002779 1B                    6738 	.db #0x1b	; 27
    0000277A 04                    6739 	.db #0x04	; 4
    0000277B 04                    6740 	.db #0x04	; 4
    0000277C 1B                    6741 	.db #0x1b	; 27
    0000277D 00                    6742 	.db #0x00	; 0
    0000277E 00                    6743 	.db #0x00	; 0
    0000277F 00                    6744 	.db #0x00	; 0
    00002780 1B                    6745 	.db #0x1b	; 27
    00002781 1B                    6746 	.db #0x1b	; 27
    00002782 1B                    6747 	.db #0x1b	; 27
    00002783 00                    6748 	.db #0x00	; 0
    00002784 17                    6749 	.db #0x17	; 23
    00002785 00                    6750 	.db #0x00	; 0
    00002786 1B                    6751 	.db #0x1b	; 27
    00002787 13                    6752 	.db #0x13	; 19
    00002788 09                    6753 	.db #0x09	; 9
    00002789                       6754 _g_Sprites1_palette_ita:
    00002789 00                    6755 	.db #0x00	; 0
    0000278A 00                    6756 	.db #0x00	; 0
    0000278B 00                    6757 	.db #0x00	; 0
    0000278C 14                    6758 	.db #0x14	; 20
    0000278D 09                    6759 	.db #0x09	; 9
    0000278E 14                    6760 	.db #0x14	; 20
    0000278F 01                    6761 	.db #0x01	; 1
    00002790 01                    6762 	.db #0x01	; 1
    00002791 01                    6763 	.db #0x01	; 1
    00002792 05                    6764 	.db #0x05	; 5
    00002793 03                    6765 	.db #0x03	; 3
    00002794 01                    6766 	.db #0x01	; 1
    00002795 1B                    6767 	.db #0x1b	; 27
    00002796 1A                    6768 	.db #0x1a	; 26
    00002797 1B                    6769 	.db #0x1b	; 27
    00002798 1E                    6770 	.db #0x1e	; 30
    00002799 1A                    6771 	.db #0x1a	; 26
    0000279A 08                    6772 	.db #0x08	; 8
    0000279B 1B                    6773 	.db #0x1b	; 27
    0000279C 1A                    6774 	.db #0x1a	; 26
    0000279D 1B                    6775 	.db #0x1b	; 27
    0000279E 09                    6776 	.db #0x09	; 9
    0000279F 16                    6777 	.db #0x16	; 22
    000027A0 1B                    6778 	.db #0x1b	; 27
    000027A1 1B                    6779 	.db #0x1b	; 27
    000027A2 1A                    6780 	.db #0x1a	; 26
    000027A3 1B                    6781 	.db #0x1b	; 27
    000027A4 1B                    6782 	.db #0x1b	; 27
    000027A5 13                    6783 	.db #0x13	; 19
    000027A6 09                    6784 	.db #0x09	; 9
    000027A7 1F                    6785 	.db #0x1f	; 31
    000027A8 1E                    6786 	.db #0x1e	; 30
    000027A9 01                    6787 	.db #0x01	; 1
    000027AA 1D                    6788 	.db #0x1d	; 29
    000027AB 03                    6789 	.db #0x03	; 3
    000027AC 02                    6790 	.db #0x02	; 2
    000027AD 05                    6791 	.db #0x05	; 5
    000027AE 03                    6792 	.db #0x03	; 3
    000027AF 01                    6793 	.db #0x01	; 1
    000027B0 01                    6794 	.db #0x01	; 1
    000027B1 01                    6795 	.db #0x01	; 1
    000027B2 01                    6796 	.db #0x01	; 1
    000027B3 01                    6797 	.db #0x01	; 1
    000027B4 01                    6798 	.db #0x01	; 1
    000027B5 01                    6799 	.db #0x01	; 1
    000027B6 01                    6800 	.db #0x01	; 1
    000027B7 01                    6801 	.db #0x01	; 1
    000027B8 01                    6802 	.db #0x01	; 1
    000027B9                       6803 _g_Sprites1_palette_aus:
    000027B9 00                    6804 	.db #0x00	; 0
    000027BA 00                    6805 	.db #0x00	; 0
    000027BB 00                    6806 	.db #0x00	; 0
    000027BC 14                    6807 	.db #0x14	; 20
    000027BD 09                    6808 	.db #0x09	; 9
    000027BE 14                    6809 	.db #0x14	; 20
    000027BF 01                    6810 	.db #0x01	; 1
    000027C0 01                    6811 	.db #0x01	; 1
    000027C1 01                    6812 	.db #0x01	; 1
    000027C2 05                    6813 	.db #0x05	; 5
    000027C3 03                    6814 	.db #0x03	; 3
    000027C4 01                    6815 	.db #0x01	; 1
    000027C5 1B                    6816 	.db #0x1b	; 27
    000027C6 1A                    6817 	.db #0x1a	; 26
    000027C7 1B                    6818 	.db #0x1b	; 27
    000027C8 1E                    6819 	.db #0x1e	; 30
    000027C9 1A                    6820 	.db #0x1a	; 26
    000027CA 08                    6821 	.db #0x08	; 8
    000027CB 1B                    6822 	.db #0x1b	; 27
    000027CC 1A                    6823 	.db #0x1a	; 26
    000027CD 1B                    6824 	.db #0x1b	; 27
    000027CE 05                    6825 	.db #0x05	; 5
    000027CF 03                    6826 	.db #0x03	; 3
    000027D0 01                    6827 	.db #0x01	; 1
    000027D1 1B                    6828 	.db #0x1b	; 27
    000027D2 1A                    6829 	.db #0x1a	; 26
    000027D3 1B                    6830 	.db #0x1b	; 27
    000027D4 1B                    6831 	.db #0x1b	; 27
    000027D5 13                    6832 	.db #0x13	; 19
    000027D6 09                    6833 	.db #0x09	; 9
    000027D7 1F                    6834 	.db #0x1f	; 31
    000027D8 1E                    6835 	.db #0x1e	; 30
    000027D9 01                    6836 	.db #0x01	; 1
    000027DA 1D                    6837 	.db #0x1d	; 29
    000027DB 03                    6838 	.db #0x03	; 3
    000027DC 02                    6839 	.db #0x02	; 2
    000027DD 05                    6840 	.db #0x05	; 5
    000027DE 03                    6841 	.db #0x03	; 3
    000027DF 01                    6842 	.db #0x01	; 1
    000027E0 01                    6843 	.db #0x01	; 1
    000027E1 01                    6844 	.db #0x01	; 1
    000027E2 01                    6845 	.db #0x01	; 1
    000027E3 01                    6846 	.db #0x01	; 1
    000027E4 01                    6847 	.db #0x01	; 1
    000027E5 01                    6848 	.db #0x01	; 1
    000027E6 01                    6849 	.db #0x01	; 1
    000027E7 01                    6850 	.db #0x01	; 1
    000027E8 01                    6851 	.db #0x01	; 1
    000027E9                       6852 _g_Sprites1_palette_fra:
    000027E9 00                    6853 	.db #0x00	; 0
    000027EA 00                    6854 	.db #0x00	; 0
    000027EB 00                    6855 	.db #0x00	; 0
    000027EC 14                    6856 	.db #0x14	; 20
    000027ED 09                    6857 	.db #0x09	; 9
    000027EE 14                    6858 	.db #0x14	; 20
    000027EF 01                    6859 	.db #0x01	; 1
    000027F0 01                    6860 	.db #0x01	; 1
    000027F1 01                    6861 	.db #0x01	; 1
    000027F2 05                    6862 	.db #0x05	; 5
    000027F3 03                    6863 	.db #0x03	; 3
    000027F4 01                    6864 	.db #0x01	; 1
    000027F5 1B                    6865 	.db #0x1b	; 27
    000027F6 1A                    6866 	.db #0x1a	; 26
    000027F7 1B                    6867 	.db #0x1b	; 27
    000027F8 1E                    6868 	.db #0x1e	; 30
    000027F9 1A                    6869 	.db #0x1a	; 26
    000027FA 08                    6870 	.db #0x08	; 8
    000027FB 1B                    6871 	.db #0x1b	; 27
    000027FC 1A                    6872 	.db #0x1a	; 26
    000027FD 1B                    6873 	.db #0x1b	; 27
    000027FE 04                    6874 	.db #0x04	; 4
    000027FF 04                    6875 	.db #0x04	; 4
    00002800 1B                    6876 	.db #0x1b	; 27
    00002801 1B                    6877 	.db #0x1b	; 27
    00002802 1A                    6878 	.db #0x1a	; 26
    00002803 1B                    6879 	.db #0x1b	; 27
    00002804 1B                    6880 	.db #0x1b	; 27
    00002805 13                    6881 	.db #0x13	; 19
    00002806 09                    6882 	.db #0x09	; 9
    00002807 1F                    6883 	.db #0x1f	; 31
    00002808 1E                    6884 	.db #0x1e	; 30
    00002809 01                    6885 	.db #0x01	; 1
    0000280A 1D                    6886 	.db #0x1d	; 29
    0000280B 03                    6887 	.db #0x03	; 3
    0000280C 02                    6888 	.db #0x02	; 2
    0000280D 05                    6889 	.db #0x05	; 5
    0000280E 03                    6890 	.db #0x03	; 3
    0000280F 01                    6891 	.db #0x01	; 1
    00002810 01                    6892 	.db #0x01	; 1
    00002811 01                    6893 	.db #0x01	; 1
    00002812 01                    6894 	.db #0x01	; 1
    00002813 01                    6895 	.db #0x01	; 1
    00002814 01                    6896 	.db #0x01	; 1
    00002815 01                    6897 	.db #0x01	; 1
    00002816 01                    6898 	.db #0x01	; 1
    00002817 01                    6899 	.db #0x01	; 1
    00002818 01                    6900 	.db #0x01	; 1
    00002819                       6901 _g_Sprites1_palette_ger:
    00002819 00                    6902 	.db #0x00	; 0
    0000281A 00                    6903 	.db #0x00	; 0
    0000281B 00                    6904 	.db #0x00	; 0
    0000281C 14                    6905 	.db #0x14	; 20
    0000281D 09                    6906 	.db #0x09	; 9
    0000281E 14                    6907 	.db #0x14	; 20
    0000281F 01                    6908 	.db #0x01	; 1
    00002820 01                    6909 	.db #0x01	; 1
    00002821 01                    6910 	.db #0x01	; 1
    00002822 05                    6911 	.db #0x05	; 5
    00002823 03                    6912 	.db #0x03	; 3
    00002824 01                    6913 	.db #0x01	; 1
    00002825 1B                    6914 	.db #0x1b	; 27
    00002826 1A                    6915 	.db #0x1a	; 26
    00002827 1B                    6916 	.db #0x1b	; 27
    00002828 1E                    6917 	.db #0x1e	; 30
    00002829 1A                    6918 	.db #0x1a	; 26
    0000282A 08                    6919 	.db #0x08	; 8
    0000282B 05                    6920 	.db #0x05	; 5
    0000282C 03                    6921 	.db #0x03	; 3
    0000282D 01                    6922 	.db #0x01	; 1
    0000282E 1B                    6923 	.db #0x1b	; 27
    0000282F 1A                    6924 	.db #0x1a	; 26
    00002830 1B                    6925 	.db #0x1b	; 27
    00002831 1F                    6926 	.db #0x1f	; 31
    00002832 00                    6927 	.db #0x00	; 0
    00002833 00                    6928 	.db #0x00	; 0
    00002834 1B                    6929 	.db #0x1b	; 27
    00002835 13                    6930 	.db #0x13	; 19
    00002836 09                    6931 	.db #0x09	; 9
    00002837 1F                    6932 	.db #0x1f	; 31
    00002838 1E                    6933 	.db #0x1e	; 30
    00002839 01                    6934 	.db #0x01	; 1
    0000283A 1D                    6935 	.db #0x1d	; 29
    0000283B 03                    6936 	.db #0x03	; 3
    0000283C 02                    6937 	.db #0x02	; 2
    0000283D 05                    6938 	.db #0x05	; 5
    0000283E 03                    6939 	.db #0x03	; 3
    0000283F 01                    6940 	.db #0x01	; 1
    00002840 01                    6941 	.db #0x01	; 1
    00002841 01                    6942 	.db #0x01	; 1
    00002842 01                    6943 	.db #0x01	; 1
    00002843 01                    6944 	.db #0x01	; 1
    00002844 01                    6945 	.db #0x01	; 1
    00002845 01                    6946 	.db #0x01	; 1
    00002846 01                    6947 	.db #0x01	; 1
    00002847 01                    6948 	.db #0x01	; 1
    00002848 01                    6949 	.db #0x01	; 1
    00002849                       6950 _g_Sprites1_palette_gbr:
    00002849 00                    6951 	.db #0x00	; 0
    0000284A 00                    6952 	.db #0x00	; 0
    0000284B 00                    6953 	.db #0x00	; 0
    0000284C 14                    6954 	.db #0x14	; 20
    0000284D 09                    6955 	.db #0x09	; 9
    0000284E 14                    6956 	.db #0x14	; 20
    0000284F 01                    6957 	.db #0x01	; 1
    00002850 01                    6958 	.db #0x01	; 1
    00002851 01                    6959 	.db #0x01	; 1
    00002852 05                    6960 	.db #0x05	; 5
    00002853 03                    6961 	.db #0x03	; 3
    00002854 01                    6962 	.db #0x01	; 1
    00002855 1B                    6963 	.db #0x1b	; 27
    00002856 1A                    6964 	.db #0x1a	; 26
    00002857 1B                    6965 	.db #0x1b	; 27
    00002858 1E                    6966 	.db #0x1e	; 30
    00002859 1A                    6967 	.db #0x1a	; 26
    0000285A 08                    6968 	.db #0x08	; 8
    0000285B 01                    6969 	.db #0x01	; 1
    0000285C 01                    6970 	.db #0x01	; 1
    0000285D 01                    6971 	.db #0x01	; 1
    0000285E 1B                    6972 	.db #0x1b	; 27
    0000285F 1A                    6973 	.db #0x1a	; 26
    00002860 1B                    6974 	.db #0x1b	; 27
    00002861 01                    6975 	.db #0x01	; 1
    00002862 01                    6976 	.db #0x01	; 1
    00002863 01                    6977 	.db #0x01	; 1
    00002864 1B                    6978 	.db #0x1b	; 27
    00002865 13                    6979 	.db #0x13	; 19
    00002866 09                    6980 	.db #0x09	; 9
    00002867 1F                    6981 	.db #0x1f	; 31
    00002868 1E                    6982 	.db #0x1e	; 30
    00002869 01                    6983 	.db #0x01	; 1
    0000286A 1D                    6984 	.db #0x1d	; 29
    0000286B 03                    6985 	.db #0x03	; 3
    0000286C 02                    6986 	.db #0x02	; 2
    0000286D 05                    6987 	.db #0x05	; 5
    0000286E 03                    6988 	.db #0x03	; 3
    0000286F 01                    6989 	.db #0x01	; 1
    00002870 01                    6990 	.db #0x01	; 1
    00002871 01                    6991 	.db #0x01	; 1
    00002872 01                    6992 	.db #0x01	; 1
    00002873 01                    6993 	.db #0x01	; 1
    00002874 01                    6994 	.db #0x01	; 1
    00002875 01                    6995 	.db #0x01	; 1
    00002876 01                    6996 	.db #0x01	; 1
    00002877 01                    6997 	.db #0x01	; 1
    00002878 01                    6998 	.db #0x01	; 1
    00002879                       6999 _g_Sprites1_palette_bra:
    00002879 00                    7000 	.db #0x00	; 0
    0000287A 00                    7001 	.db #0x00	; 0
    0000287B 00                    7002 	.db #0x00	; 0
    0000287C 14                    7003 	.db #0x14	; 20
    0000287D 09                    7004 	.db #0x09	; 9
    0000287E 14                    7005 	.db #0x14	; 20
    0000287F 01                    7006 	.db #0x01	; 1
    00002880 01                    7007 	.db #0x01	; 1
    00002881 01                    7008 	.db #0x01	; 1
    00002882 05                    7009 	.db #0x05	; 5
    00002883 03                    7010 	.db #0x03	; 3
    00002884 01                    7011 	.db #0x01	; 1
    00002885 1B                    7012 	.db #0x1b	; 27
    00002886 1A                    7013 	.db #0x1a	; 26
    00002887 1B                    7014 	.db #0x1b	; 27
    00002888 1E                    7015 	.db #0x1e	; 30
    00002889 1A                    7016 	.db #0x1a	; 26
    0000288A 08                    7017 	.db #0x08	; 8
    0000288B 1B                    7018 	.db #0x1b	; 27
    0000288C 13                    7019 	.db #0x13	; 19
    0000288D 09                    7020 	.db #0x09	; 9
    0000288E 00                    7021 	.db #0x00	; 0
    0000288F 0A                    7022 	.db #0x0a	; 10
    00002890 03                    7023 	.db #0x03	; 3
    00002891 1B                    7024 	.db #0x1b	; 27
    00002892 13                    7025 	.db #0x13	; 19
    00002893 09                    7026 	.db #0x09	; 9
    00002894 1B                    7027 	.db #0x1b	; 27
    00002895 13                    7028 	.db #0x13	; 19
    00002896 09                    7029 	.db #0x09	; 9
    00002897 1F                    7030 	.db #0x1f	; 31
    00002898 1E                    7031 	.db #0x1e	; 30
    00002899 01                    7032 	.db #0x01	; 1
    0000289A 1D                    7033 	.db #0x1d	; 29
    0000289B 03                    7034 	.db #0x03	; 3
    0000289C 02                    7035 	.db #0x02	; 2
    0000289D 05                    7036 	.db #0x05	; 5
    0000289E 03                    7037 	.db #0x03	; 3
    0000289F 01                    7038 	.db #0x01	; 1
    000028A0 01                    7039 	.db #0x01	; 1
    000028A1 01                    7040 	.db #0x01	; 1
    000028A2 01                    7041 	.db #0x01	; 1
    000028A3 01                    7042 	.db #0x01	; 1
    000028A4 01                    7043 	.db #0x01	; 1
    000028A5 01                    7044 	.db #0x01	; 1
    000028A6 01                    7045 	.db #0x01	; 1
    000028A7 01                    7046 	.db #0x01	; 1
    000028A8 01                    7047 	.db #0x01	; 1
    000028A9                       7048 _g_Sprites1_palette_fio:
    000028A9 00                    7049 	.db #0x00	; 0
    000028AA 00                    7050 	.db #0x00	; 0
    000028AB 00                    7051 	.db #0x00	; 0
    000028AC 14                    7052 	.db #0x14	; 20
    000028AD 09                    7053 	.db #0x09	; 9
    000028AE 14                    7054 	.db #0x14	; 20
    000028AF 01                    7055 	.db #0x01	; 1
    000028B0 01                    7056 	.db #0x01	; 1
    000028B1 01                    7057 	.db #0x01	; 1
    000028B2 05                    7058 	.db #0x05	; 5
    000028B3 03                    7059 	.db #0x03	; 3
    000028B4 01                    7060 	.db #0x01	; 1
    000028B5 1B                    7061 	.db #0x1b	; 27
    000028B6 1A                    7062 	.db #0x1a	; 26
    000028B7 1B                    7063 	.db #0x1b	; 27
    000028B8 1E                    7064 	.db #0x1e	; 30
    000028B9 1A                    7065 	.db #0x1a	; 26
    000028BA 08                    7066 	.db #0x08	; 8
    000028BB 1B                    7067 	.db #0x1b	; 27
    000028BC 13                    7068 	.db #0x13	; 19
    000028BD 09                    7069 	.db #0x09	; 9
    000028BE 1B                    7070 	.db #0x1b	; 27
    000028BF 02                    7071 	.db #0x02	; 2
    000028C0 14                    7072 	.db #0x14	; 20
    000028C1 1B                    7073 	.db #0x1b	; 27
    000028C2 13                    7074 	.db #0x13	; 19
    000028C3 09                    7075 	.db #0x09	; 9
    000028C4 1B                    7076 	.db #0x1b	; 27
    000028C5 13                    7077 	.db #0x13	; 19
    000028C6 09                    7078 	.db #0x09	; 9
    000028C7 1F                    7079 	.db #0x1f	; 31
    000028C8 1E                    7080 	.db #0x1e	; 30
    000028C9 01                    7081 	.db #0x01	; 1
    000028CA 1D                    7082 	.db #0x1d	; 29
    000028CB 03                    7083 	.db #0x03	; 3
    000028CC 02                    7084 	.db #0x02	; 2
    000028CD 05                    7085 	.db #0x05	; 5
    000028CE 03                    7086 	.db #0x03	; 3
    000028CF 01                    7087 	.db #0x01	; 1
    000028D0 01                    7088 	.db #0x01	; 1
    000028D1 01                    7089 	.db #0x01	; 1
    000028D2 01                    7090 	.db #0x01	; 1
    000028D3 01                    7091 	.db #0x01	; 1
    000028D4 01                    7092 	.db #0x01	; 1
    000028D5 01                    7093 	.db #0x01	; 1
    000028D6 01                    7094 	.db #0x01	; 1
    000028D7 01                    7095 	.db #0x01	; 1
    000028D8 01                    7096 	.db #0x01	; 1
                                   7097 ;E:\Dropbox\FAUSTO\SVILUPPI\MSX\CODE\C\MSXgl\projects\exsoccer/exsoccer_s1_b2.c:1330: void TickTeamSelection(){
                                   7098 ;	---------------------------------
                                   7099 ; Function TickTeamSelection
                                   7100 ; ---------------------------------
    000028D9                       7101 _TickTeamSelection::
                                   7102 ;E:\Dropbox\FAUSTO\SVILUPPI\MSX\CODE\C\MSXgl\projects\exsoccer/exsoccer_s1_b2.c:1331: u8 direction= GetJoystick1Direction(); 
                                   7103 ;E:\Dropbox\FAUSTO\SVILUPPI\MSX\CODE\C\MSXgl\projects\exsoccer/exsoccer_s1_b2.c:1332: if(direction!=DIRECTION_NONE){
                                   7104 ;E:\Dropbox\FAUSTO\SVILUPPI\MSX\CODE\C\MSXgl\projects\exsoccer/exsoccer_s1_b2.c:1335: }
    000028D9 C3r00r00         [10] 7105 	jp	_GetJoystick1Direction
                                   7106 ;E:\Dropbox\FAUSTO\SVILUPPI\MSX\CODE\C\MSXgl\projects\exsoccer/exsoccer_s1_b2.c:1337: void SetTeam1Palette(){
                                   7107 ;	---------------------------------
                                   7108 ; Function SetTeam1Palette
                                   7109 ; ---------------------------------
    000028DC                       7110 _SetTeam1Palette::
                                   7111 ;E:\Dropbox\FAUSTO\SVILUPPI\MSX\CODE\C\MSXgl\projects\exsoccer/exsoccer_s1_b2.c:1338: V9_SetPalette(32, 16, GetTeamPaletteById(g_Team1PaletteId));
    000028DC 3Ar00r00         [13] 7112 	ld	a, (_g_Team1PaletteId+0)
    000028DF CDr36r29         [17] 7113 	call	_GetTeamPaletteById
    000028E2 EB               [ 4] 7114 	ex	de, hl
                                   7115 ;E:\Dropbox\FAUSTO\SVILUPPI\MSX\CODE\C\MSXgl\projects\exsoccer/exsoccer_s1_b2.c:1028: 
    000028E3 01 20 00         [10] 7116 	ld	bc, #0x20
    000028E6                       7117 00104$:
    000028E6 78               [ 4] 7118 	ld	a, b
    000028E7 D6 10            [ 7] 7119 	sub	a, #0x10
    000028E9 D0               [11] 7120 	ret	NC
    000028EA FD E5            [15] 7121 	push	iy
    000028EC E3               [19] 7122 	ex	(sp), hl
    000028ED 69               [ 4] 7123 	ld	l, c
                                   7124 ;	spillPairReg hl
                                   7125 ;	spillPairReg hl
    000028EE E3               [19] 7126 	ex	(sp), hl
    000028EF FD E1            [14] 7127 	pop	iy
    000028F1 0C               [ 4] 7128 	inc	c
    000028F2 E5               [11] 7129 	push	hl
    000028F3 C5               [11] 7130 	push	bc
    000028F4 5D               [ 4] 7131 	ld	e, l
    000028F5 54               [ 4] 7132 	ld	d, h
    000028F6 FD E5            [15] 7133 	push	iy
    000028F8 E3               [19] 7134 	ex	(sp), hl
    000028F9 7D               [ 4] 7135 	ld	a, l
    000028FA E3               [19] 7136 	ex	(sp), hl
    000028FB FD E1            [14] 7137 	pop	iy
    000028FD CDr00r00         [17] 7138 	call	_V9_SetPaletteEntry
    00002900 C1               [10] 7139 	pop	bc
    00002901 E1               [10] 7140 	pop	hl
    00002902 23               [ 6] 7141 	inc	hl
    00002903 23               [ 6] 7142 	inc	hl
    00002904 23               [ 6] 7143 	inc	hl
    00002905 04               [ 4] 7144 	inc	b
                                   7145 ;E:\Dropbox\FAUSTO\SVILUPPI\MSX\CODE\C\MSXgl\projects\exsoccer/exsoccer_s1_b2.c:1338: V9_SetPalette(32, 16, GetTeamPaletteById(g_Team1PaletteId));
                                   7146 ;E:\Dropbox\FAUSTO\SVILUPPI\MSX\CODE\C\MSXgl\projects\exsoccer/exsoccer_s1_b2.c:1339: }
    00002906 C3rE6r28         [10] 7147 	jp	00104$
                                   7148 ;E:\Dropbox\FAUSTO\SVILUPPI\MSX\CODE\C\MSXgl\projects\exsoccer/exsoccer_s1_b2.c:1340: void SetTeam2Palette(){
                                   7149 ;	---------------------------------
                                   7150 ; Function SetTeam2Palette
                                   7151 ; ---------------------------------
    00002909                       7152 _SetTeam2Palette::
                                   7153 ;E:\Dropbox\FAUSTO\SVILUPPI\MSX\CODE\C\MSXgl\projects\exsoccer/exsoccer_s1_b2.c:1341: V9_SetPalette(48, 16, GetTeamPaletteById(g_Team2PaletteId));
    00002909 3Ar00r00         [13] 7154 	ld	a, (_g_Team2PaletteId+0)
    0000290C CDr36r29         [17] 7155 	call	_GetTeamPaletteById
    0000290F EB               [ 4] 7156 	ex	de, hl
                                   7157 ;E:\Dropbox\FAUSTO\SVILUPPI\MSX\CODE\C\MSXgl\projects\exsoccer/exsoccer_s1_b2.c:1028: 
    00002910 01 30 00         [10] 7158 	ld	bc, #0x30
    00002913                       7159 00104$:
    00002913 78               [ 4] 7160 	ld	a, b
    00002914 D6 10            [ 7] 7161 	sub	a, #0x10
    00002916 D0               [11] 7162 	ret	NC
    00002917 FD E5            [15] 7163 	push	iy
    00002919 E3               [19] 7164 	ex	(sp), hl
    0000291A 69               [ 4] 7165 	ld	l, c
                                   7166 ;	spillPairReg hl
                                   7167 ;	spillPairReg hl
    0000291B E3               [19] 7168 	ex	(sp), hl
    0000291C FD E1            [14] 7169 	pop	iy
    0000291E 0C               [ 4] 7170 	inc	c
    0000291F E5               [11] 7171 	push	hl
    00002920 C5               [11] 7172 	push	bc
    00002921 5D               [ 4] 7173 	ld	e, l
    00002922 54               [ 4] 7174 	ld	d, h
    00002923 FD E5            [15] 7175 	push	iy
    00002925 E3               [19] 7176 	ex	(sp), hl
    00002926 7D               [ 4] 7177 	ld	a, l
    00002927 E3               [19] 7178 	ex	(sp), hl
    00002928 FD E1            [14] 7179 	pop	iy
    0000292A CDr00r00         [17] 7180 	call	_V9_SetPaletteEntry
    0000292D C1               [10] 7181 	pop	bc
    0000292E E1               [10] 7182 	pop	hl
    0000292F 23               [ 6] 7183 	inc	hl
    00002930 23               [ 6] 7184 	inc	hl
    00002931 23               [ 6] 7185 	inc	hl
    00002932 04               [ 4] 7186 	inc	b
                                   7187 ;E:\Dropbox\FAUSTO\SVILUPPI\MSX\CODE\C\MSXgl\projects\exsoccer/exsoccer_s1_b2.c:1341: V9_SetPalette(48, 16, GetTeamPaletteById(g_Team2PaletteId));
                                   7188 ;E:\Dropbox\FAUSTO\SVILUPPI\MSX\CODE\C\MSXgl\projects\exsoccer/exsoccer_s1_b2.c:1342: }
    00002933 C3r13r29         [10] 7189 	jp	00104$
                                   7190 ;E:\Dropbox\FAUSTO\SVILUPPI\MSX\CODE\C\MSXgl\projects\exsoccer/exsoccer_s1_b2.c:1343: const u16* GetTeamPaletteById(u8 id){
                                   7191 ;	---------------------------------
                                   7192 ; Function GetTeamPaletteById
                                   7193 ; ---------------------------------
    00002936                       7194 _GetTeamPaletteById::
    00002936 4F               [ 4] 7195 	ld	c, a
                                   7196 ;E:\Dropbox\FAUSTO\SVILUPPI\MSX\CODE\C\MSXgl\projects\exsoccer/exsoccer_s1_b2.c:1344: const u16* palette=g_Sprites1_palette_ita;
    00002937 11r89r27         [10] 7197 	ld	de, #_g_Sprites1_palette_ita
                                   7198 ;E:\Dropbox\FAUSTO\SVILUPPI\MSX\CODE\C\MSXgl\projects\exsoccer/exsoccer_s1_b2.c:1345: switch (id){
    0000293A 3E 05            [ 7] 7199 	ld	a, #0x05
    0000293C 91               [ 4] 7200 	sub	a, c
    0000293D D8               [11] 7201 	ret	C
    0000293E 06 00            [ 7] 7202 	ld	b, #0x00
    00002940 21r47r29         [10] 7203 	ld	hl, #00123$
    00002943 09               [11] 7204 	add	hl, bc
    00002944 09               [11] 7205 	add	hl, bc
    00002945 09               [11] 7206 	add	hl, bc
    00002946 E9               [ 4] 7207 	jp	(hl)
    00002947                       7208 00123$:
    00002947 C3r59r29         [10] 7209 	jp	00101$
    0000294A C3r73r29         [10] 7210 	jp	00108$
    0000294D C3r6Br29         [10] 7211 	jp	00106$
    00002950 C3r67r29         [10] 7212 	jp	00105$
    00002953 C3r77r29         [10] 7213 	jp	00109$
    00002956 C3r6Fr29         [10] 7214 	jp	00107$
                                   7215 ;E:\Dropbox\FAUSTO\SVILUPPI\MSX\CODE\C\MSXgl\projects\exsoccer/exsoccer_s1_b2.c:1346: case TEAM_AUS:
    00002959                       7216 00101$:
                                   7217 ;E:\Dropbox\FAUSTO\SVILUPPI\MSX\CODE\C\MSXgl\projects\exsoccer/exsoccer_s1_b2.c:1347: if(g_FioBre){
    00002959 3Ar00r00         [13] 7218 	ld	a, (_g_FioBre+0)
    0000295C B7               [ 4] 7219 	or	a, a
    0000295D 28 04            [12] 7220 	jr	Z, 00103$
                                   7221 ;E:\Dropbox\FAUSTO\SVILUPPI\MSX\CODE\C\MSXgl\projects\exsoccer/exsoccer_s1_b2.c:1348: palette=g_Sprites1_palette_fio;
    0000295F 11rA9r28         [10] 7222 	ld	de, #_g_Sprites1_palette_fio
    00002962 C9               [10] 7223 	ret
    00002963                       7224 00103$:
                                   7225 ;E:\Dropbox\FAUSTO\SVILUPPI\MSX\CODE\C\MSXgl\projects\exsoccer/exsoccer_s1_b2.c:1351: palette=g_Sprites1_palette_aus;
    00002963 11rB9r27         [10] 7226 	ld	de, #_g_Sprites1_palette_aus
                                   7227 ;E:\Dropbox\FAUSTO\SVILUPPI\MSX\CODE\C\MSXgl\projects\exsoccer/exsoccer_s1_b2.c:1353: break; 
    00002966 C9               [10] 7228 	ret
                                   7229 ;E:\Dropbox\FAUSTO\SVILUPPI\MSX\CODE\C\MSXgl\projects\exsoccer/exsoccer_s1_b2.c:1354: case TEAM_BRA:
    00002967                       7230 00105$:
                                   7231 ;E:\Dropbox\FAUSTO\SVILUPPI\MSX\CODE\C\MSXgl\projects\exsoccer/exsoccer_s1_b2.c:1355: palette=g_Sprites1_palette_bra;
    00002967 11r79r28         [10] 7232 	ld	de, #_g_Sprites1_palette_bra
                                   7233 ;E:\Dropbox\FAUSTO\SVILUPPI\MSX\CODE\C\MSXgl\projects\exsoccer/exsoccer_s1_b2.c:1356: break;
    0000296A C9               [10] 7234 	ret
                                   7235 ;E:\Dropbox\FAUSTO\SVILUPPI\MSX\CODE\C\MSXgl\projects\exsoccer/exsoccer_s1_b2.c:1357: case TEAM_ITA:
    0000296B                       7236 00106$:
                                   7237 ;E:\Dropbox\FAUSTO\SVILUPPI\MSX\CODE\C\MSXgl\projects\exsoccer/exsoccer_s1_b2.c:1358: palette=g_Sprites1_palette_ita;
    0000296B 11r89r27         [10] 7238 	ld	de, #_g_Sprites1_palette_ita
                                   7239 ;E:\Dropbox\FAUSTO\SVILUPPI\MSX\CODE\C\MSXgl\projects\exsoccer/exsoccer_s1_b2.c:1359: break;
    0000296E C9               [10] 7240 	ret
                                   7241 ;E:\Dropbox\FAUSTO\SVILUPPI\MSX\CODE\C\MSXgl\projects\exsoccer/exsoccer_s1_b2.c:1360: case TEAM_GBR:
    0000296F                       7242 00107$:
                                   7243 ;E:\Dropbox\FAUSTO\SVILUPPI\MSX\CODE\C\MSXgl\projects\exsoccer/exsoccer_s1_b2.c:1361: palette=g_Sprites1_palette_gbr;
    0000296F 11r49r28         [10] 7244 	ld	de, #_g_Sprites1_palette_gbr
                                   7245 ;E:\Dropbox\FAUSTO\SVILUPPI\MSX\CODE\C\MSXgl\projects\exsoccer/exsoccer_s1_b2.c:1362: break;
    00002972 C9               [10] 7246 	ret
                                   7247 ;E:\Dropbox\FAUSTO\SVILUPPI\MSX\CODE\C\MSXgl\projects\exsoccer/exsoccer_s1_b2.c:1363: case TEAM_GER:
    00002973                       7248 00108$:
                                   7249 ;E:\Dropbox\FAUSTO\SVILUPPI\MSX\CODE\C\MSXgl\projects\exsoccer/exsoccer_s1_b2.c:1364: palette=g_Sprites1_palette_ger;
    00002973 11r19r28         [10] 7250 	ld	de, #_g_Sprites1_palette_ger
                                   7251 ;E:\Dropbox\FAUSTO\SVILUPPI\MSX\CODE\C\MSXgl\projects\exsoccer/exsoccer_s1_b2.c:1365: break;
    00002976 C9               [10] 7252 	ret
                                   7253 ;E:\Dropbox\FAUSTO\SVILUPPI\MSX\CODE\C\MSXgl\projects\exsoccer/exsoccer_s1_b2.c:1366: case TEAM_FRA:
    00002977                       7254 00109$:
                                   7255 ;E:\Dropbox\FAUSTO\SVILUPPI\MSX\CODE\C\MSXgl\projects\exsoccer/exsoccer_s1_b2.c:1367: palette=g_Sprites1_palette_fra;
    00002977 11rE9r27         [10] 7256 	ld	de, #_g_Sprites1_palette_fra
                                   7257 ;E:\Dropbox\FAUSTO\SVILUPPI\MSX\CODE\C\MSXgl\projects\exsoccer/exsoccer_s1_b2.c:1369: }
                                   7258 ;E:\Dropbox\FAUSTO\SVILUPPI\MSX\CODE\C\MSXgl\projects\exsoccer/exsoccer_s1_b2.c:1370: return palette;
                                   7259 ;E:\Dropbox\FAUSTO\SVILUPPI\MSX\CODE\C\MSXgl\projects\exsoccer/exsoccer_s1_b2.c:1371: }
    0000297A C9               [10] 7260 	ret
                                   7261 ;E:\Dropbox\FAUSTO\SVILUPPI\MSX\CODE\C\MSXgl\projects\exsoccer/exsoccer_s1_b2.c:1376: void TickShowKickOff(){
                                   7262 ;	---------------------------------
                                   7263 ; Function TickShowKickOff
                                   7264 ; ---------------------------------
    0000297B                       7265 _TickShowKickOff::
                                   7266 ;E:\Dropbox\FAUSTO\SVILUPPI\MSX\CODE\C\MSXgl\projects\exsoccer/exsoccer_s1_b2.c:1377: if(g_MatchStatus==MATCH_KICK_OFF){
    0000297B 3Ar00r00         [13] 7267 	ld	a, (_g_MatchStatus+0)
    0000297E D6 07            [ 7] 7268 	sub	a, #0x07
    00002980 20 4F            [12] 7269 	jr	NZ, 00109$
                                   7270 ;E:\Dropbox\FAUSTO\SVILUPPI\MSX\CODE\C\MSXgl\projects\exsoccer/exsoccer_s1_b2.c:1378: if(g_Timer==1){
    00002982 3Ar00r00         [13] 7271 	ld	a, (_g_Timer+0)
    00002985 3D               [ 4] 7272 	dec	a
    00002986 20 10            [12] 7273 	jr	NZ, 00102$
                                   7274 ;E:\Dropbox\FAUSTO\SVILUPPI\MSX\CODE\C\MSXgl\projects\exsoccer/exsoccer_s1_b2.c:1379: V9_PrintLayerAStringAtPos(12,18,"KICK OFF");
    00002988 21r08r2A         [10] 7275 	ld	hl, #___str_3
    0000298B E5               [11] 7276 	push	hl
    0000298C 2E 12            [ 7] 7277 	ld	l, #0x12
                                   7278 ;	spillPairReg hl
                                   7279 ;	spillPairReg hl
    0000298E 3E 0C            [ 7] 7280 	ld	a, #0x0c
    00002990 CDr00r00         [17] 7281 	call	_V9_PrintLayerAStringAtPos
                                   7282 ;E:\Dropbox\FAUSTO\SVILUPPI\MSX\CODE\C\MSXgl\projects\exsoccer/exsoccer_s1_b2.c:1380: g_Timer=2;
    00002993 21r00r00         [10] 7283 	ld	hl, #_g_Timer
    00002996 36 02            [10] 7284 	ld	(hl), #0x02
    00002998                       7285 00102$:
                                   7286 ;E:\Dropbox\FAUSTO\SVILUPPI\MSX\CODE\C\MSXgl\projects\exsoccer/exsoccer_s1_b2.c:1382: if(g_Timer==3){
    00002998 3Ar00r00         [13] 7287 	ld	a, (_g_Timer+0)
    0000299B D6 03            [ 7] 7288 	sub	a, #0x03
    0000299D 20 32            [12] 7289 	jr	NZ, 00109$
                                   7290 ;E:\Dropbox\FAUSTO\SVILUPPI\MSX\CODE\C\MSXgl\projects\exsoccer/exsoccer_s1_b2.c:1383: ClearTextFromLayerA(12,18,9);
    0000299F 3E 09            [ 7] 7291 	ld	a, #0x09
    000029A1 F5               [11] 7292 	push	af
    000029A2 33               [ 6] 7293 	inc	sp
    000029A3 2E 12            [ 7] 7294 	ld	l, #0x12
                                   7295 ;	spillPairReg hl
                                   7296 ;	spillPairReg hl
    000029A5 3E 0C            [ 7] 7297 	ld	a, #0x0c
    000029A7 CDr00r00         [17] 7298 	call	_ClearTextFromLayerA
                                   7299 ;E:\Dropbox\FAUSTO\SVILUPPI\MSX\CODE\C\MSXgl\projects\exsoccer/exsoccer_s1_b2.c:1384: g_Timer=NO_VALUE;
    000029AA 21r00r00         [10] 7300 	ld	hl, #_g_Timer
    000029AD 36 FF            [10] 7301 	ld	(hl), #0xff
                                   7302 ;E:\Dropbox\FAUSTO\SVILUPPI\MSX\CODE\C\MSXgl\projects\exsoccer/exsoccer_s1_b2.c:1386: if(g_RestartKickTeamId==TEAM_1){
    000029AF 3Ar00r00         [13] 7303 	ld	a, (_g_RestartKickTeamId+0)
    000029B2 3D               [ 4] 7304 	dec	a
    000029B3 20 0B            [12] 7305 	jr	NZ, 00104$
                                   7306 ;E:\Dropbox\FAUSTO\SVILUPPI\MSX\CODE\C\MSXgl\projects\exsoccer/exsoccer_s1_b2.c:1387: playerId=GetPlayerIdByRole(TEAM_1,PLAYER_ROLE_RIGHT_HALFFIELDER);
    000029B5 2E 04            [ 7] 7307 	ld	l, #0x04
                                   7308 ;	spillPairReg hl
                                   7309 ;	spillPairReg hl
    000029B7 3E 01            [ 7] 7310 	ld	a, #0x01
    000029B9 CDr00r00         [17] 7311 	call	_GetPlayerIdByRole
    000029BC 4F               [ 4] 7312 	ld	c, a
    000029BD C3rC8r29         [10] 7313 	jp	00105$
    000029C0                       7314 00104$:
                                   7315 ;E:\Dropbox\FAUSTO\SVILUPPI\MSX\CODE\C\MSXgl\projects\exsoccer/exsoccer_s1_b2.c:1390: playerId=GetPlayerIdByRole(TEAM_2,PLAYER_ROLE_LEFT_HALFFIELDER);
    000029C0 2E 03            [ 7] 7316 	ld	l, #0x03
                                   7317 ;	spillPairReg hl
                                   7318 ;	spillPairReg hl
    000029C2 3E 02            [ 7] 7319 	ld	a, #0x02
    000029C4 CDr00r00         [17] 7320 	call	_GetPlayerIdByRole
    000029C7 4F               [ 4] 7321 	ld	c, a
    000029C8                       7322 00105$:
                                   7323 ;E:\Dropbox\FAUSTO\SVILUPPI\MSX\CODE\C\MSXgl\projects\exsoccer/exsoccer_s1_b2.c:1392: PutBallOnPlayerFeet(playerId);
    000029C8 79               [ 4] 7324 	ld	a, c
    000029C9 CDrF7r1C         [17] 7325 	call	_PutBallOnPlayerFeet
                                   7326 ;E:\Dropbox\FAUSTO\SVILUPPI\MSX\CODE\C\MSXgl\projects\exsoccer/exsoccer_s1_b2.c:1393: g_MatchStatus=MATCH_IN_ACTION;
    000029CC 21r00r00         [10] 7327 	ld	hl, #_g_MatchStatus
    000029CF 36 0C            [10] 7328 	ld	(hl), #0x0c
    000029D1                       7329 00109$:
                                   7330 ;E:\Dropbox\FAUSTO\SVILUPPI\MSX\CODE\C\MSXgl\projects\exsoccer/exsoccer_s1_b2.c:1396: if(g_MatchStatus==MATCH_BEFORE_OFFSIDE){
    000029D1 3Ar00r00         [13] 7331 	ld	a, (_g_MatchStatus+0)
    000029D4 D6 0E            [ 7] 7332 	sub	a, #0x0e
    000029D6 C0               [11] 7333 	ret	NZ
                                   7334 ;E:\Dropbox\FAUSTO\SVILUPPI\MSX\CODE\C\MSXgl\projects\exsoccer/exsoccer_s1_b2.c:1397: if(g_Timer >= 2) { 
    000029D7 3Ar00r00         [13] 7335 	ld	a, (_g_Timer+0)
    000029DA D6 02            [ 7] 7336 	sub	a, #0x02
    000029DC D8               [11] 7337 	ret	C
                                   7338 ;E:\Dropbox\FAUSTO\SVILUPPI\MSX\CODE\C\MSXgl\projects\exsoccer/exsoccer_s1_b2.c:1398: ClearTextFromLayerA(10,18,7);
    000029DD 3E 07            [ 7] 7339 	ld	a, #0x07
    000029DF F5               [11] 7340 	push	af
    000029E0 33               [ 6] 7341 	inc	sp
    000029E1 2E 12            [ 7] 7342 	ld	l, #0x12
                                   7343 ;	spillPairReg hl
                                   7344 ;	spillPairReg hl
    000029E3 3E 0A            [ 7] 7345 	ld	a, #0x0a
    000029E5 CDr00r00         [17] 7346 	call	_ClearTextFromLayerA
                                   7347 ;E:\Dropbox\FAUSTO\SVILUPPI\MSX\CODE\C\MSXgl\projects\exsoccer/exsoccer_s1_b2.c:1399: g_Timer = NO_VALUE;
    000029E8 21r00r00         [10] 7348 	ld	hl, #_g_Timer
    000029EB 36 FF            [10] 7349 	ld	(hl), #0xff
                                   7350 ;E:\Dropbox\FAUSTO\SVILUPPI\MSX\CODE\C\MSXgl\projects\exsoccer/exsoccer_s1_b2.c:1401: u8 team = g_RestartKickTeamId; 
    000029ED 3Ar00r00         [13] 7351 	ld	a, (_g_RestartKickTeamId+0)
                                   7352 ;E:\Dropbox\FAUSTO\SVILUPPI\MSX\CODE\C\MSXgl\projects\exsoccer/exsoccer_s1_b2.c:1402: u8 newOwner = GetClosestPlayerToBall(team, NO_VALUE);
                                   7353 ;	spillPairReg hl
                                   7354 ;	spillPairReg hl
    000029F0 2E FF            [ 7] 7355 	ld	l, #0xff
    000029F2 CDr00r00         [17] 7356 	call	_GetClosestPlayerToBall
                                   7357 ;E:\Dropbox\FAUSTO\SVILUPPI\MSX\CODE\C\MSXgl\projects\exsoccer/exsoccer_s1_b2.c:1403: if (newOwner != NO_VALUE) {
    000029F5 4F               [ 4] 7358 	ld	c, a
    000029F6 3C               [ 4] 7359 	inc	a
    000029F7 28 09            [12] 7360 	jr	Z, 00111$
                                   7361 ;E:\Dropbox\FAUSTO\SVILUPPI\MSX\CODE\C\MSXgl\projects\exsoccer/exsoccer_s1_b2.c:1404: PutBallOnPlayerFeet(newOwner);
    000029F9 79               [ 4] 7362 	ld	a, c
    000029FA CDrF7r1C         [17] 7363 	call	_PutBallOnPlayerFeet
                                   7364 ;E:\Dropbox\FAUSTO\SVILUPPI\MSX\CODE\C\MSXgl\projects\exsoccer/exsoccer_s1_b2.c:1405: g_Ball.KickMoveState = NO_VALUE;
    000029FD 21r0Dr00         [10] 7365 	ld	hl, #(_g_Ball + 13)
    00002A00 36 FF            [10] 7366 	ld	(hl), #0xff
    00002A02                       7367 00111$:
                                   7368 ;E:\Dropbox\FAUSTO\SVILUPPI\MSX\CODE\C\MSXgl\projects\exsoccer/exsoccer_s1_b2.c:1408: g_MatchStatus = MATCH_IN_ACTION;
    00002A02 21r00r00         [10] 7369 	ld	hl, #_g_MatchStatus
    00002A05 36 0C            [10] 7370 	ld	(hl), #0x0c
                                   7371 ;E:\Dropbox\FAUSTO\SVILUPPI\MSX\CODE\C\MSXgl\projects\exsoccer/exsoccer_s1_b2.c:1411: }
    00002A07 C9               [10] 7372 	ret
    00002A08                       7373 ___str_3:
    00002A08 4B 49 43 4B 20 4F 46  7374 	.ascii "KICK OFF"
             46
    00002A10 00                    7375 	.db 0x00
                                   7376 ;E:\Dropbox\FAUSTO\SVILUPPI\MSX\CODE\C\MSXgl\projects\exsoccer/exsoccer_s1_b2.c:1413: void ResetBallInfo(bool resetPossessionPlayer){
                                   7377 ;	---------------------------------
                                   7378 ; Function ResetBallInfo
                                   7379 ; ---------------------------------
    00002A11                       7380 _ResetBallInfo::
    00002A11 4F               [ 4] 7381 	ld	c, a
                                   7382 ;E:\Dropbox\FAUSTO\SVILUPPI\MSX\CODE\C\MSXgl\projects\exsoccer/exsoccer_s1_b2.c:1414: g_Ball.PreviousY=g_Ball.Y;
    00002A12 ED 5Br00r00      [20] 7383 	ld	de, (#_g_Ball + 0)
    00002A16 ED 53r07r00      [20] 7384 	ld	((_g_Ball + 7)), de
                                   7385 ;E:\Dropbox\FAUSTO\SVILUPPI\MSX\CODE\C\MSXgl\projects\exsoccer/exsoccer_s1_b2.c:1415: g_Ball.KickMoveState=NO_VALUE;
    00002A1A 21r0Dr00         [10] 7386 	ld	hl, #(_g_Ball + 13)
    00002A1D 36 FF            [10] 7387 	ld	(hl), #0xff
                                   7388 ;E:\Dropbox\FAUSTO\SVILUPPI\MSX\CODE\C\MSXgl\projects\exsoccer/exsoccer_s1_b2.c:1416: g_Ball.Size=1;
    00002A1F 21r04r00         [10] 7389 	ld	hl, #(_g_Ball + 4)
    00002A22 36 01            [10] 7390 	ld	(hl), #0x01
                                   7391 ;E:\Dropbox\FAUSTO\SVILUPPI\MSX\CODE\C\MSXgl\projects\exsoccer/exsoccer_s1_b2.c:1417: g_Ball.Direction=DIRECTION_NONE;
    00002A24 21r05r00         [10] 7392 	ld	hl, #(_g_Ball + 5)
    00002A27 36 00            [10] 7393 	ld	(hl), #0x00
                                   7394 ;E:\Dropbox\FAUSTO\SVILUPPI\MSX\CODE\C\MSXgl\projects\exsoccer/exsoccer_s1_b2.c:1418: if(resetPossessionPlayer){
    00002A29 79               [ 4] 7395 	ld	a, c
    00002A2A B7               [ 4] 7396 	or	a, a
    00002A2B C8               [11] 7397 	ret	Z
                                   7398 ;E:\Dropbox\FAUSTO\SVILUPPI\MSX\CODE\C\MSXgl\projects\exsoccer/exsoccer_s1_b2.c:1419: g_Ball.PossessionPlayerId=NO_VALUE;
    00002A2C 21r06r00         [10] 7399 	ld	hl, #(_g_Ball + 6)
    00002A2F 36 FF            [10] 7400 	ld	(hl), #0xff
                                   7401 ;E:\Dropbox\FAUSTO\SVILUPPI\MSX\CODE\C\MSXgl\projects\exsoccer/exsoccer_s1_b2.c:1421: }
    00002A31 C9               [10] 7402 	ret
                                   7403 	.area _SEG1
                                   7404 	.area _INITIALIZER
                                   7405 	.area _CABS (ABS)
