                                      1 ;--------------------------------------------------------
                                      2 ; File Created by SDCC : free open source ANSI-C Compiler
                                      3 ; Version 4.2.0 #13081 (MINGW64)
                                      4 ;--------------------------------------------------------
                                      5 	.module exsoccer_s2_b0
                                      6 	.optsdcc -mz80
                                      7 	
                                      8 ;--------------------------------------------------------
                                      9 ; Public variables in this module
                                     10 ;--------------------------------------------------------
                                     11 	.globl _SelectTeam
                                     12 	.globl _Math_Abs32
                                     13 	.globl _PrintTeamName
                                     14 	.globl _ShowField
                                     15 	.globl _PeopleMoving
                                     16 	.globl _GetTeamStats
                                     17 	.globl _PerformPass
                                     18 	.globl _CornerKick
                                     19 	.globl _GoalKick
                                     20 	.globl _BallThrowIn
                                     21 	.globl _BallInGoal
                                     22 	.globl _GetNoMovingPlayerPatternId
                                     23 	.globl _SetPlayerBallPossession
                                     24 	.globl _PutBallOnPlayerFeet
                                     25 	.globl _UpdatePlayerPatternByDirection
                                     26 	.globl _TickFieldScrollingAction
                                     27 	.globl _LoadSprites
                                     28 	.globl _LoadP1LayerB
                                     29 	.globl _LoadP1LayerA
                                     30 	.globl _InitPalette
                                     31 	.globl _UpdateV9990
                                     32 	.globl _V9_SetPaletteEntry
                                     33 	.globl _V9_SetColorMode
                                     34 	.globl _V9_SetScreenMode
                                     35 	.globl _V9_Poke16_CurrentAddr
                                     36 	.globl _V9_WriteVRAM_CurrentAddr
                                     37 	.globl _V9_FillVRAM16_CurrentAddr
                                     38 	.globl _V9_FillVRAM_CurrentAddr
                                     39 	.globl _V9_SetWriteAddress
                                     40 	.globl _V9_GetRegister
                                     41 	.globl _V9_SetRegister16
                                     42 	.globl _V9_SetRegister
                                     43 	.globl _Keyboard_IsKeyPressed
                                     44 	.globl _Joystick_Read
                                     45 	.globl _g_ponPonGirlsInitailized
                                     46 	.globl _g_peopleState
                                     47 	.globl _g_PonPonGrilsPoseCounter
                                     48 	.globl _g_ponPonPatternIndex
                                     49 	.globl _g_SLTSL
                                     50 	.globl _g_GRPACY
                                     51 	.globl _g_GRPACX
                                     52 	.globl _g_LOGOPR
                                     53 	.globl _g_CMASK
                                     54 	.globl _g_CLOC
                                     55 	.globl _g_FNKSTR
                                     56 	.globl _g_ATRBYT
                                     57 	.globl _g_BDRCLR
                                     58 	.globl _g_BAKCLR
                                     59 	.globl _g_FORCLR
                                     60 	.globl _g_CSRX
                                     61 	.globl _g_CSRY
                                     62 	.globl _g_CLIKSW
                                     63 	.globl _g_MLTPAT
                                     64 	.globl _g_MLTATR
                                     65 	.globl _g_MLTCGP
                                     66 	.globl _g_MLTCOL
                                     67 	.globl _g_MLTNAM
                                     68 	.globl _g_GRPPAT
                                     69 	.globl _g_GRPATR
                                     70 	.globl _g_GRPCGP
                                     71 	.globl _g_GRPCOL
                                     72 	.globl _g_GRPNAM
                                     73 	.globl _g_T32PAT
                                     74 	.globl _g_T32ATR
                                     75 	.globl _g_T32CGP
                                     76 	.globl _g_T32COL
                                     77 	.globl _g_T32NAM
                                     78 	.globl _g_TXTPAT
                                     79 	.globl _g_TXTATR
                                     80 	.globl _g_TXTCGP
                                     81 	.globl _g_TXTCOL
                                     82 	.globl _g_TXTNAM
                                     83 	.globl _g_CLMLST
                                     84 	.globl _g_CRTCNT
                                     85 	.globl _g_LINLEN
                                     86 	.globl _g_LINL32
                                     87 	.globl _g_LINL40
                                     88 	.globl _g_BDOS
                                     89 	.globl _g_MASTER
                                     90 	.globl _g_RAMAD3
                                     91 	.globl _g_RAMAD2
                                     92 	.globl _g_RAMAD1
                                     93 	.globl _g_RAMAD0
                                     94 	.globl _g_BREAKV
                                     95 	.globl _g_DISKVE
                                     96 	.globl _g_KANJTABLE
                                     97 	.globl _g_STRSRC
                                     98 	.globl _g_SUBRID
                                     99 	.globl _g_CHAR_16
                                    100 	.globl _g_MSXMID
                                    101 	.globl _g_MSXVER
                                    102 	.globl _g_ROMVersion
                                    103 	.globl _g_BASRVN
                                    104 	.globl _g_VDP_DW
                                    105 	.globl _g_VDP_DR
                                    106 	.globl _g_CGTABL
                                    107 	.globl _g_SVFFFD
                                    108 	.globl _g_RG27SAV
                                    109 	.globl _g_RG26SAV
                                    110 	.globl _g_RG25SAV
                                    111 	.globl _g_SVFFF8
                                    112 	.globl _g_MINROM
                                    113 	.globl _g_RG23SAV
                                    114 	.globl _g_RG22SAV
                                    115 	.globl _g_RG21SAV
                                    116 	.globl _g_RG20SAV
                                    117 	.globl _g_RG19SAV
                                    118 	.globl _g_RG18SAV
                                    119 	.globl _g_RG17SAV
                                    120 	.globl _g_RG16SAV
                                    121 	.globl _g_RG15SAV
                                    122 	.globl _g_RG14SAV
                                    123 	.globl _g_RG13SAV
                                    124 	.globl _g_RG12SAV
                                    125 	.globl _g_RG11SAV
                                    126 	.globl _g_RG10SAV
                                    127 	.globl _g_RG09SAV
                                    128 	.globl _g_RG08SAV
                                    129 	.globl _g_PROCNM
                                    130 	.globl _g_SLTWRK
                                    131 	.globl _g_SLTATR
                                    132 	.globl _g_SLTTBL
                                    133 	.globl _g_EXPTBL
                                    134 	.globl _g_MNROM
                                    135 	.globl _g_DRWANG
                                    136 	.globl _g_DRWSCL
                                    137 	.globl _g_DRWFLG
                                    138 	.globl _g_GYPOS
                                    139 	.globl _g_GXPOS
                                    140 	.globl _g_BRDATR
                                    141 	.globl _g_CASPRV
                                    142 	.globl _g_OLDSCR
                                    143 	.globl _g_SCRMOD
                                    144 	.globl _g_FLBMEM
                                    145 	.globl _g_KANAMD
                                    146 	.globl _g_KANAST
                                    147 	.globl _g_CAPST
                                    148 	.globl _g_CSTYLE
                                    149 	.globl _g_CSRSW
                                    150 	.globl _g_INSFLG
                                    151 	.globl _g_ESCCNT
                                    152 	.globl _g_GRPHED
                                    153 	.globl _g_WINWID
                                    154 	.globl _g_LOWLIM
                                    155 	.globl _g_INTCNT
                                    156 	.globl _g_INTVAL
                                    157 	.globl _g_JIFFY
                                    158 	.globl _g_PADX
                                    159 	.globl _g_PADY
                                    160 	.globl _g_INTFLG
                                    161 	.globl _g_RTYCNT
                                    162 	.globl _g_TRPTBL
                                    163 	.globl _g_HIMEM
                                    164 	.globl _g_BOTTOM
                                    165 	.globl _g_PATWRK
                                    166 	.globl _g_LINWRK
                                    167 	.globl _g_KEYBUF
                                    168 	.globl _g_NEWKEY
                                    169 	.globl _g_OLDKEY
                                    170 	.globl _g_CLIKFL
                                    171 	.globl _g_ONGSBF
                                    172 	.globl _g_FNKFLG
                                    173 	.globl _g_FNKSWI
                                    174 	.globl _g_CODSAV
                                    175 	.globl _g_FSTPOS
                                    176 	.globl _g_LINTTB
                                    177 	.globl _g_BASROM
                                    178 	.globl _g_ENSTOP
                                    179 	.globl _g_VCBC
                                    180 	.globl _g_VCBB
                                    181 	.globl _g_VCBA
                                    182 	.globl _g_PLYCNT
                                    183 	.globl _g_MUSICF
                                    184 	.globl _g_QUEUEN
                                    185 	.globl _g_MCLPTR
                                    186 	.globl _g_MCLLEN
                                    187 	.globl _g_SAVVOL
                                    188 	.globl _g_VOICEN
                                    189 	.globl _g_SAVSP
                                    190 	.globl _g_PRSCNT
                                    191 	.globl _g_LSTMOD
                                    192 	.globl _g_LSTCOM
                                    193 	.globl _g_COMMSK
                                    194 	.globl _g_ESTBLS
                                    195 	.globl _g_FLAGS
                                    196 	.globl _g_ERRORS
                                    197 	.globl _g_DATCNT
                                    198 	.globl _g_DEVNUM
                                    199 	.globl _g_OLDINT
                                    200 	.globl _g_OLDSTT
                                    201 	.globl _g_MEXBIh
                                    202 	.globl _g_RSIQLN
                                    203 	.globl _g_RSFCB
                                    204 	.globl _g_TOCNT
                                    205 	.globl _g_RSTMP
                                    206 	.globl _g_YSAVE
                                    207 	.globl _g_XSAVE
                                    208 	.globl _g_NORUSE
                                    209 	.globl _g_MODE
                                    210 	.globl _g_ROMA
                                    211 	.globl _g_CHRCNT
                                    212 	.globl _g_EXBRSA
                                    213 	.globl _g_AVCSAV
                                    214 	.globl _g_ACPAGE
                                    215 	.globl _g_DPPAGE
                                    216 	.globl _g_RS2IQ
                                    217 	.globl _g_VOICCQ
                                    218 	.globl _g_VOICBQ
                                    219 	.globl _g_VOICAQ
                                    220 	.globl _g_QUEBAK
                                    221 	.globl _g_QUETAB
                                    222 	.globl _g_ASPCT2
                                    223 	.globl _g_ASPCT1
                                    224 	.globl _g_HEADER
                                    225 	.globl _g_HIGH
                                    226 	.globl _g_LOW
                                    227 	.globl _g_CS240
                                    228 	.globl _g_CS120
                                    229 	.globl _g_GETPNT
                                    230 	.globl _g_PUTPNT
                                    231 	.globl _g_REPCNT
                                    232 	.globl _g_SCNCNT
                                    233 	.globl _g_FRCNEW
                                    234 	.globl _g_QUEUES
                                    235 	.globl _g_MINUPD
                                    236 	.globl _g_MAXUPD
                                    237 	.globl _g_TRGFLG
                                    238 	.globl _g_STATFL
                                    239 	.globl _g_RG7SAV
                                    240 	.globl _g_RG6SAV
                                    241 	.globl _g_RG5SAV
                                    242 	.globl _g_RG4SAV
                                    243 	.globl _g_RG3SAV
                                    244 	.globl _g_RG2SAV
                                    245 	.globl _g_RG1SAV
                                    246 	.globl _g_RG0SAV
                                    247 	.globl _g_CNSDFG
                                    248 	.globl _g_USRTAB
                                    249 	.globl _g_CLPRIM
                                    250 	.globl _g_WRPRIM
                                    251 	.globl _g_RDPRIM
                                    252 	.globl _V9_PrintLayerAStringAtPos
                                    253 	.globl _TickP1
                                    254 	.globl _GetPlayerIdByRole
                                    255 	.globl _UpdateSpritesPositions
                                    256 	.globl _PutBallSprite
                                    257 	.globl _ShowHeaderInfo
                                    258 	.globl _V9_PutLayerATileAtPos
                                    259 	.globl _V9_PutLayerBTileAtPos
                                    260 	.globl _InitPonPonGirls
                                    261 	.globl _TickPonPonGirlsAnimation
                                    262 	.globl _PutPonPonGirlSprite
                                    263 	.globl _PutPlayerSprite
                                    264 	.globl _ResetPlayersInfo
                                    265 	.globl _ClearTextFromLayerA
                                    266 	.globl _TickPlayerToOwnTarget
                                    267 	.globl _GetNumberString
                                    268 	.globl _IsTeamJoystickTriggerPressed
                                    269 	.globl _GetJoystick1Direction
                                    270 	.globl _GetJoystick2Direction
                                    271 	.globl _ShowFieldZone
                                    272 	.globl _TickCheckBallBoundaries
                                    273 	.globl _TeamVictory
                                    274 	.globl _TimeUp
                                    275 	.globl _GetClosestPlayerToBall
                                    276 	.globl _GetBestPassTarget
                                    277 	.globl _UpdatePassTarget
                                    278 	.globl _GoalkeeperWithBall
                                    279 	.globl _ShowMenu
                                    280 	.globl _LoadPresentation
                                    281 	.globl _TickGoalkeeperAnimation
                                    282 	.globl _PerformShot
                                    283 	.globl _TickBallFlying
                                    284 	.globl _TickThrowIn
                                    285 	.globl _TickShotCursor
                                    286 	.globl _PenaltyShots
                                    287 ;--------------------------------------------------------
                                    288 ; special function registers
                                    289 ;--------------------------------------------------------
                         000000A8   290 _g_PortPrimarySlot	=	0x00a8
                         000000A9   291 _g_PortReadKeyboard	=	0x00a9
                         000000AA   292 _g_PortAccessKeyboard	=	0x00aa
                         000000AB   293 _g_PortControl	=	0x00ab
                         00000098   294 _g_VDP_DataPort	=	0x0098
                         00000099   295 _g_VDP_RegPort	=	0x0099
                         00000099   296 _g_VDP_AddrPort	=	0x0099
                         00000099   297 _g_VDP_StatPort	=	0x0099
                         000000A0   298 _g_PSG_RegPort	=	0x00a0
                         000000A1   299 _g_PSG_DataPort	=	0x00a1
                         000000A2   300 _g_PSG_StatPort	=	0x00a2
                         00000010   301 _g_PSG_Ext_RegPort	=	0x0010
                         00000011   302 _g_PSG_Ext_DataPort	=	0x0011
                         00000012   303 _g_PSG_Ext_StatPort	=	0x0012
                         0000007C   304 _g_MSXMusic_IndexPort	=	0x007c
                         0000007D   305 _g_MSXMusic_DataPort	=	0x007d
                         000000C0   306 _g_MSXAudio_IndexPort	=	0x00c0
                         000000C1   307 _g_MSXAudio_DataPort	=	0x00c1
                         000000C2   308 _g_MSXAudio_IndexPort2	=	0x00c2
                         000000C3   309 _g_MSXAudio_DataPort2	=	0x00c3
                         000000B4   310 _g_RTC_AddrPort	=	0x00b4
                         000000B5   311 _g_RTC_DataPort	=	0x00b5
                         00000060   312 _g_V9_VRAMPort	=	0x0060
                         00000061   313 _g_V9_PalettePort	=	0x0061
                         00000062   314 _g_V9_CmdDataPort	=	0x0062
                         00000063   315 _g_V9_RegDataPort	=	0x0063
                         00000064   316 _g_V9_RegSelectPort	=	0x0064
                         00000065   317 _g_V9_SatusPort	=	0x0065
                         00000066   318 _g_V9_IntFlagPort	=	0x0066
                         00000067   319 _g_V9_SysCtrlPort	=	0x0067
                         00000068   320 _g_V9_KanjiAddrLPort	=	0x0068
                         00000069   321 _g_V9_KanjiAddrHPort	=	0x0069
                         00000069   322 _g_V9_KanjiDataPort	=	0x0069
                         0000006A   323 _g_V9_Kanji2AddrLPort	=	0x006a
                         0000006B   324 _g_V9_Kanji2AddrHPort	=	0x006b
                         0000006B   325 _g_V9_Kanji2DataPort	=	0x006b
                         0000006F   326 _g_V9_OutputCtrPort	=	0x006f
                                    327 ;--------------------------------------------------------
                                    328 ; ram data
                                    329 ;--------------------------------------------------------
                                    330 	.area _DATA
                         0000F3AE   331 _g_LINL40	=	0xf3ae
                         0000F3AF   332 _g_LINL32	=	0xf3af
                         0000F3B0   333 _g_LINLEN	=	0xf3b0
                         0000F3B1   334 _g_CRTCNT	=	0xf3b1
                         0000F3B2   335 _g_CLMLST	=	0xf3b2
                         0000F3B3   336 _g_TXTNAM	=	0xf3b3
                         0000F3B5   337 _g_TXTCOL	=	0xf3b5
                         0000F3B7   338 _g_TXTCGP	=	0xf3b7
                         0000F3B9   339 _g_TXTATR	=	0xf3b9
                         0000F3BB   340 _g_TXTPAT	=	0xf3bb
                         0000F3BD   341 _g_T32NAM	=	0xf3bd
                         0000F3BF   342 _g_T32COL	=	0xf3bf
                         0000F3C1   343 _g_T32CGP	=	0xf3c1
                         0000F3C3   344 _g_T32ATR	=	0xf3c3
                         0000F3C5   345 _g_T32PAT	=	0xf3c5
                         0000F3C7   346 _g_GRPNAM	=	0xf3c7
                         0000F3C9   347 _g_GRPCOL	=	0xf3c9
                         0000F3CB   348 _g_GRPCGP	=	0xf3cb
                         0000F3CD   349 _g_GRPATR	=	0xf3cd
                         0000F3CF   350 _g_GRPPAT	=	0xf3cf
                         0000F3D1   351 _g_MLTNAM	=	0xf3d1
                         0000F3D3   352 _g_MLTCOL	=	0xf3d3
                         0000F3D5   353 _g_MLTCGP	=	0xf3d5
                         0000F3D7   354 _g_MLTATR	=	0xf3d7
                         0000F3D9   355 _g_MLTPAT	=	0xf3d9
                         0000F3DB   356 _g_CLIKSW	=	0xf3db
                         0000F3DC   357 _g_CSRY	=	0xf3dc
                         0000F3DD   358 _g_CSRX	=	0xf3dd
                         0000F3E9   359 _g_FORCLR	=	0xf3e9
                         0000F3EA   360 _g_BAKCLR	=	0xf3ea
                         0000F3EB   361 _g_BDRCLR	=	0xf3eb
                         0000F3F2   362 _g_ATRBYT	=	0xf3f2
                         0000F87F   363 _g_FNKSTR	=	0xf87f
                         0000F92A   364 _g_CLOC	=	0xf92a
                         0000F92C   365 _g_CMASK	=	0xf92c
                         0000FB02   366 _g_LOGOPR	=	0xfb02
                         0000FCB7   367 _g_GRPACX	=	0xfcb7
                         0000FCB9   368 _g_GRPACY	=	0xfcb9
                         0000FFFF   369 _g_SLTSL	=	0xffff
    00000000                        370 _PutBallSprite_s_StopCooldown_65538_1167:
    00000000                        371 	.ds 1
    00000001                        372 _TickPlayerToOwnTarget_s_GkMoveTick_131072_1259:
    00000001                        373 	.ds 1
    00000002                        374 _GetNumberString_str_65536_1308:
    00000002                        375 	.ds 5
    00000007                        376 _UpdatePassTarget_passUpdateTimer_65537_1397:
    00000007                        377 	.ds 1
    00000008                        378 _TickThrowIn_s_ThrowTargetId_65537_1786:
    00000008                        379 	.ds 1
    00000009                        380 _TickThrowIn_s_JoyMoved_65537_1786:
    00000009                        381 	.ds 1
    0000000A                        382 _TickThrowIn_s_ForceThrowTimer_65537_1786:
    0000000A                        383 	.ds 2
                                    384 ;--------------------------------------------------------
                                    385 ; ram data
                                    386 ;--------------------------------------------------------
                                    387 	.area _INITIALIZED
    00000000                        388 _g_ponPonPatternIndex::
    00000000                        389 	.ds 1
    00000001                        390 _g_PonPonGrilsPoseCounter::
    00000001                        391 	.ds 1
    00000002                        392 _g_peopleState::
    00000002                        393 	.ds 1
    00000003                        394 _g_ponPonGirlsInitailized::
    00000003                        395 	.ds 1
    00000004                        396 _s_GkAnimTimer:
    00000004                        397 	.ds 1
    00000005                        398 _s_GkAnimPlayerId:
    00000005                        399 	.ds 1
                                    400 ;--------------------------------------------------------
                                    401 ; absolute external ram data
                                    402 ;--------------------------------------------------------
                                    403 	.area _DABS (ABS)
                                    404 ;--------------------------------------------------------
                                    405 ; global & static initialisations
                                    406 ;--------------------------------------------------------
                                    407 	.area _HOME
                                    408 	.area _GSINIT
                                    409 	.area _GSFINAL
                                    410 	.area _GSINIT
                                    411 ;E:\Dropbox\FAUSTO\SVILUPPI\MSX\CODE\C\MSXgl\projects\exsoccer/exsoccer_s2_b0.c:123: static u8 s_StopCooldown = 0;
    00000000 FD 21r00r00      [14]  412 	ld	iy, #_PutBallSprite_s_StopCooldown_65538_1167
    00000004 FD 36 00 00      [19]  413 	ld	0 (iy), #0x00
                                    414 ;E:\Dropbox\FAUSTO\SVILUPPI\MSX\CODE\C\MSXgl\projects\exsoccer/exsoccer_s2_b0.c:374: static u8 s_GkMoveTick = 0;
    00000008 FD 21r01r00      [14]  415 	ld	iy, #_TickPlayerToOwnTarget_s_GkMoveTick_131072_1259
    0000000C FD 36 00 00      [19]  416 	ld	0 (iy), #0x00
                                    417 ;E:\Dropbox\FAUSTO\SVILUPPI\MSX\CODE\C\MSXgl\projects\exsoccer/exsoccer_s2_b0.c:976: static u8 passUpdateTimer = 0;
    00000010 FD 21r07r00      [14]  418 	ld	iy, #_UpdatePassTarget_passUpdateTimer_65537_1397
    00000014 FD 36 00 00      [19]  419 	ld	0 (iy), #0x00
                                    420 ;E:\Dropbox\FAUSTO\SVILUPPI\MSX\CODE\C\MSXgl\projects\exsoccer/exsoccer_s2_b0.c:1619: static u8 s_ThrowTargetId = NO_VALUE;
    00000018 21r08r00         [10]  421 	ld	hl, #_TickThrowIn_s_ThrowTargetId_65537_1786
    0000001B 36 FF            [10]  422 	ld	(hl), #0xff
                                    423 ;E:\Dropbox\FAUSTO\SVILUPPI\MSX\CODE\C\MSXgl\projects\exsoccer/exsoccer_s2_b0.c:1620: static bool s_JoyMoved = false;
    0000001D FD 21r09r00      [14]  424 	ld	iy, #_TickThrowIn_s_JoyMoved_65537_1786
    00000021 FD 36 00 00      [19]  425 	ld	0 (iy), #0x00
                                    426 ;E:\Dropbox\FAUSTO\SVILUPPI\MSX\CODE\C\MSXgl\projects\exsoccer/exsoccer_s2_b0.c:1621: static u16 s_ForceThrowTimer = 0;
    00000025 21 00 00         [10]  427 	ld	hl, #0x0000
    00000028 22r0Ar00         [16]  428 	ld	(_TickThrowIn_s_ForceThrowTimer_65537_1786), hl
                                    429 ;--------------------------------------------------------
                                    430 ; Home
                                    431 ;--------------------------------------------------------
                                    432 	.area _HOME
                                    433 	.area _HOME
                                    434 ;--------------------------------------------------------
                                    435 ; code
                                    436 ;--------------------------------------------------------
                                    437 	.area _SEG2
                                    438 ;E:\Dropbox\FAUSTO\SVILUPPI\MSX\CODE\C\MSXgl\projects\exsoccer/exsoccer_s2_b0.c:67: void V9_PrintLayerAStringAtPos(u8 x, u8 y, const c8* str)
                                    439 ;	---------------------------------
                                    440 ; Function V9_PrintLayerAStringAtPos
                                    441 ; ---------------------------------
    00000000                        442 _V9_PrintLayerAStringAtPos::
    00000000 DD E5            [15]  443 	push	ix
    00000002 DD 21 00 00      [14]  444 	ld	ix,#0
    00000006 DD 39            [15]  445 	add	ix,sp
    00000008 4F               [ 4]  446 	ld	c, a
    00000009 45               [ 4]  447 	ld	b, l
                                    448 ;E:\Dropbox\FAUSTO\SVILUPPI\MSX\CODE\C\MSXgl\projects\exsoccer/exsoccer_s2_b0.c:70: while (*str != 0){
    0000000A DD 5E 04         [19]  449 	ld	e, 4 (ix)
    0000000D DD 56 05         [19]  450 	ld	d, 5 (ix)
    00000010                        451 00101$:
    00000010 1A               [ 7]  452 	ld	a, (de)
    00000011 B7               [ 4]  453 	or	a, a
    00000012 28 12            [12]  454 	jr	Z, 00104$
                                    455 ;E:\Dropbox\FAUSTO\SVILUPPI\MSX\CODE\C\MSXgl\projects\exsoccer/exsoccer_s2_b0.c:71: V9_PutLayerATileAtPos(x,y,*(str++));
    00000014 13               [ 6]  456 	inc	de
    00000015 26 00            [ 7]  457 	ld	h, #0x00
                                    458 ;	spillPairReg hl
                                    459 ;	spillPairReg hl
    00000017 C5               [11]  460 	push	bc
    00000018 D5               [11]  461 	push	de
    00000019 6F               [ 4]  462 	ld	l, a
                                    463 ;	spillPairReg hl
                                    464 ;	spillPairReg hl
    0000001A E5               [11]  465 	push	hl
    0000001B 68               [ 4]  466 	ld	l, b
                                    467 ;	spillPairReg hl
                                    468 ;	spillPairReg hl
    0000001C 79               [ 4]  469 	ld	a, c
    0000001D CDr88r03         [17]  470 	call	_V9_PutLayerATileAtPos
    00000020 D1               [10]  471 	pop	de
    00000021 C1               [10]  472 	pop	bc
                                    473 ;E:\Dropbox\FAUSTO\SVILUPPI\MSX\CODE\C\MSXgl\projects\exsoccer/exsoccer_s2_b0.c:72: x++;
    00000022 0C               [ 4]  474 	inc	c
                                    475 ;E:\Dropbox\FAUSTO\SVILUPPI\MSX\CODE\C\MSXgl\projects\exsoccer/exsoccer_s2_b0.c:73: pos++;
    00000023 C3r10r00         [10]  476 	jp	00101$
    00000026                        477 00104$:
                                    478 ;E:\Dropbox\FAUSTO\SVILUPPI\MSX\CODE\C\MSXgl\projects\exsoccer/exsoccer_s2_b0.c:76: }
    00000026 DD E1            [14]  479 	pop	ix
    00000028 E1               [10]  480 	pop	hl
    00000029 F1               [10]  481 	pop	af
    0000002A E9               [ 4]  482 	jp	(hl)
                         0000F380   483 _g_RDPRIM	=	0xf380
                         0000F385   484 _g_WRPRIM	=	0xf385
                         0000F38C   485 _g_CLPRIM	=	0xf38c
                         0000F39A   486 _g_USRTAB	=	0xf39a
                         0000F3DE   487 _g_CNSDFG	=	0xf3de
                         0000F3DF   488 _g_RG0SAV	=	0xf3df
                         0000F3E0   489 _g_RG1SAV	=	0xf3e0
                         0000F3E1   490 _g_RG2SAV	=	0xf3e1
                         0000F3E2   491 _g_RG3SAV	=	0xf3e2
                         0000F3E3   492 _g_RG4SAV	=	0xf3e3
                         0000F3E4   493 _g_RG5SAV	=	0xf3e4
                         0000F3E5   494 _g_RG6SAV	=	0xf3e5
                         0000F3E6   495 _g_RG7SAV	=	0xf3e6
                         0000F3E7   496 _g_STATFL	=	0xf3e7
                         0000F3E8   497 _g_TRGFLG	=	0xf3e8
                         0000F3EC   498 _g_MAXUPD	=	0xf3ec
                         0000F3EF   499 _g_MINUPD	=	0xf3ef
                         0000F3F3   500 _g_QUEUES	=	0xf3f3
                         0000F3F5   501 _g_FRCNEW	=	0xf3f5
                         0000F3F6   502 _g_SCNCNT	=	0xf3f6
                         0000F3F7   503 _g_REPCNT	=	0xf3f7
                         0000F3F8   504 _g_PUTPNT	=	0xf3f8
                         0000F3FA   505 _g_GETPNT	=	0xf3fa
                         0000F3FC   506 _g_CS120	=	0xf3fc
                         0000F401   507 _g_CS240	=	0xf401
                         0000F406   508 _g_LOW	=	0xf406
                         0000F408   509 _g_HIGH	=	0xf408
                         0000F40A   510 _g_HEADER	=	0xf40a
                         0000F40B   511 _g_ASPCT1	=	0xf40b
                         0000F40D   512 _g_ASPCT2	=	0xf40d
                         0000F959   513 _g_QUETAB	=	0xf959
                         0000F971   514 _g_QUEBAK	=	0xf971
                         0000F975   515 _g_VOICAQ	=	0xf975
                         0000F9F5   516 _g_VOICBQ	=	0xf9f5
                         0000FA75   517 _g_VOICCQ	=	0xfa75
                         0000FAF5   518 _g_RS2IQ	=	0xfaf5
                         0000FAF5   519 _g_DPPAGE	=	0xfaf5
                         0000FAF6   520 _g_ACPAGE	=	0xfaf6
                         0000FAF7   521 _g_AVCSAV	=	0xfaf7
                         0000FAF8   522 _g_EXBRSA	=	0xfaf8
                         0000FAF9   523 _g_CHRCNT	=	0xfaf9
                         0000FAFA   524 _g_ROMA	=	0xfafa
                         0000FAFC   525 _g_MODE	=	0xfafc
                         0000FAFD   526 _g_NORUSE	=	0xfafd
                         0000FAFE   527 _g_XSAVE	=	0xfafe
                         0000FB00   528 _g_YSAVE	=	0xfb00
                         0000FB03   529 _g_RSTMP	=	0xfb03
                         0000FB03   530 _g_TOCNT	=	0xfb03
                         0000FB04   531 _g_RSFCB	=	0xfb04
                         0000FB06   532 _g_RSIQLN	=	0xfb06
                         0000FB07   533 _g_MEXBIh	=	0xfb07
                         0000FB0C   534 _g_OLDSTT	=	0xfb0c
                         0000FB0C   535 _g_OLDINT	=	0xfb0c
                         0000FB16   536 _g_DEVNUM	=	0xfb16
                         0000FB17   537 _g_DATCNT	=	0xfb17
                         0000FB1A   538 _g_ERRORS	=	0xfb1a
                         0000FB1B   539 _g_FLAGS	=	0xfb1b
                         0000FB1C   540 _g_ESTBLS	=	0xfb1c
                         0000FB1D   541 _g_COMMSK	=	0xfb1d
                         0000FB1E   542 _g_LSTCOM	=	0xfb1e
                         0000FB1F   543 _g_LSTMOD	=	0xfb1f
                         0000FB35   544 _g_PRSCNT	=	0xfb35
                         0000FB36   545 _g_SAVSP	=	0xfb36
                         0000FB38   546 _g_VOICEN	=	0xfb38
                         0000FB39   547 _g_SAVVOL	=	0xfb39
                         0000FB3B   548 _g_MCLLEN	=	0xfb3b
                         0000FB3C   549 _g_MCLPTR	=	0xfb3c
                         0000FB3E   550 _g_QUEUEN	=	0xfb3e
                         0000FB3F   551 _g_MUSICF	=	0xfb3f
                         0000FB40   552 _g_PLYCNT	=	0xfb40
                         0000FB41   553 _g_VCBA	=	0xfb41
                         0000FB66   554 _g_VCBB	=	0xfb66
                         0000FB8B   555 _g_VCBC	=	0xfb8b
                         0000FBB0   556 _g_ENSTOP	=	0xfbb0
                         0000FBB1   557 _g_BASROM	=	0xfbb1
                         0000FBB2   558 _g_LINTTB	=	0xfbb2
                         0000FBCA   559 _g_FSTPOS	=	0xfbca
                         0000FBCC   560 _g_CODSAV	=	0xfbcc
                         0000FBCD   561 _g_FNKSWI	=	0xfbcd
                         0000FBCE   562 _g_FNKFLG	=	0xfbce
                         0000FBD8   563 _g_ONGSBF	=	0xfbd8
                         0000FBD9   564 _g_CLIKFL	=	0xfbd9
                         0000FBDA   565 _g_OLDKEY	=	0xfbda
                         0000FBE5   566 _g_NEWKEY	=	0xfbe5
                         0000FBF0   567 _g_KEYBUF	=	0xfbf0
                         0000FC18   568 _g_LINWRK	=	0xfc18
                         0000FC40   569 _g_PATWRK	=	0xfc40
                         0000FC48   570 _g_BOTTOM	=	0xfc48
                         0000FC4A   571 _g_HIMEM	=	0xfc4a
                         0000FC4C   572 _g_TRPTBL	=	0xfc4c
                         0000FC9A   573 _g_RTYCNT	=	0xfc9a
                         0000FC9B   574 _g_INTFLG	=	0xfc9b
                         0000FC9C   575 _g_PADY	=	0xfc9c
                         0000FC9D   576 _g_PADX	=	0xfc9d
                         0000FC9E   577 _g_JIFFY	=	0xfc9e
                         0000FCA0   578 _g_INTVAL	=	0xfca0
                         0000FCA2   579 _g_INTCNT	=	0xfca2
                         0000FCA4   580 _g_LOWLIM	=	0xfca4
                         0000FCA5   581 _g_WINWID	=	0xfca5
                         0000FCA6   582 _g_GRPHED	=	0xfca6
                         0000FCA7   583 _g_ESCCNT	=	0xfca7
                         0000FCA8   584 _g_INSFLG	=	0xfca8
                         0000FCA9   585 _g_CSRSW	=	0xfca9
                         0000FCAA   586 _g_CSTYLE	=	0xfcaa
                         0000FCAB   587 _g_CAPST	=	0xfcab
                         0000FCAC   588 _g_KANAST	=	0xfcac
                         0000FCAD   589 _g_KANAMD	=	0xfcad
                         0000FCAE   590 _g_FLBMEM	=	0xfcae
                         0000FCAF   591 _g_SCRMOD	=	0xfcaf
                         0000FCB0   592 _g_OLDSCR	=	0xfcb0
                         0000FCB1   593 _g_CASPRV	=	0xfcb1
                         0000FCB2   594 _g_BRDATR	=	0xfcb2
                         0000FCB3   595 _g_GXPOS	=	0xfcb3
                         0000FCB5   596 _g_GYPOS	=	0xfcb5
                         0000FCBB   597 _g_DRWFLG	=	0xfcbb
                         0000FCBC   598 _g_DRWSCL	=	0xfcbc
                         0000FCBD   599 _g_DRWANG	=	0xfcbd
                         0000FCC1   600 _g_MNROM	=	0xfcc1
                         0000FCC1   601 _g_EXPTBL	=	0xfcc1
                         0000FCC5   602 _g_SLTTBL	=	0xfcc5
                         0000FCC9   603 _g_SLTATR	=	0xfcc9
                         0000FD09   604 _g_SLTWRK	=	0xfd09
                         0000FD89   605 _g_PROCNM	=	0xfd89
                         0000FFE7   606 _g_RG08SAV	=	0xffe7
                         0000FFE8   607 _g_RG09SAV	=	0xffe8
                         0000FFE9   608 _g_RG10SAV	=	0xffe9
                         0000FFEA   609 _g_RG11SAV	=	0xffea
                         0000FFEB   610 _g_RG12SAV	=	0xffeb
                         0000FFEC   611 _g_RG13SAV	=	0xffec
                         0000FFED   612 _g_RG14SAV	=	0xffed
                         0000FFEE   613 _g_RG15SAV	=	0xffee
                         0000FFEF   614 _g_RG16SAV	=	0xffef
                         0000FFF0   615 _g_RG17SAV	=	0xfff0
                         0000FFF1   616 _g_RG18SAV	=	0xfff1
                         0000FFF2   617 _g_RG19SAV	=	0xfff2
                         0000FFF3   618 _g_RG20SAV	=	0xfff3
                         0000FFF4   619 _g_RG21SAV	=	0xfff4
                         0000FFF5   620 _g_RG22SAV	=	0xfff5
                         0000FFF6   621 _g_RG23SAV	=	0xfff6
                         0000FFF7   622 _g_MINROM	=	0xfff7
                         0000FFF8   623 _g_SVFFF8	=	0xfff8
                         0000FFFA   624 _g_RG25SAV	=	0xfffa
                         0000FFFB   625 _g_RG26SAV	=	0xfffb
                         0000FFFC   626 _g_RG27SAV	=	0xfffc
                         0000FFFD   627 _g_SVFFFD	=	0xfffd
                         00000004   628 _g_CGTABL	=	0x0004
                         00000006   629 _g_VDP_DR	=	0x0006
                         00000007   630 _g_VDP_DW	=	0x0007
                         0000002B   631 _g_BASRVN	=	0x002b
                         0000002B   632 _g_ROMVersion	=	0x002b
                         0000002D   633 _g_MSXVER	=	0x002d
                         0000002E   634 _g_MSXMID	=	0x002e
                         00000034   635 _g_CHAR_16	=	0x0034
                         00000000   636 _g_SUBRID	=	0x0000
                         00000002   637 _g_STRSRC	=	0x0002
                         0000F30F   638 _g_KANJTABLE	=	0xf30f
                         0000F323   639 _g_DISKVE	=	0xf323
                         0000F325   640 _g_BREAKV	=	0xf325
                         0000F341   641 _g_RAMAD0	=	0xf341
                         0000F342   642 _g_RAMAD1	=	0xf342
                         0000F343   643 _g_RAMAD2	=	0xf343
                         0000F344   644 _g_RAMAD3	=	0xf344
                         0000F348   645 _g_MASTER	=	0xf348
                         0000F37D   646 _g_BDOS	=	0xf37d
    0000002B                        647 _g_TeamPos:
    0000002B 21 00                  648 	.dw #0x0021
    0000002D 6D 00                  649 	.dw #0x006d
    0000002F 72 00                  650 	.dw #0x0072
    00000031 6D 00                  651 	.dw #0x006d
    00000033 C5 00                  652 	.dw #0x00c5
    00000035 6D 00                  653 	.dw #0x006d
    00000037 21 00                  654 	.dw #0x0021
    00000039 C0 00                  655 	.dw #0x00c0
    0000003B 72 00                  656 	.dw #0x0072
    0000003D C0 00                  657 	.dw #0x00c0
    0000003F C5 00                  658 	.dw #0x00c5
    00000041 C0 00                  659 	.dw #0x00c0
    00000043                        660 _g_TeamGrayPos:
    00000043 01 00                  661 	.dw #0x0001
    00000045 05 00                  662 	.dw #0x0005
    00000047 0B 00                  663 	.dw #0x000b
    00000049 05 00                  664 	.dw #0x0005
    0000004B 15 00                  665 	.dw #0x0015
    0000004D 05 00                  666 	.dw #0x0005
    0000004F 01 00                  667 	.dw #0x0001
    00000051 0F 00                  668 	.dw #0x000f
    00000053 0B 00                  669 	.dw #0x000b
    00000055 0F 00                  670 	.dw #0x000f
    00000057 15 00                  671 	.dw #0x0015
    00000059 0F 00                  672 	.dw #0x000f
                                    673 ;E:\Dropbox\FAUSTO\SVILUPPI\MSX\CODE\C\MSXgl\projects\exsoccer/exsoccer_s2_b0.c:82: void TickP1(){
                                    674 ;	---------------------------------
                                    675 ; Function TickP1
                                    676 ; ---------------------------------
    0000005B                        677 _TickP1::
                                    678 ;E:\Dropbox\FAUSTO\SVILUPPI\MSX\CODE\C\MSXgl\projects\exsoccer/exsoccer_s2_b0.c:83: TickFieldScrollingAction();
                                    679 ;E:\Dropbox\FAUSTO\SVILUPPI\MSX\CODE\C\MSXgl\projects\exsoccer/exsoccer_s2_b0.c:84: }
    0000005B C3r00r00         [10]  680 	jp	_TickFieldScrollingAction
                                    681 ;E:\Dropbox\FAUSTO\SVILUPPI\MSX\CODE\C\MSXgl\projects\exsoccer/exsoccer_s2_b0.c:89: u8 GetPlayerIdByRole(u8 teamId, u8 role){
                                    682 ;	---------------------------------
                                    683 ; Function GetPlayerIdByRole
                                    684 ; ---------------------------------
    0000005E                        685 _GetPlayerIdByRole::
    0000005E DD E5            [15]  686 	push	ix
    00000060 DD 21 00 00      [14]  687 	ld	ix,#0
    00000064 DD 39            [15]  688 	add	ix,sp
    00000066 F5               [11]  689 	push	af
    00000067 3B               [ 6]  690 	dec	sp
    00000068 4F               [ 4]  691 	ld	c, a
    00000069 DD 75 FF         [19]  692 	ld	-1 (ix), l
                                    693 ;E:\Dropbox\FAUSTO\SVILUPPI\MSX\CODE\C\MSXgl\projects\exsoccer/exsoccer_s2_b0.c:90: u8 playerId=NO_VALUE;
    0000006C DD 36 FD FF      [19]  694 	ld	-3 (ix), #0xff
                                    695 ;E:\Dropbox\FAUSTO\SVILUPPI\MSX\CODE\C\MSXgl\projects\exsoccer/exsoccer_s2_b0.c:91: for(u8 i=0;i<14;i++){
    00000070 DD 36 FE 00      [19]  696 	ld	-2 (ix), #0x00
    00000074 06 00            [ 7]  697 	ld	b, #0x00
    00000076                        698 00106$:
    00000076 78               [ 4]  699 	ld	a, b
    00000077 D6 0E            [ 7]  700 	sub	a, #0x0e
    00000079 30 36            [12]  701 	jr	NC, 00104$
                                    702 ;E:\Dropbox\FAUSTO\SVILUPPI\MSX\CODE\C\MSXgl\projects\exsoccer/exsoccer_s2_b0.c:92: if(g_Players[i].Role==role && g_Players[i].TeamId==teamId){
    0000007B 58               [ 4]  703 	ld	e, b
    0000007C 16 00            [ 7]  704 	ld	d, #0x00
    0000007E 6B               [ 4]  705 	ld	l, e
    0000007F 62               [ 4]  706 	ld	h, d
    00000080 29               [11]  707 	add	hl, hl
    00000081 29               [11]  708 	add	hl, hl
    00000082 19               [11]  709 	add	hl, de
    00000083 29               [11]  710 	add	hl, hl
    00000084 29               [11]  711 	add	hl, hl
    00000085 19               [11]  712 	add	hl, de
    00000086 11r00r00         [10]  713 	ld	de, #_g_Players
    00000089 19               [11]  714 	add	hl, de
                                    715 ;	spillPairReg hl
                                    716 ;	spillPairReg hl
    0000008A 5D               [ 4]  717 	ld	e, l
    0000008B 54               [ 4]  718 	ld	d, h
                                    719 ;	spillPairReg hl
                                    720 ;	spillPairReg hl
    0000008C C5               [11]  721 	push	bc
    0000008D 01 0D 00         [10]  722 	ld	bc, #0x000d
    00000090 09               [11]  723 	add	hl, bc
    00000091 C1               [10]  724 	pop	bc
                                    725 ;	spillPairReg hl
    00000092 DD 7E FF         [19]  726 	ld	a,-1 (ix)
    00000095 96               [ 7]  727 	sub	a,(hl)
    00000096 20 12            [12]  728 	jr	NZ, 00107$
    00000098 21 09 00         [10]  729 	ld	hl, #9
    0000009B 19               [11]  730 	add	hl, de
    0000009C 5E               [ 7]  731 	ld	e, (hl)
    0000009D 79               [ 4]  732 	ld	a, c
    0000009E 93               [ 4]  733 	sub	a, e
    0000009F 20 09            [12]  734 	jr	NZ, 00107$
                                    735 ;E:\Dropbox\FAUSTO\SVILUPPI\MSX\CODE\C\MSXgl\projects\exsoccer/exsoccer_s2_b0.c:93: playerId=i;
    000000A1 DD 7E FE         [19]  736 	ld	a, -2 (ix)
    000000A4 DD 77 FD         [19]  737 	ld	-3 (ix), a
                                    738 ;E:\Dropbox\FAUSTO\SVILUPPI\MSX\CODE\C\MSXgl\projects\exsoccer/exsoccer_s2_b0.c:94: break;
    000000A7 C3rB1r00         [10]  739 	jp	00104$
    000000AA                        740 00107$:
                                    741 ;E:\Dropbox\FAUSTO\SVILUPPI\MSX\CODE\C\MSXgl\projects\exsoccer/exsoccer_s2_b0.c:91: for(u8 i=0;i<14;i++){
    000000AA 04               [ 4]  742 	inc	b
    000000AB DD 70 FE         [19]  743 	ld	-2 (ix), b
    000000AE C3r76r00         [10]  744 	jp	00106$
    000000B1                        745 00104$:
                                    746 ;E:\Dropbox\FAUSTO\SVILUPPI\MSX\CODE\C\MSXgl\projects\exsoccer/exsoccer_s2_b0.c:97: return playerId;
    000000B1 DD 7E FD         [19]  747 	ld	a, -3 (ix)
                                    748 ;E:\Dropbox\FAUSTO\SVILUPPI\MSX\CODE\C\MSXgl\projects\exsoccer/exsoccer_s2_b0.c:98: }
    000000B4 DD F9            [10]  749 	ld	sp, ix
    000000B6 DD E1            [14]  750 	pop	ix
    000000B8 C9               [10]  751 	ret
                                    752 ;E:\Dropbox\FAUSTO\SVILUPPI\MSX\CODE\C\MSXgl\projects\exsoccer/exsoccer_s2_b0.c:101: void UpdateSpritesPositions(){
                                    753 ;	---------------------------------
                                    754 ; Function UpdateSpritesPositions
                                    755 ; ---------------------------------
    000000B9                        756 _UpdateSpritesPositions::
                                    757 ;E:\Dropbox\FAUSTO\SVILUPPI\MSX\CODE\C\MSXgl\projects\exsoccer/exsoccer_s2_b0.c:102: for (u8 i=0;i<15;i++){
    000000B9 0E 00            [ 7]  758 	ld	c, #0x00
    000000BB                        759 00103$:
    000000BB 79               [ 4]  760 	ld	a, c
    000000BC D6 0F            [ 7]  761 	sub	a, #0x0f
    000000BE D2rCBr00         [10]  762 	jp	NC,_PutBallSprite
                                    763 ;E:\Dropbox\FAUSTO\SVILUPPI\MSX\CODE\C\MSXgl\projects\exsoccer/exsoccer_s2_b0.c:103: PutPlayerSprite(i);
    000000C1 C5               [11]  764 	push	bc
    000000C2 79               [ 4]  765 	ld	a, c
    000000C3 CDrA3r05         [17]  766 	call	_PutPlayerSprite
    000000C6 C1               [10]  767 	pop	bc
                                    768 ;E:\Dropbox\FAUSTO\SVILUPPI\MSX\CODE\C\MSXgl\projects\exsoccer/exsoccer_s2_b0.c:102: for (u8 i=0;i<15;i++){
    000000C7 0C               [ 4]  769 	inc	c
                                    770 ;E:\Dropbox\FAUSTO\SVILUPPI\MSX\CODE\C\MSXgl\projects\exsoccer/exsoccer_s2_b0.c:105: PutBallSprite();
                                    771 ;E:\Dropbox\FAUSTO\SVILUPPI\MSX\CODE\C\MSXgl\projects\exsoccer/exsoccer_s2_b0.c:106: }
    000000C8 C3rBBr00         [10]  772 	jp	00103$
                                    773 ;E:\Dropbox\FAUSTO\SVILUPPI\MSX\CODE\C\MSXgl\projects\exsoccer/exsoccer_s2_b0.c:107: void PutBallSprite(){
                                    774 ;	---------------------------------
                                    775 ; Function PutBallSprite
                                    776 ; ---------------------------------
    000000CB                        777 _PutBallSprite::
    000000CB DD E5            [15]  778 	push	ix
    000000CD DD 21 00 00      [14]  779 	ld	ix,#0
    000000D1 DD 39            [15]  780 	add	ix,sp
    000000D3 21 F8 FF         [10]  781 	ld	hl, #-8
    000000D6 39               [11]  782 	add	hl, sp
    000000D7 F9               [ 6]  783 	ld	sp, hl
                                    784 ;E:\Dropbox\FAUSTO\SVILUPPI\MSX\CODE\C\MSXgl\projects\exsoccer/exsoccer_s2_b0.c:109: attr.D=0;
    000000D8 21 00 00         [10]  785 	ld	hl, #0
    000000DB 39               [11]  786 	add	hl, sp
    000000DC 4D               [ 4]  787 	ld	c, l
    000000DD 44               [ 4]  788 	ld	b, h
    000000DE 21 03 00         [10]  789 	ld	hl, #3
    000000E1 39               [11]  790 	add	hl, sp
    000000E2 CB A6            [15]  791 	res	4, (hl)
                                    792 ;E:\Dropbox\FAUSTO\SVILUPPI\MSX\CODE\C\MSXgl\projects\exsoccer/exsoccer_s2_b0.c:110: attr.SC=0;
    000000E4 21 03 00         [10]  793 	ld	hl, #3
    000000E7 39               [11]  794 	add	hl, sp
    000000E8 7E               [ 7]  795 	ld	a, (hl)
    000000E9 E6 3F            [ 7]  796 	and	a, #0x3f
    000000EB 77               [ 7]  797 	ld	(hl), a
                                    798 ;E:\Dropbox\FAUSTO\SVILUPPI\MSX\CODE\C\MSXgl\projects\exsoccer/exsoccer_s2_b0.c:111: attr.Y = g_Ball.Y-g_FieldCurrentYPosition;
    000000EC 21r00r00         [10]  799 	ld	hl, #_g_Ball+0
    000000EF 56               [ 7]  800 	ld	d, (hl)
    000000F0 3Ar00r00         [13]  801 	ld	a, (_g_FieldCurrentYPosition+0)
    000000F3 5F               [ 4]  802 	ld	e, a
    000000F4 7A               [ 4]  803 	ld	a, d
    000000F5 93               [ 4]  804 	sub	a, e
    000000F6 02               [ 7]  805 	ld	(bc), a
                                    806 ;E:\Dropbox\FAUSTO\SVILUPPI\MSX\CODE\C\MSXgl\projects\exsoccer/exsoccer_s2_b0.c:114: u8 logicalSize = g_Ball.Size;
    000000F7 21r04r00         [10]  807 	ld	hl, #_g_Ball + 4
    000000FA 5E               [ 7]  808 	ld	e, (hl)
                                    809 ;E:\Dropbox\FAUSTO\SVILUPPI\MSX\CODE\C\MSXgl\projects\exsoccer/exsoccer_s2_b0.c:116: if (g_Ball.PossessionPlayerId != NO_VALUE) logicalSize = 1;
    000000FB 3Ar06r00         [13]  810 	ld	a, (#_g_Ball + 6)
    000000FE 3C               [ 4]  811 	inc	a
    000000FF 28 02            [12]  812 	jr	Z, 00102$
    00000101 1E 01            [ 7]  813 	ld	e, #0x01
    00000103                        814 00102$:
                                    815 ;E:\Dropbox\FAUSTO\SVILUPPI\MSX\CODE\C\MSXgl\projects\exsoccer/exsoccer_s2_b0.c:118: if (logicalSize == 0) logicalSize = 1;
    00000103 7B               [ 4]  816 	ld	a, e
    00000104 B7               [ 4]  817 	or	a, a
    00000105 20 02            [12]  818 	jr	NZ, 00104$
    00000107 1E 01            [ 7]  819 	ld	e, #0x01
    00000109                        820 00104$:
                                    821 ;E:\Dropbox\FAUSTO\SVILUPPI\MSX\CODE\C\MSXgl\projects\exsoccer/exsoccer_s2_b0.c:119: if (logicalSize > 4) logicalSize = 4;
    00000109 3E 04            [ 7]  822 	ld	a, #0x04
    0000010B 93               [ 4]  823 	sub	a, e
    0000010C 30 02            [12]  824 	jr	NC, 00106$
    0000010E 1E 04            [ 7]  825 	ld	e, #0x04
    00000110                        826 00106$:
                                    827 ;E:\Dropbox\FAUSTO\SVILUPPI\MSX\CODE\C\MSXgl\projects\exsoccer/exsoccer_s2_b0.c:124: bool rawMovement = (g_Ball.OldX != g_Ball.X || g_Ball.OldY != g_Ball.Y);
    00000110 21r09r00         [10]  828 	ld	hl, #(_g_Ball + 9)
    00000113 7E               [ 7]  829 	ld	a, (hl)
    00000114 DD 77 FE         [19]  830 	ld	-2 (ix), a
    00000117 23               [ 6]  831 	inc	hl
    00000118 7E               [ 7]  832 	ld	a, (hl)
    00000119 DD 77 FF         [19]  833 	ld	-1 (ix), a
    0000011C 21r02r00         [10]  834 	ld	hl, #(_g_Ball + 2)
    0000011F 7E               [ 7]  835 	ld	a, (hl)
    00000120 DD 77 FC         [19]  836 	ld	-4 (ix), a
    00000123 23               [ 6]  837 	inc	hl
    00000124 7E               [ 7]  838 	ld	a, (hl)
    00000125 DD 77 FD         [19]  839 	ld	-3 (ix), a
    00000128 DD 7E FE         [19]  840 	ld	a, -2 (ix)
    0000012B DD 96 FC         [19]  841 	sub	a, -4 (ix)
    0000012E 20 28            [12]  842 	jr	NZ, 00117$
    00000130 DD 7E FF         [19]  843 	ld	a, -1 (ix)
    00000133 DD 96 FD         [19]  844 	sub	a, -3 (ix)
    00000136 20 20            [12]  845 	jr	NZ, 00117$
    00000138 21r0Br00         [10]  846 	ld	hl, #(_g_Ball + 11)
    0000013B 7E               [ 7]  847 	ld	a, (hl)
    0000013C DD 77 FE         [19]  848 	ld	-2 (ix), a
    0000013F 23               [ 6]  849 	inc	hl
    00000140 7E               [ 7]  850 	ld	a, (hl)
    00000141 DD 77 FF         [19]  851 	ld	-1 (ix), a
    00000144 2Ar00r00         [16]  852 	ld	hl, (#_g_Ball + 0)
    00000147 7D               [ 4]  853 	ld	a, l
    00000148 DD 96 FE         [19]  854 	sub	a, -2 (ix)
    0000014B 20 0B            [12]  855 	jr	NZ, 00117$
    0000014D 7C               [ 4]  856 	ld	a, h
    0000014E DD 96 FF         [19]  857 	sub	a, -1 (ix)
    00000151 20 05            [12]  858 	jr	NZ, 00117$
    00000153 16 00            [ 7]  859 	ld	d, #0x00
    00000155 C3r5Ar01         [10]  860 	jp	00118$
    00000158                        861 00117$:
    00000158 16 01            [ 7]  862 	ld	d, #0x01
    0000015A                        863 00118$:
                                    864 ;E:\Dropbox\FAUSTO\SVILUPPI\MSX\CODE\C\MSXgl\projects\exsoccer/exsoccer_s2_b0.c:127: g_Ball.OldX = g_Ball.X;
    0000015A 21r09r00         [10]  865 	ld	hl, #(_g_Ball + 9)
    0000015D DD 7E FC         [19]  866 	ld	a, -4 (ix)
    00000160 77               [ 7]  867 	ld	(hl), a
    00000161 23               [ 6]  868 	inc	hl
    00000162 DD 7E FD         [19]  869 	ld	a, -3 (ix)
    00000165 77               [ 7]  870 	ld	(hl), a
                                    871 ;E:\Dropbox\FAUSTO\SVILUPPI\MSX\CODE\C\MSXgl\projects\exsoccer/exsoccer_s2_b0.c:128: g_Ball.OldY = g_Ball.Y;
    00000166 21r00r00         [10]  872 	ld	hl, #_g_Ball
    00000169 7E               [ 7]  873 	ld	a, (hl)
    0000016A DD 77 FE         [19]  874 	ld	-2 (ix), a
    0000016D 23               [ 6]  875 	inc	hl
    0000016E 7E               [ 7]  876 	ld	a, (hl)
    0000016F DD 77 FF         [19]  877 	ld	-1 (ix), a
    00000172 21r0Br00         [10]  878 	ld	hl, #(_g_Ball + 11)
    00000175 DD 7E FE         [19]  879 	ld	a, -2 (ix)
    00000178 77               [ 7]  880 	ld	(hl), a
    00000179 23               [ 6]  881 	inc	hl
    0000017A DD 7E FF         [19]  882 	ld	a, -1 (ix)
    0000017D 77               [ 7]  883 	ld	(hl), a
                                    884 ;E:\Dropbox\FAUSTO\SVILUPPI\MSX\CODE\C\MSXgl\projects\exsoccer/exsoccer_s2_b0.c:130: if (rawMovement) {
    0000017E 7A               [ 4]  885 	ld	a, d
    0000017F B7               [ 4]  886 	or	a, a
    00000180 28 08            [12]  887 	jr	Z, 00110$
                                    888 ;E:\Dropbox\FAUSTO\SVILUPPI\MSX\CODE\C\MSXgl\projects\exsoccer/exsoccer_s2_b0.c:131: s_StopCooldown = 15; // Keep animation active for ~1/4 sec after last move
    00000182 3E 0F            [ 7]  889 	ld	a, #0x0f
    00000184 32r00r00         [13]  890 	ld	(#_PutBallSprite_s_StopCooldown_65538_1167), a
    00000187 C3r97r01         [10]  891 	jp	00111$
    0000018A                        892 00110$:
                                    893 ;E:\Dropbox\FAUSTO\SVILUPPI\MSX\CODE\C\MSXgl\projects\exsoccer/exsoccer_s2_b0.c:133: if (s_StopCooldown > 0) s_StopCooldown--;
    0000018A 3Ar00r00         [13]  894 	ld	a, (_PutBallSprite_s_StopCooldown_65538_1167+0)
    0000018D B7               [ 4]  895 	or	a, a
    0000018E 28 07            [12]  896 	jr	Z, 00111$
    00000190 FD 21r00r00      [14]  897 	ld	iy, #_PutBallSprite_s_StopCooldown_65538_1167
    00000194 FD 35 00         [23]  898 	dec	0 (iy)
    00000197                        899 00111$:
                                    900 ;E:\Dropbox\FAUSTO\SVILUPPI\MSX\CODE\C\MSXgl\projects\exsoccer/exsoccer_s2_b0.c:136: bool isAnimating = (s_StopCooldown > 0);
    00000197 3Ar00r00         [13]  901 	ld	a, (_PutBallSprite_s_StopCooldown_65538_1167+0)
    0000019A B7               [ 4]  902 	or	a, a
    0000019B 3E 01            [ 7]  903 	ld	a, #0x01
    0000019D 20 01            [12]  904 	jr	NZ, 00120$
    0000019F AF               [ 4]  905 	xor	a, a
    000001A0                        906 00120$:
                                    907 ;E:\Dropbox\FAUSTO\SVILUPPI\MSX\CODE\C\MSXgl\projects\exsoccer/exsoccer_s2_b0.c:140: bool useAlt = isAnimating && ((g_FrameCounter & 8) != 0);
    000001A0 B7               [ 4]  908 	or	a, a
    000001A1 28 07            [12]  909 	jr	Z, 00121$
    000001A3 2Ar00r00         [16]  910 	ld	hl, (_g_FrameCounter)
    000001A6 CB 5D            [ 8]  911 	bit	3, l
    000001A8 20 04            [12]  912 	jr	NZ, 00122$
    000001AA                        913 00121$:
    000001AA AF               [ 4]  914 	xor	a, a
    000001AB C3rB0r01         [10]  915 	jp	00123$
    000001AE                        916 00122$:
    000001AE 3E 01            [ 7]  917 	ld	a, #0x01
    000001B0                        918 00123$:
                                    919 ;E:\Dropbox\FAUSTO\SVILUPPI\MSX\CODE\C\MSXgl\projects\exsoccer/exsoccer_s2_b0.c:147: u8 idx = (logicalSize - 1) * 2 + (useAlt ? 1 : 0);
    000001B0 6B               [ 4]  920 	ld	l, e
                                    921 ;	spillPairReg hl
                                    922 ;	spillPairReg hl
    000001B1 2D               [ 4]  923 	dec	l
    000001B2 CB 25            [ 8]  924 	sla	l
    000001B4 B7               [ 4]  925 	or	a, a
    000001B5 28 06            [12]  926 	jr	Z, 00124$
    000001B7 11 01 00         [10]  927 	ld	de, #0x0001
    000001BA C3rC0r01         [10]  928 	jp	00125$
    000001BD                        929 00124$:
    000001BD 11 00 00         [10]  930 	ld	de, #0x0000
    000001C0                        931 00125$:
    000001C0 19               [11]  932 	add	hl, de
                                    933 ;E:\Dropbox\FAUSTO\SVILUPPI\MSX\CODE\C\MSXgl\projects\exsoccer/exsoccer_s2_b0.c:148: attr.Pattern = k_BallPatterns[idx & 7];
    000001C1 11r16r02         [10]  934 	ld	de, #_PutBallSprite_k_BallPatterns_65539_1170+0
    000001C4 7D               [ 4]  935 	ld	a, l
                                    936 ;	spillPairReg hl
                                    937 ;	spillPairReg hl
    000001C5 E6 07            [ 7]  938 	and	a, #0x07
    000001C7 26 00            [ 7]  939 	ld	h, #0x00
                                    940 ;	spillPairReg hl
                                    941 ;	spillPairReg hl
    000001C9 6F               [ 4]  942 	ld	l, a
    000001CA 19               [11]  943 	add	hl, de
    000001CB 7E               [ 7]  944 	ld	a, (hl)
    000001CC DD 77 F9         [19]  945 	ld	-7 (ix), a
                                    946 ;E:\Dropbox\FAUSTO\SVILUPPI\MSX\CODE\C\MSXgl\projects\exsoccer/exsoccer_s2_b0.c:150: attr.X = g_Ball.X;
    000001CF ED 5Br02r00      [20]  947 	ld	de, (#(_g_Ball + 2) + 0)
    000001D3 21 02 00         [10]  948 	ld	hl, #2
    000001D6 39               [11]  949 	add	hl, sp
    000001D7 73               [ 7]  950 	ld	(hl), e
    000001D8 23               [ 6]  951 	inc	hl
    000001D9 7A               [ 4]  952 	ld	a, d
    000001DA E6 03            [ 7]  953 	and	a, #0x03
    000001DC C5               [11]  954 	push	bc
    000001DD 4F               [ 4]  955 	ld	c,a
    000001DE 7E               [ 7]  956 	ld	a, (hl)
    000001DF E6 FC            [ 7]  957 	and	a, #0xfc
    000001E1 B1               [ 4]  958 	or	a, c
    000001E2 C1               [10]  959 	pop	bc
    000001E3 77               [ 7]  960 	ld	(hl), a
                                    961 ;E:\Dropbox\FAUSTO\SVILUPPI\MSX\CODE\C\MSXgl\projects\exsoccer/exsoccer_s2_b0.c:151: attr.P = attr.D;
    000001E4 21 03 00         [10]  962 	ld	hl, #3
    000001E7 39               [11]  963 	add	hl, sp
    000001E8 7E               [ 7]  964 	ld	a, (hl)
    000001E9 07               [ 4]  965 	rlca
    000001EA 07               [ 4]  966 	rlca
    000001EB 07               [ 4]  967 	rlca
    000001EC 07               [ 4]  968 	rlca
    000001ED E6 01            [ 7]  969 	and	a, #0x01
    000001EF 21 03 00         [10]  970 	ld	hl, #3
    000001F2 39               [11]  971 	add	hl, sp
    000001F3 0F               [ 4]  972 	rrca
    000001F4 0F               [ 4]  973 	rrca
    000001F5 0F               [ 4]  974 	rrca
    000001F6 E6 20            [ 7]  975 	and	a, #0x20
    000001F8 5F               [ 4]  976 	ld	e, a
    000001F9 7E               [ 7]  977 	ld	a, (hl)
    000001FA E6 DF            [ 7]  978 	and	a, #0xdf
    000001FC B3               [ 4]  979 	or	a, e
    000001FD 77               [ 7]  980 	ld	(hl), a
                                    981 ;E:\Dropbox\FAUSTO\SVILUPPI\MSX\CODE\C\MSXgl\projects\exsoccer/exsoccer_s2_b0.c:152: V9_SetSpriteP1(15, &attr);
                                    982 ;E:/Dropbox/FAUSTO/SVILUPPI/MSX/CODE/C/MSXgl/engine/src/v9990.h:781: inline void V9_SetSpriteP1(u8 id, const V9_Sprite* attr) { V9_WriteVRAM(V9_P1_SPAT + (id * 4), (const u8*)attr, 4); }
                                    983 ;E:/Dropbox/FAUSTO/SVILUPPI/MSX/CODE/C/MSXgl/engine/src/v9990.h:371: inline void V9_WriteVRAM(u32 addr, const u8* src, u16 count) { V9_SetWriteAddress(addr); V9_WriteVRAM_CurrentAddr(src, count); }
    000001FE 11 3C FE         [10]  984 	ld	de, #0xfe3c
    00000201 21 03 00         [10]  985 	ld	hl, #0x0003
    00000204 CDr00r00         [17]  986 	call	_V9_SetWriteAddress
    00000207 11 04 00         [10]  987 	ld	de, #0x0004
    0000020A 21 00 00         [10]  988 	ld	hl, #0
    0000020D 39               [11]  989 	add	hl, sp
    0000020E CDr00r00         [17]  990 	call	_V9_WriteVRAM_CurrentAddr
                                    991 ;E:\Dropbox\FAUSTO\SVILUPPI\MSX\CODE\C\MSXgl\projects\exsoccer/exsoccer_s2_b0.c:152: V9_SetSpriteP1(15, &attr);
                                    992 ;E:\Dropbox\FAUSTO\SVILUPPI\MSX\CODE\C\MSXgl\projects\exsoccer/exsoccer_s2_b0.c:153: }
    00000211 DD F9            [10]  993 	ld	sp, ix
    00000213 DD E1            [14]  994 	pop	ix
    00000215 C9               [10]  995 	ret
    00000216                        996 _PutBallSprite_k_BallPatterns_65539_1170:
    00000216 39                     997 	.db #0x39	; 57	'9'
    00000217 3A                     998 	.db #0x3a	; 58
    00000218 3B                     999 	.db #0x3b	; 59
    00000219 3C                    1000 	.db #0x3c	; 60
    0000021A 3D                    1001 	.db #0x3d	; 61
    0000021B 3E                    1002 	.db #0x3e	; 62
    0000021C 3F                    1003 	.db #0x3f	; 63
    0000021D 74                    1004 	.db #0x74	; 116	't'
                                   1005 ;E:\Dropbox\FAUSTO\SVILUPPI\MSX\CODE\C\MSXgl\projects\exsoccer/exsoccer_s2_b0.c:155: void PrintTeamName(u8 x, u8 teamPaletteId) {
                                   1006 ;	---------------------------------
                                   1007 ; Function PrintTeamName
                                   1008 ; ---------------------------------
    0000021E                       1009 _PrintTeamName::
    0000021E 4F               [ 4] 1010 	ld	c, a
    0000021F 45               [ 4] 1011 	ld	b, l
                                   1012 ;E:\Dropbox\FAUSTO\SVILUPPI\MSX\CODE\C\MSXgl\projects\exsoccer/exsoccer_s2_b0.c:156: const char* pName = 0;
    00000220 11 00 00         [10] 1013 	ld	de, #0x0000
                                   1014 ;E:\Dropbox\FAUSTO\SVILUPPI\MSX\CODE\C\MSXgl\projects\exsoccer/exsoccer_s2_b0.c:157: if (g_FioBre) {
    00000223 3Ar00r00         [13] 1015 	ld	a, (_g_FioBre+0)
    00000226 B7               [ 4] 1016 	or	a, a
    00000227 28 12            [12] 1017 	jr	Z, 00107$
                                   1018 ;E:\Dropbox\FAUSTO\SVILUPPI\MSX\CODE\C\MSXgl\projects\exsoccer/exsoccer_s2_b0.c:158: if (teamPaletteId == TEAM_AUS) pName = "FIO";
    00000229 78               [ 4] 1019 	ld	a, b
    0000022A B7               [ 4] 1020 	or	a, a
    0000022B 20 06            [12] 1021 	jr	NZ, 00104$
    0000022D 11r88r02         [10] 1022 	ld	de, #___str_0
    00000230 C3r3Br02         [10] 1023 	jp	00107$
    00000233                       1024 00104$:
                                   1025 ;E:\Dropbox\FAUSTO\SVILUPPI\MSX\CODE\C\MSXgl\projects\exsoccer/exsoccer_s2_b0.c:159: else if (teamPaletteId == TEAM_ITA) pName = "BRE";
    00000233 78               [ 4] 1026 	ld	a, b
    00000234 D6 02            [ 7] 1027 	sub	a, #0x02
    00000236 20 03            [12] 1028 	jr	NZ, 00107$
    00000238 11r8Cr02         [10] 1029 	ld	de, #___str_1
    0000023B                       1030 00107$:
                                   1031 ;E:\Dropbox\FAUSTO\SVILUPPI\MSX\CODE\C\MSXgl\projects\exsoccer/exsoccer_s2_b0.c:162: if (!pName) {
    0000023B 7A               [ 4] 1032 	ld	a, d
    0000023C B3               [ 4] 1033 	or	a, e
    0000023D 20 41            [12] 1034 	jr	NZ, 00117$
                                   1035 ;E:\Dropbox\FAUSTO\SVILUPPI\MSX\CODE\C\MSXgl\projects\exsoccer/exsoccer_s2_b0.c:163: switch (teamPaletteId) {
    0000023F 3E 05            [ 7] 1036 	ld	a, #0x05
    00000241 90               [ 4] 1037 	sub	a, b
    00000242 38 39            [12] 1038 	jr	C, 00114$
    00000244 58               [ 4] 1039 	ld	e, b
    00000245 16 00            [ 7] 1040 	ld	d, #0x00
    00000247 21r4Dr02         [10] 1041 	ld	hl, #00147$
    0000024A 19               [11] 1042 	add	hl, de
    0000024B 19               [11] 1043 	add	hl, de
                                   1044 ;E:\Dropbox\FAUSTO\SVILUPPI\MSX\CODE\C\MSXgl\projects\exsoccer/exsoccer_s2_b0.c:164: case TEAM_AUS: pName = "AUS"; break;
    0000024C E9               [ 4] 1045 	jp	(hl)
    0000024D                       1046 00147$:
    0000024D 18 0A            [12] 1047 	jr	00108$
    0000024F 18 26            [12] 1048 	jr	00113$
    00000251 18 12            [12] 1049 	jr	00110$
    00000253 18 0A            [12] 1050 	jr	00109$
    00000255 18 14            [12] 1051 	jr	00111$
    00000257 18 18            [12] 1052 	jr	00112$
    00000259                       1053 00108$:
    00000259 11r90r02         [10] 1054 	ld	de, #___str_2
    0000025C C3r80r02         [10] 1055 	jp	00117$
                                   1056 ;E:\Dropbox\FAUSTO\SVILUPPI\MSX\CODE\C\MSXgl\projects\exsoccer/exsoccer_s2_b0.c:165: case TEAM_BRA: pName = "BRA"; break;
    0000025F                       1057 00109$:
    0000025F 11r94r02         [10] 1058 	ld	de, #___str_3
    00000262 C3r80r02         [10] 1059 	jp	00117$
                                   1060 ;E:\Dropbox\FAUSTO\SVILUPPI\MSX\CODE\C\MSXgl\projects\exsoccer/exsoccer_s2_b0.c:166: case TEAM_ITA: pName = "ITA"; break;
    00000265                       1061 00110$:
    00000265 11r98r02         [10] 1062 	ld	de, #___str_4
    00000268 C3r80r02         [10] 1063 	jp	00117$
                                   1064 ;E:\Dropbox\FAUSTO\SVILUPPI\MSX\CODE\C\MSXgl\projects\exsoccer/exsoccer_s2_b0.c:167: case TEAM_FRA: pName = "FRA"; break;
    0000026B                       1065 00111$:
    0000026B 11r9Cr02         [10] 1066 	ld	de, #___str_5
    0000026E C3r80r02         [10] 1067 	jp	00117$
                                   1068 ;E:\Dropbox\FAUSTO\SVILUPPI\MSX\CODE\C\MSXgl\projects\exsoccer/exsoccer_s2_b0.c:168: case TEAM_GBR: pName = "GBR"; break;
    00000271                       1069 00112$:
    00000271 11rA0r02         [10] 1070 	ld	de, #___str_6
    00000274 C3r80r02         [10] 1071 	jp	00117$
                                   1072 ;E:\Dropbox\FAUSTO\SVILUPPI\MSX\CODE\C\MSXgl\projects\exsoccer/exsoccer_s2_b0.c:169: case TEAM_GER: pName = "GER"; break;
    00000277                       1073 00113$:
    00000277 11rA4r02         [10] 1074 	ld	de, #___str_7
    0000027A C3r80r02         [10] 1075 	jp	00117$
                                   1076 ;E:\Dropbox\FAUSTO\SVILUPPI\MSX\CODE\C\MSXgl\projects\exsoccer/exsoccer_s2_b0.c:170: default:       pName = "   "; break;
    0000027D                       1077 00114$:
    0000027D 11rA8r02         [10] 1078 	ld	de, #___str_8
                                   1079 ;E:\Dropbox\FAUSTO\SVILUPPI\MSX\CODE\C\MSXgl\projects\exsoccer/exsoccer_s2_b0.c:171: }
    00000280                       1080 00117$:
                                   1081 ;E:\Dropbox\FAUSTO\SVILUPPI\MSX\CODE\C\MSXgl\projects\exsoccer/exsoccer_s2_b0.c:173: V9_PrintLayerAStringAtPos(x, 0, pName);
    00000280 D5               [11] 1082 	push	de
    00000281 2E 00            [ 7] 1083 	ld	l, #0x00
                                   1084 ;	spillPairReg hl
                                   1085 ;	spillPairReg hl
    00000283 79               [ 4] 1086 	ld	a, c
    00000284 CDr00r00         [17] 1087 	call	_V9_PrintLayerAStringAtPos
                                   1088 ;E:\Dropbox\FAUSTO\SVILUPPI\MSX\CODE\C\MSXgl\projects\exsoccer/exsoccer_s2_b0.c:174: }
    00000287 C9               [10] 1089 	ret
    00000288                       1090 ___str_0:
    00000288 46 49 4F              1091 	.ascii "FIO"
    0000028B 00                    1092 	.db 0x00
    0000028C                       1093 ___str_1:
    0000028C 42 52 45              1094 	.ascii "BRE"
    0000028F 00                    1095 	.db 0x00
    00000290                       1096 ___str_2:
    00000290 41 55 53              1097 	.ascii "AUS"
    00000293 00                    1098 	.db 0x00
    00000294                       1099 ___str_3:
    00000294 42 52 41              1100 	.ascii "BRA"
    00000297 00                    1101 	.db 0x00
    00000298                       1102 ___str_4:
    00000298 49 54 41              1103 	.ascii "ITA"
    0000029B 00                    1104 	.db 0x00
    0000029C                       1105 ___str_5:
    0000029C 46 52 41              1106 	.ascii "FRA"
    0000029F 00                    1107 	.db 0x00
    000002A0                       1108 ___str_6:
    000002A0 47 42 52              1109 	.ascii "GBR"
    000002A3 00                    1110 	.db 0x00
    000002A4                       1111 ___str_7:
    000002A4 47 45 52              1112 	.ascii "GER"
    000002A7 00                    1113 	.db 0x00
    000002A8                       1114 ___str_8:
    000002A8 20 20 20              1115 	.ascii "   "
    000002AB 00                    1116 	.db 0x00
                                   1117 ;E:\Dropbox\FAUSTO\SVILUPPI\MSX\CODE\C\MSXgl\projects\exsoccer/exsoccer_s2_b0.c:176: void ShowHeaderInfo(){
                                   1118 ;	---------------------------------
                                   1119 ; Function ShowHeaderInfo
                                   1120 ; ---------------------------------
    000002AC                       1121 _ShowHeaderInfo::
    000002AC DD E5            [15] 1122 	push	ix
    000002AE DD 21 00 00      [14] 1123 	ld	ix,#0
    000002B2 DD 39            [15] 1124 	add	ix,sp
    000002B4 3B               [ 6] 1125 	dec	sp
                                   1126 ;E:\Dropbox\FAUSTO\SVILUPPI\MSX\CODE\C\MSXgl\projects\exsoccer/exsoccer_s2_b0.c:177: u8 pos1 = (g_Team1Score >= 10) ? 4 : 5;
    000002B5 3Ar00r00         [13] 1127 	ld	a, (_g_Team1Score+0)
    000002B8 D6 0A            [ 7] 1128 	sub	a, #0x0a
    000002BA 38 06            [12] 1129 	jr	C, 00106$
    000002BC 01 04 00         [10] 1130 	ld	bc, #0x0004
    000002BF C3rC5r02         [10] 1131 	jp	00107$
    000002C2                       1132 00106$:
    000002C2 01 05 00         [10] 1133 	ld	bc, #0x0005
    000002C5                       1134 00107$:
                                   1135 ;E:\Dropbox\FAUSTO\SVILUPPI\MSX\CODE\C\MSXgl\projects\exsoccer/exsoccer_s2_b0.c:178: u8 pos2 = (g_Team2Score >= 10) ? 9 : 10;
    000002C5 3Ar00r00         [13] 1136 	ld	a, (_g_Team2Score+0)
    000002C8 D6 0A            [ 7] 1137 	sub	a, #0x0a
    000002CA 38 06            [12] 1138 	jr	C, 00108$
    000002CC 11 09 00         [10] 1139 	ld	de, #0x0009
    000002CF C3rD5r02         [10] 1140 	jp	00109$
    000002D2                       1141 00108$:
    000002D2 11 0A 00         [10] 1142 	ld	de, #0x000a
    000002D5                       1143 00109$:
    000002D5 DD 73 FF         [19] 1144 	ld	-1 (ix), e
                                   1145 ;E:\Dropbox\FAUSTO\SVILUPPI\MSX\CODE\C\MSXgl\projects\exsoccer/exsoccer_s2_b0.c:180: PrintTeamName(0, g_Team1PaletteId);
    000002D8 C5               [11] 1146 	push	bc
    000002D9 3Ar00r00         [13] 1147 	ld	a, (_g_Team1PaletteId+0)
    000002DC 6F               [ 4] 1148 	ld	l, a
                                   1149 ;	spillPairReg hl
                                   1150 ;	spillPairReg hl
    000002DD AF               [ 4] 1151 	xor	a, a
    000002DE CDr1Er02         [17] 1152 	call	_PrintTeamName
    000002E1 C1               [10] 1153 	pop	bc
                                   1154 ;E:\Dropbox\FAUSTO\SVILUPPI\MSX\CODE\C\MSXgl\projects\exsoccer/exsoccer_s2_b0.c:182: V9_PrintLayerAStringAtPos(pos1, 0, GetNumberString(g_Team1Score));
    000002E2 3Ar00r00         [13] 1155 	ld	a, (_g_Team1Score+0)
    000002E5 6F               [ 4] 1156 	ld	l, a
                                   1157 ;	spillPairReg hl
                                   1158 ;	spillPairReg hl
    000002E6 26 00            [ 7] 1159 	ld	h, #0x00
                                   1160 ;	spillPairReg hl
                                   1161 ;	spillPairReg hl
    000002E8 C5               [11] 1162 	push	bc
    000002E9 CDr78r11         [17] 1163 	call	_GetNumberString
    000002EC C1               [10] 1164 	pop	bc
    000002ED D5               [11] 1165 	push	de
    000002EE 2E 00            [ 7] 1166 	ld	l, #0x00
                                   1167 ;	spillPairReg hl
                                   1168 ;	spillPairReg hl
    000002F0 79               [ 4] 1169 	ld	a, c
    000002F1 CDr00r00         [17] 1170 	call	_V9_PrintLayerAStringAtPos
                                   1171 ;E:\Dropbox\FAUSTO\SVILUPPI\MSX\CODE\C\MSXgl\projects\exsoccer/exsoccer_s2_b0.c:183: V9_PrintLayerAStringAtPos(7, 0, "-");
    000002F4 21r82r03         [10] 1172 	ld	hl, #___str_9
    000002F7 E5               [11] 1173 	push	hl
    000002F8 2E 00            [ 7] 1174 	ld	l, #0x00
                                   1175 ;	spillPairReg hl
                                   1176 ;	spillPairReg hl
    000002FA 3E 07            [ 7] 1177 	ld	a, #0x07
    000002FC CDr00r00         [17] 1178 	call	_V9_PrintLayerAStringAtPos
                                   1179 ;E:\Dropbox\FAUSTO\SVILUPPI\MSX\CODE\C\MSXgl\projects\exsoccer/exsoccer_s2_b0.c:184: V9_PrintLayerAStringAtPos(pos2, 0, GetNumberString(g_Team2Score));
    000002FF 3Ar00r00         [13] 1180 	ld	a, (_g_Team2Score+0)
    00000302 6F               [ 4] 1181 	ld	l, a
                                   1182 ;	spillPairReg hl
                                   1183 ;	spillPairReg hl
    00000303 26 00            [ 7] 1184 	ld	h, #0x00
                                   1185 ;	spillPairReg hl
                                   1186 ;	spillPairReg hl
    00000305 CDr78r11         [17] 1187 	call	_GetNumberString
    00000308 D5               [11] 1188 	push	de
    00000309 2E 00            [ 7] 1189 	ld	l, #0x00
                                   1190 ;	spillPairReg hl
                                   1191 ;	spillPairReg hl
    0000030B DD 7E FF         [19] 1192 	ld	a, -1 (ix)
    0000030E CDr00r00         [17] 1193 	call	_V9_PrintLayerAStringAtPos
                                   1194 ;E:\Dropbox\FAUSTO\SVILUPPI\MSX\CODE\C\MSXgl\projects\exsoccer/exsoccer_s2_b0.c:186: PrintTeamName(12, g_Team2PaletteId);
    00000311 3Ar00r00         [13] 1195 	ld	a, (_g_Team2PaletteId+0)
    00000314 6F               [ 4] 1196 	ld	l, a
                                   1197 ;	spillPairReg hl
                                   1198 ;	spillPairReg hl
    00000315 3E 0C            [ 7] 1199 	ld	a, #0x0c
    00000317 CDr1Er02         [17] 1200 	call	_PrintTeamName
                                   1201 ;E:\Dropbox\FAUSTO\SVILUPPI\MSX\CODE\C\MSXgl\projects\exsoccer/exsoccer_s2_b0.c:187: u8 minutes=g_SecondsToEndOfMatch / 60;
    0000031A 3Ar00r00         [13] 1202 	ld	a, (_g_SecondsToEndOfMatch+0)
    0000031D 6F               [ 4] 1203 	ld	l, a
                                   1204 ;	spillPairReg hl
                                   1205 ;	spillPairReg hl
    0000031E 26 00            [ 7] 1206 	ld	h, #0x00
                                   1207 ;	spillPairReg hl
                                   1208 ;	spillPairReg hl
    00000320 11 3C 00         [10] 1209 	ld	de, #0x003c
    00000323 CDr00r00         [17] 1210 	call	__divsint
                                   1211 ;E:\Dropbox\FAUSTO\SVILUPPI\MSX\CODE\C\MSXgl\projects\exsoccer/exsoccer_s2_b0.c:188: u8 seconds=g_SecondsToEndOfMatch - minutes*60;
    00000326 7B               [ 4] 1212 	ld	a, e
    00000327 4F               [ 4] 1213 	ld	c, a
    00000328 87               [ 4] 1214 	add	a, a
    00000329 87               [ 4] 1215 	add	a, a
    0000032A 87               [ 4] 1216 	add	a, a
    0000032B 87               [ 4] 1217 	add	a, a
    0000032C 91               [ 4] 1218 	sub	a, c
    0000032D 87               [ 4] 1219 	add	a, a
    0000032E 87               [ 4] 1220 	add	a, a
    0000032F 4F               [ 4] 1221 	ld	c, a
    00000330 3Ar00r00         [13] 1222 	ld	a, (_g_SecondsToEndOfMatch+0)
    00000333 91               [ 4] 1223 	sub	a, c
    00000334 4F               [ 4] 1224 	ld	c, a
                                   1225 ;E:\Dropbox\FAUSTO\SVILUPPI\MSX\CODE\C\MSXgl\projects\exsoccer/exsoccer_s2_b0.c:189: V9_PrintLayerAStringAtPos(28,0,GetNumberString(minutes));
    00000335 16 00            [ 7] 1226 	ld	d, #0x00
    00000337 C5               [11] 1227 	push	bc
    00000338 EB               [ 4] 1228 	ex	de, hl
    00000339 CDr78r11         [17] 1229 	call	_GetNumberString
    0000033C D5               [11] 1230 	push	de
    0000033D 2E 00            [ 7] 1231 	ld	l, #0x00
                                   1232 ;	spillPairReg hl
                                   1233 ;	spillPairReg hl
    0000033F 3E 1C            [ 7] 1234 	ld	a, #0x1c
    00000341 CDr00r00         [17] 1235 	call	_V9_PrintLayerAStringAtPos
    00000344 21r84r03         [10] 1236 	ld	hl, #___str_10
    00000347 E5               [11] 1237 	push	hl
    00000348 2E 00            [ 7] 1238 	ld	l, #0x00
                                   1239 ;	spillPairReg hl
                                   1240 ;	spillPairReg hl
    0000034A 3E 1D            [ 7] 1241 	ld	a, #0x1d
    0000034C CDr00r00         [17] 1242 	call	_V9_PrintLayerAStringAtPos
    0000034F C1               [10] 1243 	pop	bc
                                   1244 ;E:\Dropbox\FAUSTO\SVILUPPI\MSX\CODE\C\MSXgl\projects\exsoccer/exsoccer_s2_b0.c:192: V9_PrintLayerAStringAtPos(30,0,GetNumberString(seconds));
    00000350 69               [ 4] 1245 	ld	l, c
                                   1246 ;	spillPairReg hl
                                   1247 ;	spillPairReg hl
    00000351 26 00            [ 7] 1248 	ld	h, #0x00
                                   1249 ;	spillPairReg hl
                                   1250 ;	spillPairReg hl
                                   1251 ;E:\Dropbox\FAUSTO\SVILUPPI\MSX\CODE\C\MSXgl\projects\exsoccer/exsoccer_s2_b0.c:191: if(seconds>=10){
    00000353 79               [ 4] 1252 	ld	a, c
    00000354 D6 0A            [ 7] 1253 	sub	a, #0x0a
    00000356 38 0E            [12] 1254 	jr	C, 00102$
                                   1255 ;E:\Dropbox\FAUSTO\SVILUPPI\MSX\CODE\C\MSXgl\projects\exsoccer/exsoccer_s2_b0.c:192: V9_PrintLayerAStringAtPos(30,0,GetNumberString(seconds));
    00000358 CDr78r11         [17] 1256 	call	_GetNumberString
    0000035B D5               [11] 1257 	push	de
    0000035C 2E 00            [ 7] 1258 	ld	l, #0x00
                                   1259 ;	spillPairReg hl
                                   1260 ;	spillPairReg hl
    0000035E 3E 1E            [ 7] 1261 	ld	a, #0x1e
    00000360 CDr00r00         [17] 1262 	call	_V9_PrintLayerAStringAtPos
    00000363 C3r7Er03         [10] 1263 	jp	00104$
    00000366                       1264 00102$:
                                   1265 ;E:\Dropbox\FAUSTO\SVILUPPI\MSX\CODE\C\MSXgl\projects\exsoccer/exsoccer_s2_b0.c:195: V9_PrintLayerAStringAtPos(30,0,"0");
    00000366 01r86r03         [10] 1266 	ld	bc, #___str_11+0
    00000369 E5               [11] 1267 	push	hl
    0000036A C5               [11] 1268 	push	bc
    0000036B 2E 00            [ 7] 1269 	ld	l, #0x00
                                   1270 ;	spillPairReg hl
                                   1271 ;	spillPairReg hl
    0000036D 3E 1E            [ 7] 1272 	ld	a, #0x1e
    0000036F CDr00r00         [17] 1273 	call	_V9_PrintLayerAStringAtPos
    00000372 E1               [10] 1274 	pop	hl
                                   1275 ;E:\Dropbox\FAUSTO\SVILUPPI\MSX\CODE\C\MSXgl\projects\exsoccer/exsoccer_s2_b0.c:196: V9_PrintLayerAStringAtPos(31,0,GetNumberString(seconds));
    00000373 CDr78r11         [17] 1276 	call	_GetNumberString
    00000376 D5               [11] 1277 	push	de
    00000377 2E 00            [ 7] 1278 	ld	l, #0x00
                                   1279 ;	spillPairReg hl
                                   1280 ;	spillPairReg hl
    00000379 3E 1F            [ 7] 1281 	ld	a, #0x1f
    0000037B CDr00r00         [17] 1282 	call	_V9_PrintLayerAStringAtPos
    0000037E                       1283 00104$:
                                   1284 ;E:\Dropbox\FAUSTO\SVILUPPI\MSX\CODE\C\MSXgl\projects\exsoccer/exsoccer_s2_b0.c:198: }
    0000037E 33               [ 6] 1285 	inc	sp
    0000037F DD E1            [14] 1286 	pop	ix
    00000381 C9               [10] 1287 	ret
    00000382                       1288 ___str_9:
    00000382 2D                    1289 	.ascii "-"
    00000383 00                    1290 	.db 0x00
    00000384                       1291 ___str_10:
    00000384 3A                    1292 	.ascii ":"
    00000385 00                    1293 	.db 0x00
    00000386                       1294 ___str_11:
    00000386 30                    1295 	.ascii "0"
    00000387 00                    1296 	.db 0x00
                                   1297 ;E:\Dropbox\FAUSTO\SVILUPPI\MSX\CODE\C\MSXgl\projects\exsoccer/exsoccer_s2_b0.c:201: void V9_PutLayerATileAtPos(u8 x, u8 y, u16 tileId) {
                                   1298 ;	---------------------------------
                                   1299 ; Function V9_PutLayerATileAtPos
                                   1300 ; ---------------------------------
    00000388                       1301 _V9_PutLayerATileAtPos::
    00000388 DD E5            [15] 1302 	push	ix
    0000038A DD 21 00 00      [14] 1303 	ld	ix,#0
    0000038E DD 39            [15] 1304 	add	ix,sp
    00000390 5F               [ 4] 1305 	ld	e, a
                                   1306 ;E:\Dropbox\FAUSTO\SVILUPPI\MSX\CODE\C\MSXgl\projects\exsoccer/exsoccer_s2_b0.c:202: V9_Poke16(V9_CellAddrP1A(x,y), tileId);
    00000391 DD 4E 04         [19] 1307 	ld	c, 4 (ix)
    00000394 DD 46 05         [19] 1308 	ld	b, 5 (ix)
                                   1309 ;E:/Dropbox/FAUSTO/SVILUPPI/MSX/CODE/C/MSXgl/engine/src/v9990.h:1426: inline u32 V9_CellAddrP1A(u8 x, u8 y) { return V9_P1_PNT_A + (((64 * y) + x) * 2); }
    00000397 26 00            [ 7] 1310 	ld	h, #0x00
                                   1311 ;	spillPairReg hl
                                   1312 ;	spillPairReg hl
    00000399 29               [11] 1313 	add	hl, hl
    0000039A 29               [11] 1314 	add	hl, hl
    0000039B 29               [11] 1315 	add	hl, hl
    0000039C 29               [11] 1316 	add	hl, hl
    0000039D 29               [11] 1317 	add	hl, hl
    0000039E 29               [11] 1318 	add	hl, hl
    0000039F 16 00            [ 7] 1319 	ld	d, #0x00
    000003A1 19               [11] 1320 	add	hl, de
    000003A2 29               [11] 1321 	add	hl, hl
    000003A3 7C               [ 4] 1322 	ld	a, h
    000003A4 07               [ 4] 1323 	rlca
    000003A5 9F               [ 4] 1324 	sbc	a, a
    000003A6 5F               [ 4] 1325 	ld	e, a
    000003A7 57               [ 4] 1326 	ld	d, a
    000003A8 7C               [ 4] 1327 	ld	a, h
    000003A9 C6 C0            [ 7] 1328 	add	a, #0xc0
    000003AB 67               [ 4] 1329 	ld	h, a
                                   1330 ;	spillPairReg hl
                                   1331 ;	spillPairReg hl
    000003AC 7B               [ 4] 1332 	ld	a, e
    000003AD CE 07            [ 7] 1333 	adc	a, #0x07
    000003AF 5F               [ 4] 1334 	ld	e, a
    000003B0 30 01            [12] 1335 	jr	NC, 00105$
    000003B2 14               [ 4] 1336 	inc	d
    000003B3                       1337 00105$:
                                   1338 ;E:/Dropbox/FAUSTO/SVILUPPI/MSX/CODE/C/MSXgl/engine/src/v9990.h:396: inline void V9_Poke16(u32 addr, u16 val) { V9_SetWriteAddress(addr); V9_Poke16_CurrentAddr(val); }
    000003B3 C5               [11] 1339 	push	bc
    000003B4 EB               [ 4] 1340 	ex	de, hl
    000003B5 CDr00r00         [17] 1341 	call	_V9_SetWriteAddress
    000003B8 C1               [10] 1342 	pop	bc
    000003B9 69               [ 4] 1343 	ld	l, c
                                   1344 ;	spillPairReg hl
                                   1345 ;	spillPairReg hl
    000003BA 60               [ 4] 1346 	ld	h, b
                                   1347 ;	spillPairReg hl
                                   1348 ;	spillPairReg hl
    000003BB CDr00r00         [17] 1349 	call	_V9_Poke16_CurrentAddr
                                   1350 ;E:\Dropbox\FAUSTO\SVILUPPI\MSX\CODE\C\MSXgl\projects\exsoccer/exsoccer_s2_b0.c:202: V9_Poke16(V9_CellAddrP1A(x,y), tileId);
                                   1351 ;E:\Dropbox\FAUSTO\SVILUPPI\MSX\CODE\C\MSXgl\projects\exsoccer/exsoccer_s2_b0.c:203: }
    000003BE DD E1            [14] 1352 	pop	ix
    000003C0 E1               [10] 1353 	pop	hl
    000003C1 F1               [10] 1354 	pop	af
    000003C2 E9               [ 4] 1355 	jp	(hl)
                                   1356 ;E:\Dropbox\FAUSTO\SVILUPPI\MSX\CODE\C\MSXgl\projects\exsoccer/exsoccer_s2_b0.c:204: void V9_PutLayerBTileAtPos(u8 x, u8 y, u16 tileId) {
                                   1357 ;	---------------------------------
                                   1358 ; Function V9_PutLayerBTileAtPos
                                   1359 ; ---------------------------------
    000003C3                       1360 _V9_PutLayerBTileAtPos::
    000003C3 DD E5            [15] 1361 	push	ix
    000003C5 DD 21 00 00      [14] 1362 	ld	ix,#0
    000003C9 DD 39            [15] 1363 	add	ix,sp
    000003CB 5F               [ 4] 1364 	ld	e, a
                                   1365 ;E:\Dropbox\FAUSTO\SVILUPPI\MSX\CODE\C\MSXgl\projects\exsoccer/exsoccer_s2_b0.c:205: V9_Poke16(V9_CellAddrP1B(x,y), tileId);
    000003CC DD 4E 04         [19] 1366 	ld	c, 4 (ix)
    000003CF DD 46 05         [19] 1367 	ld	b, 5 (ix)
                                   1368 ;E:/Dropbox/FAUSTO/SVILUPPI/MSX/CODE/C/MSXgl/engine/src/v9990.h:1437: inline u32 V9_CellAddrP1B(u8 x, u8 y) { return V9_P1_PNT_B + (((64 * y) + x) * 2); }
    000003D2 26 00            [ 7] 1369 	ld	h, #0x00
                                   1370 ;	spillPairReg hl
                                   1371 ;	spillPairReg hl
    000003D4 29               [11] 1372 	add	hl, hl
    000003D5 29               [11] 1373 	add	hl, hl
    000003D6 29               [11] 1374 	add	hl, hl
    000003D7 29               [11] 1375 	add	hl, hl
    000003D8 29               [11] 1376 	add	hl, hl
    000003D9 29               [11] 1377 	add	hl, hl
    000003DA 16 00            [ 7] 1378 	ld	d, #0x00
    000003DC 19               [11] 1379 	add	hl, de
    000003DD 29               [11] 1380 	add	hl, hl
    000003DE 7C               [ 4] 1381 	ld	a, h
    000003DF 07               [ 4] 1382 	rlca
    000003E0 9F               [ 4] 1383 	sbc	a, a
    000003E1 5F               [ 4] 1384 	ld	e, a
    000003E2 57               [ 4] 1385 	ld	d, a
    000003E3 7C               [ 4] 1386 	ld	a, h
    000003E4 C6 E0            [ 7] 1387 	add	a, #0xe0
    000003E6 67               [ 4] 1388 	ld	h, a
                                   1389 ;	spillPairReg hl
                                   1390 ;	spillPairReg hl
    000003E7 7B               [ 4] 1391 	ld	a, e
    000003E8 CE 07            [ 7] 1392 	adc	a, #0x07
    000003EA 5F               [ 4] 1393 	ld	e, a
    000003EB 30 01            [12] 1394 	jr	NC, 00105$
    000003ED 14               [ 4] 1395 	inc	d
    000003EE                       1396 00105$:
                                   1397 ;E:/Dropbox/FAUSTO/SVILUPPI/MSX/CODE/C/MSXgl/engine/src/v9990.h:396: inline void V9_Poke16(u32 addr, u16 val) { V9_SetWriteAddress(addr); V9_Poke16_CurrentAddr(val); }
    000003EE C5               [11] 1398 	push	bc
    000003EF EB               [ 4] 1399 	ex	de, hl
    000003F0 CDr00r00         [17] 1400 	call	_V9_SetWriteAddress
    000003F3 C1               [10] 1401 	pop	bc
    000003F4 69               [ 4] 1402 	ld	l, c
                                   1403 ;	spillPairReg hl
                                   1404 ;	spillPairReg hl
    000003F5 60               [ 4] 1405 	ld	h, b
                                   1406 ;	spillPairReg hl
                                   1407 ;	spillPairReg hl
    000003F6 CDr00r00         [17] 1408 	call	_V9_Poke16_CurrentAddr
                                   1409 ;E:\Dropbox\FAUSTO\SVILUPPI\MSX\CODE\C\MSXgl\projects\exsoccer/exsoccer_s2_b0.c:205: V9_Poke16(V9_CellAddrP1B(x,y), tileId);
                                   1410 ;E:\Dropbox\FAUSTO\SVILUPPI\MSX\CODE\C\MSXgl\projects\exsoccer/exsoccer_s2_b0.c:206: }
    000003F9 DD E1            [14] 1411 	pop	ix
    000003FB E1               [10] 1412 	pop	hl
    000003FC F1               [10] 1413 	pop	af
    000003FD E9               [ 4] 1414 	jp	(hl)
                                   1415 ;E:\Dropbox\FAUSTO\SVILUPPI\MSX\CODE\C\MSXgl\projects\exsoccer/exsoccer_s2_b0.c:208: void InitPonPonGirls(){
                                   1416 ;	---------------------------------
                                   1417 ; Function InitPonPonGirls
                                   1418 ; ---------------------------------
    000003FE                       1419 _InitPonPonGirls::
    000003FE DD E5            [15] 1420 	push	ix
    00000400 DD 21 00 00      [14] 1421 	ld	ix,#0
    00000404 DD 39            [15] 1422 	add	ix,sp
    00000406 21 F6 FF         [10] 1423 	ld	hl, #-10
    00000409 39               [11] 1424 	add	hl, sp
    0000040A F9               [ 6] 1425 	ld	sp, hl
                                   1426 ;E:\Dropbox\FAUSTO\SVILUPPI\MSX\CODE\C\MSXgl\projects\exsoccer/exsoccer_s2_b0.c:209: g_ponPonPatternIndex=0;
    0000040B 21r00r00         [10] 1427 	ld	hl, #_g_ponPonPatternIndex
    0000040E 36 00            [10] 1428 	ld	(hl), #0x00
                                   1429 ;E:\Dropbox\FAUSTO\SVILUPPI\MSX\CODE\C\MSXgl\projects\exsoccer/exsoccer_s2_b0.c:210: u8 pos[6]={30,50,70,175,195,215};
    00000410 DD 36 F6 1E      [19] 1430 	ld	-10 (ix), #0x1e
    00000414 DD 36 F7 32      [19] 1431 	ld	-9 (ix), #0x32
    00000418 DD 36 F8 46      [19] 1432 	ld	-8 (ix), #0x46
    0000041C DD 36 F9 AF      [19] 1433 	ld	-7 (ix), #0xaf
    00000420 DD 36 FA C3      [19] 1434 	ld	-6 (ix), #0xc3
    00000424 DD 36 FB D7      [19] 1435 	ld	-5 (ix), #0xd7
                                   1436 ;E:\Dropbox\FAUSTO\SVILUPPI\MSX\CODE\C\MSXgl\projects\exsoccer/exsoccer_s2_b0.c:211: for(u8 i=0;i<6;i++){
    00000428 0E 00            [ 7] 1437 	ld	c, #0x00
    0000042A                       1438 00103$:
    0000042A 79               [ 4] 1439 	ld	a, c
    0000042B D6 06            [ 7] 1440 	sub	a, #0x06
    0000042D 30 4F            [12] 1441 	jr	NC, 00105$
                                   1442 ;E:\Dropbox\FAUSTO\SVILUPPI\MSX\CODE\C\MSXgl\projects\exsoccer/exsoccer_s2_b0.c:212: g_PonPonGirls[i].X=pos[i];
    0000042F 06 00            [ 7] 1443 	ld	b, #0x00
    00000431 69               [ 4] 1444 	ld	l, c
    00000432 60               [ 4] 1445 	ld	h, b
    00000433 29               [11] 1446 	add	hl, hl
    00000434 29               [11] 1447 	add	hl, hl
    00000435 09               [11] 1448 	add	hl, bc
    00000436 EB               [ 4] 1449 	ex	de, hl
    00000437 21r00r00         [10] 1450 	ld	hl, #_g_PonPonGirls
    0000043A 19               [11] 1451 	add	hl, de
    0000043B EB               [ 4] 1452 	ex	de, hl
    0000043C 21 02 00         [10] 1453 	ld	hl, #0x0002
    0000043F 19               [11] 1454 	add	hl, de
    00000440 DD 75 FC         [19] 1455 	ld	-4 (ix), l
    00000443 DD 74 FD         [19] 1456 	ld	-3 (ix), h
    00000446 D5               [11] 1457 	push	de
    00000447 59               [ 4] 1458 	ld	e, c
    00000448 16 00            [ 7] 1459 	ld	d, #0x00
    0000044A 21 02 00         [10] 1460 	ld	hl, #2
    0000044D 39               [11] 1461 	add	hl, sp
    0000044E 19               [11] 1462 	add	hl, de
    0000044F D1               [10] 1463 	pop	de
    00000450 7E               [ 7] 1464 	ld	a, (hl)
    00000451 DD 77 FE         [19] 1465 	ld	-2 (ix), a
    00000454 DD 36 FF 00      [19] 1466 	ld	-1 (ix), #0x00
    00000458 DD 6E FC         [19] 1467 	ld	l, -4 (ix)
    0000045B DD 66 FD         [19] 1468 	ld	h, -3 (ix)
    0000045E DD 7E FE         [19] 1469 	ld	a, -2 (ix)
    00000461 77               [ 7] 1470 	ld	(hl), a
    00000462 23               [ 6] 1471 	inc	hl
    00000463 DD 7E FF         [19] 1472 	ld	a, -1 (ix)
    00000466 77               [ 7] 1473 	ld	(hl), a
                                   1474 ;E:\Dropbox\FAUSTO\SVILUPPI\MSX\CODE\C\MSXgl\projects\exsoccer/exsoccer_s2_b0.c:213: g_PonPonGirls[i].Y=42;
    00000467 6B               [ 4] 1475 	ld	l, e
    00000468 62               [ 4] 1476 	ld	h, d
    00000469 36 2A            [10] 1477 	ld	(hl), #0x2a
    0000046B 23               [ 6] 1478 	inc	hl
    0000046C 36 00            [10] 1479 	ld	(hl), #0x00
                                   1480 ;E:\Dropbox\FAUSTO\SVILUPPI\MSX\CODE\C\MSXgl\projects\exsoccer/exsoccer_s2_b0.c:214: g_PonPonGirls[i].PatternId=SPRITE_GIRL_1;
    0000046E 21 04 00         [10] 1481 	ld	hl, #0x0004
    00000471 19               [11] 1482 	add	hl, de
    00000472 36 7A            [10] 1483 	ld	(hl), #0x7a
                                   1484 ;E:\Dropbox\FAUSTO\SVILUPPI\MSX\CODE\C\MSXgl\projects\exsoccer/exsoccer_s2_b0.c:215: PutPonPonGirlSprite(i);
    00000474 C5               [11] 1485 	push	bc
    00000475 79               [ 4] 1486 	ld	a, c
    00000476 CDr06r05         [17] 1487 	call	_PutPonPonGirlSprite
    00000479 C1               [10] 1488 	pop	bc
                                   1489 ;E:\Dropbox\FAUSTO\SVILUPPI\MSX\CODE\C\MSXgl\projects\exsoccer/exsoccer_s2_b0.c:211: for(u8 i=0;i<6;i++){
    0000047A 0C               [ 4] 1490 	inc	c
    0000047B C3r2Ar04         [10] 1491 	jp	00103$
    0000047E                       1492 00105$:
                                   1493 ;E:\Dropbox\FAUSTO\SVILUPPI\MSX\CODE\C\MSXgl\projects\exsoccer/exsoccer_s2_b0.c:217: }
    0000047E DD F9            [10] 1494 	ld	sp, ix
    00000480 DD E1            [14] 1495 	pop	ix
    00000482 C9               [10] 1496 	ret
                                   1497 ;E:\Dropbox\FAUSTO\SVILUPPI\MSX\CODE\C\MSXgl\projects\exsoccer/exsoccer_s2_b0.c:218: void TickPonPonGirlsAnimation(){
                                   1498 ;	---------------------------------
                                   1499 ; Function TickPonPonGirlsAnimation
                                   1500 ; ---------------------------------
    00000483                       1501 _TickPonPonGirlsAnimation::
                                   1502 ;E:\Dropbox\FAUSTO\SVILUPPI\MSX\CODE\C\MSXgl\projects\exsoccer/exsoccer_s2_b0.c:219: if(g_MatchStatus!=MATCH_AFTER_IN_GOAL){
    00000483 3Ar00r00         [13] 1503 	ld	a, (_g_MatchStatus+0)
    00000486 D6 06            [ 7] 1504 	sub	a, #0x06
    00000488 28 0E            [12] 1505 	jr	Z, 00104$
                                   1506 ;E:\Dropbox\FAUSTO\SVILUPPI\MSX\CODE\C\MSXgl\projects\exsoccer/exsoccer_s2_b0.c:220: if(!g_ponPonGirlsInitailized){
    0000048A 3Ar03r00         [13] 1507 	ld	a, (_g_ponPonGirlsInitailized+0)
    0000048D B7               [ 4] 1508 	or	a, a
    0000048E C0               [11] 1509 	ret	NZ
                                   1510 ;E:\Dropbox\FAUSTO\SVILUPPI\MSX\CODE\C\MSXgl\projects\exsoccer/exsoccer_s2_b0.c:221: InitPonPonGirls();
    0000048F CDrFEr03         [17] 1511 	call	_InitPonPonGirls
                                   1512 ;E:\Dropbox\FAUSTO\SVILUPPI\MSX\CODE\C\MSXgl\projects\exsoccer/exsoccer_s2_b0.c:222: g_ponPonGirlsInitailized=true;
    00000492 21r03r00         [10] 1513 	ld	hl, #_g_ponPonGirlsInitailized
    00000495 36 01            [10] 1514 	ld	(hl), #0x01
                                   1515 ;E:\Dropbox\FAUSTO\SVILUPPI\MSX\CODE\C\MSXgl\projects\exsoccer/exsoccer_s2_b0.c:225: return;
    00000497 C9               [10] 1516 	ret
    00000498                       1517 00104$:
                                   1518 ;E:\Dropbox\FAUSTO\SVILUPPI\MSX\CODE\C\MSXgl\projects\exsoccer/exsoccer_s2_b0.c:227: g_ponPonGirlsInitailized=false;
    00000498 21r03r00         [10] 1519 	ld	hl, #_g_ponPonGirlsInitailized
    0000049B 36 00            [10] 1520 	ld	(hl), #0x00
                                   1521 ;E:\Dropbox\FAUSTO\SVILUPPI\MSX\CODE\C\MSXgl\projects\exsoccer/exsoccer_s2_b0.c:228: if(g_PonPonGrilsPoseCounter==PON_PON_GIRLS_POSE_SPEED){
    0000049D 3Ar01r00         [13] 1522 	ld	a, (_g_PonPonGrilsPoseCounter+0)
    000004A0 D6 03            [ 7] 1523 	sub	a, #0x03
    000004A2 20 08            [12] 1524 	jr	NZ, 00106$
                                   1525 ;E:\Dropbox\FAUSTO\SVILUPPI\MSX\CODE\C\MSXgl\projects\exsoccer/exsoccer_s2_b0.c:229: g_PonPonGrilsPoseCounter=0;
    000004A4 21r01r00         [10] 1526 	ld	hl, #_g_PonPonGrilsPoseCounter
    000004A7 36 00            [10] 1527 	ld	(hl), #0x00
    000004A9 C3rB1r04         [10] 1528 	jp	00107$
    000004AC                       1529 00106$:
                                   1530 ;E:\Dropbox\FAUSTO\SVILUPPI\MSX\CODE\C\MSXgl\projects\exsoccer/exsoccer_s2_b0.c:232: g_PonPonGrilsPoseCounter++;
    000004AC 21r01r00         [10] 1531 	ld	hl, #_g_PonPonGrilsPoseCounter
    000004AF 34               [11] 1532 	inc	(hl)
                                   1533 ;E:\Dropbox\FAUSTO\SVILUPPI\MSX\CODE\C\MSXgl\projects\exsoccer/exsoccer_s2_b0.c:233: return;
    000004B0 C9               [10] 1534 	ret
    000004B1                       1535 00107$:
                                   1536 ;E:\Dropbox\FAUSTO\SVILUPPI\MSX\CODE\C\MSXgl\projects\exsoccer/exsoccer_s2_b0.c:242: g_ponPonPatternIndex++;
    000004B1 FD 21r00r00      [14] 1537 	ld	iy, #_g_ponPonPatternIndex
    000004B5 FD 34 00         [23] 1538 	inc	0 (iy)
                                   1539 ;E:\Dropbox\FAUSTO\SVILUPPI\MSX\CODE\C\MSXgl\projects\exsoccer/exsoccer_s2_b0.c:243: if(g_ponPonPatternIndex >= 9) g_ponPonPatternIndex = 0;
    000004B8 3Ar00r00         [13] 1540 	ld	a, (_g_ponPonPatternIndex+0)
    000004BB D6 09            [ 7] 1541 	sub	a, #0x09
    000004BD 38 04            [12] 1542 	jr	C, 00109$
    000004BF FD 36 00 00      [19] 1543 	ld	0 (iy), #0x00
    000004C3                       1544 00109$:
                                   1545 ;E:\Dropbox\FAUSTO\SVILUPPI\MSX\CODE\C\MSXgl\projects\exsoccer/exsoccer_s2_b0.c:245: u8 pat = k_GirlPatterns[g_ponPonPatternIndex];
    000004C3 01rFDr04         [10] 1546 	ld	bc, #_TickPonPonGirlsAnimation_k_GirlPatterns_65537_1211+0
    000004C6 2Ar00r00         [16] 1547 	ld	hl, (_g_ponPonPatternIndex)
    000004C9 26 00            [ 7] 1548 	ld	h, #0x00
    000004CB 09               [11] 1549 	add	hl, bc
    000004CC 4E               [ 7] 1550 	ld	c, (hl)
                                   1551 ;E:\Dropbox\FAUSTO\SVILUPPI\MSX\CODE\C\MSXgl\projects\exsoccer/exsoccer_s2_b0.c:247: for(u8 i=0; i<6; i++){
    000004CD 06 00            [ 7] 1552 	ld	b, #0x00
    000004CF                       1553 00112$:
    000004CF 78               [ 4] 1554 	ld	a, b
    000004D0 D6 06            [ 7] 1555 	sub	a, #0x06
    000004D2 30 1B            [12] 1556 	jr	NC, 00110$
                                   1557 ;E:\Dropbox\FAUSTO\SVILUPPI\MSX\CODE\C\MSXgl\projects\exsoccer/exsoccer_s2_b0.c:248: g_PonPonGirls[i].PatternId = pat;
    000004D4 58               [ 4] 1558 	ld	e, b
    000004D5 16 00            [ 7] 1559 	ld	d, #0x00
    000004D7 6B               [ 4] 1560 	ld	l, e
    000004D8 62               [ 4] 1561 	ld	h, d
    000004D9 29               [11] 1562 	add	hl, hl
    000004DA 29               [11] 1563 	add	hl, hl
    000004DB 19               [11] 1564 	add	hl, de
    000004DC 11r00r00         [10] 1565 	ld	de, #_g_PonPonGirls
    000004DF 19               [11] 1566 	add	hl, de
    000004E0 11 04 00         [10] 1567 	ld	de, #0x0004
    000004E3 19               [11] 1568 	add	hl, de
    000004E4 71               [ 7] 1569 	ld	(hl), c
                                   1570 ;E:\Dropbox\FAUSTO\SVILUPPI\MSX\CODE\C\MSXgl\projects\exsoccer/exsoccer_s2_b0.c:249: PutPonPonGirlSprite(i);
    000004E5 C5               [11] 1571 	push	bc
    000004E6 78               [ 4] 1572 	ld	a, b
    000004E7 CDr06r05         [17] 1573 	call	_PutPonPonGirlSprite
    000004EA C1               [10] 1574 	pop	bc
                                   1575 ;E:\Dropbox\FAUSTO\SVILUPPI\MSX\CODE\C\MSXgl\projects\exsoccer/exsoccer_s2_b0.c:247: for(u8 i=0; i<6; i++){
    000004EB 04               [ 4] 1576 	inc	b
    000004EC C3rCFr04         [10] 1577 	jp	00112$
    000004EF                       1578 00110$:
                                   1579 ;E:\Dropbox\FAUSTO\SVILUPPI\MSX\CODE\C\MSXgl\projects\exsoccer/exsoccer_s2_b0.c:251: g_peopleState=!g_peopleState;
    000004EF 3Ar02r00         [13] 1580 	ld	a, (_g_peopleState+0)
    000004F2 D6 01            [ 7] 1581 	sub	a,#0x01
    000004F4 3E 00            [ 7] 1582 	ld	a, #0x00
    000004F6 17               [ 4] 1583 	rla
                                   1584 ;E:\Dropbox\FAUSTO\SVILUPPI\MSX\CODE\C\MSXgl\projects\exsoccer/exsoccer_s2_b0.c:252: PeopleMoving(g_peopleState);
    000004F7 32r02r00         [13] 1585 	ld	(_g_peopleState+0), a
                                   1586 ;E:\Dropbox\FAUSTO\SVILUPPI\MSX\CODE\C\MSXgl\projects\exsoccer/exsoccer_s2_b0.c:253: }
    000004FA C3r00r00         [10] 1587 	jp	_PeopleMoving
    000004FD                       1588 _TickPonPonGirlsAnimation_k_GirlPatterns_65537_1211:
    000004FD 7A                    1589 	.db #0x7a	; 122	'z'
    000004FE 7B                    1590 	.db #0x7b	; 123
    000004FF 7C                    1591 	.db #0x7c	; 124
    00000500 7D                    1592 	.db #0x7d	; 125
    00000501 7E                    1593 	.db #0x7e	; 126
    00000502 7F                    1594 	.db #0x7f	; 127
    00000503 F0                    1595 	.db #0xf0	; 240
    00000504 F1                    1596 	.db #0xf1	; 241
    00000505 F2                    1597 	.db #0xf2	; 242
                                   1598 ;E:\Dropbox\FAUSTO\SVILUPPI\MSX\CODE\C\MSXgl\projects\exsoccer/exsoccer_s2_b0.c:254: void PutPonPonGirlSprite(u8 ponPonGirlId){
                                   1599 ;	---------------------------------
                                   1600 ; Function PutPonPonGirlSprite
                                   1601 ; ---------------------------------
    00000506                       1602 _PutPonPonGirlSprite::
    00000506 DD E5            [15] 1603 	push	ix
    00000508 DD 21 00 00      [14] 1604 	ld	ix,#0
    0000050C DD 39            [15] 1605 	add	ix,sp
    0000050E 21 FB FF         [10] 1606 	ld	hl, #-5
    00000511 39               [11] 1607 	add	hl, sp
    00000512 F9               [ 6] 1608 	ld	sp, hl
    00000513 DD 77 FF         [19] 1609 	ld	-1 (ix), a
                                   1610 ;E:\Dropbox\FAUSTO\SVILUPPI\MSX\CODE\C\MSXgl\projects\exsoccer/exsoccer_s2_b0.c:256: attr.D=0;
    00000516 21 03 00         [10] 1611 	ld	hl, #3
    00000519 39               [11] 1612 	add	hl, sp
    0000051A CB A6            [15] 1613 	res	4, (hl)
                                   1614 ;E:\Dropbox\FAUSTO\SVILUPPI\MSX\CODE\C\MSXgl\projects\exsoccer/exsoccer_s2_b0.c:258: attr.SC=0;
    0000051C 21 03 00         [10] 1615 	ld	hl, #3
    0000051F 39               [11] 1616 	add	hl, sp
    00000520 7E               [ 7] 1617 	ld	a, (hl)
    00000521 E6 3F            [ 7] 1618 	and	a, #0x3f
    00000523 77               [ 7] 1619 	ld	(hl), a
                                   1620 ;E:\Dropbox\FAUSTO\SVILUPPI\MSX\CODE\C\MSXgl\projects\exsoccer/exsoccer_s2_b0.c:259: attr.Y=g_PonPonGirls[ponPonGirlId].Y-g_FieldCurrentYPosition;
    00000524 01r00r00         [10] 1621 	ld	bc, #_g_PonPonGirls+0
    00000527 DD 5E FF         [19] 1622 	ld	e, -1 (ix)
    0000052A 16 00            [ 7] 1623 	ld	d, #0x00
    0000052C 6B               [ 4] 1624 	ld	l, e
    0000052D 62               [ 4] 1625 	ld	h, d
    0000052E 29               [11] 1626 	add	hl, hl
    0000052F 29               [11] 1627 	add	hl, hl
    00000530 19               [11] 1628 	add	hl, de
    00000531 09               [11] 1629 	add	hl, bc
    00000532 EB               [ 4] 1630 	ex	de, hl
    00000533 1A               [ 7] 1631 	ld	a, (de)
    00000534 6F               [ 4] 1632 	ld	l, a
                                   1633 ;	spillPairReg hl
                                   1634 ;	spillPairReg hl
    00000535 3Ar00r00         [13] 1635 	ld	a, (_g_FieldCurrentYPosition+0)
    00000538 4F               [ 4] 1636 	ld	c, a
    00000539 7D               [ 4] 1637 	ld	a, l
    0000053A 91               [ 4] 1638 	sub	a, c
    0000053B DD 77 FB         [19] 1639 	ld	-5 (ix), a
                                   1640 ;E:\Dropbox\FAUSTO\SVILUPPI\MSX\CODE\C\MSXgl\projects\exsoccer/exsoccer_s2_b0.c:260: attr.X=g_PonPonGirls[ponPonGirlId].X;
    0000053E 6B               [ 4] 1641 	ld	l, e
                                   1642 ;	spillPairReg hl
                                   1643 ;	spillPairReg hl
    0000053F 62               [ 4] 1644 	ld	h, d
                                   1645 ;	spillPairReg hl
                                   1646 ;	spillPairReg hl
    00000540 23               [ 6] 1647 	inc	hl
    00000541 23               [ 6] 1648 	inc	hl
    00000542 4E               [ 7] 1649 	ld	c, (hl)
    00000543 23               [ 6] 1650 	inc	hl
    00000544 46               [ 7] 1651 	ld	b, (hl)
    00000545 21 02 00         [10] 1652 	ld	hl, #2
    00000548 39               [11] 1653 	add	hl, sp
    00000549 71               [ 7] 1654 	ld	(hl), c
    0000054A 23               [ 6] 1655 	inc	hl
    0000054B 78               [ 4] 1656 	ld	a, b
    0000054C E6 03            [ 7] 1657 	and	a, #0x03
    0000054E 4F               [ 4] 1658 	ld	c,a
    0000054F 7E               [ 7] 1659 	ld	a, (hl)
    00000550 E6 FC            [ 7] 1660 	and	a, #0xfc
    00000552 B1               [ 4] 1661 	or	a, c
    00000553 77               [ 7] 1662 	ld	(hl), a
                                   1663 ;E:\Dropbox\FAUSTO\SVILUPPI\MSX\CODE\C\MSXgl\projects\exsoccer/exsoccer_s2_b0.c:261: if(g_ActiveFieldZone!=FIELD_NORTH_ZONE||attr.Y>100){
    00000554 3Ar00r00         [13] 1664 	ld	a, (_g_ActiveFieldZone+0)
    00000557 B7               [ 4] 1665 	or	a, a
    00000558 20 08            [12] 1666 	jr	NZ, 00101$
    0000055A DD 4E FB         [19] 1667 	ld	c, -5 (ix)
    0000055D 3E 64            [ 7] 1668 	ld	a, #0x64
    0000055F 91               [ 4] 1669 	sub	a, c
    00000560 30 06            [12] 1670 	jr	NC, 00102$
    00000562                       1671 00101$:
                                   1672 ;E:\Dropbox\FAUSTO\SVILUPPI\MSX\CODE\C\MSXgl\projects\exsoccer/exsoccer_s2_b0.c:262: attr.D=1;
    00000562 21 03 00         [10] 1673 	ld	hl, #3
    00000565 39               [11] 1674 	add	hl, sp
    00000566 CB E6            [15] 1675 	set	4, (hl)
    00000568                       1676 00102$:
                                   1677 ;E:\Dropbox\FAUSTO\SVILUPPI\MSX\CODE\C\MSXgl\projects\exsoccer/exsoccer_s2_b0.c:264: attr.Pattern = g_PonPonGirls[ponPonGirlId].PatternId;
    00000568 21 04 00         [10] 1678 	ld	hl, #4
    0000056B 19               [11] 1679 	add	hl, de
    0000056C 7E               [ 7] 1680 	ld	a, (hl)
    0000056D DD 77 FC         [19] 1681 	ld	-4 (ix), a
                                   1682 ;E:\Dropbox\FAUSTO\SVILUPPI\MSX\CODE\C\MSXgl\projects\exsoccer/exsoccer_s2_b0.c:265: attr.P = 1;
    00000570 21 03 00         [10] 1683 	ld	hl, #3
    00000573 39               [11] 1684 	add	hl, sp
    00000574 CB EE            [15] 1685 	set	5, (hl)
                                   1686 ;E:\Dropbox\FAUSTO\SVILUPPI\MSX\CODE\C\MSXgl\projects\exsoccer/exsoccer_s2_b0.c:266: V9_SetSpriteP1(ponPonGirlId+20, &attr);
    00000576 DD 7E FF         [19] 1687 	ld	a, -1 (ix)
    00000579 C6 14            [ 7] 1688 	add	a, #0x14
                                   1689 ;E:/Dropbox/FAUSTO/SVILUPPI/MSX/CODE/C/MSXgl/engine/src/v9990.h:781: inline void V9_SetSpriteP1(u8 id, const V9_Sprite* attr) { V9_WriteVRAM(V9_P1_SPAT + (id * 4), (const u8*)attr, 4); }
    0000057B 6F               [ 4] 1690 	ld	l, a
                                   1691 ;	spillPairReg hl
                                   1692 ;	spillPairReg hl
    0000057C 26 00            [ 7] 1693 	ld	h, #0x00
                                   1694 ;	spillPairReg hl
                                   1695 ;	spillPairReg hl
    0000057E 29               [11] 1696 	add	hl, hl
    0000057F 29               [11] 1697 	add	hl, hl
    00000580 7C               [ 4] 1698 	ld	a, h
    00000581 07               [ 4] 1699 	rlca
    00000582 9F               [ 4] 1700 	sbc	a, a
    00000583 5F               [ 4] 1701 	ld	e, a
    00000584 57               [ 4] 1702 	ld	d, a
    00000585 7C               [ 4] 1703 	ld	a, h
    00000586 C6 FE            [ 7] 1704 	add	a, #0xfe
    00000588 67               [ 4] 1705 	ld	h, a
                                   1706 ;	spillPairReg hl
                                   1707 ;	spillPairReg hl
    00000589 7B               [ 4] 1708 	ld	a, e
    0000058A CE 03            [ 7] 1709 	adc	a, #0x03
    0000058C 5F               [ 4] 1710 	ld	e, a
    0000058D 30 01            [12] 1711 	jr	NC, 00113$
    0000058F 14               [ 4] 1712 	inc	d
    00000590                       1713 00113$:
                                   1714 ;E:/Dropbox/FAUSTO/SVILUPPI/MSX/CODE/C/MSXgl/engine/src/v9990.h:371: inline void V9_WriteVRAM(u32 addr, const u8* src, u16 count) { V9_SetWriteAddress(addr); V9_WriteVRAM_CurrentAddr(src, count); }
    00000590 EB               [ 4] 1715 	ex	de, hl
    00000591 CDr00r00         [17] 1716 	call	_V9_SetWriteAddress
    00000594 11 04 00         [10] 1717 	ld	de, #0x0004
    00000597 21 00 00         [10] 1718 	ld	hl, #0
    0000059A 39               [11] 1719 	add	hl, sp
    0000059B CDr00r00         [17] 1720 	call	_V9_WriteVRAM_CurrentAddr
                                   1721 ;E:\Dropbox\FAUSTO\SVILUPPI\MSX\CODE\C\MSXgl\projects\exsoccer/exsoccer_s2_b0.c:266: V9_SetSpriteP1(ponPonGirlId+20, &attr);
                                   1722 ;E:\Dropbox\FAUSTO\SVILUPPI\MSX\CODE\C\MSXgl\projects\exsoccer/exsoccer_s2_b0.c:267: }
    0000059E DD F9            [10] 1723 	ld	sp, ix
    000005A0 DD E1            [14] 1724 	pop	ix
    000005A2 C9               [10] 1725 	ret
                                   1726 ;E:\Dropbox\FAUSTO\SVILUPPI\MSX\CODE\C\MSXgl\projects\exsoccer/exsoccer_s2_b0.c:268: void PutPlayerSprite(u8 playerId){
                                   1727 ;	---------------------------------
                                   1728 ; Function PutPlayerSprite
                                   1729 ; ---------------------------------
    000005A3                       1730 _PutPlayerSprite::
    000005A3 DD E5            [15] 1731 	push	ix
    000005A5 DD 21 00 00      [14] 1732 	ld	ix,#0
    000005A9 DD 39            [15] 1733 	add	ix,sp
    000005AB 21 E9 FF         [10] 1734 	ld	hl, #-23
    000005AE 39               [11] 1735 	add	hl, sp
    000005AF F9               [ 6] 1736 	ld	sp, hl
    000005B0 DD 77 FF         [19] 1737 	ld	-1 (ix), a
                                   1738 ;E:\Dropbox\FAUSTO\SVILUPPI\MSX\CODE\C\MSXgl\projects\exsoccer/exsoccer_s2_b0.c:270: attr.D=0;
    000005B3 21 03 00         [10] 1739 	ld	hl, #3
    000005B6 39               [11] 1740 	add	hl, sp
    000005B7 CB A6            [15] 1741 	res	4, (hl)
                                   1742 ;E:\Dropbox\FAUSTO\SVILUPPI\MSX\CODE\C\MSXgl\projects\exsoccer/exsoccer_s2_b0.c:271: attr.SC=2;
    000005B9 21 03 00         [10] 1743 	ld	hl, #3
    000005BC 39               [11] 1744 	add	hl, sp
    000005BD 7E               [ 7] 1745 	ld	a, (hl)
    000005BE E6 3F            [ 7] 1746 	and	a, #0x3f
    000005C0 F6 80            [ 7] 1747 	or	a, #0x80
    000005C2 77               [ 7] 1748 	ld	(hl), a
                                   1749 ;E:\Dropbox\FAUSTO\SVILUPPI\MSX\CODE\C\MSXgl\projects\exsoccer/exsoccer_s2_b0.c:272: u16 minY=g_FieldCurrentYPosition+16;
    000005C3 2Ar00r00         [16] 1750 	ld	hl, (_g_FieldCurrentYPosition)
    000005C6 11 10 00         [10] 1751 	ld	de, #0x0010
    000005C9 19               [11] 1752 	add	hl, de
    000005CA 4D               [ 4] 1753 	ld	c, l
    000005CB 44               [ 4] 1754 	ld	b, h
                                   1755 ;E:\Dropbox\FAUSTO\SVILUPPI\MSX\CODE\C\MSXgl\projects\exsoccer/exsoccer_s2_b0.c:273: u16 maxY=g_FieldCurrentYPosition+235;
    000005CC 2Ar00r00         [16] 1756 	ld	hl, (_g_FieldCurrentYPosition)
    000005CF 11 EB 00         [10] 1757 	ld	de, #0x00eb
    000005D2 19               [11] 1758 	add	hl, de
                                   1759 ;E:\Dropbox\FAUSTO\SVILUPPI\MSX\CODE\C\MSXgl\projects\exsoccer/exsoccer_s2_b0.c:275: attr.Y = g_Players[playerId].Y-g_FieldCurrentYPosition;
    000005D3 E5               [11] 1760 	push	hl
    000005D4 DD 5E FF         [19] 1761 	ld	e, -1 (ix)
    000005D7 16 00            [ 7] 1762 	ld	d, #0x00
    000005D9 6B               [ 4] 1763 	ld	l, e
    000005DA 62               [ 4] 1764 	ld	h, d
    000005DB 29               [11] 1765 	add	hl, hl
    000005DC 29               [11] 1766 	add	hl, hl
    000005DD 19               [11] 1767 	add	hl, de
    000005DE 29               [11] 1768 	add	hl, hl
    000005DF 29               [11] 1769 	add	hl, hl
    000005E0 19               [11] 1770 	add	hl, de
    000005E1 D1               [10] 1771 	pop	de
    000005E2 3Er00            [ 7] 1772 	ld	a, #<(_g_Players)
    000005E4 85               [ 4] 1773 	add	a, l
    000005E5 DD 77 ED         [19] 1774 	ld	-19 (ix), a
    000005E8 3Es00            [ 7] 1775 	ld	a, #>(_g_Players)
    000005EA 8C               [ 4] 1776 	adc	a, h
    000005EB DD 77 EE         [19] 1777 	ld	-18 (ix), a
    000005EE DD 6E ED         [19] 1778 	ld	l, -19 (ix)
    000005F1 DD 66 EE         [19] 1779 	ld	h, -18 (ix)
    000005F4 66               [ 7] 1780 	ld	h, (hl)
                                   1781 ;	spillPairReg hl
    000005F5 3Ar00r00         [13] 1782 	ld	a, (_g_FieldCurrentYPosition+0)
    000005F8 6F               [ 4] 1783 	ld	l, a
                                   1784 ;	spillPairReg hl
                                   1785 ;	spillPairReg hl
    000005F9 7C               [ 4] 1786 	ld	a, h
    000005FA 95               [ 4] 1787 	sub	a, l
    000005FB DD 77 E9         [19] 1788 	ld	-23 (ix), a
                                   1789 ;E:\Dropbox\FAUSTO\SVILUPPI\MSX\CODE\C\MSXgl\projects\exsoccer/exsoccer_s2_b0.c:276: if(g_Players[playerId].TeamId==TEAM_2){
    000005FE DD 7E ED         [19] 1790 	ld	a, -19 (ix)
    00000601 C6 09            [ 7] 1791 	add	a, #0x09
    00000603 DD 77 EF         [19] 1792 	ld	-17 (ix), a
    00000606 DD 7E EE         [19] 1793 	ld	a, -18 (ix)
    00000609 CE 00            [ 7] 1794 	adc	a, #0x00
    0000060B DD 77 F0         [19] 1795 	ld	-16 (ix), a
    0000060E DD 6E EF         [19] 1796 	ld	l, -17 (ix)
    00000611 DD 66 F0         [19] 1797 	ld	h, -16 (ix)
    00000614 7E               [ 7] 1798 	ld	a, (hl)
    00000615 D6 02            [ 7] 1799 	sub	a, #0x02
    00000617 20 08            [12] 1800 	jr	NZ, 00102$
                                   1801 ;E:\Dropbox\FAUSTO\SVILUPPI\MSX\CODE\C\MSXgl\projects\exsoccer/exsoccer_s2_b0.c:277: attr.SC=3;
    00000619 21 03 00         [10] 1802 	ld	hl, #3
    0000061C 39               [11] 1803 	add	hl, sp
    0000061D 7E               [ 7] 1804 	ld	a, (hl)
    0000061E F6 C0            [ 7] 1805 	or	a, #0xc0
    00000620 77               [ 7] 1806 	ld	(hl), a
    00000621                       1807 00102$:
                                   1808 ;E:\Dropbox\FAUSTO\SVILUPPI\MSX\CODE\C\MSXgl\projects\exsoccer/exsoccer_s2_b0.c:280: if(g_Players[playerId].TeamId==REFEREE){
    00000621 DD 6E EF         [19] 1809 	ld	l, -17 (ix)
    00000624 DD 66 F0         [19] 1810 	ld	h, -16 (ix)
    00000627 7E               [ 7] 1811 	ld	a, (hl)
    00000628 D6 0E            [ 7] 1812 	sub	a, #0x0e
    0000062A 20 0A            [12] 1813 	jr	NZ, 00104$
                                   1814 ;E:\Dropbox\FAUSTO\SVILUPPI\MSX\CODE\C\MSXgl\projects\exsoccer/exsoccer_s2_b0.c:281: attr.SC=1;
    0000062C 21 03 00         [10] 1815 	ld	hl, #3
    0000062F 39               [11] 1816 	add	hl, sp
    00000630 7E               [ 7] 1817 	ld	a, (hl)
    00000631 E6 3F            [ 7] 1818 	and	a, #0x3f
    00000633 F6 40            [ 7] 1819 	or	a, #0x40
    00000635 77               [ 7] 1820 	ld	(hl), a
    00000636                       1821 00104$:
                                   1822 ;E:\Dropbox\FAUSTO\SVILUPPI\MSX\CODE\C\MSXgl\projects\exsoccer/exsoccer_s2_b0.c:284: if(g_Players[playerId].Y>maxY){
    00000636 DD 6E ED         [19] 1823 	ld	l, -19 (ix)
    00000639 DD 66 EE         [19] 1824 	ld	h, -18 (ix)
    0000063C 7E               [ 7] 1825 	ld	a, (hl)
    0000063D 23               [ 6] 1826 	inc	hl
    0000063E 66               [ 7] 1827 	ld	h, (hl)
                                   1828 ;	spillPairReg hl
    0000063F 6F               [ 4] 1829 	ld	l, a
                                   1830 ;	spillPairReg hl
                                   1831 ;	spillPairReg hl
    00000640 7B               [ 4] 1832 	ld	a, e
    00000641 95               [ 4] 1833 	sub	a, l
    00000642 7A               [ 4] 1834 	ld	a, d
    00000643 9C               [ 4] 1835 	sbc	a, h
    00000644 30 06            [12] 1836 	jr	NC, 00106$
                                   1837 ;E:\Dropbox\FAUSTO\SVILUPPI\MSX\CODE\C\MSXgl\projects\exsoccer/exsoccer_s2_b0.c:285: attr.D=1;
    00000646 21 03 00         [10] 1838 	ld	hl, #3
    00000649 39               [11] 1839 	add	hl, sp
    0000064A CB E6            [15] 1840 	set	4, (hl)
    0000064C                       1841 00106$:
                                   1842 ;E:\Dropbox\FAUSTO\SVILUPPI\MSX\CODE\C\MSXgl\projects\exsoccer/exsoccer_s2_b0.c:287: if(g_Players[playerId].Y<minY){
    0000064C DD 6E ED         [19] 1843 	ld	l, -19 (ix)
    0000064F DD 66 EE         [19] 1844 	ld	h, -18 (ix)
    00000652 5E               [ 7] 1845 	ld	e, (hl)
    00000653 23               [ 6] 1846 	inc	hl
    00000654 56               [ 7] 1847 	ld	d, (hl)
    00000655 7B               [ 4] 1848 	ld	a, e
    00000656 91               [ 4] 1849 	sub	a, c
    00000657 7A               [ 4] 1850 	ld	a, d
    00000658 98               [ 4] 1851 	sbc	a, b
    00000659 30 06            [12] 1852 	jr	NC, 00108$
                                   1853 ;E:\Dropbox\FAUSTO\SVILUPPI\MSX\CODE\C\MSXgl\projects\exsoccer/exsoccer_s2_b0.c:288: attr.D=1;
    0000065B 21 03 00         [10] 1854 	ld	hl, #3
    0000065E 39               [11] 1855 	add	hl, sp
    0000065F CB E6            [15] 1856 	set	4, (hl)
    00000661                       1857 00108$:
                                   1858 ;E:\Dropbox\FAUSTO\SVILUPPI\MSX\CODE\C\MSXgl\projects\exsoccer/exsoccer_s2_b0.c:291: if(g_Players[playerId].Role!=PLAYER_ROLE_GOALKEEPER){
    00000661 DD 7E ED         [19] 1859 	ld	a, -19 (ix)
    00000664 C6 0D            [ 7] 1860 	add	a, #0x0d
    00000666 DD 77 F1         [19] 1861 	ld	-15 (ix), a
    00000669 DD 7E EE         [19] 1862 	ld	a, -18 (ix)
    0000066C CE 00            [ 7] 1863 	adc	a, #0x00
    0000066E DD 77 F2         [19] 1864 	ld	-14 (ix), a
                                   1865 ;E:\Dropbox\FAUSTO\SVILUPPI\MSX\CODE\C\MSXgl\projects\exsoccer/exsoccer_s2_b0.c:290: if(g_MatchStatus!=MATCH_NOT_STARTED && g_MatchStatus!=MATCH_KICK_OFF){
    00000671 3Ar00r00         [13] 1866 	ld	a, (_g_MatchStatus+0)
    00000674 B7               [ 4] 1867 	or	a, a
    00000675 28 17            [12] 1868 	jr	Z, 00112$
    00000677 3Ar00r00         [13] 1869 	ld	a, (_g_MatchStatus+0)
    0000067A D6 07            [ 7] 1870 	sub	a, #0x07
    0000067C 28 10            [12] 1871 	jr	Z, 00112$
                                   1872 ;E:\Dropbox\FAUSTO\SVILUPPI\MSX\CODE\C\MSXgl\projects\exsoccer/exsoccer_s2_b0.c:291: if(g_Players[playerId].Role!=PLAYER_ROLE_GOALKEEPER){
    0000067E DD 6E F1         [19] 1873 	ld	l, -15 (ix)
    00000681 DD 66 F2         [19] 1874 	ld	h, -14 (ix)
    00000684 7E               [ 7] 1875 	ld	a, (hl)
    00000685 B7               [ 4] 1876 	or	a, a
    00000686 28 06            [12] 1877 	jr	Z, 00112$
                                   1878 ;E:\Dropbox\FAUSTO\SVILUPPI\MSX\CODE\C\MSXgl\projects\exsoccer/exsoccer_s2_b0.c:292: UpdatePlayerPatternByDirection(playerId);
    00000688 DD 7E FF         [19] 1879 	ld	a, -1 (ix)
    0000068B CDr00r00         [17] 1880 	call	_UpdatePlayerPatternByDirection
    0000068E                       1881 00112$:
                                   1882 ;E:\Dropbox\FAUSTO\SVILUPPI\MSX\CODE\C\MSXgl\projects\exsoccer/exsoccer_s2_b0.c:295: if(g_Players[playerId].Role==PLAYER_ROLE_GOALKEEPER){
    0000068E DD 6E F1         [19] 1883 	ld	l, -15 (ix)
    00000691 DD 66 F2         [19] 1884 	ld	h, -14 (ix)
    00000694 4E               [ 7] 1885 	ld	c, (hl)
                                   1886 ;E:\Dropbox\FAUSTO\SVILUPPI\MSX\CODE\C\MSXgl\projects\exsoccer/exsoccer_s2_b0.c:303: if(g_Players[playerId].OldX!=g_Players[playerId].X || g_Players[playerId].OldY!=g_Players[playerId].Y){
    00000695 DD 7E ED         [19] 1887 	ld	a, -19 (ix)
    00000698 C6 02            [ 7] 1888 	add	a, #0x02
    0000069A DD 77 F3         [19] 1889 	ld	-13 (ix), a
    0000069D DD 7E EE         [19] 1890 	ld	a, -18 (ix)
    000006A0 CE 00            [ 7] 1891 	adc	a, #0x00
    000006A2 DD 77 F4         [19] 1892 	ld	-12 (ix), a
                                   1893 ;E:\Dropbox\FAUSTO\SVILUPPI\MSX\CODE\C\MSXgl\projects\exsoccer/exsoccer_s2_b0.c:305: g_Players[playerId].PatternId = (team == TEAM_1) ? PLAYER_POSE_GK_H_MOVE_BACK_1 : PLAYER_POSE_GK_H_MOVE_FRONT_1;
    000006A5 DD 7E ED         [19] 1894 	ld	a, -19 (ix)
    000006A8 C6 08            [ 7] 1895 	add	a, #0x08
    000006AA DD 77 F5         [19] 1896 	ld	-11 (ix), a
    000006AD DD 7E EE         [19] 1897 	ld	a, -18 (ix)
    000006B0 CE 00            [ 7] 1898 	adc	a, #0x00
    000006B2 DD 77 F6         [19] 1899 	ld	-10 (ix), a
                                   1900 ;E:\Dropbox\FAUSTO\SVILUPPI\MSX\CODE\C\MSXgl\projects\exsoccer/exsoccer_s2_b0.c:295: if(g_Players[playerId].Role==PLAYER_ROLE_GOALKEEPER){
    000006B5 79               [ 4] 1901 	ld	a, c
    000006B6 B7               [ 4] 1902 	or	a, a
    000006B7 C2rC9r07         [10] 1903 	jp	NZ, 00125$
                                   1904 ;E:\Dropbox\FAUSTO\SVILUPPI\MSX\CODE\C\MSXgl\projects\exsoccer/exsoccer_s2_b0.c:296: attr.SC=0;
    000006BA 21 03 00         [10] 1905 	ld	hl, #3
    000006BD 39               [11] 1906 	add	hl, sp
    000006BE 7E               [ 7] 1907 	ld	a, (hl)
    000006BF E6 3F            [ 7] 1908 	and	a, #0x3f
    000006C1 77               [ 7] 1909 	ld	(hl), a
                                   1910 ;E:\Dropbox\FAUSTO\SVILUPPI\MSX\CODE\C\MSXgl\projects\exsoccer/exsoccer_s2_b0.c:299: if (g_MatchStatus == MATCH_IN_ACTION || g_MatchStatus == MATCH_BALL_ON_GOALKEEPER) {
    000006C2 3Ar00r00         [13] 1911 	ld	a,(_g_MatchStatus+0)
    000006C5 FE 0C            [ 7] 1912 	cp	a,#0x0c
    000006C7 28 05            [12] 1913 	jr	Z, 00120$
    000006C9 D6 0D            [ 7] 1914 	sub	a, #0x0d
    000006CB C2rC3r07         [10] 1915 	jp	NZ,00121$
    000006CE                       1916 00120$:
                                   1917 ;E:\Dropbox\FAUSTO\SVILUPPI\MSX\CODE\C\MSXgl\projects\exsoccer/exsoccer_s2_b0.c:300: g_Players[playerId].Status=PLAYER_STATUS_POSITIONED;
    000006CE DD 6E ED         [19] 1918 	ld	l, -19 (ix)
    000006D1 DD 66 EE         [19] 1919 	ld	h, -18 (ix)
    000006D4 11 12 00         [10] 1920 	ld	de, #0x0012
    000006D7 19               [11] 1921 	add	hl, de
    000006D8 36 04            [10] 1922 	ld	(hl), #0x04
    000006DA 23               [ 6] 1923 	inc	hl
    000006DB 36 00            [10] 1924 	ld	(hl), #0x00
                                   1925 ;E:\Dropbox\FAUSTO\SVILUPPI\MSX\CODE\C\MSXgl\projects\exsoccer/exsoccer_s2_b0.c:301: u8 team = g_Players[playerId].TeamId;
    000006DD DD 6E EF         [19] 1926 	ld	l, -17 (ix)
    000006E0 DD 66 F0         [19] 1927 	ld	h, -16 (ix)
    000006E3 46               [ 7] 1928 	ld	b, (hl)
                                   1929 ;E:\Dropbox\FAUSTO\SVILUPPI\MSX\CODE\C\MSXgl\projects\exsoccer/exsoccer_s2_b0.c:303: if(g_Players[playerId].OldX!=g_Players[playerId].X || g_Players[playerId].OldY!=g_Players[playerId].Y){
    000006E4 DD 7E ED         [19] 1930 	ld	a, -19 (ix)
    000006E7 C6 04            [ 7] 1931 	add	a, #0x04
    000006E9 DD 77 F7         [19] 1932 	ld	-9 (ix), a
    000006EC DD 7E EE         [19] 1933 	ld	a, -18 (ix)
    000006EF CE 00            [ 7] 1934 	adc	a, #0x00
    000006F1 DD 77 F8         [19] 1935 	ld	-8 (ix), a
    000006F4 DD 6E F7         [19] 1936 	ld	l, -9 (ix)
    000006F7 DD 66 F8         [19] 1937 	ld	h, -8 (ix)
    000006FA 5E               [ 7] 1938 	ld	e, (hl)
    000006FB 23               [ 6] 1939 	inc	hl
    000006FC 56               [ 7] 1940 	ld	d, (hl)
    000006FD DD 6E F3         [19] 1941 	ld	l, -13 (ix)
    00000700 DD 66 F4         [19] 1942 	ld	h, -12 (ix)
    00000703 4E               [ 7] 1943 	ld	c, (hl)
    00000704 23               [ 6] 1944 	inc	hl
    00000705 66               [ 7] 1945 	ld	h, (hl)
                                   1946 ;	spillPairReg hl
    00000706 DD 7E ED         [19] 1947 	ld	a, -19 (ix)
    00000709 C6 06            [ 7] 1948 	add	a, #0x06
    0000070B DD 77 F9         [19] 1949 	ld	-7 (ix), a
    0000070E DD 7E EE         [19] 1950 	ld	a, -18 (ix)
    00000711 CE 00            [ 7] 1951 	adc	a, #0x00
    00000713 DD 77 FA         [19] 1952 	ld	-6 (ix), a
    00000716 69               [ 4] 1953 	ld	l, c
    00000717 BF               [ 4] 1954 	cp	a, a
    00000718 ED 52            [15] 1955 	sbc	hl, de
    0000071A 20 19            [12] 1956 	jr	NZ, 00117$
    0000071C DD 6E F9         [19] 1957 	ld	l, -7 (ix)
    0000071F DD 66 FA         [19] 1958 	ld	h, -6 (ix)
    00000722 5E               [ 7] 1959 	ld	e, (hl)
    00000723 23               [ 6] 1960 	inc	hl
    00000724 56               [ 7] 1961 	ld	d, (hl)
    00000725 DD 6E ED         [19] 1962 	ld	l, -19 (ix)
    00000728 DD 66 EE         [19] 1963 	ld	h, -18 (ix)
    0000072B 4E               [ 7] 1964 	ld	c, (hl)
    0000072C 23               [ 6] 1965 	inc	hl
    0000072D 66               [ 7] 1966 	ld	h, (hl)
                                   1967 ;	spillPairReg hl
    0000072E 69               [ 4] 1968 	ld	l, c
    0000072F BF               [ 4] 1969 	cp	a, a
    00000730 ED 52            [15] 1970 	sbc	hl, de
    00000732 CArC9r07         [10] 1971 	jp	Z,00125$
    00000735                       1972 00117$:
                                   1973 ;E:\Dropbox\FAUSTO\SVILUPPI\MSX\CODE\C\MSXgl\projects\exsoccer/exsoccer_s2_b0.c:304: if(g_Players[playerId].LastPose==0){
    00000735 DD 7E ED         [19] 1974 	ld	a, -19 (ix)
    00000738 C6 0C            [ 7] 1975 	add	a, #0x0c
    0000073A DD 77 FB         [19] 1976 	ld	-5 (ix), a
    0000073D DD 7E EE         [19] 1977 	ld	a, -18 (ix)
    00000740 CE 00            [ 7] 1978 	adc	a, #0x00
    00000742 DD 77 FC         [19] 1979 	ld	-4 (ix), a
    00000745 DD 6E FB         [19] 1980 	ld	l, -5 (ix)
    00000748 DD 66 FC         [19] 1981 	ld	h, -4 (ix)
    0000074B 4E               [ 7] 1982 	ld	c, (hl)
                                   1983 ;E:\Dropbox\FAUSTO\SVILUPPI\MSX\CODE\C\MSXgl\projects\exsoccer/exsoccer_s2_b0.c:305: g_Players[playerId].PatternId = (team == TEAM_1) ? PLAYER_POSE_GK_H_MOVE_BACK_1 : PLAYER_POSE_GK_H_MOVE_FRONT_1;
    0000074C 05               [ 4] 1984 	dec	b
    0000074D 3E 01            [ 7] 1985 	ld	a, #0x01
    0000074F 28 01            [12] 1986 	jr	Z, 00269$
    00000751 AF               [ 4] 1987 	xor	a, a
    00000752                       1988 00269$:
                                   1989 ;E:\Dropbox\FAUSTO\SVILUPPI\MSX\CODE\C\MSXgl\projects\exsoccer/exsoccer_s2_b0.c:304: if(g_Players[playerId].LastPose==0){
    00000752 0C               [ 4] 1990 	inc	c
    00000753 0D               [ 4] 1991 	dec	c
    00000754 20 2B            [12] 1992 	jr	NZ, 00115$
                                   1993 ;E:\Dropbox\FAUSTO\SVILUPPI\MSX\CODE\C\MSXgl\projects\exsoccer/exsoccer_s2_b0.c:305: g_Players[playerId].PatternId = (team == TEAM_1) ? PLAYER_POSE_GK_H_MOVE_BACK_1 : PLAYER_POSE_GK_H_MOVE_FRONT_1;
    00000756 B7               [ 4] 1994 	or	a, a
    00000757 28 0B            [12] 1995 	jr	Z, 00142$
    00000759 DD 36 FD A4      [19] 1996 	ld	-3 (ix), #0xa4
    0000075D DD 36 FE 00      [19] 1997 	ld	-2 (ix), #0
    00000761 C3r6Cr07         [10] 1998 	jp	00143$
    00000764                       1999 00142$:
    00000764 DD 36 FD 2B      [19] 2000 	ld	-3 (ix), #0x2b
    00000768 DD 36 FE 00      [19] 2001 	ld	-2 (ix), #0
    0000076C                       2002 00143$:
    0000076C DD 7E FD         [19] 2003 	ld	a, -3 (ix)
    0000076F DD 6E F5         [19] 2004 	ld	l, -11 (ix)
    00000772 DD 66 F6         [19] 2005 	ld	h, -10 (ix)
    00000775 77               [ 7] 2006 	ld	(hl), a
                                   2007 ;E:\Dropbox\FAUSTO\SVILUPPI\MSX\CODE\C\MSXgl\projects\exsoccer/exsoccer_s2_b0.c:306: g_Players[playerId].LastPose=1;
    00000776 DD 6E FB         [19] 2008 	ld	l, -5 (ix)
    00000779 DD 66 FC         [19] 2009 	ld	h, -4 (ix)
    0000077C 36 01            [10] 2010 	ld	(hl), #0x01
    0000077E C3r9Cr07         [10] 2011 	jp	00116$
    00000781                       2012 00115$:
                                   2013 ;E:\Dropbox\FAUSTO\SVILUPPI\MSX\CODE\C\MSXgl\projects\exsoccer/exsoccer_s2_b0.c:309: g_Players[playerId].PatternId = (team == TEAM_1) ? PLAYER_POSE_GK_H_MOVE_BACK_2 : PLAYER_POSE_GK_H_MOVE_FRONT_2;
    00000781 B7               [ 4] 2014 	or	a, a
    00000782 28 06            [12] 2015 	jr	Z, 00144$
    00000784 01 A3 00         [10] 2016 	ld	bc, #0x00a3
    00000787 C3r8Dr07         [10] 2017 	jp	00145$
    0000078A                       2018 00144$:
    0000078A 01 2C 00         [10] 2019 	ld	bc, #0x002c
    0000078D                       2020 00145$:
    0000078D DD 6E F5         [19] 2021 	ld	l, -11 (ix)
    00000790 DD 66 F6         [19] 2022 	ld	h, -10 (ix)
    00000793 71               [ 7] 2023 	ld	(hl), c
                                   2024 ;E:\Dropbox\FAUSTO\SVILUPPI\MSX\CODE\C\MSXgl\projects\exsoccer/exsoccer_s2_b0.c:310: g_Players[playerId].LastPose=0;
    00000794 DD 6E FB         [19] 2025 	ld	l, -5 (ix)
    00000797 DD 66 FC         [19] 2026 	ld	h, -4 (ix)
    0000079A 36 00            [10] 2027 	ld	(hl), #0x00
    0000079C                       2028 00116$:
                                   2029 ;E:\Dropbox\FAUSTO\SVILUPPI\MSX\CODE\C\MSXgl\projects\exsoccer/exsoccer_s2_b0.c:312: g_Players[playerId].OldX=g_Players[playerId].X;
    0000079C DD 6E F3         [19] 2030 	ld	l, -13 (ix)
    0000079F DD 66 F4         [19] 2031 	ld	h, -12 (ix)
    000007A2 4E               [ 7] 2032 	ld	c, (hl)
    000007A3 23               [ 6] 2033 	inc	hl
    000007A4 46               [ 7] 2034 	ld	b, (hl)
    000007A5 DD 6E F7         [19] 2035 	ld	l, -9 (ix)
    000007A8 DD 66 F8         [19] 2036 	ld	h, -8 (ix)
    000007AB 71               [ 7] 2037 	ld	(hl), c
    000007AC 23               [ 6] 2038 	inc	hl
    000007AD 70               [ 7] 2039 	ld	(hl), b
                                   2040 ;E:\Dropbox\FAUSTO\SVILUPPI\MSX\CODE\C\MSXgl\projects\exsoccer/exsoccer_s2_b0.c:313: g_Players[playerId].OldY=g_Players[playerId].Y;	
    000007AE DD 6E ED         [19] 2041 	ld	l, -19 (ix)
    000007B1 DD 66 EE         [19] 2042 	ld	h, -18 (ix)
    000007B4 4E               [ 7] 2043 	ld	c, (hl)
    000007B5 23               [ 6] 2044 	inc	hl
    000007B6 46               [ 7] 2045 	ld	b, (hl)
    000007B7 DD 6E F9         [19] 2046 	ld	l, -7 (ix)
    000007BA DD 66 FA         [19] 2047 	ld	h, -6 (ix)
    000007BD 71               [ 7] 2048 	ld	(hl), c
    000007BE 23               [ 6] 2049 	inc	hl
    000007BF 70               [ 7] 2050 	ld	(hl), b
    000007C0 C3rC9r07         [10] 2051 	jp	00125$
    000007C3                       2052 00121$:
                                   2053 ;E:\Dropbox\FAUSTO\SVILUPPI\MSX\CODE\C\MSXgl\projects\exsoccer/exsoccer_s2_b0.c:318: UpdatePlayerPatternByDirection(playerId);
    000007C3 DD 7E FF         [19] 2054 	ld	a, -1 (ix)
    000007C6 CDr00r00         [17] 2055 	call	_UpdatePlayerPatternByDirection
    000007C9                       2056 00125$:
                                   2057 ;E:\Dropbox\FAUSTO\SVILUPPI\MSX\CODE\C\MSXgl\projects\exsoccer/exsoccer_s2_b0.c:321: attr.Pattern = g_Players[playerId].PatternId;
    000007C9 21 01 00         [10] 2058 	ld	hl,#0x1
    000007CC 39               [11] 2059 	add	hl,sp
    000007CD 4D               [ 4] 2060 	ld	c, l
    000007CE 44               [ 4] 2061 	ld	b, h
    000007CF DD 6E F5         [19] 2062 	ld	l, -11 (ix)
    000007D2 DD 66 F6         [19] 2063 	ld	h, -10 (ix)
    000007D5 7E               [ 7] 2064 	ld	a, (hl)
    000007D6 02               [ 7] 2065 	ld	(bc), a
                                   2066 ;E:\Dropbox\FAUSTO\SVILUPPI\MSX\CODE\C\MSXgl\projects\exsoccer/exsoccer_s2_b0.c:324: if(g_Players[playerId].TeamId != REFEREE)
    000007D7 DD 6E EF         [19] 2067 	ld	l, -17 (ix)
    000007DA DD 66 F0         [19] 2068 	ld	h, -16 (ix)
    000007DD 5E               [ 7] 2069 	ld	e, (hl)
                                   2070 ;E:\Dropbox\FAUSTO\SVILUPPI\MSX\CODE\C\MSXgl\projects\exsoccer/exsoccer_s2_b0.c:326: bool isHumanTeam = (g_Players[playerId].TeamId == TEAM_1) || (g_GameWith2Players && g_Players[playerId].TeamId == TEAM_2);
    000007DE 7B               [ 4] 2071 	ld	a,e
    000007DF FE 0E            [ 7] 2072 	cp	a,#0x0e
    000007E1 28 48            [12] 2073 	jr	Z, 00137$
    000007E3 3D               [ 4] 2074 	dec	a
    000007E4 28 0F            [12] 2075 	jr	Z, 00147$
    000007E6 3Ar00r00         [13] 2076 	ld	a, (_g_GameWith2Players+0)
    000007E9 B7               [ 4] 2077 	or	a, a
    000007EA 28 05            [12] 2078 	jr	Z, 00146$
    000007EC 7B               [ 4] 2079 	ld	a, e
    000007ED D6 02            [ 7] 2080 	sub	a, #0x02
    000007EF 28 04            [12] 2081 	jr	Z, 00147$
    000007F1                       2082 00146$:
    000007F1 AF               [ 4] 2083 	xor	a, a
    000007F2 C3rF7r07         [10] 2084 	jp	00148$
    000007F5                       2085 00147$:
    000007F5 3E 01            [ 7] 2086 	ld	a, #0x01
    000007F7                       2087 00148$:
                                   2088 ;E:\Dropbox\FAUSTO\SVILUPPI\MSX\CODE\C\MSXgl\projects\exsoccer/exsoccer_s2_b0.c:328: if (isHumanTeam) {
    000007F7 B7               [ 4] 2089 	or	a, a
    000007F8 28 31            [12] 2090 	jr	Z, 00137$
                                   2091 ;E:\Dropbox\FAUSTO\SVILUPPI\MSX\CODE\C\MSXgl\projects\exsoccer/exsoccer_s2_b0.c:330: if (g_Players[playerId].Role != PLAYER_ROLE_GOALKEEPER) {
    000007FA DD 6E F1         [19] 2092 	ld	l, -15 (ix)
    000007FD DD 66 F2         [19] 2093 	ld	h, -14 (ix)
    00000800 7E               [ 7] 2094 	ld	a, (hl)
    00000801 B7               [ 4] 2095 	or	a, a
    00000802 28 1A            [12] 2096 	jr	Z, 00131$
                                   2097 ;E:\Dropbox\FAUSTO\SVILUPPI\MSX\CODE\C\MSXgl\projects\exsoccer/exsoccer_s2_b0.c:331: if (playerId==g_Team1ActivePlayer || (g_GameWith2Players && playerId==g_Team2ActivePlayer)) {
    00000804 3Ar00r00         [13] 2098 	ld	a, (_g_Team1ActivePlayer+0)
    00000807 DD 96 FF         [19] 2099 	sub	a, -1 (ix)
    0000080A 28 0E            [12] 2100 	jr	Z, 00126$
    0000080C 3Ar00r00         [13] 2101 	ld	a, (_g_GameWith2Players+0)
    0000080F B7               [ 4] 2102 	or	a, a
    00000810 28 0C            [12] 2103 	jr	Z, 00131$
    00000812 3Ar00r00         [13] 2104 	ld	a, (_g_Team2ActivePlayer+0)
    00000815 DD 96 FF         [19] 2105 	sub	a, -1 (ix)
    00000818 20 04            [12] 2106 	jr	NZ, 00131$
    0000081A                       2107 00126$:
                                   2108 ;E:\Dropbox\FAUSTO\SVILUPPI\MSX\CODE\C\MSXgl\projects\exsoccer/exsoccer_s2_b0.c:333: attr.Pattern=attr.Pattern+64;
    0000081A 0A               [ 7] 2109 	ld	a, (bc)
    0000081B C6 40            [ 7] 2110 	add	a, #0x40
    0000081D 02               [ 7] 2111 	ld	(bc), a
    0000081E                       2112 00131$:
                                   2113 ;E:\Dropbox\FAUSTO\SVILUPPI\MSX\CODE\C\MSXgl\projects\exsoccer/exsoccer_s2_b0.c:338: if (playerId == g_PassTargetPlayer) {
    0000081E DD 7E FF         [19] 2114 	ld	a, -1 (ix)
    00000821 21r00r00         [10] 2115 	ld	hl, #_g_PassTargetPlayer
    00000824 96               [ 7] 2116 	sub	a, (hl)
    00000825 20 04            [12] 2117 	jr	NZ, 00137$
                                   2118 ;E:\Dropbox\FAUSTO\SVILUPPI\MSX\CODE\C\MSXgl\projects\exsoccer/exsoccer_s2_b0.c:339: attr.Pattern=attr.Pattern+64;
    00000827 0A               [ 7] 2119 	ld	a, (bc)
    00000828 C6 40            [ 7] 2120 	add	a, #0x40
    0000082A 02               [ 7] 2121 	ld	(bc), a
    0000082B                       2122 00137$:
                                   2123 ;E:\Dropbox\FAUSTO\SVILUPPI\MSX\CODE\C\MSXgl\projects\exsoccer/exsoccer_s2_b0.c:345: attr.X = g_Players[playerId].X;
    0000082B DD 6E F3         [19] 2124 	ld	l, -13 (ix)
    0000082E DD 66 F4         [19] 2125 	ld	h, -12 (ix)
    00000831 4E               [ 7] 2126 	ld	c, (hl)
    00000832 23               [ 6] 2127 	inc	hl
    00000833 46               [ 7] 2128 	ld	b, (hl)
    00000834 21 02 00         [10] 2129 	ld	hl, #2
    00000837 39               [11] 2130 	add	hl, sp
    00000838 71               [ 7] 2131 	ld	(hl), c
    00000839 23               [ 6] 2132 	inc	hl
    0000083A 78               [ 4] 2133 	ld	a, b
    0000083B E6 03            [ 7] 2134 	and	a, #0x03
    0000083D 5F               [ 4] 2135 	ld	e,a
    0000083E 7E               [ 7] 2136 	ld	a, (hl)
    0000083F E6 FC            [ 7] 2137 	and	a, #0xfc
    00000841 B3               [ 4] 2138 	or	a, e
    00000842 77               [ 7] 2139 	ld	(hl), a
                                   2140 ;E:\Dropbox\FAUSTO\SVILUPPI\MSX\CODE\C\MSXgl\projects\exsoccer/exsoccer_s2_b0.c:346: attr.P = 1;
    00000843 21 03 00         [10] 2141 	ld	hl, #3
    00000846 39               [11] 2142 	add	hl, sp
    00000847 CB EE            [15] 2143 	set	5, (hl)
                                   2144 ;E:\Dropbox\FAUSTO\SVILUPPI\MSX\CODE\C\MSXgl\projects\exsoccer/exsoccer_s2_b0.c:348: V9_SetSpriteP1(playerId, &attr);
                                   2145 ;E:/Dropbox/FAUSTO/SVILUPPI/MSX/CODE/C/MSXgl/engine/src/v9990.h:781: inline void V9_SetSpriteP1(u8 id, const V9_Sprite* attr) { V9_WriteVRAM(V9_P1_SPAT + (id * 4), (const u8*)attr, 4); }
    00000849 DD 6E FF         [19] 2146 	ld	l, -1 (ix)
                                   2147 ;	spillPairReg hl
                                   2148 ;	spillPairReg hl
    0000084C 26 00            [ 7] 2149 	ld	h, #0x00
                                   2150 ;	spillPairReg hl
                                   2151 ;	spillPairReg hl
    0000084E 29               [11] 2152 	add	hl, hl
    0000084F 29               [11] 2153 	add	hl, hl
    00000850 7C               [ 4] 2154 	ld	a, h
    00000851 07               [ 4] 2155 	rlca
    00000852 9F               [ 4] 2156 	sbc	a, a
    00000853 5F               [ 4] 2157 	ld	e, a
    00000854 57               [ 4] 2158 	ld	d, a
    00000855 7C               [ 4] 2159 	ld	a, h
    00000856 C6 FE            [ 7] 2160 	add	a, #0xfe
    00000858 67               [ 4] 2161 	ld	h, a
                                   2162 ;	spillPairReg hl
                                   2163 ;	spillPairReg hl
    00000859 7B               [ 4] 2164 	ld	a, e
    0000085A CE 03            [ 7] 2165 	adc	a, #0x03
    0000085C 5F               [ 4] 2166 	ld	e, a
    0000085D 30 01            [12] 2167 	jr	NC, 00278$
    0000085F 14               [ 4] 2168 	inc	d
    00000860                       2169 00278$:
                                   2170 ;E:/Dropbox/FAUSTO/SVILUPPI/MSX/CODE/C/MSXgl/engine/src/v9990.h:371: inline void V9_WriteVRAM(u32 addr, const u8* src, u16 count) { V9_SetWriteAddress(addr); V9_WriteVRAM_CurrentAddr(src, count); }
    00000860 EB               [ 4] 2171 	ex	de, hl
    00000861 CDr00r00         [17] 2172 	call	_V9_SetWriteAddress
    00000864 11 04 00         [10] 2173 	ld	de, #0x0004
    00000867 21 00 00         [10] 2174 	ld	hl, #0
    0000086A 39               [11] 2175 	add	hl, sp
    0000086B CDr00r00         [17] 2176 	call	_V9_WriteVRAM_CurrentAddr
                                   2177 ;E:\Dropbox\FAUSTO\SVILUPPI\MSX\CODE\C\MSXgl\projects\exsoccer/exsoccer_s2_b0.c:348: V9_SetSpriteP1(playerId, &attr);
                                   2178 ;E:\Dropbox\FAUSTO\SVILUPPI\MSX\CODE\C\MSXgl\projects\exsoccer/exsoccer_s2_b0.c:350: }
    0000086E DD F9            [10] 2179 	ld	sp, ix
    00000870 DD E1            [14] 2180 	pop	ix
    00000872 C9               [10] 2181 	ret
                                   2182 ;E:\Dropbox\FAUSTO\SVILUPPI\MSX\CODE\C\MSXgl\projects\exsoccer/exsoccer_s2_b0.c:353: void ResetPlayersInfo(){
                                   2183 ;	---------------------------------
                                   2184 ; Function ResetPlayersInfo
                                   2185 ; ---------------------------------
    00000873                       2186 _ResetPlayersInfo::
    00000873 DD E5            [15] 2187 	push	ix
    00000875 DD 21 00 00      [14] 2188 	ld	ix,#0
    00000879 DD 39            [15] 2189 	add	ix,sp
    0000087B 3B               [ 6] 2190 	dec	sp
                                   2191 ;E:\Dropbox\FAUSTO\SVILUPPI\MSX\CODE\C\MSXgl\projects\exsoccer/exsoccer_s2_b0.c:354: SetPlayerBallPossession(NO_VALUE);
    0000087C 3E FF            [ 7] 2192 	ld	a, #0xff
    0000087E CDr00r00         [17] 2193 	call	_SetPlayerBallPossession
                                   2194 ;E:\Dropbox\FAUSTO\SVILUPPI\MSX\CODE\C\MSXgl\projects\exsoccer/exsoccer_s2_b0.c:355: for(u8 i=0;i<14;i++){
    00000881 0E 00            [ 7] 2195 	ld	c, #0x00
    00000883                       2196 00103$:
    00000883 79               [ 4] 2197 	ld	a, c
    00000884 D6 0E            [ 7] 2198 	sub	a, #0x0e
    00000886 30 41            [12] 2199 	jr	NC, 00105$
                                   2200 ;E:\Dropbox\FAUSTO\SVILUPPI\MSX\CODE\C\MSXgl\projects\exsoccer/exsoccer_s2_b0.c:356: g_Players[i].Direction=DIRECTION_NONE;
    00000888 06 00            [ 7] 2201 	ld	b, #0x00
    0000088A 69               [ 4] 2202 	ld	l, c
    0000088B 60               [ 4] 2203 	ld	h, b
    0000088C 29               [11] 2204 	add	hl, hl
    0000088D 29               [11] 2205 	add	hl, hl
    0000088E 09               [11] 2206 	add	hl, bc
    0000088F 29               [11] 2207 	add	hl, hl
    00000890 29               [11] 2208 	add	hl, hl
    00000891 09               [11] 2209 	add	hl, bc
    00000892 EB               [ 4] 2210 	ex	de, hl
    00000893 21r00r00         [10] 2211 	ld	hl, #_g_Players
    00000896 19               [11] 2212 	add	hl, de
    00000897 EB               [ 4] 2213 	ex	de, hl
    00000898 21 0A 00         [10] 2214 	ld	hl, #0x000a
    0000089B 19               [11] 2215 	add	hl, de
    0000089C 36 00            [10] 2216 	ld	(hl), #0x00
                                   2217 ;E:\Dropbox\FAUSTO\SVILUPPI\MSX\CODE\C\MSXgl\projects\exsoccer/exsoccer_s2_b0.c:357: g_Players[i].PreviousDirection=g_Players[i].Direction;
    0000089E 7B               [ 4] 2218 	ld	a, e
    0000089F C6 0B            [ 7] 2219 	add	a, #0x0b
    000008A1 47               [ 4] 2220 	ld	b, a
    000008A2 7A               [ 4] 2221 	ld	a, d
    000008A3 CE 00            [ 7] 2222 	adc	a, #0x00
    000008A5 F5               [11] 2223 	push	af
    000008A6 7E               [ 7] 2224 	ld	a, (hl)
    000008A7 DD 77 FF         [19] 2225 	ld	-1 (ix), a
    000008AA F1               [10] 2226 	pop	af
    000008AB 68               [ 4] 2227 	ld	l, b
    000008AC 67               [ 4] 2228 	ld	h, a
    000008AD DD 7E FF         [19] 2229 	ld	a, -1 (ix)
    000008B0 77               [ 7] 2230 	ld	(hl), a
                                   2231 ;E:\Dropbox\FAUSTO\SVILUPPI\MSX\CODE\C\MSXgl\projects\exsoccer/exsoccer_s2_b0.c:358: g_Players[i].LastPose=0;
    000008B1 21 0C 00         [10] 2232 	ld	hl, #0x000c
    000008B4 19               [11] 2233 	add	hl, de
    000008B5 36 00            [10] 2234 	ld	(hl), #0x00
                                   2235 ;E:\Dropbox\FAUSTO\SVILUPPI\MSX\CODE\C\MSXgl\projects\exsoccer/exsoccer_s2_b0.c:359: g_Players[i].Status=PLAYER_STATUS_NONE;
    000008B7 21 12 00         [10] 2236 	ld	hl, #0x0012
    000008BA 19               [11] 2237 	add	hl, de
    000008BB 36 00            [10] 2238 	ld	(hl), #0x00
    000008BD 23               [ 6] 2239 	inc	hl
    000008BE 36 00            [10] 2240 	ld	(hl), #0x00
    000008C0 2B               [ 6] 2241 	dec	hl
                                   2242 ;E:\Dropbox\FAUSTO\SVILUPPI\MSX\CODE\C\MSXgl\projects\exsoccer/exsoccer_s2_b0.c:360: g_Players[i].Status=PLAYER_STATUS_NONE;
    000008C1 AF               [ 4] 2243 	xor	a, a
    000008C2 77               [ 7] 2244 	ld	(hl), a
    000008C3 23               [ 6] 2245 	inc	hl
    000008C4 77               [ 7] 2246 	ld	(hl), a
                                   2247 ;E:\Dropbox\FAUSTO\SVILUPPI\MSX\CODE\C\MSXgl\projects\exsoccer/exsoccer_s2_b0.c:355: for(u8 i=0;i<14;i++){
    000008C5 0C               [ 4] 2248 	inc	c
    000008C6 C3r83r08         [10] 2249 	jp	00103$
    000008C9                       2250 00105$:
                                   2251 ;E:\Dropbox\FAUSTO\SVILUPPI\MSX\CODE\C\MSXgl\projects\exsoccer/exsoccer_s2_b0.c:362: }
    000008C9 33               [ 6] 2252 	inc	sp
    000008CA DD E1            [14] 2253 	pop	ix
    000008CC C9               [10] 2254 	ret
                                   2255 ;E:\Dropbox\FAUSTO\SVILUPPI\MSX\CODE\C\MSXgl\projects\exsoccer/exsoccer_s2_b0.c:363: void ClearTextFromLayerA(u8 x, u8 y, u8 length){
                                   2256 ;	---------------------------------
                                   2257 ; Function ClearTextFromLayerA
                                   2258 ; ---------------------------------
    000008CD                       2259 _ClearTextFromLayerA::
    000008CD 4F               [ 4] 2260 	ld	c, a
    000008CE 45               [ 4] 2261 	ld	b, l
                                   2262 ;E:\Dropbox\FAUSTO\SVILUPPI\MSX\CODE\C\MSXgl\projects\exsoccer/exsoccer_s2_b0.c:364: for(u8 i=0;i<length;i++){
    000008CF 1E 00            [ 7] 2263 	ld	e, #0x00
    000008D1                       2264 00103$:
    000008D1 21 02 00         [10] 2265 	ld	hl, #2
    000008D4 39               [11] 2266 	add	hl, sp
    000008D5 7B               [ 4] 2267 	ld	a, e
    000008D6 96               [ 7] 2268 	sub	a, (hl)
    000008D7 30 12            [12] 2269 	jr	NC, 00105$
                                   2270 ;E:\Dropbox\FAUSTO\SVILUPPI\MSX\CODE\C\MSXgl\projects\exsoccer/exsoccer_s2_b0.c:365: V9_PutLayerATileAtPos(x,y,0);
    000008D9 C5               [11] 2271 	push	bc
    000008DA D5               [11] 2272 	push	de
    000008DB 21 00 00         [10] 2273 	ld	hl, #0x0000
    000008DE E5               [11] 2274 	push	hl
    000008DF 68               [ 4] 2275 	ld	l, b
                                   2276 ;	spillPairReg hl
                                   2277 ;	spillPairReg hl
    000008E0 79               [ 4] 2278 	ld	a, c
    000008E1 CDr88r03         [17] 2279 	call	_V9_PutLayerATileAtPos
    000008E4 D1               [10] 2280 	pop	de
    000008E5 C1               [10] 2281 	pop	bc
                                   2282 ;E:\Dropbox\FAUSTO\SVILUPPI\MSX\CODE\C\MSXgl\projects\exsoccer/exsoccer_s2_b0.c:366: x++;
    000008E6 0C               [ 4] 2283 	inc	c
                                   2284 ;E:\Dropbox\FAUSTO\SVILUPPI\MSX\CODE\C\MSXgl\projects\exsoccer/exsoccer_s2_b0.c:364: for(u8 i=0;i<length;i++){
    000008E7 1C               [ 4] 2285 	inc	e
    000008E8 C3rD1r08         [10] 2286 	jp	00103$
    000008EB                       2287 00105$:
                                   2288 ;E:\Dropbox\FAUSTO\SVILUPPI\MSX\CODE\C\MSXgl\projects\exsoccer/exsoccer_s2_b0.c:368: }
    000008EB E1               [10] 2289 	pop	hl
    000008EC 33               [ 6] 2290 	inc	sp
    000008ED E9               [ 4] 2291 	jp	(hl)
                                   2292 ;E:\Dropbox\FAUSTO\SVILUPPI\MSX\CODE\C\MSXgl\projects\exsoccer/exsoccer_s2_b0.c:369: void TickPlayerToOwnTarget(){
                                   2293 ;	---------------------------------
                                   2294 ; Function TickPlayerToOwnTarget
                                   2295 ; ---------------------------------
    000008EE                       2296 _TickPlayerToOwnTarget::
    000008EE DD E5            [15] 2297 	push	ix
    000008F0 DD 21 00 00      [14] 2298 	ld	ix,#0
    000008F4 DD 39            [15] 2299 	add	ix,sp
    000008F6 21 F0 FF         [10] 2300 	ld	hl, #-16
    000008F9 39               [11] 2301 	add	hl, sp
    000008FA F9               [ 6] 2302 	ld	sp, hl
                                   2303 ;E:\Dropbox\FAUSTO\SVILUPPI\MSX\CODE\C\MSXgl\projects\exsoccer/exsoccer_s2_b0.c:371: if(g_MatchStatus!=MATCH_NOT_STARTED){
    000008FB 3Ar00r00         [13] 2304 	ld	a, (_g_MatchStatus+0)
    000008FE B7               [ 4] 2305 	or	a, a
    000008FF CAr73r11         [10] 2306 	jp	Z, 00272$
                                   2307 ;E:\Dropbox\FAUSTO\SVILUPPI\MSX\CODE\C\MSXgl\projects\exsoccer/exsoccer_s2_b0.c:372: bool allPlayersInPosition = true;
    00000902 DD 36 F0 01      [19] 2308 	ld	-16 (ix), #0x01
                                   2309 ;E:\Dropbox\FAUSTO\SVILUPPI\MSX\CODE\C\MSXgl\projects\exsoccer/exsoccer_s2_b0.c:375: s_GkMoveTick++;
    00000906 21r01r00         [10] 2310 	ld	hl, #_TickPlayerToOwnTarget_s_GkMoveTick_131072_1259
    00000909 34               [11] 2311 	inc	(hl)
                                   2312 ;E:\Dropbox\FAUSTO\SVILUPPI\MSX\CODE\C\MSXgl\projects\exsoccer/exsoccer_s2_b0.c:376: for(u8 i=0;i<15;i++){
    0000090A DD 36 FF 00      [19] 2313 	ld	-1 (ix), #0x00
    0000090E                       2314 00271$:
    0000090E DD 7E FF         [19] 2315 	ld	a, -1 (ix)
    00000911 D6 0F            [ 7] 2316 	sub	a, #0x0f
    00000913 D2r4Dr11         [10] 2317 	jp	NC, 00263$
                                   2318 ;E:\Dropbox\FAUSTO\SVILUPPI\MSX\CODE\C\MSXgl\projects\exsoccer/exsoccer_s2_b0.c:378: if (g_MatchStatus == MATCH_IN_ACTION && g_Players[i].Role == PLAYER_ROLE_GOALKEEPER) {
    00000916 3Ar00r00         [13] 2319 	ld	a, (_g_MatchStatus+0)
    00000919 D6 0C            [ 7] 2320 	sub	a, #0x0c
    0000091B C2rD6r09         [10] 2321 	jp	NZ,00115$
    0000091E DD 4E FF         [19] 2322 	ld	c, -1 (ix)
    00000921 06 00            [ 7] 2323 	ld	b, #0x00
    00000923 69               [ 4] 2324 	ld	l, c
    00000924 60               [ 4] 2325 	ld	h, b
    00000925 29               [11] 2326 	add	hl, hl
    00000926 29               [11] 2327 	add	hl, hl
    00000927 09               [11] 2328 	add	hl, bc
    00000928 29               [11] 2329 	add	hl, hl
    00000929 29               [11] 2330 	add	hl, hl
    0000092A 09               [11] 2331 	add	hl, bc
    0000092B EB               [ 4] 2332 	ex	de, hl
    0000092C 21r00r00         [10] 2333 	ld	hl, #_g_Players
    0000092F 19               [11] 2334 	add	hl, de
    00000930 4D               [ 4] 2335 	ld	c, l
    00000931 44               [ 4] 2336 	ld	b, h
    00000932 C5               [11] 2337 	push	bc
    00000933 FD E1            [14] 2338 	pop	iy
    00000935 FD 7E 0D         [19] 2339 	ld	a, 13 (iy)
    00000938 B7               [ 4] 2340 	or	a, a
    00000939 C2rD6r09         [10] 2341 	jp	NZ, 00115$
                                   2342 ;E:\Dropbox\FAUSTO\SVILUPPI\MSX\CODE\C\MSXgl\projects\exsoccer/exsoccer_s2_b0.c:380: if (g_Ball.ShotActive) continue; 
    0000093C 3Ar1Br00         [13] 2343 	ld	a, (#_g_Ball + 27)
    0000093F B7               [ 4] 2344 	or	a, a
    00000940 C2r47r11         [10] 2345 	jp	NZ, 00262$
                                   2346 ;E:\Dropbox\FAUSTO\SVILUPPI\MSX\CODE\C\MSXgl\projects\exsoccer/exsoccer_s2_b0.c:383: if ((s_GkMoveTick & 1) == 0) { 
    00000943 3Ar01r00         [13] 2347 	ld	a, (_TickPlayerToOwnTarget_s_GkMoveTick_131072_1259+0)
    00000946 5F               [ 4] 2348 	ld	e, a
                                   2349 ;E:\Dropbox\FAUSTO\SVILUPPI\MSX\CODE\C\MSXgl\projects\exsoccer/exsoccer_s2_b0.c:391: i16 diff = (i16)desiredX - (i16)g_Players[i].X;
    00000947 21 02 00         [10] 2350 	ld	hl, #0x0002
    0000094A 09               [11] 2351 	add	hl, bc
    0000094B DD 75 FB         [19] 2352 	ld	-5 (ix), l
    0000094E DD 74 FC         [19] 2353 	ld	-4 (ix), h
                                   2354 ;E:\Dropbox\FAUSTO\SVILUPPI\MSX\CODE\C\MSXgl\projects\exsoccer/exsoccer_s2_b0.c:383: if ((s_GkMoveTick & 1) == 0) { 
    00000951 CB 43            [ 8] 2355 	bit	0, e
    00000953 20 6E            [12] 2356 	jr	NZ, 00113$
                                   2357 ;E:\Dropbox\FAUSTO\SVILUPPI\MSX\CODE\C\MSXgl\projects\exsoccer/exsoccer_s2_b0.c:386: u16 desiredX = g_Ball.X;
    00000955 2Ar02r00         [16] 2358 	ld	hl, (#_g_Ball + 2)
                                   2359 ;E:\Dropbox\FAUSTO\SVILUPPI\MSX\CODE\C\MSXgl\projects\exsoccer/exsoccer_s2_b0.c:388: if (desiredX < minX) desiredX = minX;
    00000958 7D               [ 4] 2360 	ld	a, l
    00000959 D6 60            [ 7] 2361 	sub	a, #0x60
    0000095B 7C               [ 4] 2362 	ld	a, h
    0000095C DE 00            [ 7] 2363 	sbc	a, #0x00
    0000095E 30 03            [12] 2364 	jr	NC, 00104$
    00000960 21 60 00         [10] 2365 	ld	hl, #0x0060
    00000963                       2366 00104$:
                                   2367 ;E:\Dropbox\FAUSTO\SVILUPPI\MSX\CODE\C\MSXgl\projects\exsoccer/exsoccer_s2_b0.c:389: if (desiredX > maxX) desiredX = maxX;
    00000963 3E 90            [ 7] 2368 	ld	a, #0x90
    00000965 BD               [ 4] 2369 	cp	a, l
    00000966 3E 00            [ 7] 2370 	ld	a, #0x00
    00000968 9C               [ 4] 2371 	sbc	a, h
    00000969 30 03            [12] 2372 	jr	NC, 00106$
    0000096B 21 90 00         [10] 2373 	ld	hl, #0x0090
    0000096E                       2374 00106$:
                                   2375 ;E:\Dropbox\FAUSTO\SVILUPPI\MSX\CODE\C\MSXgl\projects\exsoccer/exsoccer_s2_b0.c:391: i16 diff = (i16)desiredX - (i16)g_Players[i].X;
    0000096E DD 75 FD         [19] 2376 	ld	-3 (ix), l
    00000971 DD 74 FE         [19] 2377 	ld	-2 (ix), h
    00000974 DD 6E FB         [19] 2378 	ld	l, -5 (ix)
    00000977 DD 66 FC         [19] 2379 	ld	h, -4 (ix)
    0000097A 5E               [ 7] 2380 	ld	e, (hl)
    0000097B 23               [ 6] 2381 	inc	hl
    0000097C 56               [ 7] 2382 	ld	d, (hl)
    0000097D 6B               [ 4] 2383 	ld	l, e
                                   2384 ;	spillPairReg hl
                                   2385 ;	spillPairReg hl
    0000097E 62               [ 4] 2386 	ld	h, d
                                   2387 ;	spillPairReg hl
                                   2388 ;	spillPairReg hl
    0000097F DD 7E FD         [19] 2389 	ld	a, -3 (ix)
    00000982 95               [ 4] 2390 	sub	a, l
    00000983 6F               [ 4] 2391 	ld	l, a
                                   2392 ;	spillPairReg hl
                                   2393 ;	spillPairReg hl
    00000984 DD 7E FE         [19] 2394 	ld	a, -2 (ix)
    00000987 9C               [ 4] 2395 	sbc	a, h
    00000988 67               [ 4] 2396 	ld	h, a
                                   2397 ;	spillPairReg hl
                                   2398 ;	spillPairReg hl
                                   2399 ;E:\Dropbox\FAUSTO\SVILUPPI\MSX\CODE\C\MSXgl\projects\exsoccer/exsoccer_s2_b0.c:394: if (diff > 2) g_Players[i].X++;
    00000989 DD 75 FD         [19] 2400 	ld	-3 (ix), l
    0000098C DD 74 FE         [19] 2401 	ld	-2 (ix), h
    0000098F 3E 02            [ 7] 2402 	ld	a, #0x02
    00000991 DD BE FD         [19] 2403 	cp	a, -3 (ix)
    00000994 3E 00            [ 7] 2404 	ld	a, #0x00
    00000996 DD 9E FE         [19] 2405 	sbc	a, -2 (ix)
    00000999 E2r9Er09         [10] 2406 	jp	PO, 00731$
    0000099C EE 80            [ 7] 2407 	xor	a, #0x80
    0000099E                       2408 00731$:
    0000099E F2rAEr09         [10] 2409 	jp	P, 00110$
    000009A1 13               [ 6] 2410 	inc	de
    000009A2 DD 6E FB         [19] 2411 	ld	l, -5 (ix)
    000009A5 DD 66 FC         [19] 2412 	ld	h, -4 (ix)
    000009A8 73               [ 7] 2413 	ld	(hl), e
    000009A9 23               [ 6] 2414 	inc	hl
    000009AA 72               [ 7] 2415 	ld	(hl), d
    000009AB C3rC3r09         [10] 2416 	jp	00113$
    000009AE                       2417 00110$:
                                   2418 ;E:\Dropbox\FAUSTO\SVILUPPI\MSX\CODE\C\MSXgl\projects\exsoccer/exsoccer_s2_b0.c:395: else if (diff < -2) g_Players[i].X--;
    000009AE 7D               [ 4] 2419 	ld	a, l
    000009AF D6 FE            [ 7] 2420 	sub	a, #0xfe
    000009B1 7C               [ 4] 2421 	ld	a, h
    000009B2 17               [ 4] 2422 	rla
    000009B3 3F               [ 4] 2423 	ccf
    000009B4 1F               [ 4] 2424 	rra
    000009B5 DE 7F            [ 7] 2425 	sbc	a, #0x7f
    000009B7 30 0A            [12] 2426 	jr	NC, 00113$
    000009B9 1B               [ 6] 2427 	dec	de
    000009BA DD 6E FB         [19] 2428 	ld	l, -5 (ix)
    000009BD DD 66 FC         [19] 2429 	ld	h, -4 (ix)
    000009C0 73               [ 7] 2430 	ld	(hl), e
    000009C1 23               [ 6] 2431 	inc	hl
    000009C2 72               [ 7] 2432 	ld	(hl), d
    000009C3                       2433 00113$:
                                   2434 ;E:\Dropbox\FAUSTO\SVILUPPI\MSX\CODE\C\MSXgl\projects\exsoccer/exsoccer_s2_b0.c:398: g_Players[i].TargetX = g_Players[i].X;
    000009C3 21 10 00         [10] 2435 	ld	hl, #0x0010
    000009C6 09               [11] 2436 	add	hl, bc
    000009C7 EB               [ 4] 2437 	ex	de, hl
    000009C8 DD 6E FB         [19] 2438 	ld	l, -5 (ix)
    000009CB DD 66 FC         [19] 2439 	ld	h, -4 (ix)
    000009CE 4E               [ 7] 2440 	ld	c, (hl)
    000009CF 23               [ 6] 2441 	inc	hl
    000009D0 46               [ 7] 2442 	ld	b, (hl)
    000009D1 79               [ 4] 2443 	ld	a, c
    000009D2 12               [ 7] 2444 	ld	(de), a
    000009D3 13               [ 6] 2445 	inc	de
    000009D4 78               [ 4] 2446 	ld	a, b
    000009D5 12               [ 7] 2447 	ld	(de), a
    000009D6                       2448 00115$:
                                   2449 ;E:\Dropbox\FAUSTO\SVILUPPI\MSX\CODE\C\MSXgl\projects\exsoccer/exsoccer_s2_b0.c:402: if(i != REFEREE) continue;
    000009D6 DD 7E FF         [19] 2450 	ld	a, -1 (ix)
    000009D9 D6 0E            [ 7] 2451 	sub	a, #0x0e
    000009DB 3E 01            [ 7] 2452 	ld	a, #0x01
    000009DD 28 01            [12] 2453 	jr	Z, 00733$
    000009DF AF               [ 4] 2454 	xor	a, a
    000009E0                       2455 00733$:
    000009E0 4F               [ 4] 2456 	ld	c, a
                                   2457 ;E:\Dropbox\FAUSTO\SVILUPPI\MSX\CODE\C\MSXgl\projects\exsoccer/exsoccer_s2_b0.c:401: if(g_MatchStatus == MATCH_AFTER_IN_GOAL) {
    000009E1 3Ar00r00         [13] 2458 	ld	a, (_g_MatchStatus+0)
    000009E4 D6 06            [ 7] 2459 	sub	a, #0x06
    000009E6 20 2A            [12] 2460 	jr	NZ, 00120$
                                   2461 ;E:\Dropbox\FAUSTO\SVILUPPI\MSX\CODE\C\MSXgl\projects\exsoccer/exsoccer_s2_b0.c:402: if(i != REFEREE) continue;
    000009E8 CB 41            [ 8] 2462 	bit	0, c
    000009EA CAr47r11         [10] 2463 	jp	Z, 00262$
                                   2464 ;E:\Dropbox\FAUSTO\SVILUPPI\MSX\CODE\C\MSXgl\projects\exsoccer/exsoccer_s2_b0.c:404: g_Players[i].TargetX=FIELD_POS_X_CENTER - 30; 
    000009ED DD 5E FF         [19] 2465 	ld	e, -1 (ix)
    000009F0 16 00            [ 7] 2466 	ld	d, #0x00
    000009F2 6B               [ 4] 2467 	ld	l, e
    000009F3 62               [ 4] 2468 	ld	h, d
    000009F4 29               [11] 2469 	add	hl, hl
    000009F5 29               [11] 2470 	add	hl, hl
    000009F6 19               [11] 2471 	add	hl, de
    000009F7 29               [11] 2472 	add	hl, hl
    000009F8 29               [11] 2473 	add	hl, hl
    000009F9 19               [11] 2474 	add	hl, de
    000009FA EB               [ 4] 2475 	ex	de, hl
    000009FB 21r00r00         [10] 2476 	ld	hl, #_g_Players
    000009FE 19               [11] 2477 	add	hl, de
    000009FF EB               [ 4] 2478 	ex	de, hl
    00000A00 21 10 00         [10] 2479 	ld	hl, #0x0010
    00000A03 19               [11] 2480 	add	hl, de
    00000A04 36 5A            [10] 2481 	ld	(hl), #0x5a
    00000A06 23               [ 6] 2482 	inc	hl
    00000A07 36 00            [10] 2483 	ld	(hl), #0x00
                                   2484 ;E:\Dropbox\FAUSTO\SVILUPPI\MSX\CODE\C\MSXgl\projects\exsoccer/exsoccer_s2_b0.c:405: g_Players[i].TargetY=FIELD_POS_Y_CENTER - 40; 
    00000A09 21 0E 00         [10] 2485 	ld	hl, #0x000e
    00000A0C 19               [11] 2486 	add	hl, de
    00000A0D 36 CB            [10] 2487 	ld	(hl), #0xcb
    00000A0F 23               [ 6] 2488 	inc	hl
    00000A10 36 00            [10] 2489 	ld	(hl), #0x00
    00000A12                       2490 00120$:
                                   2491 ;E:\Dropbox\FAUSTO\SVILUPPI\MSX\CODE\C\MSXgl\projects\exsoccer/exsoccer_s2_b0.c:408: if (i == REFEREE && (g_MatchStatus == MATCH_IN_ACTION || g_MatchStatus == MATCH_BALL_ON_GOALKEEPER)) continue;
    00000A12 79               [ 4] 2492 	ld	a, c
    00000A13 B7               [ 4] 2493 	or	a, a
    00000A14 28 0D            [12] 2494 	jr	Z, 00122$
    00000A16 3Ar00r00         [13] 2495 	ld	a,(_g_MatchStatus+0)
    00000A19 FE 0C            [ 7] 2496 	cp	a,#0x0c
    00000A1B CAr47r11         [10] 2497 	jp	Z,00262$
    00000A1E D6 0D            [ 7] 2498 	sub	a, #0x0d
    00000A20 CAr47r11         [10] 2499 	jp	Z,00262$
    00000A23                       2500 00122$:
                                   2501 ;E:\Dropbox\FAUSTO\SVILUPPI\MSX\CODE\C\MSXgl\projects\exsoccer/exsoccer_s2_b0.c:411: bool isSetPieceSetup = (g_MatchStatus == MATCH_BEFORE_CORNER_KICK || g_MatchStatus == MATCH_BEFORE_GOAL_KICK || g_MatchStatus == MATCH_BEFORE_OFFSIDE || g_MatchStatus == MATCH_BEFORE_THROW_IN);
    00000A23 3Ar00r00         [13] 2502 	ld	a,(_g_MatchStatus+0)
    00000A26 FE 02            [ 7] 2503 	cp	a,#0x02
    00000A28 28 10            [12] 2504 	jr	Z, 00275$
    00000A2A FE 05            [ 7] 2505 	cp	a,#0x05
    00000A2C 28 0C            [12] 2506 	jr	Z, 00275$
    00000A2E FE 0E            [ 7] 2507 	cp	a,#0x0e
    00000A30 28 08            [12] 2508 	jr	Z, 00275$
    00000A32 D6 03            [ 7] 2509 	sub	a, #0x03
    00000A34 28 04            [12] 2510 	jr	Z, 00275$
    00000A36 AF               [ 4] 2511 	xor	a, a
    00000A37 C3r3Cr0A         [10] 2512 	jp	00276$
    00000A3A                       2513 00275$:
    00000A3A 3E 01            [ 7] 2514 	ld	a, #0x01
    00000A3C                       2515 00276$:
    00000A3C DD 77 F1         [19] 2516 	ld	-15 (ix), a
                                   2517 ;E:\Dropbox\FAUSTO\SVILUPPI\MSX\CODE\C\MSXgl\projects\exsoccer/exsoccer_s2_b0.c:412: bool isGkRestart = (g_MatchStatus == MATCH_BALL_ON_GOALKEEPER);
    00000A3F 3Ar00r00         [13] 2518 	ld	a, (_g_MatchStatus+0)
    00000A42 D6 0D            [ 7] 2519 	sub	a, #0x0d
    00000A44 3E 01            [ 7] 2520 	ld	a, #0x01
    00000A46 28 01            [12] 2521 	jr	Z, 00743$
    00000A48 AF               [ 4] 2522 	xor	a, a
    00000A49                       2523 00743$:
    00000A49 4F               [ 4] 2524 	ld	c, a
                                   2525 ;E:\Dropbox\FAUSTO\SVILUPPI\MSX\CODE\C\MSXgl\projects\exsoccer/exsoccer_s2_b0.c:414: if (!isSetPieceSetup && !isGkRestart) {
    00000A4A DD 7E F1         [19] 2526 	ld	a, -15 (ix)
    00000A4D B7               [ 4] 2527 	or	a,a
    00000A4E 20 29            [12] 2528 	jr	NZ, 00133$
    00000A50 B1               [ 4] 2529 	or	a,c
    00000A51 20 26            [12] 2530 	jr	NZ, 00133$
                                   2531 ;E:\Dropbox\FAUSTO\SVILUPPI\MSX\CODE\C\MSXgl\projects\exsoccer/exsoccer_s2_b0.c:415: if (g_Team1ActivePlayer != NO_VALUE && i == g_Team1ActivePlayer) continue;
    00000A53 3Ar00r00         [13] 2532 	ld	a, (_g_Team1ActivePlayer+0)
    00000A56 3C               [ 4] 2533 	inc	a
    00000A57 28 0A            [12] 2534 	jr	Z, 00126$
    00000A59 DD 7E FF         [19] 2535 	ld	a, -1 (ix)
    00000A5C 21r00r00         [10] 2536 	ld	hl, #_g_Team1ActivePlayer
    00000A5F 96               [ 7] 2537 	sub	a, (hl)
    00000A60 CAr47r11         [10] 2538 	jp	Z,00262$
    00000A63                       2539 00126$:
                                   2540 ;E:\Dropbox\FAUSTO\SVILUPPI\MSX\CODE\C\MSXgl\projects\exsoccer/exsoccer_s2_b0.c:416: if (g_GameWith2Players && g_Team2ActivePlayer != NO_VALUE && i == g_Team2ActivePlayer) continue;
    00000A63 3Ar00r00         [13] 2541 	ld	a, (_g_GameWith2Players+0)
    00000A66 B7               [ 4] 2542 	or	a, a
    00000A67 28 10            [12] 2543 	jr	Z, 00133$
    00000A69 3Ar00r00         [13] 2544 	ld	a, (_g_Team2ActivePlayer+0)
    00000A6C 3C               [ 4] 2545 	inc	a
    00000A6D 28 0A            [12] 2546 	jr	Z, 00133$
    00000A6F DD 7E FF         [19] 2547 	ld	a, -1 (ix)
    00000A72 21r00r00         [10] 2548 	ld	hl, #_g_Team2ActivePlayer
    00000A75 96               [ 7] 2549 	sub	a, (hl)
    00000A76 CAr47r11         [10] 2550 	jp	Z,00262$
    00000A79                       2551 00133$:
                                   2552 ;E:\Dropbox\FAUSTO\SVILUPPI\MSX\CODE\C\MSXgl\projects\exsoccer/exsoccer_s2_b0.c:420: bool playerInPosition = (g_Players[i].X == g_Players[i].TargetX && g_Players[i].Y == g_Players[i].TargetY);
    00000A79 DD 4E FF         [19] 2553 	ld	c, -1 (ix)
    00000A7C 06 00            [ 7] 2554 	ld	b, #0x00
    00000A7E 69               [ 4] 2555 	ld	l, c
    00000A7F 60               [ 4] 2556 	ld	h, b
    00000A80 29               [11] 2557 	add	hl, hl
    00000A81 29               [11] 2558 	add	hl, hl
    00000A82 09               [11] 2559 	add	hl, bc
    00000A83 29               [11] 2560 	add	hl, hl
    00000A84 29               [11] 2561 	add	hl, hl
    00000A85 09               [11] 2562 	add	hl, bc
    00000A86 11r00r00         [10] 2563 	ld	de, #_g_Players
    00000A89 19               [11] 2564 	add	hl, de
    00000A8A DD 75 F2         [19] 2565 	ld	-14 (ix), l
    00000A8D DD 74 F3         [19] 2566 	ld	-13 (ix), h
    00000A90 DD 7E F2         [19] 2567 	ld	a, -14 (ix)
    00000A93 C6 02            [ 7] 2568 	add	a, #0x02
    00000A95 DD 77 F4         [19] 2569 	ld	-12 (ix), a
    00000A98 DD 7E F3         [19] 2570 	ld	a, -13 (ix)
    00000A9B CE 00            [ 7] 2571 	adc	a, #0x00
    00000A9D DD 77 F5         [19] 2572 	ld	-11 (ix), a
    00000AA0 DD 6E F4         [19] 2573 	ld	l, -12 (ix)
    00000AA3 DD 66 F5         [19] 2574 	ld	h, -11 (ix)
    00000AA6 4E               [ 7] 2575 	ld	c, (hl)
    00000AA7 23               [ 6] 2576 	inc	hl
    00000AA8 46               [ 7] 2577 	ld	b, (hl)
    00000AA9 DD 7E F2         [19] 2578 	ld	a, -14 (ix)
    00000AAC C6 10            [ 7] 2579 	add	a, #0x10
    00000AAE DD 77 FD         [19] 2580 	ld	-3 (ix), a
    00000AB1 DD 7E F3         [19] 2581 	ld	a, -13 (ix)
    00000AB4 CE 00            [ 7] 2582 	adc	a, #0x00
    00000AB6 DD 77 FE         [19] 2583 	ld	-2 (ix), a
    00000AB9 DD 6E FD         [19] 2584 	ld	l, -3 (ix)
    00000ABC DD 66 FE         [19] 2585 	ld	h, -2 (ix)
    00000ABF 5E               [ 7] 2586 	ld	e, (hl)
    00000AC0 23               [ 6] 2587 	inc	hl
    00000AC1 66               [ 7] 2588 	ld	h, (hl)
                                   2589 ;	spillPairReg hl
    00000AC2 6B               [ 4] 2590 	ld	l, e
    00000AC3 BF               [ 4] 2591 	cp	a, a
    00000AC4 ED 42            [15] 2592 	sbc	hl, bc
    00000AC6 20 3E            [12] 2593 	jr	NZ, 00283$
    00000AC8 DD 6E F2         [19] 2594 	ld	l, -14 (ix)
    00000ACB DD 66 F3         [19] 2595 	ld	h, -13 (ix)
    00000ACE 7E               [ 7] 2596 	ld	a, (hl)
    00000ACF DD 77 F9         [19] 2597 	ld	-7 (ix), a
    00000AD2 23               [ 6] 2598 	inc	hl
    00000AD3 7E               [ 7] 2599 	ld	a, (hl)
    00000AD4 DD 77 FA         [19] 2600 	ld	-6 (ix), a
    00000AD7 DD 7E F2         [19] 2601 	ld	a, -14 (ix)
    00000ADA DD 77 FB         [19] 2602 	ld	-5 (ix), a
    00000ADD DD 7E F3         [19] 2603 	ld	a, -13 (ix)
    00000AE0 DD 77 FC         [19] 2604 	ld	-4 (ix), a
    00000AE3 DD 6E FB         [19] 2605 	ld	l, -5 (ix)
    00000AE6 DD 66 FC         [19] 2606 	ld	h, -4 (ix)
    00000AE9 11 0E 00         [10] 2607 	ld	de, #0x000e
    00000AEC 19               [11] 2608 	add	hl, de
    00000AED 7E               [ 7] 2609 	ld	a, (hl)
    00000AEE DD 77 FB         [19] 2610 	ld	-5 (ix), a
    00000AF1 23               [ 6] 2611 	inc	hl
    00000AF2 7E               [ 7] 2612 	ld	a, (hl)
    00000AF3 DD 77 FC         [19] 2613 	ld	-4 (ix), a
    00000AF6 DD 7E F9         [19] 2614 	ld	a, -7 (ix)
    00000AF9 DD 96 FB         [19] 2615 	sub	a, -5 (ix)
    00000AFC 20 08            [12] 2616 	jr	NZ, 00750$
    00000AFE DD 7E FA         [19] 2617 	ld	a, -6 (ix)
    00000B01 DD 96 FC         [19] 2618 	sub	a, -4 (ix)
    00000B04 28 04            [12] 2619 	jr	Z, 00284$
    00000B06                       2620 00750$:
    00000B06                       2621 00283$:
    00000B06 AF               [ 4] 2622 	xor	a, a
    00000B07 C3r0Cr0B         [10] 2623 	jp	00285$
    00000B0A                       2624 00284$:
    00000B0A 3E 01            [ 7] 2625 	ld	a, #0x01
    00000B0C                       2626 00285$:
    00000B0C DD 77 F6         [19] 2627 	ld	-10 (ix), a
                                   2628 ;E:\Dropbox\FAUSTO\SVILUPPI\MSX\CODE\C\MSXgl\projects\exsoccer/exsoccer_s2_b0.c:423: if (g_MatchStatus == MATCH_BEFORE_KICK_OFF && !playerInPosition) {
    00000B0F 3Ar00r00         [13] 2629 	ld	a, (_g_MatchStatus+0)
    00000B12 3D               [ 4] 2630 	dec	a
    00000B13 20 0A            [12] 2631 	jr	NZ, 00136$
    00000B15 DD 7E F6         [19] 2632 	ld	a, -10 (ix)
    00000B18 B7               [ 4] 2633 	or	a, a
    00000B19 20 04            [12] 2634 	jr	NZ, 00136$
                                   2635 ;E:\Dropbox\FAUSTO\SVILUPPI\MSX\CODE\C\MSXgl\projects\exsoccer/exsoccer_s2_b0.c:424: allPlayersInPosition = false;
    00000B1B DD 36 F0 00      [19] 2636 	ld	-16 (ix), #0x00
    00000B1F                       2637 00136$:
                                   2638 ;E:\Dropbox\FAUSTO\SVILUPPI\MSX\CODE\C\MSXgl\projects\exsoccer/exsoccer_s2_b0.c:427: if(g_MatchStatus==MATCH_IN_ACTION){
    00000B1F 3Ar00r00         [13] 2639 	ld	a, (_g_MatchStatus+0)
    00000B22 D6 0C            [ 7] 2640 	sub	a, #0x0c
    00000B24 C2rC9r0B         [10] 2641 	jp	NZ,00166$
                                   2642 ;E:\Dropbox\FAUSTO\SVILUPPI\MSX\CODE\C\MSXgl\projects\exsoccer/exsoccer_s2_b0.c:428: const TeamStats* stats = GetTeamStats(g_Players[i].TeamId);
    00000B27 DD 4E F2         [19] 2643 	ld	c, -14 (ix)
    00000B2A DD 46 F3         [19] 2644 	ld	b, -13 (ix)
    00000B2D 21 09 00         [10] 2645 	ld	hl, #9
    00000B30 09               [11] 2646 	add	hl, bc
    00000B31 7E               [ 7] 2647 	ld	a, (hl)
    00000B32 CDr00r00         [17] 2648 	call	_GetTeamStats
                                   2649 ;E:\Dropbox\FAUSTO\SVILUPPI\MSX\CODE\C\MSXgl\projects\exsoccer/exsoccer_s2_b0.c:429: u8 speed = stats->Speed;
    00000B35 1A               [ 7] 2650 	ld	a, (de)
    00000B36 DD 77 FB         [19] 2651 	ld	-5 (ix), a
                                   2652 ;E:\Dropbox\FAUSTO\SVILUPPI\MSX\CODE\C\MSXgl\projects\exsoccer/exsoccer_s2_b0.c:440: u8 tick = g_FrameCounter % 12; // Common multiple
    00000B39 2Ar00r00         [16] 2653 	ld	hl, (_g_FrameCounter)
    00000B3C 11 0C 00         [10] 2654 	ld	de, #0x000c
    00000B3F CDr00r00         [17] 2655 	call	__moduint
    00000B42 DD 73 FC         [19] 2656 	ld	-4 (ix), e
                                   2657 ;E:\Dropbox\FAUSTO\SVILUPPI\MSX\CODE\C\MSXgl\projects\exsoccer/exsoccer_s2_b0.c:441: bool move = false;
    00000B45 0E 00            [ 7] 2658 	ld	c, #0x00
                                   2659 ;E:\Dropbox\FAUSTO\SVILUPPI\MSX\CODE\C\MSXgl\projects\exsoccer/exsoccer_s2_b0.c:442: if (speed == 0) { if ((tick % 4) == 0) move = true; }
    00000B47 DD 7E FB         [19] 2660 	ld	a, -5 (ix)
    00000B4A B7               [ 4] 2661 	or	a, a
    00000B4B 20 0C            [12] 2662 	jr	NZ, 00161$
    00000B4D DD 7E FC         [19] 2663 	ld	a, -4 (ix)
    00000B50 E6 03            [ 7] 2664 	and	a, #0x03
    00000B52 20 6E            [12] 2665 	jr	NZ, 00162$
    00000B54 0E 01            [ 7] 2666 	ld	c, #0x01
    00000B56 C3rC2r0B         [10] 2667 	jp	00162$
    00000B59                       2668 00161$:
                                   2669 ;E:\Dropbox\FAUSTO\SVILUPPI\MSX\CODE\C\MSXgl\projects\exsoccer/exsoccer_s2_b0.c:443: else if (speed == 1) { if ((tick % 3) == 0) move = true; }
    00000B59 DD 7E FB         [19] 2670 	ld	a, -5 (ix)
    00000B5C 3D               [ 4] 2671 	dec	a
    00000B5D 20 16            [12] 2672 	jr	NZ, 00158$
    00000B5F DD 6E FC         [19] 2673 	ld	l, -4 (ix)
                                   2674 ;	spillPairReg hl
                                   2675 ;	spillPairReg hl
    00000B62 26 00            [ 7] 2676 	ld	h, #0x00
                                   2677 ;	spillPairReg hl
                                   2678 ;	spillPairReg hl
    00000B64 C5               [11] 2679 	push	bc
    00000B65 11 03 00         [10] 2680 	ld	de, #0x0003
    00000B68 CDr00r00         [17] 2681 	call	__modsint
    00000B6B C1               [10] 2682 	pop	bc
    00000B6C 7A               [ 4] 2683 	ld	a, d
    00000B6D B3               [ 4] 2684 	or	a, e
    00000B6E 20 52            [12] 2685 	jr	NZ, 00162$
    00000B70 0E 01            [ 7] 2686 	ld	c, #0x01
    00000B72 C3rC2r0B         [10] 2687 	jp	00162$
    00000B75                       2688 00158$:
                                   2689 ;E:\Dropbox\FAUSTO\SVILUPPI\MSX\CODE\C\MSXgl\projects\exsoccer/exsoccer_s2_b0.c:444: else if (speed == 2) { if ((tick % 2) == 0) move = true; }
    00000B75 DD 7E FB         [19] 2690 	ld	a, -5 (ix)
    00000B78 D6 02            [ 7] 2691 	sub	a, #0x02
    00000B7A 20 0B            [12] 2692 	jr	NZ, 00155$
    00000B7C DD CB FC 46      [20] 2693 	bit	0, -4 (ix)
    00000B80 20 40            [12] 2694 	jr	NZ, 00162$
    00000B82 0E 01            [ 7] 2695 	ld	c, #0x01
    00000B84 C3rC2r0B         [10] 2696 	jp	00162$
    00000B87                       2697 00155$:
                                   2698 ;E:\Dropbox\FAUSTO\SVILUPPI\MSX\CODE\C\MSXgl\projects\exsoccer/exsoccer_s2_b0.c:445: else if (speed == 3) { if ((tick % 3) != 2) move = true; } // 0, 1, 3, 4...
    00000B87 DD 7E FB         [19] 2699 	ld	a, -5 (ix)
    00000B8A D6 03            [ 7] 2700 	sub	a, #0x03
    00000B8C 20 18            [12] 2701 	jr	NZ, 00152$
    00000B8E DD 6E FC         [19] 2702 	ld	l, -4 (ix)
                                   2703 ;	spillPairReg hl
                                   2704 ;	spillPairReg hl
    00000B91 26 00            [ 7] 2705 	ld	h, #0x00
                                   2706 ;	spillPairReg hl
                                   2707 ;	spillPairReg hl
    00000B93 C5               [11] 2708 	push	bc
    00000B94 11 03 00         [10] 2709 	ld	de, #0x0003
    00000B97 CDr00r00         [17] 2710 	call	__modsint
    00000B9A C1               [10] 2711 	pop	bc
    00000B9B 7B               [ 4] 2712 	ld	a, e
    00000B9C D6 02            [ 7] 2713 	sub	a, #0x02
    00000B9E B2               [ 4] 2714 	or	a, d
    00000B9F 28 21            [12] 2715 	jr	Z, 00162$
    00000BA1 0E 01            [ 7] 2716 	ld	c, #0x01
    00000BA3 C3rC2r0B         [10] 2717 	jp	00162$
    00000BA6                       2718 00152$:
                                   2719 ;E:\Dropbox\FAUSTO\SVILUPPI\MSX\CODE\C\MSXgl\projects\exsoccer/exsoccer_s2_b0.c:446: else if (speed == 4) { if ((tick % 4) != 3) move = true; }
    00000BA6 DD 7E FB         [19] 2720 	ld	a, -5 (ix)
    00000BA9 D6 04            [ 7] 2721 	sub	a, #0x04
    00000BAB 20 13            [12] 2722 	jr	NZ, 00149$
    00000BAD DD 7E FC         [19] 2723 	ld	a, -4 (ix)
    00000BB0 E6 03            [ 7] 2724 	and	a, #0x03
    00000BB2 47               [ 4] 2725 	ld	b, a
    00000BB3 1E 00            [ 7] 2726 	ld	e, #0x00
    00000BB5 78               [ 4] 2727 	ld	a, b
    00000BB6 D6 03            [ 7] 2728 	sub	a, #0x03
    00000BB8 B3               [ 4] 2729 	or	a, e
    00000BB9 28 07            [12] 2730 	jr	Z, 00162$
    00000BBB 0E 01            [ 7] 2731 	ld	c, #0x01
    00000BBD C3rC2r0B         [10] 2732 	jp	00162$
    00000BC0                       2733 00149$:
                                   2734 ;E:\Dropbox\FAUSTO\SVILUPPI\MSX\CODE\C\MSXgl\projects\exsoccer/exsoccer_s2_b0.c:447: else move = true;
    00000BC0 0E 01            [ 7] 2735 	ld	c, #0x01
    00000BC2                       2736 00162$:
                                   2737 ;E:\Dropbox\FAUSTO\SVILUPPI\MSX\CODE\C\MSXgl\projects\exsoccer/exsoccer_s2_b0.c:449: if (!move) continue;
    00000BC2 79               [ 4] 2738 	ld	a, c
    00000BC3 B7               [ 4] 2739 	or	a, a
    00000BC4 20 0F            [12] 2740 	jr	NZ, 00167$
    00000BC6 C3r47r11         [10] 2741 	jp	00262$
    00000BC9                       2742 00166$:
                                   2743 ;E:\Dropbox\FAUSTO\SVILUPPI\MSX\CODE\C\MSXgl\projects\exsoccer/exsoccer_s2_b0.c:451: g_Players[i].AiTickCounter=0;
    00000BC9 DD 6E F2         [19] 2744 	ld	l, -14 (ix)
    00000BCC DD 66 F3         [19] 2745 	ld	h, -13 (ix)
    00000BCF 11 14 00         [10] 2746 	ld	de, #0x0014
    00000BD2 19               [11] 2747 	add	hl, de
    00000BD3 36 00            [10] 2748 	ld	(hl), #0x00
    00000BD5                       2749 00167$:
                                   2750 ;E:\Dropbox\FAUSTO\SVILUPPI\MSX\CODE\C\MSXgl\projects\exsoccer/exsoccer_s2_b0.c:454: if(!playerInPosition){
    00000BD5 DD 7E F6         [19] 2751 	ld	a, -10 (ix)
    00000BD8 B7               [ 4] 2752 	or	a, a
    00000BD9 C2r8Ar0F         [10] 2753 	jp	NZ, 00208$
                                   2754 ;E:\Dropbox\FAUSTO\SVILUPPI\MSX\CODE\C\MSXgl\projects\exsoccer/exsoccer_s2_b0.c:455: g_Players[i].Status=PLAYER_STATUS_NONE;
    00000BDC DD 6E F2         [19] 2755 	ld	l, -14 (ix)
    00000BDF DD 66 F3         [19] 2756 	ld	h, -13 (ix)
    00000BE2 11 12 00         [10] 2757 	ld	de, #0x0012
    00000BE5 19               [11] 2758 	add	hl, de
    00000BE6 AF               [ 4] 2759 	xor	a, a
    00000BE7 77               [ 7] 2760 	ld	(hl), a
    00000BE8 23               [ 6] 2761 	inc	hl
    00000BE9 77               [ 7] 2762 	ld	(hl), a
                                   2763 ;E:\Dropbox\FAUSTO\SVILUPPI\MSX\CODE\C\MSXgl\projects\exsoccer/exsoccer_s2_b0.c:420: bool playerInPosition = (g_Players[i].X == g_Players[i].TargetX && g_Players[i].Y == g_Players[i].TargetY);
    00000BEA DD 6E F4         [19] 2764 	ld	l, -12 (ix)
    00000BED DD 66 F5         [19] 2765 	ld	h, -11 (ix)
    00000BF0 7E               [ 7] 2766 	ld	a, (hl)
    00000BF1 DD 77 F7         [19] 2767 	ld	-9 (ix), a
    00000BF4 23               [ 6] 2768 	inc	hl
    00000BF5 7E               [ 7] 2769 	ld	a, (hl)
    00000BF6 DD 77 F8         [19] 2770 	ld	-8 (ix), a
    00000BF9 DD 6E FD         [19] 2771 	ld	l, -3 (ix)
    00000BFC DD 66 FE         [19] 2772 	ld	h, -2 (ix)
    00000BFF 7E               [ 7] 2773 	ld	a, (hl)
    00000C00 DD 77 F9         [19] 2774 	ld	-7 (ix), a
    00000C03 23               [ 6] 2775 	inc	hl
    00000C04 7E               [ 7] 2776 	ld	a, (hl)
    00000C05 DD 77 FA         [19] 2777 	ld	-6 (ix), a
    00000C08 DD 6E F2         [19] 2778 	ld	l, -14 (ix)
    00000C0B DD 66 F3         [19] 2779 	ld	h, -13 (ix)
    00000C0E 7E               [ 7] 2780 	ld	a, (hl)
    00000C0F DD 77 FB         [19] 2781 	ld	-5 (ix), a
    00000C12 23               [ 6] 2782 	inc	hl
    00000C13 7E               [ 7] 2783 	ld	a, (hl)
    00000C14 DD 77 FC         [19] 2784 	ld	-4 (ix), a
                                   2785 ;E:\Dropbox\FAUSTO\SVILUPPI\MSX\CODE\C\MSXgl\projects\exsoccer/exsoccer_s2_b0.c:456: if(g_Players[i].X<g_Players[i].TargetX && g_Players[i].Y>g_Players[i].TargetY){
    00000C17 DD 7E F7         [19] 2786 	ld	a, -9 (ix)
    00000C1A DD 96 F9         [19] 2787 	sub	a, -7 (ix)
    00000C1D DD 7E F8         [19] 2788 	ld	a, -8 (ix)
    00000C20 DD 9E FA         [19] 2789 	sbc	a, -6 (ix)
    00000C23 3E 00            [ 7] 2790 	ld	a, #0x00
    00000C25 17               [ 4] 2791 	rla
    00000C26 DD 77 FD         [19] 2792 	ld	-3 (ix), a
    00000C29 B7               [ 4] 2793 	or	a, a
    00000C2A 28 4A            [12] 2794 	jr	Z, 00196$
    00000C2C DD 4E F2         [19] 2795 	ld	c, -14 (ix)
    00000C2F DD 46 F3         [19] 2796 	ld	b, -13 (ix)
    00000C32 21 0E 00         [10] 2797 	ld	hl, #14
    00000C35 09               [11] 2798 	add	hl, bc
    00000C36 4E               [ 7] 2799 	ld	c, (hl)
    00000C37 23               [ 6] 2800 	inc	hl
    00000C38 46               [ 7] 2801 	ld	b, (hl)
    00000C39 79               [ 4] 2802 	ld	a, c
    00000C3A DD 96 FB         [19] 2803 	sub	a, -5 (ix)
    00000C3D 78               [ 4] 2804 	ld	a, b
    00000C3E DD 9E FC         [19] 2805 	sbc	a, -4 (ix)
    00000C41 30 33            [12] 2806 	jr	NC, 00196$
                                   2807 ;E:\Dropbox\FAUSTO\SVILUPPI\MSX\CODE\C\MSXgl\projects\exsoccer/exsoccer_s2_b0.c:457: g_Players[i].Direction=DIRECTION_UP_RIGHT;
    00000C43 DD 6E F2         [19] 2808 	ld	l, -14 (ix)
    00000C46 DD 66 F3         [19] 2809 	ld	h, -13 (ix)
    00000C49 11 0A 00         [10] 2810 	ld	de, #0x000a
    00000C4C 19               [11] 2811 	add	hl, de
    00000C4D 36 02            [10] 2812 	ld	(hl), #0x02
                                   2813 ;E:\Dropbox\FAUSTO\SVILUPPI\MSX\CODE\C\MSXgl\projects\exsoccer/exsoccer_s2_b0.c:458: g_Players[i].X++;
    00000C4F DD 6E F4         [19] 2814 	ld	l, -12 (ix)
    00000C52 DD 66 F5         [19] 2815 	ld	h, -11 (ix)
    00000C55 4E               [ 7] 2816 	ld	c, (hl)
    00000C56 23               [ 6] 2817 	inc	hl
    00000C57 46               [ 7] 2818 	ld	b, (hl)
    00000C58 03               [ 6] 2819 	inc	bc
    00000C59 DD 6E F4         [19] 2820 	ld	l, -12 (ix)
    00000C5C DD 66 F5         [19] 2821 	ld	h, -11 (ix)
    00000C5F 71               [ 7] 2822 	ld	(hl), c
    00000C60 23               [ 6] 2823 	inc	hl
    00000C61 70               [ 7] 2824 	ld	(hl), b
                                   2825 ;E:\Dropbox\FAUSTO\SVILUPPI\MSX\CODE\C\MSXgl\projects\exsoccer/exsoccer_s2_b0.c:459: g_Players[i].Y--;
    00000C62 DD 6E F2         [19] 2826 	ld	l, -14 (ix)
    00000C65 DD 66 F3         [19] 2827 	ld	h, -13 (ix)
    00000C68 4E               [ 7] 2828 	ld	c, (hl)
    00000C69 23               [ 6] 2829 	inc	hl
    00000C6A 46               [ 7] 2830 	ld	b, (hl)
    00000C6B 0B               [ 6] 2831 	dec	bc
    00000C6C D1               [10] 2832 	pop	de
    00000C6D E1               [10] 2833 	pop	hl
    00000C6E E5               [11] 2834 	push	hl
    00000C6F D5               [11] 2835 	push	de
    00000C70 71               [ 7] 2836 	ld	(hl), c
    00000C71 23               [ 6] 2837 	inc	hl
    00000C72 70               [ 7] 2838 	ld	(hl), b
    00000C73 C3r1Er0F         [10] 2839 	jp	00197$
    00000C76                       2840 00196$:
                                   2841 ;E:\Dropbox\FAUSTO\SVILUPPI\MSX\CODE\C\MSXgl\projects\exsoccer/exsoccer_s2_b0.c:461: else if(g_Players[i].X>g_Players[i].TargetX && g_Players[i].Y>g_Players[i].TargetY){
    00000C76 DD 7E F9         [19] 2842 	ld	a, -7 (ix)
    00000C79 DD 96 F7         [19] 2843 	sub	a, -9 (ix)
    00000C7C DD 7E FA         [19] 2844 	ld	a, -6 (ix)
    00000C7F DD 9E F8         [19] 2845 	sbc	a, -8 (ix)
    00000C82 3E 00            [ 7] 2846 	ld	a, #0x00
    00000C84 17               [ 4] 2847 	rla
    00000C85 DD 77 FE         [19] 2848 	ld	-2 (ix), a
    00000C88 B7               [ 4] 2849 	or	a, a
    00000C89 28 4A            [12] 2850 	jr	Z, 00192$
    00000C8B DD 4E F2         [19] 2851 	ld	c, -14 (ix)
    00000C8E DD 46 F3         [19] 2852 	ld	b, -13 (ix)
    00000C91 21 0E 00         [10] 2853 	ld	hl, #14
    00000C94 09               [11] 2854 	add	hl, bc
    00000C95 4E               [ 7] 2855 	ld	c, (hl)
    00000C96 23               [ 6] 2856 	inc	hl
    00000C97 46               [ 7] 2857 	ld	b, (hl)
    00000C98 79               [ 4] 2858 	ld	a, c
    00000C99 DD 96 FB         [19] 2859 	sub	a, -5 (ix)
    00000C9C 78               [ 4] 2860 	ld	a, b
    00000C9D DD 9E FC         [19] 2861 	sbc	a, -4 (ix)
    00000CA0 30 33            [12] 2862 	jr	NC, 00192$
                                   2863 ;E:\Dropbox\FAUSTO\SVILUPPI\MSX\CODE\C\MSXgl\projects\exsoccer/exsoccer_s2_b0.c:462: g_Players[i].Direction=DIRECTION_UP_LEFT;
    00000CA2 DD 6E F2         [19] 2864 	ld	l, -14 (ix)
    00000CA5 DD 66 F3         [19] 2865 	ld	h, -13 (ix)
    00000CA8 11 0A 00         [10] 2866 	ld	de, #0x000a
    00000CAB 19               [11] 2867 	add	hl, de
    00000CAC 36 08            [10] 2868 	ld	(hl), #0x08
                                   2869 ;E:\Dropbox\FAUSTO\SVILUPPI\MSX\CODE\C\MSXgl\projects\exsoccer/exsoccer_s2_b0.c:463: g_Players[i].X--;
    00000CAE DD 6E F4         [19] 2870 	ld	l, -12 (ix)
    00000CB1 DD 66 F5         [19] 2871 	ld	h, -11 (ix)
    00000CB4 4E               [ 7] 2872 	ld	c, (hl)
    00000CB5 23               [ 6] 2873 	inc	hl
    00000CB6 46               [ 7] 2874 	ld	b, (hl)
    00000CB7 0B               [ 6] 2875 	dec	bc
    00000CB8 DD 6E F4         [19] 2876 	ld	l, -12 (ix)
    00000CBB DD 66 F5         [19] 2877 	ld	h, -11 (ix)
    00000CBE 71               [ 7] 2878 	ld	(hl), c
    00000CBF 23               [ 6] 2879 	inc	hl
    00000CC0 70               [ 7] 2880 	ld	(hl), b
                                   2881 ;E:\Dropbox\FAUSTO\SVILUPPI\MSX\CODE\C\MSXgl\projects\exsoccer/exsoccer_s2_b0.c:464: g_Players[i].Y--;
    00000CC1 DD 6E F2         [19] 2882 	ld	l, -14 (ix)
    00000CC4 DD 66 F3         [19] 2883 	ld	h, -13 (ix)
    00000CC7 4E               [ 7] 2884 	ld	c, (hl)
    00000CC8 23               [ 6] 2885 	inc	hl
    00000CC9 46               [ 7] 2886 	ld	b, (hl)
    00000CCA 0B               [ 6] 2887 	dec	bc
    00000CCB D1               [10] 2888 	pop	de
    00000CCC E1               [10] 2889 	pop	hl
    00000CCD E5               [11] 2890 	push	hl
    00000CCE D5               [11] 2891 	push	de
    00000CCF 71               [ 7] 2892 	ld	(hl), c
    00000CD0 23               [ 6] 2893 	inc	hl
    00000CD1 70               [ 7] 2894 	ld	(hl), b
    00000CD2 C3r1Er0F         [10] 2895 	jp	00197$
    00000CD5                       2896 00192$:
                                   2897 ;E:\Dropbox\FAUSTO\SVILUPPI\MSX\CODE\C\MSXgl\projects\exsoccer/exsoccer_s2_b0.c:466: else if(g_Players[i].X>g_Players[i].TargetX && g_Players[i].Y<g_Players[i].TargetY){
    00000CD5 DD 7E FE         [19] 2898 	ld	a, -2 (ix)
    00000CD8 B7               [ 4] 2899 	or	a, a
    00000CD9 28 4A            [12] 2900 	jr	Z, 00188$
    00000CDB DD 4E F2         [19] 2901 	ld	c, -14 (ix)
    00000CDE DD 46 F3         [19] 2902 	ld	b, -13 (ix)
    00000CE1 21 0E 00         [10] 2903 	ld	hl, #14
    00000CE4 09               [11] 2904 	add	hl, bc
    00000CE5 4E               [ 7] 2905 	ld	c, (hl)
    00000CE6 23               [ 6] 2906 	inc	hl
    00000CE7 46               [ 7] 2907 	ld	b, (hl)
    00000CE8 DD 7E FB         [19] 2908 	ld	a, -5 (ix)
    00000CEB 91               [ 4] 2909 	sub	a, c
    00000CEC DD 7E FC         [19] 2910 	ld	a, -4 (ix)
    00000CEF 98               [ 4] 2911 	sbc	a, b
    00000CF0 30 33            [12] 2912 	jr	NC, 00188$
                                   2913 ;E:\Dropbox\FAUSTO\SVILUPPI\MSX\CODE\C\MSXgl\projects\exsoccer/exsoccer_s2_b0.c:467: g_Players[i].Direction=DIRECTION_DOWN_LEFT;
    00000CF2 DD 6E F2         [19] 2914 	ld	l, -14 (ix)
    00000CF5 DD 66 F3         [19] 2915 	ld	h, -13 (ix)
    00000CF8 11 0A 00         [10] 2916 	ld	de, #0x000a
    00000CFB 19               [11] 2917 	add	hl, de
    00000CFC 36 06            [10] 2918 	ld	(hl), #0x06
                                   2919 ;E:\Dropbox\FAUSTO\SVILUPPI\MSX\CODE\C\MSXgl\projects\exsoccer/exsoccer_s2_b0.c:468: g_Players[i].X--;
    00000CFE DD 6E F4         [19] 2920 	ld	l, -12 (ix)
    00000D01 DD 66 F5         [19] 2921 	ld	h, -11 (ix)
    00000D04 4E               [ 7] 2922 	ld	c, (hl)
    00000D05 23               [ 6] 2923 	inc	hl
    00000D06 46               [ 7] 2924 	ld	b, (hl)
    00000D07 0B               [ 6] 2925 	dec	bc
    00000D08 DD 6E F4         [19] 2926 	ld	l, -12 (ix)
    00000D0B DD 66 F5         [19] 2927 	ld	h, -11 (ix)
    00000D0E 71               [ 7] 2928 	ld	(hl), c
    00000D0F 23               [ 6] 2929 	inc	hl
    00000D10 70               [ 7] 2930 	ld	(hl), b
                                   2931 ;E:\Dropbox\FAUSTO\SVILUPPI\MSX\CODE\C\MSXgl\projects\exsoccer/exsoccer_s2_b0.c:469: g_Players[i].Y++;
    00000D11 DD 6E F2         [19] 2932 	ld	l, -14 (ix)
    00000D14 DD 66 F3         [19] 2933 	ld	h, -13 (ix)
    00000D17 4E               [ 7] 2934 	ld	c, (hl)
    00000D18 23               [ 6] 2935 	inc	hl
    00000D19 46               [ 7] 2936 	ld	b, (hl)
    00000D1A 03               [ 6] 2937 	inc	bc
    00000D1B D1               [10] 2938 	pop	de
    00000D1C E1               [10] 2939 	pop	hl
    00000D1D E5               [11] 2940 	push	hl
    00000D1E D5               [11] 2941 	push	de
    00000D1F 71               [ 7] 2942 	ld	(hl), c
    00000D20 23               [ 6] 2943 	inc	hl
    00000D21 70               [ 7] 2944 	ld	(hl), b
    00000D22 C3r1Er0F         [10] 2945 	jp	00197$
    00000D25                       2946 00188$:
                                   2947 ;E:\Dropbox\FAUSTO\SVILUPPI\MSX\CODE\C\MSXgl\projects\exsoccer/exsoccer_s2_b0.c:471: else if(g_Players[i].X<g_Players[i].TargetX && g_Players[i].Y<g_Players[i].TargetY){
    00000D25 DD 7E FD         [19] 2948 	ld	a, -3 (ix)
    00000D28 B7               [ 4] 2949 	or	a, a
    00000D29 28 4A            [12] 2950 	jr	Z, 00184$
    00000D2B DD 4E F2         [19] 2951 	ld	c, -14 (ix)
    00000D2E DD 46 F3         [19] 2952 	ld	b, -13 (ix)
    00000D31 21 0E 00         [10] 2953 	ld	hl, #14
    00000D34 09               [11] 2954 	add	hl, bc
    00000D35 4E               [ 7] 2955 	ld	c, (hl)
    00000D36 23               [ 6] 2956 	inc	hl
    00000D37 46               [ 7] 2957 	ld	b, (hl)
    00000D38 DD 7E FB         [19] 2958 	ld	a, -5 (ix)
    00000D3B 91               [ 4] 2959 	sub	a, c
    00000D3C DD 7E FC         [19] 2960 	ld	a, -4 (ix)
    00000D3F 98               [ 4] 2961 	sbc	a, b
    00000D40 30 33            [12] 2962 	jr	NC, 00184$
                                   2963 ;E:\Dropbox\FAUSTO\SVILUPPI\MSX\CODE\C\MSXgl\projects\exsoccer/exsoccer_s2_b0.c:472: g_Players[i].Direction=DIRECTION_DOWN_RIGHT;
    00000D42 DD 6E F2         [19] 2964 	ld	l, -14 (ix)
    00000D45 DD 66 F3         [19] 2965 	ld	h, -13 (ix)
    00000D48 11 0A 00         [10] 2966 	ld	de, #0x000a
    00000D4B 19               [11] 2967 	add	hl, de
    00000D4C 36 04            [10] 2968 	ld	(hl), #0x04
                                   2969 ;E:\Dropbox\FAUSTO\SVILUPPI\MSX\CODE\C\MSXgl\projects\exsoccer/exsoccer_s2_b0.c:473: g_Players[i].X++;
    00000D4E DD 6E F4         [19] 2970 	ld	l, -12 (ix)
    00000D51 DD 66 F5         [19] 2971 	ld	h, -11 (ix)
    00000D54 4E               [ 7] 2972 	ld	c, (hl)
    00000D55 23               [ 6] 2973 	inc	hl
    00000D56 46               [ 7] 2974 	ld	b, (hl)
    00000D57 03               [ 6] 2975 	inc	bc
    00000D58 DD 6E F4         [19] 2976 	ld	l, -12 (ix)
    00000D5B DD 66 F5         [19] 2977 	ld	h, -11 (ix)
    00000D5E 71               [ 7] 2978 	ld	(hl), c
    00000D5F 23               [ 6] 2979 	inc	hl
    00000D60 70               [ 7] 2980 	ld	(hl), b
                                   2981 ;E:\Dropbox\FAUSTO\SVILUPPI\MSX\CODE\C\MSXgl\projects\exsoccer/exsoccer_s2_b0.c:474: g_Players[i].Y++;
    00000D61 DD 6E F2         [19] 2982 	ld	l, -14 (ix)
    00000D64 DD 66 F3         [19] 2983 	ld	h, -13 (ix)
    00000D67 4E               [ 7] 2984 	ld	c, (hl)
    00000D68 23               [ 6] 2985 	inc	hl
    00000D69 46               [ 7] 2986 	ld	b, (hl)
    00000D6A 03               [ 6] 2987 	inc	bc
    00000D6B D1               [10] 2988 	pop	de
    00000D6C E1               [10] 2989 	pop	hl
    00000D6D E5               [11] 2990 	push	hl
    00000D6E D5               [11] 2991 	push	de
    00000D6F 71               [ 7] 2992 	ld	(hl), c
    00000D70 23               [ 6] 2993 	inc	hl
    00000D71 70               [ 7] 2994 	ld	(hl), b
    00000D72 C3r1Er0F         [10] 2995 	jp	00197$
    00000D75                       2996 00184$:
                                   2997 ;E:\Dropbox\FAUSTO\SVILUPPI\MSX\CODE\C\MSXgl\projects\exsoccer/exsoccer_s2_b0.c:476: else if(g_Players[i].X==g_Players[i].TargetX && g_Players[i].Y>g_Players[i].TargetY){
    00000D75 DD 7E F7         [19] 2998 	ld	a, -9 (ix)
    00000D78 DD 96 F9         [19] 2999 	sub	a, -7 (ix)
    00000D7B 20 0A            [12] 3000 	jr	NZ, 00769$
    00000D7D DD 7E F8         [19] 3001 	ld	a, -8 (ix)
    00000D80 DD 96 FA         [19] 3002 	sub	a, -6 (ix)
    00000D83 3E 01            [ 7] 3003 	ld	a, #0x01
    00000D85 28 01            [12] 3004 	jr	Z, 00770$
    00000D87                       3005 00769$:
    00000D87 AF               [ 4] 3006 	xor	a, a
    00000D88                       3007 00770$:
    00000D88 4F               [ 4] 3008 	ld	c, a
    00000D89 B7               [ 4] 3009 	or	a, a
    00000D8A 28 37            [12] 3010 	jr	Z, 00180$
    00000D8C DD 5E F2         [19] 3011 	ld	e, -14 (ix)
    00000D8F DD 56 F3         [19] 3012 	ld	d, -13 (ix)
    00000D92 21 0E 00         [10] 3013 	ld	hl, #14
    00000D95 19               [11] 3014 	add	hl, de
    00000D96 46               [ 7] 3015 	ld	b, (hl)
    00000D97 23               [ 6] 3016 	inc	hl
    00000D98 6E               [ 7] 3017 	ld	l, (hl)
                                   3018 ;	spillPairReg hl
    00000D99 78               [ 4] 3019 	ld	a, b
    00000D9A DD 96 FB         [19] 3020 	sub	a, -5 (ix)
    00000D9D 7D               [ 4] 3021 	ld	a, l
    00000D9E DD 9E FC         [19] 3022 	sbc	a, -4 (ix)
    00000DA1 30 20            [12] 3023 	jr	NC, 00180$
                                   3024 ;E:\Dropbox\FAUSTO\SVILUPPI\MSX\CODE\C\MSXgl\projects\exsoccer/exsoccer_s2_b0.c:477: g_Players[i].Direction=DIRECTION_UP;
    00000DA3 DD 6E F2         [19] 3025 	ld	l, -14 (ix)
    00000DA6 DD 66 F3         [19] 3026 	ld	h, -13 (ix)
    00000DA9 11 0A 00         [10] 3027 	ld	de, #0x000a
    00000DAC 19               [11] 3028 	add	hl, de
    00000DAD 36 01            [10] 3029 	ld	(hl), #0x01
                                   3030 ;E:\Dropbox\FAUSTO\SVILUPPI\MSX\CODE\C\MSXgl\projects\exsoccer/exsoccer_s2_b0.c:478: g_Players[i].Y--;
    00000DAF DD 6E F2         [19] 3031 	ld	l, -14 (ix)
    00000DB2 DD 66 F3         [19] 3032 	ld	h, -13 (ix)
    00000DB5 4E               [ 7] 3033 	ld	c, (hl)
    00000DB6 23               [ 6] 3034 	inc	hl
    00000DB7 46               [ 7] 3035 	ld	b, (hl)
    00000DB8 0B               [ 6] 3036 	dec	bc
    00000DB9 D1               [10] 3037 	pop	de
    00000DBA E1               [10] 3038 	pop	hl
    00000DBB E5               [11] 3039 	push	hl
    00000DBC D5               [11] 3040 	push	de
    00000DBD 71               [ 7] 3041 	ld	(hl), c
    00000DBE 23               [ 6] 3042 	inc	hl
    00000DBF 70               [ 7] 3043 	ld	(hl), b
    00000DC0 C3r1Er0F         [10] 3044 	jp	00197$
    00000DC3                       3045 00180$:
                                   3046 ;E:\Dropbox\FAUSTO\SVILUPPI\MSX\CODE\C\MSXgl\projects\exsoccer/exsoccer_s2_b0.c:480: else if(g_Players[i].X==g_Players[i].TargetX && g_Players[i].Y<g_Players[i].TargetY){
    00000DC3 79               [ 4] 3047 	ld	a, c
    00000DC4 B7               [ 4] 3048 	or	a, a
    00000DC5 28 5E            [12] 3049 	jr	Z, 00176$
    00000DC7 DD 4E F2         [19] 3050 	ld	c, -14 (ix)
    00000DCA DD 46 F3         [19] 3051 	ld	b, -13 (ix)
    00000DCD 21 0E 00         [10] 3052 	ld	hl, #14
    00000DD0 09               [11] 3053 	add	hl, bc
    00000DD1 4E               [ 7] 3054 	ld	c, (hl)
    00000DD2 23               [ 6] 3055 	inc	hl
    00000DD3 46               [ 7] 3056 	ld	b, (hl)
    00000DD4 DD 7E FB         [19] 3057 	ld	a, -5 (ix)
    00000DD7 91               [ 4] 3058 	sub	a, c
    00000DD8 DD 7E FC         [19] 3059 	ld	a, -4 (ix)
    00000DDB 98               [ 4] 3060 	sbc	a, b
    00000DDC 30 47            [12] 3061 	jr	NC, 00176$
                                   3062 ;E:\Dropbox\FAUSTO\SVILUPPI\MSX\CODE\C\MSXgl\projects\exsoccer/exsoccer_s2_b0.c:481: g_Players[i].Direction=DIRECTION_DOWN;
    00000DDE DD 7E F2         [19] 3063 	ld	a, -14 (ix)
    00000DE1 C6 0A            [ 7] 3064 	add	a, #0x0a
    00000DE3 DD 77 FD         [19] 3065 	ld	-3 (ix), a
    00000DE6 DD 7E F3         [19] 3066 	ld	a, -13 (ix)
    00000DE9 CE 00            [ 7] 3067 	adc	a, #0x00
    00000DEB DD 77 FE         [19] 3068 	ld	-2 (ix), a
    00000DEE DD 6E FD         [19] 3069 	ld	l, -3 (ix)
    00000DF1 DD 66 FE         [19] 3070 	ld	h, -2 (ix)
    00000DF4 36 05            [10] 3071 	ld	(hl), #0x05
                                   3072 ;E:\Dropbox\FAUSTO\SVILUPPI\MSX\CODE\C\MSXgl\projects\exsoccer/exsoccer_s2_b0.c:482: g_Players[i].Y++;
    00000DF6 DD 6E F2         [19] 3073 	ld	l, -14 (ix)
    00000DF9 DD 66 F3         [19] 3074 	ld	h, -13 (ix)
    00000DFC 7E               [ 7] 3075 	ld	a, (hl)
    00000DFD DD 77 FB         [19] 3076 	ld	-5 (ix), a
    00000E00 23               [ 6] 3077 	inc	hl
    00000E01 7E               [ 7] 3078 	ld	a, (hl)
    00000E02 DD 77 FC         [19] 3079 	ld	-4 (ix), a
    00000E05 DD 7E FB         [19] 3080 	ld	a, -5 (ix)
    00000E08 C6 01            [ 7] 3081 	add	a, #0x01
    00000E0A DD 77 FD         [19] 3082 	ld	-3 (ix), a
    00000E0D DD 7E FC         [19] 3083 	ld	a, -4 (ix)
    00000E10 CE 00            [ 7] 3084 	adc	a, #0x00
    00000E12 DD 77 FE         [19] 3085 	ld	-2 (ix), a
    00000E15 C1               [10] 3086 	pop	bc
    00000E16 E1               [10] 3087 	pop	hl
    00000E17 E5               [11] 3088 	push	hl
    00000E18 C5               [11] 3089 	push	bc
    00000E19 DD 7E FD         [19] 3090 	ld	a, -3 (ix)
    00000E1C 77               [ 7] 3091 	ld	(hl), a
    00000E1D 23               [ 6] 3092 	inc	hl
    00000E1E DD 7E FE         [19] 3093 	ld	a, -2 (ix)
    00000E21 77               [ 7] 3094 	ld	(hl), a
    00000E22 C3r1Er0F         [10] 3095 	jp	00197$
    00000E25                       3096 00176$:
                                   3097 ;E:\Dropbox\FAUSTO\SVILUPPI\MSX\CODE\C\MSXgl\projects\exsoccer/exsoccer_s2_b0.c:484: else if(g_Players[i].X<g_Players[i].TargetX && g_Players[i].Y==g_Players[i].TargetY){
    00000E25 DD 7E FD         [19] 3098 	ld	a, -3 (ix)
    00000E28 B7               [ 4] 3099 	or	a, a
    00000E29 28 78            [12] 3100 	jr	Z, 00172$
    00000E2B DD 7E F2         [19] 3101 	ld	a, -14 (ix)
    00000E2E DD 77 F9         [19] 3102 	ld	-7 (ix), a
    00000E31 DD 7E F3         [19] 3103 	ld	a, -13 (ix)
    00000E34 DD 77 FA         [19] 3104 	ld	-6 (ix), a
    00000E37 DD 6E F9         [19] 3105 	ld	l, -7 (ix)
    00000E3A DD 66 FA         [19] 3106 	ld	h, -6 (ix)
    00000E3D 11 0E 00         [10] 3107 	ld	de, #0x000e
    00000E40 19               [11] 3108 	add	hl, de
    00000E41 7E               [ 7] 3109 	ld	a, (hl)
    00000E42 DD 77 F9         [19] 3110 	ld	-7 (ix), a
    00000E45 23               [ 6] 3111 	inc	hl
    00000E46 7E               [ 7] 3112 	ld	a, (hl)
    00000E47 DD 77 FA         [19] 3113 	ld	-6 (ix), a
    00000E4A DD 7E FB         [19] 3114 	ld	a, -5 (ix)
    00000E4D DD 96 F9         [19] 3115 	sub	a, -7 (ix)
    00000E50 20 51            [12] 3116 	jr	NZ, 00172$
    00000E52 DD 7E FC         [19] 3117 	ld	a, -4 (ix)
    00000E55 DD 96 FA         [19] 3118 	sub	a, -6 (ix)
    00000E58 20 49            [12] 3119 	jr	NZ, 00172$
                                   3120 ;E:\Dropbox\FAUSTO\SVILUPPI\MSX\CODE\C\MSXgl\projects\exsoccer/exsoccer_s2_b0.c:485: g_Players[i].Direction=DIRECTION_RIGHT;
    00000E5A DD 7E F2         [19] 3121 	ld	a, -14 (ix)
    00000E5D C6 0A            [ 7] 3122 	add	a, #0x0a
    00000E5F DD 77 FD         [19] 3123 	ld	-3 (ix), a
    00000E62 DD 7E F3         [19] 3124 	ld	a, -13 (ix)
    00000E65 CE 00            [ 7] 3125 	adc	a, #0x00
    00000E67 DD 77 FE         [19] 3126 	ld	-2 (ix), a
    00000E6A DD 6E FD         [19] 3127 	ld	l, -3 (ix)
    00000E6D DD 66 FE         [19] 3128 	ld	h, -2 (ix)
    00000E70 36 03            [10] 3129 	ld	(hl), #0x03
                                   3130 ;E:\Dropbox\FAUSTO\SVILUPPI\MSX\CODE\C\MSXgl\projects\exsoccer/exsoccer_s2_b0.c:486: g_Players[i].X++;
    00000E72 DD 6E F4         [19] 3131 	ld	l, -12 (ix)
    00000E75 DD 66 F5         [19] 3132 	ld	h, -11 (ix)
    00000E78 7E               [ 7] 3133 	ld	a, (hl)
    00000E79 DD 77 FB         [19] 3134 	ld	-5 (ix), a
    00000E7C 23               [ 6] 3135 	inc	hl
    00000E7D 7E               [ 7] 3136 	ld	a, (hl)
    00000E7E DD 77 FC         [19] 3137 	ld	-4 (ix), a
    00000E81 DD 7E FB         [19] 3138 	ld	a, -5 (ix)
    00000E84 C6 01            [ 7] 3139 	add	a, #0x01
    00000E86 DD 77 FD         [19] 3140 	ld	-3 (ix), a
    00000E89 DD 7E FC         [19] 3141 	ld	a, -4 (ix)
    00000E8C CE 00            [ 7] 3142 	adc	a, #0x00
    00000E8E DD 77 FE         [19] 3143 	ld	-2 (ix), a
    00000E91 DD 6E F4         [19] 3144 	ld	l, -12 (ix)
    00000E94 DD 66 F5         [19] 3145 	ld	h, -11 (ix)
    00000E97 DD 7E FD         [19] 3146 	ld	a, -3 (ix)
    00000E9A 77               [ 7] 3147 	ld	(hl), a
    00000E9B 23               [ 6] 3148 	inc	hl
    00000E9C DD 7E FE         [19] 3149 	ld	a, -2 (ix)
    00000E9F 77               [ 7] 3150 	ld	(hl), a
    00000EA0 C3r1Er0F         [10] 3151 	jp	00197$
    00000EA3                       3152 00172$:
                                   3153 ;E:\Dropbox\FAUSTO\SVILUPPI\MSX\CODE\C\MSXgl\projects\exsoccer/exsoccer_s2_b0.c:488: else if(g_Players[i].X>g_Players[i].TargetX && g_Players[i].Y==g_Players[i].TargetY){
    00000EA3 DD 7E FE         [19] 3154 	ld	a, -2 (ix)
    00000EA6 B7               [ 4] 3155 	or	a, a
    00000EA7 28 75            [12] 3156 	jr	Z, 00197$
    00000EA9 DD 7E F2         [19] 3157 	ld	a, -14 (ix)
    00000EAC DD 77 FD         [19] 3158 	ld	-3 (ix), a
    00000EAF DD 7E F3         [19] 3159 	ld	a, -13 (ix)
    00000EB2 DD 77 FE         [19] 3160 	ld	-2 (ix), a
    00000EB5 DD 6E FD         [19] 3161 	ld	l, -3 (ix)
    00000EB8 DD 66 FE         [19] 3162 	ld	h, -2 (ix)
    00000EBB 11 0E 00         [10] 3163 	ld	de, #0x000e
    00000EBE 19               [11] 3164 	add	hl, de
    00000EBF 7E               [ 7] 3165 	ld	a, (hl)
    00000EC0 DD 77 FD         [19] 3166 	ld	-3 (ix), a
    00000EC3 23               [ 6] 3167 	inc	hl
    00000EC4 7E               [ 7] 3168 	ld	a, (hl)
    00000EC5 DD 77 FE         [19] 3169 	ld	-2 (ix), a
    00000EC8 DD 7E FB         [19] 3170 	ld	a, -5 (ix)
    00000ECB DD 96 FD         [19] 3171 	sub	a, -3 (ix)
    00000ECE 20 4E            [12] 3172 	jr	NZ, 00197$
    00000ED0 DD 7E FC         [19] 3173 	ld	a, -4 (ix)
    00000ED3 DD 96 FE         [19] 3174 	sub	a, -2 (ix)
    00000ED6 20 46            [12] 3175 	jr	NZ, 00197$
                                   3176 ;E:\Dropbox\FAUSTO\SVILUPPI\MSX\CODE\C\MSXgl\projects\exsoccer/exsoccer_s2_b0.c:489: g_Players[i].Direction=DIRECTION_LEFT;
    00000ED8 DD 7E F2         [19] 3177 	ld	a, -14 (ix)
    00000EDB C6 0A            [ 7] 3178 	add	a, #0x0a
    00000EDD DD 77 FD         [19] 3179 	ld	-3 (ix), a
    00000EE0 DD 7E F3         [19] 3180 	ld	a, -13 (ix)
    00000EE3 CE 00            [ 7] 3181 	adc	a, #0x00
    00000EE5 DD 77 FE         [19] 3182 	ld	-2 (ix), a
    00000EE8 DD 6E FD         [19] 3183 	ld	l, -3 (ix)
    00000EEB DD 66 FE         [19] 3184 	ld	h, -2 (ix)
    00000EEE 36 07            [10] 3185 	ld	(hl), #0x07
                                   3186 ;E:\Dropbox\FAUSTO\SVILUPPI\MSX\CODE\C\MSXgl\projects\exsoccer/exsoccer_s2_b0.c:490: g_Players[i].X--;
    00000EF0 DD 6E F4         [19] 3187 	ld	l, -12 (ix)
    00000EF3 DD 66 F5         [19] 3188 	ld	h, -11 (ix)
    00000EF6 7E               [ 7] 3189 	ld	a, (hl)
    00000EF7 DD 77 FB         [19] 3190 	ld	-5 (ix), a
    00000EFA 23               [ 6] 3191 	inc	hl
    00000EFB 7E               [ 7] 3192 	ld	a, (hl)
    00000EFC DD 77 FC         [19] 3193 	ld	-4 (ix), a
    00000EFF DD 7E FB         [19] 3194 	ld	a, -5 (ix)
    00000F02 C6 FF            [ 7] 3195 	add	a, #0xff
    00000F04 DD 77 FD         [19] 3196 	ld	-3 (ix), a
    00000F07 DD 7E FC         [19] 3197 	ld	a, -4 (ix)
    00000F0A CE FF            [ 7] 3198 	adc	a, #0xff
    00000F0C DD 77 FE         [19] 3199 	ld	-2 (ix), a
    00000F0F DD 6E F4         [19] 3200 	ld	l, -12 (ix)
    00000F12 DD 66 F5         [19] 3201 	ld	h, -11 (ix)
    00000F15 DD 7E FD         [19] 3202 	ld	a, -3 (ix)
    00000F18 77               [ 7] 3203 	ld	(hl), a
    00000F19 23               [ 6] 3204 	inc	hl
    00000F1A DD 7E FE         [19] 3205 	ld	a, -2 (ix)
    00000F1D 77               [ 7] 3206 	ld	(hl), a
    00000F1E                       3207 00197$:
                                   3208 ;E:\Dropbox\FAUSTO\SVILUPPI\MSX\CODE\C\MSXgl\projects\exsoccer/exsoccer_s2_b0.c:494: if(g_Players[i].Y < FIELD_BOUND_Y_TOP) g_Players[i].Y = FIELD_BOUND_Y_TOP;
    00000F1E DD 6E F2         [19] 3209 	ld	l, -14 (ix)
    00000F21 DD 66 F3         [19] 3210 	ld	h, -13 (ix)
    00000F24 4E               [ 7] 3211 	ld	c, (hl)
    00000F25 23               [ 6] 3212 	inc	hl
    00000F26 46               [ 7] 3213 	ld	b, (hl)
    00000F27 79               [ 4] 3214 	ld	a, c
    00000F28 D6 32            [ 7] 3215 	sub	a, #0x32
    00000F2A 78               [ 4] 3216 	ld	a, b
    00000F2B DE 00            [ 7] 3217 	sbc	a, #0x00
    00000F2D 30 09            [12] 3218 	jr	NC, 00200$
    00000F2F C1               [10] 3219 	pop	bc
    00000F30 E1               [10] 3220 	pop	hl
    00000F31 E5               [11] 3221 	push	hl
    00000F32 C5               [11] 3222 	push	bc
    00000F33 36 32            [10] 3223 	ld	(hl), #0x32
    00000F35 23               [ 6] 3224 	inc	hl
    00000F36 36 00            [10] 3225 	ld	(hl), #0x00
    00000F38                       3226 00200$:
                                   3227 ;E:\Dropbox\FAUSTO\SVILUPPI\MSX\CODE\C\MSXgl\projects\exsoccer/exsoccer_s2_b0.c:495: if(g_Players[i].Y > FIELD_BOUND_Y_BOTTOM) g_Players[i].Y = FIELD_BOUND_Y_BOTTOM;
    00000F38 DD 6E F2         [19] 3228 	ld	l, -14 (ix)
    00000F3B DD 66 F3         [19] 3229 	ld	h, -13 (ix)
    00000F3E 4E               [ 7] 3230 	ld	c, (hl)
    00000F3F 23               [ 6] 3231 	inc	hl
    00000F40 46               [ 7] 3232 	ld	b, (hl)
    00000F41 3E AE            [ 7] 3233 	ld	a, #0xae
    00000F43 B9               [ 4] 3234 	cp	a, c
    00000F44 3E 01            [ 7] 3235 	ld	a, #0x01
    00000F46 98               [ 4] 3236 	sbc	a, b
    00000F47 30 09            [12] 3237 	jr	NC, 00202$
    00000F49 C1               [10] 3238 	pop	bc
    00000F4A E1               [10] 3239 	pop	hl
    00000F4B E5               [11] 3240 	push	hl
    00000F4C C5               [11] 3241 	push	bc
    00000F4D 36 AE            [10] 3242 	ld	(hl), #0xae
    00000F4F 23               [ 6] 3243 	inc	hl
    00000F50 36 01            [10] 3244 	ld	(hl), #0x01
    00000F52                       3245 00202$:
                                   3246 ;E:\Dropbox\FAUSTO\SVILUPPI\MSX\CODE\C\MSXgl\projects\exsoccer/exsoccer_s2_b0.c:496: if(g_Players[i].X < FIELD_BOUND_X_LEFT) g_Players[i].X = FIELD_BOUND_X_LEFT;
    00000F52 DD 6E F4         [19] 3247 	ld	l, -12 (ix)
    00000F55 DD 66 F5         [19] 3248 	ld	h, -11 (ix)
    00000F58 4E               [ 7] 3249 	ld	c, (hl)
    00000F59 23               [ 6] 3250 	inc	hl
    00000F5A 46               [ 7] 3251 	ld	b, (hl)
    00000F5B 79               [ 4] 3252 	ld	a, c
    00000F5C D6 0A            [ 7] 3253 	sub	a, #0x0a
    00000F5E 78               [ 4] 3254 	ld	a, b
    00000F5F DE 00            [ 7] 3255 	sbc	a, #0x00
    00000F61 30 0B            [12] 3256 	jr	NC, 00204$
    00000F63 DD 6E F4         [19] 3257 	ld	l, -12 (ix)
    00000F66 DD 66 F5         [19] 3258 	ld	h, -11 (ix)
    00000F69 36 0A            [10] 3259 	ld	(hl), #0x0a
    00000F6B 23               [ 6] 3260 	inc	hl
    00000F6C 36 00            [10] 3261 	ld	(hl), #0x00
    00000F6E                       3262 00204$:
                                   3263 ;E:\Dropbox\FAUSTO\SVILUPPI\MSX\CODE\C\MSXgl\projects\exsoccer/exsoccer_s2_b0.c:497: if(g_Players[i].X > FIELD_BOUND_X_RIGHT) g_Players[i].X = FIELD_BOUND_X_RIGHT;
    00000F6E DD 6E F4         [19] 3264 	ld	l, -12 (ix)
    00000F71 DD 66 F5         [19] 3265 	ld	h, -11 (ix)
    00000F74 4E               [ 7] 3266 	ld	c, (hl)
    00000F75 23               [ 6] 3267 	inc	hl
    00000F76 46               [ 7] 3268 	ld	b, (hl)
    00000F77 3E F6            [ 7] 3269 	ld	a, #0xf6
    00000F79 B9               [ 4] 3270 	cp	a, c
    00000F7A 3E 00            [ 7] 3271 	ld	a, #0x00
    00000F7C 98               [ 4] 3272 	sbc	a, b
    00000F7D 30 0B            [12] 3273 	jr	NC, 00208$
    00000F7F DD 6E F4         [19] 3274 	ld	l, -12 (ix)
    00000F82 DD 66 F5         [19] 3275 	ld	h, -11 (ix)
    00000F85 36 F6            [10] 3276 	ld	(hl), #0xf6
    00000F87 23               [ 6] 3277 	inc	hl
    00000F88 36 00            [10] 3278 	ld	(hl), #0x00
    00000F8A                       3279 00208$:
                                   3280 ;E:\Dropbox\FAUSTO\SVILUPPI\MSX\CODE\C\MSXgl\projects\exsoccer/exsoccer_s2_b0.c:378: if (g_MatchStatus == MATCH_IN_ACTION && g_Players[i].Role == PLAYER_ROLE_GOALKEEPER) {
    00000F8A 3Ar00r00         [13] 3281 	ld	a, (_g_MatchStatus+0)
    00000F8D D6 0C            [ 7] 3282 	sub	a, #0x0c
    00000F8F 3E 01            [ 7] 3283 	ld	a, #0x01
    00000F91 28 01            [12] 3284 	jr	Z, 00776$
    00000F93 AF               [ 4] 3285 	xor	a, a
    00000F94                       3286 00776$:
                                   3287 ;E:\Dropbox\FAUSTO\SVILUPPI\MSX\CODE\C\MSXgl\projects\exsoccer/exsoccer_s2_b0.c:501: if (g_MatchStatus == MATCH_IN_ACTION || (isSetPieceSetup && g_Ball.PossessionPlayerId == i)) {
    00000F94 47               [ 4] 3288 	ld	b, a
    00000F95 B7               [ 4] 3289 	or	a, a
    00000F96 20 0F            [12] 3290 	jr	NZ, 00219$
    00000F98 DD 7E F1         [19] 3291 	ld	a, -15 (ix)
    00000F9B B7               [ 4] 3292 	or	a, a
    00000F9C 28 39            [12] 3293 	jr	Z, 00220$
    00000F9E 21r06r00         [10] 3294 	ld	hl, #(_g_Ball + 6)
    00000FA1 DD 7E FF         [19] 3295 	ld	a,-1 (ix)
    00000FA4 96               [ 7] 3296 	sub	a,(hl)
    00000FA5 20 30            [12] 3297 	jr	NZ, 00220$
    00000FA7                       3298 00219$:
                                   3299 ;E:\Dropbox\FAUSTO\SVILUPPI\MSX\CODE\C\MSXgl\projects\exsoccer/exsoccer_s2_b0.c:502: if (g_Ball.PossessionPlayerId == i) {
    00000FA7 21r06r00         [10] 3300 	ld	hl, #(_g_Ball + 6)
    00000FAA DD 7E FF         [19] 3301 	ld	a,-1 (ix)
    00000FAD 96               [ 7] 3302 	sub	a,(hl)
    00000FAE 20 27            [12] 3303 	jr	NZ, 00220$
                                   3304 ;E:\Dropbox\FAUSTO\SVILUPPI\MSX\CODE\C\MSXgl\projects\exsoccer/exsoccer_s2_b0.c:505: if (g_Ball.KickMoveState == NO_VALUE) g_Ball.KickMoveState = 0;
    00000FB0 11r0Dr00         [10] 3305 	ld	de, #_g_Ball + 13
                                   3306 ;E:\Dropbox\FAUSTO\SVILUPPI\MSX\CODE\C\MSXgl\projects\exsoccer/exsoccer_s2_b0.c:504: if (!playerInPosition && g_MatchStatus == MATCH_IN_ACTION) {
    00000FB3 DD 7E F6         [19] 3307 	ld	a, -10 (ix)
    00000FB6 B7               [ 4] 3308 	or	a,a
    00000FB7 20 16            [12] 3309 	jr	NZ, 00214$
    00000FB9 B0               [ 4] 3310 	or	a,b
    00000FBA 28 13            [12] 3311 	jr	Z, 00214$
                                   3312 ;E:\Dropbox\FAUSTO\SVILUPPI\MSX\CODE\C\MSXgl\projects\exsoccer/exsoccer_s2_b0.c:505: if (g_Ball.KickMoveState == NO_VALUE) g_Ball.KickMoveState = 0;
    00000FBC 1A               [ 7] 3313 	ld	a, (de)
    00000FBD 3C               [ 4] 3314 	inc	a
    00000FBE 20 01            [12] 3315 	jr	NZ, 00210$
    00000FC0 12               [ 7] 3316 	ld	(de), a
    00000FC1                       3317 00210$:
                                   3318 ;E:\Dropbox\FAUSTO\SVILUPPI\MSX\CODE\C\MSXgl\projects\exsoccer/exsoccer_s2_b0.c:506: g_Ball.KickMoveState++;
    00000FC1 1A               [ 7] 3319 	ld	a, (de)
    00000FC2 3C               [ 4] 3320 	inc	a
    00000FC3 4F               [ 4] 3321 	ld	c, a
    00000FC4 12               [ 7] 3322 	ld	(de), a
                                   3323 ;E:\Dropbox\FAUSTO\SVILUPPI\MSX\CODE\C\MSXgl\projects\exsoccer/exsoccer_s2_b0.c:507: if (g_Ball.KickMoveState > 3) g_Ball.KickMoveState = 0;
    00000FC5 3E 03            [ 7] 3324 	ld	a, #0x03
    00000FC7 91               [ 4] 3325 	sub	a, c
    00000FC8 30 07            [12] 3326 	jr	NC, 00215$
    00000FCA AF               [ 4] 3327 	xor	a, a
    00000FCB 12               [ 7] 3328 	ld	(de), a
    00000FCC C3rD1r0F         [10] 3329 	jp	00215$
    00000FCF                       3330 00214$:
                                   3331 ;E:\Dropbox\FAUSTO\SVILUPPI\MSX\CODE\C\MSXgl\projects\exsoccer/exsoccer_s2_b0.c:509: g_Ball.KickMoveState = 0;
    00000FCF AF               [ 4] 3332 	xor	a, a
    00000FD0 12               [ 7] 3333 	ld	(de), a
    00000FD1                       3334 00215$:
                                   3335 ;E:\Dropbox\FAUSTO\SVILUPPI\MSX\CODE\C\MSXgl\projects\exsoccer/exsoccer_s2_b0.c:511: PutBallOnPlayerFeet(i);
    00000FD1 DD 7E FF         [19] 3336 	ld	a, -1 (ix)
    00000FD4 CDr00r00         [17] 3337 	call	_PutBallOnPlayerFeet
    00000FD7                       3338 00220$:
                                   3339 ;E:\Dropbox\FAUSTO\SVILUPPI\MSX\CODE\C\MSXgl\projects\exsoccer/exsoccer_s2_b0.c:515: if (playerInPosition) {
    00000FD7 DD 7E F6         [19] 3340 	ld	a, -10 (ix)
    00000FDA B7               [ 4] 3341 	or	a, a
    00000FDB CAr47r11         [10] 3342 	jp	Z, 00262$
                                   3343 ;E:\Dropbox\FAUSTO\SVILUPPI\MSX\CODE\C\MSXgl\projects\exsoccer/exsoccer_s2_b0.c:517: if (g_MatchStatus == MATCH_BEFORE_CORNER_KICK || g_MatchStatus == MATCH_BEFORE_GOAL_KICK || 
    00000FDE 3Ar00r00         [13] 3344 	ld	a,(_g_MatchStatus+0)
    00000FE1 FE 02            [ 7] 3345 	cp	a,#0x02
    00000FE3 28 0C            [12] 3346 	jr	Z, 00233$
                                   3347 ;E:\Dropbox\FAUSTO\SVILUPPI\MSX\CODE\C\MSXgl\projects\exsoccer/exsoccer_s2_b0.c:518: g_MatchStatus == MATCH_BEFORE_OFFSIDE || g_MatchStatus == MATCH_BEFORE_THROW_IN) {
    00000FE5 FE 05            [ 7] 3348 	cp	a,#0x05
    00000FE7 28 08            [12] 3349 	jr	Z, 00233$
    00000FE9 FE 0E            [ 7] 3350 	cp	a,#0x0e
    00000FEB 28 04            [12] 3351 	jr	Z, 00233$
    00000FED D6 03            [ 7] 3352 	sub	a, #0x03
    00000FEF 20 63            [12] 3353 	jr	NZ, 00234$
    00000FF1                       3354 00233$:
                                   3355 ;E:\Dropbox\FAUSTO\SVILUPPI\MSX\CODE\C\MSXgl\projects\exsoccer/exsoccer_s2_b0.c:519: if (g_Players[i].Status != PLAYER_STATUS_POSITIONED) {
    00000FF1 DD 6E F2         [19] 3356 	ld	l, -14 (ix)
    00000FF4 DD 66 F3         [19] 3357 	ld	h, -13 (ix)
    00000FF7 11 12 00         [10] 3358 	ld	de, #0x0012
    00000FFA 19               [11] 3359 	add	hl, de
    00000FFB 4E               [ 7] 3360 	ld	c, (hl)
    00000FFC 23               [ 6] 3361 	inc	hl
    00000FFD 46               [ 7] 3362 	ld	b, (hl)
    00000FFE 2B               [ 6] 3363 	dec	hl
    00000FFF 79               [ 4] 3364 	ld	a, c
    00001000 D6 04            [ 7] 3365 	sub	a, #0x04
    00001002 B0               [ 4] 3366 	or	a, b
    00001003 28 4F            [12] 3367 	jr	Z, 00234$
                                   3368 ;E:\Dropbox\FAUSTO\SVILUPPI\MSX\CODE\C\MSXgl\projects\exsoccer/exsoccer_s2_b0.c:520: g_Players[i].Status = PLAYER_STATUS_POSITIONED;
    00001005 36 04            [10] 3369 	ld	(hl), #0x04
    00001007 23               [ 6] 3370 	inc	hl
    00001008 36 00            [10] 3371 	ld	(hl), #0x00
                                   3372 ;E:\Dropbox\FAUSTO\SVILUPPI\MSX\CODE\C\MSXgl\projects\exsoccer/exsoccer_s2_b0.c:521: g_Players[i].Direction = DIRECTION_NONE;
    0000100A DD 6E F2         [19] 3373 	ld	l, -14 (ix)
    0000100D DD 66 F3         [19] 3374 	ld	h, -13 (ix)
    00001010 11 0A 00         [10] 3375 	ld	de, #0x000a
    00001013 19               [11] 3376 	add	hl, de
    00001014 36 00            [10] 3377 	ld	(hl), #0x00
                                   3378 ;E:\Dropbox\FAUSTO\SVILUPPI\MSX\CODE\C\MSXgl\projects\exsoccer/exsoccer_s2_b0.c:522: u8 useDir = g_Players[i].PreviousDirection;
    00001016 DD 4E F2         [19] 3379 	ld	c, -14 (ix)
    00001019 DD 46 F3         [19] 3380 	ld	b, -13 (ix)
    0000101C 21 0B 00         [10] 3381 	ld	hl, #11
    0000101F 09               [11] 3382 	add	hl, bc
    00001020 7E               [ 7] 3383 	ld	a, (hl)
    00001021 4F               [ 4] 3384 	ld	c, a
                                   3385 ;E:\Dropbox\FAUSTO\SVILUPPI\MSX\CODE\C\MSXgl\projects\exsoccer/exsoccer_s2_b0.c:523: if (useDir == DIRECTION_NONE) {
    00001022 B7               [ 4] 3386 	or	a, a
    00001023 20 1E            [12] 3387 	jr	NZ, 00230$
                                   3388 ;E:\Dropbox\FAUSTO\SVILUPPI\MSX\CODE\C\MSXgl\projects\exsoccer/exsoccer_s2_b0.c:525: if(g_MatchStatus == MATCH_BEFORE_THROW_IN) {
    00001025 3Ar00r00         [13] 3389 	ld	a, (_g_MatchStatus+0)
    00001028 D6 03            [ 7] 3390 	sub	a, #0x03
    0000102A 20 15            [12] 3391 	jr	NZ, 00227$
                                   3392 ;E:\Dropbox\FAUSTO\SVILUPPI\MSX\CODE\C\MSXgl\projects\exsoccer/exsoccer_s2_b0.c:527: if(g_Ball.X < 128) useDir = DIRECTION_RIGHT; else useDir = DIRECTION_LEFT;
    0000102C 2Ar02r00         [16] 3393 	ld	hl, (#_g_Ball + 2)
    0000102F 11 80 00         [10] 3394 	ld	de, #0x0080
    00001032 BF               [ 4] 3395 	cp	a, a
    00001033 ED 52            [15] 3396 	sbc	hl, de
    00001035 30 05            [12] 3397 	jr	NC, 00224$
    00001037 0E 03            [ 7] 3398 	ld	c, #0x03
    00001039 C3r43r10         [10] 3399 	jp	00230$
    0000103C                       3400 00224$:
    0000103C 0E 07            [ 7] 3401 	ld	c, #0x07
    0000103E C3r43r10         [10] 3402 	jp	00230$
    00001041                       3403 00227$:
                                   3404 ;E:\Dropbox\FAUSTO\SVILUPPI\MSX\CODE\C\MSXgl\projects\exsoccer/exsoccer_s2_b0.c:529: useDir = DIRECTION_DOWN; 
    00001041 0E 05            [ 7] 3405 	ld	c, #0x05
    00001043                       3406 00230$:
                                   3407 ;E:\Dropbox\FAUSTO\SVILUPPI\MSX\CODE\C\MSXgl\projects\exsoccer/exsoccer_s2_b0.c:532: g_Players[i].PatternId = GetNoMovingPlayerPatternId(useDir);
    00001043 DD 6E F2         [19] 3408 	ld	l, -14 (ix)
    00001046 DD 66 F3         [19] 3409 	ld	h, -13 (ix)
    00001049 11 08 00         [10] 3410 	ld	de, #0x0008
    0000104C 19               [11] 3411 	add	hl, de
    0000104D E5               [11] 3412 	push	hl
    0000104E 79               [ 4] 3413 	ld	a, c
    0000104F CDr00r00         [17] 3414 	call	_GetNoMovingPlayerPatternId
    00001052 E1               [10] 3415 	pop	hl
    00001053 77               [ 7] 3416 	ld	(hl), a
    00001054                       3417 00234$:
                                   3418 ;E:\Dropbox\FAUSTO\SVILUPPI\MSX\CODE\C\MSXgl\projects\exsoccer/exsoccer_s2_b0.c:536: if(g_MatchStatus==MATCH_IN_ACTION){
    00001054 3Ar00r00         [13] 3419 	ld	a, (_g_MatchStatus+0)
    00001057 D6 0C            [ 7] 3420 	sub	a, #0x0c
    00001059 20 0F            [12] 3421 	jr	NZ, 00239$
                                   3422 ;E:\Dropbox\FAUSTO\SVILUPPI\MSX\CODE\C\MSXgl\projects\exsoccer/exsoccer_s2_b0.c:537: g_Players[i].Status=PLAYER_STATUS_POSITIONED;
    0000105B DD 6E F2         [19] 3423 	ld	l, -14 (ix)
    0000105E DD 66 F3         [19] 3424 	ld	h, -13 (ix)
    00001061 11 12 00         [10] 3425 	ld	de, #0x0012
    00001064 19               [11] 3426 	add	hl, de
    00001065 36 04            [10] 3427 	ld	(hl), #0x04
    00001067 23               [ 6] 3428 	inc	hl
    00001068 36 00            [10] 3429 	ld	(hl), #0x00
    0000106A                       3430 00239$:
                                   3431 ;E:\Dropbox\FAUSTO\SVILUPPI\MSX\CODE\C\MSXgl\projects\exsoccer/exsoccer_s2_b0.c:540: if (g_Players[i].TeamId == REFEREE) {
    0000106A DD 7E F2         [19] 3432 	ld	a, -14 (ix)
    0000106D C6 09            [ 7] 3433 	add	a, #0x09
    0000106F DD 77 FD         [19] 3434 	ld	-3 (ix), a
    00001072 DD 7E F3         [19] 3435 	ld	a, -13 (ix)
    00001075 CE 00            [ 7] 3436 	adc	a, #0x00
    00001077 DD 77 FE         [19] 3437 	ld	-2 (ix), a
    0000107A DD 6E FD         [19] 3438 	ld	l, -3 (ix)
    0000107D DD 66 FE         [19] 3439 	ld	h, -2 (ix)
    00001080 7E               [ 7] 3440 	ld	a, (hl)
    00001081 D6 0E            [ 7] 3441 	sub	a, #0x0e
    00001083 20 3A            [12] 3442 	jr	NZ, 00244$
                                   3443 ;E:\Dropbox\FAUSTO\SVILUPPI\MSX\CODE\C\MSXgl\projects\exsoccer/exsoccer_s2_b0.c:541: if(g_MatchStatus == MATCH_BEFORE_KICK_OFF || g_MatchStatus == MATCH_AFTER_IN_GOAL) {
    00001085 3Ar00r00         [13] 3444 	ld	a, (_g_MatchStatus+0)
    00001088 3D               [ 4] 3445 	dec	a
    00001089 28 07            [12] 3446 	jr	Z, 00240$
    0000108B 3Ar00r00         [13] 3447 	ld	a, (_g_MatchStatus+0)
    0000108E D6 06            [ 7] 3448 	sub	a, #0x06
    00001090 20 2D            [12] 3449 	jr	NZ, 00244$
    00001092                       3450 00240$:
                                   3451 ;E:\Dropbox\FAUSTO\SVILUPPI\MSX\CODE\C\MSXgl\projects\exsoccer/exsoccer_s2_b0.c:542: g_Players[i].Direction = DIRECTION_DOWN;
    00001092 DD 6E F2         [19] 3452 	ld	l, -14 (ix)
    00001095 DD 66 F3         [19] 3453 	ld	h, -13 (ix)
    00001098 11 0A 00         [10] 3454 	ld	de, #0x000a
    0000109B 19               [11] 3455 	add	hl, de
    0000109C 36 05            [10] 3456 	ld	(hl), #0x05
                                   3457 ;E:\Dropbox\FAUSTO\SVILUPPI\MSX\CODE\C\MSXgl\projects\exsoccer/exsoccer_s2_b0.c:543: g_Players[i].PatternId = PLAYER_POSE_FRONT;
    0000109E DD 6E F2         [19] 3458 	ld	l, -14 (ix)
    000010A1 DD 66 F3         [19] 3459 	ld	h, -13 (ix)
    000010A4 11 08 00         [10] 3460 	ld	de, #0x0008
    000010A7 19               [11] 3461 	add	hl, de
    000010A8 36 10            [10] 3462 	ld	(hl), #0x10
                                   3463 ;E:\Dropbox\FAUSTO\SVILUPPI\MSX\CODE\C\MSXgl\projects\exsoccer/exsoccer_s2_b0.c:544: g_Players[i].Status = PLAYER_STATUS_POSITIONED;
    000010AA DD 6E F2         [19] 3464 	ld	l, -14 (ix)
    000010AD DD 66 F3         [19] 3465 	ld	h, -13 (ix)
    000010B0 11 12 00         [10] 3466 	ld	de, #0x0012
    000010B3 19               [11] 3467 	add	hl, de
    000010B4 36 04            [10] 3468 	ld	(hl), #0x04
    000010B6 23               [ 6] 3469 	inc	hl
    000010B7 36 00            [10] 3470 	ld	(hl), #0x00
                                   3471 ;E:\Dropbox\FAUSTO\SVILUPPI\MSX\CODE\C\MSXgl\projects\exsoccer/exsoccer_s2_b0.c:545: PutPlayerSprite(i);
    000010B9 DD 7E FF         [19] 3472 	ld	a, -1 (ix)
    000010BC CDrA3r05         [17] 3473 	call	_PutPlayerSprite
    000010BF                       3474 00244$:
                                   3475 ;E:\Dropbox\FAUSTO\SVILUPPI\MSX\CODE\C\MSXgl\projects\exsoccer/exsoccer_s2_b0.c:551: if(g_MatchStatus==MATCH_BEFORE_KICK_OFF){
    000010BF 3Ar00r00         [13] 3476 	ld	a, (_g_MatchStatus+0)
    000010C2 3D               [ 4] 3477 	dec	a
    000010C3 C2r47r11         [10] 3478 	jp	NZ,00262$
                                   3479 ;E:\Dropbox\FAUSTO\SVILUPPI\MSX\CODE\C\MSXgl\projects\exsoccer/exsoccer_s2_b0.c:553: if(g_Players[i].TeamId!=REFEREE && g_Players[i].PatternId!=PLAYER_POSE_BACK && g_Players[i].PatternId!=PLAYER_POSE_FRONT){
    000010C6 DD 6E FD         [19] 3480 	ld	l, -3 (ix)
    000010C9 DD 66 FE         [19] 3481 	ld	h, -2 (ix)
    000010CC 7E               [ 7] 3482 	ld	a, (hl)
    000010CD D6 0E            [ 7] 3483 	sub	a, #0x0e
    000010CF 28 76            [12] 3484 	jr	Z, 00262$
    000010D1 DD 7E F2         [19] 3485 	ld	a, -14 (ix)
    000010D4 C6 08            [ 7] 3486 	add	a, #0x08
    000010D6 4F               [ 4] 3487 	ld	c, a
    000010D7 DD 7E F3         [19] 3488 	ld	a, -13 (ix)
    000010DA CE 00            [ 7] 3489 	adc	a, #0x00
    000010DC 47               [ 4] 3490 	ld	b, a
    000010DD 0A               [ 7] 3491 	ld	a, (bc)
    000010DE FE 11            [ 7] 3492 	cp	a, #0x11
    000010E0 28 65            [12] 3493 	jr	Z, 00262$
    000010E2 D6 10            [ 7] 3494 	sub	a, #0x10
    000010E4 28 61            [12] 3495 	jr	Z, 00262$
                                   3496 ;E:\Dropbox\FAUSTO\SVILUPPI\MSX\CODE\C\MSXgl\projects\exsoccer/exsoccer_s2_b0.c:554: g_Players[i].Status=PLAYER_STATUS_POSITIONED;
    000010E6 DD 6E F2         [19] 3497 	ld	l, -14 (ix)
    000010E9 DD 66 F3         [19] 3498 	ld	h, -13 (ix)
    000010EC 11 12 00         [10] 3499 	ld	de, #0x0012
    000010EF 19               [11] 3500 	add	hl, de
    000010F0 36 04            [10] 3501 	ld	(hl), #0x04
    000010F2 23               [ 6] 3502 	inc	hl
    000010F3 36 00            [10] 3503 	ld	(hl), #0x00
                                   3504 ;E:\Dropbox\FAUSTO\SVILUPPI\MSX\CODE\C\MSXgl\projects\exsoccer/exsoccer_s2_b0.c:457: g_Players[i].Direction=DIRECTION_UP_RIGHT;
    000010F5 DD 7E F2         [19] 3505 	ld	a, -14 (ix)
    000010F8 C6 0A            [ 7] 3506 	add	a, #0x0a
    000010FA 5F               [ 4] 3507 	ld	e, a
    000010FB DD 7E F3         [19] 3508 	ld	a, -13 (ix)
    000010FE CE 00            [ 7] 3509 	adc	a, #0x00
    00001100 57               [ 4] 3510 	ld	d, a
                                   3511 ;E:\Dropbox\FAUSTO\SVILUPPI\MSX\CODE\C\MSXgl\projects\exsoccer/exsoccer_s2_b0.c:540: if (g_Players[i].TeamId == REFEREE) {
    00001101 DD 6E FD         [19] 3512 	ld	l, -3 (ix)
    00001104 DD 66 FE         [19] 3513 	ld	h, -2 (ix)
    00001107 7E               [ 7] 3514 	ld	a, (hl)
                                   3515 ;E:\Dropbox\FAUSTO\SVILUPPI\MSX\CODE\C\MSXgl\projects\exsoccer/exsoccer_s2_b0.c:557: if(g_Players[i].TeamId==TEAM_1){
    00001108 3D               [ 4] 3516 	dec	a
    00001109 3E 01            [ 7] 3517 	ld	a, #0x01
    0000110B 28 01            [12] 3518 	jr	Z, 00804$
    0000110D AF               [ 4] 3519 	xor	a, a
    0000110E                       3520 00804$:
    0000110E DD 77 FE         [19] 3521 	ld	-2 (ix), a
                                   3522 ;E:\Dropbox\FAUSTO\SVILUPPI\MSX\CODE\C\MSXgl\projects\exsoccer/exsoccer_s2_b0.c:556: if (i != g_GoalScorerId) {
    00001111 DD 7E FF         [19] 3523 	ld	a, -1 (ix)
    00001114 21r00r00         [10] 3524 	ld	hl, #_g_GoalScorerId
    00001117 96               [ 7] 3525 	sub	a, (hl)
    00001118 28 18            [12] 3526 	jr	Z, 00252$
                                   3527 ;E:\Dropbox\FAUSTO\SVILUPPI\MSX\CODE\C\MSXgl\projects\exsoccer/exsoccer_s2_b0.c:557: if(g_Players[i].TeamId==TEAM_1){
    0000111A DD 7E FE         [19] 3528 	ld	a, -2 (ix)
    0000111D B7               [ 4] 3529 	or	a, a
    0000111E 28 09            [12] 3530 	jr	Z, 00246$
                                   3531 ;E:\Dropbox\FAUSTO\SVILUPPI\MSX\CODE\C\MSXgl\projects\exsoccer/exsoccer_s2_b0.c:558: g_Players[i].PatternId=PLAYER_POSE_BACK;
    00001120 3E 11            [ 7] 3532 	ld	a, #0x11
    00001122 02               [ 7] 3533 	ld	(bc), a
                                   3534 ;E:\Dropbox\FAUSTO\SVILUPPI\MSX\CODE\C\MSXgl\projects\exsoccer/exsoccer_s2_b0.c:559: g_Players[i].Direction=DIRECTION_UP;
    00001123 3E 01            [ 7] 3535 	ld	a, #0x01
    00001125 12               [ 7] 3536 	ld	(de), a
    00001126 C3r41r11         [10] 3537 	jp	00253$
    00001129                       3538 00246$:
                                   3539 ;E:\Dropbox\FAUSTO\SVILUPPI\MSX\CODE\C\MSXgl\projects\exsoccer/exsoccer_s2_b0.c:562: g_Players[i].PatternId=PLAYER_POSE_FRONT;
    00001129 3E 10            [ 7] 3540 	ld	a, #0x10
    0000112B 02               [ 7] 3541 	ld	(bc), a
                                   3542 ;E:\Dropbox\FAUSTO\SVILUPPI\MSX\CODE\C\MSXgl\projects\exsoccer/exsoccer_s2_b0.c:563: g_Players[i].Direction=DIRECTION_DOWN;
    0000112C 3E 05            [ 7] 3543 	ld	a, #0x05
    0000112E 12               [ 7] 3544 	ld	(de), a
    0000112F C3r41r11         [10] 3545 	jp	00253$
    00001132                       3546 00252$:
                                   3547 ;E:\Dropbox\FAUSTO\SVILUPPI\MSX\CODE\C\MSXgl\projects\exsoccer/exsoccer_s2_b0.c:569: if(g_Players[i].TeamId==TEAM_1) g_Players[i].Direction=DIRECTION_UP;
    00001132 DD 7E FE         [19] 3548 	ld	a, -2 (ix)
    00001135 B7               [ 4] 3549 	or	a, a
    00001136 28 06            [12] 3550 	jr	Z, 00249$
    00001138 3E 01            [ 7] 3551 	ld	a, #0x01
    0000113A 12               [ 7] 3552 	ld	(de), a
    0000113B C3r41r11         [10] 3553 	jp	00253$
    0000113E                       3554 00249$:
                                   3555 ;E:\Dropbox\FAUSTO\SVILUPPI\MSX\CODE\C\MSXgl\projects\exsoccer/exsoccer_s2_b0.c:570: else g_Players[i].Direction=DIRECTION_DOWN;
    0000113E 3E 05            [ 7] 3556 	ld	a, #0x05
    00001140 12               [ 7] 3557 	ld	(de), a
    00001141                       3558 00253$:
                                   3559 ;E:\Dropbox\FAUSTO\SVILUPPI\MSX\CODE\C\MSXgl\projects\exsoccer/exsoccer_s2_b0.c:572: PutPlayerSprite(i);
    00001141 DD 7E FF         [19] 3560 	ld	a, -1 (ix)
    00001144 CDrA3r05         [17] 3561 	call	_PutPlayerSprite
    00001147                       3562 00262$:
                                   3563 ;E:\Dropbox\FAUSTO\SVILUPPI\MSX\CODE\C\MSXgl\projects\exsoccer/exsoccer_s2_b0.c:376: for(u8 i=0;i<15;i++){
    00001147 DD 34 FF         [23] 3564 	inc	-1 (ix)
    0000114A C3r0Er09         [10] 3565 	jp	00271$
    0000114D                       3566 00263$:
                                   3567 ;E:\Dropbox\FAUSTO\SVILUPPI\MSX\CODE\C\MSXgl\projects\exsoccer/exsoccer_s2_b0.c:579: if(g_MatchStatus==MATCH_BEFORE_KICK_OFF && allPlayersInPosition && g_FieldScrollingActionInProgress==NO_VALUE){
    0000114D 3Ar00r00         [13] 3568 	ld	a, (_g_MatchStatus+0)
    00001150 3D               [ 4] 3569 	dec	a
    00001151 20 20            [12] 3570 	jr	NZ, 00272$
    00001153 DD 7E F0         [19] 3571 	ld	a, -16 (ix)
    00001156 B7               [ 4] 3572 	or	a, a
    00001157 28 1A            [12] 3573 	jr	Z, 00272$
    00001159 3Ar00r00         [13] 3574 	ld	a, (_g_FieldScrollingActionInProgress+0)
    0000115C 3C               [ 4] 3575 	inc	a
    0000115D 20 14            [12] 3576 	jr	NZ, 00272$
                                   3577 ;E:\Dropbox\FAUSTO\SVILUPPI\MSX\CODE\C\MSXgl\projects\exsoccer/exsoccer_s2_b0.c:580: g_FieldScrollSpeed=FIELD_SCROLL_GAME_SPEED;
    0000115F 21r00r00         [10] 3578 	ld	hl, #_g_FieldScrollSpeed
    00001162 36 05            [10] 3579 	ld	(hl), #0x05
                                   3580 ;E:\Dropbox\FAUSTO\SVILUPPI\MSX\CODE\C\MSXgl\projects\exsoccer/exsoccer_s2_b0.c:581: g_MatchStatus=MATCH_KICK_OFF;
    00001164 21r00r00         [10] 3581 	ld	hl, #_g_MatchStatus
    00001167 36 07            [10] 3582 	ld	(hl), #0x07
                                   3583 ;E:\Dropbox\FAUSTO\SVILUPPI\MSX\CODE\C\MSXgl\projects\exsoccer/exsoccer_s2_b0.c:582: g_Timer=0;
    00001169 21r00r00         [10] 3584 	ld	hl, #_g_Timer
    0000116C 36 00            [10] 3585 	ld	(hl), #0x00
                                   3586 ;E:\Dropbox\FAUSTO\SVILUPPI\MSX\CODE\C\MSXgl\projects\exsoccer/exsoccer_s2_b0.c:583: g_GoalScorerId = NO_VALUE; // Reset scorer
    0000116E 21r00r00         [10] 3587 	ld	hl, #_g_GoalScorerId
    00001171 36 FF            [10] 3588 	ld	(hl), #0xff
    00001173                       3589 00272$:
                                   3590 ;E:\Dropbox\FAUSTO\SVILUPPI\MSX\CODE\C\MSXgl\projects\exsoccer/exsoccer_s2_b0.c:587: }
    00001173 DD F9            [10] 3591 	ld	sp, ix
    00001175 DD E1            [14] 3592 	pop	ix
    00001177 C9               [10] 3593 	ret
                                   3594 ;E:\Dropbox\FAUSTO\SVILUPPI\MSX\CODE\C\MSXgl\projects\exsoccer/exsoccer_s2_b0.c:590: char *GetNumberString(u16 value)
                                   3595 ;	---------------------------------
                                   3596 ; Function GetNumberString
                                   3597 ; ---------------------------------
    00001178                       3598 _GetNumberString::
    00001178 EB               [ 4] 3599 	ex	de, hl
                                   3600 ;E:\Dropbox\FAUSTO\SVILUPPI\MSX\CODE\C\MSXgl\projects\exsoccer/exsoccer_s2_b0.c:594: if (value < 10) {
    00001179 4B               [ 4] 3601 	ld	c, e
    0000117A 42               [ 4] 3602 	ld	b, d
    0000117B 79               [ 4] 3603 	ld	a, c
    0000117C D6 0A            [ 7] 3604 	sub	a, #0x0a
    0000117E 78               [ 4] 3605 	ld	a, b
    0000117F DE 00            [ 7] 3606 	sbc	a, #0x00
    00001181 30 0D            [12] 3607 	jr	NC, 00102$
                                   3608 ;E:\Dropbox\FAUSTO\SVILUPPI\MSX\CODE\C\MSXgl\projects\exsoccer/exsoccer_s2_b0.c:595: str[0] = '0' + value;
    00001183 01r02r00         [10] 3609 	ld	bc, #_GetNumberString_str_65536_1308+0
    00001186 7B               [ 4] 3610 	ld	a, e
    00001187 C6 30            [ 7] 3611 	add	a, #0x30
    00001189 02               [ 7] 3612 	ld	(bc), a
                                   3613 ;E:\Dropbox\FAUSTO\SVILUPPI\MSX\CODE\C\MSXgl\projects\exsoccer/exsoccer_s2_b0.c:596: str[1] = '\0';
    0000118A 03               [ 6] 3614 	inc	bc
    0000118B AF               [ 4] 3615 	xor	a, a
    0000118C 02               [ 7] 3616 	ld	(bc), a
    0000118D C3rB3r11         [10] 3617 	jp	00103$
    00001190                       3618 00102$:
                                   3619 ;E:\Dropbox\FAUSTO\SVILUPPI\MSX\CODE\C\MSXgl\projects\exsoccer/exsoccer_s2_b0.c:598: str[0] = '0' + (value / 10);
    00001190 C5               [11] 3620 	push	bc
    00001191 11 0A 00         [10] 3621 	ld	de, #0x000a
    00001194 69               [ 4] 3622 	ld	l, c
                                   3623 ;	spillPairReg hl
                                   3624 ;	spillPairReg hl
    00001195 60               [ 4] 3625 	ld	h, b
                                   3626 ;	spillPairReg hl
                                   3627 ;	spillPairReg hl
    00001196 CDr00r00         [17] 3628 	call	__divuint
    00001199 C1               [10] 3629 	pop	bc
    0000119A 7B               [ 4] 3630 	ld	a, e
    0000119B C6 30            [ 7] 3631 	add	a, #0x30
    0000119D 32r02r00         [13] 3632 	ld	(#_GetNumberString_str_65536_1308),a
                                   3633 ;E:\Dropbox\FAUSTO\SVILUPPI\MSX\CODE\C\MSXgl\projects\exsoccer/exsoccer_s2_b0.c:599: str[1] = '0' + (value % 10);
    000011A0 11 0A 00         [10] 3634 	ld	de, #0x000a
    000011A3 69               [ 4] 3635 	ld	l, c
                                   3636 ;	spillPairReg hl
                                   3637 ;	spillPairReg hl
    000011A4 60               [ 4] 3638 	ld	h, b
                                   3639 ;	spillPairReg hl
                                   3640 ;	spillPairReg hl
    000011A5 CDr00r00         [17] 3641 	call	__moduint
    000011A8 7B               [ 4] 3642 	ld	a, e
    000011A9 C6 30            [ 7] 3643 	add	a, #0x30
    000011AB 32r03r00         [13] 3644 	ld	(#(_GetNumberString_str_65536_1308 + 1)),a
                                   3645 ;E:\Dropbox\FAUSTO\SVILUPPI\MSX\CODE\C\MSXgl\projects\exsoccer/exsoccer_s2_b0.c:600: str[2] = '\0';
    000011AE 21r04r00         [10] 3646 	ld	hl, #(_GetNumberString_str_65536_1308 + 2)
    000011B1 36 00            [10] 3647 	ld	(hl), #0x00
    000011B3                       3648 00103$:
                                   3649 ;E:\Dropbox\FAUSTO\SVILUPPI\MSX\CODE\C\MSXgl\projects\exsoccer/exsoccer_s2_b0.c:603: return str;
    000011B3 11r02r00         [10] 3650 	ld	de, #_GetNumberString_str_65536_1308
                                   3651 ;E:\Dropbox\FAUSTO\SVILUPPI\MSX\CODE\C\MSXgl\projects\exsoccer/exsoccer_s2_b0.c:604: }
    000011B6 C9               [10] 3652 	ret
                                   3653 ;E:\Dropbox\FAUSTO\SVILUPPI\MSX\CODE\C\MSXgl\projects\exsoccer/exsoccer_s2_b0.c:606: bool IsTeamJoystickTriggerPressed(u8 teamId){
                                   3654 ;	---------------------------------
                                   3655 ; Function IsTeamJoystickTriggerPressed
                                   3656 ; ---------------------------------
    000011B7                       3657 _IsTeamJoystickTriggerPressed::
    000011B7 4F               [ 4] 3658 	ld	c, a
                                   3659 ;E:\Dropbox\FAUSTO\SVILUPPI\MSX\CODE\C\MSXgl\projects\exsoccer/exsoccer_s2_b0.c:607: if(teamId==TEAM_1){
    000011B8 0D               [ 4] 3660 	dec	c
    000011B9 20 17            [12] 3661 	jr	NZ, 00108$
                                   3662 ;E:\Dropbox\FAUSTO\SVILUPPI\MSX\CODE\C\MSXgl\projects\exsoccer/exsoccer_s2_b0.c:609: u8 joyStat = Joystick_Read(JOY_PORT_1);
    000011BB 2E 0F            [ 7] 3663 	ld	l, #0x0f
                                   3664 ;	spillPairReg hl
                                   3665 ;	spillPairReg hl
    000011BD CDr00r00         [17] 3666 	call	_Joystick_Read
                                   3667 ;E:\Dropbox\FAUSTO\SVILUPPI\MSX\CODE\C\MSXgl\projects\exsoccer/exsoccer_s2_b0.c:610: if (IS_JOY_PRESSED(joyStat, JOY_INPUT_TRIGGER_A))
    000011C0 CB 65            [ 8] 3668 	bit	4, l
    000011C2 20 03            [12] 3669 	jr	NZ, 00102$
                                   3670 ;E:\Dropbox\FAUSTO\SVILUPPI\MSX\CODE\C\MSXgl\projects\exsoccer/exsoccer_s2_b0.c:612: return true;
    000011C4 3E 01            [ 7] 3671 	ld	a, #0x01
    000011C6 C9               [10] 3672 	ret
    000011C7                       3673 00102$:
                                   3674 ;E:\Dropbox\FAUSTO\SVILUPPI\MSX\CODE\C\MSXgl\projects\exsoccer/exsoccer_s2_b0.c:614: if(Keyboard_IsKeyPressed(KEY_SPACE))
    000011C7 3E 08            [ 7] 3675 	ld	a, #0x08
    000011C9 CDr00r00         [17] 3676 	call	_Keyboard_IsKeyPressed
    000011CC B7               [ 4] 3677 	or	a, a
    000011CD 28 0D            [12] 3678 	jr	Z, 00109$
                                   3679 ;E:\Dropbox\FAUSTO\SVILUPPI\MSX\CODE\C\MSXgl\projects\exsoccer/exsoccer_s2_b0.c:616: return true;
    000011CF 3E 01            [ 7] 3680 	ld	a, #0x01
    000011D1 C9               [10] 3681 	ret
    000011D2                       3682 00108$:
                                   3683 ;E:\Dropbox\FAUSTO\SVILUPPI\MSX\CODE\C\MSXgl\projects\exsoccer/exsoccer_s2_b0.c:620: u8 joyStat = Joystick_Read(JOY_PORT_2);
    000011D2 2E 4F            [ 7] 3684 	ld	l, #0x4f
                                   3685 ;	spillPairReg hl
                                   3686 ;	spillPairReg hl
    000011D4 CDr00r00         [17] 3687 	call	_Joystick_Read
                                   3688 ;E:\Dropbox\FAUSTO\SVILUPPI\MSX\CODE\C\MSXgl\projects\exsoccer/exsoccer_s2_b0.c:621: if (IS_JOY_PRESSED(joyStat, JOY_INPUT_TRIGGER_A))
    000011D7 CB 65            [ 8] 3689 	bit	4, l
                                   3690 ;E:\Dropbox\FAUSTO\SVILUPPI\MSX\CODE\C\MSXgl\projects\exsoccer/exsoccer_s2_b0.c:623: return true;
                                   3691 ;E:\Dropbox\FAUSTO\SVILUPPI\MSX\CODE\C\MSXgl\projects\exsoccer/exsoccer_s2_b0.c:626: return FALSE;
    000011D9 3E 01            [ 7] 3692 	ld	a, #0x01
    000011DB C8               [11] 3693 	ret	Z
    000011DC                       3694 00109$:
    000011DC AF               [ 4] 3695 	xor	a, a
                                   3696 ;E:\Dropbox\FAUSTO\SVILUPPI\MSX\CODE\C\MSXgl\projects\exsoccer/exsoccer_s2_b0.c:627: }
    000011DD C9               [10] 3697 	ret
                                   3698 ;E:\Dropbox\FAUSTO\SVILUPPI\MSX\CODE\C\MSXgl\projects\exsoccer/exsoccer_s2_b0.c:628: u8 GetJoystick1Direction(){
                                   3699 ;	---------------------------------
                                   3700 ; Function GetJoystick1Direction
                                   3701 ; ---------------------------------
    000011DE                       3702 _GetJoystick1Direction::
                                   3703 ;E:/Dropbox/FAUSTO/SVILUPPI/MSX/CODE/C/MSXgl/engine/src/input.h:182: u8 in = ~Joystick_Read(port);
    000011DE 2E 0F            [ 7] 3704 	ld	l, #0x0f
                                   3705 ;	spillPairReg hl
                                   3706 ;	spillPairReg hl
    000011E0 CDr00r00         [17] 3707 	call	_Joystick_Read
    000011E3 7D               [ 4] 3708 	ld	a, l
    000011E4 2F               [ 4] 3709 	cpl
                                   3710 ;E:\Dropbox\FAUSTO\SVILUPPI\MSX\CODE\C\MSXgl\projects\exsoccer/exsoccer_s2_b0.c:629: u8 dir = Joystick_GetDirection(JOY_PORT_1);
    000011E5 E6 0F            [ 7] 3711 	and	a, #0x0f
    000011E7 47               [ 4] 3712 	ld	b, a
    000011E8 58               [ 4] 3713 	ld	e, b
                                   3714 ;E:\Dropbox\FAUSTO\SVILUPPI\MSX\CODE\C\MSXgl\projects\exsoccer/exsoccer_s2_b0.c:630: u8 retValue=DIRECTION_NONE;
    000011E9 0E 00            [ 7] 3715 	ld	c, #0x00
                                   3716 ;E:\Dropbox\FAUSTO\SVILUPPI\MSX\CODE\C\MSXgl\projects\exsoccer/exsoccer_s2_b0.c:631: switch (dir){
    000011EB 3E 0A            [ 7] 3717 	ld	a, #0x0a
    000011ED 90               [ 4] 3718 	sub	a, b
    000011EE 38 4F            [12] 3719 	jr	C, 00109$
    000011F0 16 00            [ 7] 3720 	ld	d, #0x00
    000011F2 21rF9r11         [10] 3721 	ld	hl, #00229$
    000011F5 19               [11] 3722 	add	hl, de
    000011F6 19               [11] 3723 	add	hl, de
    000011F7 19               [11] 3724 	add	hl, de
    000011F8 E9               [ 4] 3725 	jp	(hl)
    000011F9                       3726 00229$:
    000011F9 C3r3Fr12         [10] 3727 	jp	00109$
    000011FC C3r1Ar12         [10] 3728 	jp	00101$
    000011FF C3r1Fr12         [10] 3729 	jp	00102$
    00001202 C3r3Fr12         [10] 3730 	jp	00109$
    00001205 C3r24r12         [10] 3731 	jp	00103$
    00001208 C3r33r12         [10] 3732 	jp	00106$
    0000120B C3r3Dr12         [10] 3733 	jp	00108$
    0000120E C3r3Fr12         [10] 3734 	jp	00109$
    00001211 C3r29r12         [10] 3735 	jp	00104$
    00001214 C3r2Er12         [10] 3736 	jp	00105$
    00001217 C3r38r12         [10] 3737 	jp	00107$
                                   3738 ;E:\Dropbox\FAUSTO\SVILUPPI\MSX\CODE\C\MSXgl\projects\exsoccer/exsoccer_s2_b0.c:632: case JOY_INPUT_DIR_UP:
    0000121A                       3739 00101$:
                                   3740 ;E:\Dropbox\FAUSTO\SVILUPPI\MSX\CODE\C\MSXgl\projects\exsoccer/exsoccer_s2_b0.c:633: retValue=DIRECTION_UP;
    0000121A 0E 01            [ 7] 3741 	ld	c, #0x01
                                   3742 ;E:\Dropbox\FAUSTO\SVILUPPI\MSX\CODE\C\MSXgl\projects\exsoccer/exsoccer_s2_b0.c:634: break;
    0000121C C3r3Fr12         [10] 3743 	jp	00109$
                                   3744 ;E:\Dropbox\FAUSTO\SVILUPPI\MSX\CODE\C\MSXgl\projects\exsoccer/exsoccer_s2_b0.c:635: case JOY_INPUT_DIR_DOWN:
    0000121F                       3745 00102$:
                                   3746 ;E:\Dropbox\FAUSTO\SVILUPPI\MSX\CODE\C\MSXgl\projects\exsoccer/exsoccer_s2_b0.c:636: retValue=DIRECTION_DOWN;
    0000121F 0E 05            [ 7] 3747 	ld	c, #0x05
                                   3748 ;E:\Dropbox\FAUSTO\SVILUPPI\MSX\CODE\C\MSXgl\projects\exsoccer/exsoccer_s2_b0.c:637: break;
    00001221 C3r3Fr12         [10] 3749 	jp	00109$
                                   3750 ;E:\Dropbox\FAUSTO\SVILUPPI\MSX\CODE\C\MSXgl\projects\exsoccer/exsoccer_s2_b0.c:638: case JOY_INPUT_DIR_LEFT:
    00001224                       3751 00103$:
                                   3752 ;E:\Dropbox\FAUSTO\SVILUPPI\MSX\CODE\C\MSXgl\projects\exsoccer/exsoccer_s2_b0.c:639: retValue=DIRECTION_LEFT;
    00001224 0E 07            [ 7] 3753 	ld	c, #0x07
                                   3754 ;E:\Dropbox\FAUSTO\SVILUPPI\MSX\CODE\C\MSXgl\projects\exsoccer/exsoccer_s2_b0.c:640: break;
    00001226 C3r3Fr12         [10] 3755 	jp	00109$
                                   3756 ;E:\Dropbox\FAUSTO\SVILUPPI\MSX\CODE\C\MSXgl\projects\exsoccer/exsoccer_s2_b0.c:641: case JOY_INPUT_DIR_RIGHT:
    00001229                       3757 00104$:
                                   3758 ;E:\Dropbox\FAUSTO\SVILUPPI\MSX\CODE\C\MSXgl\projects\exsoccer/exsoccer_s2_b0.c:642: retValue=DIRECTION_RIGHT;
    00001229 0E 03            [ 7] 3759 	ld	c, #0x03
                                   3760 ;E:\Dropbox\FAUSTO\SVILUPPI\MSX\CODE\C\MSXgl\projects\exsoccer/exsoccer_s2_b0.c:643: break;
    0000122B C3r3Fr12         [10] 3761 	jp	00109$
                                   3762 ;E:\Dropbox\FAUSTO\SVILUPPI\MSX\CODE\C\MSXgl\projects\exsoccer/exsoccer_s2_b0.c:644: case JOY_INPUT_DIR_UP_RIGHT:
    0000122E                       3763 00105$:
                                   3764 ;E:\Dropbox\FAUSTO\SVILUPPI\MSX\CODE\C\MSXgl\projects\exsoccer/exsoccer_s2_b0.c:645: retValue=DIRECTION_UP_RIGHT;
    0000122E 0E 02            [ 7] 3765 	ld	c, #0x02
                                   3766 ;E:\Dropbox\FAUSTO\SVILUPPI\MSX\CODE\C\MSXgl\projects\exsoccer/exsoccer_s2_b0.c:646: break;
    00001230 C3r3Fr12         [10] 3767 	jp	00109$
                                   3768 ;E:\Dropbox\FAUSTO\SVILUPPI\MSX\CODE\C\MSXgl\projects\exsoccer/exsoccer_s2_b0.c:647: case JOY_INPUT_DIR_UP_LEFT:
    00001233                       3769 00106$:
                                   3770 ;E:\Dropbox\FAUSTO\SVILUPPI\MSX\CODE\C\MSXgl\projects\exsoccer/exsoccer_s2_b0.c:648: retValue=DIRECTION_UP_LEFT;
    00001233 0E 08            [ 7] 3771 	ld	c, #0x08
                                   3772 ;E:\Dropbox\FAUSTO\SVILUPPI\MSX\CODE\C\MSXgl\projects\exsoccer/exsoccer_s2_b0.c:649: break;
    00001235 C3r3Fr12         [10] 3773 	jp	00109$
                                   3774 ;E:\Dropbox\FAUSTO\SVILUPPI\MSX\CODE\C\MSXgl\projects\exsoccer/exsoccer_s2_b0.c:650: case JOY_INPUT_DIR_DOWN_RIGHT:
    00001238                       3775 00107$:
                                   3776 ;E:\Dropbox\FAUSTO\SVILUPPI\MSX\CODE\C\MSXgl\projects\exsoccer/exsoccer_s2_b0.c:651: retValue=DIRECTION_DOWN_RIGHT;
    00001238 0E 04            [ 7] 3777 	ld	c, #0x04
                                   3778 ;E:\Dropbox\FAUSTO\SVILUPPI\MSX\CODE\C\MSXgl\projects\exsoccer/exsoccer_s2_b0.c:652: break;
    0000123A C3r3Fr12         [10] 3779 	jp	00109$
                                   3780 ;E:\Dropbox\FAUSTO\SVILUPPI\MSX\CODE\C\MSXgl\projects\exsoccer/exsoccer_s2_b0.c:653: case JOY_INPUT_DIR_DOWN_LEFT:
    0000123D                       3781 00108$:
                                   3782 ;E:\Dropbox\FAUSTO\SVILUPPI\MSX\CODE\C\MSXgl\projects\exsoccer/exsoccer_s2_b0.c:654: retValue=DIRECTION_DOWN_LEFT;
    0000123D 0E 06            [ 7] 3783 	ld	c, #0x06
                                   3784 ;E:\Dropbox\FAUSTO\SVILUPPI\MSX\CODE\C\MSXgl\projects\exsoccer/exsoccer_s2_b0.c:656: }
    0000123F                       3785 00109$:
                                   3786 ;E:\Dropbox\FAUSTO\SVILUPPI\MSX\CODE\C\MSXgl\projects\exsoccer/exsoccer_s2_b0.c:657: if(retValue==DIRECTION_NONE){
    0000123F 79               [ 4] 3787 	ld	a, c
    00001240 B7               [ 4] 3788 	or	a, a
    00001241 C2rDCr12         [10] 3789 	jp	NZ, 00135$
                                   3790 ;E:\Dropbox\FAUSTO\SVILUPPI\MSX\CODE\C\MSXgl\projects\exsoccer/exsoccer_s2_b0.c:658: if(Keyboard_IsKeyPressed(KEY_LEFT) && Keyboard_IsKeyPressed(KEY_UP))
    00001244 C5               [11] 3791 	push	bc
    00001245 3E 48            [ 7] 3792 	ld	a, #0x48
    00001247 CDr00r00         [17] 3793 	call	_Keyboard_IsKeyPressed
    0000124A C1               [10] 3794 	pop	bc
    0000124B B7               [ 4] 3795 	or	a, a
    0000124C 28 0C            [12] 3796 	jr	Z, 00111$
    0000124E C5               [11] 3797 	push	bc
    0000124F 3E 58            [ 7] 3798 	ld	a, #0x58
    00001251 CDr00r00         [17] 3799 	call	_Keyboard_IsKeyPressed
    00001254 C1               [10] 3800 	pop	bc
    00001255 B7               [ 4] 3801 	or	a, a
    00001256 28 02            [12] 3802 	jr	Z, 00111$
                                   3803 ;E:\Dropbox\FAUSTO\SVILUPPI\MSX\CODE\C\MSXgl\projects\exsoccer/exsoccer_s2_b0.c:660: retValue=DIRECTION_UP_LEFT;
    00001258 0E 08            [ 7] 3804 	ld	c, #0x08
    0000125A                       3805 00111$:
                                   3806 ;E:\Dropbox\FAUSTO\SVILUPPI\MSX\CODE\C\MSXgl\projects\exsoccer/exsoccer_s2_b0.c:662: if(Keyboard_IsKeyPressed(KEY_LEFT) && Keyboard_IsKeyPressed(KEY_DOWN))
    0000125A C5               [11] 3807 	push	bc
    0000125B 3E 48            [ 7] 3808 	ld	a, #0x48
    0000125D CDr00r00         [17] 3809 	call	_Keyboard_IsKeyPressed
    00001260 C1               [10] 3810 	pop	bc
    00001261 B7               [ 4] 3811 	or	a, a
    00001262 28 0C            [12] 3812 	jr	Z, 00114$
    00001264 C5               [11] 3813 	push	bc
    00001265 3E 68            [ 7] 3814 	ld	a, #0x68
    00001267 CDr00r00         [17] 3815 	call	_Keyboard_IsKeyPressed
    0000126A C1               [10] 3816 	pop	bc
    0000126B B7               [ 4] 3817 	or	a, a
    0000126C 28 02            [12] 3818 	jr	Z, 00114$
                                   3819 ;E:\Dropbox\FAUSTO\SVILUPPI\MSX\CODE\C\MSXgl\projects\exsoccer/exsoccer_s2_b0.c:664: retValue=DIRECTION_DOWN_LEFT;
    0000126E 0E 06            [ 7] 3820 	ld	c, #0x06
    00001270                       3821 00114$:
                                   3822 ;E:\Dropbox\FAUSTO\SVILUPPI\MSX\CODE\C\MSXgl\projects\exsoccer/exsoccer_s2_b0.c:666: if(Keyboard_IsKeyPressed(KEY_RIGHT) && Keyboard_IsKeyPressed(KEY_DOWN))
    00001270 C5               [11] 3823 	push	bc
    00001271 3E 78            [ 7] 3824 	ld	a, #0x78
    00001273 CDr00r00         [17] 3825 	call	_Keyboard_IsKeyPressed
    00001276 C1               [10] 3826 	pop	bc
    00001277 B7               [ 4] 3827 	or	a, a
    00001278 28 0C            [12] 3828 	jr	Z, 00117$
    0000127A C5               [11] 3829 	push	bc
    0000127B 3E 68            [ 7] 3830 	ld	a, #0x68
    0000127D CDr00r00         [17] 3831 	call	_Keyboard_IsKeyPressed
    00001280 C1               [10] 3832 	pop	bc
    00001281 B7               [ 4] 3833 	or	a, a
    00001282 28 02            [12] 3834 	jr	Z, 00117$
                                   3835 ;E:\Dropbox\FAUSTO\SVILUPPI\MSX\CODE\C\MSXgl\projects\exsoccer/exsoccer_s2_b0.c:668: retValue=DIRECTION_DOWN_RIGHT;
    00001284 0E 04            [ 7] 3836 	ld	c, #0x04
    00001286                       3837 00117$:
                                   3838 ;E:\Dropbox\FAUSTO\SVILUPPI\MSX\CODE\C\MSXgl\projects\exsoccer/exsoccer_s2_b0.c:670: if(Keyboard_IsKeyPressed(KEY_RIGHT) && Keyboard_IsKeyPressed(KEY_UP))
    00001286 C5               [11] 3839 	push	bc
    00001287 3E 78            [ 7] 3840 	ld	a, #0x78
    00001289 CDr00r00         [17] 3841 	call	_Keyboard_IsKeyPressed
    0000128C C1               [10] 3842 	pop	bc
    0000128D B7               [ 4] 3843 	or	a, a
    0000128E 28 0C            [12] 3844 	jr	Z, 00120$
    00001290 C5               [11] 3845 	push	bc
    00001291 3E 58            [ 7] 3846 	ld	a, #0x58
    00001293 CDr00r00         [17] 3847 	call	_Keyboard_IsKeyPressed
    00001296 C1               [10] 3848 	pop	bc
    00001297 B7               [ 4] 3849 	or	a, a
    00001298 28 02            [12] 3850 	jr	Z, 00120$
                                   3851 ;E:\Dropbox\FAUSTO\SVILUPPI\MSX\CODE\C\MSXgl\projects\exsoccer/exsoccer_s2_b0.c:672: retValue=DIRECTION_UP_RIGHT;
    0000129A 0E 02            [ 7] 3852 	ld	c, #0x02
    0000129C                       3853 00120$:
                                   3854 ;E:\Dropbox\FAUSTO\SVILUPPI\MSX\CODE\C\MSXgl\projects\exsoccer/exsoccer_s2_b0.c:674: if(retValue==DIRECTION_NONE && Keyboard_IsKeyPressed(KEY_LEFT))
    0000129C 79               [ 4] 3855 	ld	a, c
    0000129D B7               [ 4] 3856 	or	a, a
    0000129E 20 0C            [12] 3857 	jr	NZ, 00123$
    000012A0 C5               [11] 3858 	push	bc
    000012A1 3E 48            [ 7] 3859 	ld	a, #0x48
    000012A3 CDr00r00         [17] 3860 	call	_Keyboard_IsKeyPressed
    000012A6 C1               [10] 3861 	pop	bc
    000012A7 B7               [ 4] 3862 	or	a, a
    000012A8 28 02            [12] 3863 	jr	Z, 00123$
                                   3864 ;E:\Dropbox\FAUSTO\SVILUPPI\MSX\CODE\C\MSXgl\projects\exsoccer/exsoccer_s2_b0.c:676: retValue=DIRECTION_LEFT;
    000012AA 0E 07            [ 7] 3865 	ld	c, #0x07
    000012AC                       3866 00123$:
                                   3867 ;E:\Dropbox\FAUSTO\SVILUPPI\MSX\CODE\C\MSXgl\projects\exsoccer/exsoccer_s2_b0.c:678: if(retValue==DIRECTION_NONE && Keyboard_IsKeyPressed(KEY_RIGHT))
    000012AC 79               [ 4] 3868 	ld	a, c
    000012AD B7               [ 4] 3869 	or	a, a
    000012AE 20 0C            [12] 3870 	jr	NZ, 00126$
    000012B0 C5               [11] 3871 	push	bc
    000012B1 3E 78            [ 7] 3872 	ld	a, #0x78
    000012B3 CDr00r00         [17] 3873 	call	_Keyboard_IsKeyPressed
    000012B6 C1               [10] 3874 	pop	bc
    000012B7 B7               [ 4] 3875 	or	a, a
    000012B8 28 02            [12] 3876 	jr	Z, 00126$
                                   3877 ;E:\Dropbox\FAUSTO\SVILUPPI\MSX\CODE\C\MSXgl\projects\exsoccer/exsoccer_s2_b0.c:680: retValue=DIRECTION_RIGHT;
    000012BA 0E 03            [ 7] 3878 	ld	c, #0x03
    000012BC                       3879 00126$:
                                   3880 ;E:\Dropbox\FAUSTO\SVILUPPI\MSX\CODE\C\MSXgl\projects\exsoccer/exsoccer_s2_b0.c:682: if(retValue==DIRECTION_NONE && Keyboard_IsKeyPressed(KEY_UP))
    000012BC 79               [ 4] 3881 	ld	a, c
    000012BD B7               [ 4] 3882 	or	a, a
    000012BE 20 0C            [12] 3883 	jr	NZ, 00129$
    000012C0 C5               [11] 3884 	push	bc
    000012C1 3E 58            [ 7] 3885 	ld	a, #0x58
    000012C3 CDr00r00         [17] 3886 	call	_Keyboard_IsKeyPressed
    000012C6 C1               [10] 3887 	pop	bc
    000012C7 B7               [ 4] 3888 	or	a, a
    000012C8 28 02            [12] 3889 	jr	Z, 00129$
                                   3890 ;E:\Dropbox\FAUSTO\SVILUPPI\MSX\CODE\C\MSXgl\projects\exsoccer/exsoccer_s2_b0.c:684: retValue=DIRECTION_UP;
    000012CA 0E 01            [ 7] 3891 	ld	c, #0x01
    000012CC                       3892 00129$:
                                   3893 ;E:\Dropbox\FAUSTO\SVILUPPI\MSX\CODE\C\MSXgl\projects\exsoccer/exsoccer_s2_b0.c:686: if(retValue==DIRECTION_NONE && Keyboard_IsKeyPressed(KEY_DOWN))
    000012CC 79               [ 4] 3894 	ld	a, c
    000012CD B7               [ 4] 3895 	or	a, a
    000012CE 20 0C            [12] 3896 	jr	NZ, 00135$
    000012D0 C5               [11] 3897 	push	bc
    000012D1 3E 68            [ 7] 3898 	ld	a, #0x68
    000012D3 CDr00r00         [17] 3899 	call	_Keyboard_IsKeyPressed
    000012D6 C1               [10] 3900 	pop	bc
    000012D7 B7               [ 4] 3901 	or	a, a
    000012D8 28 02            [12] 3902 	jr	Z, 00135$
                                   3903 ;E:\Dropbox\FAUSTO\SVILUPPI\MSX\CODE\C\MSXgl\projects\exsoccer/exsoccer_s2_b0.c:688: retValue=DIRECTION_DOWN;
    000012DA 0E 05            [ 7] 3904 	ld	c, #0x05
    000012DC                       3905 00135$:
                                   3906 ;E:\Dropbox\FAUSTO\SVILUPPI\MSX\CODE\C\MSXgl\projects\exsoccer/exsoccer_s2_b0.c:691: return retValue;
    000012DC 79               [ 4] 3907 	ld	a, c
                                   3908 ;E:\Dropbox\FAUSTO\SVILUPPI\MSX\CODE\C\MSXgl\projects\exsoccer/exsoccer_s2_b0.c:692: }
    000012DD C9               [10] 3909 	ret
                                   3910 ;E:\Dropbox\FAUSTO\SVILUPPI\MSX\CODE\C\MSXgl\projects\exsoccer/exsoccer_s2_b0.c:693: u8 GetJoystick2Direction(){
                                   3911 ;	---------------------------------
                                   3912 ; Function GetJoystick2Direction
                                   3913 ; ---------------------------------
    000012DE                       3914 _GetJoystick2Direction::
                                   3915 ;E:/Dropbox/FAUSTO/SVILUPPI/MSX/CODE/C/MSXgl/engine/src/bios.h:382: inline u8 Bios_GetJoystickDirection(u8 port) { return ((u8(*)(u8))R_GTSTCK)(port); }
    000012DE 3E 02            [ 7] 3916 	ld	a, #0x02
                                   3917 ;E:\Dropbox\FAUSTO\SVILUPPI\MSX\CODE\C\MSXgl\projects\exsoccer/exsoccer_s2_b0.c:694: return Bios_GetJoystickDirection(2);
                                   3918 ;E:\Dropbox\FAUSTO\SVILUPPI\MSX\CODE\C\MSXgl\projects\exsoccer/exsoccer_s2_b0.c:695: }
    000012E0 C3 D5 00         [10] 3919 	jp  0x00d5
                                   3920 ;E:\Dropbox\FAUSTO\SVILUPPI\MSX\CODE\C\MSXgl\projects\exsoccer/exsoccer_s2_b0.c:697: void ShowFieldZone(u8 zone){
                                   3921 ;	---------------------------------
                                   3922 ; Function ShowFieldZone
                                   3923 ; ---------------------------------
    000012E3                       3924 _ShowFieldZone::
    000012E3 32r00r00         [13] 3925 	ld	(_g_FieldScrollingActionInProgress+0), a
                                   3926 ;E:\Dropbox\FAUSTO\SVILUPPI\MSX\CODE\C\MSXgl\projects\exsoccer/exsoccer_s2_b0.c:698: g_FieldScrollingActionInProgress=zone;
                                   3927 ;E:\Dropbox\FAUSTO\SVILUPPI\MSX\CODE\C\MSXgl\projects\exsoccer/exsoccer_s2_b0.c:699: }
    000012E6 C9               [10] 3928 	ret
                                   3929 ;E:\Dropbox\FAUSTO\SVILUPPI\MSX\CODE\C\MSXgl\projects\exsoccer/exsoccer_s2_b0.c:700: void TickCheckBallBoundaries(){
                                   3930 ;	---------------------------------
                                   3931 ; Function TickCheckBallBoundaries
                                   3932 ; ---------------------------------
    000012E7                       3933 _TickCheckBallBoundaries::
    000012E7 DD E5            [15] 3934 	push	ix
    000012E9 DD 21 00 00      [14] 3935 	ld	ix,#0
    000012ED DD 39            [15] 3936 	add	ix,sp
    000012EF 21 FA FF         [10] 3937 	ld	hl, #-6
    000012F2 39               [11] 3938 	add	hl, sp
    000012F3 F9               [ 6] 3939 	ld	sp, hl
                                   3940 ;E:\Dropbox\FAUSTO\SVILUPPI\MSX\CODE\C\MSXgl\projects\exsoccer/exsoccer_s2_b0.c:701: if(g_MatchStatus!=MATCH_IN_ACTION){
                                   3941 ;E:\Dropbox\FAUSTO\SVILUPPI\MSX\CODE\C\MSXgl\projects\exsoccer/exsoccer_s2_b0.c:702: return;
                                   3942 ;E:\Dropbox\FAUSTO\SVILUPPI\MSX\CODE\C\MSXgl\projects\exsoccer/exsoccer_s2_b0.c:706: if(g_MatchStatus == MATCH_BALL_ON_GOALKEEPER || g_Ball.PossessionPlayerId != NO_VALUE) {
    000012F4 3Ar00r00         [13] 3943 	ld	a,(_g_MatchStatus+0)
    000012F7 FE 0C            [ 7] 3944 	cp	a,#0x0c
    000012F9 C2r8Fr14         [10] 3945 	jp	NZ,00160$
    000012FC D6 0D            [ 7] 3946 	sub	a, #0x0d
    000012FE 28 06            [12] 3947 	jr	Z, 00107$
    00001300 3Ar06r00         [13] 3948 	ld	a, (#(_g_Ball + 6) + 0)
    00001303 3C               [ 4] 3949 	inc	a
    00001304 28 1F            [12] 3950 	jr	Z, 00108$
    00001306                       3951 00107$:
                                   3952 ;E:\Dropbox\FAUSTO\SVILUPPI\MSX\CODE\C\MSXgl\projects\exsoccer/exsoccer_s2_b0.c:707: if(g_Ball.PossessionPlayerId != NO_VALUE) {
    00001306 21r06r00         [10] 3953 	ld	hl, #_g_Ball+6
    00001309 5E               [ 7] 3954 	ld	e, (hl)
    0000130A 7B               [ 4] 3955 	ld	a, e
    0000130B 3C               [ 4] 3956 	inc	a
    0000130C 28 17            [12] 3957 	jr	Z, 00108$
                                   3958 ;E:\Dropbox\FAUSTO\SVILUPPI\MSX\CODE\C\MSXgl\projects\exsoccer/exsoccer_s2_b0.c:708: if(g_Players[g_Ball.PossessionPlayerId].Role == PLAYER_ROLE_GOALKEEPER) return;
    0000130E 01r00r00         [10] 3959 	ld	bc, #_g_Players+0
    00001311 16 00            [ 7] 3960 	ld	d, #0x00
    00001313 6B               [ 4] 3961 	ld	l, e
    00001314 62               [ 4] 3962 	ld	h, d
    00001315 29               [11] 3963 	add	hl, hl
    00001316 29               [11] 3964 	add	hl, hl
    00001317 19               [11] 3965 	add	hl, de
    00001318 29               [11] 3966 	add	hl, hl
    00001319 29               [11] 3967 	add	hl, hl
    0000131A 19               [11] 3968 	add	hl, de
    0000131B 09               [11] 3969 	add	hl, bc
    0000131C 11 0D 00         [10] 3970 	ld	de, #0x000d
    0000131F 19               [11] 3971 	add	hl, de
    00001320 7E               [ 7] 3972 	ld	a, (hl)
    00001321 B7               [ 4] 3973 	or	a, a
    00001322 CAr8Fr14         [10] 3974 	jp	Z,00160$
    00001325                       3975 00108$:
                                   3976 ;E:\Dropbox\FAUSTO\SVILUPPI\MSX\CODE\C\MSXgl\projects\exsoccer/exsoccer_s2_b0.c:713: if (g_Ball.ShotActive != 0 || g_Ball.PassTargetPlayerId != NO_VALUE) {
    00001325 3Ar1Br00         [13] 3977 	ld	a, (#_g_Ball + 27)
    00001328 DD 77 FF         [19] 3978 	ld	-1 (ix), a
                                   3979 ;E:\Dropbox\FAUSTO\SVILUPPI\MSX\CODE\C\MSXgl\projects\exsoccer/exsoccer_s2_b0.c:721: if (g_Ball.Y < FIELD_BOUND_Y_TOP) {
    0000132B ED 4Br00r00      [20] 3980 	ld	bc, (#_g_Ball + 0)
                                   3981 ;E:\Dropbox\FAUSTO\SVILUPPI\MSX\CODE\C\MSXgl\projects\exsoccer/exsoccer_s2_b0.c:713: if (g_Ball.ShotActive != 0 || g_Ball.PassTargetPlayerId != NO_VALUE) {
    0000132F 3Ar10r00         [13] 3982 	ld	a, (#_g_Ball + 16)
    00001332 DD 77 FD         [19] 3983 	ld	-3 (ix), a
                                   3984 ;E:\Dropbox\FAUSTO\SVILUPPI\MSX\CODE\C\MSXgl\projects\exsoccer/exsoccer_s2_b0.c:721: if (g_Ball.Y < FIELD_BOUND_Y_TOP) {
    00001335 59               [ 4] 3985 	ld	e, c
    00001336 50               [ 4] 3986 	ld	d, b
                                   3987 ;E:\Dropbox\FAUSTO\SVILUPPI\MSX\CODE\C\MSXgl\projects\exsoccer/exsoccer_s2_b0.c:713: if (g_Ball.ShotActive != 0 || g_Ball.PassTargetPlayerId != NO_VALUE) {
    00001337 DD 7E FD         [19] 3988 	ld	a, -3 (ix)
    0000133A 3C               [ 4] 3989 	inc	a
    0000133B 3E 01            [ 7] 3990 	ld	a, #0x01
    0000133D 28 01            [12] 3991 	jr	Z, 00314$
    0000133F AF               [ 4] 3992 	xor	a, a
    00001340                       3993 00314$:
    00001340 DD 77 FE         [19] 3994 	ld	-2 (ix), a
                                   3995 ;E:\Dropbox\FAUSTO\SVILUPPI\MSX\CODE\C\MSXgl\projects\exsoccer/exsoccer_s2_b0.c:721: if (g_Ball.Y < FIELD_BOUND_Y_TOP) {
    00001343 7B               [ 4] 3996 	ld	a, e
    00001344 D6 32            [ 7] 3997 	sub	a, #0x32
    00001346 7A               [ 4] 3998 	ld	a, d
    00001347 DE 00            [ 7] 3999 	sbc	a, #0x00
    00001349 3E 00            [ 7] 4000 	ld	a, #0x00
    0000134B 17               [ 4] 4001 	rla
    0000134C DD 77 FA         [19] 4002 	ld	-6 (ix), a
                                   4003 ;E:\Dropbox\FAUSTO\SVILUPPI\MSX\CODE\C\MSXgl\projects\exsoccer/exsoccer_s2_b0.c:713: if (g_Ball.ShotActive != 0 || g_Ball.PassTargetPlayerId != NO_VALUE) {
    0000134F DD 7E FF         [19] 4004 	ld	a, -1 (ix)
    00001352 B7               [ 4] 4005 	or	a, a
    00001353 20 06            [12] 4006 	jr	NZ, 00120$
    00001355 DD CB FE 46      [20] 4007 	bit	0, -2 (ix)
    00001359 20 3B            [12] 4008 	jr	NZ, 00121$
    0000135B                       4009 00120$:
                                   4010 ;E:\Dropbox\FAUSTO\SVILUPPI\MSX\CODE\C\MSXgl\projects\exsoccer/exsoccer_s2_b0.c:715: u16 destY = g_Ball.TargetY;
    0000135B 2Ar19r00         [16] 4011 	ld	hl, (#_g_Ball + 25)
                                   4012 ;E:\Dropbox\FAUSTO\SVILUPPI\MSX\CODE\C\MSXgl\projects\exsoccer/exsoccer_s2_b0.c:716: if (g_Ball.PassTargetPlayerId != NO_VALUE) {
    0000135E DD CB FE 46      [20] 4013 	bit	0, -2 (ix)
    00001362 20 17            [12] 4014 	jr	NZ, 00111$
                                   4015 ;E:\Dropbox\FAUSTO\SVILUPPI\MSX\CODE\C\MSXgl\projects\exsoccer/exsoccer_s2_b0.c:717: destY = g_Players[g_Ball.PassTargetPlayerId].Y;
    00001364 D5               [11] 4016 	push	de
    00001365 DD 5E FD         [19] 4017 	ld	e, -3 (ix)
    00001368 16 00            [ 7] 4018 	ld	d, #0x00
    0000136A 6B               [ 4] 4019 	ld	l, e
    0000136B 62               [ 4] 4020 	ld	h, d
    0000136C 29               [11] 4021 	add	hl, hl
    0000136D 29               [11] 4022 	add	hl, hl
    0000136E 19               [11] 4023 	add	hl, de
    0000136F 29               [11] 4024 	add	hl, hl
    00001370 29               [11] 4025 	add	hl, hl
    00001371 19               [11] 4026 	add	hl, de
    00001372 11r00r00         [10] 4027 	ld	de, #_g_Players
    00001375 19               [11] 4028 	add	hl, de
    00001376 D1               [10] 4029 	pop	de
    00001377 7E               [ 7] 4030 	ld	a, (hl)
    00001378 23               [ 6] 4031 	inc	hl
    00001379 66               [ 7] 4032 	ld	h, (hl)
                                   4033 ;	spillPairReg hl
    0000137A 6F               [ 4] 4034 	ld	l, a
                                   4035 ;	spillPairReg hl
                                   4036 ;	spillPairReg hl
    0000137B                       4037 00111$:
                                   4038 ;E:\Dropbox\FAUSTO\SVILUPPI\MSX\CODE\C\MSXgl\projects\exsoccer/exsoccer_s2_b0.c:721: if (g_Ball.Y < FIELD_BOUND_Y_TOP) {
    0000137B DD 7E FA         [19] 4039 	ld	a, -6 (ix)
    0000137E B7               [ 4] 4040 	or	a, a
    0000137F 28 07            [12] 4041 	jr	Z, 00115$
                                   4042 ;E:\Dropbox\FAUSTO\SVILUPPI\MSX\CODE\C\MSXgl\projects\exsoccer/exsoccer_s2_b0.c:723: if(destY > g_Ball.Y) return;
    00001381 79               [ 4] 4043 	ld	a, c
    00001382 95               [ 4] 4044 	sub	a, l
    00001383 78               [ 4] 4045 	ld	a, b
    00001384 9C               [ 4] 4046 	sbc	a, h
    00001385 DAr8Fr14         [10] 4047 	jp	C,00160$
    00001388                       4048 00115$:
                                   4049 ;E:\Dropbox\FAUSTO\SVILUPPI\MSX\CODE\C\MSXgl\projects\exsoccer/exsoccer_s2_b0.c:727: if (g_Ball.Y > FIELD_BOUND_Y_BOTTOM) {
    00001388 3E AE            [ 7] 4050 	ld	a, #0xae
    0000138A BB               [ 4] 4051 	cp	a, e
    0000138B 3E 01            [ 7] 4052 	ld	a, #0x01
    0000138D 9A               [ 4] 4053 	sbc	a, d
    0000138E 30 06            [12] 4054 	jr	NC, 00121$
                                   4055 ;E:\Dropbox\FAUSTO\SVILUPPI\MSX\CODE\C\MSXgl\projects\exsoccer/exsoccer_s2_b0.c:729: if(destY < g_Ball.Y) return;
    00001390 AF               [ 4] 4056 	xor	a, a
    00001391 ED 42            [15] 4057 	sbc	hl, bc
    00001393 DAr8Fr14         [10] 4058 	jp	C,00160$
    00001396                       4059 00121$:
                                   4060 ;E:\Dropbox\FAUSTO\SVILUPPI\MSX\CODE\C\MSXgl\projects\exsoccer/exsoccer_s2_b0.c:745: if (g_Ball.Y < FIELD_BOUND_Y_TOP) {
    00001396 DD 7E FA         [19] 4061 	ld	a, -6 (ix)
    00001399 B7               [ 4] 4062 	or	a, a
    0000139A 28 18            [12] 4063 	jr	Z, 00129$
                                   4064 ;E:\Dropbox\FAUSTO\SVILUPPI\MSX\CODE\C\MSXgl\projects\exsoccer/exsoccer_s2_b0.c:747: if (g_Ball.ShotActive && (g_Ball.Direction == DIRECTION_DOWN || g_Ball.Direction == DIRECTION_DOWN_LEFT || g_Ball.Direction == DIRECTION_DOWN_RIGHT)) {
    0000139C DD 7E FF         [19] 4065 	ld	a, -1 (ix)
    0000139F B7               [ 4] 4066 	or	a, a
    000013A0 28 12            [12] 4067 	jr	Z, 00129$
    000013A2 3Ar05r00         [13] 4068 	ld	a, (#_g_Ball + 5)
    000013A5 FE 05            [ 7] 4069 	cp	a, #0x05
    000013A7 CAr8Fr14         [10] 4070 	jp	Z,00160$
    000013AA FE 06            [ 7] 4071 	cp	a, #0x06
    000013AC CAr8Fr14         [10] 4072 	jp	Z,00160$
    000013AF D6 04            [ 7] 4073 	sub	a, #0x04
                                   4074 ;E:\Dropbox\FAUSTO\SVILUPPI\MSX\CODE\C\MSXgl\projects\exsoccer/exsoccer_s2_b0.c:748: return; 
    000013B1 CAr8Fr14         [10] 4075 	jp	Z,00160$
    000013B4                       4076 00129$:
                                   4077 ;E:\Dropbox\FAUSTO\SVILUPPI\MSX\CODE\C\MSXgl\projects\exsoccer/exsoccer_s2_b0.c:753: if (g_Ball.Y > FIELD_BOUND_Y_BOTTOM) {
    000013B4 3E AE            [ 7] 4078 	ld	a, #0xae
    000013B6 BB               [ 4] 4079 	cp	a, e
    000013B7 3E 01            [ 7] 4080 	ld	a, #0x01
    000013B9 9A               [ 4] 4081 	sbc	a, d
    000013BA 3E 00            [ 7] 4082 	ld	a, #0x00
    000013BC 17               [ 4] 4083 	rla
    000013BD DD 77 FB         [19] 4084 	ld	-5 (ix), a
    000013C0 B7               [ 4] 4085 	or	a, a
    000013C1 28 18            [12] 4086 	jr	Z, 00136$
                                   4087 ;E:\Dropbox\FAUSTO\SVILUPPI\MSX\CODE\C\MSXgl\projects\exsoccer/exsoccer_s2_b0.c:755: if (g_Ball.ShotActive && (g_Ball.Direction == DIRECTION_UP || g_Ball.Direction == DIRECTION_UP_LEFT || g_Ball.Direction == DIRECTION_UP_RIGHT)) {
    000013C3 DD 7E FF         [19] 4088 	ld	a, -1 (ix)
    000013C6 B7               [ 4] 4089 	or	a, a
    000013C7 28 12            [12] 4090 	jr	Z, 00136$
    000013C9 3Ar05r00         [13] 4091 	ld	a, (#_g_Ball + 5)
    000013CC FE 01            [ 7] 4092 	cp	a, #0x01
    000013CE CAr8Fr14         [10] 4093 	jp	Z,00160$
    000013D1 FE 08            [ 7] 4094 	cp	a, #0x08
    000013D3 CAr8Fr14         [10] 4095 	jp	Z,00160$
    000013D6 D6 02            [ 7] 4096 	sub	a, #0x02
                                   4097 ;E:\Dropbox\FAUSTO\SVILUPPI\MSX\CODE\C\MSXgl\projects\exsoccer/exsoccer_s2_b0.c:756: return;
    000013D8 CAr8Fr14         [10] 4098 	jp	Z,00160$
    000013DB                       4099 00136$:
                                   4100 ;E:\Dropbox\FAUSTO\SVILUPPI\MSX\CODE\C\MSXgl\projects\exsoccer/exsoccer_s2_b0.c:760: u8 teamId = g_Ball.LastTouchTeamId;
    000013DB 3Ar0Er00         [13] 4101 	ld	a, (#_g_Ball + 14)
                                   4102 ;E:\Dropbox\FAUSTO\SVILUPPI\MSX\CODE\C\MSXgl\projects\exsoccer/exsoccer_s2_b0.c:761: if(teamId==NO_VALUE){
    000013DE DD 77 FC         [19] 4103 	ld	-4 (ix), a
    000013E1 3C               [ 4] 4104 	inc	a
    000013E2 20 04            [12] 4105 	jr	NZ, 00138$
                                   4106 ;E:\Dropbox\FAUSTO\SVILUPPI\MSX\CODE\C\MSXgl\projects\exsoccer/exsoccer_s2_b0.c:762: teamId=TEAM_1; // Default
    000013E4 DD 36 FC 01      [19] 4107 	ld	-4 (ix), #0x01
    000013E8                       4108 00138$:
                                   4109 ;E:\Dropbox\FAUSTO\SVILUPPI\MSX\CODE\C\MSXgl\projects\exsoccer/exsoccer_s2_b0.c:764: u8 opponentTeamId = (teamId == TEAM_1) ? TEAM_2 : TEAM_1;
    000013E8 DD 7E FC         [19] 4110 	ld	a, -4 (ix)
    000013EB 3D               [ 4] 4111 	dec	a
    000013EC 3E 01            [ 7] 4112 	ld	a, #0x01
    000013EE 28 01            [12] 4113 	jr	Z, 00326$
    000013F0 AF               [ 4] 4114 	xor	a, a
    000013F1                       4115 00326$:
    000013F1 DD 77 FD         [19] 4116 	ld	-3 (ix), a
    000013F4 B7               [ 4] 4117 	or	a, a
    000013F5 28 0B            [12] 4118 	jr	Z, 00162$
    000013F7 DD 36 FE 02      [19] 4119 	ld	-2 (ix), #0x02
    000013FB DD 36 FF 00      [19] 4120 	ld	-1 (ix), #0
    000013FF C3r0Ar14         [10] 4121 	jp	00163$
    00001402                       4122 00162$:
    00001402 DD 36 FE 01      [19] 4123 	ld	-2 (ix), #0x01
    00001406 DD 36 FF 00      [19] 4124 	ld	-1 (ix), #0
    0000140A                       4125 00163$:
    0000140A DD 4E FE         [19] 4126 	ld	c, -2 (ix)
                                   4127 ;E:\Dropbox\FAUSTO\SVILUPPI\MSX\CODE\C\MSXgl\projects\exsoccer/exsoccer_s2_b0.c:772: if(g_Ball.X < FIELD_BOUND_X_LEFT || g_Ball.X > FIELD_BOUND_X_RIGHT){
    0000140D 2Ar02r00         [16] 4128 	ld	hl, (#_g_Ball + 2)
    00001410 5D               [ 4] 4129 	ld	e, l
    00001411 54               [ 4] 4130 	ld	d, h
    00001412 7B               [ 4] 4131 	ld	a, e
    00001413 D6 0A            [ 7] 4132 	sub	a, #0x0a
    00001415 7A               [ 4] 4133 	ld	a, d
    00001416 DE 00            [ 7] 4134 	sbc	a, #0x00
    00001418 38 08            [12] 4135 	jr	C, 00139$
    0000141A 3E F6            [ 7] 4136 	ld	a, #0xf6
    0000141C BB               [ 4] 4137 	cp	a, e
    0000141D 3E 00            [ 7] 4138 	ld	a, #0x00
    0000141F 9A               [ 4] 4139 	sbc	a, d
    00001420 30 07            [12] 4140 	jr	NC, 00140$
    00001422                       4141 00139$:
                                   4142 ;E:\Dropbox\FAUSTO\SVILUPPI\MSX\CODE\C\MSXgl\projects\exsoccer/exsoccer_s2_b0.c:773: BallThrowIn(opponentTeamId); //GP_USER
    00001422 79               [ 4] 4143 	ld	a, c
    00001423 CDr00r00         [17] 4144 	call	_BallThrowIn
                                   4145 ;E:\Dropbox\FAUSTO\SVILUPPI\MSX\CODE\C\MSXgl\projects\exsoccer/exsoccer_s2_b0.c:775: return;
    00001426 C3r8Fr14         [10] 4146 	jp	00160$
    00001429                       4147 00140$:
                                   4148 ;E:\Dropbox\FAUSTO\SVILUPPI\MSX\CODE\C\MSXgl\projects\exsoccer/exsoccer_s2_b0.c:779: if(g_Ball.Y < FIELD_BOUND_Y_TOP){
    00001429 DD 7E FA         [19] 4149 	ld	a, -6 (ix)
    0000142C B7               [ 4] 4150 	or	a, a
    0000142D 28 2E            [12] 4151 	jr	Z, 00150$
                                   4152 ;E:\Dropbox\FAUSTO\SVILUPPI\MSX\CODE\C\MSXgl\projects\exsoccer/exsoccer_s2_b0.c:782: if(g_Ball.X > (GOAL_X_MIN - 8) && g_Ball.X < (GOAL_X_MAX + 8)){
    0000142F 3E 58            [ 7] 4153 	ld	a, #0x58
    00001431 BD               [ 4] 4154 	cp	a, l
    00001432 3E 00            [ 7] 4155 	ld	a, #0x00
    00001434 9C               [ 4] 4156 	sbc	a, h
    00001435 30 10            [12] 4157 	jr	NC, 00146$
    00001437 11 98 00         [10] 4158 	ld	de, #0x0098
    0000143A BF               [ 4] 4159 	cp	a, a
    0000143B ED 52            [15] 4160 	sbc	hl, de
    0000143D 30 08            [12] 4161 	jr	NC, 00146$
                                   4162 ;E:\Dropbox\FAUSTO\SVILUPPI\MSX\CODE\C\MSXgl\projects\exsoccer/exsoccer_s2_b0.c:783: BallInGoal(TEAM_1); // Team 1 attacked up and scored
    0000143F 3E 01            [ 7] 4163 	ld	a, #0x01
    00001441 CDr00r00         [17] 4164 	call	_BallInGoal
    00001444 C3r8Fr14         [10] 4165 	jp	00160$
    00001447                       4166 00146$:
                                   4167 ;E:\Dropbox\FAUSTO\SVILUPPI\MSX\CODE\C\MSXgl\projects\exsoccer/exsoccer_s2_b0.c:786: if(teamId == TEAM_1){ // Attacker touched last
    00001447 DD 7E FD         [19] 4168 	ld	a, -3 (ix)
    0000144A B7               [ 4] 4169 	or	a, a
    0000144B 28 08            [12] 4170 	jr	Z, 00143$
                                   4171 ;E:\Dropbox\FAUSTO\SVILUPPI\MSX\CODE\C\MSXgl\projects\exsoccer/exsoccer_s2_b0.c:787: GoalKick(TEAM_2);
    0000144D 3E 02            [ 7] 4172 	ld	a, #0x02
    0000144F CDr00r00         [17] 4173 	call	_GoalKick
    00001452 C3r8Fr14         [10] 4174 	jp	00160$
    00001455                       4175 00143$:
                                   4176 ;E:\Dropbox\FAUSTO\SVILUPPI\MSX\CODE\C\MSXgl\projects\exsoccer/exsoccer_s2_b0.c:790: CornerKick(TEAM_1);
    00001455 3E 01            [ 7] 4177 	ld	a, #0x01
    00001457 CDr00r00         [17] 4178 	call	_CornerKick
                                   4179 ;E:\Dropbox\FAUSTO\SVILUPPI\MSX\CODE\C\MSXgl\projects\exsoccer/exsoccer_s2_b0.c:793: return;
    0000145A C3r8Fr14         [10] 4180 	jp	00160$
    0000145D                       4181 00150$:
                                   4182 ;E:\Dropbox\FAUSTO\SVILUPPI\MSX\CODE\C\MSXgl\projects\exsoccer/exsoccer_s2_b0.c:797: if(g_Ball.Y > FIELD_BOUND_Y_BOTTOM){
    0000145D DD 7E FB         [19] 4183 	ld	a, -5 (ix)
    00001460 B7               [ 4] 4184 	or	a, a
    00001461 28 2C            [12] 4185 	jr	Z, 00160$
                                   4186 ;E:\Dropbox\FAUSTO\SVILUPPI\MSX\CODE\C\MSXgl\projects\exsoccer/exsoccer_s2_b0.c:799: if(g_Ball.X > (GOAL_X_MIN - 8) && g_Ball.X < (GOAL_X_MAX + 8)){
    00001463 3E 58            [ 7] 4187 	ld	a, #0x58
    00001465 BD               [ 4] 4188 	cp	a, l
    00001466 3E 00            [ 7] 4189 	ld	a, #0x00
    00001468 9C               [ 4] 4190 	sbc	a, h
    00001469 30 10            [12] 4191 	jr	NC, 00155$
    0000146B 11 98 00         [10] 4192 	ld	de, #0x0098
    0000146E BF               [ 4] 4193 	cp	a, a
    0000146F ED 52            [15] 4194 	sbc	hl, de
    00001471 30 08            [12] 4195 	jr	NC, 00155$
                                   4196 ;E:\Dropbox\FAUSTO\SVILUPPI\MSX\CODE\C\MSXgl\projects\exsoccer/exsoccer_s2_b0.c:800: BallInGoal(TEAM_2); // Team 2 attacked down and scored
    00001473 3E 02            [ 7] 4197 	ld	a, #0x02
    00001475 CDr00r00         [17] 4198 	call	_BallInGoal
    00001478 C3r8Fr14         [10] 4199 	jp	00156$
    0000147B                       4200 00155$:
                                   4201 ;E:\Dropbox\FAUSTO\SVILUPPI\MSX\CODE\C\MSXgl\projects\exsoccer/exsoccer_s2_b0.c:803: if(teamId == TEAM_2){ // Attacker touched last (Team 2 attacking down)
    0000147B DD 7E FC         [19] 4202 	ld	a, -4 (ix)
    0000147E D6 02            [ 7] 4203 	sub	a, #0x02
    00001480 20 08            [12] 4204 	jr	NZ, 00152$
                                   4205 ;E:\Dropbox\FAUSTO\SVILUPPI\MSX\CODE\C\MSXgl\projects\exsoccer/exsoccer_s2_b0.c:804: GoalKick(TEAM_1);
    00001482 3E 01            [ 7] 4206 	ld	a, #0x01
    00001484 CDr00r00         [17] 4207 	call	_GoalKick
    00001487 C3r8Fr14         [10] 4208 	jp	00156$
    0000148A                       4209 00152$:
                                   4210 ;E:\Dropbox\FAUSTO\SVILUPPI\MSX\CODE\C\MSXgl\projects\exsoccer/exsoccer_s2_b0.c:807: CornerKick(TEAM_2);
    0000148A 3E 02            [ 7] 4211 	ld	a, #0x02
    0000148C CDr00r00         [17] 4212 	call	_CornerKick
    0000148F                       4213 00156$:
                                   4214 ;E:\Dropbox\FAUSTO\SVILUPPI\MSX\CODE\C\MSXgl\projects\exsoccer/exsoccer_s2_b0.c:810: return;
    0000148F                       4215 00160$:
                                   4216 ;E:\Dropbox\FAUSTO\SVILUPPI\MSX\CODE\C\MSXgl\projects\exsoccer/exsoccer_s2_b0.c:812: }
    0000148F DD F9            [10] 4217 	ld	sp, ix
    00001491 DD E1            [14] 4218 	pop	ix
    00001493 C9               [10] 4219 	ret
                                   4220 ;E:\Dropbox\FAUSTO\SVILUPPI\MSX\CODE\C\MSXgl\projects\exsoccer/exsoccer_s2_b0.c:815: void TeamVictory(u8 teamId){
                                   4221 ;	---------------------------------
                                   4222 ; Function TeamVictory
                                   4223 ; ---------------------------------
    00001494                       4224 _TeamVictory::
                                   4225 ;E:\Dropbox\FAUSTO\SVILUPPI\MSX\CODE\C\MSXgl\projects\exsoccer/exsoccer_s2_b0.c:817: }
    00001494 C9               [10] 4226 	ret
                                   4227 ;E:\Dropbox\FAUSTO\SVILUPPI\MSX\CODE\C\MSXgl\projects\exsoccer/exsoccer_s2_b0.c:818: void TimeUp(){
                                   4228 ;	---------------------------------
                                   4229 ; Function TimeUp
                                   4230 ; ---------------------------------
    00001495                       4231 _TimeUp::
                                   4232 ;E:/Dropbox/FAUSTO/SVILUPPI/MSX/CODE/C/MSXgl/engine/src/v9990.h:480: inline void V9_SetBackgroundColor(u8 color) { V9_SetRegister(15, color); }
    00001495 2E 01            [ 7] 4233 	ld	l, #0x01
                                   4234 ;	spillPairReg hl
                                   4235 ;	spillPairReg hl
    00001497 3E 0F            [ 7] 4236 	ld	a, #0x0f
    00001499 CDr00r00         [17] 4237 	call	_V9_SetRegister
                                   4238 ;E:\Dropbox\FAUSTO\SVILUPPI\MSX\CODE\C\MSXgl\projects\exsoccer/exsoccer_s2_b0.c:820: if (g_Team1Score == g_Team2Score) {
    0000149C 3Ar00r00         [13] 4239 	ld	a, (_g_Team1Score+0)
    0000149F FD 21r00r00      [14] 4240 	ld	iy, #_g_Team2Score
    000014A3 FD 96 00         [19] 4241 	sub	a, 0 (iy)
    000014A6 CArAAr3D         [10] 4242 	jp	Z,_PenaltyShots
                                   4243 ;E:\Dropbox\FAUSTO\SVILUPPI\MSX\CODE\C\MSXgl\projects\exsoccer/exsoccer_s2_b0.c:821: PenaltyShots();
    000014A9 C3rACr14         [10] 4244 	jp	00102$
    000014AC                       4245 00102$:
                                   4246 ;E:\Dropbox\FAUSTO\SVILUPPI\MSX\CODE\C\MSXgl\projects\exsoccer/exsoccer_s2_b0.c:823: u8 winner = (g_Team1Score > g_Team2Score) ? TEAM_1 : TEAM_2;
    000014AC 21r00r00         [10] 4247 	ld	hl, #_g_Team2Score
    000014AF 7E               [ 7] 4248 	ld	a, (hl)
    000014B0 FD 21r00r00      [14] 4249 	ld	iy, #_g_Team1Score
    000014B4 FD 96 00         [19] 4250 	sub	a, 0 (iy)
    000014B7 30 06            [12] 4251 	jr	NC, 00107$
    000014B9 01 01 00         [10] 4252 	ld	bc, #0x0001
    000014BC C3rC2r14         [10] 4253 	jp	00108$
    000014BF                       4254 00107$:
    000014BF 01 02 00         [10] 4255 	ld	bc, #0x0002
    000014C2                       4256 00108$:
                                   4257 ;E:\Dropbox\FAUSTO\SVILUPPI\MSX\CODE\C\MSXgl\projects\exsoccer/exsoccer_s2_b0.c:824: TeamVictory(winner);
    000014C2 79               [ 4] 4258 	ld	a, c
                                   4259 ;E:\Dropbox\FAUSTO\SVILUPPI\MSX\CODE\C\MSXgl\projects\exsoccer/exsoccer_s2_b0.c:826: }
    000014C3 C3r94r14         [10] 4260 	jp	_TeamVictory
                                   4261 ;E:\Dropbox\FAUSTO\SVILUPPI\MSX\CODE\C\MSXgl\projects\exsoccer/exsoccer_s2_b0.c:828: u8 GetClosestPlayerToBall(u8 teamId, u8 excludePlayerId){
                                   4262 ;	---------------------------------
                                   4263 ; Function GetClosestPlayerToBall
                                   4264 ; ---------------------------------
    000014C6                       4265 _GetClosestPlayerToBall::
    000014C6 DD E5            [15] 4266 	push	ix
    000014C8 DD 21 00 00      [14] 4267 	ld	ix,#0
    000014CC DD 39            [15] 4268 	add	ix,sp
    000014CE FD 21 F2 FF      [14] 4269 	ld	iy, #-14
    000014D2 FD 39            [15] 4270 	add	iy, sp
    000014D4 FD F9            [10] 4271 	ld	sp, iy
    000014D6 DD 77 FE         [19] 4272 	ld	-2 (ix), a
    000014D9 DD 75 FD         [19] 4273 	ld	-3 (ix), l
                                   4274 ;E:\Dropbox\FAUSTO\SVILUPPI\MSX\CODE\C\MSXgl\projects\exsoccer/exsoccer_s2_b0.c:829: u8 closestId = NO_VALUE;
    000014DC DD 36 F4 FF      [19] 4275 	ld	-12 (ix), #0xff
                                   4276 ;E:\Dropbox\FAUSTO\SVILUPPI\MSX\CODE\C\MSXgl\projects\exsoccer/exsoccer_s2_b0.c:830: u16 minDist = 0xFFFF;
    000014E0 DD 36 F5 FF      [19] 4277 	ld	-11 (ix), #0xff
    000014E4 DD 36 F6 FF      [19] 4278 	ld	-10 (ix), #0xff
                                   4279 ;E:\Dropbox\FAUSTO\SVILUPPI\MSX\CODE\C\MSXgl\projects\exsoccer/exsoccer_s2_b0.c:832: for(u8 i=0;i<14;i++){
    000014E8 21r02r00         [10] 4280 	ld	hl, #_g_Ball + 2
    000014EB 7E               [ 7] 4281 	ld	a, (hl)
    000014EC DD 77 F7         [19] 4282 	ld	-9 (ix), a
    000014EF 23               [ 6] 4283 	inc	hl
    000014F0 7E               [ 7] 4284 	ld	a, (hl)
    000014F1 DD 77 F8         [19] 4285 	ld	-8 (ix), a
    000014F4 DD 36 FF 00      [19] 4286 	ld	-1 (ix), #0x00
    000014F8                       4287 00110$:
    000014F8 DD 7E FF         [19] 4288 	ld	a, -1 (ix)
    000014FB D6 0E            [ 7] 4289 	sub	a, #0x0e
    000014FD D2rE1r15         [10] 4290 	jp	NC, 00108$
                                   4291 ;E:\Dropbox\FAUSTO\SVILUPPI\MSX\CODE\C\MSXgl\projects\exsoccer/exsoccer_s2_b0.c:833: if(g_Players[i].TeamId != teamId) continue;
    00001500 DD 4E FF         [19] 4292 	ld	c, -1 (ix)
    00001503 06 00            [ 7] 4293 	ld	b, #0x00
    00001505 69               [ 4] 4294 	ld	l, c
    00001506 60               [ 4] 4295 	ld	h, b
    00001507 29               [11] 4296 	add	hl, hl
    00001508 29               [11] 4297 	add	hl, hl
    00001509 09               [11] 4298 	add	hl, bc
    0000150A 29               [11] 4299 	add	hl, hl
    0000150B 29               [11] 4300 	add	hl, hl
    0000150C 09               [11] 4301 	add	hl, bc
    0000150D DD 75 FB         [19] 4302 	ld	-5 (ix), l
    00001510 DD 74 FC         [19] 4303 	ld	-4 (ix), h
    00001513 DD 7E FB         [19] 4304 	ld	a, -5 (ix)
    00001516 C6r00            [ 7] 4305 	add	a, #<(_g_Players)
    00001518 DD 77 F9         [19] 4306 	ld	-7 (ix), a
    0000151B DD 7E FC         [19] 4307 	ld	a, -4 (ix)
    0000151E CEs00            [ 7] 4308 	adc	a, #>(_g_Players)
    00001520 DD 77 FA         [19] 4309 	ld	-6 (ix), a
    00001523 DD 7E F9         [19] 4310 	ld	a, -7 (ix)
    00001526 DD 77 FB         [19] 4311 	ld	-5 (ix), a
    00001529 DD 7E FA         [19] 4312 	ld	a, -6 (ix)
    0000152C DD 77 FC         [19] 4313 	ld	-4 (ix), a
    0000152F DD 6E FB         [19] 4314 	ld	l, -5 (ix)
    00001532 DD 66 FC         [19] 4315 	ld	h, -4 (ix)
    00001535 11 09 00         [10] 4316 	ld	de, #0x0009
    00001538 19               [11] 4317 	add	hl, de
    00001539 DD 7E FE         [19] 4318 	ld	a,-2 (ix)
    0000153C 96               [ 7] 4319 	sub	a,(hl)
    0000153D C2rDBr15         [10] 4320 	jp	NZ,00107$
                                   4321 ;E:\Dropbox\FAUSTO\SVILUPPI\MSX\CODE\C\MSXgl\projects\exsoccer/exsoccer_s2_b0.c:834: if(i == excludePlayerId) continue;
    00001540 DD 7E FD         [19] 4322 	ld	a, -3 (ix)
    00001543 DD 96 FF         [19] 4323 	sub	a, -1 (ix)
    00001546 CArDBr15         [10] 4324 	jp	Z,00107$
                                   4325 ;E:\Dropbox\FAUSTO\SVILUPPI\MSX\CODE\C\MSXgl\projects\exsoccer/exsoccer_s2_b0.c:836: u16 distX = (g_Players[i].X > g_Ball.X) ? (g_Players[i].X - g_Ball.X) : (g_Ball.X - g_Players[i].X);
    00001549 DD 6E F9         [19] 4326 	ld	l, -7 (ix)
                                   4327 ;	spillPairReg hl
                                   4328 ;	spillPairReg hl
    0000154C DD 66 FA         [19] 4329 	ld	h, -6 (ix)
                                   4330 ;	spillPairReg hl
                                   4331 ;	spillPairReg hl
    0000154F 23               [ 6] 4332 	inc	hl
    00001550 23               [ 6] 4333 	inc	hl
    00001551 7E               [ 7] 4334 	ld	a, (hl)
    00001552 DD 77 F2         [19] 4335 	ld	-14 (ix), a
    00001555 23               [ 6] 4336 	inc	hl
    00001556 7E               [ 7] 4337 	ld	a, (hl)
    00001557 DD 77 F3         [19] 4338 	ld	-13 (ix), a
    0000155A DD 7E F7         [19] 4339 	ld	a, -9 (ix)
    0000155D DD 96 F2         [19] 4340 	sub	a, -14 (ix)
    00001560 DD 7E F8         [19] 4341 	ld	a, -8 (ix)
    00001563 DD 9E F3         [19] 4342 	sbc	a, -13 (ix)
    00001566 30 15            [12] 4343 	jr	NC, 00113$
    00001568 DD 7E F2         [19] 4344 	ld	a, -14 (ix)
    0000156B DD 96 F7         [19] 4345 	sub	a, -9 (ix)
    0000156E DD 77 FB         [19] 4346 	ld	-5 (ix), a
    00001571 DD 7E F3         [19] 4347 	ld	a, -13 (ix)
    00001574 DD 9E F8         [19] 4348 	sbc	a, -8 (ix)
    00001577 DD 77 FC         [19] 4349 	ld	-4 (ix), a
    0000157A C3r8Fr15         [10] 4350 	jp	00114$
    0000157D                       4351 00113$:
    0000157D DD 7E F7         [19] 4352 	ld	a, -9 (ix)
    00001580 DD 96 F2         [19] 4353 	sub	a, -14 (ix)
    00001583 DD 77 FB         [19] 4354 	ld	-5 (ix), a
    00001586 DD 7E F8         [19] 4355 	ld	a, -8 (ix)
    00001589 DD 9E F3         [19] 4356 	sbc	a, -13 (ix)
    0000158C DD 77 FC         [19] 4357 	ld	-4 (ix), a
    0000158F                       4358 00114$:
                                   4359 ;E:\Dropbox\FAUSTO\SVILUPPI\MSX\CODE\C\MSXgl\projects\exsoccer/exsoccer_s2_b0.c:837: u16 distY = (g_Players[i].Y > g_Ball.Y) ? (g_Players[i].Y - g_Ball.Y) : (g_Ball.Y - g_Players[i].Y);
    0000158F DD 6E F9         [19] 4360 	ld	l, -7 (ix)
    00001592 DD 66 FA         [19] 4361 	ld	h, -6 (ix)
    00001595 4E               [ 7] 4362 	ld	c, (hl)
    00001596 23               [ 6] 4363 	inc	hl
    00001597 46               [ 7] 4364 	ld	b, (hl)
    00001598 2Ar00r00         [16] 4365 	ld	hl, (#_g_Ball + 0)
    0000159B 7D               [ 4] 4366 	ld	a, l
    0000159C 91               [ 4] 4367 	sub	a, c
    0000159D 7C               [ 4] 4368 	ld	a, h
    0000159E 98               [ 4] 4369 	sbc	a, b
    0000159F 30 0D            [12] 4370 	jr	NC, 00115$
    000015A1 79               [ 4] 4371 	ld	a, c
    000015A2 95               [ 4] 4372 	sub	a, l
    000015A3 DD 77 F9         [19] 4373 	ld	-7 (ix), a
    000015A6 78               [ 4] 4374 	ld	a, b
    000015A7 9C               [ 4] 4375 	sbc	a, h
    000015A8 DD 77 FA         [19] 4376 	ld	-6 (ix), a
    000015AB C3rB8r15         [10] 4377 	jp	00116$
    000015AE                       4378 00115$:
    000015AE 7D               [ 4] 4379 	ld	a, l
    000015AF 91               [ 4] 4380 	sub	a, c
    000015B0 DD 77 F9         [19] 4381 	ld	-7 (ix), a
    000015B3 7C               [ 4] 4382 	ld	a, h
    000015B4 98               [ 4] 4383 	sbc	a, b
    000015B5 DD 77 FA         [19] 4384 	ld	-6 (ix), a
    000015B8                       4385 00116$:
    000015B8 DD 4E F9         [19] 4386 	ld	c, -7 (ix)
    000015BB DD 46 FA         [19] 4387 	ld	b, -6 (ix)
                                   4388 ;E:\Dropbox\FAUSTO\SVILUPPI\MSX\CODE\C\MSXgl\projects\exsoccer/exsoccer_s2_b0.c:840: u16 totalDist = distX + distY;
    000015BE DD 6E FB         [19] 4389 	ld	l, -5 (ix)
    000015C1 DD 66 FC         [19] 4390 	ld	h, -4 (ix)
    000015C4 09               [11] 4391 	add	hl, bc
                                   4392 ;E:\Dropbox\FAUSTO\SVILUPPI\MSX\CODE\C\MSXgl\projects\exsoccer/exsoccer_s2_b0.c:842: if(totalDist < minDist){
    000015C5 7D               [ 4] 4393 	ld	a, l
    000015C6 DD 96 F5         [19] 4394 	sub	a, -11 (ix)
    000015C9 7C               [ 4] 4395 	ld	a, h
    000015CA DD 9E F6         [19] 4396 	sbc	a, -10 (ix)
    000015CD 30 0C            [12] 4397 	jr	NC, 00107$
                                   4398 ;E:\Dropbox\FAUSTO\SVILUPPI\MSX\CODE\C\MSXgl\projects\exsoccer/exsoccer_s2_b0.c:843: minDist = totalDist;
    000015CF DD 75 F5         [19] 4399 	ld	-11 (ix), l
    000015D2 DD 74 F6         [19] 4400 	ld	-10 (ix), h
                                   4401 ;E:\Dropbox\FAUSTO\SVILUPPI\MSX\CODE\C\MSXgl\projects\exsoccer/exsoccer_s2_b0.c:844: closestId = i;
    000015D5 DD 7E FF         [19] 4402 	ld	a, -1 (ix)
    000015D8 DD 77 F4         [19] 4403 	ld	-12 (ix), a
    000015DB                       4404 00107$:
                                   4405 ;E:\Dropbox\FAUSTO\SVILUPPI\MSX\CODE\C\MSXgl\projects\exsoccer/exsoccer_s2_b0.c:832: for(u8 i=0;i<14;i++){
    000015DB DD 34 FF         [23] 4406 	inc	-1 (ix)
    000015DE C3rF8r14         [10] 4407 	jp	00110$
    000015E1                       4408 00108$:
                                   4409 ;E:\Dropbox\FAUSTO\SVILUPPI\MSX\CODE\C\MSXgl\projects\exsoccer/exsoccer_s2_b0.c:847: return closestId;
    000015E1 DD 7E F4         [19] 4410 	ld	a, -12 (ix)
                                   4411 ;E:\Dropbox\FAUSTO\SVILUPPI\MSX\CODE\C\MSXgl\projects\exsoccer/exsoccer_s2_b0.c:848: }
    000015E4 DD F9            [10] 4412 	ld	sp, ix
    000015E6 DD E1            [14] 4413 	pop	ix
    000015E8 C9               [10] 4414 	ret
                                   4415 ;E:\Dropbox\FAUSTO\SVILUPPI\MSX\CODE\C\MSXgl\projects\exsoccer/exsoccer_s2_b0.c:854: i32 Math_Abs32(i32 v) { return (v < 0) ? -v : v; }
                                   4416 ;	---------------------------------
                                   4417 ; Function Math_Abs32
                                   4418 ; ---------------------------------
    000015E9                       4419 _Math_Abs32::
    000015E9 4D               [ 4] 4420 	ld	c, l
    000015EA 44               [ 4] 4421 	ld	b, h
    000015EB CB 78            [ 8] 4422 	bit	7, b
    000015ED 28 0D            [12] 4423 	jr	Z, 00103$
    000015EF 21 00 00         [10] 4424 	ld	hl, #0x0000
    000015F2 BF               [ 4] 4425 	cp	a, a
    000015F3 ED 52            [15] 4426 	sbc	hl, de
    000015F5 EB               [ 4] 4427 	ex	de, hl
    000015F6 21 00 00         [10] 4428 	ld	hl, #0x0000
    000015F9 ED 42            [15] 4429 	sbc	hl, bc
    000015FB C9               [10] 4430 	ret
    000015FC                       4431 00103$:
    000015FC 69               [ 4] 4432 	ld	l, c
                                   4433 ;	spillPairReg hl
                                   4434 ;	spillPairReg hl
    000015FD 60               [ 4] 4435 	ld	h, b
                                   4436 ;	spillPairReg hl
                                   4437 ;	spillPairReg hl
    000015FE C9               [10] 4438 	ret
                                   4439 ;E:\Dropbox\FAUSTO\SVILUPPI\MSX\CODE\C\MSXgl\projects\exsoccer/exsoccer_s2_b0.c:856: u8 GetBestPassTarget(u8 passerId) {
                                   4440 ;	---------------------------------
                                   4441 ; Function GetBestPassTarget
                                   4442 ; ---------------------------------
    000015FF                       4443 _GetBestPassTarget::
    000015FF DD E5            [15] 4444 	push	ix
    00001601 DD 21 00 00      [14] 4445 	ld	ix,#0
    00001605 DD 39            [15] 4446 	add	ix,sp
    00001607 21 E0 FF         [10] 4447 	ld	hl, #-32
    0000160A 39               [11] 4448 	add	hl, sp
    0000160B F9               [ 6] 4449 	ld	sp, hl
    0000160C DD 77 FE         [19] 4450 	ld	-2 (ix), a
                                   4451 ;E:\Dropbox\FAUSTO\SVILUPPI\MSX\CODE\C\MSXgl\projects\exsoccer/exsoccer_s2_b0.c:857: u8 bestTarget = NO_VALUE;
    0000160F DD 36 E0 FF      [19] 4452 	ld	-32 (ix), #0xff
                                   4453 ;E:\Dropbox\FAUSTO\SVILUPPI\MSX\CODE\C\MSXgl\projects\exsoccer/exsoccer_s2_b0.c:858: i32 bestScore = -2100000000;
    00001613 DD 36 E1 00      [19] 4454 	ld	-31 (ix), #0x00
    00001617 DD 36 E2 8B      [19] 4455 	ld	-30 (ix), #0x8b
    0000161B DD 36 E3 D4      [19] 4456 	ld	-29 (ix), #0xd4
    0000161F DD 36 E4 82      [19] 4457 	ld	-28 (ix), #0x82
                                   4458 ;E:\Dropbox\FAUSTO\SVILUPPI\MSX\CODE\C\MSXgl\projects\exsoccer/exsoccer_s2_b0.c:859: u8 teamId = g_Players[passerId].TeamId;
    00001623 DD 4E FE         [19] 4459 	ld	c, -2 (ix)
    00001626 06 00            [ 7] 4460 	ld	b, #0x00
    00001628 69               [ 4] 4461 	ld	l, c
    00001629 60               [ 4] 4462 	ld	h, b
    0000162A 29               [11] 4463 	add	hl, hl
    0000162B 29               [11] 4464 	add	hl, hl
    0000162C 09               [11] 4465 	add	hl, bc
    0000162D 29               [11] 4466 	add	hl, hl
    0000162E 29               [11] 4467 	add	hl, hl
    0000162F 09               [11] 4468 	add	hl, bc
    00001630 11r00r00         [10] 4469 	ld	de, #_g_Players
    00001633 19               [11] 4470 	add	hl, de
    00001634 4D               [ 4] 4471 	ld	c, l
    00001635 44               [ 4] 4472 	ld	b, h
    00001636 C5               [11] 4473 	push	bc
    00001637 FD E1            [14] 4474 	pop	iy
    00001639 FD 7E 09         [19] 4475 	ld	a, 9 (iy)
    0000163C DD 77 E5         [19] 4476 	ld	-27 (ix), a
                                   4477 ;E:\Dropbox\FAUSTO\SVILUPPI\MSX\CODE\C\MSXgl\projects\exsoccer/exsoccer_s2_b0.c:860: u8 dir = g_Players[passerId].Direction;
    0000163F C5               [11] 4478 	push	bc
    00001640 FD E1            [14] 4479 	pop	iy
    00001642 FD 5E 0A         [19] 4480 	ld	e, 10 (iy)
                                   4481 ;E:\Dropbox\FAUSTO\SVILUPPI\MSX\CODE\C\MSXgl\projects\exsoccer/exsoccer_s2_b0.c:861: i16 px = (i16)g_Players[passerId].X;
    00001645 69               [ 4] 4482 	ld	l, c
                                   4483 ;	spillPairReg hl
                                   4484 ;	spillPairReg hl
    00001646 60               [ 4] 4485 	ld	h, b
                                   4486 ;	spillPairReg hl
                                   4487 ;	spillPairReg hl
    00001647 23               [ 6] 4488 	inc	hl
    00001648 23               [ 6] 4489 	inc	hl
    00001649 56               [ 7] 4490 	ld	d, (hl)
    0000164A 23               [ 6] 4491 	inc	hl
    0000164B 7E               [ 7] 4492 	ld	a, (hl)
    0000164C DD 72 E6         [19] 4493 	ld	-26 (ix), d
    0000164F DD 77 E7         [19] 4494 	ld	-25 (ix), a
                                   4495 ;E:\Dropbox\FAUSTO\SVILUPPI\MSX\CODE\C\MSXgl\projects\exsoccer/exsoccer_s2_b0.c:862: i16 py = (i16)g_Players[passerId].Y;
    00001652 69               [ 4] 4496 	ld	l, c
    00001653 60               [ 4] 4497 	ld	h, b
    00001654 56               [ 7] 4498 	ld	d, (hl)
    00001655 23               [ 6] 4499 	inc	hl
    00001656 7E               [ 7] 4500 	ld	a, (hl)
    00001657 DD 72 E8         [19] 4501 	ld	-24 (ix), d
    0000165A DD 77 E9         [19] 4502 	ld	-23 (ix), a
                                   4503 ;E:\Dropbox\FAUSTO\SVILUPPI\MSX\CODE\C\MSXgl\projects\exsoccer/exsoccer_s2_b0.c:865: i16 dirX = 0, dirY = 0;
    0000165D AF               [ 4] 4504 	xor	a, a
    0000165E DD 77 EA         [19] 4505 	ld	-22 (ix), a
    00001661 DD 77 EB         [19] 4506 	ld	-21 (ix), a
    00001664 AF               [ 4] 4507 	xor	a, a
    00001665 DD 77 EC         [19] 4508 	ld	-20 (ix), a
    00001668 DD 77 ED         [19] 4509 	ld	-19 (ix), a
                                   4510 ;E:\Dropbox\FAUSTO\SVILUPPI\MSX\CODE\C\MSXgl\projects\exsoccer/exsoccer_s2_b0.c:868: if (dir == DIRECTION_NONE) dir = g_Players[passerId].PreviousDirection;
    0000166B 7B               [ 4] 4511 	ld	a, e
    0000166C B7               [ 4] 4512 	or	a, a
    0000166D 20 07            [12] 4513 	jr	NZ, 00102$
    0000166F 59               [ 4] 4514 	ld	e, c
    00001670 50               [ 4] 4515 	ld	d, b
    00001671 21 0B 00         [10] 4516 	ld	hl, #11
    00001674 19               [11] 4517 	add	hl, de
    00001675 5E               [ 7] 4518 	ld	e, (hl)
    00001676                       4519 00102$:
                                   4520 ;E:\Dropbox\FAUSTO\SVILUPPI\MSX\CODE\C\MSXgl\projects\exsoccer/exsoccer_s2_b0.c:870: if (dir == DIRECTION_UP) dirY = -100;
    00001676 7B               [ 4] 4521 	ld	a, e
    00001677 3D               [ 4] 4522 	dec	a
    00001678 20 0B            [12] 4523 	jr	NZ, 00128$
    0000167A DD 36 EC 9C      [19] 4524 	ld	-20 (ix), #0x9c
    0000167E DD 36 ED FF      [19] 4525 	ld	-19 (ix), #0xff
    00001682 C3r2Er17         [10] 4526 	jp	00180$
    00001685                       4527 00128$:
                                   4528 ;E:\Dropbox\FAUSTO\SVILUPPI\MSX\CODE\C\MSXgl\projects\exsoccer/exsoccer_s2_b0.c:871: else if (dir == DIRECTION_DOWN) dirY = 100;
    00001685 7B               [ 4] 4529 	ld	a, e
    00001686 D6 05            [ 7] 4530 	sub	a, #0x05
    00001688 20 0B            [12] 4531 	jr	NZ, 00125$
    0000168A DD 36 EC 64      [19] 4532 	ld	-20 (ix), #0x64
    0000168E DD 36 ED 00      [19] 4533 	ld	-19 (ix), #0
    00001692 C3r2Er17         [10] 4534 	jp	00180$
    00001695                       4535 00125$:
                                   4536 ;E:\Dropbox\FAUSTO\SVILUPPI\MSX\CODE\C\MSXgl\projects\exsoccer/exsoccer_s2_b0.c:872: else if (dir == DIRECTION_LEFT) dirX = -100;
    00001695 7B               [ 4] 4537 	ld	a, e
    00001696 D6 07            [ 7] 4538 	sub	a, #0x07
    00001698 20 0B            [12] 4539 	jr	NZ, 00122$
    0000169A DD 36 EA 9C      [19] 4540 	ld	-22 (ix), #0x9c
    0000169E DD 36 EB FF      [19] 4541 	ld	-21 (ix), #0xff
    000016A2 C3r2Er17         [10] 4542 	jp	00180$
    000016A5                       4543 00122$:
                                   4544 ;E:\Dropbox\FAUSTO\SVILUPPI\MSX\CODE\C\MSXgl\projects\exsoccer/exsoccer_s2_b0.c:873: else if (dir == DIRECTION_RIGHT) dirX = 100;
    000016A5 7B               [ 4] 4545 	ld	a, e
    000016A6 D6 03            [ 7] 4546 	sub	a, #0x03
    000016A8 20 0B            [12] 4547 	jr	NZ, 00119$
    000016AA DD 36 EA 64      [19] 4548 	ld	-22 (ix), #0x64
    000016AE DD 36 EB 00      [19] 4549 	ld	-21 (ix), #0
    000016B2 C3r2Er17         [10] 4550 	jp	00180$
    000016B5                       4551 00119$:
                                   4552 ;E:\Dropbox\FAUSTO\SVILUPPI\MSX\CODE\C\MSXgl\projects\exsoccer/exsoccer_s2_b0.c:874: else if (dir == DIRECTION_UP_RIGHT) { dirX = 70; dirY = -70; }
    000016B5 7B               [ 4] 4553 	ld	a, e
    000016B6 D6 02            [ 7] 4554 	sub	a, #0x02
    000016B8 20 13            [12] 4555 	jr	NZ, 00116$
    000016BA DD 36 EA 46      [19] 4556 	ld	-22 (ix), #0x46
    000016BE AF               [ 4] 4557 	xor	a, a
    000016BF DD 77 EB         [19] 4558 	ld	-21 (ix), a
    000016C2 DD 36 EC BA      [19] 4559 	ld	-20 (ix), #0xba
    000016C6 DD 36 ED FF      [19] 4560 	ld	-19 (ix), #0xff
    000016CA C3r2Er17         [10] 4561 	jp	00180$
    000016CD                       4562 00116$:
                                   4563 ;E:\Dropbox\FAUSTO\SVILUPPI\MSX\CODE\C\MSXgl\projects\exsoccer/exsoccer_s2_b0.c:875: else if (dir == DIRECTION_UP_LEFT) { dirX = -70; dirY = -70; }
    000016CD 7B               [ 4] 4564 	ld	a, e
    000016CE D6 08            [ 7] 4565 	sub	a, #0x08
    000016D0 20 13            [12] 4566 	jr	NZ, 00113$
    000016D2 DD 36 EA BA      [19] 4567 	ld	-22 (ix), #0xba
    000016D6 DD 36 EB FF      [19] 4568 	ld	-21 (ix), #0xff
    000016DA DD 36 EC BA      [19] 4569 	ld	-20 (ix), #0xba
    000016DE DD 36 ED FF      [19] 4570 	ld	-19 (ix), #0xff
    000016E2 C3r2Er17         [10] 4571 	jp	00180$
    000016E5                       4572 00113$:
                                   4573 ;E:\Dropbox\FAUSTO\SVILUPPI\MSX\CODE\C\MSXgl\projects\exsoccer/exsoccer_s2_b0.c:876: else if (dir == DIRECTION_DOWN_RIGHT) { dirX = 70; dirY = 70; }
    000016E5 7B               [ 4] 4574 	ld	a, e
    000016E6 D6 04            [ 7] 4575 	sub	a, #0x04
    000016E8 20 13            [12] 4576 	jr	NZ, 00110$
    000016EA DD 36 EA 46      [19] 4577 	ld	-22 (ix), #0x46
    000016EE DD 36 EB 00      [19] 4578 	ld	-21 (ix), #0
    000016F2 DD 36 EC 46      [19] 4579 	ld	-20 (ix), #0x46
    000016F6 DD 36 ED 00      [19] 4580 	ld	-19 (ix), #0
    000016FA C3r2Er17         [10] 4581 	jp	00180$
    000016FD                       4582 00110$:
                                   4583 ;E:\Dropbox\FAUSTO\SVILUPPI\MSX\CODE\C\MSXgl\projects\exsoccer/exsoccer_s2_b0.c:877: else if (dir == DIRECTION_DOWN_LEFT) { dirX = -70; dirY = 70; }
    000016FD 7B               [ 4] 4584 	ld	a, e
    000016FE D6 06            [ 7] 4585 	sub	a, #0x06
    00001700 20 13            [12] 4586 	jr	NZ, 00107$
    00001702 DD 36 EA BA      [19] 4587 	ld	-22 (ix), #0xba
    00001706 DD 36 EB FF      [19] 4588 	ld	-21 (ix), #0xff
    0000170A DD 36 EC 46      [19] 4589 	ld	-20 (ix), #0x46
    0000170E DD 36 ED 00      [19] 4590 	ld	-19 (ix), #0
    00001712 C3r2Er17         [10] 4591 	jp	00180$
    00001715                       4592 00107$:
                                   4593 ;E:\Dropbox\FAUSTO\SVILUPPI\MSX\CODE\C\MSXgl\projects\exsoccer/exsoccer_s2_b0.c:879: if (teamId == TEAM_1) dirY = -100; 
    00001715 DD 7E E5         [19] 4594 	ld	a, -27 (ix)
    00001718 3D               [ 4] 4595 	dec	a
    00001719 20 0B            [12] 4596 	jr	NZ, 00104$
    0000171B DD 36 EC 9C      [19] 4597 	ld	-20 (ix), #0x9c
    0000171F DD 36 ED FF      [19] 4598 	ld	-19 (ix), #0xff
    00001723 C3r2Er17         [10] 4599 	jp	00180$
    00001726                       4600 00104$:
                                   4601 ;E:\Dropbox\FAUSTO\SVILUPPI\MSX\CODE\C\MSXgl\projects\exsoccer/exsoccer_s2_b0.c:880: else dirY = 100; 
    00001726 DD 36 EC 64      [19] 4602 	ld	-20 (ix), #0x64
    0000172A DD 36 ED 00      [19] 4603 	ld	-19 (ix), #0
                                   4604 ;E:\Dropbox\FAUSTO\SVILUPPI\MSX\CODE\C\MSXgl\projects\exsoccer/exsoccer_s2_b0.c:883: for(i=0; i<14; i++) {
    0000172E                       4605 00180$:
    0000172E DD 71 EE         [19] 4606 	ld	-18 (ix), c
    00001731 DD 70 EF         [19] 4607 	ld	-17 (ix), b
    00001734 DD 36 FF 00      [19] 4608 	ld	-1 (ix), #0x00
    00001738                       4609 00152$:
                                   4610 ;E:\Dropbox\FAUSTO\SVILUPPI\MSX\CODE\C\MSXgl\projects\exsoccer/exsoccer_s2_b0.c:888: if(g_Players[i].TeamId != teamId) continue;
    00001738 DD 4E FF         [19] 4611 	ld	c, -1 (ix)
    0000173B 06 00            [ 7] 4612 	ld	b, #0x00
    0000173D 69               [ 4] 4613 	ld	l, c
    0000173E 60               [ 4] 4614 	ld	h, b
    0000173F 29               [11] 4615 	add	hl, hl
    00001740 29               [11] 4616 	add	hl, hl
    00001741 09               [11] 4617 	add	hl, bc
    00001742 29               [11] 4618 	add	hl, hl
    00001743 29               [11] 4619 	add	hl, hl
    00001744 09               [11] 4620 	add	hl, bc
    00001745 EB               [ 4] 4621 	ex	de, hl
    00001746 21r00r00         [10] 4622 	ld	hl, #_g_Players
    00001749 19               [11] 4623 	add	hl, de
    0000174A DD 75 FC         [19] 4624 	ld	-4 (ix), l
    0000174D DD 74 FD         [19] 4625 	ld	-3 (ix), h
    00001750 01 09 00         [10] 4626 	ld	bc,#9
    00001753 09               [11] 4627 	add	hl,bc
    00001754 DD 7E E5         [19] 4628 	ld	a,-27 (ix)
    00001757 96               [ 7] 4629 	sub	a,(hl)
    00001758 C2rDCr19         [10] 4630 	jp	NZ,00150$
                                   4631 ;E:\Dropbox\FAUSTO\SVILUPPI\MSX\CODE\C\MSXgl\projects\exsoccer/exsoccer_s2_b0.c:889: if(i == passerId) continue;
    0000175B DD 7E FE         [19] 4632 	ld	a, -2 (ix)
    0000175E DD 96 FF         [19] 4633 	sub	a, -1 (ix)
    00001761 CArDCr19         [10] 4634 	jp	Z,00150$
                                   4635 ;E:\Dropbox\FAUSTO\SVILUPPI\MSX\CODE\C\MSXgl\projects\exsoccer/exsoccer_s2_b0.c:891: if(g_Players[i].Role == PLAYER_ROLE_GOALKEEPER) continue; 
    00001764 DD 4E FC         [19] 4636 	ld	c, -4 (ix)
    00001767 DD 46 FD         [19] 4637 	ld	b, -3 (ix)
    0000176A 21 0D 00         [10] 4638 	ld	hl, #13
    0000176D 09               [11] 4639 	add	hl, bc
    0000176E 7E               [ 7] 4640 	ld	a, (hl)
    0000176F B7               [ 4] 4641 	or	a, a
    00001770 CArDCr19         [10] 4642 	jp	Z, 00150$
                                   4643 ;E:\Dropbox\FAUSTO\SVILUPPI\MSX\CODE\C\MSXgl\projects\exsoccer/exsoccer_s2_b0.c:894: if (g_Players[i].Y < g_FieldCurrentYPosition || g_Players[i].Y > (g_FieldCurrentYPosition + 220)) {
    00001773 DD 6E FC         [19] 4644 	ld	l, -4 (ix)
    00001776 DD 66 FD         [19] 4645 	ld	h, -3 (ix)
    00001779 4E               [ 7] 4646 	ld	c, (hl)
    0000177A 23               [ 6] 4647 	inc	hl
    0000177B 46               [ 7] 4648 	ld	b, (hl)
    0000177C 59               [ 4] 4649 	ld	e, c
    0000177D 50               [ 4] 4650 	ld	d, b
    0000177E 2Ar00r00         [16] 4651 	ld	hl, (_g_FieldCurrentYPosition)
    00001781 7B               [ 4] 4652 	ld	a, e
    00001782 95               [ 4] 4653 	sub	a, l
    00001783 7A               [ 4] 4654 	ld	a, d
    00001784 9C               [ 4] 4655 	sbc	a, h
    00001785 DArDCr19         [10] 4656 	jp	C, 00150$
    00001788 FD 21 DC 00      [14] 4657 	ld	iy, #0x00dc
    0000178C C5               [11] 4658 	push	bc
    0000178D ED 4Br00r00      [20] 4659 	ld	bc, (_g_FieldCurrentYPosition)
    00001791 FD 09            [15] 4660 	add	iy, bc
    00001793 C1               [10] 4661 	pop	bc
    00001794 FD E5            [15] 4662 	push	iy
    00001796 E1               [10] 4663 	pop	hl
    00001797 AF               [ 4] 4664 	xor	a, a
    00001798 ED 52            [15] 4665 	sbc	hl, de
    0000179A DArDCr19         [10] 4666 	jp	C, 00150$
                                   4667 ;E:\Dropbox\FAUSTO\SVILUPPI\MSX\CODE\C\MSXgl\projects\exsoccer/exsoccer_s2_b0.c:898: dx = (i16)g_Players[i].X - px;
    0000179D DD 6E FC         [19] 4668 	ld	l, -4 (ix)
                                   4669 ;	spillPairReg hl
                                   4670 ;	spillPairReg hl
    000017A0 DD 66 FD         [19] 4671 	ld	h, -3 (ix)
                                   4672 ;	spillPairReg hl
                                   4673 ;	spillPairReg hl
    000017A3 23               [ 6] 4674 	inc	hl
    000017A4 23               [ 6] 4675 	inc	hl
    000017A5 5E               [ 7] 4676 	ld	e, (hl)
    000017A6 23               [ 6] 4677 	inc	hl
    000017A7 56               [ 7] 4678 	ld	d, (hl)
    000017A8 7B               [ 4] 4679 	ld	a, e
    000017A9 DD 96 E6         [19] 4680 	sub	a, -26 (ix)
    000017AC 5F               [ 4] 4681 	ld	e, a
    000017AD 7A               [ 4] 4682 	ld	a, d
    000017AE DD 9E E7         [19] 4683 	sbc	a, -25 (ix)
    000017B1 DD 73 FA         [19] 4684 	ld	-6 (ix), e
    000017B4 DD 77 FB         [19] 4685 	ld	-5 (ix), a
                                   4686 ;E:\Dropbox\FAUSTO\SVILUPPI\MSX\CODE\C\MSXgl\projects\exsoccer/exsoccer_s2_b0.c:899: dy = (i16)g_Players[i].Y - py;
    000017B7 79               [ 4] 4687 	ld	a, c
    000017B8 DD 96 E8         [19] 4688 	sub	a, -24 (ix)
    000017BB 4F               [ 4] 4689 	ld	c, a
    000017BC 78               [ 4] 4690 	ld	a, b
    000017BD DD 9E E9         [19] 4691 	sbc	a, -23 (ix)
    000017C0 DD 71 FC         [19] 4692 	ld	-4 (ix), c
    000017C3 DD 77 FD         [19] 4693 	ld	-3 (ix), a
                                   4694 ;E:\Dropbox\FAUSTO\SVILUPPI\MSX\CODE\C\MSXgl\projects\exsoccer/exsoccer_s2_b0.c:903: adx = (dx < 0) ? -dx : dx;
    000017C6 DD 46 FB         [19] 4695 	ld	b, -5 (ix)
    000017C9 CB 78            [ 8] 4696 	bit	7, b
    000017CB 28 11            [12] 4697 	jr	Z, 00155$
    000017CD AF               [ 4] 4698 	xor	a, a
    000017CE DD 96 FA         [19] 4699 	sub	a, -6 (ix)
    000017D1 DD 77 F8         [19] 4700 	ld	-8 (ix), a
    000017D4 9F               [ 4] 4701 	sbc	a, a
    000017D5 DD 96 FB         [19] 4702 	sub	a, -5 (ix)
    000017D8 DD 77 F9         [19] 4703 	ld	-7 (ix), a
    000017DB C3rEAr17         [10] 4704 	jp	00156$
    000017DE                       4705 00155$:
    000017DE DD 7E FA         [19] 4706 	ld	a, -6 (ix)
    000017E1 DD 77 F8         [19] 4707 	ld	-8 (ix), a
    000017E4 DD 7E FB         [19] 4708 	ld	a, -5 (ix)
    000017E7 DD 77 F9         [19] 4709 	ld	-7 (ix), a
    000017EA                       4710 00156$:
    000017EA DD 4E F8         [19] 4711 	ld	c, -8 (ix)
    000017ED DD 46 F9         [19] 4712 	ld	b, -7 (ix)
                                   4713 ;E:\Dropbox\FAUSTO\SVILUPPI\MSX\CODE\C\MSXgl\projects\exsoccer/exsoccer_s2_b0.c:904: ady = (dy < 0) ? -dy : dy;
    000017F0 DD 56 FD         [19] 4714 	ld	d, -3 (ix)
    000017F3 CB 7A            [ 8] 4715 	bit	7, d
    000017F5 28 0C            [12] 4716 	jr	Z, 00157$
    000017F7 AF               [ 4] 4717 	xor	a, a
    000017F8 DD 96 FC         [19] 4718 	sub	a, -4 (ix)
    000017FB 5F               [ 4] 4719 	ld	e, a
    000017FC 9F               [ 4] 4720 	sbc	a, a
    000017FD DD 96 FD         [19] 4721 	sub	a, -3 (ix)
    00001800 C3r09r18         [10] 4722 	jp	00158$
    00001803                       4723 00157$:
    00001803 DD 5E FC         [19] 4724 	ld	e, -4 (ix)
    00001806 DD 7E FD         [19] 4725 	ld	a, -3 (ix)
    00001809                       4726 00158$:
    00001809 DD 73 F0         [19] 4727 	ld	-16 (ix), e
    0000180C DD 77 F1         [19] 4728 	ld	-15 (ix), a
                                   4729 ;E:\Dropbox\FAUSTO\SVILUPPI\MSX\CODE\C\MSXgl\projects\exsoccer/exsoccer_s2_b0.c:905: if (adx < 32 && ady < 32) continue;
    0000180F 59               [ 4] 4730 	ld	e, c
    00001810 50               [ 4] 4731 	ld	d, b
    00001811 7B               [ 4] 4732 	ld	a, e
    00001812 D6 20            [ 7] 4733 	sub	a, #0x20
    00001814 7A               [ 4] 4734 	ld	a, d
    00001815 17               [ 4] 4735 	rla
    00001816 3F               [ 4] 4736 	ccf
    00001817 1F               [ 4] 4737 	rra
    00001818 DE 80            [ 7] 4738 	sbc	a, #0x80
    0000181A 30 12            [12] 4739 	jr	NC, 00140$
    0000181C DD 5E F0         [19] 4740 	ld	e, -16 (ix)
    0000181F DD 56 F1         [19] 4741 	ld	d, -15 (ix)
    00001822 7B               [ 4] 4742 	ld	a, e
    00001823 D6 20            [ 7] 4743 	sub	a, #0x20
    00001825 7A               [ 4] 4744 	ld	a, d
    00001826 17               [ 4] 4745 	rla
    00001827 3F               [ 4] 4746 	ccf
    00001828 1F               [ 4] 4747 	rra
    00001829 DE 80            [ 7] 4748 	sbc	a, #0x80
    0000182B DArDCr19         [10] 4749 	jp	C, 00150$
    0000182E                       4750 00140$:
                                   4751 ;E:\Dropbox\FAUSTO\SVILUPPI\MSX\CODE\C\MSXgl\projects\exsoccer/exsoccer_s2_b0.c:908: if (g_Players[passerId].Role == PLAYER_ROLE_GOALKEEPER) {
    0000182E DD 6E EE         [19] 4752 	ld	l, -18 (ix)
    00001831 DD 66 EF         [19] 4753 	ld	h, -17 (ix)
    00001834 11 0D 00         [10] 4754 	ld	de, #0x000d
    00001837 19               [11] 4755 	add	hl, de
    00001838 5E               [ 7] 4756 	ld	e, (hl)
                                   4757 ;E:\Dropbox\FAUSTO\SVILUPPI\MSX\CODE\C\MSXgl\projects\exsoccer/exsoccer_s2_b0.c:910: if (((i32)dx*(i32)dx + (i32)dy*(i32)dy) > 40000) continue;
    00001839 DD 7E FA         [19] 4758 	ld	a, -6 (ix)
    0000183C DD 77 F2         [19] 4759 	ld	-14 (ix), a
    0000183F DD 7E FB         [19] 4760 	ld	a, -5 (ix)
    00001842 DD 77 F3         [19] 4761 	ld	-13 (ix), a
    00001845 07               [ 4] 4762 	rlca
    00001846 9F               [ 4] 4763 	sbc	a, a
    00001847 DD 77 F4         [19] 4764 	ld	-12 (ix), a
    0000184A DD 77 F5         [19] 4765 	ld	-11 (ix), a
    0000184D DD 7E FC         [19] 4766 	ld	a, -4 (ix)
    00001850 DD 77 F6         [19] 4767 	ld	-10 (ix), a
    00001853 DD 7E FD         [19] 4768 	ld	a, -3 (ix)
    00001856 DD 77 F7         [19] 4769 	ld	-9 (ix), a
    00001859 07               [ 4] 4770 	rlca
    0000185A 9F               [ 4] 4771 	sbc	a, a
    0000185B DD 77 F8         [19] 4772 	ld	-8 (ix), a
    0000185E DD 77 F9         [19] 4773 	ld	-7 (ix), a
                                   4774 ;E:\Dropbox\FAUSTO\SVILUPPI\MSX\CODE\C\MSXgl\projects\exsoccer/exsoccer_s2_b0.c:908: if (g_Players[passerId].Role == PLAYER_ROLE_GOALKEEPER) {
    00001861 7B               [ 4] 4775 	ld	a, e
    00001862 B7               [ 4] 4776 	or	a, a
    00001863 20 74            [12] 4777 	jr	NZ, 00145$
                                   4778 ;E:\Dropbox\FAUSTO\SVILUPPI\MSX\CODE\C\MSXgl\projects\exsoccer/exsoccer_s2_b0.c:910: if (((i32)dx*(i32)dx + (i32)dy*(i32)dy) > 40000) continue;
    00001865 C5               [11] 4779 	push	bc
    00001866 DD 6E F4         [19] 4780 	ld	l, -12 (ix)
                                   4781 ;	spillPairReg hl
                                   4782 ;	spillPairReg hl
    00001869 DD 66 F5         [19] 4783 	ld	h, -11 (ix)
                                   4784 ;	spillPairReg hl
                                   4785 ;	spillPairReg hl
    0000186C E5               [11] 4786 	push	hl
    0000186D DD 6E F2         [19] 4787 	ld	l, -14 (ix)
                                   4788 ;	spillPairReg hl
                                   4789 ;	spillPairReg hl
    00001870 DD 66 F3         [19] 4790 	ld	h, -13 (ix)
                                   4791 ;	spillPairReg hl
                                   4792 ;	spillPairReg hl
    00001873 E5               [11] 4793 	push	hl
    00001874 DD 5E F2         [19] 4794 	ld	e, -14 (ix)
    00001877 DD 56 F3         [19] 4795 	ld	d, -13 (ix)
    0000187A DD 6E F4         [19] 4796 	ld	l, -12 (ix)
                                   4797 ;	spillPairReg hl
                                   4798 ;	spillPairReg hl
    0000187D DD 66 F5         [19] 4799 	ld	h, -11 (ix)
                                   4800 ;	spillPairReg hl
                                   4801 ;	spillPairReg hl
    00001880 CDr00r00         [17] 4802 	call	__mullong
    00001883 F1               [10] 4803 	pop	af
    00001884 F1               [10] 4804 	pop	af
    00001885 DD 73 FA         [19] 4805 	ld	-6 (ix), e
    00001888 DD 72 FB         [19] 4806 	ld	-5 (ix), d
    0000188B DD 75 FC         [19] 4807 	ld	-4 (ix), l
    0000188E DD 74 FD         [19] 4808 	ld	-3 (ix), h
    00001891 DD 6E F8         [19] 4809 	ld	l, -8 (ix)
                                   4810 ;	spillPairReg hl
                                   4811 ;	spillPairReg hl
    00001894 DD 66 F9         [19] 4812 	ld	h, -7 (ix)
                                   4813 ;	spillPairReg hl
                                   4814 ;	spillPairReg hl
    00001897 E5               [11] 4815 	push	hl
    00001898 DD 6E F6         [19] 4816 	ld	l, -10 (ix)
                                   4817 ;	spillPairReg hl
                                   4818 ;	spillPairReg hl
    0000189B DD 66 F7         [19] 4819 	ld	h, -9 (ix)
                                   4820 ;	spillPairReg hl
                                   4821 ;	spillPairReg hl
    0000189E E5               [11] 4822 	push	hl
    0000189F DD 5E F6         [19] 4823 	ld	e, -10 (ix)
    000018A2 DD 56 F7         [19] 4824 	ld	d, -9 (ix)
    000018A5 DD 6E F8         [19] 4825 	ld	l, -8 (ix)
                                   4826 ;	spillPairReg hl
                                   4827 ;	spillPairReg hl
    000018A8 DD 66 F9         [19] 4828 	ld	h, -7 (ix)
                                   4829 ;	spillPairReg hl
                                   4830 ;	spillPairReg hl
    000018AB CDr00r00         [17] 4831 	call	__mullong
    000018AE F1               [10] 4832 	pop	af
    000018AF F1               [10] 4833 	pop	af
    000018B0 C1               [10] 4834 	pop	bc
    000018B1 7B               [ 4] 4835 	ld	a, e
    000018B2 DD 86 FA         [19] 4836 	add	a, -6 (ix)
    000018B5 5F               [ 4] 4837 	ld	e, a
    000018B6 7A               [ 4] 4838 	ld	a, d
    000018B7 DD 8E FB         [19] 4839 	adc	a, -5 (ix)
    000018BA 57               [ 4] 4840 	ld	d, a
    000018BB 7D               [ 4] 4841 	ld	a, l
    000018BC DD 8E FC         [19] 4842 	adc	a, -4 (ix)
    000018BF 6F               [ 4] 4843 	ld	l, a
                                   4844 ;	spillPairReg hl
                                   4845 ;	spillPairReg hl
    000018C0 7C               [ 4] 4846 	ld	a, h
    000018C1 DD 8E FD         [19] 4847 	adc	a, -3 (ix)
    000018C4 67               [ 4] 4848 	ld	h, a
                                   4849 ;	spillPairReg hl
                                   4850 ;	spillPairReg hl
    000018C5 3E 40            [ 7] 4851 	ld	a, #0x40
    000018C7 BB               [ 4] 4852 	cp	a, e
    000018C8 3E 9C            [ 7] 4853 	ld	a, #0x9c
    000018CA 9A               [ 4] 4854 	sbc	a, d
    000018CB 3E 00            [ 7] 4855 	ld	a, #0x00
    000018CD 9D               [ 4] 4856 	sbc	a, l
    000018CE 3E 00            [ 7] 4857 	ld	a, #0x00
    000018D0 9C               [ 4] 4858 	sbc	a, h
    000018D1 E2rD6r18         [10] 4859 	jp	PO, 00296$
    000018D4 EE 80            [ 7] 4860 	xor	a, #0x80
    000018D6                       4861 00296$:
    000018D6 FArDCr19         [10] 4862 	jp	M, 00150$
    000018D9                       4863 00145$:
                                   4864 ;E:\Dropbox\FAUSTO\SVILUPPI\MSX\CODE\C\MSXgl\projects\exsoccer/exsoccer_s2_b0.c:913: dot = ((i32)dx * dirX) + ((i32)dy * dirY);
    000018D9 DD 5E EA         [19] 4865 	ld	e, -22 (ix)
    000018DC DD 7E EB         [19] 4866 	ld	a, -21 (ix)
    000018DF 57               [ 4] 4867 	ld	d, a
    000018E0 07               [ 4] 4868 	rlca
    000018E1 ED 62            [15] 4869 	sbc	hl, hl
    000018E3 C5               [11] 4870 	push	bc
    000018E4 E5               [11] 4871 	push	hl
    000018E5 D5               [11] 4872 	push	de
    000018E6 DD 5E F2         [19] 4873 	ld	e, -14 (ix)
    000018E9 DD 56 F3         [19] 4874 	ld	d, -13 (ix)
    000018EC DD 6E F4         [19] 4875 	ld	l, -12 (ix)
                                   4876 ;	spillPairReg hl
                                   4877 ;	spillPairReg hl
    000018EF DD 66 F5         [19] 4878 	ld	h, -11 (ix)
                                   4879 ;	spillPairReg hl
                                   4880 ;	spillPairReg hl
    000018F2 CDr00r00         [17] 4881 	call	__mullong
    000018F5 F1               [10] 4882 	pop	af
    000018F6 F1               [10] 4883 	pop	af
    000018F7 DD 73 FA         [19] 4884 	ld	-6 (ix), e
    000018FA DD 72 FB         [19] 4885 	ld	-5 (ix), d
    000018FD DD 75 FC         [19] 4886 	ld	-4 (ix), l
    00001900 DD 74 FD         [19] 4887 	ld	-3 (ix), h
    00001903 C1               [10] 4888 	pop	bc
    00001904 DD 5E EC         [19] 4889 	ld	e, -20 (ix)
    00001907 DD 7E ED         [19] 4890 	ld	a, -19 (ix)
    0000190A 57               [ 4] 4891 	ld	d, a
    0000190B 07               [ 4] 4892 	rlca
    0000190C ED 62            [15] 4893 	sbc	hl, hl
    0000190E C5               [11] 4894 	push	bc
    0000190F E5               [11] 4895 	push	hl
    00001910 D5               [11] 4896 	push	de
    00001911 DD 5E F6         [19] 4897 	ld	e, -10 (ix)
    00001914 DD 56 F7         [19] 4898 	ld	d, -9 (ix)
    00001917 DD 6E F8         [19] 4899 	ld	l, -8 (ix)
                                   4900 ;	spillPairReg hl
                                   4901 ;	spillPairReg hl
    0000191A DD 66 F9         [19] 4902 	ld	h, -7 (ix)
                                   4903 ;	spillPairReg hl
                                   4904 ;	spillPairReg hl
    0000191D CDr00r00         [17] 4905 	call	__mullong
    00001920 F1               [10] 4906 	pop	af
    00001921 F1               [10] 4907 	pop	af
    00001922 C1               [10] 4908 	pop	bc
    00001923 7B               [ 4] 4909 	ld	a, e
    00001924 DD 86 FA         [19] 4910 	add	a, -6 (ix)
    00001927 5F               [ 4] 4911 	ld	e, a
    00001928 7A               [ 4] 4912 	ld	a, d
    00001929 DD 8E FB         [19] 4913 	adc	a, -5 (ix)
    0000192C 57               [ 4] 4914 	ld	d, a
    0000192D 7D               [ 4] 4915 	ld	a, l
    0000192E DD 8E FC         [19] 4916 	adc	a, -4 (ix)
    00001931 6F               [ 4] 4917 	ld	l, a
                                   4918 ;	spillPairReg hl
                                   4919 ;	spillPairReg hl
    00001932 7C               [ 4] 4920 	ld	a, h
    00001933 DD 8E FD         [19] 4921 	adc	a, -3 (ix)
    00001936 67               [ 4] 4922 	ld	h, a
                                   4923 ;	spillPairReg hl
                                   4924 ;	spillPairReg hl
    00001937 DD 73 FA         [19] 4925 	ld	-6 (ix), e
    0000193A DD 72 FB         [19] 4926 	ld	-5 (ix), d
    0000193D DD 75 FC         [19] 4927 	ld	-4 (ix), l
    00001940 DD 74 FD         [19] 4928 	ld	-3 (ix), h
                                   4929 ;E:\Dropbox\FAUSTO\SVILUPPI\MSX\CODE\C\MSXgl\projects\exsoccer/exsoccer_s2_b0.c:916: if (dot <= 0) {
    00001943 AF               [ 4] 4930 	xor	a, a
    00001944 DD BE FA         [19] 4931 	cp	a, -6 (ix)
    00001947 DD 9E FB         [19] 4932 	sbc	a, -5 (ix)
    0000194A 3E 00            [ 7] 4933 	ld	a, #0x00
    0000194C DD 9E FC         [19] 4934 	sbc	a, -4 (ix)
    0000194F 3E 00            [ 7] 4935 	ld	a, #0x00
    00001951 DD 9E FD         [19] 4936 	sbc	a, -3 (ix)
    00001954 E2r59r19         [10] 4937 	jp	PO, 00297$
    00001957 EE 80            [ 7] 4938 	xor	a, #0x80
    00001959                       4939 00297$:
    00001959 F2rDCr19         [10] 4940 	jp	P, 00150$
                                   4941 ;E:\Dropbox\FAUSTO\SVILUPPI\MSX\CODE\C\MSXgl\projects\exsoccer/exsoccer_s2_b0.c:927: score = dot - ((i32)(adx + ady) * 40); 
    0000195C DD 6E F0         [19] 4942 	ld	l, -16 (ix)
    0000195F DD 66 F1         [19] 4943 	ld	h, -15 (ix)
    00001962 09               [11] 4944 	add	hl, bc
    00001963 EB               [ 4] 4945 	ex	de, hl
    00001964 21 28 00         [10] 4946 	ld	hl, #0x0028
    00001967 CDr00r00         [17] 4947 	call	___mulsint2slong
    0000196A DD 73 F2         [19] 4948 	ld	-14 (ix), e
    0000196D DD 72 F3         [19] 4949 	ld	-13 (ix), d
    00001970 DD 75 F4         [19] 4950 	ld	-12 (ix), l
    00001973 DD 74 F5         [19] 4951 	ld	-11 (ix), h
    00001976 DD 7E FA         [19] 4952 	ld	a, -6 (ix)
    00001979 DD 96 F2         [19] 4953 	sub	a, -14 (ix)
    0000197C DD 77 F6         [19] 4954 	ld	-10 (ix), a
    0000197F DD 7E FB         [19] 4955 	ld	a, -5 (ix)
    00001982 DD 9E F3         [19] 4956 	sbc	a, -13 (ix)
    00001985 DD 77 F7         [19] 4957 	ld	-9 (ix), a
    00001988 DD 7E FC         [19] 4958 	ld	a, -4 (ix)
    0000198B DD 9E F4         [19] 4959 	sbc	a, -12 (ix)
    0000198E DD 77 F8         [19] 4960 	ld	-8 (ix), a
    00001991 DD 7E FD         [19] 4961 	ld	a, -3 (ix)
    00001994 DD 9E F5         [19] 4962 	sbc	a, -11 (ix)
    00001997 DD 77 F9         [19] 4963 	ld	-7 (ix), a
    0000199A 21 1A 00         [10] 4964 	ld	hl, #26
    0000199D 39               [11] 4965 	add	hl, sp
    0000199E EB               [ 4] 4966 	ex	de, hl
    0000199F 21 16 00         [10] 4967 	ld	hl, #22
    000019A2 39               [11] 4968 	add	hl, sp
    000019A3 01 04 00         [10] 4969 	ld	bc, #4
    000019A6 ED B0            [21] 4970 	ldir
                                   4971 ;E:\Dropbox\FAUSTO\SVILUPPI\MSX\CODE\C\MSXgl\projects\exsoccer/exsoccer_s2_b0.c:929: if (score > bestScore) {
    000019A8 DD 7E E1         [19] 4972 	ld	a, -31 (ix)
    000019AB DD 96 FA         [19] 4973 	sub	a, -6 (ix)
    000019AE DD 7E E2         [19] 4974 	ld	a, -30 (ix)
    000019B1 DD 9E FB         [19] 4975 	sbc	a, -5 (ix)
    000019B4 DD 7E E3         [19] 4976 	ld	a, -29 (ix)
    000019B7 DD 9E FC         [19] 4977 	sbc	a, -4 (ix)
    000019BA DD 7E E4         [19] 4978 	ld	a, -28 (ix)
    000019BD DD 9E FD         [19] 4979 	sbc	a, -3 (ix)
    000019C0 E2rC5r19         [10] 4980 	jp	PO, 00298$
    000019C3 EE 80            [ 7] 4981 	xor	a, #0x80
    000019C5                       4982 00298$:
    000019C5 F2rDCr19         [10] 4983 	jp	P, 00150$
                                   4984 ;E:\Dropbox\FAUSTO\SVILUPPI\MSX\CODE\C\MSXgl\projects\exsoccer/exsoccer_s2_b0.c:930: bestScore = score;
    000019C8 21 01 00         [10] 4985 	ld	hl, #1
    000019CB 39               [11] 4986 	add	hl, sp
    000019CC EB               [ 4] 4987 	ex	de, hl
    000019CD 21 1A 00         [10] 4988 	ld	hl, #26
    000019D0 39               [11] 4989 	add	hl, sp
    000019D1 01 04 00         [10] 4990 	ld	bc, #4
    000019D4 ED B0            [21] 4991 	ldir
                                   4992 ;E:\Dropbox\FAUSTO\SVILUPPI\MSX\CODE\C\MSXgl\projects\exsoccer/exsoccer_s2_b0.c:931: bestTarget = i;
    000019D6 DD 7E FF         [19] 4993 	ld	a, -1 (ix)
    000019D9 DD 77 E0         [19] 4994 	ld	-32 (ix), a
    000019DC                       4995 00150$:
                                   4996 ;E:\Dropbox\FAUSTO\SVILUPPI\MSX\CODE\C\MSXgl\projects\exsoccer/exsoccer_s2_b0.c:883: for(i=0; i<14; i++) {
    000019DC DD 34 FF         [23] 4997 	inc	-1 (ix)
    000019DF DD 7E FF         [19] 4998 	ld	a, -1 (ix)
    000019E2 D6 0E            [ 7] 4999 	sub	a, #0x0e
    000019E4 DAr38r17         [10] 5000 	jp	C, 00152$
                                   5001 ;E:\Dropbox\FAUSTO\SVILUPPI\MSX\CODE\C\MSXgl\projects\exsoccer/exsoccer_s2_b0.c:967: return bestTarget;
    000019E7 DD 7E E0         [19] 5002 	ld	a, -32 (ix)
                                   5003 ;E:\Dropbox\FAUSTO\SVILUPPI\MSX\CODE\C\MSXgl\projects\exsoccer/exsoccer_s2_b0.c:968: }
    000019EA DD F9            [10] 5004 	ld	sp, ix
    000019EC DD E1            [14] 5005 	pop	ix
    000019EE C9               [10] 5006 	ret
                                   5007 ;E:\Dropbox\FAUSTO\SVILUPPI\MSX\CODE\C\MSXgl\projects\exsoccer/exsoccer_s2_b0.c:970: void UpdatePassTarget() {
                                   5008 ;	---------------------------------
                                   5009 ; Function UpdatePassTarget
                                   5010 ; ---------------------------------
    000019EF                       5011 _UpdatePassTarget::
                                   5012 ;E:\Dropbox\FAUSTO\SVILUPPI\MSX\CODE\C\MSXgl\projects\exsoccer/exsoccer_s2_b0.c:972: if (g_MatchStatus != MATCH_IN_ACTION && g_MatchStatus != MATCH_BALL_ON_GOALKEEPER) {
    000019EF 3Ar00r00         [13] 5013 	ld	a,(_g_MatchStatus+0)
    000019F2 FE 0C            [ 7] 5014 	cp	a,#0x0c
    000019F4 28 03            [12] 5015 	jr	Z, 00102$
    000019F6 D6 0D            [ 7] 5016 	sub	a, #0x0d
                                   5017 ;E:\Dropbox\FAUSTO\SVILUPPI\MSX\CODE\C\MSXgl\projects\exsoccer/exsoccer_s2_b0.c:973: return; 
    000019F8 C0               [11] 5018 	ret	NZ
    000019F9                       5019 00102$:
                                   5020 ;E:\Dropbox\FAUSTO\SVILUPPI\MSX\CODE\C\MSXgl\projects\exsoccer/exsoccer_s2_b0.c:977: u8 carrier = g_Ball.PossessionPlayerId;
    000019F9 3Ar06r00         [13] 5021 	ld	a, (#_g_Ball + 6)
    000019FC 4F               [ 4] 5022 	ld	c, a
                                   5023 ;E:\Dropbox\FAUSTO\SVILUPPI\MSX\CODE\C\MSXgl\projects\exsoccer/exsoccer_s2_b0.c:979: if (g_Ball.PossessionPlayerId == NO_VALUE) {
    000019FD 3C               [ 4] 5024 	inc	a
    000019FE 20 06            [12] 5025 	jr	NZ, 00105$
                                   5026 ;E:\Dropbox\FAUSTO\SVILUPPI\MSX\CODE\C\MSXgl\projects\exsoccer/exsoccer_s2_b0.c:980: g_PassTargetPlayer = NO_VALUE;
    00001A00 21r00r00         [10] 5027 	ld	hl, #_g_PassTargetPlayer
    00001A03 36 FF            [10] 5028 	ld	(hl), #0xff
                                   5029 ;E:\Dropbox\FAUSTO\SVILUPPI\MSX\CODE\C\MSXgl\projects\exsoccer/exsoccer_s2_b0.c:981: return;
    00001A05 C9               [10] 5030 	ret
    00001A06                       5031 00105$:
                                   5032 ;E:\Dropbox\FAUSTO\SVILUPPI\MSX\CODE\C\MSXgl\projects\exsoccer/exsoccer_s2_b0.c:985: passUpdateTimer++;
    00001A06 21r07r00         [10] 5033 	ld	hl, #_UpdatePassTarget_passUpdateTimer_65537_1397
    00001A09 34               [11] 5034 	inc	(hl)
                                   5035 ;E:\Dropbox\FAUSTO\SVILUPPI\MSX\CODE\C\MSXgl\projects\exsoccer/exsoccer_s2_b0.c:986: if (passUpdateTimer < 8) return;
    00001A0A 3Ar07r00         [13] 5036 	ld	a, (_UpdatePassTarget_passUpdateTimer_65537_1397+0)
    00001A0D D6 08            [ 7] 5037 	sub	a, #0x08
    00001A0F D8               [11] 5038 	ret	C
                                   5039 ;E:\Dropbox\FAUSTO\SVILUPPI\MSX\CODE\C\MSXgl\projects\exsoccer/exsoccer_s2_b0.c:987: passUpdateTimer = 0;
    00001A10 21r07r00         [10] 5040 	ld	hl, #_UpdatePassTarget_passUpdateTimer_65537_1397
    00001A13 36 00            [10] 5041 	ld	(hl), #0x00
                                   5042 ;E:\Dropbox\FAUSTO\SVILUPPI\MSX\CODE\C\MSXgl\projects\exsoccer/exsoccer_s2_b0.c:989: if (carrier != NO_VALUE) {
    00001A15 79               [ 4] 5043 	ld	a, c
    00001A16 3C               [ 4] 5044 	inc	a
    00001A17 28 08            [12] 5045 	jr	Z, 00111$
                                   5046 ;E:\Dropbox\FAUSTO\SVILUPPI\MSX\CODE\C\MSXgl\projects\exsoccer/exsoccer_s2_b0.c:990: g_PassTargetPlayer = GetBestPassTarget(carrier);
    00001A19 79               [ 4] 5047 	ld	a, c
    00001A1A CDrFFr15         [17] 5048 	call	_GetBestPassTarget
    00001A1D 32r00r00         [13] 5049 	ld	(_g_PassTargetPlayer+0), a
    00001A20 C9               [10] 5050 	ret
    00001A21                       5051 00111$:
                                   5052 ;E:\Dropbox\FAUSTO\SVILUPPI\MSX\CODE\C\MSXgl\projects\exsoccer/exsoccer_s2_b0.c:992: if (g_Ball.PassTargetPlayerId == NO_VALUE) g_PassTargetPlayer = NO_VALUE;
    00001A21 3Ar10r00         [13] 5053 	ld	a, (#_g_Ball + 16)
    00001A24 3C               [ 4] 5054 	inc	a
    00001A25 C0               [11] 5055 	ret	NZ
    00001A26 21r00r00         [10] 5056 	ld	hl, #_g_PassTargetPlayer
    00001A29 36 FF            [10] 5057 	ld	(hl), #0xff
                                   5058 ;E:\Dropbox\FAUSTO\SVILUPPI\MSX\CODE\C\MSXgl\projects\exsoccer/exsoccer_s2_b0.c:994: }
    00001A2B C9               [10] 5059 	ret
                                   5060 ;E:\Dropbox\FAUSTO\SVILUPPI\MSX\CODE\C\MSXgl\projects\exsoccer/exsoccer_s2_b0.c:1004: void GoalkeeperWithBall(u8 teamId, bool isSteal) {
                                   5061 ;	---------------------------------
                                   5062 ; Function GoalkeeperWithBall
                                   5063 ; ---------------------------------
    00001A2C                       5064 _GoalkeeperWithBall::
    00001A2C DD E5            [15] 5065 	push	ix
    00001A2E DD 21 00 00      [14] 5066 	ld	ix,#0
    00001A32 DD 39            [15] 5067 	add	ix,sp
    00001A34 FD 21 F8 FF      [14] 5068 	ld	iy, #-8
    00001A38 FD 39            [15] 5069 	add	iy, sp
    00001A3A FD F9            [10] 5070 	ld	sp, iy
    00001A3C DD 77 FE         [19] 5071 	ld	-2 (ix), a
    00001A3F DD 75 FD         [19] 5072 	ld	-3 (ix), l
                                   5073 ;E:\Dropbox\FAUSTO\SVILUPPI\MSX\CODE\C\MSXgl\projects\exsoccer/exsoccer_s2_b0.c:1005: u8 gkId = GetPlayerIdByRole(teamId, PLAYER_ROLE_GOALKEEPER);
    00001A42 2E 00            [ 7] 5074 	ld	l, #0x00
                                   5075 ;	spillPairReg hl
                                   5076 ;	spillPairReg hl
    00001A44 DD 7E FE         [19] 5077 	ld	a, -2 (ix)
    00001A47 CDr5Er00         [17] 5078 	call	_GetPlayerIdByRole
                                   5079 ;E:\Dropbox\FAUSTO\SVILUPPI\MSX\CODE\C\MSXgl\projects\exsoccer/exsoccer_s2_b0.c:1006: if(gkId == NO_VALUE) return;
    00001A4A DD 77 F8         [19] 5080 	ld	-8 (ix), a
    00001A4D 3C               [ 4] 5081 	inc	a
    00001A4E CAr30r1C         [10] 5082 	jp	Z,00159$
    00001A51 C3r54r1A         [10] 5083 	jp	00102$
    00001A54                       5084 00102$:
                                   5085 ;E:\Dropbox\FAUSTO\SVILUPPI\MSX\CODE\C\MSXgl\projects\exsoccer/exsoccer_s2_b0.c:1008: s_GkAnimPlayerId = gkId;
    00001A54 DD 7E F8         [19] 5086 	ld	a, -8 (ix)
    00001A57 32r05r00         [13] 5087 	ld	(_s_GkAnimPlayerId+0), a
                                   5088 ;E:\Dropbox\FAUSTO\SVILUPPI\MSX\CODE\C\MSXgl\projects\exsoccer/exsoccer_s2_b0.c:1009: s_GkAnimTimer = 0;
    00001A5A 21r04r00         [10] 5089 	ld	hl, #_s_GkAnimTimer
    00001A5D 36 00            [10] 5090 	ld	(hl), #0x00
                                   5091 ;E:\Dropbox\FAUSTO\SVILUPPI\MSX\CODE\C\MSXgl\projects\exsoccer/exsoccer_s2_b0.c:1012: if (teamId == TEAM_1) {
    00001A5F DD 7E FE         [19] 5092 	ld	a, -2 (ix)
    00001A62 3D               [ 4] 5093 	dec	a
    00001A63 3E 01            [ 7] 5094 	ld	a, #0x01
    00001A65 28 01            [12] 5095 	jr	Z, 00275$
    00001A67 AF               [ 4] 5096 	xor	a, a
    00001A68                       5097 00275$:
    00001A68 DD 77 F9         [19] 5098 	ld	-7 (ix), a
                                   5099 ;E:\Dropbox\FAUSTO\SVILUPPI\MSX\CODE\C\MSXgl\projects\exsoccer/exsoccer_s2_b0.c:1013: g_Players[gkId].PatternId = PLAYER_POSE_TEAM1_GK_BALL_FRONT;
    00001A6B DD 4E F8         [19] 5100 	ld	c, -8 (ix)
    00001A6E 06 00            [ 7] 5101 	ld	b, #0x00
    00001A70 69               [ 4] 5102 	ld	l, c
    00001A71 60               [ 4] 5103 	ld	h, b
    00001A72 29               [11] 5104 	add	hl, hl
    00001A73 29               [11] 5105 	add	hl, hl
    00001A74 09               [11] 5106 	add	hl, bc
    00001A75 29               [11] 5107 	add	hl, hl
    00001A76 29               [11] 5108 	add	hl, hl
    00001A77 09               [11] 5109 	add	hl, bc
    00001A78 4D               [ 4] 5110 	ld	c, l
    00001A79 44               [ 4] 5111 	ld	b, h
                                   5112 ;E:\Dropbox\FAUSTO\SVILUPPI\MSX\CODE\C\MSXgl\projects\exsoccer/exsoccer_s2_b0.c:1012: if (teamId == TEAM_1) {
    00001A7A DD 7E F9         [19] 5113 	ld	a, -7 (ix)
    00001A7D B7               [ 4] 5114 	or	a, a
    00001A7E 28 14            [12] 5115 	jr	Z, 00104$
                                   5116 ;E:\Dropbox\FAUSTO\SVILUPPI\MSX\CODE\C\MSXgl\projects\exsoccer/exsoccer_s2_b0.c:1013: g_Players[gkId].PatternId = PLAYER_POSE_TEAM1_GK_BALL_FRONT;
    00001A80 21r00r00         [10] 5117 	ld	hl, #_g_Players+0
    00001A83 09               [11] 5118 	add	hl, bc
    00001A84 EB               [ 4] 5119 	ex	de, hl
    00001A85 21 08 00         [10] 5120 	ld	hl, #0x0008
    00001A88 19               [11] 5121 	add	hl, de
    00001A89 36 9E            [10] 5122 	ld	(hl), #0x9e
                                   5123 ;E:\Dropbox\FAUSTO\SVILUPPI\MSX\CODE\C\MSXgl\projects\exsoccer/exsoccer_s2_b0.c:1014: g_Players[gkId].Direction = DIRECTION_UP; // Face Up (Attack Direction)
    00001A8B 21 0A 00         [10] 5124 	ld	hl, #0x000a
    00001A8E 19               [11] 5125 	add	hl, de
    00001A8F 36 01            [10] 5126 	ld	(hl), #0x01
    00001A91 C3rA5r1A         [10] 5127 	jp	00105$
    00001A94                       5128 00104$:
                                   5129 ;E:\Dropbox\FAUSTO\SVILUPPI\MSX\CODE\C\MSXgl\projects\exsoccer/exsoccer_s2_b0.c:1017: g_Players[gkId].PatternId = PLAYER_POSE_FRONT; // Team 2 GK plays like a player (feet)
    00001A94 21r00r00         [10] 5130 	ld	hl, #_g_Players+0
    00001A97 09               [11] 5131 	add	hl, bc
    00001A98 EB               [ 4] 5132 	ex	de, hl
    00001A99 21 08 00         [10] 5133 	ld	hl, #0x0008
    00001A9C 19               [11] 5134 	add	hl, de
    00001A9D 36 10            [10] 5135 	ld	(hl), #0x10
                                   5136 ;E:\Dropbox\FAUSTO\SVILUPPI\MSX\CODE\C\MSXgl\projects\exsoccer/exsoccer_s2_b0.c:1018: g_Players[gkId].Direction = DIRECTION_DOWN; // Face Down (Attack Direction)
    00001A9F 21 0A 00         [10] 5137 	ld	hl, #0x000a
    00001AA2 19               [11] 5138 	add	hl, de
    00001AA3 36 05            [10] 5139 	ld	(hl), #0x05
    00001AA5                       5140 00105$:
                                   5141 ;E:\Dropbox\FAUSTO\SVILUPPI\MSX\CODE\C\MSXgl\projects\exsoccer/exsoccer_s2_b0.c:1022: g_Players[gkId].Status = PLAYER_STATUS_POSITIONED;
    00001AA5 21r00r00         [10] 5142 	ld	hl, #_g_Players
    00001AA8 09               [11] 5143 	add	hl, bc
    00001AA9 DD 75 FB         [19] 5144 	ld	-5 (ix), l
    00001AAC DD 74 FC         [19] 5145 	ld	-4 (ix), h
    00001AAF 11 12 00         [10] 5146 	ld	de, #0x0012
    00001AB2 19               [11] 5147 	add	hl, de
    00001AB3 36 04            [10] 5148 	ld	(hl), #0x04
    00001AB5 23               [ 6] 5149 	inc	hl
    00001AB6 36 00            [10] 5150 	ld	(hl), #0x00
                                   5151 ;E:\Dropbox\FAUSTO\SVILUPPI\MSX\CODE\C\MSXgl\projects\exsoccer/exsoccer_s2_b0.c:1026: bool closeToLine = false;
    00001AB8 DD 36 FF 00      [19] 5152 	ld	-1 (ix), #0x00
                                   5153 ;E:\Dropbox\FAUSTO\SVILUPPI\MSX\CODE\C\MSXgl\projects\exsoccer/exsoccer_s2_b0.c:1027: if (teamId == TEAM_2) { // GK 2 (Top)
    00001ABC DD 7E FE         [19] 5154 	ld	a, -2 (ix)
    00001ABF D6 02            [ 7] 5155 	sub	a, #0x02
    00001AC1 20 1D            [12] 5156 	jr	NZ, 00111$
                                   5157 ;E:\Dropbox\FAUSTO\SVILUPPI\MSX\CODE\C\MSXgl\projects\exsoccer/exsoccer_s2_b0.c:1028: g_GkRecoilY = -1;
    00001AC3 21r00r00         [10] 5158 	ld	hl, #_g_GkRecoilY
    00001AC6 36 FF            [10] 5159 	ld	(hl), #0xff
                                   5160 ;E:\Dropbox\FAUSTO\SVILUPPI\MSX\CODE\C\MSXgl\projects\exsoccer/exsoccer_s2_b0.c:1029: if (g_Players[gkId].Y <= FIELD_BOUND_Y_TOP + 4) closeToLine = true;
    00001AC8 DD 6E FB         [19] 5161 	ld	l, -5 (ix)
    00001ACB DD 66 FC         [19] 5162 	ld	h, -4 (ix)
    00001ACE 4E               [ 7] 5163 	ld	c, (hl)
    00001ACF 23               [ 6] 5164 	inc	hl
    00001AD0 46               [ 7] 5165 	ld	b, (hl)
    00001AD1 3E 36            [ 7] 5166 	ld	a, #0x36
    00001AD3 B9               [ 4] 5167 	cp	a, c
    00001AD4 3E 00            [ 7] 5168 	ld	a, #0x00
    00001AD6 98               [ 4] 5169 	sbc	a, b
    00001AD7 38 2D            [12] 5170 	jr	C, 00112$
    00001AD9 DD 36 FF 01      [19] 5171 	ld	-1 (ix), #0x01
    00001ADD C3r06r1B         [10] 5172 	jp	00112$
    00001AE0                       5173 00111$:
                                   5174 ;E:\Dropbox\FAUSTO\SVILUPPI\MSX\CODE\C\MSXgl\projects\exsoccer/exsoccer_s2_b0.c:1031: g_GkRecoilY = 1;
    00001AE0 21r00r00         [10] 5175 	ld	hl, #_g_GkRecoilY
    00001AE3 36 01            [10] 5176 	ld	(hl), #0x01
                                   5177 ;E:\Dropbox\FAUSTO\SVILUPPI\MSX\CODE\C\MSXgl\projects\exsoccer/exsoccer_s2_b0.c:1032: if (g_Players[gkId].Y >= FIELD_BOUND_Y_BOTTOM - 4) closeToLine = true;
    00001AE5 DD 6E FB         [19] 5178 	ld	l, -5 (ix)
    00001AE8 DD 66 FC         [19] 5179 	ld	h, -4 (ix)
    00001AEB 7E               [ 7] 5180 	ld	a, (hl)
    00001AEC DD 77 FB         [19] 5181 	ld	-5 (ix), a
    00001AEF 23               [ 6] 5182 	inc	hl
    00001AF0 7E               [ 7] 5183 	ld	a, (hl)
    00001AF1 DD 77 FC         [19] 5184 	ld	-4 (ix), a
    00001AF4 DD 4E FB         [19] 5185 	ld	c, -5 (ix)
    00001AF7 DD 46 FC         [19] 5186 	ld	b, -4 (ix)
    00001AFA 79               [ 4] 5187 	ld	a, c
    00001AFB D6 AA            [ 7] 5188 	sub	a, #0xaa
    00001AFD 78               [ 4] 5189 	ld	a, b
    00001AFE DE 01            [ 7] 5190 	sbc	a, #0x01
    00001B00 38 04            [12] 5191 	jr	C, 00112$
    00001B02 DD 36 FF 01      [19] 5192 	ld	-1 (ix), #0x01
    00001B06                       5193 00112$:
                                   5194 ;E:\Dropbox\FAUSTO\SVILUPPI\MSX\CODE\C\MSXgl\projects\exsoccer/exsoccer_s2_b0.c:1035: if (closeToLine || isSteal) g_GkRecoilY = 0; // No recoil for Steals
    00001B06 DD 7E FF         [19] 5195 	ld	a, -1 (ix)
    00001B09 B7               [ 4] 5196 	or	a, a
    00001B0A 20 06            [12] 5197 	jr	NZ, 00113$
    00001B0C DD 7E FD         [19] 5198 	ld	a, -3 (ix)
    00001B0F B7               [ 4] 5199 	or	a, a
    00001B10 28 05            [12] 5200 	jr	Z, 00114$
    00001B12                       5201 00113$:
    00001B12 21r00r00         [10] 5202 	ld	hl, #_g_GkRecoilY
    00001B15 36 00            [10] 5203 	ld	(hl), #0x00
    00001B17                       5204 00114$:
                                   5205 ;E:\Dropbox\FAUSTO\SVILUPPI\MSX\CODE\C\MSXgl\projects\exsoccer/exsoccer_s2_b0.c:1036: g_GkIsGroundKick = isSteal; // Track if this is a ground kick (no offset needed)
    00001B17 DD 7E FD         [19] 5206 	ld	a, -3 (ix)
    00001B1A 32r00r00         [13] 5207 	ld	(_g_GkIsGroundKick+0), a
                                   5208 ;E:\Dropbox\FAUSTO\SVILUPPI\MSX\CODE\C\MSXgl\projects\exsoccer/exsoccer_s2_b0.c:1039: SetPlayerBallPossession(gkId);
    00001B1D DD 7E F8         [19] 5209 	ld	a, -8 (ix)
    00001B20 CDr00r00         [17] 5210 	call	_SetPlayerBallPossession
                                   5211 ;E:\Dropbox\FAUSTO\SVILUPPI\MSX\CODE\C\MSXgl\projects\exsoccer/exsoccer_s2_b0.c:1040: g_Ball.PossessionPlayerId = gkId; // Fix: Ensure AI knows GK has ball immediately to prevent chasing
    00001B23 21r06r00         [10] 5212 	ld	hl, #(_g_Ball + 6)
    00001B26 DD 7E F8         [19] 5213 	ld	a, -8 (ix)
    00001B29 77               [ 7] 5214 	ld	(hl), a
                                   5215 ;E:\Dropbox\FAUSTO\SVILUPPI\MSX\CODE\C\MSXgl\projects\exsoccer/exsoccer_s2_b0.c:1041: g_Ball.ShotActive = 0;
    00001B2A 21r1Br00         [10] 5216 	ld	hl, #(_g_Ball + 27)
    00001B2D 36 00            [10] 5217 	ld	(hl), #0x00
                                   5218 ;E:\Dropbox\FAUSTO\SVILUPPI\MSX\CODE\C\MSXgl\projects\exsoccer/exsoccer_s2_b0.c:1043: g_MatchStatus = MATCH_BALL_ON_GOALKEEPER;
    00001B2F 21r00r00         [10] 5219 	ld	hl, #_g_MatchStatus
    00001B32 36 0D            [10] 5220 	ld	(hl), #0x0d
                                   5221 ;E:\Dropbox\FAUSTO\SVILUPPI\MSX\CODE\C\MSXgl\projects\exsoccer/exsoccer_s2_b0.c:1046: for(u8 i=0; i<14; i++) {
    00001B34 DD 36 FF 00      [19] 5222 	ld	-1 (ix), #0x00
    00001B38                       5223 00158$:
    00001B38 DD 7E FF         [19] 5224 	ld	a, -1 (ix)
    00001B3B D6 0E            [ 7] 5225 	sub	a, #0x0e
    00001B3D D2r30r1C         [10] 5226 	jp	NC, 00159$
                                   5227 ;E:\Dropbox\FAUSTO\SVILUPPI\MSX\CODE\C\MSXgl\projects\exsoccer/exsoccer_s2_b0.c:1047: if(i == gkId) continue;
    00001B40 DD 7E F8         [19] 5228 	ld	a, -8 (ix)
    00001B43 DD 96 FF         [19] 5229 	sub	a, -1 (ix)
    00001B46 CAr2Ar1C         [10] 5230 	jp	Z,00155$
                                   5231 ;E:\Dropbox\FAUSTO\SVILUPPI\MSX\CODE\C\MSXgl\projects\exsoccer/exsoccer_s2_b0.c:1048: if(g_Players[i].TeamId == REFEREE) continue;
    00001B49 DD 4E FF         [19] 5232 	ld	c, -1 (ix)
    00001B4C 06 00            [ 7] 5233 	ld	b, #0x00
    00001B4E 69               [ 4] 5234 	ld	l, c
    00001B4F 60               [ 4] 5235 	ld	h, b
    00001B50 29               [11] 5236 	add	hl, hl
    00001B51 29               [11] 5237 	add	hl, hl
    00001B52 09               [11] 5238 	add	hl, bc
    00001B53 29               [11] 5239 	add	hl, hl
    00001B54 29               [11] 5240 	add	hl, hl
    00001B55 09               [11] 5241 	add	hl, bc
    00001B56 EB               [ 4] 5242 	ex	de, hl
    00001B57 21r00r00         [10] 5243 	ld	hl, #_g_Players
    00001B5A 19               [11] 5244 	add	hl, de
    00001B5B EB               [ 4] 5245 	ex	de, hl
    00001B5C D5               [11] 5246 	push	de
    00001B5D FD E1            [14] 5247 	pop	iy
    00001B5F FD 46 09         [19] 5248 	ld	b, 9 (iy)
    00001B62 78               [ 4] 5249 	ld	a, b
    00001B63 D6 0E            [ 7] 5250 	sub	a, #0x0e
    00001B65 CAr2Ar1C         [10] 5251 	jp	Z,00155$
                                   5252 ;E:\Dropbox\FAUSTO\SVILUPPI\MSX\CODE\C\MSXgl\projects\exsoccer/exsoccer_s2_b0.c:1049: if(g_Players[i].Role == PLAYER_ROLE_GOALKEEPER) continue;
    00001B68 D5               [11] 5253 	push	de
    00001B69 FD E1            [14] 5254 	pop	iy
    00001B6B FD 7E 0D         [19] 5255 	ld	a, 13 (iy)
    00001B6E DD 77 FA         [19] 5256 	ld	-6 (ix), a
    00001B71 B7               [ 4] 5257 	or	a, a
    00001B72 CAr2Ar1C         [10] 5258 	jp	Z, 00155$
                                   5259 ;E:\Dropbox\FAUSTO\SVILUPPI\MSX\CODE\C\MSXgl\projects\exsoccer/exsoccer_s2_b0.c:1053: tx = g_Players[i].X;
    00001B75 6B               [ 4] 5260 	ld	l, e
                                   5261 ;	spillPairReg hl
                                   5262 ;	spillPairReg hl
    00001B76 62               [ 4] 5263 	ld	h, d
                                   5264 ;	spillPairReg hl
                                   5265 ;	spillPairReg hl
    00001B77 23               [ 6] 5266 	inc	hl
    00001B78 23               [ 6] 5267 	inc	hl
    00001B79 7E               [ 7] 5268 	ld	a, (hl)
    00001B7A DD 77 FB         [19] 5269 	ld	-5 (ix), a
    00001B7D 23               [ 6] 5270 	inc	hl
    00001B7E 7E               [ 7] 5271 	ld	a, (hl)
    00001B7F DD 77 FC         [19] 5272 	ld	-4 (ix), a
                                   5273 ;E:\Dropbox\FAUSTO\SVILUPPI\MSX\CODE\C\MSXgl\projects\exsoccer/exsoccer_s2_b0.c:1060: if (g_Players[i].Role >= PLAYER_ROLE_LEFT_STRIKER) ty = 160;
    00001B82 DD 7E FA         [19] 5274 	ld	a, -6 (ix)
    00001B85 D6 05            [ 7] 5275 	sub	a, #0x05
    00001B87 3E 00            [ 7] 5276 	ld	a, #0x00
    00001B89 17               [ 4] 5277 	rla
    00001B8A 4F               [ 4] 5278 	ld	c, a
                                   5279 ;E:\Dropbox\FAUSTO\SVILUPPI\MSX\CODE\C\MSXgl\projects\exsoccer/exsoccer_s2_b0.c:1056: if(g_Players[i].TeamId == teamId) {
    00001B8B DD 7E FE         [19] 5280 	ld	a, -2 (ix)
    00001B8E 90               [ 4] 5281 	sub	a, b
    00001B8F 20 40            [12] 5282 	jr	NZ, 00153$
                                   5283 ;E:\Dropbox\FAUSTO\SVILUPPI\MSX\CODE\C\MSXgl\projects\exsoccer/exsoccer_s2_b0.c:1059: if(teamId == TEAM_1) { // Moving UP
    00001B91 DD 7E F9         [19] 5284 	ld	a, -7 (ix)
    00001B94 B7               [ 4] 5285 	or	a, a
    00001B95 28 1D            [12] 5286 	jr	Z, 00135$
                                   5287 ;E:\Dropbox\FAUSTO\SVILUPPI\MSX\CODE\C\MSXgl\projects\exsoccer/exsoccer_s2_b0.c:1060: if (g_Players[i].Role >= PLAYER_ROLE_LEFT_STRIKER) ty = 160;
    00001B97 CB 41            [ 8] 5288 	bit	0, c
    00001B99 20 06            [12] 5289 	jr	NZ, 00126$
    00001B9B 01 A0 00         [10] 5290 	ld	bc, #0x00a0
    00001B9E C3r0Er1C         [10] 5291 	jp	00154$
    00001BA1                       5292 00126$:
                                   5293 ;E:\Dropbox\FAUSTO\SVILUPPI\MSX\CODE\C\MSXgl\projects\exsoccer/exsoccer_s2_b0.c:1061: else if (g_Players[i].Role >= PLAYER_ROLE_LEFT_HALFFIELDER) ty = 240;
    00001BA1 DD 7E FA         [19] 5294 	ld	a, -6 (ix)
    00001BA4 D6 03            [ 7] 5295 	sub	a, #0x03
    00001BA6 38 06            [12] 5296 	jr	C, 00123$
    00001BA8 01 F0 00         [10] 5297 	ld	bc, #0x00f0
    00001BAB C3r0Er1C         [10] 5298 	jp	00154$
    00001BAE                       5299 00123$:
                                   5300 ;E:\Dropbox\FAUSTO\SVILUPPI\MSX\CODE\C\MSXgl\projects\exsoccer/exsoccer_s2_b0.c:1062: else ty = 350;
    00001BAE 01 5E 01         [10] 5301 	ld	bc, #0x015e
    00001BB1 C3r0Er1C         [10] 5302 	jp	00154$
    00001BB4                       5303 00135$:
                                   5304 ;E:\Dropbox\FAUSTO\SVILUPPI\MSX\CODE\C\MSXgl\projects\exsoccer/exsoccer_s2_b0.c:1064: if (g_Players[i].Role >= PLAYER_ROLE_LEFT_STRIKER) ty = 320;
    00001BB4 CB 41            [ 8] 5305 	bit	0, c
    00001BB6 20 06            [12] 5306 	jr	NZ, 00132$
    00001BB8 01 40 01         [10] 5307 	ld	bc, #0x0140
    00001BBB C3r0Er1C         [10] 5308 	jp	00154$
    00001BBE                       5309 00132$:
                                   5310 ;E:\Dropbox\FAUSTO\SVILUPPI\MSX\CODE\C\MSXgl\projects\exsoccer/exsoccer_s2_b0.c:1065: else if (g_Players[i].Role >= PLAYER_ROLE_LEFT_HALFFIELDER) ty = 240;
    00001BBE DD 7E FA         [19] 5311 	ld	a, -6 (ix)
    00001BC1 D6 03            [ 7] 5312 	sub	a, #0x03
    00001BC3 38 06            [12] 5313 	jr	C, 00129$
    00001BC5 01 F0 00         [10] 5314 	ld	bc, #0x00f0
    00001BC8 C3r0Er1C         [10] 5315 	jp	00154$
    00001BCB                       5316 00129$:
                                   5317 ;E:\Dropbox\FAUSTO\SVILUPPI\MSX\CODE\C\MSXgl\projects\exsoccer/exsoccer_s2_b0.c:1066: else ty = 130;
    00001BCB 01 82 00         [10] 5318 	ld	bc, #0x0082
    00001BCE C3r0Er1C         [10] 5319 	jp	00154$
    00001BD1                       5320 00153$:
                                   5321 ;E:\Dropbox\FAUSTO\SVILUPPI\MSX\CODE\C\MSXgl\projects\exsoccer/exsoccer_s2_b0.c:1071: if(teamId == TEAM_1) { // Opponent is Team 2 (Top) -> Retreat UP? No, Team 2 Defends Top.
    00001BD1 DD 7E F9         [19] 5322 	ld	a, -7 (ix)
    00001BD4 B7               [ 4] 5323 	or	a, a
    00001BD5 28 1D            [12] 5324 	jr	Z, 00150$
                                   5325 ;E:\Dropbox\FAUSTO\SVILUPPI\MSX\CODE\C\MSXgl\projects\exsoccer/exsoccer_s2_b0.c:1073: if (g_Players[i].Role >= PLAYER_ROLE_LEFT_STRIKER) ty = 243; // Midfield
    00001BD7 CB 41            [ 8] 5326 	bit	0, c
    00001BD9 20 06            [12] 5327 	jr	NZ, 00141$
    00001BDB 01 F3 00         [10] 5328 	ld	bc, #0x00f3
    00001BDE C3r0Er1C         [10] 5329 	jp	00154$
    00001BE1                       5330 00141$:
                                   5331 ;E:\Dropbox\FAUSTO\SVILUPPI\MSX\CODE\C\MSXgl\projects\exsoccer/exsoccer_s2_b0.c:1074: else if (g_Players[i].Role >= PLAYER_ROLE_LEFT_HALFFIELDER) ty = 106;
    00001BE1 DD 7E FA         [19] 5332 	ld	a, -6 (ix)
    00001BE4 D6 03            [ 7] 5333 	sub	a, #0x03
    00001BE6 38 06            [12] 5334 	jr	C, 00138$
    00001BE8 01 6A 00         [10] 5335 	ld	bc, #0x006a
    00001BEB C3r0Er1C         [10] 5336 	jp	00154$
    00001BEE                       5337 00138$:
                                   5338 ;E:\Dropbox\FAUSTO\SVILUPPI\MSX\CODE\C\MSXgl\projects\exsoccer/exsoccer_s2_b0.c:1075: else ty = 130;
    00001BEE 01 82 00         [10] 5339 	ld	bc, #0x0082
    00001BF1 C3r0Er1C         [10] 5340 	jp	00154$
    00001BF4                       5341 00150$:
                                   5342 ;E:\Dropbox\FAUSTO\SVILUPPI\MSX\CODE\C\MSXgl\projects\exsoccer/exsoccer_s2_b0.c:1078: if (g_Players[i].Role >= PLAYER_ROLE_LEFT_STRIKER) ty = 243;
    00001BF4 CB 41            [ 8] 5343 	bit	0, c
    00001BF6 20 06            [12] 5344 	jr	NZ, 00147$
    00001BF8 01 F3 00         [10] 5345 	ld	bc, #0x00f3
    00001BFB C3r0Er1C         [10] 5346 	jp	00154$
    00001BFE                       5347 00147$:
                                   5348 ;E:\Dropbox\FAUSTO\SVILUPPI\MSX\CODE\C\MSXgl\projects\exsoccer/exsoccer_s2_b0.c:1079: else if (g_Players[i].Role >= PLAYER_ROLE_LEFT_HALFFIELDER) ty = 318;
    00001BFE DD 7E FA         [19] 5349 	ld	a, -6 (ix)
    00001C01 D6 03            [ 7] 5350 	sub	a, #0x03
    00001C03 38 06            [12] 5351 	jr	C, 00144$
    00001C05 01 3E 01         [10] 5352 	ld	bc, #0x013e
    00001C08 C3r0Er1C         [10] 5353 	jp	00154$
    00001C0B                       5354 00144$:
                                   5355 ;E:\Dropbox\FAUSTO\SVILUPPI\MSX\CODE\C\MSXgl\projects\exsoccer/exsoccer_s2_b0.c:1080: else ty = 350;
    00001C0B 01 5E 01         [10] 5356 	ld	bc, #0x015e
    00001C0E                       5357 00154$:
                                   5358 ;E:\Dropbox\FAUSTO\SVILUPPI\MSX\CODE\C\MSXgl\projects\exsoccer/exsoccer_s2_b0.c:1085: g_Players[i].TargetX = tx;
    00001C0E 21 10 00         [10] 5359 	ld	hl, #0x0010
    00001C11 19               [11] 5360 	add	hl, de
    00001C12 DD 7E FB         [19] 5361 	ld	a, -5 (ix)
    00001C15 77               [ 7] 5362 	ld	(hl), a
    00001C16 23               [ 6] 5363 	inc	hl
    00001C17 DD 7E FC         [19] 5364 	ld	a, -4 (ix)
    00001C1A 77               [ 7] 5365 	ld	(hl), a
                                   5366 ;E:\Dropbox\FAUSTO\SVILUPPI\MSX\CODE\C\MSXgl\projects\exsoccer/exsoccer_s2_b0.c:1086: g_Players[i].TargetY = ty;
    00001C1B 21 0E 00         [10] 5367 	ld	hl, #0x000e
    00001C1E 19               [11] 5368 	add	hl, de
    00001C1F 71               [ 7] 5369 	ld	(hl), c
    00001C20 23               [ 6] 5370 	inc	hl
    00001C21 70               [ 7] 5371 	ld	(hl), b
                                   5372 ;E:\Dropbox\FAUSTO\SVILUPPI\MSX\CODE\C\MSXgl\projects\exsoccer/exsoccer_s2_b0.c:1087: g_Players[i].Status = PLAYER_STATUS_NONE; // Unlock movement
    00001C22 21 12 00         [10] 5373 	ld	hl, #0x0012
    00001C25 19               [11] 5374 	add	hl, de
    00001C26 AF               [ 4] 5375 	xor	a, a
    00001C27 77               [ 7] 5376 	ld	(hl), a
    00001C28 23               [ 6] 5377 	inc	hl
    00001C29 77               [ 7] 5378 	ld	(hl), a
    00001C2A                       5379 00155$:
                                   5380 ;E:\Dropbox\FAUSTO\SVILUPPI\MSX\CODE\C\MSXgl\projects\exsoccer/exsoccer_s2_b0.c:1046: for(u8 i=0; i<14; i++) {
    00001C2A DD 34 FF         [23] 5381 	inc	-1 (ix)
    00001C2D C3r38r1B         [10] 5382 	jp	00158$
    00001C30                       5383 00159$:
                                   5384 ;E:\Dropbox\FAUSTO\SVILUPPI\MSX\CODE\C\MSXgl\projects\exsoccer/exsoccer_s2_b0.c:1089: }
    00001C30 DD F9            [10] 5385 	ld	sp, ix
    00001C32 DD E1            [14] 5386 	pop	ix
    00001C34 C9               [10] 5387 	ret
                                   5388 ;E:\Dropbox\FAUSTO\SVILUPPI\MSX\CODE\C\MSXgl\projects\exsoccer/exsoccer_s2_b0.c:1092: u8 SelectTeam(u8 cursorPatternId, u8 excludeIndex) {
                                   5389 ;	---------------------------------
                                   5390 ; Function SelectTeam
                                   5391 ; ---------------------------------
    00001C35                       5392 _SelectTeam::
    00001C35 DD E5            [15] 5393 	push	ix
    00001C37 DD 21 00 00      [14] 5394 	ld	ix,#0
    00001C3B DD 39            [15] 5395 	add	ix,sp
    00001C3D FD 21 F6 FF      [14] 5396 	ld	iy, #-10
    00001C41 FD 39            [15] 5397 	add	iy, sp
    00001C43 FD F9            [10] 5398 	ld	sp, iy
    00001C45 DD 77 FF         [19] 5399 	ld	-1 (ix), a
    00001C48 DD 75 FE         [19] 5400 	ld	-2 (ix), l
                                   5401 ;E:\Dropbox\FAUSTO\SVILUPPI\MSX\CODE\C\MSXgl\projects\exsoccer/exsoccer_s2_b0.c:1094: u8 currentIdx = 0;
    00001C4B DD 36 FA 00      [19] 5402 	ld	-6 (ix), #0x00
                                   5403 ;E:\Dropbox\FAUSTO\SVILUPPI\MSX\CODE\C\MSXgl\projects\exsoccer/exsoccer_s2_b0.c:1095: if (currentIdx == excludeIndex) currentIdx++;
    00001C4F DD 7E FE         [19] 5404 	ld	a, -2 (ix)
    00001C52 B7               [ 4] 5405 	or	a, a
    00001C53 20 04            [12] 5406 	jr	NZ, 00102$
    00001C55 DD 36 FA 01      [19] 5407 	ld	-6 (ix), #0x01
    00001C59                       5408 00102$:
                                   5409 ;E:\Dropbox\FAUSTO\SVILUPPI\MSX\CODE\C\MSXgl\projects\exsoccer/exsoccer_s2_b0.c:1098: u8 oldDir = DIRECTION_NONE;
    00001C59 DD 36 FD 00      [19] 5410 	ld	-3 (ix), #0x00
                                   5411 ;E:\Dropbox\FAUSTO\SVILUPPI\MSX\CODE\C\MSXgl\projects\exsoccer/exsoccer_s2_b0.c:1100: bool oldTrigger = true; // Force release first
    00001C5D DD 36 FB 01      [19] 5412 	ld	-5 (ix), #0x01
                                   5413 ;E:\Dropbox\FAUSTO\SVILUPPI\MSX\CODE\C\MSXgl\projects\exsoccer/exsoccer_s2_b0.c:1102: while (true) {
    00001C61                       5414 00143$:
                                   5415 ;E:\Dropbox\FAUSTO\SVILUPPI\MSX\CODE\C\MSXgl\projects\exsoccer/exsoccer_s2_b0.c:1103: UpdateV9990();
    00001C61 CDr00r00         [17] 5416 	call	_UpdateV9990
                                   5417 ;E:\Dropbox\FAUSTO\SVILUPPI\MSX\CODE\C\MSXgl\projects\exsoccer/exsoccer_s2_b0.c:1105: dir = GetJoystick1Direction();
    00001C64 CDrDEr11         [17] 5418 	call	_GetJoystick1Direction
    00001C67 4F               [ 4] 5419 	ld	c, a
                                   5420 ;E:\Dropbox\FAUSTO\SVILUPPI\MSX\CODE\C\MSXgl\projects\exsoccer/exsoccer_s2_b0.c:1106: trigger = IsTeamJoystickTriggerPressed(TEAM_1);
    00001C68 C5               [11] 5421 	push	bc
    00001C69 3E 01            [ 7] 5422 	ld	a, #0x01
    00001C6B CDrB7r11         [17] 5423 	call	_IsTeamJoystickTriggerPressed
    00001C6E C1               [10] 5424 	pop	bc
    00001C6F DD 77 FC         [19] 5425 	ld	-4 (ix), a
                                   5426 ;E:\Dropbox\FAUSTO\SVILUPPI\MSX\CODE\C\MSXgl\projects\exsoccer/exsoccer_s2_b0.c:1108: if (dir != DIRECTION_NONE && dir != oldDir) {
    00001C72 79               [ 4] 5427 	ld	a, c
    00001C73 B7               [ 4] 5428 	or	a, a
    00001C74 CAr4Fr1D         [10] 5429 	jp	Z, 00137$
    00001C77 79               [ 4] 5430 	ld	a, c
    00001C78 DD 96 FD         [19] 5431 	sub	a, -3 (ix)
    00001C7B CAr4Fr1D         [10] 5432 	jp	Z,00137$
                                   5433 ;E:\Dropbox\FAUSTO\SVILUPPI\MSX\CODE\C\MSXgl\projects\exsoccer/exsoccer_s2_b0.c:1109: u8 nextIdx = currentIdx;
    00001C7E DD 46 FA         [19] 5434 	ld	b, -6 (ix)
                                   5435 ;E:\Dropbox\FAUSTO\SVILUPPI\MSX\CODE\C\MSXgl\projects\exsoccer/exsoccer_s2_b0.c:1111: if (dir == DIRECTION_RIGHT) {
    00001C81 79               [ 4] 5436 	ld	a, c
    00001C82 D6 03            [ 7] 5437 	sub	a, #0x03
    00001C84 3E 01            [ 7] 5438 	ld	a, #0x01
    00001C86 28 01            [12] 5439 	jr	Z, 00248$
    00001C88 AF               [ 4] 5440 	xor	a, a
    00001C89                       5441 00248$:
    00001C89 DD 77 FD         [19] 5442 	ld	-3 (ix), a
    00001C8C B7               [ 4] 5443 	or	a, a
    00001C8D 28 1F            [12] 5444 	jr	Z, 00120$
                                   5445 ;E:\Dropbox\FAUSTO\SVILUPPI\MSX\CODE\C\MSXgl\projects\exsoccer/exsoccer_s2_b0.c:1112: if ((currentIdx % 3) < 2) nextIdx++;
    00001C8F DD 6E FA         [19] 5446 	ld	l, -6 (ix)
                                   5447 ;	spillPairReg hl
                                   5448 ;	spillPairReg hl
    00001C92 26 00            [ 7] 5449 	ld	h, #0x00
                                   5450 ;	spillPairReg hl
                                   5451 ;	spillPairReg hl
    00001C94 C5               [11] 5452 	push	bc
    00001C95 11 03 00         [10] 5453 	ld	de, #0x0003
    00001C98 CDr00r00         [17] 5454 	call	__modsint
    00001C9B C1               [10] 5455 	pop	bc
    00001C9C 7B               [ 4] 5456 	ld	a, e
    00001C9D D6 02            [ 7] 5457 	sub	a, #0x02
    00001C9F 7A               [ 4] 5458 	ld	a, d
    00001CA0 17               [ 4] 5459 	rla
    00001CA1 3F               [ 4] 5460 	ccf
    00001CA2 1F               [ 4] 5461 	rra
    00001CA3 DE 80            [ 7] 5462 	sbc	a, #0x80
    00001CA5 30 51            [12] 5463 	jr	NC, 00121$
    00001CA7 DD 46 FA         [19] 5464 	ld	b, -6 (ix)
    00001CAA 04               [ 4] 5465 	inc	b
    00001CAB C3rF8r1C         [10] 5466 	jp	00121$
    00001CAE                       5467 00120$:
                                   5468 ;E:\Dropbox\FAUSTO\SVILUPPI\MSX\CODE\C\MSXgl\projects\exsoccer/exsoccer_s2_b0.c:1113: } else if (dir == DIRECTION_LEFT) {
    00001CAE 79               [ 4] 5469 	ld	a, c
    00001CAF D6 07            [ 7] 5470 	sub	a, #0x07
    00001CB1 20 1F            [12] 5471 	jr	NZ, 00117$
                                   5472 ;E:\Dropbox\FAUSTO\SVILUPPI\MSX\CODE\C\MSXgl\projects\exsoccer/exsoccer_s2_b0.c:1114: if ((currentIdx % 3) > 0) nextIdx--;
    00001CB3 DD 6E FA         [19] 5473 	ld	l, -6 (ix)
                                   5474 ;	spillPairReg hl
                                   5475 ;	spillPairReg hl
    00001CB6 26 00            [ 7] 5476 	ld	h, #0x00
                                   5477 ;	spillPairReg hl
                                   5478 ;	spillPairReg hl
    00001CB8 C5               [11] 5479 	push	bc
    00001CB9 11 03 00         [10] 5480 	ld	de, #0x0003
    00001CBC CDr00r00         [17] 5481 	call	__modsint
    00001CBF C1               [10] 5482 	pop	bc
    00001CC0 AF               [ 4] 5483 	xor	a, a
    00001CC1 BB               [ 4] 5484 	cp	a, e
    00001CC2 9A               [ 4] 5485 	sbc	a, d
    00001CC3 E2rC8r1C         [10] 5486 	jp	PO, 00251$
    00001CC6 EE 80            [ 7] 5487 	xor	a, #0x80
    00001CC8                       5488 00251$:
    00001CC8 F2rF8r1C         [10] 5489 	jp	P, 00121$
    00001CCB DD 46 FA         [19] 5490 	ld	b, -6 (ix)
    00001CCE 05               [ 4] 5491 	dec	b
    00001CCF C3rF8r1C         [10] 5492 	jp	00121$
    00001CD2                       5493 00117$:
                                   5494 ;E:\Dropbox\FAUSTO\SVILUPPI\MSX\CODE\C\MSXgl\projects\exsoccer/exsoccer_s2_b0.c:1115: } else if (dir == DIRECTION_UP) {
    00001CD2 79               [ 4] 5495 	ld	a, c
    00001CD3 3D               [ 4] 5496 	dec	a
    00001CD4 20 10            [12] 5497 	jr	NZ, 00114$
                                   5498 ;E:\Dropbox\FAUSTO\SVILUPPI\MSX\CODE\C\MSXgl\projects\exsoccer/exsoccer_s2_b0.c:1116: if (currentIdx >= 3) nextIdx -= 3;
    00001CD6 DD 7E FA         [19] 5499 	ld	a, -6 (ix)
    00001CD9 D6 03            [ 7] 5500 	sub	a, #0x03
    00001CDB 38 1B            [12] 5501 	jr	C, 00121$
    00001CDD DD 7E FA         [19] 5502 	ld	a, -6 (ix)
    00001CE0 C6 FD            [ 7] 5503 	add	a, #0xfd
    00001CE2 47               [ 4] 5504 	ld	b, a
    00001CE3 C3rF8r1C         [10] 5505 	jp	00121$
    00001CE6                       5506 00114$:
                                   5507 ;E:\Dropbox\FAUSTO\SVILUPPI\MSX\CODE\C\MSXgl\projects\exsoccer/exsoccer_s2_b0.c:1117: } else if (dir == DIRECTION_DOWN) {
    00001CE6 79               [ 4] 5508 	ld	a, c
    00001CE7 D6 05            [ 7] 5509 	sub	a, #0x05
    00001CE9 20 0D            [12] 5510 	jr	NZ, 00121$
                                   5511 ;E:\Dropbox\FAUSTO\SVILUPPI\MSX\CODE\C\MSXgl\projects\exsoccer/exsoccer_s2_b0.c:1118: if (currentIdx < 3) nextIdx += 3;
    00001CEB DD 7E FA         [19] 5512 	ld	a, -6 (ix)
    00001CEE D6 03            [ 7] 5513 	sub	a, #0x03
    00001CF0 30 06            [12] 5514 	jr	NC, 00121$
    00001CF2 DD 7E FA         [19] 5515 	ld	a, -6 (ix)
    00001CF5 C6 03            [ 7] 5516 	add	a, #0x03
    00001CF7 47               [ 4] 5517 	ld	b, a
    00001CF8                       5518 00121$:
                                   5519 ;E:\Dropbox\FAUSTO\SVILUPPI\MSX\CODE\C\MSXgl\projects\exsoccer/exsoccer_s2_b0.c:1121: if (nextIdx == excludeIndex) {
    00001CF8 DD 7E FE         [19] 5520 	ld	a, -2 (ix)
    00001CFB 90               [ 4] 5521 	sub	a, b
    00001CFC 20 4E            [12] 5522 	jr	NZ, 00135$
                                   5523 ;E:\Dropbox\FAUSTO\SVILUPPI\MSX\CODE\C\MSXgl\projects\exsoccer/exsoccer_s2_b0.c:1123: if (dir == DIRECTION_RIGHT) {
    00001CFE DD 7E FD         [19] 5524 	ld	a, -3 (ix)
    00001D01 B7               [ 4] 5525 	or	a, a
    00001D02 28 20            [12] 5526 	jr	Z, 00132$
                                   5527 ;E:\Dropbox\FAUSTO\SVILUPPI\MSX\CODE\C\MSXgl\projects\exsoccer/exsoccer_s2_b0.c:1124: if ((nextIdx % 3) < 2) nextIdx++; else nextIdx = currentIdx;
    00001D04 68               [ 4] 5528 	ld	l, b
                                   5529 ;	spillPairReg hl
                                   5530 ;	spillPairReg hl
    00001D05 26 00            [ 7] 5531 	ld	h, #0x00
                                   5532 ;	spillPairReg hl
                                   5533 ;	spillPairReg hl
    00001D07 C5               [11] 5534 	push	bc
    00001D08 11 03 00         [10] 5535 	ld	de, #0x0003
    00001D0B CDr00r00         [17] 5536 	call	__modsint
    00001D0E C1               [10] 5537 	pop	bc
    00001D0F 7B               [ 4] 5538 	ld	a, e
    00001D10 D6 02            [ 7] 5539 	sub	a, #0x02
    00001D12 7A               [ 4] 5540 	ld	a, d
    00001D13 17               [ 4] 5541 	rla
    00001D14 3F               [ 4] 5542 	ccf
    00001D15 1F               [ 4] 5543 	rra
    00001D16 DE 80            [ 7] 5544 	sbc	a, #0x80
    00001D18 30 04            [12] 5545 	jr	NC, 00123$
    00001D1A 04               [ 4] 5546 	inc	b
    00001D1B C3r4Cr1D         [10] 5547 	jp	00135$
    00001D1E                       5548 00123$:
    00001D1E DD 46 FA         [19] 5549 	ld	b, -6 (ix)
    00001D21 C3r4Cr1D         [10] 5550 	jp	00135$
    00001D24                       5551 00132$:
                                   5552 ;E:\Dropbox\FAUSTO\SVILUPPI\MSX\CODE\C\MSXgl\projects\exsoccer/exsoccer_s2_b0.c:1125: } else if (dir == DIRECTION_LEFT) {
    00001D24 79               [ 4] 5553 	ld	a, c
    00001D25 D6 07            [ 7] 5554 	sub	a, #0x07
    00001D27 20 20            [12] 5555 	jr	NZ, 00129$
                                   5556 ;E:\Dropbox\FAUSTO\SVILUPPI\MSX\CODE\C\MSXgl\projects\exsoccer/exsoccer_s2_b0.c:1126: if ((nextIdx % 3) > 0) nextIdx--; else nextIdx = currentIdx;
    00001D29 68               [ 4] 5557 	ld	l, b
                                   5558 ;	spillPairReg hl
                                   5559 ;	spillPairReg hl
    00001D2A 26 00            [ 7] 5560 	ld	h, #0x00
                                   5561 ;	spillPairReg hl
                                   5562 ;	spillPairReg hl
    00001D2C C5               [11] 5563 	push	bc
    00001D2D 11 03 00         [10] 5564 	ld	de, #0x0003
    00001D30 CDr00r00         [17] 5565 	call	__modsint
    00001D33 C1               [10] 5566 	pop	bc
    00001D34 AF               [ 4] 5567 	xor	a, a
    00001D35 BB               [ 4] 5568 	cp	a, e
    00001D36 9A               [ 4] 5569 	sbc	a, d
    00001D37 E2r3Cr1D         [10] 5570 	jp	PO, 00260$
    00001D3A EE 80            [ 7] 5571 	xor	a, #0x80
    00001D3C                       5572 00260$:
    00001D3C F2r43r1D         [10] 5573 	jp	P, 00126$
    00001D3F 05               [ 4] 5574 	dec	b
    00001D40 C3r4Cr1D         [10] 5575 	jp	00135$
    00001D43                       5576 00126$:
    00001D43 DD 46 FA         [19] 5577 	ld	b, -6 (ix)
    00001D46 C3r4Cr1D         [10] 5578 	jp	00135$
    00001D49                       5579 00129$:
                                   5580 ;E:\Dropbox\FAUSTO\SVILUPPI\MSX\CODE\C\MSXgl\projects\exsoccer/exsoccer_s2_b0.c:1128: nextIdx = currentIdx; // Vertical skip blocked
    00001D49 DD 46 FA         [19] 5581 	ld	b, -6 (ix)
    00001D4C                       5582 00135$:
                                   5583 ;E:\Dropbox\FAUSTO\SVILUPPI\MSX\CODE\C\MSXgl\projects\exsoccer/exsoccer_s2_b0.c:1131: currentIdx = nextIdx;
    00001D4C DD 70 FA         [19] 5584 	ld	-6 (ix), b
    00001D4F                       5585 00137$:
                                   5586 ;E:\Dropbox\FAUSTO\SVILUPPI\MSX\CODE\C\MSXgl\projects\exsoccer/exsoccer_s2_b0.c:1133: oldDir = dir;
    00001D4F DD 71 FD         [19] 5587 	ld	-3 (ix), c
                                   5588 ;E:\Dropbox\FAUSTO\SVILUPPI\MSX\CODE\C\MSXgl\projects\exsoccer/exsoccer_s2_b0.c:1135: if (trigger && !oldTrigger) {
    00001D52 DD 7E FC         [19] 5589 	ld	a, -4 (ix)
    00001D55 B7               [ 4] 5590 	or	a, a
    00001D56 28 0C            [12] 5591 	jr	Z, 00140$
    00001D58 DD 7E FB         [19] 5592 	ld	a, -5 (ix)
    00001D5B B7               [ 4] 5593 	or	a, a
    00001D5C 20 06            [12] 5594 	jr	NZ, 00140$
                                   5595 ;E:\Dropbox\FAUSTO\SVILUPPI\MSX\CODE\C\MSXgl\projects\exsoccer/exsoccer_s2_b0.c:1137: return currentIdx;
    00001D5E DD 7E FA         [19] 5596 	ld	a, -6 (ix)
    00001D61 C3rC1r1D         [10] 5597 	jp	00147$
    00001D64                       5598 00140$:
                                   5599 ;E:\Dropbox\FAUSTO\SVILUPPI\MSX\CODE\C\MSXgl\projects\exsoccer/exsoccer_s2_b0.c:1139: oldTrigger = trigger;
    00001D64 DD 7E FC         [19] 5600 	ld	a, -4 (ix)
    00001D67 DD 77 FB         [19] 5601 	ld	-5 (ix), a
                                   5602 ;E:\Dropbox\FAUSTO\SVILUPPI\MSX\CODE\C\MSXgl\projects\exsoccer/exsoccer_s2_b0.c:1142: attr.Y = g_TeamPos[currentIdx].y;
    00001D6A DD 6E FA         [19] 5603 	ld	l, -6 (ix)
                                   5604 ;	spillPairReg hl
                                   5605 ;	spillPairReg hl
    00001D6D 26 00            [ 7] 5606 	ld	h, #0x00
                                   5607 ;	spillPairReg hl
                                   5608 ;	spillPairReg hl
    00001D6F 29               [11] 5609 	add	hl, hl
    00001D70 29               [11] 5610 	add	hl, hl
    00001D71 01r2Br00         [10] 5611 	ld	bc,#_g_TeamPos
    00001D74 09               [11] 5612 	add	hl,bc
    00001D75 EB               [ 4] 5613 	ex	de, hl
    00001D76 4B               [ 4] 5614 	ld	c, e
    00001D77 42               [ 4] 5615 	ld	b, d
    00001D78 03               [ 6] 5616 	inc	bc
    00001D79 03               [ 6] 5617 	inc	bc
    00001D7A 0A               [ 7] 5618 	ld	a, (bc)
    00001D7B DD 77 F6         [19] 5619 	ld	-10 (ix), a
                                   5620 ;E:\Dropbox\FAUSTO\SVILUPPI\MSX\CODE\C\MSXgl\projects\exsoccer/exsoccer_s2_b0.c:1143: attr.X = g_TeamPos[currentIdx].x;
    00001D7E EB               [ 4] 5621 	ex	de,hl
    00001D7F 4E               [ 7] 5622 	ld	c, (hl)
    00001D80 23               [ 6] 5623 	inc	hl
    00001D81 46               [ 7] 5624 	ld	b, (hl)
    00001D82 21 02 00         [10] 5625 	ld	hl, #2
    00001D85 39               [11] 5626 	add	hl, sp
    00001D86 71               [ 7] 5627 	ld	(hl), c
    00001D87 23               [ 6] 5628 	inc	hl
    00001D88 78               [ 4] 5629 	ld	a, b
    00001D89 E6 03            [ 7] 5630 	and	a, #0x03
    00001D8B 5F               [ 4] 5631 	ld	e,a
    00001D8C 7E               [ 7] 5632 	ld	a, (hl)
    00001D8D E6 FC            [ 7] 5633 	and	a, #0xfc
    00001D8F B3               [ 4] 5634 	or	a, e
    00001D90 77               [ 7] 5635 	ld	(hl), a
                                   5636 ;E:\Dropbox\FAUSTO\SVILUPPI\MSX\CODE\C\MSXgl\projects\exsoccer/exsoccer_s2_b0.c:1144: attr.Pattern = cursorPatternId;
    00001D91 DD 7E FF         [19] 5637 	ld	a, -1 (ix)
    00001D94 DD 77 F7         [19] 5638 	ld	-9 (ix), a
                                   5639 ;E:\Dropbox\FAUSTO\SVILUPPI\MSX\CODE\C\MSXgl\projects\exsoccer/exsoccer_s2_b0.c:1145: attr.P = 0; 
    00001D97 21 03 00         [10] 5640 	ld	hl, #3
    00001D9A 39               [11] 5641 	add	hl, sp
    00001D9B CB AE            [15] 5642 	res	5, (hl)
                                   5643 ;E:\Dropbox\FAUSTO\SVILUPPI\MSX\CODE\C\MSXgl\projects\exsoccer/exsoccer_s2_b0.c:1146: attr.SC = 0;
    00001D9D 21 03 00         [10] 5644 	ld	hl, #3
    00001DA0 39               [11] 5645 	add	hl, sp
    00001DA1 7E               [ 7] 5646 	ld	a, (hl)
    00001DA2 E6 3F            [ 7] 5647 	and	a, #0x3f
    00001DA4 77               [ 7] 5648 	ld	(hl), a
                                   5649 ;E:\Dropbox\FAUSTO\SVILUPPI\MSX\CODE\C\MSXgl\projects\exsoccer/exsoccer_s2_b0.c:1147: attr.D = 0;
    00001DA5 21 03 00         [10] 5650 	ld	hl, #3
    00001DA8 39               [11] 5651 	add	hl, sp
    00001DA9 CB A6            [15] 5652 	res	4, (hl)
                                   5653 ;E:\Dropbox\FAUSTO\SVILUPPI\MSX\CODE\C\MSXgl\projects\exsoccer/exsoccer_s2_b0.c:1148: V9_SetSpriteP1(0, &attr);
                                   5654 ;E:/Dropbox/FAUSTO/SVILUPPI/MSX/CODE/C/MSXgl/engine/src/v9990.h:781: inline void V9_SetSpriteP1(u8 id, const V9_Sprite* attr) { V9_WriteVRAM(V9_P1_SPAT + (id * 4), (const u8*)attr, 4); }
                                   5655 ;E:/Dropbox/FAUSTO/SVILUPPI/MSX/CODE/C/MSXgl/engine/src/v9990.h:371: inline void V9_WriteVRAM(u32 addr, const u8* src, u16 count) { V9_SetWriteAddress(addr); V9_WriteVRAM_CurrentAddr(src, count); }
    00001DAB 11 00 FE         [10] 5656 	ld	de, #0xfe00
    00001DAE 21 03 00         [10] 5657 	ld	hl, #0x0003
    00001DB1 CDr00r00         [17] 5658 	call	_V9_SetWriteAddress
    00001DB4 11 04 00         [10] 5659 	ld	de, #0x0004
    00001DB7 21 00 00         [10] 5660 	ld	hl, #0
    00001DBA 39               [11] 5661 	add	hl, sp
    00001DBB CDr00r00         [17] 5662 	call	_V9_WriteVRAM_CurrentAddr
                                   5663 ;E:\Dropbox\FAUSTO\SVILUPPI\MSX\CODE\C\MSXgl\projects\exsoccer/exsoccer_s2_b0.c:1148: V9_SetSpriteP1(0, &attr);
    00001DBE C3r61r1C         [10] 5664 	jp	00143$
    00001DC1                       5665 00147$:
                                   5666 ;E:\Dropbox\FAUSTO\SVILUPPI\MSX\CODE\C\MSXgl\projects\exsoccer/exsoccer_s2_b0.c:1150: }
    00001DC1 DD F9            [10] 5667 	ld	sp, ix
    00001DC3 DD E1            [14] 5668 	pop	ix
    00001DC5 C9               [10] 5669 	ret
                                   5670 ;E:\Dropbox\FAUSTO\SVILUPPI\MSX\CODE\C\MSXgl\projects\exsoccer/exsoccer_s2_b0.c:1151: void ShowMenu(){
                                   5671 ;	---------------------------------
                                   5672 ; Function ShowMenu
                                   5673 ; ---------------------------------
    00001DC6                       5674 _ShowMenu::
    00001DC6 DD E5            [15] 5675 	push	ix
    00001DC8 DD 21 00 00      [14] 5676 	ld	ix,#0
    00001DCC DD 39            [15] 5677 	add	ix,sp
    00001DCE F5               [11] 5678 	push	af
    00001DCF 3B               [ 6] 5679 	dec	sp
                                   5680 ;E:/Dropbox/FAUSTO/SVILUPPI/MSX/CODE/C/MSXgl/engine/src/v9990.h:353: inline void V9_FillVRAM(u32 addr, u8 value, u16 count) { V9_SetWriteAddress(addr); V9_FillVRAM_CurrentAddr(value, count); }
    00001DD0 11 00 00         [10] 5681 	ld	de, #0x0000
    00001DD3 21 04 00         [10] 5682 	ld	hl, #0x0004
    00001DD6 CDr00r00         [17] 5683 	call	_V9_SetWriteAddress
    00001DD9 11 00 6A         [10] 5684 	ld	de, #0x6a00
    00001DDC AF               [ 4] 5685 	xor	a, a
    00001DDD CDr00r00         [17] 5686 	call	_V9_FillVRAM_CurrentAddr
                                   5687 ;E:/Dropbox/FAUSTO/SVILUPPI/MSX/CODE/C/MSXgl/engine/src/rom_mapper.h:112: g_Bank0Segment[b] = s;
    00001DE0 21 12 00         [10] 5688 	ld	hl, #0x0012
    00001DE3 22r04r00         [16] 5689 	ld	((_g_Bank0Segment + 4)), hl
                                   5690 ;E:/Dropbox/FAUSTO/SVILUPPI/MSX/CODE/C/MSXgl/engine/src/system.h:109: inline void Poke16(u16 addr, u16 val) { *(u16*)addr = val; }
    00001DE6 22 00 70         [16] 5691 	ld	(0x7000), hl
                                   5692 ;E:\Dropbox\FAUSTO\SVILUPPI\MSX\CODE\C\MSXgl\projects\exsoccer/exsoccer_s2_b0.c:1154: V9_WriteVRAM(V9_P1_PGT_B + 8192L, g_Teams_Gray_part1, sizeof(g_Teams_Gray_part1));
                                   5693 ;E:/Dropbox/FAUSTO/SVILUPPI/MSX/CODE/C/MSXgl/engine/src/v9990.h:371: inline void V9_WriteVRAM(u32 addr, const u8* src, u16 count) { V9_SetWriteAddress(addr); V9_WriteVRAM_CurrentAddr(src, count); }
    00001DE9 11 00 20         [10] 5694 	ld	de, #0x2000
    00001DEC 2E 04            [ 7] 5695 	ld	l, #0x04
    00001DEE CDr00r00         [17] 5696 	call	_V9_SetWriteAddress
    00001DF1 11 00 40         [10] 5697 	ld	de, #0x4000
    00001DF4 21r00r00         [10] 5698 	ld	hl, #_g_Teams_Gray_part1
    00001DF7 CDr00r00         [17] 5699 	call	_V9_WriteVRAM_CurrentAddr
                                   5700 ;E:/Dropbox/FAUSTO/SVILUPPI/MSX/CODE/C/MSXgl/engine/src/rom_mapper.h:112: g_Bank0Segment[b] = s;
    00001DFA 21 13 00         [10] 5701 	ld	hl, #0x0013
    00001DFD 22r04r00         [16] 5702 	ld	((_g_Bank0Segment + 4)), hl
                                   5703 ;E:/Dropbox/FAUSTO/SVILUPPI/MSX/CODE/C/MSXgl/engine/src/system.h:109: inline void Poke16(u16 addr, u16 val) { *(u16*)addr = val; }
    00001E00 22 00 70         [16] 5704 	ld	(0x7000), hl
                                   5705 ;E:\Dropbox\FAUSTO\SVILUPPI\MSX\CODE\C\MSXgl\projects\exsoccer/exsoccer_s2_b0.c:1156: V9_WriteVRAM(V9_P1_PGT_B + 8192L + 16384L, g_Teams_Gray_part2, sizeof(g_Teams_Gray_part2));
                                   5706 ;E:/Dropbox/FAUSTO/SVILUPPI/MSX/CODE/C/MSXgl/engine/src/v9990.h:371: inline void V9_WriteVRAM(u32 addr, const u8* src, u16 count) { V9_SetWriteAddress(addr); V9_WriteVRAM_CurrentAddr(src, count); }
    00001E03 11 00 60         [10] 5707 	ld	de, #0x6000
    00001E06 2E 04            [ 7] 5708 	ld	l, #0x04
    00001E08 CDr00r00         [17] 5709 	call	_V9_SetWriteAddress
    00001E0B 11 00 10         [10] 5710 	ld	de, #0x1000
    00001E0E 21r00r00         [10] 5711 	ld	hl, #_g_Teams_Gray_part2
    00001E11 CDr00r00         [17] 5712 	call	_V9_WriteVRAM_CurrentAddr
                                   5713 ;E:/Dropbox/FAUSTO/SVILUPPI/MSX/CODE/C/MSXgl/engine/src/v9990.h:362: inline void V9_FillVRAM16(u32 addr, u16 value, u16 count) { V9_SetWriteAddress(addr); V9_FillVRAM16_CurrentAddr(value, count); }
    00001E14 11 00 E0         [10] 5714 	ld	de, #0xe000
    00001E17 21 07 00         [10] 5715 	ld	hl, #0x0007
    00001E1A CDr00r00         [17] 5716 	call	_V9_SetWriteAddress
    00001E1D 11 00 10         [10] 5717 	ld	de, #0x1000
    00001E20 21 00 00         [10] 5718 	ld	hl, #0x0000
    00001E23 CDr00r00         [17] 5719 	call	_V9_FillVRAM16_CurrentAddr
                                   5720 ;E:\Dropbox\FAUSTO\SVILUPPI\MSX\CODE\C\MSXgl\projects\exsoccer/exsoccer_s2_b0.c:1159: V9_SetPalette(16, 16, g_Teams_Gray_palette);
    00001E26 01r00r00         [10] 5721 	ld	bc, #_g_Teams_Gray_palette+0
                                   5722 ;E:\Dropbox\FAUSTO\SVILUPPI\MSX\CODE\C\MSXgl\projects\exsoccer/exsoccer_s2_b0.c:1028: g_GkRecoilY = -1;
                                   5723 ;	spillPairReg hl
                                   5724 ;	spillPairReg hl
    00001E29 21 10 00         [10] 5725 	ld	hl, #0x10
                                   5726 ;	spillPairReg hl
                                   5727 ;	spillPairReg hl
    00001E2C                       5728 00236$:
    00001E2C 7C               [ 4] 5729 	ld	a, h
    00001E2D D6 10            [ 7] 5730 	sub	a, #0x10
    00001E2F 30 17            [12] 5731 	jr	NC, 00141$
    00001E31 DD 75 FF         [19] 5732 	ld	-1 (ix), l
    00001E34 2C               [ 4] 5733 	inc	l
    00001E35 E5               [11] 5734 	push	hl
    00001E36 C5               [11] 5735 	push	bc
    00001E37 59               [ 4] 5736 	ld	e, c
    00001E38 50               [ 4] 5737 	ld	d, b
    00001E39 DD 7E FF         [19] 5738 	ld	a, -1 (ix)
    00001E3C CDr00r00         [17] 5739 	call	_V9_SetPaletteEntry
    00001E3F C1               [10] 5740 	pop	bc
    00001E40 E1               [10] 5741 	pop	hl
    00001E41 03               [ 6] 5742 	inc	bc
    00001E42 03               [ 6] 5743 	inc	bc
    00001E43 03               [ 6] 5744 	inc	bc
    00001E44 24               [ 4] 5745 	inc	h
    00001E45 C3r2Cr1E         [10] 5746 	jp	00236$
                                   5747 ;E:\Dropbox\FAUSTO\SVILUPPI\MSX\CODE\C\MSXgl\projects\exsoccer/exsoccer_s2_b0.c:1159: V9_SetPalette(16, 16, g_Teams_Gray_palette);
    00001E48                       5748 00141$:
                                   5749 ;E:/Dropbox/FAUSTO/SVILUPPI/MSX/CODE/C/MSXgl/engine/src/rom_mapper.h:112: g_Bank0Segment[b] = s;
    00001E48 21 11 00         [10] 5750 	ld	hl, #0x0011
    00001E4B 22r04r00         [16] 5751 	ld	((_g_Bank0Segment + 4)), hl
                                   5752 ;E:/Dropbox/FAUSTO/SVILUPPI/MSX/CODE/C/MSXgl/engine/src/system.h:109: inline void Poke16(u16 addr, u16 val) { *(u16*)addr = val; }
    00001E4E 22 00 70         [16] 5753 	ld	(0x7000), hl
                                   5754 ;E:\Dropbox\FAUSTO\SVILUPPI\MSX\CODE\C\MSXgl\projects\exsoccer/exsoccer_s2_b0.c:1164: V9_SetPalette(0, 16, g_Teams_palette);
    00001E51 01r00r00         [10] 5755 	ld	bc, #_g_Teams_palette+0
                                   5756 ;E:\Dropbox\FAUSTO\SVILUPPI\MSX\CODE\C\MSXgl\projects\exsoccer/exsoccer_s2_b0.c:1028: g_GkRecoilY = -1;
                                   5757 ;	spillPairReg hl
                                   5758 ;	spillPairReg hl
    00001E54 21 00 00         [10] 5759 	ld	hl, #0x0
                                   5760 ;	spillPairReg hl
                                   5761 ;	spillPairReg hl
    00001E57                       5762 00239$:
    00001E57 7C               [ 4] 5763 	ld	a, h
    00001E58 D6 10            [ 7] 5764 	sub	a, #0x10
    00001E5A 30 17            [12] 5765 	jr	NC, 00155$
    00001E5C DD 75 FF         [19] 5766 	ld	-1 (ix), l
    00001E5F 2C               [ 4] 5767 	inc	l
    00001E60 E5               [11] 5768 	push	hl
    00001E61 C5               [11] 5769 	push	bc
    00001E62 59               [ 4] 5770 	ld	e, c
    00001E63 50               [ 4] 5771 	ld	d, b
    00001E64 DD 7E FF         [19] 5772 	ld	a, -1 (ix)
    00001E67 CDr00r00         [17] 5773 	call	_V9_SetPaletteEntry
    00001E6A C1               [10] 5774 	pop	bc
    00001E6B E1               [10] 5775 	pop	hl
    00001E6C 03               [ 6] 5776 	inc	bc
    00001E6D 03               [ 6] 5777 	inc	bc
    00001E6E 03               [ 6] 5778 	inc	bc
    00001E6F 24               [ 4] 5779 	inc	h
    00001E70 C3r57r1E         [10] 5780 	jp	00239$
                                   5781 ;E:\Dropbox\FAUSTO\SVILUPPI\MSX\CODE\C\MSXgl\projects\exsoccer/exsoccer_s2_b0.c:1164: V9_SetPalette(0, 16, g_Teams_palette);
    00001E73                       5782 00155$:
                                   5783 ;E:/Dropbox/FAUSTO/SVILUPPI/MSX/CODE/C/MSXgl/engine/src/rom_mapper.h:112: g_Bank0Segment[b] = s;
    00001E73 21 01 00         [10] 5784 	ld	hl, #0x0001
    00001E76 22r04r00         [16] 5785 	ld	((_g_Bank0Segment + 4)), hl
                                   5786 ;E:/Dropbox/FAUSTO/SVILUPPI/MSX/CODE/C/MSXgl/engine/src/system.h:109: inline void Poke16(u16 addr, u16 val) { *(u16*)addr = val; }
    00001E79 22 00 70         [16] 5787 	ld	(0x7000), hl
                                   5788 ;E:/Dropbox/FAUSTO/SVILUPPI/MSX/CODE/C/MSXgl/engine/src/v9990.h:1047: inline void V9_SelectPaletteP1(u8 a, u8 b) { V9_SetRegister(13, ((b & 0x3) << 2) + (a & 0x3)); }
    00001E7C 3E 01            [ 7] 5789 	ld	a, #0x01
    00001E7E E6 03            [ 7] 5790 	and	a, #0x03
    00001E80 87               [ 4] 5791 	add	a, a
    00001E81 87               [ 4] 5792 	add	a, a
    00001E82 4F               [ 4] 5793 	ld	c, a
    00001E83 AF               [ 4] 5794 	xor	a, a
    00001E84 E6 03            [ 7] 5795 	and	a, #0x03
    00001E86 81               [ 4] 5796 	add	a, c
    00001E87 6F               [ 4] 5797 	ld	l, a
                                   5798 ;	spillPairReg hl
                                   5799 ;	spillPairReg hl
    00001E88 3E 0D            [ 7] 5800 	ld	a, #0x0d
    00001E8A CDr00r00         [17] 5801 	call	_V9_SetRegister
                                   5802 ;E:\Dropbox\FAUSTO\SVILUPPI\MSX\CODE\C\MSXgl\projects\exsoccer/exsoccer_s2_b0.c:1167: for (u8 y=0;y<64;y++){
    00001E8D 0E 00            [ 7] 5803 	ld	c, #0x00
    00001E8F                       5804 00245$:
    00001E8F 79               [ 4] 5805 	ld	a, c
    00001E90 D6 40            [ 7] 5806 	sub	a, #0x40
    00001E92 30 1A            [12] 5807 	jr	NC, 00102$
                                   5808 ;E:\Dropbox\FAUSTO\SVILUPPI\MSX\CODE\C\MSXgl\projects\exsoccer/exsoccer_s2_b0.c:1168: for (u8 x=0;x<64;x++){
    00001E94 06 00            [ 7] 5809 	ld	b, #0x00
    00001E96                       5810 00242$:
    00001E96 78               [ 4] 5811 	ld	a, b
    00001E97 D6 40            [ 7] 5812 	sub	a, #0x40
    00001E99 30 0F            [12] 5813 	jr	NC, 00246$
                                   5814 ;E:\Dropbox\FAUSTO\SVILUPPI\MSX\CODE\C\MSXgl\projects\exsoccer/exsoccer_s2_b0.c:1169: V9_PutLayerATileAtPos(x,y,32);
    00001E9B C5               [11] 5815 	push	bc
    00001E9C 21 20 00         [10] 5816 	ld	hl, #0x0020
    00001E9F E5               [11] 5817 	push	hl
    00001EA0 69               [ 4] 5818 	ld	l, c
                                   5819 ;	spillPairReg hl
                                   5820 ;	spillPairReg hl
    00001EA1 78               [ 4] 5821 	ld	a, b
    00001EA2 CDr88r03         [17] 5822 	call	_V9_PutLayerATileAtPos
    00001EA5 C1               [10] 5823 	pop	bc
                                   5824 ;E:\Dropbox\FAUSTO\SVILUPPI\MSX\CODE\C\MSXgl\projects\exsoccer/exsoccer_s2_b0.c:1168: for (u8 x=0;x<64;x++){
    00001EA6 04               [ 4] 5825 	inc	b
    00001EA7 C3r96r1E         [10] 5826 	jp	00242$
    00001EAA                       5827 00246$:
                                   5828 ;E:\Dropbox\FAUSTO\SVILUPPI\MSX\CODE\C\MSXgl\projects\exsoccer/exsoccer_s2_b0.c:1167: for (u8 y=0;y<64;y++){
    00001EAA 0C               [ 4] 5829 	inc	c
    00001EAB C3r8Fr1E         [10] 5830 	jp	00245$
    00001EAE                       5831 00102$:
                                   5832 ;E:\Dropbox\FAUSTO\SVILUPPI\MSX\CODE\C\MSXgl\projects\exsoccer/exsoccer_s2_b0.c:1172: for (u8 y=5;y<25;y++){
    00001EAE 0E 05            [ 7] 5833 	ld	c, #0x05
    00001EB0                       5834 00251$:
                                   5835 ;E:\Dropbox\FAUSTO\SVILUPPI\MSX\CODE\C\MSXgl\projects\exsoccer/exsoccer_s2_b0.c:1173: u16 tileId=256+32*(y-5);
    00001EB0 79               [ 4] 5836 	ld	a,c
    00001EB1 FE 19            [ 7] 5837 	cp	a,#0x19
    00001EB3 30 36            [12] 5838 	jr	NC, 00104$
    00001EB5 06 00            [ 7] 5839 	ld	b, #0x00
    00001EB7 C6 FB            [ 7] 5840 	add	a, #0xfb
    00001EB9 6F               [ 4] 5841 	ld	l, a
                                   5842 ;	spillPairReg hl
                                   5843 ;	spillPairReg hl
    00001EBA 78               [ 4] 5844 	ld	a, b
    00001EBB CE FF            [ 7] 5845 	adc	a, #0xff
    00001EBD 67               [ 4] 5846 	ld	h, a
                                   5847 ;	spillPairReg hl
                                   5848 ;	spillPairReg hl
    00001EBE 29               [11] 5849 	add	hl, hl
    00001EBF 29               [11] 5850 	add	hl, hl
    00001EC0 29               [11] 5851 	add	hl, hl
    00001EC1 29               [11] 5852 	add	hl, hl
    00001EC2 29               [11] 5853 	add	hl, hl
    00001EC3 5D               [ 4] 5854 	ld	e, l
    00001EC4 7C               [ 4] 5855 	ld	a, h
    00001EC5 3C               [ 4] 5856 	inc	a
    00001EC6 57               [ 4] 5857 	ld	d, a
                                   5858 ;E:\Dropbox\FAUSTO\SVILUPPI\MSX\CODE\C\MSXgl\projects\exsoccer/exsoccer_s2_b0.c:1174: for (u8 x=1;x<31;x++){
    00001EC7 06 01            [ 7] 5859 	ld	b, #0x01
    00001EC9                       5860 00248$:
    00001EC9 78               [ 4] 5861 	ld	a, b
    00001ECA D6 1F            [ 7] 5862 	sub	a, #0x1f
    00001ECC 30 19            [12] 5863 	jr	NC, 00252$
                                   5864 ;E:\Dropbox\FAUSTO\SVILUPPI\MSX\CODE\C\MSXgl\projects\exsoccer/exsoccer_s2_b0.c:1175: V9_PutLayerATileAtPos(x,y,tileId);
    00001ECE C5               [11] 5865 	push	bc
    00001ECF D5               [11] 5866 	push	de
    00001ED0 D5               [11] 5867 	push	de
    00001ED1 69               [ 4] 5868 	ld	l, c
                                   5869 ;	spillPairReg hl
                                   5870 ;	spillPairReg hl
    00001ED2 78               [ 4] 5871 	ld	a, b
    00001ED3 CDr88r03         [17] 5872 	call	_V9_PutLayerATileAtPos
    00001ED6 D1               [10] 5873 	pop	de
    00001ED7 C1               [10] 5874 	pop	bc
                                   5875 ;E:\Dropbox\FAUSTO\SVILUPPI\MSX\CODE\C\MSXgl\projects\exsoccer/exsoccer_s2_b0.c:1176: V9_PutLayerBTileAtPos(x,y,tileId);
    00001ED8 C5               [11] 5876 	push	bc
    00001ED9 D5               [11] 5877 	push	de
    00001EDA D5               [11] 5878 	push	de
    00001EDB 69               [ 4] 5879 	ld	l, c
                                   5880 ;	spillPairReg hl
                                   5881 ;	spillPairReg hl
    00001EDC 78               [ 4] 5882 	ld	a, b
    00001EDD CDrC3r03         [17] 5883 	call	_V9_PutLayerBTileAtPos
    00001EE0 D1               [10] 5884 	pop	de
    00001EE1 C1               [10] 5885 	pop	bc
                                   5886 ;E:\Dropbox\FAUSTO\SVILUPPI\MSX\CODE\C\MSXgl\projects\exsoccer/exsoccer_s2_b0.c:1177: tileId++;
    00001EE2 13               [ 6] 5887 	inc	de
                                   5888 ;E:\Dropbox\FAUSTO\SVILUPPI\MSX\CODE\C\MSXgl\projects\exsoccer/exsoccer_s2_b0.c:1174: for (u8 x=1;x<31;x++){
    00001EE3 04               [ 4] 5889 	inc	b
    00001EE4 C3rC9r1E         [10] 5890 	jp	00248$
    00001EE7                       5891 00252$:
                                   5892 ;E:\Dropbox\FAUSTO\SVILUPPI\MSX\CODE\C\MSXgl\projects\exsoccer/exsoccer_s2_b0.c:1172: for (u8 y=5;y<25;y++){
    00001EE7 0C               [ 4] 5893 	inc	c
    00001EE8 C3rB0r1E         [10] 5894 	jp	00251$
    00001EEB                       5895 00104$:
                                   5896 ;E:\Dropbox\FAUSTO\SVILUPPI\MSX\CODE\C\MSXgl\projects\exsoccer/exsoccer_s2_b0.c:1180: LoadSprites();
    00001EEB CDr00r00         [17] 5897 	call	_LoadSprites
                                   5898 ;E:/Dropbox/FAUSTO/SVILUPPI/MSX/CODE/C/MSXgl/engine/src/v9990.h:574: inline void V9_SetInterrupt(u8 flags) { V9_SetRegister(9, flags); }
    00001EEE 2E 03            [ 7] 5899 	ld	l, #0x03
                                   5900 ;	spillPairReg hl
                                   5901 ;	spillPairReg hl
    00001EF0 3E 09            [ 7] 5902 	ld	a, #0x09
    00001EF2 CDr00r00         [17] 5903 	call	_V9_SetRegister
                                   5904 ;E:/Dropbox/FAUSTO/SVILUPPI/MSX/CODE/C/MSXgl/engine/src/v9990.h:258: inline void V9_SetFlag(u8 reg, u8 mask, u8 flag) { V9_SetRegister(reg, V9_GetRegister(reg) & (~mask) | flag); }
    00001EF5 3E 08            [ 7] 5905 	ld	a, #0x08
    00001EF7 CDr00r00         [17] 5906 	call	_V9_GetRegister
    00001EFA CB BF            [ 8] 5907 	res	7, a
    00001EFC 6F               [ 4] 5908 	ld	l, a
                                   5909 ;	spillPairReg hl
                                   5910 ;	spillPairReg hl
    00001EFD CB FD            [ 8] 5911 	set	7, l
    00001EFF 3E 08            [ 7] 5912 	ld	a, #0x08
    00001F01 CDr00r00         [17] 5913 	call	_V9_SetRegister
                                   5914 ;E:\Dropbox\FAUSTO\SVILUPPI\MSX\CODE\C\MSXgl\projects\exsoccer/exsoccer_s2_b0.c:1190: V9_PrintLayerAStringAtPos(8,0,"PLAYER 1 SELECT");
    00001F04 21rA2r20         [10] 5915 	ld	hl, #___str_12
    00001F07 E5               [11] 5916 	push	hl
    00001F08 2E 00            [ 7] 5917 	ld	l, #0x00
                                   5918 ;	spillPairReg hl
                                   5919 ;	spillPairReg hl
    00001F0A 3E 08            [ 7] 5920 	ld	a, #0x08
    00001F0C CDr00r00         [17] 5921 	call	_V9_PrintLayerAStringAtPos
                                   5922 ;E:\Dropbox\FAUSTO\SVILUPPI\MSX\CODE\C\MSXgl\projects\exsoccer/exsoccer_s2_b0.c:1191: g_Team1PaletteId = SelectTeam(SPRITE_PLAYER, NO_VALUE);
    00001F0F 2E FF            [ 7] 5923 	ld	l, #0xff
                                   5924 ;	spillPairReg hl
                                   5925 ;	spillPairReg hl
    00001F11 3E F5            [ 7] 5926 	ld	a, #0xf5
    00001F13 CDr35r1C         [17] 5927 	call	_SelectTeam
                                   5928 ;E:\Dropbox\FAUSTO\SVILUPPI\MSX\CODE\C\MSXgl\projects\exsoccer/exsoccer_s2_b0.c:1194: for(u8 y=g_TeamGrayPos[g_Team1PaletteId].y;y<g_TeamGrayPos[g_Team1PaletteId].y+9;y++){
    00001F16 32r00r00         [13] 5929 	ld	(_g_Team1PaletteId+0), a
    00001F19 6F               [ 4] 5930 	ld	l, a
                                   5931 ;	spillPairReg hl
                                   5932 ;	spillPairReg hl
    00001F1A 26 00            [ 7] 5933 	ld	h, #0x00
                                   5934 ;	spillPairReg hl
                                   5935 ;	spillPairReg hl
    00001F1C 29               [11] 5936 	add	hl, hl
    00001F1D 29               [11] 5937 	add	hl, hl
    00001F1E 01r43r00         [10] 5938 	ld	bc,#_g_TeamGrayPos
    00001F21 09               [11] 5939 	add	hl,bc
    00001F22 EB               [ 4] 5940 	ex	de, hl
    00001F23 4B               [ 4] 5941 	ld	c, e
    00001F24 42               [ 4] 5942 	ld	b, d
    00001F25 03               [ 6] 5943 	inc	bc
    00001F26 03               [ 6] 5944 	inc	bc
    00001F27 0A               [ 7] 5945 	ld	a, (bc)
    00001F28 DD 77 FE         [19] 5946 	ld	-2 (ix), a
    00001F2B                       5947 00257$:
    00001F2B 6B               [ 4] 5948 	ld	l, e
                                   5949 ;	spillPairReg hl
                                   5950 ;	spillPairReg hl
    00001F2C 62               [ 4] 5951 	ld	h, d
                                   5952 ;	spillPairReg hl
                                   5953 ;	spillPairReg hl
    00001F2D 23               [ 6] 5954 	inc	hl
    00001F2E 23               [ 6] 5955 	inc	hl
    00001F2F 4E               [ 7] 5956 	ld	c, (hl)
    00001F30 23               [ 6] 5957 	inc	hl
    00001F31 46               [ 7] 5958 	ld	b, (hl)
    00001F32 21 09 00         [10] 5959 	ld	hl, #0x0009
    00001F35 09               [11] 5960 	add	hl, bc
    00001F36 DD 7E FE         [19] 5961 	ld	a, -2 (ix)
    00001F39 06 00            [ 7] 5962 	ld	b, #0x00
    00001F3B 95               [ 4] 5963 	sub	a, l
    00001F3C 78               [ 4] 5964 	ld	a, b
    00001F3D 9C               [ 4] 5965 	sbc	a, h
    00001F3E 30 3C            [12] 5966 	jr	NC, 00106$
                                   5967 ;E:\Dropbox\FAUSTO\SVILUPPI\MSX\CODE\C\MSXgl\projects\exsoccer/exsoccer_s2_b0.c:1195: for(u8 x=g_TeamGrayPos[g_Team1PaletteId].x;x<g_TeamGrayPos[g_Team1PaletteId].x+10;x++){
    00001F40 1A               [ 7] 5968 	ld	a, (de)
    00001F41 DD 77 FF         [19] 5969 	ld	-1 (ix), a
    00001F44                       5970 00254$:
                                   5971 ;E:\Dropbox\FAUSTO\SVILUPPI\MSX\CODE\C\MSXgl\projects\exsoccer/exsoccer_s2_b0.c:1194: for(u8 y=g_TeamGrayPos[g_Team1PaletteId].y;y<g_TeamGrayPos[g_Team1PaletteId].y+9;y++){
    00001F44 3Ar00r00         [13] 5972 	ld	a, (_g_Team1PaletteId+0)
    00001F47 26 00            [ 7] 5973 	ld	h, #0x00
                                   5974 ;	spillPairReg hl
                                   5975 ;	spillPairReg hl
    00001F49 6F               [ 4] 5976 	ld	l, a
                                   5977 ;	spillPairReg hl
                                   5978 ;	spillPairReg hl
    00001F4A 29               [11] 5979 	add	hl, hl
    00001F4B 29               [11] 5980 	add	hl, hl
    00001F4C 11r43r00         [10] 5981 	ld	de, #_g_TeamGrayPos
    00001F4F 19               [11] 5982 	add	hl, de
                                   5983 ;E:\Dropbox\FAUSTO\SVILUPPI\MSX\CODE\C\MSXgl\projects\exsoccer/exsoccer_s2_b0.c:1195: for(u8 x=g_TeamGrayPos[g_Team1PaletteId].x;x<g_TeamGrayPos[g_Team1PaletteId].x+10;x++){
    00001F50 5D               [ 4] 5984 	ld	e, l
    00001F51 54               [ 4] 5985 	ld	d, h
    00001F52 4E               [ 7] 5986 	ld	c, (hl)
    00001F53 23               [ 6] 5987 	inc	hl
    00001F54 46               [ 7] 5988 	ld	b, (hl)
    00001F55 21 0A 00         [10] 5989 	ld	hl, #0x000a
    00001F58 09               [11] 5990 	add	hl, bc
    00001F59 DD 7E FF         [19] 5991 	ld	a, -1 (ix)
    00001F5C 06 00            [ 7] 5992 	ld	b, #0x00
    00001F5E 95               [ 4] 5993 	sub	a, l
    00001F5F 78               [ 4] 5994 	ld	a, b
    00001F60 9C               [ 4] 5995 	sbc	a, h
    00001F61 30 13            [12] 5996 	jr	NC, 00258$
                                   5997 ;E:\Dropbox\FAUSTO\SVILUPPI\MSX\CODE\C\MSXgl\projects\exsoccer/exsoccer_s2_b0.c:1196: V9_PutLayerATileAtPos(x,y,0);
    00001F63 21 00 00         [10] 5998 	ld	hl, #0x0000
    00001F66 E5               [11] 5999 	push	hl
    00001F67 DD 6E FE         [19] 6000 	ld	l, -2 (ix)
                                   6001 ;	spillPairReg hl
                                   6002 ;	spillPairReg hl
    00001F6A DD 7E FF         [19] 6003 	ld	a, -1 (ix)
    00001F6D CDr88r03         [17] 6004 	call	_V9_PutLayerATileAtPos
                                   6005 ;E:\Dropbox\FAUSTO\SVILUPPI\MSX\CODE\C\MSXgl\projects\exsoccer/exsoccer_s2_b0.c:1195: for(u8 x=g_TeamGrayPos[g_Team1PaletteId].x;x<g_TeamGrayPos[g_Team1PaletteId].x+10;x++){
    00001F70 DD 34 FF         [23] 6006 	inc	-1 (ix)
    00001F73 C3r44r1F         [10] 6007 	jp	00254$
    00001F76                       6008 00258$:
                                   6009 ;E:\Dropbox\FAUSTO\SVILUPPI\MSX\CODE\C\MSXgl\projects\exsoccer/exsoccer_s2_b0.c:1194: for(u8 y=g_TeamGrayPos[g_Team1PaletteId].y;y<g_TeamGrayPos[g_Team1PaletteId].y+9;y++){
    00001F76 DD 34 FE         [23] 6010 	inc	-2 (ix)
    00001F79 C3r2Br1F         [10] 6011 	jp	00257$
    00001F7C                       6012 00106$:
                                   6013 ;E:\Dropbox\FAUSTO\SVILUPPI\MSX\CODE\C\MSXgl\projects\exsoccer/exsoccer_s2_b0.c:1200: V9_PrintLayerAStringAtPos(8,0,"  CPU 2 SELECT  ");
    00001F7C 21rB2r20         [10] 6014 	ld	hl, #___str_13
    00001F7F E5               [11] 6015 	push	hl
    00001F80 2E 00            [ 7] 6016 	ld	l, #0x00
                                   6017 ;	spillPairReg hl
                                   6018 ;	spillPairReg hl
    00001F82 3E 08            [ 7] 6019 	ld	a, #0x08
    00001F84 CDr00r00         [17] 6020 	call	_V9_PrintLayerAStringAtPos
                                   6021 ;E:\Dropbox\FAUSTO\SVILUPPI\MSX\CODE\C\MSXgl\projects\exsoccer/exsoccer_s2_b0.c:1201: g_Team2PaletteId = SelectTeam(SPRITE_CPU, g_Team1PaletteId);
    00001F87 3Ar00r00         [13] 6022 	ld	a, (_g_Team1PaletteId+0)
    00001F8A 6F               [ 4] 6023 	ld	l, a
                                   6024 ;	spillPairReg hl
                                   6025 ;	spillPairReg hl
    00001F8B 3E F5            [ 7] 6026 	ld	a, #0xf5
    00001F8D CDr35r1C         [17] 6027 	call	_SelectTeam
    00001F90 32r00r00         [13] 6028 	ld	(_g_Team2PaletteId+0), a
                                   6029 ;E:/Dropbox/FAUSTO/SVILUPPI/MSX/CODE/C/MSXgl/engine/src/v9990.h:258: inline void V9_SetFlag(u8 reg, u8 mask, u8 flag) { V9_SetRegister(reg, V9_GetRegister(reg) & (~mask) | flag); }
    00001F93 3E 08            [ 7] 6030 	ld	a, #0x08
    00001F95 CDr00r00         [17] 6031 	call	_V9_GetRegister
    00001F98 6F               [ 4] 6032 	ld	l, a
                                   6033 ;	spillPairReg hl
                                   6034 ;	spillPairReg hl
    00001F99 CB BD            [ 8] 6035 	res	7, l
    00001F9B 3E 08            [ 7] 6036 	ld	a, #0x08
    00001F9D CDr00r00         [17] 6037 	call	_V9_SetRegister
                                   6038 ;E:/Dropbox/FAUSTO/SVILUPPI/MSX/CODE/C/MSXgl/engine/src/v9990.h:353: inline void V9_FillVRAM(u32 addr, u8 value, u16 count) { V9_SetWriteAddress(addr); V9_FillVRAM_CurrentAddr(value, count); }
    00001FA0 11 00 00         [10] 6039 	ld	de, #0x0000
    00001FA3 21 00 00         [10] 6040 	ld	hl, #0x0000
    00001FA6 CDr00r00         [17] 6041 	call	_V9_SetWriteAddress
    00001FA9 11 00 6A         [10] 6042 	ld	de, #0x6a00
    00001FAC AF               [ 4] 6043 	xor	a, a
    00001FAD CDr00r00         [17] 6044 	call	_V9_FillVRAM_CurrentAddr
                                   6045 ;E:/Dropbox/FAUSTO/SVILUPPI/MSX/CODE/C/MSXgl/engine/src/rom_mapper.h:112: g_Bank0Segment[b] = s;
    00001FB0 21 14 00         [10] 6046 	ld	hl, #0x0014
    00001FB3 22r04r00         [16] 6047 	ld	((_g_Bank0Segment + 4)), hl
                                   6048 ;E:/Dropbox/FAUSTO/SVILUPPI/MSX/CODE/C/MSXgl/engine/src/system.h:109: inline void Poke16(u16 addr, u16 val) { *(u16*)addr = val; }
    00001FB6 22 00 70         [16] 6049 	ld	(0x7000), hl
                                   6050 ;E:\Dropbox\FAUSTO\SVILUPPI\MSX\CODE\C\MSXgl\projects\exsoccer/exsoccer_s2_b0.c:1207: V9_WriteVRAM(V9_P1_PGT_A, g_Buttons_part1, sizeof(g_Buttons_part1)); // Load tiles (part 1)
                                   6051 ;E:/Dropbox/FAUSTO/SVILUPPI/MSX/CODE/C/MSXgl/engine/src/v9990.h:371: inline void V9_WriteVRAM(u32 addr, const u8* src, u16 count) { V9_SetWriteAddress(addr); V9_WriteVRAM_CurrentAddr(src, count); }
    00001FB9 11 00 00         [10] 6052 	ld	de, #0x0000
    00001FBC 6C               [ 4] 6053 	ld	l, h
    00001FBD CDr00r00         [17] 6054 	call	_V9_SetWriteAddress
    00001FC0 11 00 40         [10] 6055 	ld	de, #0x4000
    00001FC3 21r00r00         [10] 6056 	ld	hl, #_g_Buttons_part1
    00001FC6 CDr00r00         [17] 6057 	call	_V9_WriteVRAM_CurrentAddr
                                   6058 ;E:/Dropbox/FAUSTO/SVILUPPI/MSX/CODE/C/MSXgl/engine/src/rom_mapper.h:112: g_Bank0Segment[b] = s;
    00001FC9 21 15 00         [10] 6059 	ld	hl, #0x0015
    00001FCC 22r04r00         [16] 6060 	ld	((_g_Bank0Segment + 4)), hl
                                   6061 ;E:/Dropbox/FAUSTO/SVILUPPI/MSX/CODE/C/MSXgl/engine/src/system.h:109: inline void Poke16(u16 addr, u16 val) { *(u16*)addr = val; }
    00001FCF 22 00 70         [16] 6062 	ld	(0x7000), hl
                                   6063 ;E:\Dropbox\FAUSTO\SVILUPPI\MSX\CODE\C\MSXgl\projects\exsoccer/exsoccer_s2_b0.c:1209: V9_WriteVRAM(V9_P1_PGT_A + 16384, g_Buttons_part2, sizeof(g_Buttons_part2)); // Load tiles (part 2)
                                   6064 ;E:/Dropbox/FAUSTO/SVILUPPI/MSX/CODE/C/MSXgl/engine/src/v9990.h:371: inline void V9_WriteVRAM(u32 addr, const u8* src, u16 count) { V9_SetWriteAddress(addr); V9_WriteVRAM_CurrentAddr(src, count); }
    00001FD2 11 00 40         [10] 6065 	ld	de, #0x4000
    00001FD5 6C               [ 4] 6066 	ld	l, h
    00001FD6 CDr00r00         [17] 6067 	call	_V9_SetWriteAddress
    00001FD9 11 00 40         [10] 6068 	ld	de, #0x4000
    00001FDC 21r00r00         [10] 6069 	ld	hl, #_g_Buttons_part2
    00001FDF CDr00r00         [17] 6070 	call	_V9_WriteVRAM_CurrentAddr
                                   6071 ;E:/Dropbox/FAUSTO/SVILUPPI/MSX/CODE/C/MSXgl/engine/src/rom_mapper.h:112: g_Bank0Segment[b] = s;
    00001FE2 21 01 00         [10] 6072 	ld	hl, #0x0001
    00001FE5 22r04r00         [16] 6073 	ld	((_g_Bank0Segment + 4)), hl
                                   6074 ;E:/Dropbox/FAUSTO/SVILUPPI/MSX/CODE/C/MSXgl/engine/src/system.h:109: inline void Poke16(u16 addr, u16 val) { *(u16*)addr = val; }
    00001FE8 22 00 70         [16] 6075 	ld	(0x7000), hl
                                   6076 ;E:/Dropbox/FAUSTO/SVILUPPI/MSX/CODE/C/MSXgl/engine/src/rom_mapper.h:112: g_Bank0Segment[b] = s;
    00001FEB 2E 13            [ 7] 6077 	ld	l, #0x13
    00001FED 22r04r00         [16] 6078 	ld	((_g_Bank0Segment + 4)), hl
                                   6079 ;E:/Dropbox/FAUSTO/SVILUPPI/MSX/CODE/C/MSXgl/engine/src/system.h:109: inline void Poke16(u16 addr, u16 val) { *(u16*)addr = val; }
    00001FF0 22 00 70         [16] 6080 	ld	(0x7000), hl
                                   6081 ;E:\Dropbox\FAUSTO\SVILUPPI\MSX\CODE\C\MSXgl\projects\exsoccer/exsoccer_s2_b0.c:1214: V9_SetPalette(0, 16, g_Buttons_palette);
    00001FF3 01r00r00         [10] 6082 	ld	bc, #_g_Buttons_palette
                                   6083 ;E:\Dropbox\FAUSTO\SVILUPPI\MSX\CODE\C\MSXgl\projects\exsoccer/exsoccer_s2_b0.c:1028: g_GkRecoilY = -1;
    00001FF6 DD 36 FE 00      [19] 6084 	ld	-2 (ix), #0x00
    00001FFA DD 36 FF 00      [19] 6085 	ld	-1 (ix), #0x00
    00001FFE                       6086 00260$:
    00001FFE DD 7E FF         [19] 6087 	ld	a, -1 (ix)
    00002001 D6 10            [ 7] 6088 	sub	a, #0x10
    00002003 30 1C            [12] 6089 	jr	NC, 00226$
    00002005 DD 7E FE         [19] 6090 	ld	a, -2 (ix)
    00002008 DD 77 FD         [19] 6091 	ld	-3 (ix), a
    0000200B DD 34 FE         [23] 6092 	inc	-2 (ix)
    0000200E C5               [11] 6093 	push	bc
    0000200F 59               [ 4] 6094 	ld	e, c
    00002010 50               [ 4] 6095 	ld	d, b
    00002011 DD 7E FD         [19] 6096 	ld	a, -3 (ix)
    00002014 CDr00r00         [17] 6097 	call	_V9_SetPaletteEntry
    00002017 C1               [10] 6098 	pop	bc
    00002018 03               [ 6] 6099 	inc	bc
    00002019 03               [ 6] 6100 	inc	bc
    0000201A 03               [ 6] 6101 	inc	bc
    0000201B DD 34 FF         [23] 6102 	inc	-1 (ix)
    0000201E C3rFEr1F         [10] 6103 	jp	00260$
                                   6104 ;E:\Dropbox\FAUSTO\SVILUPPI\MSX\CODE\C\MSXgl\projects\exsoccer/exsoccer_s2_b0.c:1214: V9_SetPalette(0, 16, g_Buttons_palette);
    00002021                       6105 00226$:
                                   6106 ;E:\Dropbox\FAUSTO\SVILUPPI\MSX\CODE\C\MSXgl\projects\exsoccer/exsoccer_s2_b0.c:1216: u16 tileId=0;
    00002021 01 00 00         [10] 6107 	ld	bc, #0x0000
                                   6108 ;E:\Dropbox\FAUSTO\SVILUPPI\MSX\CODE\C\MSXgl\projects\exsoccer/exsoccer_s2_b0.c:1218: for (u8 y=0;y<64;y++){
    00002024 DD 36 FF 00      [19] 6109 	ld	-1 (ix), #0x00
    00002028                       6110 00266$:
    00002028 DD 7E FF         [19] 6111 	ld	a, -1 (ix)
    0000202B D6 40            [ 7] 6112 	sub	a, #0x40
    0000202D 30 20            [12] 6113 	jr	NC, 00275$
                                   6114 ;E:\Dropbox\FAUSTO\SVILUPPI\MSX\CODE\C\MSXgl\projects\exsoccer/exsoccer_s2_b0.c:1219: for (u8 x=0;x<32;x++){
    0000202F 1E 00            [ 7] 6115 	ld	e, #0x00
    00002031                       6116 00263$:
    00002031 7B               [ 4] 6117 	ld	a, e
    00002032 D6 20            [ 7] 6118 	sub	a, #0x20
    00002034 30 13            [12] 6119 	jr	NC, 00339$
                                   6120 ;E:\Dropbox\FAUSTO\SVILUPPI\MSX\CODE\C\MSXgl\projects\exsoccer/exsoccer_s2_b0.c:1220: V9_PutLayerATileAtPos(x,y,tileId++);
    00002036 69               [ 4] 6121 	ld	l, c
                                   6122 ;	spillPairReg hl
                                   6123 ;	spillPairReg hl
    00002037 60               [ 4] 6124 	ld	h, b
                                   6125 ;	spillPairReg hl
                                   6126 ;	spillPairReg hl
    00002038 03               [ 6] 6127 	inc	bc
    00002039 C5               [11] 6128 	push	bc
    0000203A D5               [11] 6129 	push	de
    0000203B E5               [11] 6130 	push	hl
    0000203C DD 6E FF         [19] 6131 	ld	l, -1 (ix)
                                   6132 ;	spillPairReg hl
                                   6133 ;	spillPairReg hl
    0000203F 7B               [ 4] 6134 	ld	a, e
    00002040 CDr88r03         [17] 6135 	call	_V9_PutLayerATileAtPos
    00002043 D1               [10] 6136 	pop	de
    00002044 C1               [10] 6137 	pop	bc
                                   6138 ;E:\Dropbox\FAUSTO\SVILUPPI\MSX\CODE\C\MSXgl\projects\exsoccer/exsoccer_s2_b0.c:1219: for (u8 x=0;x<32;x++){
    00002045 1C               [ 4] 6139 	inc	e
    00002046 C3r31r20         [10] 6140 	jp	00263$
    00002049                       6141 00339$:
                                   6142 ;E:\Dropbox\FAUSTO\SVILUPPI\MSX\CODE\C\MSXgl\projects\exsoccer/exsoccer_s2_b0.c:1218: for (u8 y=0;y<64;y++){
    00002049 DD 34 FF         [23] 6143 	inc	-1 (ix)
    0000204C C3r28r20         [10] 6144 	jp	00266$
                                   6145 ;E:/Dropbox/FAUSTO/SVILUPPI/MSX/CODE/C/MSXgl/engine/src/v9990.h:473: inline void V9_SetDisplayEnable(bool enable) { V9_SetFlag(8, V9_R08_DISP_ON, enable ? V9_R08_DISP_ON : 0); }
    0000204F                       6146 00275$:
                                   6147 ;E:/Dropbox/FAUSTO/SVILUPPI/MSX/CODE/C/MSXgl/engine/src/v9990.h:258: inline void V9_SetFlag(u8 reg, u8 mask, u8 flag) { V9_SetRegister(reg, V9_GetRegister(reg) & (~mask) | flag); }
    0000204F 3E 08            [ 7] 6148 	ld	a, #0x08
    00002051 CDr00r00         [17] 6149 	call	_V9_GetRegister
    00002054 CB BF            [ 8] 6150 	res	7, a
    00002056 6F               [ 4] 6151 	ld	l, a
                                   6152 ;	spillPairReg hl
                                   6153 ;	spillPairReg hl
    00002057 CB FD            [ 8] 6154 	set	7, l
    00002059 3E 08            [ 7] 6155 	ld	a, #0x08
    0000205B CDr00r00         [17] 6156 	call	_V9_SetRegister
                                   6157 ;E:\Dropbox\FAUSTO\SVILUPPI\MSX\CODE\C\MSXgl\projects\exsoccer/exsoccer_s2_b0.c:1224: while(!IsTeamJoystickTriggerPressed(TEAM_1)){
    0000205E                       6158 00109$:
    0000205E 3E 01            [ 7] 6159 	ld	a, #0x01
    00002060 CDrB7r11         [17] 6160 	call	_IsTeamJoystickTriggerPressed
    00002063 B7               [ 4] 6161 	or	a, a
    00002064 28 F8            [12] 6162 	jr	Z, 00109$
                                   6163 ;E:/Dropbox/FAUSTO/SVILUPPI/MSX/CODE/C/MSXgl/engine/src/v9990.h:258: inline void V9_SetFlag(u8 reg, u8 mask, u8 flag) { V9_SetRegister(reg, V9_GetRegister(reg) & (~mask) | flag); }
    00002066 3E 08            [ 7] 6164 	ld	a, #0x08
    00002068 CDr00r00         [17] 6165 	call	_V9_GetRegister
    0000206B 6F               [ 4] 6166 	ld	l, a
                                   6167 ;	spillPairReg hl
                                   6168 ;	spillPairReg hl
    0000206C CB BD            [ 8] 6169 	res	7, l
    0000206E 3E 08            [ 7] 6170 	ld	a, #0x08
    00002070 CDr00r00         [17] 6171 	call	_V9_SetRegister
                                   6172 ;E:\Dropbox\FAUSTO\SVILUPPI\MSX\CODE\C\MSXgl\projects\exsoccer/exsoccer_s2_b0.c:1228: LoadP1LayerA();
    00002073 CDr00r00         [17] 6173 	call	_LoadP1LayerA
                                   6174 ;E:\Dropbox\FAUSTO\SVILUPPI\MSX\CODE\C\MSXgl\projects\exsoccer/exsoccer_s2_b0.c:1229: LoadP1LayerB();
    00002076 CDr00r00         [17] 6175 	call	_LoadP1LayerB
                                   6176 ;E:\Dropbox\FAUSTO\SVILUPPI\MSX\CODE\C\MSXgl\projects\exsoccer/exsoccer_s2_b0.c:1230: InitPalette();
    00002079 CDr00r00         [17] 6177 	call	_InitPalette
                                   6178 ;E:\Dropbox\FAUSTO\SVILUPPI\MSX\CODE\C\MSXgl\projects\exsoccer/exsoccer_s2_b0.c:1231: ShowField();
    0000207C CDr00r00         [17] 6179 	call	_ShowField
                                   6180 ;E:/Dropbox/FAUSTO/SVILUPPI/MSX/CODE/C/MSXgl/engine/src/v9990.h:258: inline void V9_SetFlag(u8 reg, u8 mask, u8 flag) { V9_SetRegister(reg, V9_GetRegister(reg) & (~mask) | flag); }
    0000207F 3E 08            [ 7] 6181 	ld	a, #0x08
    00002081 CDr00r00         [17] 6182 	call	_V9_GetRegister
    00002084 CB BF            [ 8] 6183 	res	7, a
    00002086 6F               [ 4] 6184 	ld	l, a
                                   6185 ;	spillPairReg hl
                                   6186 ;	spillPairReg hl
    00002087 CB FD            [ 8] 6187 	set	7, l
    00002089 3E 08            [ 7] 6188 	ld	a, #0x08
    0000208B CDr00r00         [17] 6189 	call	_V9_SetRegister
                                   6190 ;E:/Dropbox/FAUSTO/SVILUPPI/MSX/CODE/C/MSXgl/engine/src/v9990.h:606: inline void V9_SetInterruptLine(u16 line) { V9_SetRegister16(10, line); }
    0000208E 11 47 00         [10] 6191 	ld	de, #0x0047
    00002091 3E 0A            [ 7] 6192 	ld	a, #0x0a
    00002093 CDr00r00         [17] 6193 	call	_V9_SetRegister16
                                   6194 ;E:/Dropbox/FAUSTO/SVILUPPI/MSX/CODE/C/MSXgl/engine/src/v9990.h:574: inline void V9_SetInterrupt(u8 flags) { V9_SetRegister(9, flags); }
    00002096 2E 03            [ 7] 6195 	ld	l, #0x03
                                   6196 ;	spillPairReg hl
                                   6197 ;	spillPairReg hl
    00002098 3E 09            [ 7] 6198 	ld	a, #0x09
    0000209A CDr00r00         [17] 6199 	call	_V9_SetRegister
                                   6200 ;E:\Dropbox\FAUSTO\SVILUPPI\MSX\CODE\C\MSXgl\projects\exsoccer/exsoccer_s2_b0.c:1235: V9_SetInterrupt(V9_INT_VBLANK | V9_INT_HBLANK);
                                   6201 ;E:\Dropbox\FAUSTO\SVILUPPI\MSX\CODE\C\MSXgl\projects\exsoccer/exsoccer_s2_b0.c:1236: }
    0000209D DD F9            [10] 6202 	ld	sp, ix
    0000209F DD E1            [14] 6203 	pop	ix
    000020A1 C9               [10] 6204 	ret
    000020A2                       6205 ___str_12:
    000020A2 50 4C 41 59 45 52 20  6206 	.ascii "PLAYER 1 SELECT"
             31 20 53 45 4C 45 43
             54
    000020B1 00                    6207 	.db 0x00
    000020B2                       6208 ___str_13:
    000020B2 20 20 43 50 55 20 32  6209 	.ascii "  CPU 2 SELECT  "
             20 53 45 4C 45 43 54
             20 20
    000020C2 00                    6210 	.db 0x00
                                   6211 ;E:\Dropbox\FAUSTO\SVILUPPI\MSX\CODE\C\MSXgl\projects\exsoccer/exsoccer_s2_b0.c:1237: void LoadPresentation(){
                                   6212 ;	---------------------------------
                                   6213 ; Function LoadPresentation
                                   6214 ; ---------------------------------
    000020C3                       6215 _LoadPresentation::
    000020C3 DD E5            [15] 6216 	push	ix
    000020C5 DD 21 00 00      [14] 6217 	ld	ix,#0
    000020C9 DD 39            [15] 6218 	add	ix,sp
    000020CB F5               [11] 6219 	push	af
    000020CC 3B               [ 6] 6220 	dec	sp
                                   6221 ;E:\Dropbox\FAUSTO\SVILUPPI\MSX\CODE\C\MSXgl\projects\exsoccer/exsoccer_s2_b0.c:1238: V9_SetScreenMode(V9_MODE_B1);
    000020CD 3E 03            [ 7] 6222 	ld	a, #0x03
    000020CF CDr00r00         [17] 6223 	call	_V9_SetScreenMode
                                   6224 ;E:/Dropbox/FAUSTO/SVILUPPI/MSX/CODE/C/MSXgl/engine/src/v9990.h:258: inline void V9_SetFlag(u8 reg, u8 mask, u8 flag) { V9_SetRegister(reg, V9_GetRegister(reg) & (~mask) | flag); }
    000020D2 3E 08            [ 7] 6225 	ld	a, #0x08
    000020D4 CDr00r00         [17] 6226 	call	_V9_GetRegister
    000020D7 6F               [ 4] 6227 	ld	l, a
                                   6228 ;	spillPairReg hl
                                   6229 ;	spillPairReg hl
    000020D8 CB BD            [ 8] 6230 	res	7, l
    000020DA 3E 08            [ 7] 6231 	ld	a, #0x08
    000020DC CDr00r00         [17] 6232 	call	_V9_SetRegister
                                   6233 ;E:\Dropbox\FAUSTO\SVILUPPI\MSX\CODE\C\MSXgl\projects\exsoccer/exsoccer_s2_b0.c:1240: V9_SetColorMode(V9_COLOR_BD8);
    000020DF 3E 03            [ 7] 6234 	ld	a, #0x03
    000020E1 CDr00r00         [17] 6235 	call	_V9_SetColorMode
                                   6236 ;E:\Dropbox\FAUSTO\SVILUPPI\MSX\CODE\C\MSXgl\projects\exsoccer/exsoccer_s2_b0.c:1241: const u8 colorBlack[3] = { 0, 0, 0 };
    000020E4 21 00 00         [10] 6237 	ld	hl, #0
    000020E7 39               [11] 6238 	add	hl, sp
    000020E8 EB               [ 4] 6239 	ex	de, hl
    000020E9 AF               [ 4] 6240 	xor	a, a
    000020EA 12               [ 7] 6241 	ld	(de), a
    000020EB DD 36 FE 00      [19] 6242 	ld	-2 (ix), #0x00
    000020EF DD 36 FF 00      [19] 6243 	ld	-1 (ix), #0x00
                                   6244 ;E:\Dropbox\FAUSTO\SVILUPPI\MSX\CODE\C\MSXgl\projects\exsoccer/exsoccer_s2_b0.c:1242: V9_SetPaletteEntry(0, colorBlack);    
    000020F3 AF               [ 4] 6245 	xor	a, a
    000020F4 CDr00r00         [17] 6246 	call	_V9_SetPaletteEntry
                                   6247 ;E:/Dropbox/FAUSTO/SVILUPPI/MSX/CODE/C/MSXgl/engine/src/v9990.h:480: inline void V9_SetBackgroundColor(u8 color) { V9_SetRegister(15, color); }
    000020F7 2E 00            [ 7] 6248 	ld	l, #0x00
                                   6249 ;	spillPairReg hl
                                   6250 ;	spillPairReg hl
    000020F9 3E 0F            [ 7] 6251 	ld	a, #0x0f
    000020FB CDr00r00         [17] 6252 	call	_V9_SetRegister
                                   6253 ;E:/Dropbox/FAUSTO/SVILUPPI/MSX/CODE/C/MSXgl/engine/src/rom_mapper.h:112: g_Bank0Segment[b] = s;
    000020FE 21 0C 00         [10] 6254 	ld	hl, #0x000c
    00002101 22r04r00         [16] 6255 	ld	((_g_Bank0Segment + 4)), hl
                                   6256 ;E:/Dropbox/FAUSTO/SVILUPPI/MSX/CODE/C/MSXgl/engine/src/system.h:109: inline void Poke16(u16 addr, u16 val) { *(u16*)addr = val; }
    00002104 22 00 70         [16] 6257 	ld	(0x7000), hl
                                   6258 ;E:\Dropbox\FAUSTO\SVILUPPI\MSX\CODE\C\MSXgl\projects\exsoccer/exsoccer_s2_b0.c:1245: V9_WriteVRAM(V9_BMP_PGT, g_Presentation_part1, sizeof(g_Presentation_part1)); 
                                   6259 ;E:/Dropbox/FAUSTO/SVILUPPI/MSX/CODE/C/MSXgl/engine/src/v9990.h:371: inline void V9_WriteVRAM(u32 addr, const u8* src, u16 count) { V9_SetWriteAddress(addr); V9_WriteVRAM_CurrentAddr(src, count); }
    00002107 11 00 00         [10] 6260 	ld	de, #0x0000
    0000210A 6C               [ 4] 6261 	ld	l, h
    0000210B CDr00r00         [17] 6262 	call	_V9_SetWriteAddress
    0000210E 11 00 40         [10] 6263 	ld	de, #0x4000
    00002111 21r00r00         [10] 6264 	ld	hl, #_g_Presentation_part1
    00002114 CDr00r00         [17] 6265 	call	_V9_WriteVRAM_CurrentAddr
                                   6266 ;E:/Dropbox/FAUSTO/SVILUPPI/MSX/CODE/C/MSXgl/engine/src/rom_mapper.h:112: g_Bank0Segment[b] = s;
    00002117 21 0D 00         [10] 6267 	ld	hl, #0x000d
    0000211A 22r04r00         [16] 6268 	ld	((_g_Bank0Segment + 4)), hl
                                   6269 ;E:/Dropbox/FAUSTO/SVILUPPI/MSX/CODE/C/MSXgl/engine/src/system.h:109: inline void Poke16(u16 addr, u16 val) { *(u16*)addr = val; }
    0000211D 22 00 70         [16] 6270 	ld	(0x7000), hl
                                   6271 ;E:\Dropbox\FAUSTO\SVILUPPI\MSX\CODE\C\MSXgl\projects\exsoccer/exsoccer_s2_b0.c:1247: V9_WriteVRAM(V9_BMP_PGT + 16384L, g_Presentation_part2, sizeof(g_Presentation_part2)); 
                                   6272 ;E:/Dropbox/FAUSTO/SVILUPPI/MSX/CODE/C/MSXgl/engine/src/v9990.h:371: inline void V9_WriteVRAM(u32 addr, const u8* src, u16 count) { V9_SetWriteAddress(addr); V9_WriteVRAM_CurrentAddr(src, count); }
    00002120 11 00 40         [10] 6273 	ld	de, #0x4000
    00002123 6C               [ 4] 6274 	ld	l, h
    00002124 CDr00r00         [17] 6275 	call	_V9_SetWriteAddress
    00002127 11 00 40         [10] 6276 	ld	de, #0x4000
    0000212A 21r00r00         [10] 6277 	ld	hl, #_g_Presentation_part2
    0000212D CDr00r00         [17] 6278 	call	_V9_WriteVRAM_CurrentAddr
                                   6279 ;E:/Dropbox/FAUSTO/SVILUPPI/MSX/CODE/C/MSXgl/engine/src/rom_mapper.h:112: g_Bank0Segment[b] = s;
    00002130 21 0E 00         [10] 6280 	ld	hl, #0x000e
    00002133 22r04r00         [16] 6281 	ld	((_g_Bank0Segment + 4)), hl
                                   6282 ;E:/Dropbox/FAUSTO/SVILUPPI/MSX/CODE/C/MSXgl/engine/src/system.h:109: inline void Poke16(u16 addr, u16 val) { *(u16*)addr = val; }
    00002136 22 00 70         [16] 6283 	ld	(0x7000), hl
                                   6284 ;E:\Dropbox\FAUSTO\SVILUPPI\MSX\CODE\C\MSXgl\projects\exsoccer/exsoccer_s2_b0.c:1249: V9_WriteVRAM(V9_BMP_PGT + 16384L+16384L, g_Presentation_part3, sizeof(g_Presentation_part3)); 
                                   6285 ;E:/Dropbox/FAUSTO/SVILUPPI/MSX/CODE/C/MSXgl/engine/src/v9990.h:371: inline void V9_WriteVRAM(u32 addr, const u8* src, u16 count) { V9_SetWriteAddress(addr); V9_WriteVRAM_CurrentAddr(src, count); }
    00002139 11 00 80         [10] 6286 	ld	de, #0x8000
    0000213C 6C               [ 4] 6287 	ld	l, h
    0000213D CDr00r00         [17] 6288 	call	_V9_SetWriteAddress
    00002140 11 00 40         [10] 6289 	ld	de, #0x4000
    00002143 21r00r00         [10] 6290 	ld	hl, #_g_Presentation_part3
    00002146 CDr00r00         [17] 6291 	call	_V9_WriteVRAM_CurrentAddr
                                   6292 ;E:/Dropbox/FAUSTO/SVILUPPI/MSX/CODE/C/MSXgl/engine/src/rom_mapper.h:112: g_Bank0Segment[b] = s;
    00002149 21 0F 00         [10] 6293 	ld	hl, #0x000f
    0000214C 22r04r00         [16] 6294 	ld	((_g_Bank0Segment + 4)), hl
                                   6295 ;E:/Dropbox/FAUSTO/SVILUPPI/MSX/CODE/C/MSXgl/engine/src/system.h:109: inline void Poke16(u16 addr, u16 val) { *(u16*)addr = val; }
    0000214F 22 00 70         [16] 6296 	ld	(0x7000), hl
                                   6297 ;E:\Dropbox\FAUSTO\SVILUPPI\MSX\CODE\C\MSXgl\projects\exsoccer/exsoccer_s2_b0.c:1251: V9_WriteVRAM(V9_BMP_PGT + 16384L+16384L+16384L, g_Presentation_part4, sizeof(g_Presentation_part4)); 
                                   6298 ;E:/Dropbox/FAUSTO/SVILUPPI/MSX/CODE/C/MSXgl/engine/src/v9990.h:371: inline void V9_WriteVRAM(u32 addr, const u8* src, u16 count) { V9_SetWriteAddress(addr); V9_WriteVRAM_CurrentAddr(src, count); }
    00002152 11 00 C0         [10] 6299 	ld	de, #0xc000
    00002155 6C               [ 4] 6300 	ld	l, h
    00002156 CDr00r00         [17] 6301 	call	_V9_SetWriteAddress
    00002159 11 00 14         [10] 6302 	ld	de, #0x1400
    0000215C 21r00r00         [10] 6303 	ld	hl, #_g_Presentation_part4
    0000215F CDr00r00         [17] 6304 	call	_V9_WriteVRAM_CurrentAddr
                                   6305 ;E:/Dropbox/FAUSTO/SVILUPPI/MSX/CODE/C/MSXgl/engine/src/rom_mapper.h:112: g_Bank0Segment[b] = s;
    00002162 21 01 00         [10] 6306 	ld	hl, #0x0001
    00002165 22r04r00         [16] 6307 	ld	((_g_Bank0Segment + 4)), hl
                                   6308 ;E:/Dropbox/FAUSTO/SVILUPPI/MSX/CODE/C/MSXgl/engine/src/system.h:109: inline void Poke16(u16 addr, u16 val) { *(u16*)addr = val; }
    00002168 22 00 70         [16] 6309 	ld	(0x7000), hl
                                   6310 ;E:\Dropbox\FAUSTO\SVILUPPI\MSX\CODE\C\MSXgl\projects\exsoccer/exsoccer_s2_b0.c:1254: g_MatchStatus=MATCH_PRESENTATION;
    0000216B 21r00r00         [10] 6311 	ld	hl, #_g_MatchStatus
    0000216E 36 0F            [10] 6312 	ld	(hl), #0x0f
                                   6313 ;E:\Dropbox\FAUSTO\SVILUPPI\MSX\CODE\C\MSXgl\projects\exsoccer/exsoccer_s2_b0.c:1255: g_Timer=0;
    00002170 21r00r00         [10] 6314 	ld	hl, #_g_Timer
    00002173 36 00            [10] 6315 	ld	(hl), #0x00
                                   6316 ;E:/Dropbox/FAUSTO/SVILUPPI/MSX/CODE/C/MSXgl/engine/src/v9990.h:258: inline void V9_SetFlag(u8 reg, u8 mask, u8 flag) { V9_SetRegister(reg, V9_GetRegister(reg) & (~mask) | flag); }
    00002175 3E 08            [ 7] 6317 	ld	a, #0x08
    00002177 CDr00r00         [17] 6318 	call	_V9_GetRegister
    0000217A CB BF            [ 8] 6319 	res	7, a
    0000217C 6F               [ 4] 6320 	ld	l, a
                                   6321 ;	spillPairReg hl
                                   6322 ;	spillPairReg hl
    0000217D CB FD            [ 8] 6323 	set	7, l
    0000217F 3E 08            [ 7] 6324 	ld	a, #0x08
    00002181 CDr00r00         [17] 6325 	call	_V9_SetRegister
                                   6326 ;E:/Dropbox/FAUSTO/SVILUPPI/MSX/CODE/C/MSXgl/engine/src/v9990.h:574: inline void V9_SetInterrupt(u8 flags) { V9_SetRegister(9, flags); }
    00002184 2E 03            [ 7] 6327 	ld	l, #0x03
                                   6328 ;	spillPairReg hl
                                   6329 ;	spillPairReg hl
    00002186 3E 09            [ 7] 6330 	ld	a, #0x09
    00002188 CDr00r00         [17] 6331 	call	_V9_SetRegister
                                   6332 ;E:/Dropbox/FAUSTO/SVILUPPI/MSX/CODE/C/MSXgl/engine/src/v9990.h:606: inline void V9_SetInterruptLine(u16 line) { V9_SetRegister16(10, line); }
    0000218B 11 47 00         [10] 6333 	ld	de, #0x0047
    0000218E 3E 0A            [ 7] 6334 	ld	a, #0x0a
    00002190 CDr00r00         [17] 6335 	call	_V9_SetRegister16
                                   6336 ;E:\Dropbox\FAUSTO\SVILUPPI\MSX\CODE\C\MSXgl\projects\exsoccer/exsoccer_s2_b0.c:1261: while (g_Timer!=200)
    00002193                       6337 00101$:
    00002193 3Ar00r00         [13] 6338 	ld	a, (_g_Timer+0)
    00002196 D6 C8            [ 7] 6339 	sub	a, #0xc8
    00002198 20 F9            [12] 6340 	jr	NZ, 00101$
                                   6341 ;E:\Dropbox\FAUSTO\SVILUPPI\MSX\CODE\C\MSXgl\projects\exsoccer/exsoccer_s2_b0.c:1265: g_MatchStatus=MATCH_NOT_STARTED;
    0000219A 21r00r00         [10] 6342 	ld	hl, #_g_MatchStatus
                                   6343 ;E:/Dropbox/FAUSTO/SVILUPPI/MSX/CODE/C/MSXgl/engine/src/v9990.h:574: inline void V9_SetInterrupt(u8 flags) { V9_SetRegister(9, flags); }
    0000219D 36 00            [10] 6344 	ld	(hl), #0x00
    0000219F 6E               [ 7] 6345 	ld	l, (hl)
                                   6346 ;	spillPairReg hl
                                   6347 ;	spillPairReg hl
    000021A0 3E 09            [ 7] 6348 	ld	a, #0x09
    000021A2 CDr00r00         [17] 6349 	call	_V9_SetRegister
                                   6350 ;E:/Dropbox/FAUSTO/SVILUPPI/MSX/CODE/C/MSXgl/engine/src/v9990.h:258: inline void V9_SetFlag(u8 reg, u8 mask, u8 flag) { V9_SetRegister(reg, V9_GetRegister(reg) & (~mask) | flag); }
    000021A5 3E 08            [ 7] 6351 	ld	a, #0x08
    000021A7 CDr00r00         [17] 6352 	call	_V9_GetRegister
    000021AA 6F               [ 4] 6353 	ld	l, a
                                   6354 ;	spillPairReg hl
                                   6355 ;	spillPairReg hl
    000021AB CB BD            [ 8] 6356 	res	7, l
    000021AD 3E 08            [ 7] 6357 	ld	a, #0x08
    000021AF CDr00r00         [17] 6358 	call	_V9_SetRegister
                                   6359 ;E:\Dropbox\FAUSTO\SVILUPPI\MSX\CODE\C\MSXgl\projects\exsoccer/exsoccer_s2_b0.c:1267: V9_SetDisplayEnable(FALSE);
                                   6360 ;E:\Dropbox\FAUSTO\SVILUPPI\MSX\CODE\C\MSXgl\projects\exsoccer/exsoccer_s2_b0.c:1269: }
    000021B2 DD F9            [10] 6361 	ld	sp, ix
    000021B4 DD E1            [14] 6362 	pop	ix
    000021B6 C9               [10] 6363 	ret
                                   6364 ;E:\Dropbox\FAUSTO\SVILUPPI\MSX\CODE\C\MSXgl\projects\exsoccer/exsoccer_s2_b0.c:1270: void TickGoalkeeperAnimation() {
                                   6365 ;	---------------------------------
                                   6366 ; Function TickGoalkeeperAnimation
                                   6367 ; ---------------------------------
    000021B7                       6368 _TickGoalkeeperAnimation::
    000021B7 DD E5            [15] 6369 	push	ix
    000021B9 DD 21 00 00      [14] 6370 	ld	ix,#0
    000021BD DD 39            [15] 6371 	add	ix,sp
    000021BF F5               [11] 6372 	push	af
                                   6373 ;E:\Dropbox\FAUSTO\SVILUPPI\MSX\CODE\C\MSXgl\projects\exsoccer/exsoccer_s2_b0.c:1271: if (g_MatchStatus != MATCH_BALL_ON_GOALKEEPER) return;
    000021C0 3Ar00r00         [13] 6374 	ld	a, (_g_MatchStatus+0)
    000021C3 D6 0D            [ 7] 6375 	sub	a, #0x0d
    000021C5 C2rFFr23         [10] 6376 	jp	NZ,00148$
                                   6377 ;E:\Dropbox\FAUSTO\SVILUPPI\MSX\CODE\C\MSXgl\projects\exsoccer/exsoccer_s2_b0.c:1272: if (s_GkAnimPlayerId == NO_VALUE) return;
    000021C8 3Ar05r00         [13] 6378 	ld	a, (_s_GkAnimPlayerId+0)
    000021CB 3C               [ 4] 6379 	inc	a
    000021CC CArFFr23         [10] 6380 	jp	Z,00148$
    000021CF C3rD2r21         [10] 6381 	jp	00104$
    000021D2                       6382 00104$:
                                   6383 ;E:\Dropbox\FAUSTO\SVILUPPI\MSX\CODE\C\MSXgl\projects\exsoccer/exsoccer_s2_b0.c:1275: g_Players[s_GkAnimPlayerId].Status = PLAYER_STATUS_POSITIONED;
    000021D2 01r00r00         [10] 6384 	ld	bc, #_g_Players+0
    000021D5 ED 5Br05r00      [20] 6385 	ld	de, (_s_GkAnimPlayerId)
    000021D9 16 00            [ 7] 6386 	ld	d, #0x00
    000021DB 6B               [ 4] 6387 	ld	l, e
    000021DC 62               [ 4] 6388 	ld	h, d
    000021DD 29               [11] 6389 	add	hl, hl
    000021DE 29               [11] 6390 	add	hl, hl
    000021DF 19               [11] 6391 	add	hl, de
    000021E0 29               [11] 6392 	add	hl, hl
    000021E1 29               [11] 6393 	add	hl, hl
    000021E2 19               [11] 6394 	add	hl, de
    000021E3 09               [11] 6395 	add	hl, bc
    000021E4 11 12 00         [10] 6396 	ld	de, #0x0012
    000021E7 19               [11] 6397 	add	hl, de
    000021E8 36 04            [10] 6398 	ld	(hl), #0x04
    000021EA 23               [ 6] 6399 	inc	hl
    000021EB 36 00            [10] 6400 	ld	(hl), #0x00
                                   6401 ;E:\Dropbox\FAUSTO\SVILUPPI\MSX\CODE\C\MSXgl\projects\exsoccer/exsoccer_s2_b0.c:1277: s_GkAnimTimer++;
    000021ED 21r04r00         [10] 6402 	ld	hl, #_s_GkAnimTimer
    000021F0 34               [11] 6403 	inc	(hl)
                                   6404 ;E:\Dropbox\FAUSTO\SVILUPPI\MSX\CODE\C\MSXgl\projects\exsoccer/exsoccer_s2_b0.c:1279: u8 kickTime = 60; // 1 Second delay for all (was 30)
    000021F1 1E 3C            [ 7] 6405 	ld	e, #0x3c
                                   6406 ;E:\Dropbox\FAUSTO\SVILUPPI\MSX\CODE\C\MSXgl\projects\exsoccer/exsoccer_s2_b0.c:1280: if (g_GkIsGroundKick) kickTime = 6; // Immediate kick for ground kicks
    000021F3 3Ar00r00         [13] 6407 	ld	a, (_g_GkIsGroundKick+0)
    000021F6 B7               [ 4] 6408 	or	a, a
    000021F7 28 02            [12] 6409 	jr	Z, 00106$
    000021F9 1E 06            [ 7] 6410 	ld	e, #0x06
    000021FB                       6411 00106$:
                                   6412 ;E:\Dropbox\FAUSTO\SVILUPPI\MSX\CODE\C\MSXgl\projects\exsoccer/exsoccer_s2_b0.c:1283: if (s_GkAnimTimer < kickTime) {
                                   6413 ;E:\Dropbox\FAUSTO\SVILUPPI\MSX\CODE\C\MSXgl\projects\exsoccer/exsoccer_s2_b0.c:1284: if (s_GkAnimTimer < 30 && (s_GkAnimTimer % 2) == 0 && g_GkRecoilY != 0) { // Faster movement (every 2 frames)
    000021FB 3Ar04r00         [13] 6414 	ld	a,(_s_GkAnimTimer+0)
    000021FE BB               [ 4] 6415 	cp	a,e
    000021FF D2rD7r22         [10] 6416 	jp	NC,00146$
    00002202 D6 1E            [ 7] 6417 	sub	a, #0x1e
    00002204 D2rAAr22         [10] 6418 	jp	NC, 00112$
    00002207 FD 21r04r00      [14] 6419 	ld	iy, #_s_GkAnimTimer
    0000220B FD CB 00 46      [20] 6420 	bit	0, 0 (iy)
    0000220F C2rAAr22         [10] 6421 	jp	NZ,00112$
    00002212 3Ar00r00         [13] 6422 	ld	a, (_g_GkRecoilY+0)
    00002215 B7               [ 4] 6423 	or	a, a
    00002216 CArAAr22         [10] 6424 	jp	Z, 00112$
                                   6425 ;E:\Dropbox\FAUSTO\SVILUPPI\MSX\CODE\C\MSXgl\projects\exsoccer/exsoccer_s2_b0.c:1285: g_Players[s_GkAnimPlayerId].Y += g_GkRecoilY;
    00002219 ED 5Br05r00      [20] 6426 	ld	de, (_s_GkAnimPlayerId)
    0000221D 16 00            [ 7] 6427 	ld	d, #0x00
    0000221F 6B               [ 4] 6428 	ld	l, e
    00002220 62               [ 4] 6429 	ld	h, d
    00002221 29               [11] 6430 	add	hl, hl
    00002222 29               [11] 6431 	add	hl, hl
    00002223 19               [11] 6432 	add	hl, de
    00002224 29               [11] 6433 	add	hl, hl
    00002225 29               [11] 6434 	add	hl, hl
    00002226 19               [11] 6435 	add	hl, de
    00002227 09               [11] 6436 	add	hl, bc
    00002228 5E               [ 7] 6437 	ld	e, (hl)
    00002229 23               [ 6] 6438 	inc	hl
    0000222A 56               [ 7] 6439 	ld	d, (hl)
    0000222B 2B               [ 6] 6440 	dec	hl
    0000222C 3Ar00r00         [13] 6441 	ld	a, (_g_GkRecoilY+0)
    0000222F FD E5            [15] 6442 	push	iy
    00002231 DD 77 FC         [19] 6443 	ld	-4 (ix), a
    00002234 FD E1            [14] 6444 	pop	iy
    00002236 07               [ 4] 6445 	rlca
    00002237 9F               [ 4] 6446 	sbc	a, a
    00002238 FD E5            [15] 6447 	push	iy
    0000223A DD 77 FD         [19] 6448 	ld	-3 (ix), a
    0000223D FD E1            [14] 6449 	pop	iy
    0000223F FD 19            [15] 6450 	add	iy, de
    00002241 FD E5            [15] 6451 	push	iy
    00002243 D1               [10] 6452 	pop	de
    00002244 73               [ 7] 6453 	ld	(hl), e
    00002245 23               [ 6] 6454 	inc	hl
    00002246 72               [ 7] 6455 	ld	(hl), d
                                   6456 ;E:\Dropbox\FAUSTO\SVILUPPI\MSX\CODE\C\MSXgl\projects\exsoccer/exsoccer_s2_b0.c:1288: if(g_Players[s_GkAnimPlayerId].Y < FIELD_BOUND_Y_TOP) g_Players[s_GkAnimPlayerId].Y = FIELD_BOUND_Y_TOP;
    00002247 ED 5Br05r00      [20] 6457 	ld	de, (_s_GkAnimPlayerId)
    0000224B 16 00            [ 7] 6458 	ld	d, #0x00
    0000224D 6B               [ 4] 6459 	ld	l, e
    0000224E 62               [ 4] 6460 	ld	h, d
    0000224F 29               [11] 6461 	add	hl, hl
    00002250 29               [11] 6462 	add	hl, hl
    00002251 19               [11] 6463 	add	hl, de
    00002252 29               [11] 6464 	add	hl, hl
    00002253 29               [11] 6465 	add	hl, hl
    00002254 19               [11] 6466 	add	hl, de
    00002255 09               [11] 6467 	add	hl, bc
    00002256 5E               [ 7] 6468 	ld	e, (hl)
    00002257 23               [ 6] 6469 	inc	hl
    00002258 56               [ 7] 6470 	ld	d, (hl)
    00002259 2B               [ 6] 6471 	dec	hl
    0000225A 7B               [ 4] 6472 	ld	a, e
    0000225B D6 32            [ 7] 6473 	sub	a, #0x32
    0000225D 7A               [ 4] 6474 	ld	a, d
    0000225E DE 00            [ 7] 6475 	sbc	a, #0x00
    00002260 30 05            [12] 6476 	jr	NC, 00108$
    00002262 36 32            [10] 6477 	ld	(hl), #0x32
    00002264 23               [ 6] 6478 	inc	hl
    00002265 36 00            [10] 6479 	ld	(hl), #0x00
    00002267                       6480 00108$:
                                   6481 ;E:\Dropbox\FAUSTO\SVILUPPI\MSX\CODE\C\MSXgl\projects\exsoccer/exsoccer_s2_b0.c:1289: if(g_Players[s_GkAnimPlayerId].Y > FIELD_BOUND_Y_BOTTOM) g_Players[s_GkAnimPlayerId].Y = FIELD_BOUND_Y_BOTTOM;
    00002267 ED 5Br05r00      [20] 6482 	ld	de, (_s_GkAnimPlayerId)
    0000226B 16 00            [ 7] 6483 	ld	d, #0x00
    0000226D 6B               [ 4] 6484 	ld	l, e
    0000226E 62               [ 4] 6485 	ld	h, d
    0000226F 29               [11] 6486 	add	hl, hl
    00002270 29               [11] 6487 	add	hl, hl
    00002271 19               [11] 6488 	add	hl, de
    00002272 29               [11] 6489 	add	hl, hl
    00002273 29               [11] 6490 	add	hl, hl
    00002274 19               [11] 6491 	add	hl, de
    00002275 09               [11] 6492 	add	hl, bc
    00002276 5E               [ 7] 6493 	ld	e, (hl)
    00002277 23               [ 6] 6494 	inc	hl
    00002278 56               [ 7] 6495 	ld	d, (hl)
    00002279 2B               [ 6] 6496 	dec	hl
    0000227A 3E AE            [ 7] 6497 	ld	a, #0xae
    0000227C BB               [ 4] 6498 	cp	a, e
    0000227D 3E 01            [ 7] 6499 	ld	a, #0x01
    0000227F 9A               [ 4] 6500 	sbc	a, d
    00002280 30 05            [12] 6501 	jr	NC, 00110$
    00002282 36 AE            [10] 6502 	ld	(hl), #0xae
    00002284 23               [ 6] 6503 	inc	hl
    00002285 36 01            [10] 6504 	ld	(hl), #0x01
    00002287                       6505 00110$:
                                   6506 ;E:\Dropbox\FAUSTO\SVILUPPI\MSX\CODE\C\MSXgl\projects\exsoccer/exsoccer_s2_b0.c:1291: g_Players[s_GkAnimPlayerId].TargetY = g_Players[s_GkAnimPlayerId].Y; // Sync target
    00002287 ED 5Br05r00      [20] 6507 	ld	de, (_s_GkAnimPlayerId)
    0000228B 16 00            [ 7] 6508 	ld	d, #0x00
    0000228D 6B               [ 4] 6509 	ld	l, e
    0000228E 62               [ 4] 6510 	ld	h, d
    0000228F 29               [11] 6511 	add	hl, hl
    00002290 29               [11] 6512 	add	hl, hl
    00002291 19               [11] 6513 	add	hl, de
    00002292 29               [11] 6514 	add	hl, hl
    00002293 29               [11] 6515 	add	hl, hl
    00002294 19               [11] 6516 	add	hl, de
    00002295 09               [11] 6517 	add	hl, bc
    00002296 7D               [ 4] 6518 	ld	a, l
    00002297 C6 0E            [ 7] 6519 	add	a, #0x0e
    00002299 DD 77 FE         [19] 6520 	ld	-2 (ix), a
    0000229C 7C               [ 4] 6521 	ld	a, h
    0000229D CE 00            [ 7] 6522 	adc	a, #0x00
    0000229F DD 77 FF         [19] 6523 	ld	-1 (ix), a
    000022A2 5E               [ 7] 6524 	ld	e, (hl)
    000022A3 23               [ 6] 6525 	inc	hl
    000022A4 56               [ 7] 6526 	ld	d, (hl)
    000022A5 E1               [10] 6527 	pop	hl
    000022A6 E5               [11] 6528 	push	hl
    000022A7 73               [ 7] 6529 	ld	(hl), e
    000022A8 23               [ 6] 6530 	inc	hl
    000022A9 72               [ 7] 6531 	ld	(hl), d
    000022AA                       6532 00112$:
                                   6533 ;E:\Dropbox\FAUSTO\SVILUPPI\MSX\CODE\C\MSXgl\projects\exsoccer/exsoccer_s2_b0.c:1294: if (g_Players[s_GkAnimPlayerId].TeamId == TEAM_1) g_Players[s_GkAnimPlayerId].PatternId = PLAYER_POSE_TEAM1_GK_BALL_FRONT;
    000022AA ED 5Br05r00      [20] 6534 	ld	de, (_s_GkAnimPlayerId)
    000022AE 16 00            [ 7] 6535 	ld	d, #0x00
    000022B0 6B               [ 4] 6536 	ld	l, e
    000022B1 62               [ 4] 6537 	ld	h, d
    000022B2 29               [11] 6538 	add	hl, hl
    000022B3 29               [11] 6539 	add	hl, hl
    000022B4 19               [11] 6540 	add	hl, de
    000022B5 29               [11] 6541 	add	hl, hl
    000022B6 29               [11] 6542 	add	hl, hl
    000022B7 19               [11] 6543 	add	hl, de
    000022B8 09               [11] 6544 	add	hl, bc
    000022B9 EB               [ 4] 6545 	ex	de, hl
    000022BA D5               [11] 6546 	push	de
    000022BB FD E1            [14] 6547 	pop	iy
    000022BD FD 4E 09         [19] 6548 	ld	c, 9 (iy)
    000022C0 21 08 00         [10] 6549 	ld	hl, #0x0008
    000022C3 19               [11] 6550 	add	hl, de
    000022C4 0D               [ 4] 6551 	dec	c
    000022C5 20 05            [12] 6552 	jr	NZ, 00116$
    000022C7 36 9E            [10] 6553 	ld	(hl), #0x9e
    000022C9 C3rCEr22         [10] 6554 	jp	00117$
    000022CC                       6555 00116$:
                                   6556 ;E:\Dropbox\FAUSTO\SVILUPPI\MSX\CODE\C\MSXgl\projects\exsoccer/exsoccer_s2_b0.c:1295: else g_Players[s_GkAnimPlayerId].PatternId = PLAYER_POSE_FRONT; // Team 2 GK plays like a player (feet)
    000022CC 36 10            [10] 6557 	ld	(hl), #0x10
    000022CE                       6558 00117$:
                                   6559 ;E:\Dropbox\FAUSTO\SVILUPPI\MSX\CODE\C\MSXgl\projects\exsoccer/exsoccer_s2_b0.c:1297: PutBallOnPlayerFeet(s_GkAnimPlayerId);
    000022CE 3Ar05r00         [13] 6560 	ld	a, (_s_GkAnimPlayerId+0)
    000022D1 CDr00r00         [17] 6561 	call	_PutBallOnPlayerFeet
    000022D4 C3rFFr23         [10] 6562 	jp	00148$
    000022D7                       6563 00146$:
                                   6564 ;E:\Dropbox\FAUSTO\SVILUPPI\MSX\CODE\C\MSXgl\projects\exsoccer/exsoccer_s2_b0.c:1299: } else if (s_GkAnimTimer == kickTime) {
    000022D7 3Ar04r00         [13] 6565 	ld	a, (_s_GkAnimTimer+0)
    000022DA 93               [ 4] 6566 	sub	a, e
    000022DB C2rD0r23         [10] 6567 	jp	NZ,00143$
                                   6568 ;E:\Dropbox\FAUSTO\SVILUPPI\MSX\CODE\C\MSXgl\projects\exsoccer/exsoccer_s2_b0.c:1302: u8 targetId = GetBestPassTarget(s_GkAnimPlayerId); 
    000022DE C5               [11] 6569 	push	bc
    000022DF 3Ar05r00         [13] 6570 	ld	a, (_s_GkAnimPlayerId+0)
    000022E2 CDrFFr15         [17] 6571 	call	_GetBestPassTarget
    000022E5 C1               [10] 6572 	pop	bc
                                   6573 ;E:\Dropbox\FAUSTO\SVILUPPI\MSX\CODE\C\MSXgl\projects\exsoccer/exsoccer_s2_b0.c:1304: if (targetId != NO_VALUE) {
    000022E6 5F               [ 4] 6574 	ld	e, a
    000022E7 3C               [ 4] 6575 	inc	a
    000022E8 28 6E            [12] 6576 	jr	Z, 00138$
                                   6577 ;E:\Dropbox\FAUSTO\SVILUPPI\MSX\CODE\C\MSXgl\projects\exsoccer/exsoccer_s2_b0.c:1305: PerformPass(targetId);
    000022EA C5               [11] 6578 	push	bc
    000022EB 7B               [ 4] 6579 	ld	a, e
    000022EC CDr00r00         [17] 6580 	call	_PerformPass
    000022EF C1               [10] 6581 	pop	bc
                                   6582 ;E:\Dropbox\FAUSTO\SVILUPPI\MSX\CODE\C\MSXgl\projects\exsoccer/exsoccer_s2_b0.c:1308: u8 dir = g_Players[s_GkAnimPlayerId].Direction;
    000022F0 ED 5Br05r00      [20] 6583 	ld	de, (_s_GkAnimPlayerId)
    000022F4 16 00            [ 7] 6584 	ld	d, #0x00
    000022F6 6B               [ 4] 6585 	ld	l, e
    000022F7 62               [ 4] 6586 	ld	h, d
    000022F8 29               [11] 6587 	add	hl, hl
    000022F9 29               [11] 6588 	add	hl, hl
    000022FA 19               [11] 6589 	add	hl, de
    000022FB 29               [11] 6590 	add	hl, hl
    000022FC 29               [11] 6591 	add	hl, hl
    000022FD 19               [11] 6592 	add	hl, de
    000022FE 09               [11] 6593 	add	hl, bc
    000022FF EB               [ 4] 6594 	ex	de, hl
    00002300 D5               [11] 6595 	push	de
    00002301 FD E1            [14] 6596 	pop	iy
    00002303 FD 7E 0A         [19] 6597 	ld	a, 10 (iy)
                                   6598 ;E:\Dropbox\FAUSTO\SVILUPPI\MSX\CODE\C\MSXgl\projects\exsoccer/exsoccer_s2_b0.c:1312: if (dir == DIRECTION_RIGHT || dir == DIRECTION_UP_RIGHT || dir == DIRECTION_DOWN_RIGHT) 
    00002306 FE 03            [ 7] 6599 	cp	a, #0x03
    00002308 28 08            [12] 6600 	jr	Z, 00123$
    0000230A FE 02            [ 7] 6601 	cp	a, #0x02
    0000230C 28 04            [12] 6602 	jr	Z, 00123$
    0000230E FE 04            [ 7] 6603 	cp	a, #0x04
    00002310 20 07            [12] 6604 	jr	NZ, 00124$
    00002312                       6605 00123$:
                                   6606 ;E:\Dropbox\FAUSTO\SVILUPPI\MSX\CODE\C\MSXgl\projects\exsoccer/exsoccer_s2_b0.c:1313: pose = (team == TEAM_1) ? PLAYER_POSE_TEAM1_RESTART_RIGHT : PLAYER_POSE_TEAM2_RESTART_RIGHT;
    00002312 DD 36 FF CB      [19] 6607 	ld	-1 (ix), #0xcb
    00002316 C3r30r23         [10] 6608 	jp	00125$
    00002319                       6609 00124$:
                                   6610 ;E:\Dropbox\FAUSTO\SVILUPPI\MSX\CODE\C\MSXgl\projects\exsoccer/exsoccer_s2_b0.c:1314: else if (dir == DIRECTION_LEFT || dir == DIRECTION_UP_LEFT || dir == DIRECTION_DOWN_LEFT)
    00002319 FE 07            [ 7] 6611 	cp	a, #0x07
    0000231B 28 08            [12] 6612 	jr	Z, 00118$
    0000231D FE 08            [ 7] 6613 	cp	a, #0x08
    0000231F 28 04            [12] 6614 	jr	Z, 00118$
    00002321 D6 06            [ 7] 6615 	sub	a, #0x06
    00002323 20 07            [12] 6616 	jr	NZ, 00119$
    00002325                       6617 00118$:
                                   6618 ;E:\Dropbox\FAUSTO\SVILUPPI\MSX\CODE\C\MSXgl\projects\exsoccer/exsoccer_s2_b0.c:1315: pose = (team == TEAM_1) ? PLAYER_POSE_TEAM1_RESTART_LEFT : PLAYER_POSE_TEAM2_RESTART_LEFT;
    00002325 DD 36 FF 44      [19] 6619 	ld	-1 (ix), #0x44
    00002329 C3r30r23         [10] 6620 	jp	00125$
    0000232C                       6621 00119$:
                                   6622 ;E:\Dropbox\FAUSTO\SVILUPPI\MSX\CODE\C\MSXgl\projects\exsoccer/exsoccer_s2_b0.c:1317: pose = (team == TEAM_1) ? PLAYER_POSE_TEAM1_RESTART_FRONT : PLAYER_POSE_TEAM2_RESTART_FRONT;
    0000232C DD 36 FF 45      [19] 6623 	ld	-1 (ix), #0x45
    00002330                       6624 00125$:
                                   6625 ;E:\Dropbox\FAUSTO\SVILUPPI\MSX\CODE\C\MSXgl\projects\exsoccer/exsoccer_s2_b0.c:1319: g_Players[s_GkAnimPlayerId].PatternId = pose;
    00002330 21 08 00         [10] 6626 	ld	hl, #0x0008
    00002333 19               [11] 6627 	add	hl, de
    00002334 DD 7E FF         [19] 6628 	ld	a, -1 (ix)
    00002337 77               [ 7] 6629 	ld	(hl), a
                                   6630 ;E:\Dropbox\FAUSTO\SVILUPPI\MSX\CODE\C\MSXgl\projects\exsoccer/exsoccer_s2_b0.c:1321: g_Players[s_GkAnimPlayerId].Status = PLAYER_STATUS_POSITIONED;
    00002338 ED 5Br05r00      [20] 6631 	ld	de, (_s_GkAnimPlayerId)
    0000233C 16 00            [ 7] 6632 	ld	d, #0x00
    0000233E 6B               [ 4] 6633 	ld	l, e
    0000233F 62               [ 4] 6634 	ld	h, d
    00002340 29               [11] 6635 	add	hl, hl
    00002341 29               [11] 6636 	add	hl, hl
    00002342 19               [11] 6637 	add	hl, de
    00002343 29               [11] 6638 	add	hl, hl
    00002344 29               [11] 6639 	add	hl, hl
    00002345 19               [11] 6640 	add	hl, de
    00002346 09               [11] 6641 	add	hl, bc
    00002347 01 12 00         [10] 6642 	ld	bc, #0x0012
    0000234A 09               [11] 6643 	add	hl, bc
    0000234B 36 04            [10] 6644 	ld	(hl), #0x04
    0000234D 23               [ 6] 6645 	inc	hl
    0000234E 36 00            [10] 6646 	ld	(hl), #0x00
                                   6647 ;E:\Dropbox\FAUSTO\SVILUPPI\MSX\CODE\C\MSXgl\projects\exsoccer/exsoccer_s2_b0.c:1324: g_MatchStatus = MATCH_IN_ACTION;
    00002350 21r00r00         [10] 6648 	ld	hl, #_g_MatchStatus
    00002353 36 0C            [10] 6649 	ld	(hl), #0x0c
    00002355 C3rFFr23         [10] 6650 	jp	00148$
    00002358                       6651 00138$:
                                   6652 ;E:\Dropbox\FAUSTO\SVILUPPI\MSX\CODE\C\MSXgl\projects\exsoccer/exsoccer_s2_b0.c:1328: u8 team = g_Players[s_GkAnimPlayerId].TeamId;
    00002358 ED 5Br05r00      [20] 6653 	ld	de, (_s_GkAnimPlayerId)
    0000235C 16 00            [ 7] 6654 	ld	d, #0x00
    0000235E 6B               [ 4] 6655 	ld	l, e
    0000235F 62               [ 4] 6656 	ld	h, d
    00002360 29               [11] 6657 	add	hl, hl
    00002361 29               [11] 6658 	add	hl, hl
    00002362 19               [11] 6659 	add	hl, de
    00002363 29               [11] 6660 	add	hl, hl
    00002364 29               [11] 6661 	add	hl, hl
    00002365 19               [11] 6662 	add	hl, de
    00002366 09               [11] 6663 	add	hl, bc
    00002367 EB               [ 4] 6664 	ex	de, hl
    00002368 D5               [11] 6665 	push	de
    00002369 FD E1            [14] 6666 	pop	iy
    0000236B FD 7E 09         [19] 6667 	ld	a, 9 (iy)
    0000236E DD 77 FF         [19] 6668 	ld	-1 (ix), a
                                   6669 ;E:\Dropbox\FAUSTO\SVILUPPI\MSX\CODE\C\MSXgl\projects\exsoccer/exsoccer_s2_b0.c:1330: g_Players[s_GkAnimPlayerId].PatternId = pose;
    00002371 21 08 00         [10] 6670 	ld	hl, #0x0008
    00002374 19               [11] 6671 	add	hl, de
    00002375 36 45            [10] 6672 	ld	(hl), #0x45
                                   6673 ;E:\Dropbox\FAUSTO\SVILUPPI\MSX\CODE\C\MSXgl\projects\exsoccer/exsoccer_s2_b0.c:1333: u16 tx = g_Players[s_GkAnimPlayerId].X;
    00002377 ED 5Br05r00      [20] 6674 	ld	de, (_s_GkAnimPlayerId)
    0000237B 16 00            [ 7] 6675 	ld	d, #0x00
    0000237D 6B               [ 4] 6676 	ld	l, e
    0000237E 62               [ 4] 6677 	ld	h, d
    0000237F 29               [11] 6678 	add	hl, hl
    00002380 29               [11] 6679 	add	hl, hl
    00002381 19               [11] 6680 	add	hl, de
    00002382 29               [11] 6681 	add	hl, hl
    00002383 29               [11] 6682 	add	hl, hl
    00002384 19               [11] 6683 	add	hl, de
    00002385 09               [11] 6684 	add	hl, bc
                                   6685 ;	spillPairReg hl
                                   6686 ;	spillPairReg hl
    00002386 5D               [ 4] 6687 	ld	e, l
    00002387 54               [ 4] 6688 	ld	d, h
                                   6689 ;	spillPairReg hl
                                   6690 ;	spillPairReg hl
    00002388 23               [ 6] 6691 	inc	hl
    00002389 23               [ 6] 6692 	inc	hl
    0000238A 4E               [ 7] 6693 	ld	c, (hl)
    0000238B 23               [ 6] 6694 	inc	hl
    0000238C 46               [ 7] 6695 	ld	b, (hl)
                                   6696 ;E:\Dropbox\FAUSTO\SVILUPPI\MSX\CODE\C\MSXgl\projects\exsoccer/exsoccer_s2_b0.c:1336: if (g_Players[s_GkAnimPlayerId].Y > (FIELD_BOUND_Y_TOP + 100)) ty = g_Players[s_GkAnimPlayerId].Y - 100;
    0000238D EB               [ 4] 6697 	ex	de,hl
    0000238E 5E               [ 7] 6698 	ld	e, (hl)
    0000238F 23               [ 6] 6699 	inc	hl
    00002390 56               [ 7] 6700 	ld	d, (hl)
                                   6701 ;E:\Dropbox\FAUSTO\SVILUPPI\MSX\CODE\C\MSXgl\projects\exsoccer/exsoccer_s2_b0.c:1335: if (team == TEAM_1) { // Shooting UP
    00002391 DD 7E FF         [19] 6702 	ld	a, -1 (ix)
    00002394 3D               [ 4] 6703 	dec	a
    00002395 20 19            [12] 6704 	jr	NZ, 00135$
                                   6705 ;E:\Dropbox\FAUSTO\SVILUPPI\MSX\CODE\C\MSXgl\projects\exsoccer/exsoccer_s2_b0.c:1336: if (g_Players[s_GkAnimPlayerId].Y > (FIELD_BOUND_Y_TOP + 100)) ty = g_Players[s_GkAnimPlayerId].Y - 100;
    00002397 3E 96            [ 7] 6706 	ld	a, #0x96
    00002399 BB               [ 4] 6707 	cp	a, e
    0000239A 3E 00            [ 7] 6708 	ld	a, #0x00
    0000239C 9A               [ 4] 6709 	sbc	a, d
    0000239D 30 0B            [12] 6710 	jr	NC, 00129$
    0000239F 7B               [ 4] 6711 	ld	a, e
    000023A0 C6 9C            [ 7] 6712 	add	a, #0x9c
    000023A2 5F               [ 4] 6713 	ld	e, a
    000023A3 7A               [ 4] 6714 	ld	a, d
    000023A4 CE FF            [ 7] 6715 	adc	a, #0xff
    000023A6 57               [ 4] 6716 	ld	d, a
    000023A7 C3rC3r23         [10] 6717 	jp	00136$
    000023AA                       6718 00129$:
                                   6719 ;E:\Dropbox\FAUSTO\SVILUPPI\MSX\CODE\C\MSXgl\projects\exsoccer/exsoccer_s2_b0.c:1337: else ty = FIELD_BOUND_Y_TOP;
    000023AA 11 32 00         [10] 6720 	ld	de, #0x0032
    000023AD C3rC3r23         [10] 6721 	jp	00136$
    000023B0                       6722 00135$:
                                   6723 ;E:\Dropbox\FAUSTO\SVILUPPI\MSX\CODE\C\MSXgl\projects\exsoccer/exsoccer_s2_b0.c:1339: if (g_Players[s_GkAnimPlayerId].Y < (FIELD_BOUND_Y_BOTTOM - 100)) ty = g_Players[s_GkAnimPlayerId].Y + 100;
    000023B0 7B               [ 4] 6724 	ld	a, e
    000023B1 D6 4A            [ 7] 6725 	sub	a, #0x4a
    000023B3 7A               [ 4] 6726 	ld	a, d
    000023B4 DE 01            [ 7] 6727 	sbc	a, #0x01
    000023B6 30 08            [12] 6728 	jr	NC, 00132$
    000023B8 21 64 00         [10] 6729 	ld	hl, #0x0064
    000023BB 19               [11] 6730 	add	hl, de
    000023BC EB               [ 4] 6731 	ex	de, hl
    000023BD C3rC3r23         [10] 6732 	jp	00136$
    000023C0                       6733 00132$:
                                   6734 ;E:\Dropbox\FAUSTO\SVILUPPI\MSX\CODE\C\MSXgl\projects\exsoccer/exsoccer_s2_b0.c:1340: else ty = FIELD_BOUND_Y_BOTTOM;
    000023C0 11 AE 01         [10] 6735 	ld	de, #0x01ae
    000023C3                       6736 00136$:
                                   6737 ;E:\Dropbox\FAUSTO\SVILUPPI\MSX\CODE\C\MSXgl\projects\exsoccer/exsoccer_s2_b0.c:1343: PerformShot(tx, ty);
    000023C3 69               [ 4] 6738 	ld	l, c
                                   6739 ;	spillPairReg hl
                                   6740 ;	spillPairReg hl
    000023C4 60               [ 4] 6741 	ld	h, b
                                   6742 ;	spillPairReg hl
                                   6743 ;	spillPairReg hl
    000023C5 CDr04r24         [17] 6744 	call	_PerformShot
                                   6745 ;E:\Dropbox\FAUSTO\SVILUPPI\MSX\CODE\C\MSXgl\projects\exsoccer/exsoccer_s2_b0.c:1346: g_MatchStatus = MATCH_IN_ACTION;
    000023C8 21r00r00         [10] 6746 	ld	hl, #_g_MatchStatus
    000023CB 36 0C            [10] 6747 	ld	(hl), #0x0c
    000023CD C3rFFr23         [10] 6748 	jp	00148$
    000023D0                       6749 00143$:
                                   6750 ;E:\Dropbox\FAUSTO\SVILUPPI\MSX\CODE\C\MSXgl\projects\exsoccer/exsoccer_s2_b0.c:1349: } else if (s_GkAnimTimer > (kickTime + 15)) {
    000023D0 16 00            [ 7] 6751 	ld	d, #0x00
    000023D2 21 0F 00         [10] 6752 	ld	hl, #0x000f
    000023D5 19               [11] 6753 	add	hl, de
    000023D6 3Ar04r00         [13] 6754 	ld	a, (_s_GkAnimTimer+0)
    000023D9 5F               [ 4] 6755 	ld	e, a
    000023DA 16 00            [ 7] 6756 	ld	d, #0x00
    000023DC 7D               [ 4] 6757 	ld	a, l
    000023DD 93               [ 4] 6758 	sub	a, e
    000023DE 7C               [ 4] 6759 	ld	a, h
    000023DF 9A               [ 4] 6760 	sbc	a, d
    000023E0 E2rE5r23         [10] 6761 	jp	PO, 00270$
    000023E3 EE 80            [ 7] 6762 	xor	a, #0x80
    000023E5                       6763 00270$:
    000023E5 F2rFFr23         [10] 6764 	jp	P, 00148$
                                   6765 ;E:\Dropbox\FAUSTO\SVILUPPI\MSX\CODE\C\MSXgl\projects\exsoccer/exsoccer_s2_b0.c:1352: g_Players[s_GkAnimPlayerId].Status = PLAYER_STATUS_NONE;
    000023E8 ED 5Br05r00      [20] 6766 	ld	de, (_s_GkAnimPlayerId)
    000023EC 16 00            [ 7] 6767 	ld	d, #0x00
    000023EE 6B               [ 4] 6768 	ld	l, e
    000023EF 62               [ 4] 6769 	ld	h, d
    000023F0 29               [11] 6770 	add	hl, hl
    000023F1 29               [11] 6771 	add	hl, hl
    000023F2 19               [11] 6772 	add	hl, de
    000023F3 29               [11] 6773 	add	hl, hl
    000023F4 29               [11] 6774 	add	hl, hl
    000023F5 19               [11] 6775 	add	hl, de
    000023F6 09               [11] 6776 	add	hl, bc
    000023F7 01 12 00         [10] 6777 	ld	bc, #0x0012
    000023FA 09               [11] 6778 	add	hl, bc
    000023FB AF               [ 4] 6779 	xor	a, a
    000023FC 77               [ 7] 6780 	ld	(hl), a
    000023FD 23               [ 6] 6781 	inc	hl
    000023FE 77               [ 7] 6782 	ld	(hl), a
    000023FF                       6783 00148$:
                                   6784 ;E:\Dropbox\FAUSTO\SVILUPPI\MSX\CODE\C\MSXgl\projects\exsoccer/exsoccer_s2_b0.c:1354: }
    000023FF DD F9            [10] 6785 	ld	sp, ix
    00002401 DD E1            [14] 6786 	pop	ix
    00002403 C9               [10] 6787 	ret
                                   6788 ;E:\Dropbox\FAUSTO\SVILUPPI\MSX\CODE\C\MSXgl\projects\exsoccer/exsoccer_s2_b0.c:1356: void PerformShot(u16 targetX, u16 targetY) {
                                   6789 ;	---------------------------------
                                   6790 ; Function PerformShot
                                   6791 ; ---------------------------------
    00002404                       6792 _PerformShot::
    00002404 DD E5            [15] 6793 	push	ix
    00002406 DD 21 00 00      [14] 6794 	ld	ix,#0
    0000240A DD 39            [15] 6795 	add	ix,sp
    0000240C FD 21 EC FF      [14] 6796 	ld	iy, #-20
    00002410 FD 39            [15] 6797 	add	iy, sp
    00002412 FD F9            [10] 6798 	ld	sp, iy
    00002414 DD 75 FE         [19] 6799 	ld	-2 (ix), l
    00002417 DD 74 FF         [19] 6800 	ld	-1 (ix), h
    0000241A DD 73 FC         [19] 6801 	ld	-4 (ix), e
    0000241D DD 72 FD         [19] 6802 	ld	-3 (ix), d
                                   6803 ;E:\Dropbox\FAUSTO\SVILUPPI\MSX\CODE\C\MSXgl\projects\exsoccer/exsoccer_s2_b0.c:1357: u8 fromId = g_Ball.PossessionPlayerId;
    00002420 3Ar06r00         [13] 6804 	ld	a, (#(_g_Ball + 6) + 0)
                                   6805 ;E:\Dropbox\FAUSTO\SVILUPPI\MSX\CODE\C\MSXgl\projects\exsoccer/exsoccer_s2_b0.c:1358: if (fromId == NO_VALUE) return;
    00002423 DD 77 FB         [19] 6806 	ld	-5 (ix), a
    00002426 3C               [ 4] 6807 	inc	a
    00002427 CArDCr26         [10] 6808 	jp	Z,00132$
    0000242A C3r2Dr24         [10] 6809 	jp	00102$
    0000242D                       6810 00102$:
                                   6811 ;E:\Dropbox\FAUSTO\SVILUPPI\MSX\CODE\C\MSXgl\projects\exsoccer/exsoccer_s2_b0.c:1364: dx = (i16)targetX - (i16)g_Players[fromId].X;
    0000242D DD 4E FE         [19] 6812 	ld	c, -2 (ix)
    00002430 DD 46 FF         [19] 6813 	ld	b, -1 (ix)
    00002433 DD 5E FB         [19] 6814 	ld	e, -5 (ix)
    00002436 16 00            [ 7] 6815 	ld	d, #0x00
    00002438 6B               [ 4] 6816 	ld	l, e
    00002439 62               [ 4] 6817 	ld	h, d
    0000243A 29               [11] 6818 	add	hl, hl
    0000243B 29               [11] 6819 	add	hl, hl
    0000243C 19               [11] 6820 	add	hl, de
    0000243D 29               [11] 6821 	add	hl, hl
    0000243E 29               [11] 6822 	add	hl, hl
    0000243F 19               [11] 6823 	add	hl, de
    00002440 11r00r00         [10] 6824 	ld	de, #_g_Players
    00002443 19               [11] 6825 	add	hl, de
    00002444 E3               [19] 6826 	ex	(sp), hl
    00002445 DD 7E EC         [19] 6827 	ld	a, -20 (ix)
    00002448 C6 02            [ 7] 6828 	add	a, #0x02
    0000244A DD 77 EE         [19] 6829 	ld	-18 (ix), a
    0000244D DD 7E ED         [19] 6830 	ld	a, -19 (ix)
    00002450 CE 00            [ 7] 6831 	adc	a, #0x00
    00002452 DD 77 EF         [19] 6832 	ld	-17 (ix), a
    00002455 DD 6E EE         [19] 6833 	ld	l, -18 (ix)
    00002458 DD 66 EF         [19] 6834 	ld	h, -17 (ix)
    0000245B 5E               [ 7] 6835 	ld	e, (hl)
    0000245C 23               [ 6] 6836 	inc	hl
    0000245D 56               [ 7] 6837 	ld	d, (hl)
    0000245E 79               [ 4] 6838 	ld	a, c
    0000245F 93               [ 4] 6839 	sub	a, e
    00002460 4F               [ 4] 6840 	ld	c, a
    00002461 78               [ 4] 6841 	ld	a, b
    00002462 9A               [ 4] 6842 	sbc	a, d
    00002463 DD 71 F0         [19] 6843 	ld	-16 (ix), c
    00002466 DD 77 F1         [19] 6844 	ld	-15 (ix), a
                                   6845 ;E:\Dropbox\FAUSTO\SVILUPPI\MSX\CODE\C\MSXgl\projects\exsoccer/exsoccer_s2_b0.c:1365: dy = (i16)targetY - (i16)g_Players[fromId].Y;
    00002469 DD 4E FC         [19] 6846 	ld	c, -4 (ix)
    0000246C DD 46 FD         [19] 6847 	ld	b, -3 (ix)
    0000246F E1               [10] 6848 	pop	hl
    00002470 E5               [11] 6849 	push	hl
    00002471 5E               [ 7] 6850 	ld	e, (hl)
    00002472 23               [ 6] 6851 	inc	hl
    00002473 56               [ 7] 6852 	ld	d, (hl)
    00002474 79               [ 4] 6853 	ld	a, c
    00002475 93               [ 4] 6854 	sub	a, e
    00002476 4F               [ 4] 6855 	ld	c, a
    00002477 78               [ 4] 6856 	ld	a, b
    00002478 9A               [ 4] 6857 	sbc	a, d
    00002479 DD 71 F2         [19] 6858 	ld	-14 (ix), c
    0000247C DD 77 F3         [19] 6859 	ld	-13 (ix), a
                                   6860 ;E:\Dropbox\FAUSTO\SVILUPPI\MSX\CODE\C\MSXgl\projects\exsoccer/exsoccer_s2_b0.c:1366: adx = (dx < 0) ? -dx : dx;
    0000247F DD 7E F0         [19] 6861 	ld	a, -16 (ix)
    00002482 DD 77 F4         [19] 6862 	ld	-12 (ix), a
    00002485 DD 7E F1         [19] 6863 	ld	a, -15 (ix)
    00002488 DD 77 F5         [19] 6864 	ld	-11 (ix), a
    0000248B DD CB F5 7E      [20] 6865 	bit	7, -11 (ix)
    0000248F 28 0C            [12] 6866 	jr	Z, 00134$
    00002491 AF               [ 4] 6867 	xor	a, a
    00002492 DD 96 F0         [19] 6868 	sub	a, -16 (ix)
    00002495 4F               [ 4] 6869 	ld	c, a
    00002496 9F               [ 4] 6870 	sbc	a, a
    00002497 DD 96 F1         [19] 6871 	sub	a, -15 (ix)
    0000249A C3rA3r24         [10] 6872 	jp	00135$
    0000249D                       6873 00134$:
    0000249D DD 4E F0         [19] 6874 	ld	c, -16 (ix)
    000024A0 DD 7E F1         [19] 6875 	ld	a, -15 (ix)
    000024A3                       6876 00135$:
    000024A3 DD 71 F6         [19] 6877 	ld	-10 (ix), c
    000024A6 DD 77 F7         [19] 6878 	ld	-9 (ix), a
                                   6879 ;E:\Dropbox\FAUSTO\SVILUPPI\MSX\CODE\C\MSXgl\projects\exsoccer/exsoccer_s2_b0.c:1367: ady = (dy < 0) ? -dy : dy;
    000024A9 DD 7E F2         [19] 6880 	ld	a, -14 (ix)
    000024AC DD 77 F8         [19] 6881 	ld	-8 (ix), a
    000024AF DD 7E F3         [19] 6882 	ld	a, -13 (ix)
    000024B2 DD 77 F9         [19] 6883 	ld	-7 (ix), a
    000024B5 DD CB F9 7E      [20] 6884 	bit	7, -7 (ix)
    000024B9 28 11            [12] 6885 	jr	Z, 00136$
    000024BB AF               [ 4] 6886 	xor	a, a
    000024BC DD 96 F2         [19] 6887 	sub	a, -14 (ix)
    000024BF DD 77 FA         [19] 6888 	ld	-6 (ix), a
    000024C2 9F               [ 4] 6889 	sbc	a, a
    000024C3 DD 96 F3         [19] 6890 	sub	a, -13 (ix)
    000024C6 DD 77 FB         [19] 6891 	ld	-5 (ix), a
    000024C9 C3rD8r24         [10] 6892 	jp	00137$
    000024CC                       6893 00136$:
    000024CC DD 7E F2         [19] 6894 	ld	a, -14 (ix)
    000024CF DD 77 FA         [19] 6895 	ld	-6 (ix), a
    000024D2 DD 7E F3         [19] 6896 	ld	a, -13 (ix)
    000024D5 DD 77 FB         [19] 6897 	ld	-5 (ix), a
    000024D8                       6898 00137$:
    000024D8 DD 4E FA         [19] 6899 	ld	c, -6 (ix)
    000024DB DD 46 FB         [19] 6900 	ld	b, -5 (ix)
                                   6901 ;E:\Dropbox\FAUSTO\SVILUPPI\MSX\CODE\C\MSXgl\projects\exsoccer/exsoccer_s2_b0.c:1369: if (adx > ady * 2) {
    000024DE 69               [ 4] 6902 	ld	l, c
    000024DF 60               [ 4] 6903 	ld	h, b
    000024E0 29               [11] 6904 	add	hl, hl
    000024E1 DD 5E F6         [19] 6905 	ld	e, -10 (ix)
    000024E4 DD 56 F7         [19] 6906 	ld	d, -9 (ix)
    000024E7 7D               [ 4] 6907 	ld	a, l
    000024E8 93               [ 4] 6908 	sub	a, e
    000024E9 7C               [ 4] 6909 	ld	a, h
    000024EA 9A               [ 4] 6910 	sbc	a, d
    000024EB E2rF0r24         [10] 6911 	jp	PO, 00238$
    000024EE EE 80            [ 7] 6912 	xor	a, #0x80
    000024F0                       6913 00238$:
    000024F0 F2r11r25         [10] 6914 	jp	P, 00110$
                                   6915 ;E:\Dropbox\FAUSTO\SVILUPPI\MSX\CODE\C\MSXgl\projects\exsoccer/exsoccer_s2_b0.c:1370: newDir = (dx > 0) ? DIRECTION_RIGHT : DIRECTION_LEFT;
    000024F3 AF               [ 4] 6916 	xor	a, a
    000024F4 DD BE F4         [19] 6917 	cp	a, -12 (ix)
    000024F7 DD 9E F5         [19] 6918 	sbc	a, -11 (ix)
    000024FA E2rFFr24         [10] 6919 	jp	PO, 00239$
    000024FD EE 80            [ 7] 6920 	xor	a, #0x80
    000024FF                       6921 00239$:
    000024FF F2r08r25         [10] 6922 	jp	P, 00138$
    00002502 01 03 00         [10] 6923 	ld	bc, #0x0003
    00002505 C3r0Br25         [10] 6924 	jp	00139$
    00002508                       6925 00138$:
    00002508 01 07 00         [10] 6926 	ld	bc, #0x0007
    0000250B                       6927 00139$:
    0000250B DD 71 FB         [19] 6928 	ld	-5 (ix), c
    0000250E C3r75r25         [10] 6929 	jp	00111$
    00002511                       6930 00110$:
                                   6931 ;E:\Dropbox\FAUSTO\SVILUPPI\MSX\CODE\C\MSXgl\projects\exsoccer/exsoccer_s2_b0.c:1371: } else if (ady > adx * 2) {
    00002511 EB               [ 4] 6932 	ex	de, hl
    00002512 29               [11] 6933 	add	hl, hl
    00002513 EB               [ 4] 6934 	ex	de, hl
                                   6935 ;E:\Dropbox\FAUSTO\SVILUPPI\MSX\CODE\C\MSXgl\projects\exsoccer/exsoccer_s2_b0.c:1372: newDir = (dy > 0) ? DIRECTION_DOWN : DIRECTION_UP;
    00002514 AF               [ 4] 6936 	xor	a, a
    00002515 DD BE F8         [19] 6937 	cp	a, -8 (ix)
    00002518 DD 9E F9         [19] 6938 	sbc	a, -7 (ix)
    0000251B E2r20r25         [10] 6939 	jp	PO, 00240$
    0000251E EE 80            [ 7] 6940 	xor	a, #0x80
    00002520                       6941 00240$:
    00002520 07               [ 4] 6942 	rlca
    00002521 E6 01            [ 7] 6943 	and	a,#0x01
    00002523 6F               [ 4] 6944 	ld	l, a
                                   6945 ;	spillPairReg hl
                                   6946 ;	spillPairReg hl
                                   6947 ;E:\Dropbox\FAUSTO\SVILUPPI\MSX\CODE\C\MSXgl\projects\exsoccer/exsoccer_s2_b0.c:1371: } else if (ady > adx * 2) {
    00002524 7B               [ 4] 6948 	ld	a, e
    00002525 91               [ 4] 6949 	sub	a, c
    00002526 7A               [ 4] 6950 	ld	a, d
    00002527 98               [ 4] 6951 	sbc	a, b
    00002528 E2r2Dr25         [10] 6952 	jp	PO, 00241$
    0000252B EE 80            [ 7] 6953 	xor	a, #0x80
    0000252D                       6954 00241$:
    0000252D F2r43r25         [10] 6955 	jp	P, 00107$
                                   6956 ;E:\Dropbox\FAUSTO\SVILUPPI\MSX\CODE\C\MSXgl\projects\exsoccer/exsoccer_s2_b0.c:1372: newDir = (dy > 0) ? DIRECTION_DOWN : DIRECTION_UP;
    00002530 7D               [ 4] 6957 	ld	a, l
    00002531 B7               [ 4] 6958 	or	a, a
    00002532 28 06            [12] 6959 	jr	Z, 00140$
    00002534 01 05 00         [10] 6960 	ld	bc, #0x0005
    00002537 C3r3Dr25         [10] 6961 	jp	00141$
    0000253A                       6962 00140$:
    0000253A 01 01 00         [10] 6963 	ld	bc, #0x0001
    0000253D                       6964 00141$:
    0000253D DD 71 FB         [19] 6965 	ld	-5 (ix), c
    00002540 C3r75r25         [10] 6966 	jp	00111$
    00002543                       6967 00107$:
                                   6968 ;E:\Dropbox\FAUSTO\SVILUPPI\MSX\CODE\C\MSXgl\projects\exsoccer/exsoccer_s2_b0.c:1374: if (dx > 0) newDir = (dy > 0) ? DIRECTION_DOWN_RIGHT : DIRECTION_UP_RIGHT;
    00002543 AF               [ 4] 6969 	xor	a, a
    00002544 DD BE F4         [19] 6970 	cp	a, -12 (ix)
    00002547 DD 9E F5         [19] 6971 	sbc	a, -11 (ix)
    0000254A E2r4Fr25         [10] 6972 	jp	PO, 00242$
    0000254D EE 80            [ 7] 6973 	xor	a, #0x80
    0000254F                       6974 00242$:
    0000254F F2r65r25         [10] 6975 	jp	P, 00104$
    00002552 7D               [ 4] 6976 	ld	a, l
    00002553 B7               [ 4] 6977 	or	a, a
    00002554 28 06            [12] 6978 	jr	Z, 00142$
    00002556 01 04 00         [10] 6979 	ld	bc, #0x0004
    00002559 C3r5Fr25         [10] 6980 	jp	00143$
    0000255C                       6981 00142$:
    0000255C 01 02 00         [10] 6982 	ld	bc, #0x0002
    0000255F                       6983 00143$:
    0000255F DD 71 FB         [19] 6984 	ld	-5 (ix), c
    00002562 C3r75r25         [10] 6985 	jp	00111$
    00002565                       6986 00104$:
                                   6987 ;E:\Dropbox\FAUSTO\SVILUPPI\MSX\CODE\C\MSXgl\projects\exsoccer/exsoccer_s2_b0.c:1375: else newDir = (dy > 0) ? DIRECTION_DOWN_LEFT : DIRECTION_UP_LEFT;
    00002565 7D               [ 4] 6988 	ld	a, l
    00002566 B7               [ 4] 6989 	or	a, a
    00002567 28 06            [12] 6990 	jr	Z, 00144$
    00002569 01 06 00         [10] 6991 	ld	bc, #0x0006
    0000256C C3r72r25         [10] 6992 	jp	00145$
    0000256F                       6993 00144$:
    0000256F 01 08 00         [10] 6994 	ld	bc, #0x0008
    00002572                       6995 00145$:
    00002572 DD 71 FB         [19] 6996 	ld	-5 (ix), c
    00002575                       6997 00111$:
                                   6998 ;E:\Dropbox\FAUSTO\SVILUPPI\MSX\CODE\C\MSXgl\projects\exsoccer/exsoccer_s2_b0.c:1377: g_Players[fromId].Direction = newDir;
    00002575 E1               [10] 6999 	pop	hl
    00002576 E5               [11] 7000 	push	hl
    00002577 11 0A 00         [10] 7001 	ld	de, #0x000a
    0000257A 19               [11] 7002 	add	hl, de
    0000257B DD 7E FB         [19] 7003 	ld	a, -5 (ix)
    0000257E 77               [ 7] 7004 	ld	(hl), a
                                   7005 ;E:\Dropbox\FAUSTO\SVILUPPI\MSX\CODE\C\MSXgl\projects\exsoccer/exsoccer_s2_b0.c:1380: if (newDir == DIRECTION_UP || newDir == DIRECTION_UP_LEFT || newDir == DIRECTION_UP_RIGHT) g_Players[fromId].PatternId = PLAYER_POSE_SHOT_FRONT;
    0000257F DD 7E FB         [19] 7006 	ld	a, -5 (ix)
    00002582 3D               [ 4] 7007 	dec	a
    00002583 28 0E            [12] 7008 	jr	Z, 00122$
    00002585 DD 7E FB         [19] 7009 	ld	a, -5 (ix)
    00002588 D6 08            [ 7] 7010 	sub	a, #0x08
    0000258A 28 07            [12] 7011 	jr	Z, 00122$
    0000258C DD 7E FB         [19] 7012 	ld	a, -5 (ix)
    0000258F D6 02            [ 7] 7013 	sub	a, #0x02
    00002591 20 1B            [12] 7014 	jr	NZ, 00123$
    00002593                       7015 00122$:
    00002593 DD 7E EC         [19] 7016 	ld	a, -20 (ix)
    00002596 C6 08            [ 7] 7017 	add	a, #0x08
    00002598 DD 77 FA         [19] 7018 	ld	-6 (ix), a
    0000259B DD 7E ED         [19] 7019 	ld	a, -19 (ix)
    0000259E CE 00            [ 7] 7020 	adc	a, #0x00
    000025A0 DD 77 FB         [19] 7021 	ld	-5 (ix), a
    000025A3 DD 6E FA         [19] 7022 	ld	l, -6 (ix)
    000025A6 DD 66 FB         [19] 7023 	ld	h, -5 (ix)
    000025A9 36 18            [10] 7024 	ld	(hl), #0x18
    000025AB C3rEFr25         [10] 7025 	jp	00124$
    000025AE                       7026 00123$:
                                   7027 ;E:\Dropbox\FAUSTO\SVILUPPI\MSX\CODE\C\MSXgl\projects\exsoccer/exsoccer_s2_b0.c:1381: else if (newDir == DIRECTION_DOWN || newDir == DIRECTION_DOWN_LEFT || newDir == DIRECTION_DOWN_RIGHT) g_Players[fromId].PatternId = PLAYER_POSE_SHOT_BACK;
    000025AE DD 7E FB         [19] 7028 	ld	a, -5 (ix)
    000025B1 D6 05            [ 7] 7029 	sub	a, #0x05
    000025B3 28 0E            [12] 7030 	jr	Z, 00117$
    000025B5 DD 7E FB         [19] 7031 	ld	a, -5 (ix)
    000025B8 D6 06            [ 7] 7032 	sub	a, #0x06
    000025BA 28 07            [12] 7033 	jr	Z, 00117$
    000025BC DD 7E FB         [19] 7034 	ld	a, -5 (ix)
    000025BF D6 04            [ 7] 7035 	sub	a, #0x04
    000025C1 20 0B            [12] 7036 	jr	NZ, 00118$
    000025C3                       7037 00117$:
    000025C3 E1               [10] 7038 	pop	hl
    000025C4 E5               [11] 7039 	push	hl
    000025C5 11 08 00         [10] 7040 	ld	de, #0x0008
    000025C8 19               [11] 7041 	add	hl, de
    000025C9 36 15            [10] 7042 	ld	(hl), #0x15
    000025CB C3rEFr25         [10] 7043 	jp	00124$
    000025CE                       7044 00118$:
                                   7045 ;E:\Dropbox\FAUSTO\SVILUPPI\MSX\CODE\C\MSXgl\projects\exsoccer/exsoccer_s2_b0.c:1382: else if (newDir == DIRECTION_LEFT) g_Players[fromId].PatternId = PLAYER_POSE_SHOT_LEFT;
    000025CE DD 7E FB         [19] 7046 	ld	a, -5 (ix)
    000025D1 D6 07            [ 7] 7047 	sub	a, #0x07
    000025D3 20 0B            [12] 7048 	jr	NZ, 00115$
    000025D5 E1               [10] 7049 	pop	hl
    000025D6 E5               [11] 7050 	push	hl
    000025D7 11 08 00         [10] 7051 	ld	de, #0x0008
    000025DA 19               [11] 7052 	add	hl, de
    000025DB 36 A4            [10] 7053 	ld	(hl), #0xa4
    000025DD C3rEFr25         [10] 7054 	jp	00124$
    000025E0                       7055 00115$:
                                   7056 ;E:\Dropbox\FAUSTO\SVILUPPI\MSX\CODE\C\MSXgl\projects\exsoccer/exsoccer_s2_b0.c:1383: else if (newDir == DIRECTION_RIGHT) g_Players[fromId].PatternId = PLAYER_POSE_SHOT_RIGHT;
    000025E0 DD 7E FB         [19] 7057 	ld	a, -5 (ix)
    000025E3 D6 03            [ 7] 7058 	sub	a, #0x03
    000025E5 20 08            [12] 7059 	jr	NZ, 00124$
    000025E7 E1               [10] 7060 	pop	hl
    000025E8 E5               [11] 7061 	push	hl
    000025E9 11 08 00         [10] 7062 	ld	de, #0x0008
    000025EC 19               [11] 7063 	add	hl, de
    000025ED 36 1B            [10] 7064 	ld	(hl), #0x1b
    000025EF                       7065 00124$:
                                   7066 ;E:\Dropbox\FAUSTO\SVILUPPI\MSX\CODE\C\MSXgl\projects\exsoccer/exsoccer_s2_b0.c:1385: g_Players[fromId].Status = PLAYER_STATUS_POSITIONED; // Lock pose
    000025EF E1               [10] 7067 	pop	hl
    000025F0 E5               [11] 7068 	push	hl
    000025F1 11 12 00         [10] 7069 	ld	de, #0x0012
    000025F4 19               [11] 7070 	add	hl, de
    000025F5 36 04            [10] 7071 	ld	(hl), #0x04
    000025F7 23               [ 6] 7072 	inc	hl
    000025F8 36 00            [10] 7073 	ld	(hl), #0x00
                                   7074 ;E:\Dropbox\FAUSTO\SVILUPPI\MSX\CODE\C\MSXgl\projects\exsoccer/exsoccer_s2_b0.c:1388: g_Players[fromId].TargetX = g_Players[fromId].X;
    000025FA DD 7E EC         [19] 7075 	ld	a, -20 (ix)
    000025FD C6 10            [ 7] 7076 	add	a, #0x10
    000025FF 4F               [ 4] 7077 	ld	c, a
    00002600 DD 7E ED         [19] 7078 	ld	a, -19 (ix)
    00002603 CE 00            [ 7] 7079 	adc	a, #0x00
    00002605 47               [ 4] 7080 	ld	b, a
    00002606 DD 6E EE         [19] 7081 	ld	l, -18 (ix)
    00002609 DD 66 EF         [19] 7082 	ld	h, -17 (ix)
    0000260C 5E               [ 7] 7083 	ld	e, (hl)
    0000260D 23               [ 6] 7084 	inc	hl
    0000260E 56               [ 7] 7085 	ld	d, (hl)
    0000260F 7B               [ 4] 7086 	ld	a, e
    00002610 02               [ 7] 7087 	ld	(bc), a
    00002611 03               [ 6] 7088 	inc	bc
    00002612 7A               [ 4] 7089 	ld	a, d
    00002613 02               [ 7] 7090 	ld	(bc), a
                                   7091 ;E:\Dropbox\FAUSTO\SVILUPPI\MSX\CODE\C\MSXgl\projects\exsoccer/exsoccer_s2_b0.c:1389: g_Players[fromId].TargetY = g_Players[fromId].Y;
    00002614 DD 7E EC         [19] 7092 	ld	a, -20 (ix)
    00002617 C6 0E            [ 7] 7093 	add	a, #0x0e
    00002619 4F               [ 4] 7094 	ld	c, a
    0000261A DD 7E ED         [19] 7095 	ld	a, -19 (ix)
    0000261D CE 00            [ 7] 7096 	adc	a, #0x00
    0000261F 47               [ 4] 7097 	ld	b, a
    00002620 E1               [10] 7098 	pop	hl
    00002621 E5               [11] 7099 	push	hl
    00002622 5E               [ 7] 7100 	ld	e, (hl)
    00002623 23               [ 6] 7101 	inc	hl
    00002624 56               [ 7] 7102 	ld	d, (hl)
    00002625 7B               [ 4] 7103 	ld	a, e
    00002626 02               [ 7] 7104 	ld	(bc), a
    00002627 03               [ 6] 7105 	inc	bc
    00002628 7A               [ 4] 7106 	ld	a, d
    00002629 02               [ 7] 7107 	ld	(bc), a
                                   7108 ;E:\Dropbox\FAUSTO\SVILUPPI\MSX\CODE\C\MSXgl\projects\exsoccer/exsoccer_s2_b0.c:1391: SetPlayerBallPossession(NO_VALUE);
    0000262A 3E FF            [ 7] 7109 	ld	a, #0xff
    0000262C CDr00r00         [17] 7110 	call	_SetPlayerBallPossession
                                   7111 ;E:\Dropbox\FAUSTO\SVILUPPI\MSX\CODE\C\MSXgl\projects\exsoccer/exsoccer_s2_b0.c:1392: g_Ball.PossessionPlayerId = NO_VALUE;
    0000262F 21r06r00         [10] 7112 	ld	hl, #(_g_Ball + 6)
    00002632 36 FF            [10] 7113 	ld	(hl), #0xff
                                   7114 ;E:\Dropbox\FAUSTO\SVILUPPI\MSX\CODE\C\MSXgl\projects\exsoccer/exsoccer_s2_b0.c:1393: g_Ball.PassTargetPlayerId = NO_VALUE;
    00002634 21r10r00         [10] 7115 	ld	hl, #(_g_Ball + 16)
    00002637 36 FF            [10] 7116 	ld	(hl), #0xff
                                   7117 ;E:\Dropbox\FAUSTO\SVILUPPI\MSX\CODE\C\MSXgl\projects\exsoccer/exsoccer_s2_b0.c:1394: g_Ball.ShotActive = 1;
    00002639 21r1Br00         [10] 7118 	ld	hl, #(_g_Ball + 27)
    0000263C 36 01            [10] 7119 	ld	(hl), #0x01
                                   7120 ;E:\Dropbox\FAUSTO\SVILUPPI\MSX\CODE\C\MSXgl\projects\exsoccer/exsoccer_s2_b0.c:1395: g_Ball.TargetX = targetX;
    0000263E 21r17r00         [10] 7121 	ld	hl, #(_g_Ball + 23)
    00002641 DD 7E FE         [19] 7122 	ld	a, -2 (ix)
    00002644 77               [ 7] 7123 	ld	(hl), a
    00002645 23               [ 6] 7124 	inc	hl
    00002646 DD 7E FF         [19] 7125 	ld	a, -1 (ix)
    00002649 77               [ 7] 7126 	ld	(hl), a
                                   7127 ;E:\Dropbox\FAUSTO\SVILUPPI\MSX\CODE\C\MSXgl\projects\exsoccer/exsoccer_s2_b0.c:1396: g_Ball.TargetY = targetY;
    0000264A 21r19r00         [10] 7128 	ld	hl, #(_g_Ball + 25)
    0000264D DD 7E FC         [19] 7129 	ld	a, -4 (ix)
    00002650 77               [ 7] 7130 	ld	(hl), a
    00002651 23               [ 6] 7131 	inc	hl
    00002652 DD 7E FD         [19] 7132 	ld	a, -3 (ix)
    00002655 77               [ 7] 7133 	ld	(hl), a
                                   7134 ;E:\Dropbox\FAUSTO\SVILUPPI\MSX\CODE\C\MSXgl\projects\exsoccer/exsoccer_s2_b0.c:1397: g_Ball.PassStartX = g_Ball.X;
    00002656 ED 4Br02r00      [20] 7135 	ld	bc, (#_g_Ball + 2)
    0000265A ED 43r11r00      [20] 7136 	ld	((_g_Ball + 17)), bc
                                   7137 ;E:\Dropbox\FAUSTO\SVILUPPI\MSX\CODE\C\MSXgl\projects\exsoccer/exsoccer_s2_b0.c:1398: g_Ball.PassStartY = g_Ball.Y;
    0000265E ED 4Br00r00      [20] 7138 	ld	bc, (#_g_Ball + 0)
    00002662 ED 43r13r00      [20] 7139 	ld	((_g_Ball + 19)), bc
                                   7140 ;E:\Dropbox\FAUSTO\SVILUPPI\MSX\CODE\C\MSXgl\projects\exsoccer/exsoccer_s2_b0.c:1401: i16 arcDy = dy;
    00002666 DD 4E F2         [19] 7141 	ld	c, -14 (ix)
    00002669 DD 46 F3         [19] 7142 	ld	b, -13 (ix)
                                   7143 ;E:\Dropbox\FAUSTO\SVILUPPI\MSX\CODE\C\MSXgl\projects\exsoccer/exsoccer_s2_b0.c:1402: if (targetY < FIELD_BOUND_Y_TOP) { // Shooting UP
    0000266C DD 5E FC         [19] 7144 	ld	e, -4 (ix)
    0000266F DD 56 FD         [19] 7145 	ld	d, -3 (ix)
    00002672 7B               [ 4] 7146 	ld	a, e
    00002673 D6 32            [ 7] 7147 	sub	a, #0x32
    00002675 7A               [ 4] 7148 	ld	a, d
    00002676 DE 00            [ 7] 7149 	sbc	a, #0x00
    00002678 30 0F            [12] 7150 	jr	NC, 00130$
                                   7151 ;E:\Dropbox\FAUSTO\SVILUPPI\MSX\CODE\C\MSXgl\projects\exsoccer/exsoccer_s2_b0.c:1403: arcDy = (i16)FIELD_BOUND_Y_TOP - (i16)g_Players[fromId].Y;
    0000267A E1               [10] 7152 	pop	hl
    0000267B E5               [11] 7153 	push	hl
    0000267C 4E               [ 7] 7154 	ld	c, (hl)
    0000267D 23               [ 6] 7155 	inc	hl
    0000267E 46               [ 7] 7156 	ld	b, (hl)
    0000267F 3E 32            [ 7] 7157 	ld	a, #0x32
    00002681 91               [ 4] 7158 	sub	a, c
    00002682 4F               [ 4] 7159 	ld	c, a
    00002683 9F               [ 4] 7160 	sbc	a, a
    00002684 90               [ 4] 7161 	sub	a, b
    00002685 47               [ 4] 7162 	ld	b, a
    00002686 C3r9Er26         [10] 7163 	jp	00131$
    00002689                       7164 00130$:
                                   7165 ;E:\Dropbox\FAUSTO\SVILUPPI\MSX\CODE\C\MSXgl\projects\exsoccer/exsoccer_s2_b0.c:1404: } else if (targetY > FIELD_BOUND_Y_BOTTOM) { // Shooting DOWN
    00002689 3E AE            [ 7] 7166 	ld	a, #0xae
    0000268B BB               [ 4] 7167 	cp	a, e
    0000268C 3E 01            [ 7] 7168 	ld	a, #0x01
    0000268E 9A               [ 4] 7169 	sbc	a, d
    0000268F 30 0D            [12] 7170 	jr	NC, 00131$
                                   7171 ;E:\Dropbox\FAUSTO\SVILUPPI\MSX\CODE\C\MSXgl\projects\exsoccer/exsoccer_s2_b0.c:1405: arcDy = (i16)FIELD_BOUND_Y_BOTTOM - (i16)g_Players[fromId].Y;
    00002691 E1               [10] 7172 	pop	hl
    00002692 E5               [11] 7173 	push	hl
    00002693 4E               [ 7] 7174 	ld	c, (hl)
    00002694 23               [ 6] 7175 	inc	hl
    00002695 46               [ 7] 7176 	ld	b, (hl)
    00002696 3E AE            [ 7] 7177 	ld	a, #0xae
    00002698 91               [ 4] 7178 	sub	a, c
    00002699 4F               [ 4] 7179 	ld	c, a
    0000269A 3E 01            [ 7] 7180 	ld	a, #0x01
    0000269C 98               [ 4] 7181 	sbc	a, b
    0000269D 47               [ 4] 7182 	ld	b, a
    0000269E                       7183 00131$:
                                   7184 ;E:\Dropbox\FAUSTO\SVILUPPI\MSX\CODE\C\MSXgl\projects\exsoccer/exsoccer_s2_b0.c:1407: g_Ball.PassTotalDist = (u16)(Math_Abs32(dx) + Math_Abs32(arcDy));
    0000269E DD 5E F0         [19] 7185 	ld	e, -16 (ix)
    000026A1 DD 7E F1         [19] 7186 	ld	a, -15 (ix)
    000026A4 57               [ 4] 7187 	ld	d, a
    000026A5 07               [ 4] 7188 	rlca
    000026A6 ED 62            [15] 7189 	sbc	hl, hl
    000026A8 C5               [11] 7190 	push	bc
    000026A9 CDrE9r15         [17] 7191 	call	_Math_Abs32
    000026AC DD 73 F8         [19] 7192 	ld	-8 (ix), e
    000026AF DD 72 F9         [19] 7193 	ld	-7 (ix), d
    000026B2 DD 75 FA         [19] 7194 	ld	-6 (ix), l
    000026B5 DD 74 FB         [19] 7195 	ld	-5 (ix), h
    000026B8 C1               [10] 7196 	pop	bc
    000026B9 78               [ 4] 7197 	ld	a, b
    000026BA 07               [ 4] 7198 	rlca
    000026BB ED 62            [15] 7199 	sbc	hl, hl
    000026BD 59               [ 4] 7200 	ld	e, c
    000026BE 50               [ 4] 7201 	ld	d, b
    000026BF CDrE9r15         [17] 7202 	call	_Math_Abs32
    000026C2 DD 4E F8         [19] 7203 	ld	c, -8 (ix)
    000026C5 DD 46 F9         [19] 7204 	ld	b, -7 (ix)
    000026C8 EB               [ 4] 7205 	ex	de, hl
    000026C9 09               [11] 7206 	add	hl, bc
    000026CA DD 75 FA         [19] 7207 	ld	-6 (ix), l
    000026CD DD 74 FB         [19] 7208 	ld	-5 (ix), h
    000026D0 21r15r00         [10] 7209 	ld	hl, #(_g_Ball + 21)
    000026D3 DD 7E FA         [19] 7210 	ld	a, -6 (ix)
    000026D6 77               [ 7] 7211 	ld	(hl), a
    000026D7 23               [ 6] 7212 	inc	hl
    000026D8 DD 7E FB         [19] 7213 	ld	a, -5 (ix)
    000026DB 77               [ 7] 7214 	ld	(hl), a
    000026DC                       7215 00132$:
                                   7216 ;E:\Dropbox\FAUSTO\SVILUPPI\MSX\CODE\C\MSXgl\projects\exsoccer/exsoccer_s2_b0.c:1408: }
    000026DC DD F9            [10] 7217 	ld	sp, ix
    000026DE DD E1            [14] 7218 	pop	ix
    000026E0 C9               [10] 7219 	ret
                                   7220 ;E:\Dropbox\FAUSTO\SVILUPPI\MSX\CODE\C\MSXgl\projects\exsoccer/exsoccer_s2_b0.c:1410: void TickBallFlying() {
                                   7221 ;	---------------------------------
                                   7222 ; Function TickBallFlying
                                   7223 ; ---------------------------------
    000026E1                       7224 _TickBallFlying::
    000026E1 DD E5            [15] 7225 	push	ix
    000026E3 DD 21 00 00      [14] 7226 	ld	ix,#0
    000026E7 DD 39            [15] 7227 	add	ix,sp
    000026E9 21 E8 FF         [10] 7228 	ld	hl, #-24
    000026EC 39               [11] 7229 	add	hl, sp
    000026ED F9               [ 6] 7230 	ld	sp, hl
                                   7231 ;E:\Dropbox\FAUSTO\SVILUPPI\MSX\CODE\C\MSXgl\projects\exsoccer/exsoccer_s2_b0.c:1412: if(g_MatchStatus == MATCH_BEFORE_THROW_IN || g_MatchStatus == MATCH_THROW_IN || 
    000026EE 3Ar00r00         [13] 7232 	ld	a,(_g_MatchStatus+0)
    000026F1 FE 03            [ 7] 7233 	cp	a,#0x03
    000026F3 CArEDr2F         [10] 7234 	jp	Z,00198$
                                   7235 ;E:\Dropbox\FAUSTO\SVILUPPI\MSX\CODE\C\MSXgl\projects\exsoccer/exsoccer_s2_b0.c:1413: g_MatchStatus == MATCH_BEFORE_GOAL_KICK || g_MatchStatus == MATCH_GOAL_KICK ||
    000026F6 FE 08            [ 7] 7236 	cp	a,#0x08
    000026F8 CArEDr2F         [10] 7237 	jp	Z,00198$
    000026FB FE 05            [ 7] 7238 	cp	a,#0x05
    000026FD CArEDr2F         [10] 7239 	jp	Z,00198$
                                   7240 ;E:\Dropbox\FAUSTO\SVILUPPI\MSX\CODE\C\MSXgl\projects\exsoccer/exsoccer_s2_b0.c:1414: g_MatchStatus == MATCH_BEFORE_CORNER_KICK || g_MatchStatus == MATCH_CORNER_KICK ||
    00002700 FE 0A            [ 7] 7241 	cp	a,#0x0a
    00002702 CArEDr2F         [10] 7242 	jp	Z,00198$
    00002705 FE 02            [ 7] 7243 	cp	a,#0x02
    00002707 CArEDr2F         [10] 7244 	jp	Z,00198$
                                   7245 ;E:\Dropbox\FAUSTO\SVILUPPI\MSX\CODE\C\MSXgl\projects\exsoccer/exsoccer_s2_b0.c:1415: g_MatchStatus == MATCH_BEFORE_KICK_OFF) {
    0000270A FE 09            [ 7] 7246 	cp	a,#0x09
    0000270C CArEDr2F         [10] 7247 	jp	Z,00198$
    0000270F 3D               [ 4] 7248 	dec	a
                                   7249 ;E:\Dropbox\FAUSTO\SVILUPPI\MSX\CODE\C\MSXgl\projects\exsoccer/exsoccer_s2_b0.c:1416: return;
    00002710 CArEDr2F         [10] 7250 	jp	Z,00198$
                                   7251 ;E:\Dropbox\FAUSTO\SVILUPPI\MSX\CODE\C\MSXgl\projects\exsoccer/exsoccer_s2_b0.c:1420: if (g_Ball.PossessionPlayerId != NO_VALUE) return;
    00002713 3Ar06r00         [13] 7252 	ld	a, (#(_g_Ball + 6) + 0)
    00002716 3C               [ 4] 7253 	inc	a
    00002717 C2rEDr2F         [10] 7254 	jp	NZ,00198$
                                   7255 ;E:\Dropbox\FAUSTO\SVILUPPI\MSX\CODE\C\MSXgl\projects\exsoccer/exsoccer_s2_b0.c:1423: bool isMovingToPlayer = (g_Ball.PassTargetPlayerId != NO_VALUE);
    0000271A 21r10r00         [10] 7256 	ld	hl, #(_g_Ball + 16)
    0000271D 4E               [ 7] 7257 	ld	c, (hl)
    0000271E 79               [ 4] 7258 	ld	a, c
    0000271F 3C               [ 4] 7259 	inc	a
    00002720 3E 01            [ 7] 7260 	ld	a, #0x01
    00002722 28 01            [12] 7261 	jr	Z, 00483$
    00002724 AF               [ 4] 7262 	xor	a, a
    00002725                       7263 00483$:
    00002725 EE 01            [ 7] 7264 	xor	a, #0x01
    00002727 DD 77 EA         [19] 7265 	ld	-22 (ix), a
                                   7266 ;E:\Dropbox\FAUSTO\SVILUPPI\MSX\CODE\C\MSXgl\projects\exsoccer/exsoccer_s2_b0.c:1424: bool isFreeMoving = (g_Ball.ShotActive != 0);
    0000272A 3Ar1Br00         [13] 7267 	ld	a, (#(_g_Ball + 27) + 0)
    0000272D DD 77 EB         [19] 7268 	ld	-21 (ix), a
    00002730 D6 01            [ 7] 7269 	sub	a,#0x01
    00002732 3E 00            [ 7] 7270 	ld	a, #0x00
    00002734 17               [ 4] 7271 	rla
    00002735 EE 01            [ 7] 7272 	xor	a, #0x01
    00002737 47               [ 4] 7273 	ld	b, a
                                   7274 ;E:\Dropbox\FAUSTO\SVILUPPI\MSX\CODE\C\MSXgl\projects\exsoccer/exsoccer_s2_b0.c:1426: if (!isMovingToPlayer && !isFreeMoving) return;
    00002738 DD 7E EA         [19] 7275 	ld	a, -22 (ix)
    0000273B B7               [ 4] 7276 	or	a,a
    0000273C 20 04            [12] 7277 	jr	NZ, 00112$
    0000273E B0               [ 4] 7278 	or	a,b
    0000273F CArEDr2F         [10] 7279 	jp	Z,00198$
    00002742                       7280 00112$:
                                   7281 ;E:\Dropbox\FAUSTO\SVILUPPI\MSX\CODE\C\MSXgl\projects\exsoccer/exsoccer_s2_b0.c:1430: if (isMovingToPlayer) {
    00002742 DD 7E EA         [19] 7282 	ld	a, -22 (ix)
    00002745 B7               [ 4] 7283 	or	a, a
    00002746 28 21            [12] 7284 	jr	Z, 00115$
                                   7285 ;E:\Dropbox\FAUSTO\SVILUPPI\MSX\CODE\C\MSXgl\projects\exsoccer/exsoccer_s2_b0.c:1431: tx = g_Players[g_Ball.PassTargetPlayerId].X;
    00002748 11r00r00         [10] 7286 	ld	de, #_g_Players+0
    0000274B 06 00            [ 7] 7287 	ld	b, #0x00
    0000274D 69               [ 4] 7288 	ld	l, c
    0000274E 60               [ 4] 7289 	ld	h, b
    0000274F 29               [11] 7290 	add	hl, hl
    00002750 29               [11] 7291 	add	hl, hl
    00002751 09               [11] 7292 	add	hl, bc
    00002752 29               [11] 7293 	add	hl, hl
    00002753 29               [11] 7294 	add	hl, hl
    00002754 09               [11] 7295 	add	hl, bc
    00002755 19               [11] 7296 	add	hl, de
                                   7297 ;	spillPairReg hl
                                   7298 ;	spillPairReg hl
    00002756 5D               [ 4] 7299 	ld	e, l
    00002757 54               [ 4] 7300 	ld	d, h
                                   7301 ;	spillPairReg hl
                                   7302 ;	spillPairReg hl
    00002758 23               [ 6] 7303 	inc	hl
    00002759 23               [ 6] 7304 	inc	hl
    0000275A 4E               [ 7] 7305 	ld	c, (hl)
    0000275B 23               [ 6] 7306 	inc	hl
    0000275C 46               [ 7] 7307 	ld	b, (hl)
                                   7308 ;E:\Dropbox\FAUSTO\SVILUPPI\MSX\CODE\C\MSXgl\projects\exsoccer/exsoccer_s2_b0.c:1432: ty = g_Players[g_Ball.PassTargetPlayerId].Y;
    0000275D 1A               [ 7] 7309 	ld	a, (de)
    0000275E DD 77 EC         [19] 7310 	ld	-20 (ix), a
    00002761 13               [ 6] 7311 	inc	de
    00002762 1A               [ 7] 7312 	ld	a, (de)
    00002763 DD 77 ED         [19] 7313 	ld	-19 (ix), a
    00002766 C3r79r27         [10] 7314 	jp	00116$
    00002769                       7315 00115$:
                                   7316 ;E:\Dropbox\FAUSTO\SVILUPPI\MSX\CODE\C\MSXgl\projects\exsoccer/exsoccer_s2_b0.c:1434: tx = g_Ball.TargetX;
    00002769 ED 4Br17r00      [20] 7317 	ld	bc, (#_g_Ball + 23)
                                   7318 ;E:\Dropbox\FAUSTO\SVILUPPI\MSX\CODE\C\MSXgl\projects\exsoccer/exsoccer_s2_b0.c:1435: ty = g_Ball.TargetY;
    0000276D 21r19r00         [10] 7319 	ld	hl, #_g_Ball + 25
    00002770 7E               [ 7] 7320 	ld	a, (hl)
    00002771 DD 77 EC         [19] 7321 	ld	-20 (ix), a
    00002774 23               [ 6] 7322 	inc	hl
    00002775 7E               [ 7] 7323 	ld	a, (hl)
    00002776 DD 77 ED         [19] 7324 	ld	-19 (ix), a
    00002779                       7325 00116$:
                                   7326 ;E:\Dropbox\FAUSTO\SVILUPPI\MSX\CODE\C\MSXgl\projects\exsoccer/exsoccer_s2_b0.c:1439: i16 dx = tx - (i16)g_Ball.X;
    00002779 21r02r00         [10] 7327 	ld	hl, #(_g_Ball + 2)
    0000277C 7E               [ 7] 7328 	ld	a, (hl)
    0000277D DD 77 EE         [19] 7329 	ld	-18 (ix), a
    00002780 23               [ 6] 7330 	inc	hl
    00002781 7E               [ 7] 7331 	ld	a, (hl)
    00002782 DD 77 EF         [19] 7332 	ld	-17 (ix), a
    00002785 DD 5E EE         [19] 7333 	ld	e, -18 (ix)
    00002788 DD 56 EF         [19] 7334 	ld	d, -17 (ix)
    0000278B 79               [ 4] 7335 	ld	a, c
    0000278C 93               [ 4] 7336 	sub	a, e
    0000278D 4F               [ 4] 7337 	ld	c, a
    0000278E 78               [ 4] 7338 	ld	a, b
    0000278F 9A               [ 4] 7339 	sbc	a, d
    00002790 DD 71 F0         [19] 7340 	ld	-16 (ix), c
    00002793 DD 77 F1         [19] 7341 	ld	-15 (ix), a
                                   7342 ;E:\Dropbox\FAUSTO\SVILUPPI\MSX\CODE\C\MSXgl\projects\exsoccer/exsoccer_s2_b0.c:1440: i16 dy = ty - (i16)g_Ball.Y;
    00002796 2Ar00r00         [16] 7343 	ld	hl, (#_g_Ball + 0)
    00002799 DD 7E EC         [19] 7344 	ld	a, -20 (ix)
    0000279C 95               [ 4] 7345 	sub	a, l
    0000279D 4F               [ 4] 7346 	ld	c, a
    0000279E DD 7E ED         [19] 7347 	ld	a, -19 (ix)
    000027A1 9C               [ 4] 7348 	sbc	a, h
    000027A2 DD 71 F2         [19] 7349 	ld	-14 (ix), c
    000027A5 DD 77 F3         [19] 7350 	ld	-13 (ix), a
                                   7351 ;E:\Dropbox\FAUSTO\SVILUPPI\MSX\CODE\C\MSXgl\projects\exsoccer/exsoccer_s2_b0.c:1443: u8 speed = 3; 
    000027A8 DD 36 F4 03      [19] 7352 	ld	-12 (ix), #0x03
                                   7353 ;E:\Dropbox\FAUSTO\SVILUPPI\MSX\CODE\C\MSXgl\projects\exsoccer/exsoccer_s2_b0.c:1444: if (g_Ball.ShotActive == 1) speed = 5; // Fast High Shot/Kick
    000027AC DD 7E EB         [19] 7354 	ld	a, -21 (ix)
    000027AF 3D               [ 4] 7355 	dec	a
    000027B0 3E 01            [ 7] 7356 	ld	a, #0x01
    000027B2 28 01            [12] 7357 	jr	Z, 00485$
    000027B4 AF               [ 4] 7358 	xor	a, a
    000027B5                       7359 00485$:
    000027B5 DD 77 F5         [19] 7360 	ld	-11 (ix), a
    000027B8 B7               [ 4] 7361 	or	a, a
    000027B9 28 07            [12] 7362 	jr	Z, 00123$
    000027BB DD 36 F4 05      [19] 7363 	ld	-12 (ix), #0x05
    000027BF C3rDBr27         [10] 7364 	jp	00124$
    000027C2                       7365 00123$:
                                   7366 ;E:\Dropbox\FAUSTO\SVILUPPI\MSX\CODE\C\MSXgl\projects\exsoccer/exsoccer_s2_b0.c:1445: else if (g_Ball.ShotActive == 2) speed = 3; // Slower Bounce
    000027C2 DD 7E EB         [19] 7367 	ld	a, -21 (ix)
    000027C5 D6 02            [ 7] 7368 	sub	a, #0x02
    000027C7 20 07            [12] 7369 	jr	NZ, 00120$
    000027C9 DD 36 F4 03      [19] 7370 	ld	-12 (ix), #0x03
    000027CD C3rDBr27         [10] 7371 	jp	00124$
    000027D0                       7372 00120$:
                                   7373 ;E:\Dropbox\FAUSTO\SVILUPPI\MSX\CODE\C\MSXgl\projects\exsoccer/exsoccer_s2_b0.c:1446: else if (g_Ball.ShotActive == 3) speed = 2; // Rolling
    000027D0 DD 7E EB         [19] 7374 	ld	a, -21 (ix)
    000027D3 D6 03            [ 7] 7375 	sub	a, #0x03
    000027D5 20 04            [12] 7376 	jr	NZ, 00124$
    000027D7 DD 36 F4 02      [19] 7377 	ld	-12 (ix), #0x02
    000027DB                       7378 00124$:
                                   7379 ;E:\Dropbox\FAUSTO\SVILUPPI\MSX\CODE\C\MSXgl\projects\exsoccer/exsoccer_s2_b0.c:1449: if (dx > -speed && dx < speed && dy > -speed && dy < speed) {
    000027DB DD 7E F4         [19] 7380 	ld	a, -12 (ix)
    000027DE DD 77 F6         [19] 7381 	ld	-10 (ix), a
    000027E1 DD 36 F7 00      [19] 7382 	ld	-9 (ix), #0x00
    000027E5 AF               [ 4] 7383 	xor	a, a
    000027E6 DD 96 F6         [19] 7384 	sub	a, -10 (ix)
    000027E9 DD 77 F8         [19] 7385 	ld	-8 (ix), a
    000027EC 9F               [ 4] 7386 	sbc	a, a
    000027ED DD 96 F7         [19] 7387 	sub	a, -9 (ix)
    000027F0 DD 77 F9         [19] 7388 	ld	-7 (ix), a
    000027F3 DD 7E F0         [19] 7389 	ld	a, -16 (ix)
    000027F6 DD 77 FA         [19] 7390 	ld	-6 (ix), a
    000027F9 DD 7E F1         [19] 7391 	ld	a, -15 (ix)
    000027FC DD 77 FB         [19] 7392 	ld	-5 (ix), a
    000027FF DD 7E F8         [19] 7393 	ld	a, -8 (ix)
    00002802 DD 96 FA         [19] 7394 	sub	a, -6 (ix)
    00002805 DD 7E F9         [19] 7395 	ld	a, -7 (ix)
    00002808 DD 9E FB         [19] 7396 	sbc	a, -5 (ix)
    0000280B E2r10r28         [10] 7397 	jp	PO, 00490$
    0000280E EE 80            [ 7] 7398 	xor	a, #0x80
    00002810                       7399 00490$:
    00002810 F2r2Cr2D         [10] 7400 	jp	P, 00160$
    00002813 DD 7E F4         [19] 7401 	ld	a, -12 (ix)
    00002816 DD 77 FC         [19] 7402 	ld	-4 (ix), a
    00002819 DD 36 FD 00      [19] 7403 	ld	-3 (ix), #0x00
    0000281D DD 7E F0         [19] 7404 	ld	a, -16 (ix)
    00002820 DD 96 FC         [19] 7405 	sub	a, -4 (ix)
    00002823 DD 7E F1         [19] 7406 	ld	a, -15 (ix)
    00002826 DD 9E FD         [19] 7407 	sbc	a, -3 (ix)
    00002829 E2r2Er28         [10] 7408 	jp	PO, 00491$
    0000282C EE 80            [ 7] 7409 	xor	a, #0x80
    0000282E                       7410 00491$:
    0000282E F2r2Cr2D         [10] 7411 	jp	P, 00160$
    00002831 DD 7E F2         [19] 7412 	ld	a, -14 (ix)
    00002834 DD 77 FE         [19] 7413 	ld	-2 (ix), a
    00002837 DD 7E F3         [19] 7414 	ld	a, -13 (ix)
    0000283A DD 77 FF         [19] 7415 	ld	-1 (ix), a
    0000283D DD 7E F8         [19] 7416 	ld	a, -8 (ix)
    00002840 DD 96 FE         [19] 7417 	sub	a, -2 (ix)
    00002843 DD 7E F9         [19] 7418 	ld	a, -7 (ix)
    00002846 DD 9E FF         [19] 7419 	sbc	a, -1 (ix)
    00002849 E2r4Er28         [10] 7420 	jp	PO, 00492$
    0000284C EE 80            [ 7] 7421 	xor	a, #0x80
    0000284E                       7422 00492$:
    0000284E F2r2Cr2D         [10] 7423 	jp	P, 00160$
    00002851 DD 7E F2         [19] 7424 	ld	a, -14 (ix)
    00002854 DD 96 FC         [19] 7425 	sub	a, -4 (ix)
    00002857 DD 7E F3         [19] 7426 	ld	a, -13 (ix)
    0000285A DD 9E FD         [19] 7427 	sbc	a, -3 (ix)
    0000285D E2r62r28         [10] 7428 	jp	PO, 00493$
    00002860 EE 80            [ 7] 7429 	xor	a, #0x80
    00002862                       7430 00493$:
    00002862 F2r2Cr2D         [10] 7431 	jp	P, 00160$
                                   7432 ;E:\Dropbox\FAUSTO\SVILUPPI\MSX\CODE\C\MSXgl\projects\exsoccer/exsoccer_s2_b0.c:1453: if (isMovingToPlayer) {
    00002865 DD 7E EA         [19] 7433 	ld	a, -22 (ix)
    00002868 B7               [ 4] 7434 	or	a, a
    00002869 28 18            [12] 7435 	jr	Z, 00157$
                                   7436 ;E:\Dropbox\FAUSTO\SVILUPPI\MSX\CODE\C\MSXgl\projects\exsoccer/exsoccer_s2_b0.c:1455: g_Ball.KickMoveState = 3; // Force ball to snap to feet immediately (No visual lag)
    0000286B 21r0Dr00         [10] 7437 	ld	hl, #(_g_Ball + 13)
    0000286E 36 03            [10] 7438 	ld	(hl), #0x03
                                   7439 ;E:\Dropbox\FAUSTO\SVILUPPI\MSX\CODE\C\MSXgl\projects\exsoccer/exsoccer_s2_b0.c:1456: PutBallOnPlayerFeet(g_Ball.PassTargetPlayerId);
    00002870 3Ar10r00         [13] 7440 	ld	a, (#(_g_Ball + 16) + 0)
    00002873 CDr00r00         [17] 7441 	call	_PutBallOnPlayerFeet
                                   7442 ;E:\Dropbox\FAUSTO\SVILUPPI\MSX\CODE\C\MSXgl\projects\exsoccer/exsoccer_s2_b0.c:1457: g_Ball.PassTargetPlayerId = NO_VALUE;
    00002876 21r10r00         [10] 7443 	ld	hl, #(_g_Ball + 16)
    00002879 36 FF            [10] 7444 	ld	(hl), #0xff
                                   7445 ;E:\Dropbox\FAUSTO\SVILUPPI\MSX\CODE\C\MSXgl\projects\exsoccer/exsoccer_s2_b0.c:1458: g_Ball.Size = 1;
    0000287B 21r04r00         [10] 7446 	ld	hl, #(_g_Ball + 4)
    0000287E 36 01            [10] 7447 	ld	(hl), #0x01
                                   7448 ;E:\Dropbox\FAUSTO\SVILUPPI\MSX\CODE\C\MSXgl\projects\exsoccer/exsoccer_s2_b0.c:1459: return;
    00002880 C3rEDr2F         [10] 7449 	jp	00198$
    00002883                       7450 00157$:
                                   7451 ;E:\Dropbox\FAUSTO\SVILUPPI\MSX\CODE\C\MSXgl\projects\exsoccer/exsoccer_s2_b0.c:1465: if (g_Ball.ShotActive == 1) {
    00002883 DD 7E F5         [19] 7452 	ld	a, -11 (ix)
    00002886 B7               [ 4] 7453 	or	a, a
    00002887 CAr44r2B         [10] 7454 	jp	Z, 00154$
                                   7455 ;E:\Dropbox\FAUSTO\SVILUPPI\MSX\CODE\C\MSXgl\projects\exsoccer/exsoccer_s2_b0.c:1469: bool isInsideField = (ty >= FIELD_BOUND_Y_TOP && ty <= FIELD_BOUND_Y_BOTTOM);
    0000288A DD 7E EC         [19] 7456 	ld	a, -20 (ix)
    0000288D DD 77 FE         [19] 7457 	ld	-2 (ix), a
    00002890 DD 7E ED         [19] 7458 	ld	a, -19 (ix)
    00002893 DD 77 FF         [19] 7459 	ld	-1 (ix), a
    00002896 DD 7E FE         [19] 7460 	ld	a, -2 (ix)
    00002899 D6 32            [ 7] 7461 	sub	a, #0x32
    0000289B DD 7E FF         [19] 7462 	ld	a, -1 (ix)
    0000289E 17               [ 4] 7463 	rla
    0000289F 3F               [ 4] 7464 	ccf
    000028A0 1F               [ 4] 7465 	rra
    000028A1 DE 80            [ 7] 7466 	sbc	a, #0x80
    000028A3 38 12            [12] 7467 	jr	C, 00200$
    000028A5 3E AE            [ 7] 7468 	ld	a, #0xae
    000028A7 DD BE FE         [19] 7469 	cp	a, -2 (ix)
    000028AA 3E 01            [ 7] 7470 	ld	a, #0x01
    000028AC DD 9E FF         [19] 7471 	sbc	a, -1 (ix)
    000028AF E2rB4r28         [10] 7472 	jp	PO, 00494$
    000028B2 EE 80            [ 7] 7473 	xor	a, #0x80
    000028B4                       7474 00494$:
    000028B4 F2rBEr28         [10] 7475 	jp	P, 00201$
    000028B7                       7476 00200$:
    000028B7 DD 36 FF 00      [19] 7477 	ld	-1 (ix), #0x00
    000028BB C3rC2r28         [10] 7478 	jp	00202$
    000028BE                       7479 00201$:
    000028BE DD 36 FF 01      [19] 7480 	ld	-1 (ix), #0x01
    000028C2                       7481 00202$:
                                   7482 ;E:\Dropbox\FAUSTO\SVILUPPI\MSX\CODE\C\MSXgl\projects\exsoccer/exsoccer_s2_b0.c:1471: if (isInsideField) {
    000028C2 DD 7E FF         [19] 7483 	ld	a, -1 (ix)
    000028C5 B7               [ 4] 7484 	or	a, a
    000028C6 CAr15r2D         [10] 7485 	jp	Z, 00155$
                                   7486 ;E:\Dropbox\FAUSTO\SVILUPPI\MSX\CODE\C\MSXgl\projects\exsoccer/exsoccer_s2_b0.c:1475: i16 totalVectorX = (i16)g_Ball.TargetX - (i16)g_Ball.PassStartX;
    000028C9 21r17r00         [10] 7487 	ld	hl, #(_g_Ball + 23)
    000028CC 7E               [ 7] 7488 	ld	a, (hl)
    000028CD DD 77 FE         [19] 7489 	ld	-2 (ix), a
    000028D0 23               [ 6] 7490 	inc	hl
    000028D1 7E               [ 7] 7491 	ld	a, (hl)
    000028D2 DD 77 FF         [19] 7492 	ld	-1 (ix), a
    000028D5 DD 7E FE         [19] 7493 	ld	a, -2 (ix)
    000028D8 DD 77 FA         [19] 7494 	ld	-6 (ix), a
    000028DB DD 7E FF         [19] 7495 	ld	a, -1 (ix)
    000028DE DD 77 FB         [19] 7496 	ld	-5 (ix), a
    000028E1 21r11r00         [10] 7497 	ld	hl, #(_g_Ball + 17)
    000028E4 7E               [ 7] 7498 	ld	a, (hl)
    000028E5 DD 77 FE         [19] 7499 	ld	-2 (ix), a
    000028E8 23               [ 6] 7500 	inc	hl
    000028E9 7E               [ 7] 7501 	ld	a, (hl)
    000028EA DD 77 FF         [19] 7502 	ld	-1 (ix), a
    000028ED DD 7E FE         [19] 7503 	ld	a, -2 (ix)
    000028F0 DD 77 FC         [19] 7504 	ld	-4 (ix), a
    000028F3 DD 7E FF         [19] 7505 	ld	a, -1 (ix)
    000028F6 DD 77 FD         [19] 7506 	ld	-3 (ix), a
    000028F9 DD 7E FA         [19] 7507 	ld	a, -6 (ix)
    000028FC DD 96 FC         [19] 7508 	sub	a, -4 (ix)
    000028FF DD 77 FE         [19] 7509 	ld	-2 (ix), a
    00002902 DD 7E FB         [19] 7510 	ld	a, -5 (ix)
    00002905 DD 9E FD         [19] 7511 	sbc	a, -3 (ix)
    00002908 DD 77 FF         [19] 7512 	ld	-1 (ix), a
    0000290B DD 7E FE         [19] 7513 	ld	a, -2 (ix)
    0000290E DD 77 FC         [19] 7514 	ld	-4 (ix), a
    00002911 DD 7E FF         [19] 7515 	ld	a, -1 (ix)
    00002914 DD 77 FD         [19] 7516 	ld	-3 (ix), a
                                   7517 ;E:\Dropbox\FAUSTO\SVILUPPI\MSX\CODE\C\MSXgl\projects\exsoccer/exsoccer_s2_b0.c:1476: i16 totalVectorY = (i16)g_Ball.TargetY - (i16)g_Ball.PassStartY;
    00002917 21r19r00         [10] 7518 	ld	hl, #(_g_Ball + 25)
    0000291A 7E               [ 7] 7519 	ld	a, (hl)
    0000291B DD 77 FE         [19] 7520 	ld	-2 (ix), a
    0000291E 23               [ 6] 7521 	inc	hl
    0000291F 7E               [ 7] 7522 	ld	a, (hl)
    00002920 DD 77 FF         [19] 7523 	ld	-1 (ix), a
    00002923 DD 7E FE         [19] 7524 	ld	a, -2 (ix)
    00002926 DD 77 F8         [19] 7525 	ld	-8 (ix), a
    00002929 DD 7E FF         [19] 7526 	ld	a, -1 (ix)
    0000292C DD 77 F9         [19] 7527 	ld	-7 (ix), a
    0000292F 21r13r00         [10] 7528 	ld	hl, #(_g_Ball + 19)
    00002932 7E               [ 7] 7529 	ld	a, (hl)
    00002933 DD 77 FE         [19] 7530 	ld	-2 (ix), a
    00002936 23               [ 6] 7531 	inc	hl
    00002937 7E               [ 7] 7532 	ld	a, (hl)
    00002938 DD 77 FF         [19] 7533 	ld	-1 (ix), a
    0000293B DD 7E FE         [19] 7534 	ld	a, -2 (ix)
    0000293E DD 77 FA         [19] 7535 	ld	-6 (ix), a
    00002941 DD 7E FF         [19] 7536 	ld	a, -1 (ix)
    00002944 DD 77 FB         [19] 7537 	ld	-5 (ix), a
    00002947 DD 7E F8         [19] 7538 	ld	a, -8 (ix)
    0000294A DD 96 FA         [19] 7539 	sub	a, -6 (ix)
    0000294D DD 77 FE         [19] 7540 	ld	-2 (ix), a
    00002950 DD 7E F9         [19] 7541 	ld	a, -7 (ix)
    00002953 DD 9E FB         [19] 7542 	sbc	a, -5 (ix)
    00002956 DD 77 FF         [19] 7543 	ld	-1 (ix), a
                                   7544 ;E:\Dropbox\FAUSTO\SVILUPPI\MSX\CODE\C\MSXgl\projects\exsoccer/exsoccer_s2_b0.c:1479: g_Ball.PassStartX = g_Ball.X;
    00002959 21r11r00         [10] 7545 	ld	hl, #(_g_Ball + 17)
    0000295C DD 7E EE         [19] 7546 	ld	a, -18 (ix)
    0000295F 77               [ 7] 7547 	ld	(hl), a
    00002960 23               [ 6] 7548 	inc	hl
    00002961 DD 7E EF         [19] 7549 	ld	a, -17 (ix)
    00002964 77               [ 7] 7550 	ld	(hl), a
                                   7551 ;E:\Dropbox\FAUSTO\SVILUPPI\MSX\CODE\C\MSXgl\projects\exsoccer/exsoccer_s2_b0.c:1480: g_Ball.PassStartY = g_Ball.Y;
    00002965 21r00r00         [10] 7552 	ld	hl, #_g_Ball
    00002968 7E               [ 7] 7553 	ld	a, (hl)
    00002969 DD 77 FA         [19] 7554 	ld	-6 (ix), a
    0000296C 23               [ 6] 7555 	inc	hl
    0000296D 7E               [ 7] 7556 	ld	a, (hl)
    0000296E DD 77 FB         [19] 7557 	ld	-5 (ix), a
    00002971 21r13r00         [10] 7558 	ld	hl, #(_g_Ball + 19)
    00002974 DD 7E FA         [19] 7559 	ld	a, -6 (ix)
    00002977 77               [ 7] 7560 	ld	(hl), a
    00002978 23               [ 6] 7561 	inc	hl
    00002979 DD 7E FB         [19] 7562 	ld	a, -5 (ix)
    0000297C 77               [ 7] 7563 	ld	(hl), a
                                   7564 ;E:\Dropbox\FAUSTO\SVILUPPI\MSX\CODE\C\MSXgl\projects\exsoccer/exsoccer_s2_b0.c:1483: i16 bounceDx = totalVectorX / 4; 
    0000297D DD 7E FC         [19] 7565 	ld	a, -4 (ix)
    00002980 DD 77 F9         [19] 7566 	ld	-7 (ix), a
    00002983 DD 7E FD         [19] 7567 	ld	a, -3 (ix)
    00002986 DD 77 FA         [19] 7568 	ld	-6 (ix), a
    00002989 DD 7E F9         [19] 7569 	ld	a, -7 (ix)
    0000298C DD 77 FC         [19] 7570 	ld	-4 (ix), a
    0000298F DD 7E FA         [19] 7571 	ld	a, -6 (ix)
    00002992 DD 77 FD         [19] 7572 	ld	-3 (ix), a
    00002995 DD CB FA 7E      [20] 7573 	bit	7, -6 (ix)
    00002999 28 10            [12] 7574 	jr	Z, 00203$
    0000299B DD 7E F9         [19] 7575 	ld	a, -7 (ix)
    0000299E C6 03            [ 7] 7576 	add	a, #0x03
    000029A0 DD 77 FC         [19] 7577 	ld	-4 (ix), a
    000029A3 DD 7E FA         [19] 7578 	ld	a, -6 (ix)
    000029A6 CE 00            [ 7] 7579 	adc	a, #0x00
    000029A8 DD 77 FD         [19] 7580 	ld	-3 (ix), a
    000029AB                       7581 00203$:
    000029AB DD CB FD 2E      [23] 7582 	sra	-3 (ix)
    000029AF DD CB FC 1E      [23] 7583 	rr	-4 (ix)
    000029B3 DD CB FD 2E      [23] 7584 	sra	-3 (ix)
    000029B7 DD CB FC 1E      [23] 7585 	rr	-4 (ix)
    000029BB DD 7E FC         [19] 7586 	ld	a, -4 (ix)
    000029BE DD 77 F6         [19] 7587 	ld	-10 (ix), a
    000029C1 DD 7E FD         [19] 7588 	ld	a, -3 (ix)
    000029C4 DD 77 F7         [19] 7589 	ld	-9 (ix), a
                                   7590 ;E:\Dropbox\FAUSTO\SVILUPPI\MSX\CODE\C\MSXgl\projects\exsoccer/exsoccer_s2_b0.c:1484: i16 bounceDy = totalVectorY / 4; 
    000029C7 DD 7E FE         [19] 7591 	ld	a, -2 (ix)
    000029CA DD 77 FB         [19] 7592 	ld	-5 (ix), a
    000029CD DD 7E FF         [19] 7593 	ld	a, -1 (ix)
    000029D0 DD 77 FC         [19] 7594 	ld	-4 (ix), a
    000029D3 DD 7E FB         [19] 7595 	ld	a, -5 (ix)
    000029D6 DD 77 FE         [19] 7596 	ld	-2 (ix), a
    000029D9 DD 7E FC         [19] 7597 	ld	a, -4 (ix)
    000029DC DD 77 FF         [19] 7598 	ld	-1 (ix), a
    000029DF DD CB FC 7E      [20] 7599 	bit	7, -4 (ix)
    000029E3 28 10            [12] 7600 	jr	Z, 00204$
    000029E5 DD 7E FB         [19] 7601 	ld	a, -5 (ix)
    000029E8 C6 03            [ 7] 7602 	add	a, #0x03
    000029EA DD 77 FE         [19] 7603 	ld	-2 (ix), a
    000029ED DD 7E FC         [19] 7604 	ld	a, -4 (ix)
    000029F0 CE 00            [ 7] 7605 	adc	a, #0x00
    000029F2 DD 77 FF         [19] 7606 	ld	-1 (ix), a
    000029F5                       7607 00204$:
    000029F5 DD CB FF 2E      [23] 7608 	sra	-1 (ix)
    000029F9 DD CB FE 1E      [23] 7609 	rr	-2 (ix)
    000029FD DD CB FF 2E      [23] 7610 	sra	-1 (ix)
    00002A01 DD CB FE 1E      [23] 7611 	rr	-2 (ix)
    00002A05 DD 7E FE         [19] 7612 	ld	a, -2 (ix)
    00002A08 DD 77 F8         [19] 7613 	ld	-8 (ix), a
    00002A0B DD 7E FF         [19] 7614 	ld	a, -1 (ix)
    00002A0E DD 77 F9         [19] 7615 	ld	-7 (ix), a
                                   7616 ;E:\Dropbox\FAUSTO\SVILUPPI\MSX\CODE\C\MSXgl\projects\exsoccer/exsoccer_s2_b0.c:1487: i16 newTx = (i16)g_Ball.X + bounceDx;
    00002A11 21r02r00         [10] 7617 	ld	hl, #(_g_Ball + 2)
    00002A14 7E               [ 7] 7618 	ld	a, (hl)
    00002A15 DD 77 FE         [19] 7619 	ld	-2 (ix), a
    00002A18 23               [ 6] 7620 	inc	hl
    00002A19 7E               [ 7] 7621 	ld	a, (hl)
    00002A1A DD 77 FF         [19] 7622 	ld	-1 (ix), a
    00002A1D DD 7E FE         [19] 7623 	ld	a, -2 (ix)
    00002A20 DD 77 FC         [19] 7624 	ld	-4 (ix), a
    00002A23 DD 7E FF         [19] 7625 	ld	a, -1 (ix)
    00002A26 DD 77 FD         [19] 7626 	ld	-3 (ix), a
    00002A29 DD 7E F6         [19] 7627 	ld	a, -10 (ix)
    00002A2C DD 86 FC         [19] 7628 	add	a, -4 (ix)
    00002A2F DD 77 FE         [19] 7629 	ld	-2 (ix), a
    00002A32 DD 7E F7         [19] 7630 	ld	a, -9 (ix)
    00002A35 DD 8E FD         [19] 7631 	adc	a, -3 (ix)
    00002A38 DD 77 FF         [19] 7632 	ld	-1 (ix), a
    00002A3B DD 7E FE         [19] 7633 	ld	a, -2 (ix)
    00002A3E DD 77 FA         [19] 7634 	ld	-6 (ix), a
    00002A41 DD 7E FF         [19] 7635 	ld	a, -1 (ix)
    00002A44 DD 77 FB         [19] 7636 	ld	-5 (ix), a
                                   7637 ;E:\Dropbox\FAUSTO\SVILUPPI\MSX\CODE\C\MSXgl\projects\exsoccer/exsoccer_s2_b0.c:1488: i16 newTy = (i16)g_Ball.Y + bounceDy;
    00002A47 21r00r00         [10] 7638 	ld	hl, #_g_Ball
    00002A4A 7E               [ 7] 7639 	ld	a, (hl)
    00002A4B DD 77 FE         [19] 7640 	ld	-2 (ix), a
    00002A4E 23               [ 6] 7641 	inc	hl
    00002A4F 7E               [ 7] 7642 	ld	a, (hl)
    00002A50 DD 77 FF         [19] 7643 	ld	-1 (ix), a
    00002A53 DD 7E FE         [19] 7644 	ld	a, -2 (ix)
    00002A56 DD 77 FC         [19] 7645 	ld	-4 (ix), a
    00002A59 DD 7E FF         [19] 7646 	ld	a, -1 (ix)
    00002A5C DD 77 FD         [19] 7647 	ld	-3 (ix), a
    00002A5F DD 7E F8         [19] 7648 	ld	a, -8 (ix)
    00002A62 DD 86 FC         [19] 7649 	add	a, -4 (ix)
    00002A65 DD 77 FE         [19] 7650 	ld	-2 (ix), a
    00002A68 DD 7E F9         [19] 7651 	ld	a, -7 (ix)
    00002A6B DD 8E FD         [19] 7652 	adc	a, -3 (ix)
    00002A6E DD 77 FF         [19] 7653 	ld	-1 (ix), a
    00002A71 DD 7E FE         [19] 7654 	ld	a, -2 (ix)
    00002A74 DD 77 FC         [19] 7655 	ld	-4 (ix), a
    00002A77 DD 7E FF         [19] 7656 	ld	a, -1 (ix)
    00002A7A DD 77 FD         [19] 7657 	ld	-3 (ix), a
                                   7658 ;E:\Dropbox\FAUSTO\SVILUPPI\MSX\CODE\C\MSXgl\projects\exsoccer/exsoccer_s2_b0.c:1491: if (newTx < FIELD_BOUND_X_LEFT) newTx = FIELD_BOUND_X_LEFT;
    00002A7D DD 7E FA         [19] 7659 	ld	a, -6 (ix)
    00002A80 DD 77 FE         [19] 7660 	ld	-2 (ix), a
    00002A83 DD 7E FB         [19] 7661 	ld	a, -5 (ix)
    00002A86 DD 77 FF         [19] 7662 	ld	-1 (ix), a
    00002A89 DD 7E FE         [19] 7663 	ld	a, -2 (ix)
    00002A8C D6 0A            [ 7] 7664 	sub	a, #0x0a
    00002A8E DD 7E FF         [19] 7665 	ld	a, -1 (ix)
    00002A91 17               [ 4] 7666 	rla
    00002A92 3F               [ 4] 7667 	ccf
    00002A93 1F               [ 4] 7668 	rra
    00002A94 DE 80            [ 7] 7669 	sbc	a, #0x80
    00002A96 30 0B            [12] 7670 	jr	NC, 00128$
    00002A98 DD 36 FA 0A      [19] 7671 	ld	-6 (ix), #0x0a
    00002A9C DD 36 FB 00      [19] 7672 	ld	-5 (ix), #0
    00002AA0 C3rBDr2A         [10] 7673 	jp	00129$
    00002AA3                       7674 00128$:
                                   7675 ;E:\Dropbox\FAUSTO\SVILUPPI\MSX\CODE\C\MSXgl\projects\exsoccer/exsoccer_s2_b0.c:1492: else if (newTx > FIELD_BOUND_X_RIGHT) newTx = FIELD_BOUND_X_RIGHT;
    00002AA3 3E F6            [ 7] 7676 	ld	a, #0xf6
    00002AA5 DD BE FE         [19] 7677 	cp	a, -2 (ix)
    00002AA8 3E 00            [ 7] 7678 	ld	a, #0x00
    00002AAA DD 9E FF         [19] 7679 	sbc	a, -1 (ix)
    00002AAD E2rB2r2A         [10] 7680 	jp	PO, 00495$
    00002AB0 EE 80            [ 7] 7681 	xor	a, #0x80
    00002AB2                       7682 00495$:
    00002AB2 F2rBDr2A         [10] 7683 	jp	P, 00129$
    00002AB5 DD 36 FA F6      [19] 7684 	ld	-6 (ix), #0xf6
    00002AB9 DD 36 FB 00      [19] 7685 	ld	-5 (ix), #0
    00002ABD                       7686 00129$:
                                   7687 ;E:\Dropbox\FAUSTO\SVILUPPI\MSX\CODE\C\MSXgl\projects\exsoccer/exsoccer_s2_b0.c:1494: if (newTy < FIELD_BOUND_Y_TOP) newTy = FIELD_BOUND_Y_TOP;
    00002ABD DD 4E FC         [19] 7688 	ld	c, -4 (ix)
    00002AC0 DD 46 FD         [19] 7689 	ld	b, -3 (ix)
    00002AC3 79               [ 4] 7690 	ld	a, c
    00002AC4 D6 32            [ 7] 7691 	sub	a, #0x32
    00002AC6 78               [ 4] 7692 	ld	a, b
    00002AC7 17               [ 4] 7693 	rla
    00002AC8 3F               [ 4] 7694 	ccf
    00002AC9 1F               [ 4] 7695 	rra
    00002ACA DE 80            [ 7] 7696 	sbc	a, #0x80
    00002ACC 30 0B            [12] 7697 	jr	NC, 00133$
    00002ACE DD 36 FC 32      [19] 7698 	ld	-4 (ix), #0x32
    00002AD2 DD 36 FD 00      [19] 7699 	ld	-3 (ix), #0
    00002AD6 C3rEFr2A         [10] 7700 	jp	00134$
    00002AD9                       7701 00133$:
                                   7702 ;E:\Dropbox\FAUSTO\SVILUPPI\MSX\CODE\C\MSXgl\projects\exsoccer/exsoccer_s2_b0.c:1495: else if (newTy > FIELD_BOUND_Y_BOTTOM) newTy = FIELD_BOUND_Y_BOTTOM;
    00002AD9 3E AE            [ 7] 7703 	ld	a, #0xae
    00002ADB B9               [ 4] 7704 	cp	a, c
    00002ADC 3E 01            [ 7] 7705 	ld	a, #0x01
    00002ADE 98               [ 4] 7706 	sbc	a, b
    00002ADF E2rE4r2A         [10] 7707 	jp	PO, 00496$
    00002AE2 EE 80            [ 7] 7708 	xor	a, #0x80
    00002AE4                       7709 00496$:
    00002AE4 F2rEFr2A         [10] 7710 	jp	P, 00134$
    00002AE7 DD 36 FC AE      [19] 7711 	ld	-4 (ix), #0xae
    00002AEB DD 36 FD 01      [19] 7712 	ld	-3 (ix), #0x01
    00002AEF                       7713 00134$:
                                   7714 ;E:\Dropbox\FAUSTO\SVILUPPI\MSX\CODE\C\MSXgl\projects\exsoccer/exsoccer_s2_b0.c:1497: g_Ball.TargetX = newTx;
    00002AEF 21r17r00         [10] 7715 	ld	hl, #(_g_Ball + 23)
    00002AF2 DD 7E FA         [19] 7716 	ld	a, -6 (ix)
    00002AF5 77               [ 7] 7717 	ld	(hl), a
    00002AF6 23               [ 6] 7718 	inc	hl
    00002AF7 DD 7E FB         [19] 7719 	ld	a, -5 (ix)
    00002AFA 77               [ 7] 7720 	ld	(hl), a
                                   7721 ;E:\Dropbox\FAUSTO\SVILUPPI\MSX\CODE\C\MSXgl\projects\exsoccer/exsoccer_s2_b0.c:1498: g_Ball.TargetY = newTy;
    00002AFB 21r19r00         [10] 7722 	ld	hl, #(_g_Ball + 25)
    00002AFE DD 7E FC         [19] 7723 	ld	a, -4 (ix)
    00002B01 77               [ 7] 7724 	ld	(hl), a
    00002B02 23               [ 6] 7725 	inc	hl
    00002B03 DD 7E FD         [19] 7726 	ld	a, -3 (ix)
    00002B06 77               [ 7] 7727 	ld	(hl), a
                                   7728 ;E:\Dropbox\FAUSTO\SVILUPPI\MSX\CODE\C\MSXgl\projects\exsoccer/exsoccer_s2_b0.c:1501: g_Ball.PassTotalDist = (u16)(Math_Abs32(bounceDx) + Math_Abs32(bounceDy));
    00002B07 DD 5E F6         [19] 7729 	ld	e, -10 (ix)
    00002B0A DD 7E F7         [19] 7730 	ld	a, -9 (ix)
    00002B0D 57               [ 4] 7731 	ld	d, a
    00002B0E 07               [ 4] 7732 	rlca
    00002B0F ED 62            [15] 7733 	sbc	hl, hl
    00002B11 CDrE9r15         [17] 7734 	call	_Math_Abs32
    00002B14 E5               [11] 7735 	push	hl
    00002B15 FD E1            [14] 7736 	pop	iy
    00002B17 4B               [ 4] 7737 	ld	c, e
    00002B18 42               [ 4] 7738 	ld	b, d
    00002B19 DD 5E F8         [19] 7739 	ld	e, -8 (ix)
    00002B1C DD 7E F9         [19] 7740 	ld	a, -7 (ix)
    00002B1F 57               [ 4] 7741 	ld	d, a
    00002B20 07               [ 4] 7742 	rlca
    00002B21 ED 62            [15] 7743 	sbc	hl, hl
    00002B23 C5               [11] 7744 	push	bc
    00002B24 FD E5            [15] 7745 	push	iy
    00002B26 CDrE9r15         [17] 7746 	call	_Math_Abs32
    00002B29 FD E1            [14] 7747 	pop	iy
    00002B2B C1               [10] 7748 	pop	bc
    00002B2C EB               [ 4] 7749 	ex	de, hl
    00002B2D 09               [11] 7750 	add	hl, bc
    00002B2E EB               [ 4] 7751 	ex	de, hl
    00002B2F ED 53r15r00      [20] 7752 	ld	((_g_Ball + 21)), de
                                   7753 ;E:\Dropbox\FAUSTO\SVILUPPI\MSX\CODE\C\MSXgl\projects\exsoccer/exsoccer_s2_b0.c:1503: if (g_Ball.PassTotalDist > 5) {
    00002B33 3E 05            [ 7] 7754 	ld	a, #0x05
    00002B35 BB               [ 4] 7755 	cp	a, e
    00002B36 3E 00            [ 7] 7756 	ld	a, #0x00
    00002B38 9A               [ 4] 7757 	sbc	a, d
    00002B39 D2r15r2D         [10] 7758 	jp	NC, 00155$
                                   7759 ;E:\Dropbox\FAUSTO\SVILUPPI\MSX\CODE\C\MSXgl\projects\exsoccer/exsoccer_s2_b0.c:1504: g_Ball.ShotActive = 2; // Enter Bounce State
    00002B3C 21r1Br00         [10] 7760 	ld	hl, #(_g_Ball + 27)
    00002B3F 36 02            [10] 7761 	ld	(hl), #0x02
                                   7762 ;E:\Dropbox\FAUSTO\SVILUPPI\MSX\CODE\C\MSXgl\projects\exsoccer/exsoccer_s2_b0.c:1505: return; 
    00002B41 C3rEDr2F         [10] 7763 	jp	00198$
    00002B44                       7764 00154$:
                                   7765 ;E:\Dropbox\FAUSTO\SVILUPPI\MSX\CODE\C\MSXgl\projects\exsoccer/exsoccer_s2_b0.c:1508: } else if (g_Ball.ShotActive == 2) {
    00002B44 DD 7E EB         [19] 7766 	ld	a, -21 (ix)
    00002B47 D6 02            [ 7] 7767 	sub	a, #0x02
    00002B49 C2r15r2D         [10] 7768 	jp	NZ,00155$
                                   7769 ;E:\Dropbox\FAUSTO\SVILUPPI\MSX\CODE\C\MSXgl\projects\exsoccer/exsoccer_s2_b0.c:1512: i16 vecX = (i16)g_Ball.TargetX - (i16)g_Ball.PassStartX;
    00002B4C ED 4Br17r00      [20] 7770 	ld	bc, (#(_g_Ball + 23) + 0)
    00002B50 2Ar11r00         [16] 7771 	ld	hl, (#(_g_Ball + 17) + 0)
    00002B53 79               [ 4] 7772 	ld	a, c
    00002B54 95               [ 4] 7773 	sub	a, l
    00002B55 4F               [ 4] 7774 	ld	c, a
    00002B56 78               [ 4] 7775 	ld	a, b
    00002B57 9C               [ 4] 7776 	sbc	a, h
    00002B58 47               [ 4] 7777 	ld	b, a
                                   7778 ;E:\Dropbox\FAUSTO\SVILUPPI\MSX\CODE\C\MSXgl\projects\exsoccer/exsoccer_s2_b0.c:1513: i16 vecY = (i16)g_Ball.TargetY - (i16)g_Ball.PassStartY;
    00002B59 ED 5Br19r00      [20] 7779 	ld	de, (#(_g_Ball + 25) + 0)
    00002B5D 2Ar13r00         [16] 7780 	ld	hl, (#(_g_Ball + 19) + 0)
    00002B60 7B               [ 4] 7781 	ld	a, e
    00002B61 95               [ 4] 7782 	sub	a, l
    00002B62 5F               [ 4] 7783 	ld	e, a
    00002B63 7A               [ 4] 7784 	ld	a, d
    00002B64 9C               [ 4] 7785 	sbc	a, h
    00002B65 57               [ 4] 7786 	ld	d, a
    00002B66 DD 73 FE         [19] 7787 	ld	-2 (ix), e
    00002B69 DD 72 FF         [19] 7788 	ld	-1 (ix), d
                                   7789 ;E:\Dropbox\FAUSTO\SVILUPPI\MSX\CODE\C\MSXgl\projects\exsoccer/exsoccer_s2_b0.c:1515: g_Ball.PassStartX = g_Ball.X;
    00002B6C 21r11r00         [10] 7790 	ld	hl, #(_g_Ball + 17)
    00002B6F DD 7E EE         [19] 7791 	ld	a, -18 (ix)
    00002B72 77               [ 7] 7792 	ld	(hl), a
    00002B73 23               [ 6] 7793 	inc	hl
    00002B74 DD 7E EF         [19] 7794 	ld	a, -17 (ix)
    00002B77 77               [ 7] 7795 	ld	(hl), a
                                   7796 ;E:\Dropbox\FAUSTO\SVILUPPI\MSX\CODE\C\MSXgl\projects\exsoccer/exsoccer_s2_b0.c:1516: g_Ball.PassStartY = g_Ball.Y;
    00002B78 ED 5Br00r00      [20] 7797 	ld	de, (#_g_Ball + 0)
    00002B7C ED 53r13r00      [20] 7798 	ld	((_g_Ball + 19)), de
                                   7799 ;E:\Dropbox\FAUSTO\SVILUPPI\MSX\CODE\C\MSXgl\projects\exsoccer/exsoccer_s2_b0.c:1519: i16 rollDx = vecX / 4; 
    00002B80 59               [ 4] 7800 	ld	e, c
    00002B81 50               [ 4] 7801 	ld	d, b
    00002B82 CB 78            [ 8] 7802 	bit	7, b
    00002B84 28 05            [12] 7803 	jr	Z, 00205$
    00002B86 59               [ 4] 7804 	ld	e, c
    00002B87 50               [ 4] 7805 	ld	d, b
    00002B88 13               [ 6] 7806 	inc	de
    00002B89 13               [ 6] 7807 	inc	de
    00002B8A 13               [ 6] 7808 	inc	de
    00002B8B                       7809 00205$:
    00002B8B CB 2A            [ 8] 7810 	sra	d
    00002B8D CB 1B            [ 8] 7811 	rr	e
    00002B8F CB 2A            [ 8] 7812 	sra	d
    00002B91 CB 1B            [ 8] 7813 	rr	e
    00002B93 DD 73 F6         [19] 7814 	ld	-10 (ix), e
    00002B96 DD 72 F7         [19] 7815 	ld	-9 (ix), d
                                   7816 ;E:\Dropbox\FAUSTO\SVILUPPI\MSX\CODE\C\MSXgl\projects\exsoccer/exsoccer_s2_b0.c:1520: i16 rollDy = vecY / 4; 
    00002B99 DD 7E FE         [19] 7817 	ld	a, -2 (ix)
    00002B9C DD 77 FC         [19] 7818 	ld	-4 (ix), a
    00002B9F DD 7E FF         [19] 7819 	ld	a, -1 (ix)
    00002BA2 DD 77 FD         [19] 7820 	ld	-3 (ix), a
    00002BA5 DD 7E FC         [19] 7821 	ld	a, -4 (ix)
    00002BA8 DD 77 FE         [19] 7822 	ld	-2 (ix), a
    00002BAB DD 7E FD         [19] 7823 	ld	a, -3 (ix)
    00002BAE DD 77 FF         [19] 7824 	ld	-1 (ix), a
    00002BB1 DD CB FD 7E      [20] 7825 	bit	7, -3 (ix)
    00002BB5 28 10            [12] 7826 	jr	Z, 00206$
    00002BB7 DD 7E FC         [19] 7827 	ld	a, -4 (ix)
    00002BBA C6 03            [ 7] 7828 	add	a, #0x03
    00002BBC DD 77 FE         [19] 7829 	ld	-2 (ix), a
    00002BBF DD 7E FD         [19] 7830 	ld	a, -3 (ix)
    00002BC2 CE 00            [ 7] 7831 	adc	a, #0x00
    00002BC4 DD 77 FF         [19] 7832 	ld	-1 (ix), a
    00002BC7                       7833 00206$:
    00002BC7 DD CB FF 2E      [23] 7834 	sra	-1 (ix)
    00002BCB DD CB FE 1E      [23] 7835 	rr	-2 (ix)
    00002BCF DD CB FF 2E      [23] 7836 	sra	-1 (ix)
    00002BD3 DD CB FE 1E      [23] 7837 	rr	-2 (ix)
    00002BD7 DD 7E FE         [19] 7838 	ld	a, -2 (ix)
    00002BDA DD 77 F8         [19] 7839 	ld	-8 (ix), a
    00002BDD DD 7E FF         [19] 7840 	ld	a, -1 (ix)
    00002BE0 DD 77 F9         [19] 7841 	ld	-7 (ix), a
                                   7842 ;E:\Dropbox\FAUSTO\SVILUPPI\MSX\CODE\C\MSXgl\projects\exsoccer/exsoccer_s2_b0.c:1525: i16 rollTx = (i16)g_Ball.X + rollDx;
    00002BE3 21r02r00         [10] 7843 	ld	hl, #(_g_Ball + 2)
    00002BE6 7E               [ 7] 7844 	ld	a, (hl)
    00002BE7 DD 77 FE         [19] 7845 	ld	-2 (ix), a
    00002BEA 23               [ 6] 7846 	inc	hl
    00002BEB 7E               [ 7] 7847 	ld	a, (hl)
    00002BEC DD 77 FF         [19] 7848 	ld	-1 (ix), a
    00002BEF DD 7E FE         [19] 7849 	ld	a, -2 (ix)
    00002BF2 DD 77 FC         [19] 7850 	ld	-4 (ix), a
    00002BF5 DD 7E FF         [19] 7851 	ld	a, -1 (ix)
    00002BF8 DD 77 FD         [19] 7852 	ld	-3 (ix), a
    00002BFB DD 7E F6         [19] 7853 	ld	a, -10 (ix)
    00002BFE DD 86 FC         [19] 7854 	add	a, -4 (ix)
    00002C01 DD 77 FE         [19] 7855 	ld	-2 (ix), a
    00002C04 DD 7E F7         [19] 7856 	ld	a, -9 (ix)
    00002C07 DD 8E FD         [19] 7857 	adc	a, -3 (ix)
    00002C0A DD 77 FF         [19] 7858 	ld	-1 (ix), a
    00002C0D DD 7E FE         [19] 7859 	ld	a, -2 (ix)
    00002C10 DD 77 FA         [19] 7860 	ld	-6 (ix), a
    00002C13 DD 7E FF         [19] 7861 	ld	a, -1 (ix)
    00002C16 DD 77 FB         [19] 7862 	ld	-5 (ix), a
                                   7863 ;E:\Dropbox\FAUSTO\SVILUPPI\MSX\CODE\C\MSXgl\projects\exsoccer/exsoccer_s2_b0.c:1526: i16 rollTy = (i16)g_Ball.Y + rollDy;
    00002C19 21r00r00         [10] 7864 	ld	hl, #_g_Ball
    00002C1C 7E               [ 7] 7865 	ld	a, (hl)
    00002C1D DD 77 FE         [19] 7866 	ld	-2 (ix), a
    00002C20 23               [ 6] 7867 	inc	hl
    00002C21 7E               [ 7] 7868 	ld	a, (hl)
    00002C22 DD 77 FF         [19] 7869 	ld	-1 (ix), a
    00002C25 DD 7E FE         [19] 7870 	ld	a, -2 (ix)
    00002C28 DD 77 FC         [19] 7871 	ld	-4 (ix), a
    00002C2B DD 7E FF         [19] 7872 	ld	a, -1 (ix)
    00002C2E DD 77 FD         [19] 7873 	ld	-3 (ix), a
    00002C31 DD 7E F8         [19] 7874 	ld	a, -8 (ix)
    00002C34 DD 86 FC         [19] 7875 	add	a, -4 (ix)
    00002C37 DD 77 FE         [19] 7876 	ld	-2 (ix), a
    00002C3A DD 7E F9         [19] 7877 	ld	a, -7 (ix)
    00002C3D DD 8E FD         [19] 7878 	adc	a, -3 (ix)
    00002C40 DD 77 FF         [19] 7879 	ld	-1 (ix), a
    00002C43 DD 7E FE         [19] 7880 	ld	a, -2 (ix)
    00002C46 DD 77 FC         [19] 7881 	ld	-4 (ix), a
    00002C49 DD 7E FF         [19] 7882 	ld	a, -1 (ix)
    00002C4C DD 77 FD         [19] 7883 	ld	-3 (ix), a
                                   7884 ;E:\Dropbox\FAUSTO\SVILUPPI\MSX\CODE\C\MSXgl\projects\exsoccer/exsoccer_s2_b0.c:1529: if (rollTx < FIELD_BOUND_X_LEFT) rollTx = FIELD_BOUND_X_LEFT;
    00002C4F DD 7E FA         [19] 7885 	ld	a, -6 (ix)
    00002C52 DD 77 FE         [19] 7886 	ld	-2 (ix), a
    00002C55 DD 7E FB         [19] 7887 	ld	a, -5 (ix)
    00002C58 DD 77 FF         [19] 7888 	ld	-1 (ix), a
    00002C5B DD 7E FE         [19] 7889 	ld	a, -2 (ix)
    00002C5E D6 0A            [ 7] 7890 	sub	a, #0x0a
    00002C60 DD 7E FF         [19] 7891 	ld	a, -1 (ix)
    00002C63 17               [ 4] 7892 	rla
    00002C64 3F               [ 4] 7893 	ccf
    00002C65 1F               [ 4] 7894 	rra
    00002C66 DE 80            [ 7] 7895 	sbc	a, #0x80
    00002C68 30 0B            [12] 7896 	jr	NC, 00142$
    00002C6A DD 36 FA 0A      [19] 7897 	ld	-6 (ix), #0x0a
    00002C6E DD 36 FB 00      [19] 7898 	ld	-5 (ix), #0
    00002C72 C3r8Fr2C         [10] 7899 	jp	00143$
    00002C75                       7900 00142$:
                                   7901 ;E:\Dropbox\FAUSTO\SVILUPPI\MSX\CODE\C\MSXgl\projects\exsoccer/exsoccer_s2_b0.c:1530: else if (rollTx > FIELD_BOUND_X_RIGHT) rollTx = FIELD_BOUND_X_RIGHT;
    00002C75 3E F6            [ 7] 7902 	ld	a, #0xf6
    00002C77 DD BE FE         [19] 7903 	cp	a, -2 (ix)
    00002C7A 3E 00            [ 7] 7904 	ld	a, #0x00
    00002C7C DD 9E FF         [19] 7905 	sbc	a, -1 (ix)
    00002C7F E2r84r2C         [10] 7906 	jp	PO, 00499$
    00002C82 EE 80            [ 7] 7907 	xor	a, #0x80
    00002C84                       7908 00499$:
    00002C84 F2r8Fr2C         [10] 7909 	jp	P, 00143$
    00002C87 DD 36 FA F6      [19] 7910 	ld	-6 (ix), #0xf6
    00002C8B DD 36 FB 00      [19] 7911 	ld	-5 (ix), #0
    00002C8F                       7912 00143$:
                                   7913 ;E:\Dropbox\FAUSTO\SVILUPPI\MSX\CODE\C\MSXgl\projects\exsoccer/exsoccer_s2_b0.c:1531: if (rollTy < FIELD_BOUND_Y_TOP) rollTy = FIELD_BOUND_Y_TOP;
    00002C8F DD 4E FC         [19] 7914 	ld	c, -4 (ix)
    00002C92 DD 46 FD         [19] 7915 	ld	b, -3 (ix)
    00002C95 79               [ 4] 7916 	ld	a, c
    00002C96 D6 32            [ 7] 7917 	sub	a, #0x32
    00002C98 78               [ 4] 7918 	ld	a, b
    00002C99 17               [ 4] 7919 	rla
    00002C9A 3F               [ 4] 7920 	ccf
    00002C9B 1F               [ 4] 7921 	rra
    00002C9C DE 80            [ 7] 7922 	sbc	a, #0x80
    00002C9E 30 0B            [12] 7923 	jr	NC, 00147$
    00002CA0 DD 36 FC 32      [19] 7924 	ld	-4 (ix), #0x32
    00002CA4 DD 36 FD 00      [19] 7925 	ld	-3 (ix), #0
    00002CA8 C3rC1r2C         [10] 7926 	jp	00148$
    00002CAB                       7927 00147$:
                                   7928 ;E:\Dropbox\FAUSTO\SVILUPPI\MSX\CODE\C\MSXgl\projects\exsoccer/exsoccer_s2_b0.c:1532: else if (rollTy > FIELD_BOUND_Y_BOTTOM) rollTy = FIELD_BOUND_Y_BOTTOM;
    00002CAB 3E AE            [ 7] 7929 	ld	a, #0xae
    00002CAD B9               [ 4] 7930 	cp	a, c
    00002CAE 3E 01            [ 7] 7931 	ld	a, #0x01
    00002CB0 98               [ 4] 7932 	sbc	a, b
    00002CB1 E2rB6r2C         [10] 7933 	jp	PO, 00500$
    00002CB4 EE 80            [ 7] 7934 	xor	a, #0x80
    00002CB6                       7935 00500$:
    00002CB6 F2rC1r2C         [10] 7936 	jp	P, 00148$
    00002CB9 DD 36 FC AE      [19] 7937 	ld	-4 (ix), #0xae
    00002CBD DD 36 FD 01      [19] 7938 	ld	-3 (ix), #0x01
    00002CC1                       7939 00148$:
                                   7940 ;E:\Dropbox\FAUSTO\SVILUPPI\MSX\CODE\C\MSXgl\projects\exsoccer/exsoccer_s2_b0.c:1534: g_Ball.TargetX = rollTx;
    00002CC1 21r17r00         [10] 7941 	ld	hl, #(_g_Ball + 23)
    00002CC4 DD 7E FA         [19] 7942 	ld	a, -6 (ix)
    00002CC7 77               [ 7] 7943 	ld	(hl), a
    00002CC8 23               [ 6] 7944 	inc	hl
    00002CC9 DD 7E FB         [19] 7945 	ld	a, -5 (ix)
    00002CCC 77               [ 7] 7946 	ld	(hl), a
                                   7947 ;E:\Dropbox\FAUSTO\SVILUPPI\MSX\CODE\C\MSXgl\projects\exsoccer/exsoccer_s2_b0.c:1535: g_Ball.TargetY = rollTy;
    00002CCD 21r19r00         [10] 7948 	ld	hl, #(_g_Ball + 25)
    00002CD0 DD 7E FC         [19] 7949 	ld	a, -4 (ix)
    00002CD3 77               [ 7] 7950 	ld	(hl), a
    00002CD4 23               [ 6] 7951 	inc	hl
    00002CD5 DD 7E FD         [19] 7952 	ld	a, -3 (ix)
    00002CD8 77               [ 7] 7953 	ld	(hl), a
                                   7954 ;E:\Dropbox\FAUSTO\SVILUPPI\MSX\CODE\C\MSXgl\projects\exsoccer/exsoccer_s2_b0.c:1536: g_Ball.PassTotalDist = (u16)(Math_Abs32(rollDx) + Math_Abs32(rollDy));
    00002CD9 DD 5E F6         [19] 7955 	ld	e, -10 (ix)
    00002CDC DD 7E F7         [19] 7956 	ld	a, -9 (ix)
    00002CDF 57               [ 4] 7957 	ld	d, a
    00002CE0 07               [ 4] 7958 	rlca
    00002CE1 ED 62            [15] 7959 	sbc	hl, hl
    00002CE3 CDrE9r15         [17] 7960 	call	_Math_Abs32
    00002CE6 E5               [11] 7961 	push	hl
    00002CE7 FD E1            [14] 7962 	pop	iy
    00002CE9 4B               [ 4] 7963 	ld	c, e
    00002CEA 42               [ 4] 7964 	ld	b, d
    00002CEB DD 5E F8         [19] 7965 	ld	e, -8 (ix)
    00002CEE DD 7E F9         [19] 7966 	ld	a, -7 (ix)
    00002CF1 57               [ 4] 7967 	ld	d, a
    00002CF2 07               [ 4] 7968 	rlca
    00002CF3 ED 62            [15] 7969 	sbc	hl, hl
    00002CF5 C5               [11] 7970 	push	bc
    00002CF6 FD E5            [15] 7971 	push	iy
    00002CF8 CDrE9r15         [17] 7972 	call	_Math_Abs32
    00002CFB FD E1            [14] 7973 	pop	iy
    00002CFD C1               [10] 7974 	pop	bc
    00002CFE EB               [ 4] 7975 	ex	de, hl
    00002CFF 09               [11] 7976 	add	hl, bc
    00002D00 EB               [ 4] 7977 	ex	de, hl
    00002D01 ED 53r15r00      [20] 7978 	ld	((_g_Ball + 21)), de
                                   7979 ;E:\Dropbox\FAUSTO\SVILUPPI\MSX\CODE\C\MSXgl\projects\exsoccer/exsoccer_s2_b0.c:1538: if (g_Ball.PassTotalDist > 2) {
    00002D05 3E 02            [ 7] 7980 	ld	a, #0x02
    00002D07 BB               [ 4] 7981 	cp	a, e
    00002D08 3E 00            [ 7] 7982 	ld	a, #0x00
    00002D0A 9A               [ 4] 7983 	sbc	a, d
    00002D0B 30 08            [12] 7984 	jr	NC, 00155$
                                   7985 ;E:\Dropbox\FAUSTO\SVILUPPI\MSX\CODE\C\MSXgl\projects\exsoccer/exsoccer_s2_b0.c:1539: g_Ball.ShotActive = 3; // ROLLING
    00002D0D 21r1Br00         [10] 7986 	ld	hl, #(_g_Ball + 27)
    00002D10 36 03            [10] 7987 	ld	(hl), #0x03
                                   7988 ;E:\Dropbox\FAUSTO\SVILUPPI\MSX\CODE\C\MSXgl\projects\exsoccer/exsoccer_s2_b0.c:1540: return;
    00002D12 C3rEDr2F         [10] 7989 	jp	00198$
    00002D15                       7990 00155$:
                                   7991 ;E:\Dropbox\FAUSTO\SVILUPPI\MSX\CODE\C\MSXgl\projects\exsoccer/exsoccer_s2_b0.c:1545: g_Ball.ShotActive = 0;
    00002D15 21r1Br00         [10] 7992 	ld	hl, #(_g_Ball + 27)
    00002D18 36 00            [10] 7993 	ld	(hl), #0x00
                                   7994 ;E:\Dropbox\FAUSTO\SVILUPPI\MSX\CODE\C\MSXgl\projects\exsoccer/exsoccer_s2_b0.c:1546: g_Ball.PassTargetPlayerId = NO_VALUE;
    00002D1A 21r10r00         [10] 7995 	ld	hl, #(_g_Ball + 16)
    00002D1D 36 FF            [10] 7996 	ld	(hl), #0xff
                                   7997 ;E:\Dropbox\FAUSTO\SVILUPPI\MSX\CODE\C\MSXgl\projects\exsoccer/exsoccer_s2_b0.c:1547: g_Ball.PossessionPlayerId = NO_VALUE;
    00002D1F 21r06r00         [10] 7998 	ld	hl, #(_g_Ball + 6)
    00002D22 36 FF            [10] 7999 	ld	(hl), #0xff
                                   8000 ;E:\Dropbox\FAUSTO\SVILUPPI\MSX\CODE\C\MSXgl\projects\exsoccer/exsoccer_s2_b0.c:1548: g_Ball.Size = 1;
    00002D24 21r04r00         [10] 8001 	ld	hl, #(_g_Ball + 4)
    00002D27 36 01            [10] 8002 	ld	(hl), #0x01
                                   8003 ;E:\Dropbox\FAUSTO\SVILUPPI\MSX\CODE\C\MSXgl\projects\exsoccer/exsoccer_s2_b0.c:1550: return;
    00002D29 C3rEDr2F         [10] 8004 	jp	00198$
    00002D2C                       8005 00160$:
                                   8006 ;E:\Dropbox\FAUSTO\SVILUPPI\MSX\CODE\C\MSXgl\projects\exsoccer/exsoccer_s2_b0.c:1555: if (Math_Abs32(dx) > Math_Abs32(dy)) {
    00002D2C DD 7E F0         [19] 8007 	ld	a, -16 (ix)
    00002D2F DD 77 E8         [19] 8008 	ld	-24 (ix), a
    00002D32 DD 7E F1         [19] 8009 	ld	a, -15 (ix)
    00002D35 DD 77 E9         [19] 8010 	ld	-23 (ix), a
    00002D38 07               [ 4] 8011 	rlca
    00002D39 9F               [ 4] 8012 	sbc	a, a
    00002D3A DD 77 EA         [19] 8013 	ld	-22 (ix), a
    00002D3D DD 77 EB         [19] 8014 	ld	-21 (ix), a
    00002D40 D1               [10] 8015 	pop	de
    00002D41 D5               [11] 8016 	push	de
    00002D42 DD 6E EA         [19] 8017 	ld	l, -22 (ix)
                                   8018 ;	spillPairReg hl
                                   8019 ;	spillPairReg hl
    00002D45 DD 66 EB         [19] 8020 	ld	h, -21 (ix)
                                   8021 ;	spillPairReg hl
                                   8022 ;	spillPairReg hl
    00002D48 CDrE9r15         [17] 8023 	call	_Math_Abs32
    00002D4B 4B               [ 4] 8024 	ld	c, e
    00002D4C 42               [ 4] 8025 	ld	b, d
    00002D4D DD 7E F2         [19] 8026 	ld	a, -14 (ix)
    00002D50 DD 77 EC         [19] 8027 	ld	-20 (ix), a
    00002D53 DD 7E F3         [19] 8028 	ld	a, -13 (ix)
    00002D56 DD 77 ED         [19] 8029 	ld	-19 (ix), a
    00002D59 07               [ 4] 8030 	rlca
    00002D5A 9F               [ 4] 8031 	sbc	a, a
    00002D5B DD 77 EE         [19] 8032 	ld	-18 (ix), a
    00002D5E DD 77 EF         [19] 8033 	ld	-17 (ix), a
    00002D61 E5               [11] 8034 	push	hl
    00002D62 C5               [11] 8035 	push	bc
    00002D63 DD 5E EC         [19] 8036 	ld	e, -20 (ix)
    00002D66 DD 56 ED         [19] 8037 	ld	d, -19 (ix)
    00002D69 DD 6E EE         [19] 8038 	ld	l, -18 (ix)
                                   8039 ;	spillPairReg hl
                                   8040 ;	spillPairReg hl
    00002D6C DD 66 EF         [19] 8041 	ld	h, -17 (ix)
                                   8042 ;	spillPairReg hl
                                   8043 ;	spillPairReg hl
    00002D6F CDrE9r15         [17] 8044 	call	_Math_Abs32
    00002D72 DD 73 FC         [19] 8045 	ld	-4 (ix), e
    00002D75 DD 72 FD         [19] 8046 	ld	-3 (ix), d
    00002D78 DD 75 FE         [19] 8047 	ld	-2 (ix), l
    00002D7B DD 74 FF         [19] 8048 	ld	-1 (ix), h
    00002D7E C1               [10] 8049 	pop	bc
    00002D7F E1               [10] 8050 	pop	hl
    00002D80 DD 7E FC         [19] 8051 	ld	a, -4 (ix)
    00002D83 91               [ 4] 8052 	sub	a, c
    00002D84 DD 7E FD         [19] 8053 	ld	a, -3 (ix)
    00002D87 98               [ 4] 8054 	sbc	a, b
    00002D88 DD 7E FE         [19] 8055 	ld	a, -2 (ix)
    00002D8B 9D               [ 4] 8056 	sbc	a, l
    00002D8C DD 7E FF         [19] 8057 	ld	a, -1 (ix)
    00002D8F 9C               [ 4] 8058 	sbc	a, h
    00002D90 E2r95r2D         [10] 8059 	jp	PO, 00501$
    00002D93 EE 80            [ 7] 8060 	xor	a, #0x80
    00002D95                       8061 00501$:
    00002D95 F2r21r2E         [10] 8062 	jp	P, 00169$
                                   8063 ;E:\Dropbox\FAUSTO\SVILUPPI\MSX\CODE\C\MSXgl\projects\exsoccer/exsoccer_s2_b0.c:1556: g_Ball.X += (dx > 0 ? speed : -speed);
    00002D98 ED 4Br02r00      [20] 8064 	ld	bc, (#(_g_Ball + 2) + 0)
    00002D9C AF               [ 4] 8065 	xor	a, a
    00002D9D DD BE FA         [19] 8066 	cp	a, -6 (ix)
    00002DA0 DD 9E FB         [19] 8067 	sbc	a, -5 (ix)
    00002DA3 E2rA8r2D         [10] 8068 	jp	PO, 00502$
    00002DA6 EE 80            [ 7] 8069 	xor	a, #0x80
    00002DA8                       8070 00502$:
    00002DA8 F2rB4r2D         [10] 8071 	jp	P, 00207$
    00002DAB DD 5E F6         [19] 8072 	ld	e, -10 (ix)
    00002DAE DD 56 F7         [19] 8073 	ld	d, -9 (ix)
    00002DB1 C3rBAr2D         [10] 8074 	jp	00208$
    00002DB4                       8075 00207$:
    00002DB4 DD 5E F8         [19] 8076 	ld	e, -8 (ix)
    00002DB7 DD 56 F9         [19] 8077 	ld	d, -7 (ix)
    00002DBA                       8078 00208$:
    00002DBA EB               [ 4] 8079 	ex	de, hl
    00002DBB 09               [11] 8080 	add	hl, bc
    00002DBC EB               [ 4] 8081 	ex	de, hl
    00002DBD ED 53r02r00      [20] 8082 	ld	((_g_Ball + 2)), de
                                   8083 ;E:\Dropbox\FAUSTO\SVILUPPI\MSX\CODE\C\MSXgl\projects\exsoccer/exsoccer_s2_b0.c:1557: if (dx != 0) g_Ball.Y += (dy * speed) / Math_Abs32(dx);
    00002DC1 DD 7E F1         [19] 8084 	ld	a, -15 (ix)
    00002DC4 DD B6 F0         [19] 8085 	or	a, -16 (ix)
    00002DC7 CArBAr2E         [10] 8086 	jp	Z, 00170$
    00002DCA ED 4Br00r00      [20] 8087 	ld	bc, (#_g_Ball + 0)
    00002DCE DD 5E F4         [19] 8088 	ld	e, -12 (ix)
    00002DD1 16 00            [ 7] 8089 	ld	d, #0x00
    00002DD3 C5               [11] 8090 	push	bc
    00002DD4 DD 6E F2         [19] 8091 	ld	l, -14 (ix)
                                   8092 ;	spillPairReg hl
                                   8093 ;	spillPairReg hl
    00002DD7 DD 66 F3         [19] 8094 	ld	h, -13 (ix)
                                   8095 ;	spillPairReg hl
                                   8096 ;	spillPairReg hl
    00002DDA CDr00r00         [17] 8097 	call	__mulint
    00002DDD D5               [11] 8098 	push	de
    00002DDE DD 5E E8         [19] 8099 	ld	e, -24 (ix)
    00002DE1 DD 56 E9         [19] 8100 	ld	d, -23 (ix)
    00002DE4 DD 6E EA         [19] 8101 	ld	l, -22 (ix)
                                   8102 ;	spillPairReg hl
                                   8103 ;	spillPairReg hl
    00002DE7 DD 66 EB         [19] 8104 	ld	h, -21 (ix)
                                   8105 ;	spillPairReg hl
                                   8106 ;	spillPairReg hl
    00002DEA CDrE9r15         [17] 8107 	call	_Math_Abs32
    00002DED D5               [11] 8108 	push	de
    00002DEE FD E1            [14] 8109 	pop	iy
    00002DF0 D1               [10] 8110 	pop	de
    00002DF1 C1               [10] 8111 	pop	bc
    00002DF2 DD 73 FC         [19] 8112 	ld	-4 (ix), e
    00002DF5 7A               [ 4] 8113 	ld	a, d
    00002DF6 DD 77 FD         [19] 8114 	ld	-3 (ix), a
    00002DF9 07               [ 4] 8115 	rlca
    00002DFA 9F               [ 4] 8116 	sbc	a, a
    00002DFB DD 77 FE         [19] 8117 	ld	-2 (ix), a
    00002DFE DD 77 FF         [19] 8118 	ld	-1 (ix), a
    00002E01 C5               [11] 8119 	push	bc
    00002E02 E5               [11] 8120 	push	hl
    00002E03 FD E5            [15] 8121 	push	iy
    00002E05 DD 5E FC         [19] 8122 	ld	e, -4 (ix)
    00002E08 DD 56 FD         [19] 8123 	ld	d, -3 (ix)
    00002E0B DD 6E FE         [19] 8124 	ld	l, -2 (ix)
                                   8125 ;	spillPairReg hl
                                   8126 ;	spillPairReg hl
    00002E0E DD 66 FF         [19] 8127 	ld	h, -1 (ix)
                                   8128 ;	spillPairReg hl
                                   8129 ;	spillPairReg hl
    00002E11 CDr00r00         [17] 8130 	call	__divslong
    00002E14 F1               [10] 8131 	pop	af
    00002E15 F1               [10] 8132 	pop	af
    00002E16 C1               [10] 8133 	pop	bc
    00002E17 EB               [ 4] 8134 	ex	de, hl
    00002E18 09               [11] 8135 	add	hl, bc
    00002E19 EB               [ 4] 8136 	ex	de, hl
    00002E1A ED 53r00r00      [20] 8137 	ld	(_g_Ball), de
    00002E1E C3rBAr2E         [10] 8138 	jp	00170$
    00002E21                       8139 00169$:
                                   8140 ;E:\Dropbox\FAUSTO\SVILUPPI\MSX\CODE\C\MSXgl\projects\exsoccer/exsoccer_s2_b0.c:1559: g_Ball.Y += (dy > 0 ? speed : -speed);
    00002E21 11r00r00         [10] 8141 	ld	de, #_g_Ball
    00002E24 21r00r00         [10] 8142 	ld	hl, #_g_Ball
    00002E27 7E               [ 7] 8143 	ld	a, (hl)
    00002E28 DD 77 FE         [19] 8144 	ld	-2 (ix), a
    00002E2B 23               [ 6] 8145 	inc	hl
    00002E2C 7E               [ 7] 8146 	ld	a, (hl)
    00002E2D DD 77 FF         [19] 8147 	ld	-1 (ix), a
    00002E30 DD 4E F2         [19] 8148 	ld	c, -14 (ix)
    00002E33 DD 46 F3         [19] 8149 	ld	b, -13 (ix)
    00002E36 AF               [ 4] 8150 	xor	a, a
    00002E37 B9               [ 4] 8151 	cp	a, c
    00002E38 98               [ 4] 8152 	sbc	a, b
    00002E39 E2r3Er2E         [10] 8153 	jp	PO, 00503$
    00002E3C EE 80            [ 7] 8154 	xor	a, #0x80
    00002E3E                       8155 00503$:
    00002E3E F2r4Ar2E         [10] 8156 	jp	P, 00209$
    00002E41 DD 6E F6         [19] 8157 	ld	l, -10 (ix)
                                   8158 ;	spillPairReg hl
                                   8159 ;	spillPairReg hl
    00002E44 DD 66 F7         [19] 8160 	ld	h, -9 (ix)
                                   8161 ;	spillPairReg hl
                                   8162 ;	spillPairReg hl
    00002E47 C3r50r2E         [10] 8163 	jp	00210$
    00002E4A                       8164 00209$:
    00002E4A DD 6E F8         [19] 8165 	ld	l, -8 (ix)
                                   8166 ;	spillPairReg hl
                                   8167 ;	spillPairReg hl
    00002E4D DD 66 F9         [19] 8168 	ld	h, -7 (ix)
                                   8169 ;	spillPairReg hl
                                   8170 ;	spillPairReg hl
    00002E50                       8171 00210$:
    00002E50 DD 4E FE         [19] 8172 	ld	c, -2 (ix)
    00002E53 DD 46 FF         [19] 8173 	ld	b, -1 (ix)
    00002E56 09               [11] 8174 	add	hl, bc
    00002E57 4D               [ 4] 8175 	ld	c, l
    00002E58 44               [ 4] 8176 	ld	b, h
    00002E59 79               [ 4] 8177 	ld	a, c
    00002E5A 12               [ 7] 8178 	ld	(de), a
    00002E5B 13               [ 6] 8179 	inc	de
    00002E5C 78               [ 4] 8180 	ld	a, b
    00002E5D 12               [ 7] 8181 	ld	(de), a
                                   8182 ;E:\Dropbox\FAUSTO\SVILUPPI\MSX\CODE\C\MSXgl\projects\exsoccer/exsoccer_s2_b0.c:1560: if (dy != 0) g_Ball.X += (dx * speed) / Math_Abs32(dy);
    00002E5E DD 7E F3         [19] 8183 	ld	a, -13 (ix)
    00002E61 DD B6 F2         [19] 8184 	or	a, -14 (ix)
    00002E64 28 54            [12] 8185 	jr	Z, 00170$
    00002E66 ED 4Br02r00      [20] 8186 	ld	bc, (#(_g_Ball + 2) + 0)
    00002E6A DD 5E F4         [19] 8187 	ld	e, -12 (ix)
    00002E6D 16 00            [ 7] 8188 	ld	d, #0x00
    00002E6F C5               [11] 8189 	push	bc
    00002E70 DD 6E F0         [19] 8190 	ld	l, -16 (ix)
                                   8191 ;	spillPairReg hl
                                   8192 ;	spillPairReg hl
    00002E73 DD 66 F1         [19] 8193 	ld	h, -15 (ix)
                                   8194 ;	spillPairReg hl
                                   8195 ;	spillPairReg hl
    00002E76 CDr00r00         [17] 8196 	call	__mulint
    00002E79 D5               [11] 8197 	push	de
    00002E7A DD 5E EC         [19] 8198 	ld	e, -20 (ix)
    00002E7D DD 56 ED         [19] 8199 	ld	d, -19 (ix)
    00002E80 DD 6E EE         [19] 8200 	ld	l, -18 (ix)
                                   8201 ;	spillPairReg hl
                                   8202 ;	spillPairReg hl
    00002E83 DD 66 EF         [19] 8203 	ld	h, -17 (ix)
                                   8204 ;	spillPairReg hl
                                   8205 ;	spillPairReg hl
    00002E86 CDrE9r15         [17] 8206 	call	_Math_Abs32
    00002E89 D5               [11] 8207 	push	de
    00002E8A FD E1            [14] 8208 	pop	iy
    00002E8C D1               [10] 8209 	pop	de
    00002E8D C1               [10] 8210 	pop	bc
    00002E8E DD 73 FC         [19] 8211 	ld	-4 (ix), e
    00002E91 7A               [ 4] 8212 	ld	a, d
    00002E92 DD 77 FD         [19] 8213 	ld	-3 (ix), a
    00002E95 07               [ 4] 8214 	rlca
    00002E96 9F               [ 4] 8215 	sbc	a, a
    00002E97 DD 77 FE         [19] 8216 	ld	-2 (ix), a
    00002E9A DD 77 FF         [19] 8217 	ld	-1 (ix), a
    00002E9D C5               [11] 8218 	push	bc
    00002E9E E5               [11] 8219 	push	hl
    00002E9F FD E5            [15] 8220 	push	iy
    00002EA1 DD 5E FC         [19] 8221 	ld	e, -4 (ix)
    00002EA4 DD 56 FD         [19] 8222 	ld	d, -3 (ix)
    00002EA7 DD 6E FE         [19] 8223 	ld	l, -2 (ix)
                                   8224 ;	spillPairReg hl
                                   8225 ;	spillPairReg hl
    00002EAA DD 66 FF         [19] 8226 	ld	h, -1 (ix)
                                   8227 ;	spillPairReg hl
                                   8228 ;	spillPairReg hl
    00002EAD CDr00r00         [17] 8229 	call	__divslong
    00002EB0 F1               [10] 8230 	pop	af
    00002EB1 F1               [10] 8231 	pop	af
    00002EB2 C1               [10] 8232 	pop	bc
    00002EB3 EB               [ 4] 8233 	ex	de, hl
    00002EB4 09               [11] 8234 	add	hl, bc
    00002EB5 EB               [ 4] 8235 	ex	de, hl
    00002EB6 ED 53r02r00      [20] 8236 	ld	((_g_Ball + 2)), de
    00002EBA                       8237 00170$:
                                   8238 ;E:\Dropbox\FAUSTO\SVILUPPI\MSX\CODE\C\MSXgl\projects\exsoccer/exsoccer_s2_b0.c:1564: i16 diffStartX = (i16)g_Ball.X - (i16)g_Ball.PassStartX;
    00002EBA ED 4Br02r00      [20] 8239 	ld	bc, (#(_g_Ball + 2) + 0)
    00002EBE 2Ar11r00         [16] 8240 	ld	hl, (#_g_Ball + 17)
    00002EC1 79               [ 4] 8241 	ld	a, c
    00002EC2 95               [ 4] 8242 	sub	a, l
    00002EC3 4F               [ 4] 8243 	ld	c, a
    00002EC4 78               [ 4] 8244 	ld	a, b
    00002EC5 9C               [ 4] 8245 	sbc	a, h
    00002EC6 47               [ 4] 8246 	ld	b, a
                                   8247 ;E:\Dropbox\FAUSTO\SVILUPPI\MSX\CODE\C\MSXgl\projects\exsoccer/exsoccer_s2_b0.c:1565: i16 diffStartY = (i16)g_Ball.Y - (i16)g_Ball.PassStartY;
    00002EC7 ED 5Br00r00      [20] 8248 	ld	de, (#_g_Ball + 0)
    00002ECB 2Ar13r00         [16] 8249 	ld	hl, (#_g_Ball + 19)
    00002ECE 7B               [ 4] 8250 	ld	a, e
    00002ECF 95               [ 4] 8251 	sub	a, l
    00002ED0 5F               [ 4] 8252 	ld	e, a
    00002ED1 7A               [ 4] 8253 	ld	a, d
    00002ED2 9C               [ 4] 8254 	sbc	a, h
    00002ED3 57               [ 4] 8255 	ld	d, a
                                   8256 ;E:\Dropbox\FAUSTO\SVILUPPI\MSX\CODE\C\MSXgl\projects\exsoccer/exsoccer_s2_b0.c:1566: u16 distCovered = (u16)(Math_Abs32(diffStartX) + Math_Abs32(diffStartY));
    00002ED4 78               [ 4] 8257 	ld	a, b
    00002ED5 07               [ 4] 8258 	rlca
    00002ED6 ED 62            [15] 8259 	sbc	hl, hl
    00002ED8 D5               [11] 8260 	push	de
    00002ED9 59               [ 4] 8261 	ld	e, c
    00002EDA 50               [ 4] 8262 	ld	d, b
    00002EDB CDrE9r15         [17] 8263 	call	_Math_Abs32
    00002EDE E5               [11] 8264 	push	hl
    00002EDF FD E1            [14] 8265 	pop	iy
    00002EE1 4B               [ 4] 8266 	ld	c, e
    00002EE2 42               [ 4] 8267 	ld	b, d
    00002EE3 D1               [10] 8268 	pop	de
    00002EE4 7A               [ 4] 8269 	ld	a, d
    00002EE5 07               [ 4] 8270 	rlca
    00002EE6 ED 62            [15] 8271 	sbc	hl, hl
    00002EE8 C5               [11] 8272 	push	bc
    00002EE9 FD E5            [15] 8273 	push	iy
    00002EEB CDrE9r15         [17] 8274 	call	_Math_Abs32
    00002EEE FD E1            [14] 8275 	pop	iy
    00002EF0 C1               [10] 8276 	pop	bc
    00002EF1 EB               [ 4] 8277 	ex	de, hl
    00002EF2 09               [11] 8278 	add	hl, bc
    00002EF3 4D               [ 4] 8279 	ld	c, l
    00002EF4 44               [ 4] 8280 	ld	b, h
                                   8281 ;E:\Dropbox\FAUSTO\SVILUPPI\MSX\CODE\C\MSXgl\projects\exsoccer/exsoccer_s2_b0.c:1568: u16 totalDist = g_Ball.PassTotalDist;
    00002EF5 21r15r00         [10] 8282 	ld	hl, #_g_Ball + 21
    00002EF8 7E               [ 7] 8283 	ld	a, (hl)
    00002EF9 DD 77 FA         [19] 8284 	ld	-6 (ix), a
    00002EFC 23               [ 6] 8285 	inc	hl
    00002EFD 7E               [ 7] 8286 	ld	a, (hl)
                                   8287 ;E:\Dropbox\FAUSTO\SVILUPPI\MSX\CODE\C\MSXgl\projects\exsoccer/exsoccer_s2_b0.c:1569: if (totalDist == 0) totalDist = 1; // Safety
    00002EFE DD 77 FB         [19] 8288 	ld	-5 (ix), a
    00002F01 DD B6 FA         [19] 8289 	or	a, -6 (ix)
    00002F04 20 08            [12] 8290 	jr	NZ, 00172$
    00002F06 DD 36 FA 01      [19] 8291 	ld	-6 (ix), #0x01
    00002F0A DD 36 FB 00      [19] 8292 	ld	-5 (ix), #0
    00002F0E                       8293 00172$:
                                   8294 ;E:\Dropbox\FAUSTO\SVILUPPI\MSX\CODE\C\MSXgl\projects\exsoccer/exsoccer_s2_b0.c:1439: i16 dx = tx - (i16)g_Ball.X;
    00002F0E ED 5Br02r00      [20] 8295 	ld	de, (#(_g_Ball + 2) + 0)
                                   8296 ;E:\Dropbox\FAUSTO\SVILUPPI\MSX\CODE\C\MSXgl\projects\exsoccer/exsoccer_s2_b0.c:1440: i16 dy = ty - (i16)g_Ball.Y;
    00002F12 21r00r00         [10] 8297 	ld	hl, #_g_Ball
    00002F15 7E               [ 7] 8298 	ld	a, (hl)
    00002F16 DD 77 FC         [19] 8299 	ld	-4 (ix), a
    00002F19 23               [ 6] 8300 	inc	hl
    00002F1A 7E               [ 7] 8301 	ld	a, (hl)
    00002F1B DD 77 FD         [19] 8302 	ld	-3 (ix), a
                                   8303 ;E:\Dropbox\FAUSTO\SVILUPPI\MSX\CODE\C\MSXgl\projects\exsoccer/exsoccer_s2_b0.c:1572: if (g_Ball.X == 0 || g_Ball.X > 255 || g_Ball.Y == 0 || g_Ball.Y > 211) {
    00002F1E DD 7E FC         [19] 8304 	ld	a, -4 (ix)
    00002F21 DD 77 FE         [19] 8305 	ld	-2 (ix), a
    00002F24 DD 7E FD         [19] 8306 	ld	a, -3 (ix)
    00002F27 DD 77 FF         [19] 8307 	ld	-1 (ix), a
    00002F2A 7A               [ 4] 8308 	ld	a, d
    00002F2B B3               [ 4] 8309 	or	a, e
    00002F2C 28 1D            [12] 8310 	jr	Z, 00174$
    00002F2E 3E FF            [ 7] 8311 	ld	a, #0xff
    00002F30 BB               [ 4] 8312 	cp	a, e
    00002F31 3E 00            [ 7] 8313 	ld	a, #0x00
    00002F33 9A               [ 4] 8314 	sbc	a, d
    00002F34 38 15            [12] 8315 	jr	C, 00174$
    00002F36 DD 7E FD         [19] 8316 	ld	a, -3 (ix)
    00002F39 DD B6 FC         [19] 8317 	or	a, -4 (ix)
    00002F3C 28 0D            [12] 8318 	jr	Z, 00174$
    00002F3E 3E D3            [ 7] 8319 	ld	a, #0xd3
    00002F40 DD BE FE         [19] 8320 	cp	a, -2 (ix)
    00002F43 3E 00            [ 7] 8321 	ld	a, #0x00
    00002F45 DD 9E FF         [19] 8322 	sbc	a, -1 (ix)
    00002F48 3E 00            [ 7] 8323 	ld	a, #0x00
    00002F4A 17               [ 4] 8324 	rla
                                   8325 ;E:\Dropbox\FAUSTO\SVILUPPI\MSX\CODE\C\MSXgl\projects\exsoccer/exsoccer_s2_b0.c:1575: if(g_Ball.Y > 230 || g_Ball.Y < 20) {
    00002F4B                       8326 00174$:
                                   8327 ;E:\Dropbox\FAUSTO\SVILUPPI\MSX\CODE\C\MSXgl\projects\exsoccer/exsoccer_s2_b0.c:1581: if (g_Ball.ShotActive == 2) {
    00002F4B 21r1Br00         [10] 8328 	ld	hl, #(_g_Ball + 27)
    00002F4E 5E               [ 7] 8329 	ld	e, (hl)
                                   8330 ;E:\Dropbox\FAUSTO\SVILUPPI\MSX\CODE\C\MSXgl\projects\exsoccer/exsoccer_s2_b0.c:1458: g_Ball.Size = 1;
                                   8331 ;E:\Dropbox\FAUSTO\SVILUPPI\MSX\CODE\C\MSXgl\projects\exsoccer/exsoccer_s2_b0.c:1581: if (g_Ball.ShotActive == 2) {
    00002F4F 7B               [ 4] 8332 	ld	a, e
    00002F50 D6 02            [ 7] 8333 	sub	a, #0x02
    00002F52 20 33            [12] 8334 	jr	NZ, 00196$
                                   8335 ;E:\Dropbox\FAUSTO\SVILUPPI\MSX\CODE\C\MSXgl\projects\exsoccer/exsoccer_s2_b0.c:1583: u16 ratio = (distCovered * 100) / totalDist;
    00002F54 69               [ 4] 8336 	ld	l, c
    00002F55 60               [ 4] 8337 	ld	h, b
    00002F56 29               [11] 8338 	add	hl, hl
    00002F57 09               [11] 8339 	add	hl, bc
    00002F58 29               [11] 8340 	add	hl, hl
    00002F59 29               [11] 8341 	add	hl, hl
    00002F5A 29               [11] 8342 	add	hl, hl
    00002F5B 09               [11] 8343 	add	hl, bc
    00002F5C 29               [11] 8344 	add	hl, hl
    00002F5D 29               [11] 8345 	add	hl, hl
    00002F5E DD 5E FA         [19] 8346 	ld	e, -6 (ix)
    00002F61 DD 56 FB         [19] 8347 	ld	d, -5 (ix)
    00002F64 CDr00r00         [17] 8348 	call	__divuint
                                   8349 ;E:\Dropbox\FAUSTO\SVILUPPI\MSX\CODE\C\MSXgl\projects\exsoccer/exsoccer_s2_b0.c:1584: if (ratio < 20 || ratio > 80) g_Ball.Size = 2;
    00002F67 7B               [ 4] 8350 	ld	a, e
    00002F68 D6 14            [ 7] 8351 	sub	a, #0x14
    00002F6A 7A               [ 4] 8352 	ld	a, d
    00002F6B DE 00            [ 7] 8353 	sbc	a, #0x00
    00002F6D 38 08            [12] 8354 	jr	C, 00178$
    00002F6F 3E 50            [ 7] 8355 	ld	a, #0x50
    00002F71 BB               [ 4] 8356 	cp	a, e
    00002F72 3E 00            [ 7] 8357 	ld	a, #0x00
    00002F74 9A               [ 4] 8358 	sbc	a, d
    00002F75 30 08            [12] 8359 	jr	NC, 00179$
    00002F77                       8360 00178$:
    00002F77 21r04r00         [10] 8361 	ld	hl, #(_g_Ball + 4)
    00002F7A 36 02            [10] 8362 	ld	(hl), #0x02
    00002F7C C3rE5r2F         [10] 8363 	jp	00197$
    00002F7F                       8364 00179$:
                                   8365 ;E:\Dropbox\FAUSTO\SVILUPPI\MSX\CODE\C\MSXgl\projects\exsoccer/exsoccer_s2_b0.c:1585: else g_Ball.Size = 3;
    00002F7F 21r04r00         [10] 8366 	ld	hl, #(_g_Ball + 4)
    00002F82 36 03            [10] 8367 	ld	(hl), #0x03
    00002F84 C3rE5r2F         [10] 8368 	jp	00197$
    00002F87                       8369 00196$:
                                   8370 ;E:\Dropbox\FAUSTO\SVILUPPI\MSX\CODE\C\MSXgl\projects\exsoccer/exsoccer_s2_b0.c:1587: else if (g_Ball.ShotActive == 3) {
    00002F87 7B               [ 4] 8371 	ld	a, e
    00002F88 D6 03            [ 7] 8372 	sub	a, #0x03
    00002F8A 20 08            [12] 8373 	jr	NZ, 00193$
                                   8374 ;E:\Dropbox\FAUSTO\SVILUPPI\MSX\CODE\C\MSXgl\projects\exsoccer/exsoccer_s2_b0.c:1589: g_Ball.Size = 1;
    00002F8C 21r04r00         [10] 8375 	ld	hl, #(_g_Ball + 4)
    00002F8F 36 01            [10] 8376 	ld	(hl), #0x01
    00002F91 C3rE5r2F         [10] 8377 	jp	00197$
    00002F94                       8378 00193$:
                                   8379 ;E:\Dropbox\FAUSTO\SVILUPPI\MSX\CODE\C\MSXgl\projects\exsoccer/exsoccer_s2_b0.c:1591: else if (g_Ball.ShotActive == 1) {
    00002F94 1D               [ 4] 8380 	dec	e
    00002F95 20 08            [12] 8381 	jr	NZ, 00190$
                                   8382 ;E:\Dropbox\FAUSTO\SVILUPPI\MSX\CODE\C\MSXgl\projects\exsoccer/exsoccer_s2_b0.c:1594: g_Ball.Size = 2;
    00002F97 21r04r00         [10] 8383 	ld	hl, #(_g_Ball + 4)
    00002F9A 36 02            [10] 8384 	ld	(hl), #0x02
    00002F9C C3rE5r2F         [10] 8385 	jp	00197$
    00002F9F                       8386 00190$:
                                   8387 ;E:\Dropbox\FAUSTO\SVILUPPI\MSX\CODE\C\MSXgl\projects\exsoccer/exsoccer_s2_b0.c:1604: if (totalDist > 40) {
    00002F9F DD 5E FA         [19] 8388 	ld	e, -6 (ix)
    00002FA2 DD 56 FB         [19] 8389 	ld	d, -5 (ix)
    00002FA5 3E 28            [ 7] 8390 	ld	a, #0x28
    00002FA7 BB               [ 4] 8391 	cp	a, e
    00002FA8 3E 00            [ 7] 8392 	ld	a, #0x00
    00002FAA 9A               [ 4] 8393 	sbc	a, d
    00002FAB 30 33            [12] 8394 	jr	NC, 00187$
                                   8395 ;E:\Dropbox\FAUSTO\SVILUPPI\MSX\CODE\C\MSXgl\projects\exsoccer/exsoccer_s2_b0.c:1605: u16 ratio = (distCovered * 100) / totalDist;
    00002FAD 69               [ 4] 8396 	ld	l, c
    00002FAE 60               [ 4] 8397 	ld	h, b
    00002FAF 29               [11] 8398 	add	hl, hl
    00002FB0 09               [11] 8399 	add	hl, bc
    00002FB1 29               [11] 8400 	add	hl, hl
    00002FB2 29               [11] 8401 	add	hl, hl
    00002FB3 29               [11] 8402 	add	hl, hl
    00002FB4 09               [11] 8403 	add	hl, bc
    00002FB5 29               [11] 8404 	add	hl, hl
    00002FB6 29               [11] 8405 	add	hl, hl
    00002FB7 DD 5E FA         [19] 8406 	ld	e, -6 (ix)
    00002FBA DD 56 FB         [19] 8407 	ld	d, -5 (ix)
    00002FBD CDr00r00         [17] 8408 	call	__divuint
                                   8409 ;E:\Dropbox\FAUSTO\SVILUPPI\MSX\CODE\C\MSXgl\projects\exsoccer/exsoccer_s2_b0.c:1606: if (ratio < 15 || ratio > 85) g_Ball.Size = 2;
    00002FC0 7B               [ 4] 8410 	ld	a, e
    00002FC1 D6 0F            [ 7] 8411 	sub	a, #0x0f
    00002FC3 7A               [ 4] 8412 	ld	a, d
    00002FC4 DE 00            [ 7] 8413 	sbc	a, #0x00
    00002FC6 38 08            [12] 8414 	jr	C, 00182$
    00002FC8 3E 55            [ 7] 8415 	ld	a, #0x55
    00002FCA BB               [ 4] 8416 	cp	a, e
    00002FCB 3E 00            [ 7] 8417 	ld	a, #0x00
    00002FCD 9A               [ 4] 8418 	sbc	a, d
    00002FCE 30 08            [12] 8419 	jr	NC, 00183$
    00002FD0                       8420 00182$:
    00002FD0 21r04r00         [10] 8421 	ld	hl, #(_g_Ball + 4)
    00002FD3 36 02            [10] 8422 	ld	(hl), #0x02
    00002FD5 C3rE5r2F         [10] 8423 	jp	00197$
    00002FD8                       8424 00183$:
                                   8425 ;E:\Dropbox\FAUSTO\SVILUPPI\MSX\CODE\C\MSXgl\projects\exsoccer/exsoccer_s2_b0.c:1607: else g_Ball.Size = 3;
    00002FD8 21r04r00         [10] 8426 	ld	hl, #(_g_Ball + 4)
    00002FDB 36 03            [10] 8427 	ld	(hl), #0x03
    00002FDD C3rE5r2F         [10] 8428 	jp	00197$
    00002FE0                       8429 00187$:
                                   8430 ;E:\Dropbox\FAUSTO\SVILUPPI\MSX\CODE\C\MSXgl\projects\exsoccer/exsoccer_s2_b0.c:1609: g_Ball.Size = 2;
    00002FE0 21r04r00         [10] 8431 	ld	hl, #(_g_Ball + 4)
    00002FE3 36 02            [10] 8432 	ld	(hl), #0x02
    00002FE5                       8433 00197$:
                                   8434 ;E:\Dropbox\FAUSTO\SVILUPPI\MSX\CODE\C\MSXgl\projects\exsoccer/exsoccer_s2_b0.c:1613: g_Ball.PreviousY = g_Ball.Y;
    00002FE5 ED 4Br00r00      [20] 8435 	ld	bc, (#_g_Ball + 0)
    00002FE9 ED 43r07r00      [20] 8436 	ld	((_g_Ball + 7)), bc
    00002FED                       8437 00198$:
                                   8438 ;E:\Dropbox\FAUSTO\SVILUPPI\MSX\CODE\C\MSXgl\projects\exsoccer/exsoccer_s2_b0.c:1614: }
    00002FED DD F9            [10] 8439 	ld	sp, ix
    00002FEF DD E1            [14] 8440 	pop	ix
    00002FF1 C9               [10] 8441 	ret
                                   8442 ;E:\Dropbox\FAUSTO\SVILUPPI\MSX\CODE\C\MSXgl\projects\exsoccer/exsoccer_s2_b0.c:1615: void TickThrowIn() {
                                   8443 ;	---------------------------------
                                   8444 ; Function TickThrowIn
                                   8445 ; ---------------------------------
    00002FF2                       8446 _TickThrowIn::
    00002FF2 DD E5            [15] 8447 	push	ix
    00002FF4 DD 21 00 00      [14] 8448 	ld	ix,#0
    00002FF8 DD 39            [15] 8449 	add	ix,sp
    00002FFA 21 D6 FF         [10] 8450 	ld	hl, #-42
    00002FFD 39               [11] 8451 	add	hl, sp
    00002FFE F9               [ 6] 8452 	ld	sp, hl
                                   8453 ;E:\Dropbox\FAUSTO\SVILUPPI\MSX\CODE\C\MSXgl\projects\exsoccer/exsoccer_s2_b0.c:1616: if (g_MatchStatus != MATCH_BEFORE_THROW_IN) return;
    00002FFF 3Ar00r00         [13] 8454 	ld	a, (_g_MatchStatus+0)
    00003002 D6 03            [ 7] 8455 	sub	a, #0x03
    00003004 C2rA4r3C         [10] 8456 	jp	NZ,00269$
                                   8457 ;E:\Dropbox\FAUSTO\SVILUPPI\MSX\CODE\C\MSXgl\projects\exsoccer/exsoccer_s2_b0.c:1623: if (g_Timer == 0) {
    00003007 3Ar00r00         [13] 8458 	ld	a, (_g_Timer+0)
    0000300A B7               [ 4] 8459 	or	a, a
    0000300B C2r50r36         [10] 8460 	jp	NZ, 00171$
                                   8461 ;E:\Dropbox\FAUSTO\SVILUPPI\MSX\CODE\C\MSXgl\projects\exsoccer/exsoccer_s2_b0.c:1624: s_ThrowTargetId = NO_VALUE;
    0000300E 21r08r00         [10] 8462 	ld	hl, #_TickThrowIn_s_ThrowTargetId_65537_1786
    00003011 36 FF            [10] 8463 	ld	(hl), #0xff
                                   8464 ;E:\Dropbox\FAUSTO\SVILUPPI\MSX\CODE\C\MSXgl\projects\exsoccer/exsoccer_s2_b0.c:1625: s_JoyMoved = false;
    00003013 21r09r00         [10] 8465 	ld	hl, #_TickThrowIn_s_JoyMoved_65537_1786
    00003016 36 00            [10] 8466 	ld	(hl), #0x00
                                   8467 ;E:\Dropbox\FAUSTO\SVILUPPI\MSX\CODE\C\MSXgl\projects\exsoccer/exsoccer_s2_b0.c:1626: s_ForceThrowTimer = 0;
    00003018 21 00 00         [10] 8468 	ld	hl, #0x0000
    0000301B 22r0Ar00         [16] 8469 	ld	(_TickThrowIn_s_ForceThrowTimer_65537_1786), hl
                                   8470 ;E:\Dropbox\FAUSTO\SVILUPPI\MSX\CODE\C\MSXgl\projects\exsoccer/exsoccer_s2_b0.c:1629: if (g_Ball.X < FIELD_POS_X_CENTER) {
    0000301E 2Ar02r00         [16] 8471 	ld	hl, (#(_g_Ball + 2) + 0)
    00003021 11 78 00         [10] 8472 	ld	de, #0x0078
    00003024 BF               [ 4] 8473 	cp	a, a
    00003025 ED 52            [15] 8474 	sbc	hl, de
    00003027 30 09            [12] 8475 	jr	NC, 00104$
                                   8476 ;E:\Dropbox\FAUSTO\SVILUPPI\MSX\CODE\C\MSXgl\projects\exsoccer/exsoccer_s2_b0.c:1630: g_Ball.X = FIELD_BOUND_X_LEFT;
    00003029 21 0A 00         [10] 8477 	ld	hl, #0x000a
    0000302C 22r02r00         [16] 8478 	ld	((_g_Ball + 2)), hl
    0000302F C3r38r30         [10] 8479 	jp	00105$
    00003032                       8480 00104$:
                                   8481 ;E:\Dropbox\FAUSTO\SVILUPPI\MSX\CODE\C\MSXgl\projects\exsoccer/exsoccer_s2_b0.c:1632: g_Ball.X = FIELD_BOUND_X_RIGHT;
    00003032 21 F6 00         [10] 8482 	ld	hl, #0x00f6
    00003035 22r02r00         [16] 8483 	ld	((_g_Ball + 2)), hl
    00003038                       8484 00105$:
                                   8485 ;E:\Dropbox\FAUSTO\SVILUPPI\MSX\CODE\C\MSXgl\projects\exsoccer/exsoccer_s2_b0.c:1636: if (g_Ball.Y < FIELD_BOUND_Y_TOP) g_Ball.Y = FIELD_BOUND_Y_TOP;
    00003038 2Ar00r00         [16] 8486 	ld	hl, (#_g_Ball + 0)
    0000303B 11 32 00         [10] 8487 	ld	de, #0x0032
    0000303E BF               [ 4] 8488 	cp	a, a
    0000303F ED 52            [15] 8489 	sbc	hl, de
    00003041 30 06            [12] 8490 	jr	NC, 00107$
    00003043 21 32 00         [10] 8491 	ld	hl, #0x0032
    00003046 22r00r00         [16] 8492 	ld	(_g_Ball), hl
    00003049                       8493 00107$:
                                   8494 ;E:\Dropbox\FAUSTO\SVILUPPI\MSX\CODE\C\MSXgl\projects\exsoccer/exsoccer_s2_b0.c:1637: if (g_Ball.Y > FIELD_BOUND_Y_BOTTOM) g_Ball.Y = FIELD_BOUND_Y_BOTTOM;
    00003049 2Ar00r00         [16] 8495 	ld	hl, (#_g_Ball + 0)
    0000304C 3E AE            [ 7] 8496 	ld	a, #0xae
    0000304E BD               [ 4] 8497 	cp	a, l
    0000304F 3E 01            [ 7] 8498 	ld	a, #0x01
    00003051 9C               [ 4] 8499 	sbc	a, h
    00003052 30 06            [12] 8500 	jr	NC, 00109$
    00003054 21 AE 01         [10] 8501 	ld	hl, #0x01ae
    00003057 22r00r00         [16] 8502 	ld	(_g_Ball), hl
    0000305A                       8503 00109$:
                                   8504 ;E:\Dropbox\FAUSTO\SVILUPPI\MSX\CODE\C\MSXgl\projects\exsoccer/exsoccer_s2_b0.c:1639: g_Ball.PossessionPlayerId = NO_VALUE;
    0000305A 21r06r00         [10] 8505 	ld	hl, #(_g_Ball + 6)
    0000305D 36 FF            [10] 8506 	ld	(hl), #0xff
                                   8507 ;E:\Dropbox\FAUSTO\SVILUPPI\MSX\CODE\C\MSXgl\projects\exsoccer/exsoccer_s2_b0.c:1642: u8 bestId = NO_VALUE;
    0000305F DD 36 F8 FF      [19] 8508 	ld	-8 (ix), #0xff
                                   8509 ;E:\Dropbox\FAUSTO\SVILUPPI\MSX\CODE\C\MSXgl\projects\exsoccer/exsoccer_s2_b0.c:1643: u16 minDist = 65535;
    00003063 01 FF FF         [10] 8510 	ld	bc, #0xffff
                                   8511 ;E:\Dropbox\FAUSTO\SVILUPPI\MSX\CODE\C\MSXgl\projects\exsoccer/exsoccer_s2_b0.c:1646: u8 t1=NO_VALUE, t2=NO_VALUE; u16 dt1=65535, dt2=65535;
    00003066 DD 36 EA FF      [19] 8512 	ld	-22 (ix), #0xff
    0000306A DD 36 EB FF      [19] 8513 	ld	-21 (ix), #0xff
    0000306E DD 36 EC FF      [19] 8514 	ld	-20 (ix), #0xff
    00003072 DD 36 ED FF      [19] 8515 	ld	-19 (ix), #0xff
    00003076 DD 36 EE FF      [19] 8516 	ld	-18 (ix), #0xff
    0000307A DD 36 EF FF      [19] 8517 	ld	-17 (ix), #0xff
                                   8518 ;E:\Dropbox\FAUSTO\SVILUPPI\MSX\CODE\C\MSXgl\projects\exsoccer/exsoccer_s2_b0.c:1647: u8 o1=NO_VALUE, o2=NO_VALUE; u16 do1=65535, do2=65535;
    0000307E DD 36 F0 FF      [19] 8519 	ld	-16 (ix), #0xff
    00003082 DD 36 F1 FF      [19] 8520 	ld	-15 (ix), #0xff
    00003086 DD 36 F2 FF      [19] 8521 	ld	-14 (ix), #0xff
    0000308A DD 36 F3 FF      [19] 8522 	ld	-13 (ix), #0xff
    0000308E DD 36 F4 FF      [19] 8523 	ld	-12 (ix), #0xff
    00003092 DD 36 F5 FF      [19] 8524 	ld	-11 (ix), #0xff
                                   8525 ;E:\Dropbox\FAUSTO\SVILUPPI\MSX\CODE\C\MSXgl\projects\exsoccer/exsoccer_s2_b0.c:1649: for(u8 i=0; i<14; i++) {
    00003096 DD 36 FF 00      [19] 8526 	ld	-1 (ix), #0x00
    0000309A                       8527 00259$:
    0000309A DD 7E FF         [19] 8528 	ld	a, -1 (ix)
    0000309D D6 0E            [ 7] 8529 	sub	a, #0x0e
    0000309F D2r67r31         [10] 8530 	jp	NC, 00121$
                                   8531 ;E:\Dropbox\FAUSTO\SVILUPPI\MSX\CODE\C\MSXgl\projects\exsoccer/exsoccer_s2_b0.c:1652: if(g_Players[i].X > g_Ball.X) dist += (g_Players[i].X - g_Ball.X); else dist += (g_Ball.X - g_Players[i].X);
    000030A2 DD 5E FF         [19] 8532 	ld	e, -1 (ix)
    000030A5 16 00            [ 7] 8533 	ld	d, #0x00
    000030A7 6B               [ 4] 8534 	ld	l, e
    000030A8 62               [ 4] 8535 	ld	h, d
    000030A9 29               [11] 8536 	add	hl, hl
    000030AA 29               [11] 8537 	add	hl, hl
    000030AB 19               [11] 8538 	add	hl, de
    000030AC 29               [11] 8539 	add	hl, hl
    000030AD 29               [11] 8540 	add	hl, hl
    000030AE 19               [11] 8541 	add	hl, de
    000030AF 11r00r00         [10] 8542 	ld	de, #_g_Players
    000030B2 19               [11] 8543 	add	hl, de
                                   8544 ;	spillPairReg hl
                                   8545 ;	spillPairReg hl
    000030B3 DD 75 F9         [19] 8546 	ld	-7 (ix), l
    000030B6 DD 74 FA         [19] 8547 	ld	-6 (ix), h
                                   8548 ;	spillPairReg hl
                                   8549 ;	spillPairReg hl
    000030B9 23               [ 6] 8550 	inc	hl
    000030BA 23               [ 6] 8551 	inc	hl
    000030BB 5E               [ 7] 8552 	ld	e, (hl)
    000030BC 23               [ 6] 8553 	inc	hl
    000030BD 56               [ 7] 8554 	ld	d, (hl)
                                   8555 ;E:\Dropbox\FAUSTO\SVILUPPI\MSX\CODE\C\MSXgl\projects\exsoccer/exsoccer_s2_b0.c:1629: if (g_Ball.X < FIELD_POS_X_CENTER) {
    000030BE 2Ar02r00         [16] 8556 	ld	hl, (#(_g_Ball + 2) + 0)
                                   8557 ;E:\Dropbox\FAUSTO\SVILUPPI\MSX\CODE\C\MSXgl\projects\exsoccer/exsoccer_s2_b0.c:1652: if(g_Players[i].X > g_Ball.X) dist += (g_Players[i].X - g_Ball.X); else dist += (g_Ball.X - g_Players[i].X);
    000030C1 7D               [ 4] 8558 	ld	a, l
    000030C2 93               [ 4] 8559 	sub	a, e
    000030C3 7C               [ 4] 8560 	ld	a, h
    000030C4 9A               [ 4] 8561 	sbc	a, d
    000030C5 30 0D            [12] 8562 	jr	NC, 00111$
    000030C7 7B               [ 4] 8563 	ld	a, e
    000030C8 95               [ 4] 8564 	sub	a, l
    000030C9 DD 77 FB         [19] 8565 	ld	-5 (ix), a
    000030CC 7A               [ 4] 8566 	ld	a, d
    000030CD 9C               [ 4] 8567 	sbc	a, h
    000030CE DD 77 FC         [19] 8568 	ld	-4 (ix), a
    000030D1 C3rDEr30         [10] 8569 	jp	00112$
    000030D4                       8570 00111$:
    000030D4 7D               [ 4] 8571 	ld	a, l
    000030D5 93               [ 4] 8572 	sub	a, e
    000030D6 DD 77 FB         [19] 8573 	ld	-5 (ix), a
    000030D9 7C               [ 4] 8574 	ld	a, h
    000030DA 9A               [ 4] 8575 	sbc	a, d
    000030DB DD 77 FC         [19] 8576 	ld	-4 (ix), a
    000030DE                       8577 00112$:
                                   8578 ;E:\Dropbox\FAUSTO\SVILUPPI\MSX\CODE\C\MSXgl\projects\exsoccer/exsoccer_s2_b0.c:1653: if(g_Players[i].Y > g_Ball.Y) dist += (g_Players[i].Y - g_Ball.Y); else dist += (g_Ball.Y - g_Players[i].Y);
    000030DE DD 6E F9         [19] 8579 	ld	l, -7 (ix)
    000030E1 DD 66 FA         [19] 8580 	ld	h, -6 (ix)
    000030E4 7E               [ 7] 8581 	ld	a, (hl)
    000030E5 DD 77 FD         [19] 8582 	ld	-3 (ix), a
    000030E8 23               [ 6] 8583 	inc	hl
    000030E9 7E               [ 7] 8584 	ld	a, (hl)
    000030EA DD 77 FE         [19] 8585 	ld	-2 (ix), a
                                   8586 ;E:\Dropbox\FAUSTO\SVILUPPI\MSX\CODE\C\MSXgl\projects\exsoccer/exsoccer_s2_b0.c:1636: if (g_Ball.Y < FIELD_BOUND_Y_TOP) g_Ball.Y = FIELD_BOUND_Y_TOP;
    000030ED ED 5Br00r00      [20] 8587 	ld	de, (#_g_Ball + 0)
                                   8588 ;E:\Dropbox\FAUSTO\SVILUPPI\MSX\CODE\C\MSXgl\projects\exsoccer/exsoccer_s2_b0.c:1653: if(g_Players[i].Y > g_Ball.Y) dist += (g_Players[i].Y - g_Ball.Y); else dist += (g_Ball.Y - g_Players[i].Y);
    000030F1 7B               [ 4] 8589 	ld	a, e
    000030F2 DD 96 FD         [19] 8590 	sub	a, -3 (ix)
    000030F5 7A               [ 4] 8591 	ld	a, d
    000030F6 DD 9E FE         [19] 8592 	sbc	a, -2 (ix)
    000030F9 30 1A            [12] 8593 	jr	NC, 00114$
    000030FB DD 7E FD         [19] 8594 	ld	a, -3 (ix)
    000030FE 93               [ 4] 8595 	sub	a, e
    000030FF 5F               [ 4] 8596 	ld	e, a
    00003100 DD 7E FE         [19] 8597 	ld	a, -2 (ix)
    00003103 9A               [ 4] 8598 	sbc	a, d
    00003104 57               [ 4] 8599 	ld	d, a
    00003105 DD 6E FB         [19] 8600 	ld	l, -5 (ix)
    00003108 DD 66 FC         [19] 8601 	ld	h, -4 (ix)
    0000310B 19               [11] 8602 	add	hl, de
    0000310C DD 75 FD         [19] 8603 	ld	-3 (ix), l
    0000310F DD 74 FE         [19] 8604 	ld	-2 (ix), h
    00003112 C3r2Cr31         [10] 8605 	jp	00115$
    00003115                       8606 00114$:
    00003115 7B               [ 4] 8607 	ld	a, e
    00003116 DD 96 FD         [19] 8608 	sub	a, -3 (ix)
    00003119 5F               [ 4] 8609 	ld	e, a
    0000311A 7A               [ 4] 8610 	ld	a, d
    0000311B DD 9E FE         [19] 8611 	sbc	a, -2 (ix)
    0000311E 57               [ 4] 8612 	ld	d, a
    0000311F DD 6E FB         [19] 8613 	ld	l, -5 (ix)
    00003122 DD 66 FC         [19] 8614 	ld	h, -4 (ix)
    00003125 19               [11] 8615 	add	hl, de
    00003126 DD 75 FD         [19] 8616 	ld	-3 (ix), l
    00003129 DD 74 FE         [19] 8617 	ld	-2 (ix), h
    0000312C                       8618 00115$:
                                   8619 ;E:\Dropbox\FAUSTO\SVILUPPI\MSX\CODE\C\MSXgl\projects\exsoccer/exsoccer_s2_b0.c:1656: if(g_Players[i].TeamId == g_RestartKickTeamId && g_Players[i].Role != PLAYER_ROLE_GOALKEEPER) {
    0000312C DD 5E F9         [19] 8620 	ld	e, -7 (ix)
    0000312F DD 56 FA         [19] 8621 	ld	d, -6 (ix)
    00003132 21 09 00         [10] 8622 	ld	hl, #9
    00003135 19               [11] 8623 	add	hl, de
    00003136 5E               [ 7] 8624 	ld	e, (hl)
    00003137 3Ar00r00         [13] 8625 	ld	a, (_g_RestartKickTeamId+0)
    0000313A 93               [ 4] 8626 	sub	a, e
    0000313B 20 24            [12] 8627 	jr	NZ, 00260$
    0000313D DD 5E F9         [19] 8628 	ld	e, -7 (ix)
    00003140 DD 56 FA         [19] 8629 	ld	d, -6 (ix)
    00003143 21 0D 00         [10] 8630 	ld	hl, #13
    00003146 19               [11] 8631 	add	hl, de
    00003147 7E               [ 7] 8632 	ld	a, (hl)
    00003148 B7               [ 4] 8633 	or	a, a
    00003149 28 16            [12] 8634 	jr	Z, 00260$
                                   8635 ;E:\Dropbox\FAUSTO\SVILUPPI\MSX\CODE\C\MSXgl\projects\exsoccer/exsoccer_s2_b0.c:1657: if(dist < minDist) { minDist = dist; bestId = i; }
    0000314B DD 7E FD         [19] 8636 	ld	a, -3 (ix)
    0000314E 91               [ 4] 8637 	sub	a, c
    0000314F DD 7E FE         [19] 8638 	ld	a, -2 (ix)
    00003152 98               [ 4] 8639 	sbc	a, b
    00003153 30 0C            [12] 8640 	jr	NC, 00260$
    00003155 DD 4E FD         [19] 8641 	ld	c, -3 (ix)
    00003158 DD 46 FE         [19] 8642 	ld	b, -2 (ix)
    0000315B DD 7E FF         [19] 8643 	ld	a, -1 (ix)
    0000315E DD 77 F8         [19] 8644 	ld	-8 (ix), a
    00003161                       8645 00260$:
                                   8646 ;E:\Dropbox\FAUSTO\SVILUPPI\MSX\CODE\C\MSXgl\projects\exsoccer/exsoccer_s2_b0.c:1649: for(u8 i=0; i<14; i++) {
    00003161 DD 34 FF         [23] 8647 	inc	-1 (ix)
    00003164 C3r9Ar30         [10] 8648 	jp	00259$
    00003167                       8649 00121$:
                                   8650 ;E:\Dropbox\FAUSTO\SVILUPPI\MSX\CODE\C\MSXgl\projects\exsoccer/exsoccer_s2_b0.c:1660: g_ThrowInPlayerId = bestId;
    00003167 DD 7E F8         [19] 8651 	ld	a, -8 (ix)
    0000316A 32r00r00         [13] 8652 	ld	(_g_ThrowInPlayerId+0), a
                                   8653 ;E:\Dropbox\FAUSTO\SVILUPPI\MSX\CODE\C\MSXgl\projects\exsoccer/exsoccer_s2_b0.c:1663: for(u8 i=0; i<14; i++) {
    0000316D DD 36 FF 00      [19] 8654 	ld	-1 (ix), #0x00
    00003171                       8655 00262$:
    00003171 DD 7E FF         [19] 8656 	ld	a, -1 (ix)
    00003174 D6 0E            [ 7] 8657 	sub	a, #0x0e
    00003176 D2r50r33         [10] 8658 	jp	NC, 00146$
                                   8659 ;E:\Dropbox\FAUSTO\SVILUPPI\MSX\CODE\C\MSXgl\projects\exsoccer/exsoccer_s2_b0.c:1664: if(i == g_ThrowInPlayerId || g_Players[i].Role == PLAYER_ROLE_GOALKEEPER || g_Players[i].TeamId == REFEREE) continue;
    00003179 3Ar00r00         [13] 8660 	ld	a, (_g_ThrowInPlayerId+0)
    0000317C DD 96 FF         [19] 8661 	sub	a, -1 (ix)
    0000317F CAr4Ar33         [10] 8662 	jp	Z,00145$
    00003182 DD 4E FF         [19] 8663 	ld	c, -1 (ix)
    00003185 06 00            [ 7] 8664 	ld	b, #0x00
    00003187 69               [ 4] 8665 	ld	l, c
    00003188 60               [ 4] 8666 	ld	h, b
    00003189 29               [11] 8667 	add	hl, hl
    0000318A 29               [11] 8668 	add	hl, hl
    0000318B 09               [11] 8669 	add	hl, bc
    0000318C 29               [11] 8670 	add	hl, hl
    0000318D 29               [11] 8671 	add	hl, hl
    0000318E 09               [11] 8672 	add	hl, bc
    0000318F EB               [ 4] 8673 	ex	de, hl
    00003190 21r00r00         [10] 8674 	ld	hl, #_g_Players
    00003193 19               [11] 8675 	add	hl, de
    00003194 DD 75 FD         [19] 8676 	ld	-3 (ix), l
    00003197 DD 74 FE         [19] 8677 	ld	-2 (ix), h
    0000319A 01 0D 00         [10] 8678 	ld	bc,#13
    0000319D 09               [11] 8679 	add	hl,bc
    0000319E 7E               [ 7] 8680 	ld	a, (hl)
    0000319F B7               [ 4] 8681 	or	a, a
    000031A0 CAr4Ar33         [10] 8682 	jp	Z, 00145$
    000031A3 DD 4E FD         [19] 8683 	ld	c, -3 (ix)
    000031A6 DD 46 FE         [19] 8684 	ld	b, -2 (ix)
    000031A9 21 09 00         [10] 8685 	ld	hl, #9
    000031AC 09               [11] 8686 	add	hl, bc
    000031AD 7E               [ 7] 8687 	ld	a, (hl)
    000031AE DD 77 F6         [19] 8688 	ld	-10 (ix), a
    000031B1 D6 0E            [ 7] 8689 	sub	a, #0x0e
    000031B3 CAr4Ar33         [10] 8690 	jp	Z,00145$
                                   8691 ;E:\Dropbox\FAUSTO\SVILUPPI\MSX\CODE\C\MSXgl\projects\exsoccer/exsoccer_s2_b0.c:1667: if(g_Players[i].X > g_Ball.X) dist += (g_Players[i].X - g_Ball.X); else dist += (g_Ball.X - g_Players[i].X);
    000031B6 DD 6E FD         [19] 8692 	ld	l, -3 (ix)
                                   8693 ;	spillPairReg hl
                                   8694 ;	spillPairReg hl
    000031B9 DD 66 FE         [19] 8695 	ld	h, -2 (ix)
                                   8696 ;	spillPairReg hl
                                   8697 ;	spillPairReg hl
    000031BC 23               [ 6] 8698 	inc	hl
    000031BD 23               [ 6] 8699 	inc	hl
    000031BE 7E               [ 7] 8700 	ld	a, (hl)
    000031BF DD 77 F9         [19] 8701 	ld	-7 (ix), a
    000031C2 23               [ 6] 8702 	inc	hl
    000031C3 7E               [ 7] 8703 	ld	a, (hl)
    000031C4 DD 77 FA         [19] 8704 	ld	-6 (ix), a
                                   8705 ;E:\Dropbox\FAUSTO\SVILUPPI\MSX\CODE\C\MSXgl\projects\exsoccer/exsoccer_s2_b0.c:1629: if (g_Ball.X < FIELD_POS_X_CENTER) {
    000031C7 21r02r00         [10] 8706 	ld	hl, #(_g_Ball + 2)
    000031CA 7E               [ 7] 8707 	ld	a, (hl)
    000031CB DD 77 FB         [19] 8708 	ld	-5 (ix), a
    000031CE 23               [ 6] 8709 	inc	hl
    000031CF 7E               [ 7] 8710 	ld	a, (hl)
    000031D0 DD 77 FC         [19] 8711 	ld	-4 (ix), a
                                   8712 ;E:\Dropbox\FAUSTO\SVILUPPI\MSX\CODE\C\MSXgl\projects\exsoccer/exsoccer_s2_b0.c:1667: if(g_Players[i].X > g_Ball.X) dist += (g_Players[i].X - g_Ball.X); else dist += (g_Ball.X - g_Players[i].X);
    000031D3 DD 7E FB         [19] 8713 	ld	a, -5 (ix)
    000031D6 DD 96 F9         [19] 8714 	sub	a, -7 (ix)
    000031D9 DD 7E FC         [19] 8715 	ld	a, -4 (ix)
    000031DC DD 9E FA         [19] 8716 	sbc	a, -6 (ix)
    000031DF 30 15            [12] 8717 	jr	NC, 00127$
    000031E1 DD 7E F9         [19] 8718 	ld	a, -7 (ix)
    000031E4 DD 96 FB         [19] 8719 	sub	a, -5 (ix)
    000031E7 DD 77 F7         [19] 8720 	ld	-9 (ix), a
    000031EA DD 7E FA         [19] 8721 	ld	a, -6 (ix)
    000031ED DD 9E FC         [19] 8722 	sbc	a, -4 (ix)
    000031F0 DD 77 F8         [19] 8723 	ld	-8 (ix), a
    000031F3 C3r08r32         [10] 8724 	jp	00128$
    000031F6                       8725 00127$:
    000031F6 DD 7E FB         [19] 8726 	ld	a, -5 (ix)
    000031F9 DD 96 F9         [19] 8727 	sub	a, -7 (ix)
    000031FC DD 77 F7         [19] 8728 	ld	-9 (ix), a
    000031FF DD 7E FC         [19] 8729 	ld	a, -4 (ix)
    00003202 DD 9E FA         [19] 8730 	sbc	a, -6 (ix)
    00003205 DD 77 F8         [19] 8731 	ld	-8 (ix), a
    00003208                       8732 00128$:
                                   8733 ;E:\Dropbox\FAUSTO\SVILUPPI\MSX\CODE\C\MSXgl\projects\exsoccer/exsoccer_s2_b0.c:1668: if(g_Players[i].Y > g_Ball.Y) dist += (g_Players[i].Y - g_Ball.Y); else dist += (g_Ball.Y - g_Players[i].Y);
    00003208 DD 6E FD         [19] 8734 	ld	l, -3 (ix)
    0000320B DD 66 FE         [19] 8735 	ld	h, -2 (ix)
    0000320E 7E               [ 7] 8736 	ld	a, (hl)
    0000320F DD 77 F9         [19] 8737 	ld	-7 (ix), a
    00003212 23               [ 6] 8738 	inc	hl
    00003213 7E               [ 7] 8739 	ld	a, (hl)
    00003214 DD 77 FA         [19] 8740 	ld	-6 (ix), a
                                   8741 ;E:\Dropbox\FAUSTO\SVILUPPI\MSX\CODE\C\MSXgl\projects\exsoccer/exsoccer_s2_b0.c:1636: if (g_Ball.Y < FIELD_BOUND_Y_TOP) g_Ball.Y = FIELD_BOUND_Y_TOP;
    00003217 21r00r00         [10] 8742 	ld	hl, #_g_Ball
    0000321A 7E               [ 7] 8743 	ld	a, (hl)
    0000321B DD 77 FB         [19] 8744 	ld	-5 (ix), a
    0000321E 23               [ 6] 8745 	inc	hl
    0000321F 7E               [ 7] 8746 	ld	a, (hl)
    00003220 DD 77 FC         [19] 8747 	ld	-4 (ix), a
                                   8748 ;E:\Dropbox\FAUSTO\SVILUPPI\MSX\CODE\C\MSXgl\projects\exsoccer/exsoccer_s2_b0.c:1668: if(g_Players[i].Y > g_Ball.Y) dist += (g_Players[i].Y - g_Ball.Y); else dist += (g_Ball.Y - g_Players[i].Y);
    00003223 DD 7E FB         [19] 8749 	ld	a, -5 (ix)
    00003226 DD 96 F9         [19] 8750 	sub	a, -7 (ix)
    00003229 DD 7E FC         [19] 8751 	ld	a, -4 (ix)
    0000322C DD 9E FA         [19] 8752 	sbc	a, -6 (ix)
    0000322F 30 33            [12] 8753 	jr	NC, 00130$
    00003231 DD 7E F9         [19] 8754 	ld	a, -7 (ix)
    00003234 DD 96 FB         [19] 8755 	sub	a, -5 (ix)
    00003237 DD 77 FD         [19] 8756 	ld	-3 (ix), a
    0000323A DD 7E FA         [19] 8757 	ld	a, -6 (ix)
    0000323D DD 9E FC         [19] 8758 	sbc	a, -4 (ix)
    00003240 DD 77 FE         [19] 8759 	ld	-2 (ix), a
    00003243 DD 7E FD         [19] 8760 	ld	a, -3 (ix)
    00003246 DD 86 F7         [19] 8761 	add	a, -9 (ix)
    00003249 DD 77 FB         [19] 8762 	ld	-5 (ix), a
    0000324C DD 7E FE         [19] 8763 	ld	a, -2 (ix)
    0000324F DD 8E F8         [19] 8764 	adc	a, -8 (ix)
    00003252 DD 77 FC         [19] 8765 	ld	-4 (ix), a
    00003255 DD 7E FB         [19] 8766 	ld	a, -5 (ix)
    00003258 DD 77 FD         [19] 8767 	ld	-3 (ix), a
    0000325B DD 7E FC         [19] 8768 	ld	a, -4 (ix)
    0000325E DD 77 FE         [19] 8769 	ld	-2 (ix), a
    00003261 C3r94r32         [10] 8770 	jp	00131$
    00003264                       8771 00130$:
    00003264 DD 7E FB         [19] 8772 	ld	a, -5 (ix)
    00003267 DD 96 F9         [19] 8773 	sub	a, -7 (ix)
    0000326A DD 77 FD         [19] 8774 	ld	-3 (ix), a
    0000326D DD 7E FC         [19] 8775 	ld	a, -4 (ix)
    00003270 DD 9E FA         [19] 8776 	sbc	a, -6 (ix)
    00003273 DD 77 FE         [19] 8777 	ld	-2 (ix), a
    00003276 DD 7E F7         [19] 8778 	ld	a, -9 (ix)
    00003279 DD 86 FD         [19] 8779 	add	a, -3 (ix)
    0000327C DD 77 FB         [19] 8780 	ld	-5 (ix), a
    0000327F DD 7E F8         [19] 8781 	ld	a, -8 (ix)
    00003282 DD 8E FE         [19] 8782 	adc	a, -2 (ix)
    00003285 DD 77 FC         [19] 8783 	ld	-4 (ix), a
    00003288 DD 7E FB         [19] 8784 	ld	a, -5 (ix)
    0000328B DD 77 FD         [19] 8785 	ld	-3 (ix), a
    0000328E DD 7E FC         [19] 8786 	ld	a, -4 (ix)
    00003291 DD 77 FE         [19] 8787 	ld	-2 (ix), a
    00003294                       8788 00131$:
                                   8789 ;E:\Dropbox\FAUSTO\SVILUPPI\MSX\CODE\C\MSXgl\projects\exsoccer/exsoccer_s2_b0.c:1670: if (g_Players[i].TeamId == g_RestartKickTeamId) {
    00003294 DD 7E F6         [19] 8790 	ld	a, -10 (ix)
    00003297 21r00r00         [10] 8791 	ld	hl, #_g_RestartKickTeamId
    0000329A 96               [ 7] 8792 	sub	a, (hl)
    0000329B 20 58            [12] 8793 	jr	NZ, 00143$
                                   8794 ;E:\Dropbox\FAUSTO\SVILUPPI\MSX\CODE\C\MSXgl\projects\exsoccer/exsoccer_s2_b0.c:1672: if (dist < dt1) { dt2=dt1; t2=t1; dt1=dist; t1=i; }
    0000329D DD 7E FD         [19] 8795 	ld	a, -3 (ix)
    000032A0 DD 96 EC         [19] 8796 	sub	a, -20 (ix)
    000032A3 DD 7E FE         [19] 8797 	ld	a, -2 (ix)
    000032A6 DD 9E ED         [19] 8798 	sbc	a, -19 (ix)
    000032A9 30 27            [12] 8799 	jr	NC, 00135$
    000032AB DD 7E EC         [19] 8800 	ld	a, -20 (ix)
    000032AE DD 77 EE         [19] 8801 	ld	-18 (ix), a
    000032B1 DD 7E ED         [19] 8802 	ld	a, -19 (ix)
    000032B4 DD 77 EF         [19] 8803 	ld	-17 (ix), a
    000032B7 DD 7E EA         [19] 8804 	ld	a, -22 (ix)
    000032BA DD 77 EB         [19] 8805 	ld	-21 (ix), a
    000032BD DD 7E FD         [19] 8806 	ld	a, -3 (ix)
    000032C0 DD 77 EC         [19] 8807 	ld	-20 (ix), a
    000032C3 DD 7E FE         [19] 8808 	ld	a, -2 (ix)
    000032C6 DD 77 ED         [19] 8809 	ld	-19 (ix), a
    000032C9 DD 7E FF         [19] 8810 	ld	a, -1 (ix)
    000032CC DD 77 EA         [19] 8811 	ld	-22 (ix), a
    000032CF C3r4Ar33         [10] 8812 	jp	00145$
    000032D2                       8813 00135$:
                                   8814 ;E:\Dropbox\FAUSTO\SVILUPPI\MSX\CODE\C\MSXgl\projects\exsoccer/exsoccer_s2_b0.c:1673: else if (dist < dt2) { dt2=dist; t2=i; }
    000032D2 DD 7E FD         [19] 8815 	ld	a, -3 (ix)
    000032D5 DD 96 EE         [19] 8816 	sub	a, -18 (ix)
    000032D8 DD 7E FE         [19] 8817 	ld	a, -2 (ix)
    000032DB DD 9E EF         [19] 8818 	sbc	a, -17 (ix)
    000032DE 30 6A            [12] 8819 	jr	NC, 00145$
    000032E0 DD 7E FD         [19] 8820 	ld	a, -3 (ix)
    000032E3 DD 77 EE         [19] 8821 	ld	-18 (ix), a
    000032E6 DD 7E FE         [19] 8822 	ld	a, -2 (ix)
    000032E9 DD 77 EF         [19] 8823 	ld	-17 (ix), a
    000032EC DD 7E FF         [19] 8824 	ld	a, -1 (ix)
    000032EF DD 77 EB         [19] 8825 	ld	-21 (ix), a
    000032F2 C3r4Ar33         [10] 8826 	jp	00145$
    000032F5                       8827 00143$:
                                   8828 ;E:\Dropbox\FAUSTO\SVILUPPI\MSX\CODE\C\MSXgl\projects\exsoccer/exsoccer_s2_b0.c:1676: if (dist < do1) { do2=do1; o2=o1; do1=dist; o1=i; }
    000032F5 DD 7E FD         [19] 8829 	ld	a, -3 (ix)
    000032F8 DD 96 F2         [19] 8830 	sub	a, -14 (ix)
    000032FB DD 7E FE         [19] 8831 	ld	a, -2 (ix)
    000032FE DD 9E F3         [19] 8832 	sbc	a, -13 (ix)
    00003301 30 27            [12] 8833 	jr	NC, 00140$
    00003303 DD 7E F2         [19] 8834 	ld	a, -14 (ix)
    00003306 DD 77 F4         [19] 8835 	ld	-12 (ix), a
    00003309 DD 7E F3         [19] 8836 	ld	a, -13 (ix)
    0000330C DD 77 F5         [19] 8837 	ld	-11 (ix), a
    0000330F DD 7E F0         [19] 8838 	ld	a, -16 (ix)
    00003312 DD 77 F1         [19] 8839 	ld	-15 (ix), a
    00003315 DD 7E FD         [19] 8840 	ld	a, -3 (ix)
    00003318 DD 77 F2         [19] 8841 	ld	-14 (ix), a
    0000331B DD 7E FE         [19] 8842 	ld	a, -2 (ix)
    0000331E DD 77 F3         [19] 8843 	ld	-13 (ix), a
    00003321 DD 7E FF         [19] 8844 	ld	a, -1 (ix)
    00003324 DD 77 F0         [19] 8845 	ld	-16 (ix), a
    00003327 C3r4Ar33         [10] 8846 	jp	00145$
    0000332A                       8847 00140$:
                                   8848 ;E:\Dropbox\FAUSTO\SVILUPPI\MSX\CODE\C\MSXgl\projects\exsoccer/exsoccer_s2_b0.c:1677: else if (dist < do2) { do2=dist; o2=i; }
    0000332A DD 7E FD         [19] 8849 	ld	a, -3 (ix)
    0000332D DD 96 F4         [19] 8850 	sub	a, -12 (ix)
    00003330 DD 7E FE         [19] 8851 	ld	a, -2 (ix)
    00003333 DD 9E F5         [19] 8852 	sbc	a, -11 (ix)
    00003336 30 12            [12] 8853 	jr	NC, 00145$
    00003338 DD 7E FD         [19] 8854 	ld	a, -3 (ix)
    0000333B DD 77 F4         [19] 8855 	ld	-12 (ix), a
    0000333E DD 7E FE         [19] 8856 	ld	a, -2 (ix)
    00003341 DD 77 F5         [19] 8857 	ld	-11 (ix), a
    00003344 DD 7E FF         [19] 8858 	ld	a, -1 (ix)
    00003347 DD 77 F1         [19] 8859 	ld	-15 (ix), a
    0000334A                       8860 00145$:
                                   8861 ;E:\Dropbox\FAUSTO\SVILUPPI\MSX\CODE\C\MSXgl\projects\exsoccer/exsoccer_s2_b0.c:1663: for(u8 i=0; i<14; i++) {
    0000334A DD 34 FF         [23] 8862 	inc	-1 (ix)
    0000334D C3r71r31         [10] 8863 	jp	00262$
    00003350                       8864 00146$:
                                   8865 ;E:\Dropbox\FAUSTO\SVILUPPI\MSX\CODE\C\MSXgl\projects\exsoccer/exsoccer_s2_b0.c:1682: if (g_ThrowInPlayerId != NO_VALUE) {
    00003350 3Ar00r00         [13] 8866 	ld	a, (_g_ThrowInPlayerId+0)
    00003353 3C               [ 4] 8867 	inc	a
    00003354 CAr9Er34         [10] 8868 	jp	Z,00151$
                                   8869 ;E:\Dropbox\FAUSTO\SVILUPPI\MSX\CODE\C\MSXgl\projects\exsoccer/exsoccer_s2_b0.c:1683: g_Players[g_ThrowInPlayerId].TargetX = g_Ball.X;
    00003357 ED 4Br00r00      [20] 8870 	ld	bc, (_g_ThrowInPlayerId)
    0000335B 06 00            [ 7] 8871 	ld	b, #0x00
    0000335D 69               [ 4] 8872 	ld	l, c
    0000335E 60               [ 4] 8873 	ld	h, b
    0000335F 29               [11] 8874 	add	hl, hl
    00003360 29               [11] 8875 	add	hl, hl
    00003361 09               [11] 8876 	add	hl, bc
    00003362 29               [11] 8877 	add	hl, hl
    00003363 29               [11] 8878 	add	hl, hl
    00003364 09               [11] 8879 	add	hl, bc
    00003365 DD 75 FC         [19] 8880 	ld	-4 (ix), l
    00003368 DD 74 FD         [19] 8881 	ld	-3 (ix), h
    0000336B DD 7E FC         [19] 8882 	ld	a, -4 (ix)
    0000336E C6r00            [ 7] 8883 	add	a, #<(_g_Players)
    00003370 DD 77 FE         [19] 8884 	ld	-2 (ix), a
    00003373 DD 7E FD         [19] 8885 	ld	a, -3 (ix)
    00003376 CEs00            [ 7] 8886 	adc	a, #>(_g_Players)
    00003378 DD 77 FF         [19] 8887 	ld	-1 (ix), a
    0000337B DD 7E FE         [19] 8888 	ld	a, -2 (ix)
    0000337E C6 10            [ 7] 8889 	add	a, #0x10
    00003380 DD 77 FC         [19] 8890 	ld	-4 (ix), a
    00003383 DD 7E FF         [19] 8891 	ld	a, -1 (ix)
    00003386 CE 00            [ 7] 8892 	adc	a, #0x00
    00003388 DD 77 FD         [19] 8893 	ld	-3 (ix), a
    0000338B 21r02r00         [10] 8894 	ld	hl, #(_g_Ball + 2)
    0000338E 7E               [ 7] 8895 	ld	a, (hl)
    0000338F DD 77 FE         [19] 8896 	ld	-2 (ix), a
    00003392 23               [ 6] 8897 	inc	hl
    00003393 7E               [ 7] 8898 	ld	a, (hl)
    00003394 DD 77 FF         [19] 8899 	ld	-1 (ix), a
    00003397 DD 6E FC         [19] 8900 	ld	l, -4 (ix)
    0000339A DD 66 FD         [19] 8901 	ld	h, -3 (ix)
    0000339D DD 7E FE         [19] 8902 	ld	a, -2 (ix)
    000033A0 77               [ 7] 8903 	ld	(hl), a
    000033A1 23               [ 6] 8904 	inc	hl
    000033A2 DD 7E FF         [19] 8905 	ld	a, -1 (ix)
    000033A5 77               [ 7] 8906 	ld	(hl), a
                                   8907 ;E:\Dropbox\FAUSTO\SVILUPPI\MSX\CODE\C\MSXgl\projects\exsoccer/exsoccer_s2_b0.c:1684: g_Players[g_ThrowInPlayerId].TargetY = g_Ball.Y;
    000033A6 ED 4Br00r00      [20] 8908 	ld	bc, (_g_ThrowInPlayerId)
    000033AA 06 00            [ 7] 8909 	ld	b, #0x00
    000033AC 69               [ 4] 8910 	ld	l, c
    000033AD 60               [ 4] 8911 	ld	h, b
    000033AE 29               [11] 8912 	add	hl, hl
    000033AF 29               [11] 8913 	add	hl, hl
    000033B0 09               [11] 8914 	add	hl, bc
    000033B1 29               [11] 8915 	add	hl, hl
    000033B2 29               [11] 8916 	add	hl, hl
    000033B3 09               [11] 8917 	add	hl, bc
    000033B4 DD 75 FC         [19] 8918 	ld	-4 (ix), l
    000033B7 DD 74 FD         [19] 8919 	ld	-3 (ix), h
    000033BA 3Er00            [ 7] 8920 	ld	a, #<(_g_Players)
    000033BC DD 86 FC         [19] 8921 	add	a, -4 (ix)
    000033BF DD 77 FE         [19] 8922 	ld	-2 (ix), a
    000033C2 3Es00            [ 7] 8923 	ld	a, #>(_g_Players)
    000033C4 DD 8E FD         [19] 8924 	adc	a, -3 (ix)
    000033C7 DD 77 FF         [19] 8925 	ld	-1 (ix), a
    000033CA DD 7E FE         [19] 8926 	ld	a, -2 (ix)
    000033CD C6 0E            [ 7] 8927 	add	a, #0x0e
    000033CF DD 77 FC         [19] 8928 	ld	-4 (ix), a
    000033D2 DD 7E FF         [19] 8929 	ld	a, -1 (ix)
    000033D5 CE 00            [ 7] 8930 	adc	a, #0x00
    000033D7 DD 77 FD         [19] 8931 	ld	-3 (ix), a
    000033DA 21r00r00         [10] 8932 	ld	hl, #_g_Ball
    000033DD 7E               [ 7] 8933 	ld	a, (hl)
    000033DE DD 77 FE         [19] 8934 	ld	-2 (ix), a
    000033E1 23               [ 6] 8935 	inc	hl
    000033E2 7E               [ 7] 8936 	ld	a, (hl)
    000033E3 DD 77 FF         [19] 8937 	ld	-1 (ix), a
    000033E6 DD 6E FC         [19] 8938 	ld	l, -4 (ix)
    000033E9 DD 66 FD         [19] 8939 	ld	h, -3 (ix)
    000033EC DD 7E FE         [19] 8940 	ld	a, -2 (ix)
    000033EF 77               [ 7] 8941 	ld	(hl), a
    000033F0 23               [ 6] 8942 	inc	hl
    000033F1 DD 7E FF         [19] 8943 	ld	a, -1 (ix)
    000033F4 77               [ 7] 8944 	ld	(hl), a
                                   8945 ;E:\Dropbox\FAUSTO\SVILUPPI\MSX\CODE\C\MSXgl\projects\exsoccer/exsoccer_s2_b0.c:1685: g_Players[g_ThrowInPlayerId].Status = PLAYER_STATUS_NONE;
    000033F5 ED 4Br00r00      [20] 8946 	ld	bc, (_g_ThrowInPlayerId)
    000033F9 06 00            [ 7] 8947 	ld	b, #0x00
    000033FB 69               [ 4] 8948 	ld	l, c
    000033FC 60               [ 4] 8949 	ld	h, b
    000033FD 29               [11] 8950 	add	hl, hl
    000033FE 29               [11] 8951 	add	hl, hl
    000033FF 09               [11] 8952 	add	hl, bc
    00003400 29               [11] 8953 	add	hl, hl
    00003401 29               [11] 8954 	add	hl, hl
    00003402 09               [11] 8955 	add	hl, bc
    00003403 DD 75 FE         [19] 8956 	ld	-2 (ix), l
    00003406 DD 74 FF         [19] 8957 	ld	-1 (ix), h
    00003409 3Er00            [ 7] 8958 	ld	a, #<(_g_Players)
    0000340B DD 86 FE         [19] 8959 	add	a, -2 (ix)
    0000340E DD 77 FC         [19] 8960 	ld	-4 (ix), a
    00003411 3Es00            [ 7] 8961 	ld	a, #>(_g_Players)
    00003413 DD 8E FF         [19] 8962 	adc	a, -1 (ix)
    00003416 DD 77 FD         [19] 8963 	ld	-3 (ix), a
    00003419 DD 7E FC         [19] 8964 	ld	a, -4 (ix)
    0000341C C6 12            [ 7] 8965 	add	a, #0x12
    0000341E DD 77 FE         [19] 8966 	ld	-2 (ix), a
    00003421 DD 7E FD         [19] 8967 	ld	a, -3 (ix)
    00003424 CE 00            [ 7] 8968 	adc	a, #0x00
    00003426 DD 77 FF         [19] 8969 	ld	-1 (ix), a
    00003429 DD 6E FE         [19] 8970 	ld	l, -2 (ix)
    0000342C DD 66 FF         [19] 8971 	ld	h, -1 (ix)
    0000342F AF               [ 4] 8972 	xor	a, a
    00003430 77               [ 7] 8973 	ld	(hl), a
    00003431 23               [ 6] 8974 	inc	hl
    00003432 77               [ 7] 8975 	ld	(hl), a
                                   8976 ;E:\Dropbox\FAUSTO\SVILUPPI\MSX\CODE\C\MSXgl\projects\exsoccer/exsoccer_s2_b0.c:1686: if (g_Ball.X < FIELD_POS_X_CENTER) g_Players[g_ThrowInPlayerId].Direction = DIRECTION_RIGHT;
    00003433 21r02r00         [10] 8977 	ld	hl, #(_g_Ball + 2)
    00003436 7E               [ 7] 8978 	ld	a, (hl)
    00003437 DD 77 FE         [19] 8979 	ld	-2 (ix), a
    0000343A 23               [ 6] 8980 	inc	hl
    0000343B 7E               [ 7] 8981 	ld	a, (hl)
    0000343C DD 77 FF         [19] 8982 	ld	-1 (ix), a
    0000343F DD 7E FE         [19] 8983 	ld	a, -2 (ix)
    00003442 DD 77 FA         [19] 8984 	ld	-6 (ix), a
    00003445 DD 7E FF         [19] 8985 	ld	a, -1 (ix)
    00003448 DD 77 FB         [19] 8986 	ld	-5 (ix), a
                                   8987 ;E:\Dropbox\FAUSTO\SVILUPPI\MSX\CODE\C\MSXgl\projects\exsoccer/exsoccer_s2_b0.c:1683: g_Players[g_ThrowInPlayerId].TargetX = g_Ball.X;
    0000344B ED 4Br00r00      [20] 8988 	ld	bc, (_g_ThrowInPlayerId)
    0000344F 06 00            [ 7] 8989 	ld	b, #0x00
    00003451 69               [ 4] 8990 	ld	l, c
    00003452 60               [ 4] 8991 	ld	h, b
    00003453 29               [11] 8992 	add	hl, hl
    00003454 29               [11] 8993 	add	hl, hl
    00003455 09               [11] 8994 	add	hl, bc
    00003456 29               [11] 8995 	add	hl, hl
    00003457 29               [11] 8996 	add	hl, hl
    00003458 09               [11] 8997 	add	hl, bc
    00003459 DD 75 FE         [19] 8998 	ld	-2 (ix), l
    0000345C DD 74 FF         [19] 8999 	ld	-1 (ix), h
                                   9000 ;E:\Dropbox\FAUSTO\SVILUPPI\MSX\CODE\C\MSXgl\projects\exsoccer/exsoccer_s2_b0.c:1686: if (g_Ball.X < FIELD_POS_X_CENTER) g_Players[g_ThrowInPlayerId].Direction = DIRECTION_RIGHT;
    0000345F 3Er00            [ 7] 9001 	ld	a, #<(_g_Players)
    00003461 DD 86 FE         [19] 9002 	add	a, -2 (ix)
    00003464 DD 77 FC         [19] 9003 	ld	-4 (ix), a
    00003467 3Es00            [ 7] 9004 	ld	a, #>(_g_Players)
    00003469 DD 8E FF         [19] 9005 	adc	a, -1 (ix)
    0000346C DD 77 FD         [19] 9006 	ld	-3 (ix), a
    0000346F DD 7E FC         [19] 9007 	ld	a, -4 (ix)
    00003472 C6 0A            [ 7] 9008 	add	a, #0x0a
    00003474 DD 77 FE         [19] 9009 	ld	-2 (ix), a
    00003477 DD 7E FD         [19] 9010 	ld	a, -3 (ix)
    0000347A CE 00            [ 7] 9011 	adc	a, #0x00
    0000347C DD 77 FF         [19] 9012 	ld	-1 (ix), a
    0000347F DD 7E FA         [19] 9013 	ld	a, -6 (ix)
    00003482 D6 78            [ 7] 9014 	sub	a, #0x78
    00003484 DD 7E FB         [19] 9015 	ld	a, -5 (ix)
    00003487 DE 00            [ 7] 9016 	sbc	a, #0x00
    00003489 30 0B            [12] 9017 	jr	NC, 00148$
    0000348B DD 6E FE         [19] 9018 	ld	l, -2 (ix)
    0000348E DD 66 FF         [19] 9019 	ld	h, -1 (ix)
    00003491 36 03            [10] 9020 	ld	(hl), #0x03
    00003493 C3r9Er34         [10] 9021 	jp	00151$
    00003496                       9022 00148$:
                                   9023 ;E:\Dropbox\FAUSTO\SVILUPPI\MSX\CODE\C\MSXgl\projects\exsoccer/exsoccer_s2_b0.c:1687: else g_Players[g_ThrowInPlayerId].Direction = DIRECTION_LEFT;
    00003496 DD 6E FE         [19] 9024 	ld	l, -2 (ix)
    00003499 DD 66 FF         [19] 9025 	ld	h, -1 (ix)
    0000349C 36 07            [10] 9026 	ld	(hl), #0x07
    0000349E                       9027 00151$:
                                   9028 ;E:\Dropbox\FAUSTO\SVILUPPI\MSX\CODE\C\MSXgl\projects\exsoccer/exsoccer_s2_b0.c:1692: bool isLeft = (g_Ball.X < FIELD_POS_X_CENTER);
    0000349E 2Ar02r00         [16] 9029 	ld	hl, (#(_g_Ball + 2) + 0)
    000034A1 11 78 00         [10] 9030 	ld	de, #0x0078
    000034A4 BF               [ 4] 9031 	cp	a, a
    000034A5 ED 52            [15] 9032 	sbc	hl, de
    000034A7 3E 00            [ 7] 9033 	ld	a, #0x00
    000034A9 17               [ 4] 9034 	rla
    000034AA DD 77 FF         [19] 9035 	ld	-1 (ix), a
                                   9036 ;E:\Dropbox\FAUSTO\SVILUPPI\MSX\CODE\C\MSXgl\projects\exsoccer/exsoccer_s2_b0.c:1693: u8 crowdIds[4] = {t1, t2, o1, o2};
    000034AD DD 7E EA         [19] 9037 	ld	a, -22 (ix)
    000034B0 DD 77 D6         [19] 9038 	ld	-42 (ix), a
    000034B3 DD 7E EB         [19] 9039 	ld	a, -21 (ix)
    000034B6 DD 77 D7         [19] 9040 	ld	-41 (ix), a
    000034B9 DD 7E F0         [19] 9041 	ld	a, -16 (ix)
    000034BC DD 77 D8         [19] 9042 	ld	-40 (ix), a
    000034BF DD 7E F1         [19] 9043 	ld	a, -15 (ix)
    000034C2 DD 77 D9         [19] 9044 	ld	-39 (ix), a
                                   9045 ;E:\Dropbox\FAUSTO\SVILUPPI\MSX\CODE\C\MSXgl\projects\exsoccer/exsoccer_s2_b0.c:1696: i16 yOffsets[4] = {-30, 20, -15, 35}; 
    000034C5 DD 36 DA E2      [19] 9046 	ld	-38 (ix), #0xe2
    000034C9 DD 36 DB FF      [19] 9047 	ld	-37 (ix), #0xff
    000034CD DD 36 DC 14      [19] 9048 	ld	-36 (ix), #0x14
    000034D1 DD 36 DD 00      [19] 9049 	ld	-35 (ix), #0
    000034D5 DD 36 DE F1      [19] 9050 	ld	-34 (ix), #0xf1
    000034D9 DD 36 DF FF      [19] 9051 	ld	-33 (ix), #0xff
    000034DD DD 36 E0 23      [19] 9052 	ld	-32 (ix), #0x23
    000034E1 DD 36 E1 00      [19] 9053 	ld	-31 (ix), #0
                                   9054 ;E:\Dropbox\FAUSTO\SVILUPPI\MSX\CODE\C\MSXgl\projects\exsoccer/exsoccer_s2_b0.c:1697: u16 xOffsets[4] = {15, 35, 25, 45}; 
    000034E5 DD 36 E2 0F      [19] 9055 	ld	-30 (ix), #0x0f
    000034E9 DD 36 E3 00      [19] 9056 	ld	-29 (ix), #0
    000034ED DD 36 E4 23      [19] 9057 	ld	-28 (ix), #0x23
    000034F1 DD 36 E5 00      [19] 9058 	ld	-27 (ix), #0
    000034F5 DD 36 E6 19      [19] 9059 	ld	-26 (ix), #0x19
    000034F9 DD 36 E7 00      [19] 9060 	ld	-25 (ix), #0
    000034FD DD 36 E8 2D      [19] 9061 	ld	-24 (ix), #0x2d
    00003501 DD 36 E9 00      [19] 9062 	ld	-23 (ix), #0
                                   9063 ;E:\Dropbox\FAUSTO\SVILUPPI\MSX\CODE\C\MSXgl\projects\exsoccer/exsoccer_s2_b0.c:1699: for(u8 k=0; k<4; k++) {
    00003505 DD 36 FE 00      [19] 9064 	ld	-2 (ix), #0x00
    00003509                       9065 00264$:
    00003509 DD 7E FE         [19] 9066 	ld	a, -2 (ix)
    0000350C D6 04            [ 7] 9067 	sub	a, #0x04
    0000350E D2rDFr35         [10] 9068 	jp	NC, 00161$
                                   9069 ;E:\Dropbox\FAUSTO\SVILUPPI\MSX\CODE\C\MSXgl\projects\exsoccer/exsoccer_s2_b0.c:1700: u8 pid = crowdIds[k];
    00003511 DD 5E FE         [19] 9070 	ld	e, -2 (ix)
    00003514 16 00            [ 7] 9071 	ld	d, #0x00
    00003516 21 00 00         [10] 9072 	ld	hl, #0
    00003519 39               [11] 9073 	add	hl, sp
    0000351A 19               [11] 9074 	add	hl, de
    0000351B 7E               [ 7] 9075 	ld	a, (hl)
                                   9076 ;E:\Dropbox\FAUSTO\SVILUPPI\MSX\CODE\C\MSXgl\projects\exsoccer/exsoccer_s2_b0.c:1701: if(pid != NO_VALUE) {
    0000351C DD 77 FD         [19] 9077 	ld	-3 (ix), a
    0000351F 3C               [ 4] 9078 	inc	a
    00003520 CArD9r35         [10] 9079 	jp	Z,00265$
                                   9080 ;E:\Dropbox\FAUSTO\SVILUPPI\MSX\CODE\C\MSXgl\projects\exsoccer/exsoccer_s2_b0.c:1702: g_Players[pid].Status = PLAYER_STATUS_NONE;
    00003523 DD 4E FD         [19] 9081 	ld	c, -3 (ix)
    00003526 06 00            [ 7] 9082 	ld	b, #0x00
    00003528 69               [ 4] 9083 	ld	l, c
    00003529 60               [ 4] 9084 	ld	h, b
    0000352A 29               [11] 9085 	add	hl, hl
    0000352B 29               [11] 9086 	add	hl, hl
    0000352C 09               [11] 9087 	add	hl, bc
    0000352D 29               [11] 9088 	add	hl, hl
    0000352E 29               [11] 9089 	add	hl, hl
    0000352F 09               [11] 9090 	add	hl, bc
    00003530 11r00r00         [10] 9091 	ld	de, #_g_Players
    00003533 19               [11] 9092 	add	hl, de
    00003534 4D               [ 4] 9093 	ld	c, l
    00003535 44               [ 4] 9094 	ld	b, h
    00003536 21 12 00         [10] 9095 	ld	hl, #0x0012
    00003539 09               [11] 9096 	add	hl, bc
    0000353A AF               [ 4] 9097 	xor	a, a
    0000353B 77               [ 7] 9098 	ld	(hl), a
    0000353C 23               [ 6] 9099 	inc	hl
    0000353D 77               [ 7] 9100 	ld	(hl), a
                                   9101 ;E:\Dropbox\FAUSTO\SVILUPPI\MSX\CODE\C\MSXgl\projects\exsoccer/exsoccer_s2_b0.c:1705: i16 ty = (i16)g_Ball.Y + yOffsets[k];
    0000353E ED 5Br00r00      [20] 9102 	ld	de, (#_g_Ball + 0)
    00003542 DD 6E FE         [19] 9103 	ld	l, -2 (ix)
                                   9104 ;	spillPairReg hl
                                   9105 ;	spillPairReg hl
    00003545 26 00            [ 7] 9106 	ld	h, #0x00
                                   9107 ;	spillPairReg hl
                                   9108 ;	spillPairReg hl
    00003547 29               [11] 9109 	add	hl, hl
    00003548 DD 75 FA         [19] 9110 	ld	-6 (ix), l
    0000354B DD 74 FB         [19] 9111 	ld	-5 (ix), h
    0000354E D5               [11] 9112 	push	de
    0000354F DD 5E FA         [19] 9113 	ld	e, -6 (ix)
    00003552 DD 56 FB         [19] 9114 	ld	d, -5 (ix)
    00003555 21 06 00         [10] 9115 	ld	hl, #6
    00003558 39               [11] 9116 	add	hl, sp
    00003559 19               [11] 9117 	add	hl, de
    0000355A D1               [10] 9118 	pop	de
    0000355B 7E               [ 7] 9119 	ld	a, (hl)
    0000355C 23               [ 6] 9120 	inc	hl
    0000355D 66               [ 7] 9121 	ld	h, (hl)
                                   9122 ;	spillPairReg hl
    0000355E 6F               [ 4] 9123 	ld	l, a
                                   9124 ;	spillPairReg hl
                                   9125 ;	spillPairReg hl
    0000355F 19               [11] 9126 	add	hl, de
                                   9127 ;E:\Dropbox\FAUSTO\SVILUPPI\MSX\CODE\C\MSXgl\projects\exsoccer/exsoccer_s2_b0.c:1707: if(ty < FIELD_BOUND_Y_TOP) ty = FIELD_BOUND_Y_TOP;
                                   9128 ;	spillPairReg hl
                                   9129 ;	spillPairReg hl
    00003560 5D               [ 4] 9130 	ld	e, l
    00003561 54               [ 4] 9131 	ld	d, h
                                   9132 ;	spillPairReg hl
                                   9133 ;	spillPairReg hl
    00003562 7D               [ 4] 9134 	ld	a, l
    00003563 D6 32            [ 7] 9135 	sub	a, #0x32
    00003565 7C               [ 4] 9136 	ld	a, h
    00003566 17               [ 4] 9137 	rla
    00003567 3F               [ 4] 9138 	ccf
    00003568 1F               [ 4] 9139 	rra
    00003569 DE 80            [ 7] 9140 	sbc	a, #0x80
    0000356B 30 03            [12] 9141 	jr	NC, 00153$
    0000356D 11 32 00         [10] 9142 	ld	de, #0x0032
    00003570                       9143 00153$:
                                   9144 ;E:\Dropbox\FAUSTO\SVILUPPI\MSX\CODE\C\MSXgl\projects\exsoccer/exsoccer_s2_b0.c:1708: if(ty > FIELD_BOUND_Y_BOTTOM) ty = FIELD_BOUND_Y_BOTTOM;
    00003570 6B               [ 4] 9145 	ld	l, e
                                   9146 ;	spillPairReg hl
                                   9147 ;	spillPairReg hl
    00003571 62               [ 4] 9148 	ld	h, d
                                   9149 ;	spillPairReg hl
                                   9150 ;	spillPairReg hl
    00003572 3E AE            [ 7] 9151 	ld	a, #0xae
    00003574 BD               [ 4] 9152 	cp	a, l
    00003575 3E 01            [ 7] 9153 	ld	a, #0x01
    00003577 9C               [ 4] 9154 	sbc	a, h
    00003578 E2r7Dr35         [10] 9155 	jp	PO, 00724$
    0000357B EE 80            [ 7] 9156 	xor	a, #0x80
    0000357D                       9157 00724$:
    0000357D F2r83r35         [10] 9158 	jp	P, 00155$
    00003580 11 AE 01         [10] 9159 	ld	de, #0x01ae
    00003583                       9160 00155$:
                                   9161 ;E:\Dropbox\FAUSTO\SVILUPPI\MSX\CODE\C\MSXgl\projects\exsoccer/exsoccer_s2_b0.c:1709: g_Players[pid].TargetY = (u16)ty;
    00003583 21 0E 00         [10] 9162 	ld	hl, #0x000e
    00003586 09               [11] 9163 	add	hl, bc
    00003587 73               [ 7] 9164 	ld	(hl), e
    00003588 23               [ 6] 9165 	inc	hl
    00003589 72               [ 7] 9166 	ld	(hl), d
                                   9167 ;E:\Dropbox\FAUSTO\SVILUPPI\MSX\CODE\C\MSXgl\projects\exsoccer/exsoccer_s2_b0.c:1629: if (g_Ball.X < FIELD_POS_X_CENTER) {
    0000358A ED 5Br02r00      [20] 9168 	ld	de, (#(_g_Ball + 2) + 0)
                                   9169 ;E:\Dropbox\FAUSTO\SVILUPPI\MSX\CODE\C\MSXgl\projects\exsoccer/exsoccer_s2_b0.c:1713: g_Players[pid].TargetX = g_Ball.X + xOffsets[k];
    0000358E 21 10 00         [10] 9170 	ld	hl, #0x0010
    00003591 09               [11] 9171 	add	hl, bc
    00003592 DD 75 FC         [19] 9172 	ld	-4 (ix), l
    00003595 DD 74 FD         [19] 9173 	ld	-3 (ix), h
    00003598 D5               [11] 9174 	push	de
    00003599 DD 5E FA         [19] 9175 	ld	e, -6 (ix)
    0000359C DD 56 FB         [19] 9176 	ld	d, -5 (ix)
    0000359F 21 0E 00         [10] 9177 	ld	hl, #14
    000035A2 39               [11] 9178 	add	hl, sp
    000035A3 19               [11] 9179 	add	hl, de
    000035A4 D1               [10] 9180 	pop	de
                                   9181 ;E:\Dropbox\FAUSTO\SVILUPPI\MSX\CODE\C\MSXgl\projects\exsoccer/exsoccer_s2_b0.c:1714: g_Players[pid].Direction = DIRECTION_LEFT; // Look at thrower
    000035A5 79               [ 4] 9182 	ld	a, c
    000035A6 C6 0A            [ 7] 9183 	add	a, #0x0a
    000035A8 4F               [ 4] 9184 	ld	c, a
    000035A9 30 01            [12] 9185 	jr	NC, 00725$
    000035AB 04               [ 4] 9186 	inc	b
    000035AC                       9187 00725$:
                                   9188 ;E:\Dropbox\FAUSTO\SVILUPPI\MSX\CODE\C\MSXgl\projects\exsoccer/exsoccer_s2_b0.c:1713: g_Players[pid].TargetX = g_Ball.X + xOffsets[k];
    000035AC 7E               [ 7] 9189 	ld	a, (hl)
    000035AD 23               [ 6] 9190 	inc	hl
    000035AE 66               [ 7] 9191 	ld	h, (hl)
                                   9192 ;	spillPairReg hl
    000035AF 6F               [ 4] 9193 	ld	l, a
                                   9194 ;	spillPairReg hl
                                   9195 ;	spillPairReg hl
                                   9196 ;E:\Dropbox\FAUSTO\SVILUPPI\MSX\CODE\C\MSXgl\projects\exsoccer/exsoccer_s2_b0.c:1712: if (isLeft) {
    000035B0 DD 7E FF         [19] 9197 	ld	a, -1 (ix)
    000035B3 B7               [ 4] 9198 	or	a, a
    000035B4 28 11            [12] 9199 	jr	Z, 00157$
                                   9200 ;E:\Dropbox\FAUSTO\SVILUPPI\MSX\CODE\C\MSXgl\projects\exsoccer/exsoccer_s2_b0.c:1713: g_Players[pid].TargetX = g_Ball.X + xOffsets[k];
    000035B6 19               [11] 9201 	add	hl, de
    000035B7 EB               [ 4] 9202 	ex	de, hl
    000035B8 DD 6E FC         [19] 9203 	ld	l, -4 (ix)
    000035BB DD 66 FD         [19] 9204 	ld	h, -3 (ix)
    000035BE 73               [ 7] 9205 	ld	(hl), e
    000035BF 23               [ 6] 9206 	inc	hl
    000035C0 72               [ 7] 9207 	ld	(hl), d
                                   9208 ;E:\Dropbox\FAUSTO\SVILUPPI\MSX\CODE\C\MSXgl\projects\exsoccer/exsoccer_s2_b0.c:1714: g_Players[pid].Direction = DIRECTION_LEFT; // Look at thrower
    000035C1 3E 07            [ 7] 9209 	ld	a, #0x07
    000035C3 02               [ 7] 9210 	ld	(bc), a
    000035C4 C3rD9r35         [10] 9211 	jp	00265$
    000035C7                       9212 00157$:
                                   9213 ;E:\Dropbox\FAUSTO\SVILUPPI\MSX\CODE\C\MSXgl\projects\exsoccer/exsoccer_s2_b0.c:1716: g_Players[pid].TargetX = g_Ball.X - xOffsets[k];
    000035C7 7B               [ 4] 9214 	ld	a, e
    000035C8 95               [ 4] 9215 	sub	a, l
    000035C9 5F               [ 4] 9216 	ld	e, a
    000035CA 7A               [ 4] 9217 	ld	a, d
    000035CB 9C               [ 4] 9218 	sbc	a, h
    000035CC 57               [ 4] 9219 	ld	d, a
    000035CD DD 6E FC         [19] 9220 	ld	l, -4 (ix)
    000035D0 DD 66 FD         [19] 9221 	ld	h, -3 (ix)
    000035D3 73               [ 7] 9222 	ld	(hl), e
    000035D4 23               [ 6] 9223 	inc	hl
    000035D5 72               [ 7] 9224 	ld	(hl), d
                                   9225 ;E:\Dropbox\FAUSTO\SVILUPPI\MSX\CODE\C\MSXgl\projects\exsoccer/exsoccer_s2_b0.c:1717: g_Players[pid].Direction = DIRECTION_RIGHT; // Look at thrower
    000035D6 3E 03            [ 7] 9226 	ld	a, #0x03
    000035D8 02               [ 7] 9227 	ld	(bc), a
    000035D9                       9228 00265$:
                                   9229 ;E:\Dropbox\FAUSTO\SVILUPPI\MSX\CODE\C\MSXgl\projects\exsoccer/exsoccer_s2_b0.c:1699: for(u8 k=0; k<4; k++) {
    000035D9 DD 34 FE         [23] 9230 	inc	-2 (ix)
    000035DC C3r09r35         [10] 9231 	jp	00264$
    000035DF                       9232 00161$:
                                   9233 ;E:\Dropbox\FAUSTO\SVILUPPI\MSX\CODE\C\MSXgl\projects\exsoccer/exsoccer_s2_b0.c:1733: if (g_ThrowInPlayerId != NO_VALUE) {
    000035DF 3Ar00r00         [13] 9234 	ld	a, (_g_ThrowInPlayerId+0)
    000035E2 3C               [ 4] 9235 	inc	a
    000035E3 28 44            [12] 9236 	jr	Z, 00163$
                                   9237 ;E:\Dropbox\FAUSTO\SVILUPPI\MSX\CODE\C\MSXgl\projects\exsoccer/exsoccer_s2_b0.c:1734: g_Players[g_ThrowInPlayerId].TargetX = g_Ball.X;
    000035E5 ED 4Br00r00      [20] 9238 	ld	bc, (_g_ThrowInPlayerId)
    000035E9 06 00            [ 7] 9239 	ld	b, #0x00
    000035EB 69               [ 4] 9240 	ld	l, c
    000035EC 60               [ 4] 9241 	ld	h, b
    000035ED 29               [11] 9242 	add	hl, hl
    000035EE 29               [11] 9243 	add	hl, hl
    000035EF 09               [11] 9244 	add	hl, bc
    000035F0 29               [11] 9245 	add	hl, hl
    000035F1 29               [11] 9246 	add	hl, hl
    000035F2 09               [11] 9247 	add	hl, bc
    000035F3 EB               [ 4] 9248 	ex	de, hl
    000035F4 21r00r00         [10] 9249 	ld	hl, #_g_Players
    000035F7 19               [11] 9250 	add	hl, de
    000035F8 EB               [ 4] 9251 	ex	de, hl
    000035F9 21 10 00         [10] 9252 	ld	hl, #0x0010
    000035FC 19               [11] 9253 	add	hl, de
    000035FD EB               [ 4] 9254 	ex	de, hl
    000035FE ED 4Br02r00      [20] 9255 	ld	bc, (#(_g_Ball + 2) + 0)
    00003602 79               [ 4] 9256 	ld	a, c
    00003603 12               [ 7] 9257 	ld	(de), a
    00003604 13               [ 6] 9258 	inc	de
    00003605 78               [ 4] 9259 	ld	a, b
    00003606 12               [ 7] 9260 	ld	(de), a
                                   9261 ;E:\Dropbox\FAUSTO\SVILUPPI\MSX\CODE\C\MSXgl\projects\exsoccer/exsoccer_s2_b0.c:1735: g_Players[g_ThrowInPlayerId].TargetY = g_Ball.Y;
    00003607 ED 4Br00r00      [20] 9262 	ld	bc, (_g_ThrowInPlayerId)
    0000360B 06 00            [ 7] 9263 	ld	b, #0x00
    0000360D 69               [ 4] 9264 	ld	l, c
    0000360E 60               [ 4] 9265 	ld	h, b
    0000360F 29               [11] 9266 	add	hl, hl
    00003610 29               [11] 9267 	add	hl, hl
    00003611 09               [11] 9268 	add	hl, bc
    00003612 29               [11] 9269 	add	hl, hl
    00003613 29               [11] 9270 	add	hl, hl
    00003614 09               [11] 9271 	add	hl, bc
    00003615 EB               [ 4] 9272 	ex	de, hl
    00003616 21r00r00         [10] 9273 	ld	hl, #_g_Players
    00003619 19               [11] 9274 	add	hl, de
    0000361A EB               [ 4] 9275 	ex	de, hl
    0000361B 21 0E 00         [10] 9276 	ld	hl, #0x000e
    0000361E 19               [11] 9277 	add	hl, de
    0000361F EB               [ 4] 9278 	ex	de, hl
    00003620 ED 4Br00r00      [20] 9279 	ld	bc, (#_g_Ball + 0)
    00003624 79               [ 4] 9280 	ld	a, c
    00003625 12               [ 7] 9281 	ld	(de), a
    00003626 13               [ 6] 9282 	inc	de
    00003627 78               [ 4] 9283 	ld	a, b
    00003628 12               [ 7] 9284 	ld	(de), a
    00003629                       9285 00163$:
                                   9286 ;E:\Dropbox\FAUSTO\SVILUPPI\MSX\CODE\C\MSXgl\projects\exsoccer/exsoccer_s2_b0.c:1636: if (g_Ball.Y < FIELD_BOUND_Y_TOP) g_Ball.Y = FIELD_BOUND_Y_TOP;
    00003629 2Ar00r00         [16] 9287 	ld	hl, (#_g_Ball + 0)
                                   9288 ;E:\Dropbox\FAUSTO\SVILUPPI\MSX\CODE\C\MSXgl\projects\exsoccer/exsoccer_s2_b0.c:1739: if (g_Ball.Y < 140) ShowFieldZone(FIELD_NORTH_ZONE);
    0000362C 7D               [ 4] 9289 	ld	a, l
    0000362D D6 8C            [ 7] 9290 	sub	a, #0x8c
    0000362F 7C               [ 4] 9291 	ld	a, h
    00003630 DE 00            [ 7] 9292 	sbc	a, #0x00
    00003632 30 07            [12] 9293 	jr	NC, 00168$
    00003634 AF               [ 4] 9294 	xor	a, a
    00003635 CDrE3r12         [17] 9295 	call	_ShowFieldZone
    00003638 C3r50r36         [10] 9296 	jp	00171$
    0000363B                       9297 00168$:
                                   9298 ;E:\Dropbox\FAUSTO\SVILUPPI\MSX\CODE\C\MSXgl\projects\exsoccer/exsoccer_s2_b0.c:1740: else if (g_Ball.Y > 280) ShowFieldZone(FIELD_SOUTH_ZONE);
    0000363B 3E 18            [ 7] 9299 	ld	a, #0x18
    0000363D BD               [ 4] 9300 	cp	a, l
    0000363E 3E 01            [ 7] 9301 	ld	a, #0x01
    00003640 9C               [ 4] 9302 	sbc	a, h
    00003641 30 08            [12] 9303 	jr	NC, 00165$
    00003643 3E 02            [ 7] 9304 	ld	a, #0x02
    00003645 CDrE3r12         [17] 9305 	call	_ShowFieldZone
    00003648 C3r50r36         [10] 9306 	jp	00171$
    0000364B                       9307 00165$:
                                   9308 ;E:\Dropbox\FAUSTO\SVILUPPI\MSX\CODE\C\MSXgl\projects\exsoccer/exsoccer_s2_b0.c:1741: else ShowFieldZone(FIELD_CENTRAL_ZONE);
    0000364B 3E 01            [ 7] 9309 	ld	a, #0x01
    0000364D CDrE3r12         [17] 9310 	call	_ShowFieldZone
    00003650                       9311 00171$:
                                   9312 ;E:\Dropbox\FAUSTO\SVILUPPI\MSX\CODE\C\MSXgl\projects\exsoccer/exsoccer_s2_b0.c:1745: if (g_ThrowInPlayerId != NO_VALUE) {
    00003650 3Ar00r00         [13] 9313 	ld	a, (_g_ThrowInPlayerId+0)
    00003653 3C               [ 4] 9314 	inc	a
    00003654 CArA4r3C         [10] 9315 	jp	Z,00269$
                                   9316 ;E:\Dropbox\FAUSTO\SVILUPPI\MSX\CODE\C\MSXgl\projects\exsoccer/exsoccer_s2_b0.c:1746: i16 dx = (i16)g_Players[g_ThrowInPlayerId].X - (i16)g_Players[g_ThrowInPlayerId].TargetX;
    00003657 ED 4Br00r00      [20] 9317 	ld	bc, (_g_ThrowInPlayerId)
    0000365B 06 00            [ 7] 9318 	ld	b, #0x00
    0000365D 69               [ 4] 9319 	ld	l, c
    0000365E 60               [ 4] 9320 	ld	h, b
    0000365F 29               [11] 9321 	add	hl, hl
    00003660 29               [11] 9322 	add	hl, hl
    00003661 09               [11] 9323 	add	hl, bc
    00003662 29               [11] 9324 	add	hl, hl
    00003663 29               [11] 9325 	add	hl, hl
    00003664 09               [11] 9326 	add	hl, bc
    00003665 EB               [ 4] 9327 	ex	de, hl
    00003666 21r00r00         [10] 9328 	ld	hl, #_g_Players
    00003669 19               [11] 9329 	add	hl, de
    0000366A EB               [ 4] 9330 	ex	de, hl
    0000366B 21 02 00         [10] 9331 	ld	hl, #0x0002
    0000366E 19               [11] 9332 	add	hl, de
    0000366F DD 75 FA         [19] 9333 	ld	-6 (ix), l
    00003672 DD 74 FB         [19] 9334 	ld	-5 (ix), h
    00003675 4E               [ 7] 9335 	ld	c, (hl)
    00003676 23               [ 6] 9336 	inc	hl
    00003677 46               [ 7] 9337 	ld	b, (hl)
    00003678 6B               [ 4] 9338 	ld	l, e
                                   9339 ;	spillPairReg hl
                                   9340 ;	spillPairReg hl
    00003679 62               [ 4] 9341 	ld	h, d
                                   9342 ;	spillPairReg hl
                                   9343 ;	spillPairReg hl
    0000367A C5               [11] 9344 	push	bc
    0000367B 01 10 00         [10] 9345 	ld	bc, #0x0010
    0000367E 09               [11] 9346 	add	hl, bc
    0000367F C1               [10] 9347 	pop	bc
    00003680 7E               [ 7] 9348 	ld	a, (hl)
    00003681 DD 77 FC         [19] 9349 	ld	-4 (ix), a
    00003684 23               [ 6] 9350 	inc	hl
    00003685 7E               [ 7] 9351 	ld	a, (hl)
    00003686 DD 77 FD         [19] 9352 	ld	-3 (ix), a
    00003689 DD 6E FC         [19] 9353 	ld	l, -4 (ix)
                                   9354 ;	spillPairReg hl
                                   9355 ;	spillPairReg hl
    0000368C DD 66 FD         [19] 9356 	ld	h, -3 (ix)
                                   9357 ;	spillPairReg hl
                                   9358 ;	spillPairReg hl
    0000368F 79               [ 4] 9359 	ld	a, c
    00003690 95               [ 4] 9360 	sub	a, l
    00003691 4F               [ 4] 9361 	ld	c, a
    00003692 78               [ 4] 9362 	ld	a, b
    00003693 9C               [ 4] 9363 	sbc	a, h
    00003694 47               [ 4] 9364 	ld	b, a
                                   9365 ;E:\Dropbox\FAUSTO\SVILUPPI\MSX\CODE\C\MSXgl\projects\exsoccer/exsoccer_s2_b0.c:1747: i16 dy = (i16)g_Players[g_ThrowInPlayerId].Y - (i16)g_Players[g_ThrowInPlayerId].TargetY;
    00003695 6B               [ 4] 9366 	ld	l, e
    00003696 62               [ 4] 9367 	ld	h, d
    00003697 23               [ 6] 9368 	inc	hl
    00003698 7E               [ 7] 9369 	ld	a, (hl)
    00003699 2B               [ 6] 9370 	dec	hl
    0000369A 6E               [ 7] 9371 	ld	l, (hl)
                                   9372 ;	spillPairReg hl
    0000369B DD 75 FE         [19] 9373 	ld	-2 (ix), l
    0000369E DD 77 FF         [19] 9374 	ld	-1 (ix), a
    000036A1 21 0E 00         [10] 9375 	ld	hl, #14
    000036A4 19               [11] 9376 	add	hl, de
    000036A5 5E               [ 7] 9377 	ld	e, (hl)
    000036A6 23               [ 6] 9378 	inc	hl
    000036A7 56               [ 7] 9379 	ld	d, (hl)
    000036A8 DD 7E FE         [19] 9380 	ld	a, -2 (ix)
    000036AB 93               [ 4] 9381 	sub	a, e
    000036AC 5F               [ 4] 9382 	ld	e, a
    000036AD DD 7E FF         [19] 9383 	ld	a, -1 (ix)
    000036B0 9A               [ 4] 9384 	sbc	a, d
    000036B1 57               [ 4] 9385 	ld	d, a
                                   9386 ;E:\Dropbox\FAUSTO\SVILUPPI\MSX\CODE\C\MSXgl\projects\exsoccer/exsoccer_s2_b0.c:1749: if (dx >= -4 && dx <= 4 && dy >= -4 && dy <= 4) {
    000036B2 79               [ 4] 9387 	ld	a, c
    000036B3 D6 FC            [ 7] 9388 	sub	a, #0xfc
    000036B5 78               [ 4] 9389 	ld	a, b
    000036B6 17               [ 4] 9390 	rla
    000036B7 3F               [ 4] 9391 	ccf
    000036B8 1F               [ 4] 9392 	rra
    000036B9 DE 7F            [ 7] 9393 	sbc	a, #0x7f
    000036BB DAr9Fr3C         [10] 9394 	jp	C, 00251$
    000036BE 3E 04            [ 7] 9395 	ld	a, #0x04
    000036C0 B9               [ 4] 9396 	cp	a, c
    000036C1 3E 00            [ 7] 9397 	ld	a, #0x00
    000036C3 98               [ 4] 9398 	sbc	a, b
    000036C4 E2rC9r36         [10] 9399 	jp	PO, 00728$
    000036C7 EE 80            [ 7] 9400 	xor	a, #0x80
    000036C9                       9401 00728$:
    000036C9 FAr9Fr3C         [10] 9402 	jp	M, 00251$
    000036CC 7B               [ 4] 9403 	ld	a, e
    000036CD D6 FC            [ 7] 9404 	sub	a, #0xfc
    000036CF 7A               [ 4] 9405 	ld	a, d
    000036D0 17               [ 4] 9406 	rla
    000036D1 3F               [ 4] 9407 	ccf
    000036D2 1F               [ 4] 9408 	rra
    000036D3 DE 7F            [ 7] 9409 	sbc	a, #0x7f
    000036D5 DAr9Fr3C         [10] 9410 	jp	C, 00251$
    000036D8 3E 04            [ 7] 9411 	ld	a, #0x04
    000036DA BB               [ 4] 9412 	cp	a, e
    000036DB 3E 00            [ 7] 9413 	ld	a, #0x00
    000036DD 9A               [ 4] 9414 	sbc	a, d
    000036DE E2rE3r36         [10] 9415 	jp	PO, 00729$
    000036E1 EE 80            [ 7] 9416 	xor	a, #0x80
    000036E3                       9417 00729$:
    000036E3 FAr9Fr3C         [10] 9418 	jp	M, 00251$
                                   9419 ;E:\Dropbox\FAUSTO\SVILUPPI\MSX\CODE\C\MSXgl\projects\exsoccer/exsoccer_s2_b0.c:1750: g_Players[g_ThrowInPlayerId].X = g_Players[g_ThrowInPlayerId].TargetX;
    000036E6 DD 6E FA         [19] 9420 	ld	l, -6 (ix)
    000036E9 DD 66 FB         [19] 9421 	ld	h, -5 (ix)
    000036EC DD 7E FC         [19] 9422 	ld	a, -4 (ix)
    000036EF 77               [ 7] 9423 	ld	(hl), a
    000036F0 23               [ 6] 9424 	inc	hl
    000036F1 DD 7E FD         [19] 9425 	ld	a, -3 (ix)
    000036F4 77               [ 7] 9426 	ld	(hl), a
                                   9427 ;E:\Dropbox\FAUSTO\SVILUPPI\MSX\CODE\C\MSXgl\projects\exsoccer/exsoccer_s2_b0.c:1751: g_Players[g_ThrowInPlayerId].Y = g_Players[g_ThrowInPlayerId].TargetY;
    000036F5 ED 4Br00r00      [20] 9428 	ld	bc, (_g_ThrowInPlayerId)
    000036F9 06 00            [ 7] 9429 	ld	b, #0x00
    000036FB 69               [ 4] 9430 	ld	l, c
    000036FC 60               [ 4] 9431 	ld	h, b
    000036FD 29               [11] 9432 	add	hl, hl
    000036FE 29               [11] 9433 	add	hl, hl
    000036FF 09               [11] 9434 	add	hl, bc
    00003700 29               [11] 9435 	add	hl, hl
    00003701 29               [11] 9436 	add	hl, hl
    00003702 09               [11] 9437 	add	hl, bc
    00003703 EB               [ 4] 9438 	ex	de, hl
    00003704 21r00r00         [10] 9439 	ld	hl, #_g_Players
    00003707 19               [11] 9440 	add	hl, de
    00003708 EB               [ 4] 9441 	ex	de, hl
    00003709 4B               [ 4] 9442 	ld	c, e
    0000370A 42               [ 4] 9443 	ld	b, d
    0000370B 21 0E 00         [10] 9444 	ld	hl, #14
    0000370E 09               [11] 9445 	add	hl, bc
    0000370F 4E               [ 7] 9446 	ld	c, (hl)
    00003710 23               [ 6] 9447 	inc	hl
    00003711 46               [ 7] 9448 	ld	b, (hl)
    00003712 79               [ 4] 9449 	ld	a, c
    00003713 12               [ 7] 9450 	ld	(de), a
    00003714 13               [ 6] 9451 	inc	de
    00003715 78               [ 4] 9452 	ld	a, b
    00003716 12               [ 7] 9453 	ld	(de), a
                                   9454 ;E:\Dropbox\FAUSTO\SVILUPPI\MSX\CODE\C\MSXgl\projects\exsoccer/exsoccer_s2_b0.c:1752: g_Players[g_ThrowInPlayerId].Status = PLAYER_STATUS_POSITIONED;
    00003717 ED 4Br00r00      [20] 9455 	ld	bc, (_g_ThrowInPlayerId)
    0000371B 06 00            [ 7] 9456 	ld	b, #0x00
    0000371D 69               [ 4] 9457 	ld	l, c
    0000371E 60               [ 4] 9458 	ld	h, b
    0000371F 29               [11] 9459 	add	hl, hl
    00003720 29               [11] 9460 	add	hl, hl
    00003721 09               [11] 9461 	add	hl, bc
    00003722 29               [11] 9462 	add	hl, hl
    00003723 29               [11] 9463 	add	hl, hl
    00003724 09               [11] 9464 	add	hl, bc
    00003725 11r00r00         [10] 9465 	ld	de, #_g_Players
    00003728 19               [11] 9466 	add	hl, de
    00003729 01 12 00         [10] 9467 	ld	bc, #0x0012
    0000372C 09               [11] 9468 	add	hl, bc
    0000372D 36 04            [10] 9469 	ld	(hl), #0x04
    0000372F 23               [ 6] 9470 	inc	hl
    00003730 36 00            [10] 9471 	ld	(hl), #0x00
                                   9472 ;E:\Dropbox\FAUSTO\SVILUPPI\MSX\CODE\C\MSXgl\projects\exsoccer/exsoccer_s2_b0.c:1755: if(g_Ball.X < FIELD_POS_X_CENTER) {
    00003732 ED 4Br02r00      [20] 9473 	ld	bc, (#(_g_Ball + 2) + 0)
                                   9474 ;E:\Dropbox\FAUSTO\SVILUPPI\MSX\CODE\C\MSXgl\projects\exsoccer/exsoccer_s2_b0.c:1683: g_Players[g_ThrowInPlayerId].TargetX = g_Ball.X;
    00003736 ED 5Br00r00      [20] 9475 	ld	de, (_g_ThrowInPlayerId)
    0000373A 16 00            [ 7] 9476 	ld	d, #0x00
    0000373C 6B               [ 4] 9477 	ld	l, e
    0000373D 62               [ 4] 9478 	ld	h, d
    0000373E 29               [11] 9479 	add	hl, hl
    0000373F 29               [11] 9480 	add	hl, hl
    00003740 19               [11] 9481 	add	hl, de
    00003741 29               [11] 9482 	add	hl, hl
    00003742 29               [11] 9483 	add	hl, hl
    00003743 19               [11] 9484 	add	hl, de
                                   9485 ;E:\Dropbox\FAUSTO\SVILUPPI\MSX\CODE\C\MSXgl\projects\exsoccer/exsoccer_s2_b0.c:1756: g_Players[g_ThrowInPlayerId].PatternId = PLAYER_POSE_THROWIN_LEFT_1;
    00003744 11r00r00         [10] 9486 	ld	de, #_g_Players
    00003747 19               [11] 9487 	add	hl, de
    00003748 11 08 00         [10] 9488 	ld	de, #0x0008
    0000374B 19               [11] 9489 	add	hl, de
    0000374C DD 75 FE         [19] 9490 	ld	-2 (ix), l
    0000374F DD 74 FF         [19] 9491 	ld	-1 (ix), h
                                   9492 ;E:\Dropbox\FAUSTO\SVILUPPI\MSX\CODE\C\MSXgl\projects\exsoccer/exsoccer_s2_b0.c:1755: if(g_Ball.X < FIELD_POS_X_CENTER) {
    00003752 79               [ 4] 9493 	ld	a, c
    00003753 D6 78            [ 7] 9494 	sub	a, #0x78
    00003755 78               [ 4] 9495 	ld	a, b
    00003756 DE 00            [ 7] 9496 	sbc	a, #0x00
    00003758 30 23            [12] 9497 	jr	NC, 00173$
                                   9498 ;E:\Dropbox\FAUSTO\SVILUPPI\MSX\CODE\C\MSXgl\projects\exsoccer/exsoccer_s2_b0.c:1756: g_Players[g_ThrowInPlayerId].PatternId = PLAYER_POSE_THROWIN_LEFT_1;
    0000375A DD 6E FE         [19] 9499 	ld	l, -2 (ix)
    0000375D DD 66 FF         [19] 9500 	ld	h, -1 (ix)
    00003760 36 93            [10] 9501 	ld	(hl), #0x93
                                   9502 ;E:\Dropbox\FAUSTO\SVILUPPI\MSX\CODE\C\MSXgl\projects\exsoccer/exsoccer_s2_b0.c:1757: g_Players[g_ThrowInPlayerId].Direction = DIRECTION_RIGHT;
    00003762 ED 4Br00r00      [20] 9503 	ld	bc, (_g_ThrowInPlayerId)
    00003766 06 00            [ 7] 9504 	ld	b, #0x00
    00003768 69               [ 4] 9505 	ld	l, c
    00003769 60               [ 4] 9506 	ld	h, b
    0000376A 29               [11] 9507 	add	hl, hl
    0000376B 29               [11] 9508 	add	hl, hl
    0000376C 09               [11] 9509 	add	hl, bc
    0000376D 29               [11] 9510 	add	hl, hl
    0000376E 29               [11] 9511 	add	hl, hl
    0000376F 09               [11] 9512 	add	hl, bc
    00003770 11r00r00         [10] 9513 	ld	de, #_g_Players
    00003773 19               [11] 9514 	add	hl, de
    00003774 01 0A 00         [10] 9515 	ld	bc, #0x000a
    00003777 09               [11] 9516 	add	hl, bc
    00003778 36 03            [10] 9517 	ld	(hl), #0x03
    0000377A C3r9Dr37         [10] 9518 	jp	00174$
    0000377D                       9519 00173$:
                                   9520 ;E:\Dropbox\FAUSTO\SVILUPPI\MSX\CODE\C\MSXgl\projects\exsoccer/exsoccer_s2_b0.c:1759: g_Players[g_ThrowInPlayerId].PatternId = PLAYER_POSE_THROWIN_RIGHT_1;
    0000377D DD 6E FE         [19] 9521 	ld	l, -2 (ix)
    00003780 DD 66 FF         [19] 9522 	ld	h, -1 (ix)
    00003783 36 1C            [10] 9523 	ld	(hl), #0x1c
                                   9524 ;E:\Dropbox\FAUSTO\SVILUPPI\MSX\CODE\C\MSXgl\projects\exsoccer/exsoccer_s2_b0.c:1760: g_Players[g_ThrowInPlayerId].Direction = DIRECTION_LEFT;
    00003785 ED 4Br00r00      [20] 9525 	ld	bc, (_g_ThrowInPlayerId)
    00003789 06 00            [ 7] 9526 	ld	b, #0x00
    0000378B 69               [ 4] 9527 	ld	l, c
    0000378C 60               [ 4] 9528 	ld	h, b
    0000378D 29               [11] 9529 	add	hl, hl
    0000378E 29               [11] 9530 	add	hl, hl
    0000378F 09               [11] 9531 	add	hl, bc
    00003790 29               [11] 9532 	add	hl, hl
    00003791 29               [11] 9533 	add	hl, hl
    00003792 09               [11] 9534 	add	hl, bc
    00003793 11r00r00         [10] 9535 	ld	de, #_g_Players
    00003796 19               [11] 9536 	add	hl, de
    00003797 01 0A 00         [10] 9537 	ld	bc, #0x000a
    0000379A 09               [11] 9538 	add	hl, bc
    0000379B 36 07            [10] 9539 	ld	(hl), #0x07
    0000379D                       9540 00174$:
                                   9541 ;E:\Dropbox\FAUSTO\SVILUPPI\MSX\CODE\C\MSXgl\projects\exsoccer/exsoccer_s2_b0.c:1764: g_Ball.X = g_Players[g_ThrowInPlayerId].X;
    0000379D ED 4Br00r00      [20] 9542 	ld	bc, (_g_ThrowInPlayerId)
    000037A1 06 00            [ 7] 9543 	ld	b, #0x00
    000037A3 69               [ 4] 9544 	ld	l, c
    000037A4 60               [ 4] 9545 	ld	h, b
    000037A5 29               [11] 9546 	add	hl, hl
    000037A6 29               [11] 9547 	add	hl, hl
    000037A7 09               [11] 9548 	add	hl, bc
    000037A8 29               [11] 9549 	add	hl, hl
    000037A9 29               [11] 9550 	add	hl, hl
    000037AA 09               [11] 9551 	add	hl, bc
    000037AB 11r00r00         [10] 9552 	ld	de, #_g_Players
    000037AE 19               [11] 9553 	add	hl, de
    000037AF 23               [ 6] 9554 	inc	hl
    000037B0 23               [ 6] 9555 	inc	hl
    000037B1 4E               [ 7] 9556 	ld	c, (hl)
    000037B2 23               [ 6] 9557 	inc	hl
    000037B3 46               [ 7] 9558 	ld	b, (hl)
    000037B4 ED 43r02r00      [20] 9559 	ld	((_g_Ball + 2)), bc
                                   9560 ;E:\Dropbox\FAUSTO\SVILUPPI\MSX\CODE\C\MSXgl\projects\exsoccer/exsoccer_s2_b0.c:1766: if(g_Ball.X < FIELD_POS_X_CENTER) g_Ball.Y = g_Players[g_ThrowInPlayerId].Y - 14; 
                                   9561 ;E:\Dropbox\FAUSTO\SVILUPPI\MSX\CODE\C\MSXgl\projects\exsoccer/exsoccer_s2_b0.c:1683: g_Players[g_ThrowInPlayerId].TargetX = g_Ball.X;
    000037B8 ED 5Br00r00      [20] 9562 	ld	de, (_g_ThrowInPlayerId)
    000037BC 16 00            [ 7] 9563 	ld	d, #0x00
    000037BE 6B               [ 4] 9564 	ld	l, e
    000037BF 62               [ 4] 9565 	ld	h, d
    000037C0 29               [11] 9566 	add	hl, hl
    000037C1 29               [11] 9567 	add	hl, hl
    000037C2 19               [11] 9568 	add	hl, de
    000037C3 29               [11] 9569 	add	hl, hl
    000037C4 29               [11] 9570 	add	hl, hl
    000037C5 19               [11] 9571 	add	hl, de
                                   9572 ;E:\Dropbox\FAUSTO\SVILUPPI\MSX\CODE\C\MSXgl\projects\exsoccer/exsoccer_s2_b0.c:1756: g_Players[g_ThrowInPlayerId].PatternId = PLAYER_POSE_THROWIN_LEFT_1;
    000037C6 11r00r00         [10] 9573 	ld	de, #_g_Players
    000037C9 19               [11] 9574 	add	hl, de
                                   9575 ;E:\Dropbox\FAUSTO\SVILUPPI\MSX\CODE\C\MSXgl\projects\exsoccer/exsoccer_s2_b0.c:1766: if(g_Ball.X < FIELD_POS_X_CENTER) g_Ball.Y = g_Players[g_ThrowInPlayerId].Y - 14; 
    000037CA 7E               [ 7] 9576 	ld	a, (hl)
    000037CB 23               [ 6] 9577 	inc	hl
    000037CC 5E               [ 7] 9578 	ld	e, (hl)
    000037CD DD 77 FE         [19] 9579 	ld	-2 (ix), a
    000037D0 DD 73 FF         [19] 9580 	ld	-1 (ix), e
    000037D3 79               [ 4] 9581 	ld	a, c
    000037D4 D6 78            [ 7] 9582 	sub	a, #0x78
    000037D6 78               [ 4] 9583 	ld	a, b
    000037D7 DE 00            [ 7] 9584 	sbc	a, #0x00
    000037D9 30 13            [12] 9585 	jr	NC, 00176$
    000037DB DD 7E FE         [19] 9586 	ld	a, -2 (ix)
    000037DE C6 F2            [ 7] 9587 	add	a, #0xf2
    000037E0 4F               [ 4] 9588 	ld	c, a
    000037E1 DD 7E FF         [19] 9589 	ld	a, -1 (ix)
    000037E4 CE FF            [ 7] 9590 	adc	a, #0xff
    000037E6 47               [ 4] 9591 	ld	b, a
    000037E7 ED 43r00r00      [20] 9592 	ld	(_g_Ball), bc
    000037EB C3rFEr37         [10] 9593 	jp	00177$
    000037EE                       9594 00176$:
                                   9595 ;E:\Dropbox\FAUSTO\SVILUPPI\MSX\CODE\C\MSXgl\projects\exsoccer/exsoccer_s2_b0.c:1767: else g_Ball.Y = g_Players[g_ThrowInPlayerId].Y - 12;
    000037EE DD 7E FE         [19] 9596 	ld	a, -2 (ix)
    000037F1 C6 F4            [ 7] 9597 	add	a, #0xf4
    000037F3 4F               [ 4] 9598 	ld	c, a
    000037F4 DD 7E FF         [19] 9599 	ld	a, -1 (ix)
    000037F7 CE FF            [ 7] 9600 	adc	a, #0xff
    000037F9 47               [ 4] 9601 	ld	b, a
    000037FA ED 43r00r00      [20] 9602 	ld	(_g_Ball), bc
    000037FE                       9603 00177$:
                                   9604 ;E:\Dropbox\FAUSTO\SVILUPPI\MSX\CODE\C\MSXgl\projects\exsoccer/exsoccer_s2_b0.c:1769: g_Ball.Size = 1;
    000037FE 21r04r00         [10] 9605 	ld	hl, #(_g_Ball + 4)
                                   9606 ;E:\Dropbox\FAUSTO\SVILUPPI\MSX\CODE\C\MSXgl\projects\exsoccer/exsoccer_s2_b0.c:1773: u8 crowdReady = 1;
    00003801 36 01            [10] 9607 	ld	(hl), #0x01
    00003803 4E               [ 7] 9608 	ld	c, (hl)
                                   9609 ;E:\Dropbox\FAUSTO\SVILUPPI\MSX\CODE\C\MSXgl\projects\exsoccer/exsoccer_s2_b0.c:1775: for(i=0; i<14; i++) {
    00003804 DD 36 FF 00      [19] 9610 	ld	-1 (ix), #0x00
    00003808                       9611 00266$:
                                   9612 ;E:\Dropbox\FAUSTO\SVILUPPI\MSX\CODE\C\MSXgl\projects\exsoccer/exsoccer_s2_b0.c:1777: u16 tdx = (g_Players[i].TargetX > g_Ball.X) ? (g_Players[i].TargetX - g_Ball.X) : (g_Ball.X - g_Players[i].TargetX);
    00003808 DD 5E FF         [19] 9613 	ld	e, -1 (ix)
    0000380B 16 00            [ 7] 9614 	ld	d, #0x00
    0000380D 6B               [ 4] 9615 	ld	l, e
    0000380E 62               [ 4] 9616 	ld	h, d
    0000380F 29               [11] 9617 	add	hl, hl
    00003810 29               [11] 9618 	add	hl, hl
    00003811 19               [11] 9619 	add	hl, de
    00003812 29               [11] 9620 	add	hl, hl
    00003813 29               [11] 9621 	add	hl, hl
    00003814 19               [11] 9622 	add	hl, de
    00003815 11r00r00         [10] 9623 	ld	de, #_g_Players
    00003818 19               [11] 9624 	add	hl, de
    00003819 DD 75 F3         [19] 9625 	ld	-13 (ix), l
    0000381C DD 74 F4         [19] 9626 	ld	-12 (ix), h
    0000381F 11 10 00         [10] 9627 	ld	de, #16
    00003822 19               [11] 9628 	add	hl, de
    00003823 7E               [ 7] 9629 	ld	a, (hl)
    00003824 DD 77 F5         [19] 9630 	ld	-11 (ix), a
    00003827 23               [ 6] 9631 	inc	hl
    00003828 7E               [ 7] 9632 	ld	a, (hl)
    00003829 DD 77 F6         [19] 9633 	ld	-10 (ix), a
                                   9634 ;E:\Dropbox\FAUSTO\SVILUPPI\MSX\CODE\C\MSXgl\projects\exsoccer/exsoccer_s2_b0.c:1755: if(g_Ball.X < FIELD_POS_X_CENTER) {
    0000382C 2Ar02r00         [16] 9635 	ld	hl, (#(_g_Ball + 2) + 0)
                                   9636 ;E:\Dropbox\FAUSTO\SVILUPPI\MSX\CODE\C\MSXgl\projects\exsoccer/exsoccer_s2_b0.c:1777: u16 tdx = (g_Players[i].TargetX > g_Ball.X) ? (g_Players[i].TargetX - g_Ball.X) : (g_Ball.X - g_Players[i].TargetX);
    0000382F 7D               [ 4] 9637 	ld	a, l
    00003830 DD 96 F5         [19] 9638 	sub	a, -11 (ix)
    00003833 7C               [ 4] 9639 	ld	a, h
    00003834 DD 9E F6         [19] 9640 	sbc	a, -10 (ix)
    00003837 30 0C            [12] 9641 	jr	NC, 00271$
    00003839 DD 7E F5         [19] 9642 	ld	a, -11 (ix)
    0000383C 95               [ 4] 9643 	sub	a, l
    0000383D 47               [ 4] 9644 	ld	b, a
    0000383E DD 7E F6         [19] 9645 	ld	a, -10 (ix)
    00003841 9C               [ 4] 9646 	sbc	a, h
    00003842 C3r4Er38         [10] 9647 	jp	00272$
    00003845                       9648 00271$:
    00003845 7D               [ 4] 9649 	ld	a, l
    00003846 DD 96 F5         [19] 9650 	sub	a, -11 (ix)
    00003849 47               [ 4] 9651 	ld	b, a
    0000384A 7C               [ 4] 9652 	ld	a, h
    0000384B DD 9E F6         [19] 9653 	sbc	a, -10 (ix)
    0000384E                       9654 00272$:
    0000384E DD 70 FB         [19] 9655 	ld	-5 (ix), b
    00003851 DD 77 FC         [19] 9656 	ld	-4 (ix), a
                                   9657 ;E:\Dropbox\FAUSTO\SVILUPPI\MSX\CODE\C\MSXgl\projects\exsoccer/exsoccer_s2_b0.c:1778: u16 tdy = (g_Players[i].TargetY > g_Ball.Y) ? (g_Players[i].TargetY - g_Ball.Y) : (g_Ball.Y - g_Players[i].TargetY);
    00003854 DD 7E F3         [19] 9658 	ld	a, -13 (ix)
    00003857 C6 0E            [ 7] 9659 	add	a, #0x0e
    00003859 DD 77 F7         [19] 9660 	ld	-9 (ix), a
    0000385C DD 7E F4         [19] 9661 	ld	a, -12 (ix)
    0000385F CE 00            [ 7] 9662 	adc	a, #0x00
    00003861 DD 77 F8         [19] 9663 	ld	-8 (ix), a
                                   9664 ;E:\Dropbox\FAUSTO\SVILUPPI\MSX\CODE\C\MSXgl\projects\exsoccer/exsoccer_s2_b0.c:1785: i16 pdy = (i16)g_Players[i].Y - (i16)g_Players[i].TargetY;
    00003864 DD 6E F7         [19] 9665 	ld	l, -9 (ix)
    00003867 DD 66 F8         [19] 9666 	ld	h, -8 (ix)
    0000386A 7E               [ 7] 9667 	ld	a, (hl)
    0000386B DD 77 FD         [19] 9668 	ld	-3 (ix), a
    0000386E 23               [ 6] 9669 	inc	hl
    0000386F 7E               [ 7] 9670 	ld	a, (hl)
    00003870 DD 77 FE         [19] 9671 	ld	-2 (ix), a
                                   9672 ;E:\Dropbox\FAUSTO\SVILUPPI\MSX\CODE\C\MSXgl\projects\exsoccer/exsoccer_s2_b0.c:1778: u16 tdy = (g_Players[i].TargetY > g_Ball.Y) ? (g_Players[i].TargetY - g_Ball.Y) : (g_Ball.Y - g_Players[i].TargetY);
    00003873 2Ar00r00         [16] 9673 	ld	hl, (#_g_Ball + 0)
    00003876 7D               [ 4] 9674 	ld	a, l
    00003877 DD 96 FD         [19] 9675 	sub	a, -3 (ix)
    0000387A 7C               [ 4] 9676 	ld	a, h
    0000387B DD 9E FE         [19] 9677 	sbc	a, -2 (ix)
    0000387E 30 0C            [12] 9678 	jr	NC, 00273$
    00003880 DD 7E FD         [19] 9679 	ld	a, -3 (ix)
    00003883 95               [ 4] 9680 	sub	a, l
    00003884 5F               [ 4] 9681 	ld	e, a
    00003885 DD 7E FE         [19] 9682 	ld	a, -2 (ix)
    00003888 9C               [ 4] 9683 	sbc	a, h
    00003889 C3r95r38         [10] 9684 	jp	00274$
    0000388C                       9685 00273$:
    0000388C 7D               [ 4] 9686 	ld	a, l
    0000388D DD 96 FD         [19] 9687 	sub	a, -3 (ix)
    00003890 5F               [ 4] 9688 	ld	e, a
    00003891 7C               [ 4] 9689 	ld	a, h
    00003892 DD 9E FE         [19] 9690 	sbc	a, -2 (ix)
    00003895                       9691 00274$:
    00003895 57               [ 4] 9692 	ld	d, a
                                   9693 ;E:\Dropbox\FAUSTO\SVILUPPI\MSX\CODE\C\MSXgl\projects\exsoccer/exsoccer_s2_b0.c:1780: if (tdx < 100 && tdy < 100) {
                                   9694 ;	spillPairReg hl
                                   9695 ;	spillPairReg hl
    00003896 DD 7E FB         [19] 9696 	ld	a, -5 (ix)
    00003899 DD 6E FC         [19] 9697 	ld	l, -4 (ix)
    0000389C D6 64            [ 7] 9698 	sub	a, #0x64
    0000389E 7D               [ 4] 9699 	ld	a, l
    0000389F DE 00            [ 7] 9700 	sbc	a, #0x00
    000038A1 D2r69r39         [10] 9701 	jp	NC, 00267$
    000038A4 7B               [ 4] 9702 	ld	a, e
    000038A5 D6 64            [ 7] 9703 	sub	a, #0x64
    000038A7 7A               [ 4] 9704 	ld	a, d
    000038A8 DE 00            [ 7] 9705 	sbc	a, #0x00
    000038AA D2r69r39         [10] 9706 	jp	NC, 00267$
                                   9707 ;E:\Dropbox\FAUSTO\SVILUPPI\MSX\CODE\C\MSXgl\projects\exsoccer/exsoccer_s2_b0.c:1782: if (g_Players[i].Status != PLAYER_STATUS_POSITIONED) {
    000038AD DD 7E F3         [19] 9708 	ld	a, -13 (ix)
    000038B0 C6 12            [ 7] 9709 	add	a, #0x12
    000038B2 DD 77 F9         [19] 9710 	ld	-7 (ix), a
    000038B5 DD 7E F4         [19] 9711 	ld	a, -12 (ix)
    000038B8 CE 00            [ 7] 9712 	adc	a, #0x00
    000038BA DD 77 FA         [19] 9713 	ld	-6 (ix), a
    000038BD DD 6E F9         [19] 9714 	ld	l, -7 (ix)
    000038C0 DD 66 FA         [19] 9715 	ld	h, -6 (ix)
    000038C3 5E               [ 7] 9716 	ld	e, (hl)
    000038C4 23               [ 6] 9717 	inc	hl
    000038C5 56               [ 7] 9718 	ld	d, (hl)
    000038C6 7B               [ 4] 9719 	ld	a, e
    000038C7 D6 04            [ 7] 9720 	sub	a, #0x04
    000038C9 B2               [ 4] 9721 	or	a, d
    000038CA CAr69r39         [10] 9722 	jp	Z,00267$
                                   9723 ;E:\Dropbox\FAUSTO\SVILUPPI\MSX\CODE\C\MSXgl\projects\exsoccer/exsoccer_s2_b0.c:1784: i16 pdx = (i16)g_Players[i].X - (i16)g_Players[i].TargetX;
    000038CD DD 7E F3         [19] 9724 	ld	a, -13 (ix)
    000038D0 C6 02            [ 7] 9725 	add	a, #0x02
    000038D2 DD 77 FB         [19] 9726 	ld	-5 (ix), a
    000038D5 DD 7E F4         [19] 9727 	ld	a, -12 (ix)
    000038D8 CE 00            [ 7] 9728 	adc	a, #0x00
    000038DA DD 77 FC         [19] 9729 	ld	-4 (ix), a
    000038DD DD 6E FB         [19] 9730 	ld	l, -5 (ix)
    000038E0 DD 66 FC         [19] 9731 	ld	h, -4 (ix)
    000038E3 5E               [ 7] 9732 	ld	e, (hl)
    000038E4 23               [ 6] 9733 	inc	hl
    000038E5 56               [ 7] 9734 	ld	d, (hl)
    000038E6 EB               [ 4] 9735 	ex	de, hl
    000038E7 DD 5E F5         [19] 9736 	ld	e, -11 (ix)
    000038EA DD 56 F6         [19] 9737 	ld	d, -10 (ix)
    000038ED BF               [ 4] 9738 	cp	a, a
    000038EE ED 52            [15] 9739 	sbc	hl, de
    000038F0 EB               [ 4] 9740 	ex	de, hl
                                   9741 ;E:\Dropbox\FAUSTO\SVILUPPI\MSX\CODE\C\MSXgl\projects\exsoccer/exsoccer_s2_b0.c:1785: i16 pdy = (i16)g_Players[i].Y - (i16)g_Players[i].TargetY;
    000038F1 DD 6E F3         [19] 9742 	ld	l, -13 (ix)
    000038F4 DD 66 F4         [19] 9743 	ld	h, -12 (ix)
    000038F7 7E               [ 7] 9744 	ld	a, (hl)
    000038F8 23               [ 6] 9745 	inc	hl
    000038F9 66               [ 7] 9746 	ld	h, (hl)
                                   9747 ;	spillPairReg hl
                                   9748 ;	spillPairReg hl
                                   9749 ;	spillPairReg hl
    000038FA DD 96 FD         [19] 9750 	sub	a, -3 (ix)
    000038FD 6F               [ 4] 9751 	ld	l, a
                                   9752 ;	spillPairReg hl
                                   9753 ;	spillPairReg hl
    000038FE 7C               [ 4] 9754 	ld	a, h
    000038FF DD 9E FE         [19] 9755 	sbc	a, -2 (ix)
    00003902 67               [ 4] 9756 	ld	h, a
                                   9757 ;	spillPairReg hl
                                   9758 ;	spillPairReg hl
                                   9759 ;E:\Dropbox\FAUSTO\SVILUPPI\MSX\CODE\C\MSXgl\projects\exsoccer/exsoccer_s2_b0.c:1786: if (pdx >= -4 && pdx <= 4 && pdy >= -4 && pdy <= 4) {
    00003903 7B               [ 4] 9760 	ld	a, e
    00003904 D6 FC            [ 7] 9761 	sub	a, #0xfc
    00003906 7A               [ 4] 9762 	ld	a, d
    00003907 17               [ 4] 9763 	rla
    00003908 3F               [ 4] 9764 	ccf
    00003909 1F               [ 4] 9765 	rra
    0000390A DE 7F            [ 7] 9766 	sbc	a, #0x7f
    0000390C 38 56            [12] 9767 	jr	C, 00179$
    0000390E 3E 04            [ 7] 9768 	ld	a, #0x04
    00003910 BB               [ 4] 9769 	cp	a, e
    00003911 3E 00            [ 7] 9770 	ld	a, #0x00
    00003913 9A               [ 4] 9771 	sbc	a, d
    00003914 E2r19r39         [10] 9772 	jp	PO, 00731$
    00003917 EE 80            [ 7] 9773 	xor	a, #0x80
    00003919                       9774 00731$:
    00003919 FAr64r39         [10] 9775 	jp	M, 00179$
    0000391C 7D               [ 4] 9776 	ld	a, l
    0000391D D6 FC            [ 7] 9777 	sub	a, #0xfc
    0000391F 7C               [ 4] 9778 	ld	a, h
    00003920 17               [ 4] 9779 	rla
    00003921 3F               [ 4] 9780 	ccf
    00003922 1F               [ 4] 9781 	rra
    00003923 DE 7F            [ 7] 9782 	sbc	a, #0x7f
    00003925 38 3D            [12] 9783 	jr	C, 00179$
    00003927 3E 04            [ 7] 9784 	ld	a, #0x04
    00003929 BD               [ 4] 9785 	cp	a, l
    0000392A 3E 00            [ 7] 9786 	ld	a, #0x00
    0000392C 9C               [ 4] 9787 	sbc	a, h
    0000392D E2r32r39         [10] 9788 	jp	PO, 00732$
    00003930 EE 80            [ 7] 9789 	xor	a, #0x80
    00003932                       9790 00732$:
    00003932 FAr64r39         [10] 9791 	jp	M, 00179$
                                   9792 ;E:\Dropbox\FAUSTO\SVILUPPI\MSX\CODE\C\MSXgl\projects\exsoccer/exsoccer_s2_b0.c:1787: g_Players[i].X = g_Players[i].TargetX;
    00003935 DD 6E FB         [19] 9793 	ld	l, -5 (ix)
    00003938 DD 66 FC         [19] 9794 	ld	h, -4 (ix)
    0000393B DD 7E F5         [19] 9795 	ld	a, -11 (ix)
    0000393E 77               [ 7] 9796 	ld	(hl), a
    0000393F 23               [ 6] 9797 	inc	hl
    00003940 DD 7E F6         [19] 9798 	ld	a, -10 (ix)
    00003943 77               [ 7] 9799 	ld	(hl), a
                                   9800 ;E:\Dropbox\FAUSTO\SVILUPPI\MSX\CODE\C\MSXgl\projects\exsoccer/exsoccer_s2_b0.c:1788: g_Players[i].Y = g_Players[i].TargetY;
    00003944 DD 6E F7         [19] 9801 	ld	l, -9 (ix)
    00003947 DD 66 F8         [19] 9802 	ld	h, -8 (ix)
    0000394A 46               [ 7] 9803 	ld	b, (hl)
    0000394B 23               [ 6] 9804 	inc	hl
    0000394C 5E               [ 7] 9805 	ld	e, (hl)
    0000394D DD 6E F3         [19] 9806 	ld	l, -13 (ix)
    00003950 DD 66 F4         [19] 9807 	ld	h, -12 (ix)
    00003953 70               [ 7] 9808 	ld	(hl), b
    00003954 23               [ 6] 9809 	inc	hl
    00003955 73               [ 7] 9810 	ld	(hl), e
                                   9811 ;E:\Dropbox\FAUSTO\SVILUPPI\MSX\CODE\C\MSXgl\projects\exsoccer/exsoccer_s2_b0.c:1789: g_Players[i].Status = PLAYER_STATUS_POSITIONED;
    00003956 DD 6E F9         [19] 9812 	ld	l, -7 (ix)
    00003959 DD 66 FA         [19] 9813 	ld	h, -6 (ix)
    0000395C 36 04            [10] 9814 	ld	(hl), #0x04
    0000395E 23               [ 6] 9815 	inc	hl
    0000395F 36 00            [10] 9816 	ld	(hl), #0x00
    00003961 C3r69r39         [10] 9817 	jp	00267$
    00003964                       9818 00179$:
                                   9819 ;E:\Dropbox\FAUSTO\SVILUPPI\MSX\CODE\C\MSXgl\projects\exsoccer/exsoccer_s2_b0.c:1791: crowdReady = 0;
    00003964 0E 00            [ 7] 9820 	ld	c, #0x00
                                   9821 ;E:\Dropbox\FAUSTO\SVILUPPI\MSX\CODE\C\MSXgl\projects\exsoccer/exsoccer_s2_b0.c:1792: break;
    00003966 C3r74r39         [10] 9822 	jp	00189$
    00003969                       9823 00267$:
                                   9824 ;E:\Dropbox\FAUSTO\SVILUPPI\MSX\CODE\C\MSXgl\projects\exsoccer/exsoccer_s2_b0.c:1775: for(i=0; i<14; i++) {
    00003969 DD 34 FF         [23] 9825 	inc	-1 (ix)
    0000396C DD 7E FF         [19] 9826 	ld	a, -1 (ix)
    0000396F D6 0E            [ 7] 9827 	sub	a, #0x0e
    00003971 DAr08r38         [10] 9828 	jp	C, 00266$
    00003974                       9829 00189$:
                                   9830 ;E:\Dropbox\FAUSTO\SVILUPPI\MSX\CODE\C\MSXgl\projects\exsoccer/exsoccer_s2_b0.c:1798: if (crowdReady) {
    00003974 79               [ 4] 9831 	ld	a, c
    00003975 B7               [ 4] 9832 	or	a, a
    00003976 28 0A            [12] 9833 	jr	Z, 00191$
                                   9834 ;E:\Dropbox\FAUSTO\SVILUPPI\MSX\CODE\C\MSXgl\projects\exsoccer/exsoccer_s2_b0.c:1799: g_Timer++;
    00003978 FD 21r00r00      [14] 9835 	ld	iy, #_g_Timer
    0000397C FD 34 00         [23] 9836 	inc	0 (iy)
    0000397F C3r87r39         [10] 9837 	jp	00192$
    00003982                       9838 00191$:
                                   9839 ;E:\Dropbox\FAUSTO\SVILUPPI\MSX\CODE\C\MSXgl\projects\exsoccer/exsoccer_s2_b0.c:1801: g_Timer = 1; // Wait
    00003982 3E 01            [ 7] 9840 	ld	a, #0x01
    00003984 32r00r00         [13] 9841 	ld	(#_g_Timer), a
    00003987                       9842 00192$:
                                   9843 ;E:\Dropbox\FAUSTO\SVILUPPI\MSX\CODE\C\MSXgl\projects\exsoccer/exsoccer_s2_b0.c:1805: if (g_Timer > 60) {
    00003987 3E 3C            [ 7] 9844 	ld	a, #0x3c
    00003989 FD 21r00r00      [14] 9845 	ld	iy, #_g_Timer
    0000398D FD 96 00         [19] 9846 	sub	a, 0 (iy)
    00003990 D2rA4r3C         [10] 9847 	jp	NC, 00269$
                                   9848 ;E:\Dropbox\FAUSTO\SVILUPPI\MSX\CODE\C\MSXgl\projects\exsoccer/exsoccer_s2_b0.c:1811: u8 t1=NO_VALUE, t2=NO_VALUE; u16 dt1=65535, dt2=65535;
    00003993 DD 36 F1 FF      [19] 9849 	ld	-15 (ix), #0xff
    00003997 DD 36 F2 FF      [19] 9850 	ld	-14 (ix), #0xff
    0000399B DD 36 F3 FF      [19] 9851 	ld	-13 (ix), #0xff
    0000399F DD 36 F4 FF      [19] 9852 	ld	-12 (ix), #0xff
    000039A3 DD 36 F5 FF      [19] 9853 	ld	-11 (ix), #0xff
    000039A7 DD 36 F6 FF      [19] 9854 	ld	-10 (ix), #0xff
                                   9855 ;E:\Dropbox\FAUSTO\SVILUPPI\MSX\CODE\C\MSXgl\projects\exsoccer/exsoccer_s2_b0.c:1813: for(i=0; i<14; i++) {
    000039AB DD 36 FF 00      [19] 9856 	ld	-1 (ix), #0x00
    000039AF                       9857 00268$:
                                   9858 ;E:\Dropbox\FAUSTO\SVILUPPI\MSX\CODE\C\MSXgl\projects\exsoccer/exsoccer_s2_b0.c:1814: if(i == g_ThrowInPlayerId || g_Players[i].Role == PLAYER_ROLE_GOALKEEPER || g_Players[i].TeamId == REFEREE) continue;
    000039AF 3Ar00r00         [13] 9859 	ld	a, (_g_ThrowInPlayerId+0)
    000039B2 DD 96 FF         [19] 9860 	sub	a, -1 (ix)
    000039B5 CArC3r3A         [10] 9861 	jp	Z,00206$
    000039B8 DD 4E FF         [19] 9862 	ld	c, -1 (ix)
    000039BB 06 00            [ 7] 9863 	ld	b, #0x00
    000039BD 69               [ 4] 9864 	ld	l, c
    000039BE 60               [ 4] 9865 	ld	h, b
    000039BF 29               [11] 9866 	add	hl, hl
    000039C0 29               [11] 9867 	add	hl, hl
    000039C1 09               [11] 9868 	add	hl, bc
    000039C2 29               [11] 9869 	add	hl, hl
    000039C3 29               [11] 9870 	add	hl, hl
    000039C4 09               [11] 9871 	add	hl, bc
    000039C5 EB               [ 4] 9872 	ex	de, hl
    000039C6 21r00r00         [10] 9873 	ld	hl, #_g_Players
    000039C9 19               [11] 9874 	add	hl, de
    000039CA DD 75 FD         [19] 9875 	ld	-3 (ix), l
    000039CD DD 74 FE         [19] 9876 	ld	-2 (ix), h
    000039D0 4D               [ 4] 9877 	ld	c, l
    000039D1 44               [ 4] 9878 	ld	b, h
    000039D2 21 0D 00         [10] 9879 	ld	hl, #13
    000039D5 09               [11] 9880 	add	hl, bc
    000039D6 7E               [ 7] 9881 	ld	a, (hl)
    000039D7 B7               [ 4] 9882 	or	a, a
    000039D8 CArC3r3A         [10] 9883 	jp	Z, 00206$
    000039DB DD 4E FD         [19] 9884 	ld	c, -3 (ix)
    000039DE DD 46 FE         [19] 9885 	ld	b, -2 (ix)
    000039E1 21 09 00         [10] 9886 	ld	hl, #9
    000039E4 09               [11] 9887 	add	hl, bc
    000039E5 4E               [ 7] 9888 	ld	c, (hl)
    000039E6 79               [ 4] 9889 	ld	a, c
    000039E7 D6 0E            [ 7] 9890 	sub	a, #0x0e
    000039E9 CArC3r3A         [10] 9891 	jp	Z,00206$
                                   9892 ;E:\Dropbox\FAUSTO\SVILUPPI\MSX\CODE\C\MSXgl\projects\exsoccer/exsoccer_s2_b0.c:1816: if (g_Players[i].TeamId == g_RestartKickTeamId) {
    000039EC 3Ar00r00         [13] 9893 	ld	a, (_g_RestartKickTeamId+0)
    000039EF 91               [ 4] 9894 	sub	a, c
    000039F0 C2rC3r3A         [10] 9895 	jp	NZ,00206$
                                   9896 ;E:\Dropbox\FAUSTO\SVILUPPI\MSX\CODE\C\MSXgl\projects\exsoccer/exsoccer_s2_b0.c:1817: u16 dx = (g_Players[i].X > g_Ball.X) ? (g_Players[i].X - g_Ball.X) : (g_Ball.X - g_Players[i].X);
    000039F3 DD 6E FD         [19] 9897 	ld	l, -3 (ix)
                                   9898 ;	spillPairReg hl
                                   9899 ;	spillPairReg hl
    000039F6 DD 66 FE         [19] 9900 	ld	h, -2 (ix)
                                   9901 ;	spillPairReg hl
                                   9902 ;	spillPairReg hl
    000039F9 23               [ 6] 9903 	inc	hl
    000039FA 23               [ 6] 9904 	inc	hl
    000039FB 4E               [ 7] 9905 	ld	c, (hl)
    000039FC 23               [ 6] 9906 	inc	hl
    000039FD 46               [ 7] 9907 	ld	b, (hl)
                                   9908 ;E:\Dropbox\FAUSTO\SVILUPPI\MSX\CODE\C\MSXgl\projects\exsoccer/exsoccer_s2_b0.c:1755: if(g_Ball.X < FIELD_POS_X_CENTER) {
    000039FE ED 5Br02r00      [20] 9909 	ld	de, (#(_g_Ball + 2) + 0)
                                   9910 ;E:\Dropbox\FAUSTO\SVILUPPI\MSX\CODE\C\MSXgl\projects\exsoccer/exsoccer_s2_b0.c:1817: u16 dx = (g_Players[i].X > g_Ball.X) ? (g_Players[i].X - g_Ball.X) : (g_Ball.X - g_Players[i].X);
    00003A02 7B               [ 4] 9911 	ld	a, e
    00003A03 91               [ 4] 9912 	sub	a, c
    00003A04 7A               [ 4] 9913 	ld	a, d
    00003A05 98               [ 4] 9914 	sbc	a, b
    00003A06 30 08            [12] 9915 	jr	NC, 00275$
    00003A08 79               [ 4] 9916 	ld	a, c
    00003A09 93               [ 4] 9917 	sub	a, e
    00003A0A 4F               [ 4] 9918 	ld	c, a
    00003A0B 78               [ 4] 9919 	ld	a, b
    00003A0C 9A               [ 4] 9920 	sbc	a, d
    00003A0D C3r15r3A         [10] 9921 	jp	00276$
    00003A10                       9922 00275$:
    00003A10 7B               [ 4] 9923 	ld	a, e
    00003A11 91               [ 4] 9924 	sub	a, c
    00003A12 4F               [ 4] 9925 	ld	c, a
    00003A13 7A               [ 4] 9926 	ld	a, d
    00003A14 98               [ 4] 9927 	sbc	a, b
    00003A15                       9928 00276$:
    00003A15 DD 71 F7         [19] 9929 	ld	-9 (ix), c
    00003A18 DD 77 F8         [19] 9930 	ld	-8 (ix), a
                                   9931 ;E:\Dropbox\FAUSTO\SVILUPPI\MSX\CODE\C\MSXgl\projects\exsoccer/exsoccer_s2_b0.c:1818: u16 dy = (g_Players[i].Y > g_Ball.Y) ? (g_Players[i].Y - g_Ball.Y) : (g_Ball.Y - g_Players[i].Y);
    00003A1B DD 6E FD         [19] 9932 	ld	l, -3 (ix)
    00003A1E DD 66 FE         [19] 9933 	ld	h, -2 (ix)
    00003A21 7E               [ 7] 9934 	ld	a, (hl)
    00003A22 DD 77 F9         [19] 9935 	ld	-7 (ix), a
    00003A25 23               [ 6] 9936 	inc	hl
    00003A26 7E               [ 7] 9937 	ld	a, (hl)
    00003A27 DD 77 FA         [19] 9938 	ld	-6 (ix), a
                                   9939 ;E:\Dropbox\FAUSTO\SVILUPPI\MSX\CODE\C\MSXgl\projects\exsoccer/exsoccer_s2_b0.c:1778: u16 tdy = (g_Players[i].TargetY > g_Ball.Y) ? (g_Players[i].TargetY - g_Ball.Y) : (g_Ball.Y - g_Players[i].TargetY);
    00003A2A 21r00r00         [10] 9940 	ld	hl, #_g_Ball
    00003A2D 7E               [ 7] 9941 	ld	a, (hl)
    00003A2E DD 77 FB         [19] 9942 	ld	-5 (ix), a
    00003A31 23               [ 6] 9943 	inc	hl
    00003A32 7E               [ 7] 9944 	ld	a, (hl)
    00003A33 DD 77 FC         [19] 9945 	ld	-4 (ix), a
                                   9946 ;E:\Dropbox\FAUSTO\SVILUPPI\MSX\CODE\C\MSXgl\projects\exsoccer/exsoccer_s2_b0.c:1818: u16 dy = (g_Players[i].Y > g_Ball.Y) ? (g_Players[i].Y - g_Ball.Y) : (g_Ball.Y - g_Players[i].Y);
    00003A36 DD 7E FB         [19] 9947 	ld	a, -5 (ix)
    00003A39 DD 96 F9         [19] 9948 	sub	a, -7 (ix)
    00003A3C DD 7E FC         [19] 9949 	ld	a, -4 (ix)
    00003A3F DD 9E FA         [19] 9950 	sbc	a, -6 (ix)
    00003A42 30 15            [12] 9951 	jr	NC, 00277$
    00003A44 DD 7E F9         [19] 9952 	ld	a, -7 (ix)
    00003A47 DD 96 FB         [19] 9953 	sub	a, -5 (ix)
    00003A4A DD 77 FD         [19] 9954 	ld	-3 (ix), a
    00003A4D DD 7E FA         [19] 9955 	ld	a, -6 (ix)
    00003A50 DD 9E FC         [19] 9956 	sbc	a, -4 (ix)
    00003A53 DD 77 FE         [19] 9957 	ld	-2 (ix), a
    00003A56 C3r6Br3A         [10] 9958 	jp	00278$
    00003A59                       9959 00277$:
    00003A59 DD 7E FB         [19] 9960 	ld	a, -5 (ix)
    00003A5C DD 96 F9         [19] 9961 	sub	a, -7 (ix)
    00003A5F DD 77 FD         [19] 9962 	ld	-3 (ix), a
    00003A62 DD 7E FC         [19] 9963 	ld	a, -4 (ix)
    00003A65 DD 9E FA         [19] 9964 	sbc	a, -6 (ix)
    00003A68 DD 77 FE         [19] 9965 	ld	-2 (ix), a
    00003A6B                       9966 00278$:
    00003A6B DD 4E FD         [19] 9967 	ld	c, -3 (ix)
    00003A6E DD 46 FE         [19] 9968 	ld	b, -2 (ix)
                                   9969 ;E:\Dropbox\FAUSTO\SVILUPPI\MSX\CODE\C\MSXgl\projects\exsoccer/exsoccer_s2_b0.c:1819: u16 d = dx+dy;
    00003A71 DD 6E F7         [19] 9970 	ld	l, -9 (ix)
    00003A74 DD 66 F8         [19] 9971 	ld	h, -8 (ix)
    00003A77 09               [11] 9972 	add	hl, bc
                                   9973 ;E:\Dropbox\FAUSTO\SVILUPPI\MSX\CODE\C\MSXgl\projects\exsoccer/exsoccer_s2_b0.c:1821: if (d < 200) { // Safety check
    00003A78 4D               [ 4] 9974 	ld	c, l
    00003A79 44               [ 4] 9975 	ld	b, h
    00003A7A 79               [ 4] 9976 	ld	a, c
    00003A7B D6 C8            [ 7] 9977 	sub	a, #0xc8
    00003A7D 78               [ 4] 9978 	ld	a, b
    00003A7E DE 00            [ 7] 9979 	sbc	a, #0x00
    00003A80 30 41            [12] 9980 	jr	NC, 00206$
                                   9981 ;E:\Dropbox\FAUSTO\SVILUPPI\MSX\CODE\C\MSXgl\projects\exsoccer/exsoccer_s2_b0.c:1822: if (d < dt1) { dt2=dt1; t2=t1; dt1=d; t1=i; }
    00003A82 7D               [ 4] 9982 	ld	a, l
    00003A83 DD 96 F3         [19] 9983 	sub	a, -13 (ix)
    00003A86 7C               [ 4] 9984 	ld	a, h
    00003A87 DD 9E F4         [19] 9985 	sbc	a, -12 (ix)
    00003A8A 30 21            [12] 9986 	jr	NC, 00200$
    00003A8C DD 7E F3         [19] 9987 	ld	a, -13 (ix)
    00003A8F DD 77 F5         [19] 9988 	ld	-11 (ix), a
    00003A92 DD 7E F4         [19] 9989 	ld	a, -12 (ix)
    00003A95 DD 77 F6         [19] 9990 	ld	-10 (ix), a
    00003A98 DD 7E F1         [19] 9991 	ld	a, -15 (ix)
    00003A9B DD 77 F2         [19] 9992 	ld	-14 (ix), a
    00003A9E DD 75 F3         [19] 9993 	ld	-13 (ix), l
    00003AA1 DD 74 F4         [19] 9994 	ld	-12 (ix), h
    00003AA4 DD 7E FF         [19] 9995 	ld	a, -1 (ix)
    00003AA7 DD 77 F1         [19] 9996 	ld	-15 (ix), a
    00003AAA C3rC3r3A         [10] 9997 	jp	00206$
    00003AAD                       9998 00200$:
                                   9999 ;E:\Dropbox\FAUSTO\SVILUPPI\MSX\CODE\C\MSXgl\projects\exsoccer/exsoccer_s2_b0.c:1823: else if (d < dt2) { dt2=d; t2=i; }
    00003AAD 7D               [ 4]10000 	ld	a, l
    00003AAE DD 96 F5         [19]10001 	sub	a, -11 (ix)
    00003AB1 7C               [ 4]10002 	ld	a, h
    00003AB2 DD 9E F6         [19]10003 	sbc	a, -10 (ix)
    00003AB5 30 0C            [12]10004 	jr	NC, 00206$
    00003AB7 DD 75 F5         [19]10005 	ld	-11 (ix), l
    00003ABA DD 74 F6         [19]10006 	ld	-10 (ix), h
    00003ABD DD 7E FF         [19]10007 	ld	a, -1 (ix)
    00003AC0 DD 77 F2         [19]10008 	ld	-14 (ix), a
    00003AC3                      10009 00206$:
                                  10010 ;E:\Dropbox\FAUSTO\SVILUPPI\MSX\CODE\C\MSXgl\projects\exsoccer/exsoccer_s2_b0.c:1813: for(i=0; i<14; i++) {
    00003AC3 DD 34 FF         [23]10011 	inc	-1 (ix)
    00003AC6 DD 7E FF         [19]10012 	ld	a, -1 (ix)
    00003AC9 D6 0E            [ 7]10013 	sub	a, #0x0e
    00003ACB DArAFr39         [10]10014 	jp	C, 00268$
                                  10015 ;E:\Dropbox\FAUSTO\SVILUPPI\MSX\CODE\C\MSXgl\projects\exsoccer/exsoccer_s2_b0.c:1827: c1 = t1; c2 = t2;
    00003ACE DD 7E F1         [19]10016 	ld	a, -15 (ix)
    00003AD1 DD 77 FE         [19]10017 	ld	-2 (ix), a
    00003AD4 DD 7E F2         [19]10018 	ld	a, -14 (ix)
    00003AD7 DD 77 FF         [19]10019 	ld	-1 (ix), a
                                  10020 ;E:\Dropbox\FAUSTO\SVILUPPI\MSX\CODE\C\MSXgl\projects\exsoccer/exsoccer_s2_b0.c:1831: if (s_ThrowTargetId == NO_VALUE && c1 != NO_VALUE) s_ThrowTargetId = c1;
    00003ADA 3Ar08r00         [13]10021 	ld	a, (_TickThrowIn_s_ThrowTargetId_65537_1786+0)
    00003ADD 3C               [ 4]10022 	inc	a
    00003ADE 20 0C            [12]10023 	jr	NZ, 00209$
    00003AE0 DD 7E F1         [19]10024 	ld	a, -15 (ix)
    00003AE3 3C               [ 4]10025 	inc	a
    00003AE4 28 06            [12]10026 	jr	Z, 00209$
    00003AE6 DD 7E F1         [19]10027 	ld	a, -15 (ix)
    00003AE9 32r08r00         [13]10028 	ld	(_TickThrowIn_s_ThrowTargetId_65537_1786+0), a
    00003AEC                      10029 00209$:
                                  10030 ;E:\Dropbox\FAUSTO\SVILUPPI\MSX\CODE\C\MSXgl\projects\exsoccer/exsoccer_s2_b0.c:1833: if (s_ThrowTargetId == NO_VALUE) {
    00003AEC 3Ar08r00         [13]10031 	ld	a, (_TickThrowIn_s_ThrowTargetId_65537_1786+0)
    00003AEF 3C               [ 4]10032 	inc	a
    00003AF0 20 0D            [12]10033 	jr	NZ, 00212$
                                  10034 ;E:\Dropbox\FAUSTO\SVILUPPI\MSX\CODE\C\MSXgl\projects\exsoccer/exsoccer_s2_b0.c:1834: s_ThrowTargetId = GetClosestPlayerToBall(g_RestartKickTeamId, g_ThrowInPlayerId);
    00003AF2 3Ar00r00         [13]10035 	ld	a, (_g_ThrowInPlayerId+0)
    00003AF5 6F               [ 4]10036 	ld	l, a
                                  10037 ;	spillPairReg hl
                                  10038 ;	spillPairReg hl
    00003AF6 3Ar00r00         [13]10039 	ld	a, (_g_RestartKickTeamId+0)
    00003AF9 CDrC6r14         [17]10040 	call	_GetClosestPlayerToBall
    00003AFC 32r08r00         [13]10041 	ld	(_TickThrowIn_s_ThrowTargetId_65537_1786+0), a
    00003AFF                      10042 00212$:
                                  10043 ;E:\Dropbox\FAUSTO\SVILUPPI\MSX\CODE\C\MSXgl\projects\exsoccer/exsoccer_s2_b0.c:1838: bool isHuman = (g_RestartKickTeamId == TEAM_1);
    00003AFF 3Ar00r00         [13]10044 	ld	a, (_g_RestartKickTeamId+0)
    00003B02 3D               [ 4]10045 	dec	a
    00003B03 3E 01            [ 7]10046 	ld	a, #0x01
    00003B05 28 01            [12]10047 	jr	Z, 00743$
    00003B07 AF               [ 4]10048 	xor	a, a
    00003B08                      10049 00743$:
    00003B08 5F               [ 4]10050 	ld	e, a
    00003B09 4B               [ 4]10051 	ld	c, e
                                  10052 ;E:\Dropbox\FAUSTO\SVILUPPI\MSX\CODE\C\MSXgl\projects\exsoccer/exsoccer_s2_b0.c:1839: if (g_GameWith2Players) isHuman = true; 
    00003B0A 3Ar00r00         [13]10053 	ld	a, (_g_GameWith2Players+0)
    00003B0D B7               [ 4]10054 	or	a, a
    00003B0E 28 02            [12]10055 	jr	Z, 00214$
    00003B10 0E 01            [ 7]10056 	ld	c, #0x01
    00003B12                      10057 00214$:
                                  10058 ;E:\Dropbox\FAUSTO\SVILUPPI\MSX\CODE\C\MSXgl\projects\exsoccer/exsoccer_s2_b0.c:1840: if (g_RestartKickTeamId == TEAM_2 && !g_GameWith2Players) isHuman = false;
    00003B12 3Ar00r00         [13]10059 	ld	a, (_g_RestartKickTeamId+0)
    00003B15 D6 02            [ 7]10060 	sub	a, #0x02
    00003B17 20 07            [12]10061 	jr	NZ, 00216$
    00003B19 3Ar00r00         [13]10062 	ld	a, (_g_GameWith2Players+0)
    00003B1C B7               [ 4]10063 	or	a,a
    00003B1D 20 01            [12]10064 	jr	NZ, 00216$
    00003B1F 4F               [ 4]10065 	ld	c,a
    00003B20                      10066 00216$:
                                  10067 ;E:\Dropbox\FAUSTO\SVILUPPI\MSX\CODE\C\MSXgl\projects\exsoccer/exsoccer_s2_b0.c:1842: if (isHuman) {
    00003B20 79               [ 4]10068 	ld	a, c
    00003B21 B7               [ 4]10069 	or	a, a
    00003B22 CAr0Fr3C         [10]10070 	jp	Z, 00246$
                                  10071 ;E:\Dropbox\FAUSTO\SVILUPPI\MSX\CODE\C\MSXgl\projects\exsoccer/exsoccer_s2_b0.c:1844: u8 joy = (g_RestartKickTeamId == TEAM_1) ? GetJoystick1Direction() : GetJoystick2Direction();
    00003B25 7B               [ 4]10072 	ld	a, e
    00003B26 B7               [ 4]10073 	or	a, a
    00003B27 28 06            [12]10074 	jr	Z, 00279$
    00003B29 CDrDEr11         [17]10075 	call	_GetJoystick1Direction
    00003B2C C3r32r3B         [10]10076 	jp	00280$
    00003B2F                      10077 00279$:
    00003B2F CDrDEr12         [17]10078 	call	_GetJoystick2Direction
    00003B32                      10079 00280$:
    00003B32 57               [ 4]10080 	ld	d, a
                                  10081 ;E:\Dropbox\FAUSTO\SVILUPPI\MSX\CODE\C\MSXgl\projects\exsoccer/exsoccer_s2_b0.c:1845: bool trig = IsTeamJoystickTriggerPressed(g_RestartKickTeamId);
    00003B33 D5               [11]10082 	push	de
    00003B34 3Ar00r00         [13]10083 	ld	a, (_g_RestartKickTeamId+0)
    00003B37 CDrB7r11         [17]10084 	call	_IsTeamJoystickTriggerPressed
    00003B3A D1               [10]10085 	pop	de
    00003B3B DD 77 FD         [19]10086 	ld	-3 (ix), a
                                  10087 ;E:\Dropbox\FAUSTO\SVILUPPI\MSX\CODE\C\MSXgl\projects\exsoccer/exsoccer_s2_b0.c:1848: if (joy != DIRECTION_NONE && !s_JoyMoved) {
    00003B3E 7A               [ 4]10088 	ld	a, d
    00003B3F B7               [ 4]10089 	or	a, a
    00003B40 28 31            [12]10090 	jr	Z, 00227$
    00003B42 3Ar09r00         [13]10091 	ld	a, (_TickThrowIn_s_JoyMoved_65537_1786+0)
    00003B45 B7               [ 4]10092 	or	a, a
    00003B46 20 2B            [12]10093 	jr	NZ, 00227$
                                  10094 ;E:\Dropbox\FAUSTO\SVILUPPI\MSX\CODE\C\MSXgl\projects\exsoccer/exsoccer_s2_b0.c:1850: if (c1 != NO_VALUE && c2 != NO_VALUE) {
    00003B48 DD 7E FE         [19]10095 	ld	a, -2 (ix)
    00003B4B 3C               [ 4]10096 	inc	a
    00003B4C 28 1D            [12]10097 	jr	Z, 00222$
    00003B4E DD 7E FF         [19]10098 	ld	a, -1 (ix)
    00003B51 3C               [ 4]10099 	inc	a
    00003B52 28 17            [12]10100 	jr	Z, 00222$
                                  10101 ;E:\Dropbox\FAUSTO\SVILUPPI\MSX\CODE\C\MSXgl\projects\exsoccer/exsoccer_s2_b0.c:1851: if (s_ThrowTargetId == c1) s_ThrowTargetId = c2;
    00003B54 3Ar08r00         [13]10102 	ld	a, (_TickThrowIn_s_ThrowTargetId_65537_1786+0)
    00003B57 DD 96 FE         [19]10103 	sub	a, -2 (ix)
    00003B5A 20 09            [12]10104 	jr	NZ, 00219$
    00003B5C DD 7E FF         [19]10105 	ld	a, -1 (ix)
    00003B5F 32r08r00         [13]10106 	ld	(_TickThrowIn_s_ThrowTargetId_65537_1786+0), a
    00003B62 C3r6Br3B         [10]10107 	jp	00222$
    00003B65                      10108 00219$:
                                  10109 ;E:\Dropbox\FAUSTO\SVILUPPI\MSX\CODE\C\MSXgl\projects\exsoccer/exsoccer_s2_b0.c:1852: else s_ThrowTargetId = c1;
    00003B65 DD 7E FE         [19]10110 	ld	a, -2 (ix)
    00003B68 32r08r00         [13]10111 	ld	(_TickThrowIn_s_ThrowTargetId_65537_1786+0), a
    00003B6B                      10112 00222$:
                                  10113 ;E:\Dropbox\FAUSTO\SVILUPPI\MSX\CODE\C\MSXgl\projects\exsoccer/exsoccer_s2_b0.c:1854: s_JoyMoved = true;
    00003B6B 3E 01            [ 7]10114 	ld	a, #0x01
    00003B6D 32r09r00         [13]10115 	ld	(#_TickThrowIn_s_JoyMoved_65537_1786), a
    00003B70 C3r7Ar3B         [10]10116 	jp	00228$
    00003B73                      10117 00227$:
                                  10118 ;E:\Dropbox\FAUSTO\SVILUPPI\MSX\CODE\C\MSXgl\projects\exsoccer/exsoccer_s2_b0.c:1855: } else if (joy == DIRECTION_NONE) {
    00003B73 7A               [ 4]10119 	ld	a, d
                                  10120 ;E:\Dropbox\FAUSTO\SVILUPPI\MSX\CODE\C\MSXgl\projects\exsoccer/exsoccer_s2_b0.c:1856: s_JoyMoved = false;
    00003B74 B7               [ 4]10121 	or	a,a
    00003B75 20 03            [12]10122 	jr	NZ, 00228$
    00003B77 32r09r00         [13]10123 	ld	(#_TickThrowIn_s_JoyMoved_65537_1786), a
    00003B7A                      10124 00228$:
                                  10125 ;E:\Dropbox\FAUSTO\SVILUPPI\MSX\CODE\C\MSXgl\projects\exsoccer/exsoccer_s2_b0.c:1860: g_PassTargetPlayer = s_ThrowTargetId; 
    00003B7A 3Ar08r00         [13]10126 	ld	a, (_TickThrowIn_s_ThrowTargetId_65537_1786+0)
    00003B7D 32r00r00         [13]10127 	ld	(_g_PassTargetPlayer+0), a
                                  10128 ;E:\Dropbox\FAUSTO\SVILUPPI\MSX\CODE\C\MSXgl\projects\exsoccer/exsoccer_s2_b0.c:1863: s_ForceThrowTimer++;
    00003B80 2Ar0Ar00         [16]10129 	ld	hl, (_TickThrowIn_s_ForceThrowTimer_65537_1786)
    00003B83 23               [ 6]10130 	inc	hl
    00003B84 22r0Ar00         [16]10131 	ld	(_TickThrowIn_s_ForceThrowTimer_65537_1786), hl
                                  10132 ;E:\Dropbox\FAUSTO\SVILUPPI\MSX\CODE\C\MSXgl\projects\exsoccer/exsoccer_s2_b0.c:1866: if ((trig || s_ForceThrowTimer > 240) && s_ThrowTargetId != NO_VALUE) {
    00003B87 DD 7E FD         [19]10133 	ld	a, -3 (ix)
    00003B8A B7               [ 4]10134 	or	a, a
    00003B8B 20 0C            [12]10135 	jr	NZ, 00233$
    00003B8D 2Ar0Ar00         [16]10136 	ld	hl, (_TickThrowIn_s_ForceThrowTimer_65537_1786)
    00003B90 3E F0            [ 7]10137 	ld	a, #0xf0
    00003B92 BD               [ 4]10138 	cp	a, l
    00003B93 3E 00            [ 7]10139 	ld	a, #0x00
    00003B95 9C               [ 4]10140 	sbc	a, h
    00003B96 D2rA4r3C         [10]10141 	jp	NC, 00269$
    00003B99                      10142 00233$:
    00003B99 3Ar08r00         [13]10143 	ld	a, (_TickThrowIn_s_ThrowTargetId_65537_1786+0)
    00003B9C 3C               [ 4]10144 	inc	a
    00003B9D CArA4r3C         [10]10145 	jp	Z,00269$
                                  10146 ;E:\Dropbox\FAUSTO\SVILUPPI\MSX\CODE\C\MSXgl\projects\exsoccer/exsoccer_s2_b0.c:1867: g_Ball.PossessionPlayerId = g_ThrowInPlayerId;
    00003BA0 21r06r00         [10]10147 	ld	hl, #(_g_Ball + 6)
    00003BA3 3Ar00r00         [13]10148 	ld	a, (_g_ThrowInPlayerId+0)
    00003BA6 77               [ 7]10149 	ld	(hl), a
                                  10150 ;E:\Dropbox\FAUSTO\SVILUPPI\MSX\CODE\C\MSXgl\projects\exsoccer/exsoccer_s2_b0.c:1868: SetPlayerBallPossession(g_ThrowInPlayerId);
    00003BA7 3Ar00r00         [13]10151 	ld	a, (_g_ThrowInPlayerId+0)
    00003BAA CDr00r00         [17]10152 	call	_SetPlayerBallPossession
                                  10153 ;E:\Dropbox\FAUSTO\SVILUPPI\MSX\CODE\C\MSXgl\projects\exsoccer/exsoccer_s2_b0.c:1869: g_Ball.Y = g_Players[g_ThrowInPlayerId].Y; // Reset to feet
    00003BAD ED 4Br00r00      [20]10154 	ld	bc, (_g_ThrowInPlayerId)
    00003BB1 06 00            [ 7]10155 	ld	b, #0x00
    00003BB3 69               [ 4]10156 	ld	l, c
    00003BB4 60               [ 4]10157 	ld	h, b
    00003BB5 29               [11]10158 	add	hl, hl
    00003BB6 29               [11]10159 	add	hl, hl
    00003BB7 09               [11]10160 	add	hl, bc
    00003BB8 29               [11]10161 	add	hl, hl
    00003BB9 29               [11]10162 	add	hl, hl
    00003BBA 09               [11]10163 	add	hl, bc
    00003BBB DD 75 FC         [19]10164 	ld	-4 (ix), l
    00003BBE DD 74 FD         [19]10165 	ld	-3 (ix), h
    00003BC1 DD 7E FC         [19]10166 	ld	a, -4 (ix)
    00003BC4 C6r00            [ 7]10167 	add	a, #<(_g_Players)
    00003BC6 DD 77 FE         [19]10168 	ld	-2 (ix), a
    00003BC9 DD 7E FD         [19]10169 	ld	a, -3 (ix)
    00003BCC CEs00            [ 7]10170 	adc	a, #>(_g_Players)
    00003BCE DD 77 FF         [19]10171 	ld	-1 (ix), a
    00003BD1 DD 6E FE         [19]10172 	ld	l, -2 (ix)
    00003BD4 DD 66 FF         [19]10173 	ld	h, -1 (ix)
    00003BD7 7E               [ 7]10174 	ld	a, (hl)
    00003BD8 DD 77 FE         [19]10175 	ld	-2 (ix), a
    00003BDB 23               [ 6]10176 	inc	hl
    00003BDC 7E               [ 7]10177 	ld	a, (hl)
    00003BDD DD 77 FF         [19]10178 	ld	-1 (ix), a
    00003BE0 21r00r00         [10]10179 	ld	hl, #_g_Ball
    00003BE3 DD 7E FE         [19]10180 	ld	a, -2 (ix)
    00003BE6 77               [ 7]10181 	ld	(hl), a
    00003BE7 23               [ 6]10182 	inc	hl
    00003BE8 DD 7E FF         [19]10183 	ld	a, -1 (ix)
    00003BEB 77               [ 7]10184 	ld	(hl), a
                                  10185 ;E:\Dropbox\FAUSTO\SVILUPPI\MSX\CODE\C\MSXgl\projects\exsoccer/exsoccer_s2_b0.c:1870: PerformPass(s_ThrowTargetId);
    00003BEC 3Ar08r00         [13]10186 	ld	a, (_TickThrowIn_s_ThrowTargetId_65537_1786+0)
    00003BEF CDr00r00         [17]10187 	call	_PerformPass
                                  10188 ;E:\Dropbox\FAUSTO\SVILUPPI\MSX\CODE\C\MSXgl\projects\exsoccer/exsoccer_s2_b0.c:1871: g_MatchStatus = MATCH_IN_ACTION;
    00003BF2 21r00r00         [10]10189 	ld	hl, #_g_MatchStatus
    00003BF5 36 0C            [10]10190 	ld	(hl), #0x0c
                                  10191 ;E:\Dropbox\FAUSTO\SVILUPPI\MSX\CODE\C\MSXgl\projects\exsoccer/exsoccer_s2_b0.c:1872: ClearTextFromLayerA(10, 18, 9); // Correct coords: 10, 18 (len 9 is enough for "THROW IN")
    00003BF7 3E 09            [ 7]10192 	ld	a, #0x09
    00003BF9 F5               [11]10193 	push	af
    00003BFA 33               [ 6]10194 	inc	sp
    00003BFB 2E 12            [ 7]10195 	ld	l, #0x12
                                  10196 ;	spillPairReg hl
                                  10197 ;	spillPairReg hl
    00003BFD 3E 0A            [ 7]10198 	ld	a, #0x0a
    00003BFF CDrCDr08         [17]10199 	call	_ClearTextFromLayerA
                                  10200 ;E:\Dropbox\FAUSTO\SVILUPPI\MSX\CODE\C\MSXgl\projects\exsoccer/exsoccer_s2_b0.c:1873: g_Ball.ShotActive = 1; // High Arc for throw
    00003C02 21r1Br00         [10]10201 	ld	hl, #(_g_Ball + 27)
    00003C05 36 01            [10]10202 	ld	(hl), #0x01
                                  10203 ;E:\Dropbox\FAUSTO\SVILUPPI\MSX\CODE\C\MSXgl\projects\exsoccer/exsoccer_s2_b0.c:1874: g_Ball.Size = 1;
    00003C07 21r04r00         [10]10204 	ld	hl, #(_g_Ball + 4)
    00003C0A 36 01            [10]10205 	ld	(hl), #0x01
    00003C0C C3rA4r3C         [10]10206 	jp	00269$
    00003C0F                      10207 00246$:
                                  10208 ;E:\Dropbox\FAUSTO\SVILUPPI\MSX\CODE\C\MSXgl\projects\exsoccer/exsoccer_s2_b0.c:1878: if (g_Timer > 100) {
    00003C0F 3E 64            [ 7]10209 	ld	a, #0x64
    00003C11 FD 21r00r00      [14]10210 	ld	iy, #_g_Timer
    00003C15 FD 96 00         [19]10211 	sub	a, 0 (iy)
    00003C18 D2r98r3C         [10]10212 	jp	NC, 00243$
                                  10213 ;E:\Dropbox\FAUSTO\SVILUPPI\MSX\CODE\C\MSXgl\projects\exsoccer/exsoccer_s2_b0.c:1879: if (s_ThrowTargetId == NO_VALUE && c1 != NO_VALUE) s_ThrowTargetId = c1; 
    00003C1B 3Ar08r00         [13]10214 	ld	a, (_TickThrowIn_s_ThrowTargetId_65537_1786+0)
    00003C1E 3C               [ 4]10215 	inc	a
    00003C1F 20 0C            [12]10216 	jr	NZ, 00235$
    00003C21 DD 7E FE         [19]10217 	ld	a, -2 (ix)
    00003C24 3C               [ 4]10218 	inc	a
    00003C25 28 06            [12]10219 	jr	Z, 00235$
    00003C27 DD 7E FE         [19]10220 	ld	a, -2 (ix)
    00003C2A 32r08r00         [13]10221 	ld	(_TickThrowIn_s_ThrowTargetId_65537_1786+0), a
    00003C2D                      10222 00235$:
                                  10223 ;E:\Dropbox\FAUSTO\SVILUPPI\MSX\CODE\C\MSXgl\projects\exsoccer/exsoccer_s2_b0.c:1880: if (s_ThrowTargetId == NO_VALUE) s_ThrowTargetId = GetClosestPlayerToBall(g_RestartKickTeamId, g_ThrowInPlayerId);
    00003C2D 3Ar08r00         [13]10224 	ld	a, (_TickThrowIn_s_ThrowTargetId_65537_1786+0)
    00003C30 3C               [ 4]10225 	inc	a
    00003C31 20 0D            [12]10226 	jr	NZ, 00238$
    00003C33 3Ar00r00         [13]10227 	ld	a, (_g_ThrowInPlayerId+0)
    00003C36 6F               [ 4]10228 	ld	l, a
                                  10229 ;	spillPairReg hl
                                  10230 ;	spillPairReg hl
    00003C37 3Ar00r00         [13]10231 	ld	a, (_g_RestartKickTeamId+0)
    00003C3A CDrC6r14         [17]10232 	call	_GetClosestPlayerToBall
    00003C3D 32r08r00         [13]10233 	ld	(_TickThrowIn_s_ThrowTargetId_65537_1786+0), a
    00003C40                      10234 00238$:
                                  10235 ;E:\Dropbox\FAUSTO\SVILUPPI\MSX\CODE\C\MSXgl\projects\exsoccer/exsoccer_s2_b0.c:1883: if (g_Timer > 120) {
    00003C40 3E 78            [ 7]10236 	ld	a, #0x78
    00003C42 21r00r00         [10]10237 	ld	hl, #_g_Timer
    00003C45 96               [ 7]10238 	sub	a, (hl)
    00003C46 30 49            [12]10239 	jr	NC, 00240$
                                  10240 ;E:\Dropbox\FAUSTO\SVILUPPI\MSX\CODE\C\MSXgl\projects\exsoccer/exsoccer_s2_b0.c:1884: g_Ball.PossessionPlayerId = g_ThrowInPlayerId;
    00003C48 21r06r00         [10]10241 	ld	hl, #(_g_Ball + 6)
    00003C4B 3Ar00r00         [13]10242 	ld	a, (_g_ThrowInPlayerId+0)
    00003C4E 77               [ 7]10243 	ld	(hl), a
                                  10244 ;E:\Dropbox\FAUSTO\SVILUPPI\MSX\CODE\C\MSXgl\projects\exsoccer/exsoccer_s2_b0.c:1885: SetPlayerBallPossession(g_ThrowInPlayerId);
    00003C4F 3Ar00r00         [13]10245 	ld	a, (_g_ThrowInPlayerId+0)
    00003C52 CDr00r00         [17]10246 	call	_SetPlayerBallPossession
                                  10247 ;E:\Dropbox\FAUSTO\SVILUPPI\MSX\CODE\C\MSXgl\projects\exsoccer/exsoccer_s2_b0.c:1886: g_Ball.Y = g_Players[g_ThrowInPlayerId].Y; // Reset to feet
    00003C55 ED 4Br00r00      [20]10248 	ld	bc, (_g_ThrowInPlayerId)
    00003C59 06 00            [ 7]10249 	ld	b, #0x00
    00003C5B 69               [ 4]10250 	ld	l, c
    00003C5C 60               [ 4]10251 	ld	h, b
    00003C5D 29               [11]10252 	add	hl, hl
    00003C5E 29               [11]10253 	add	hl, hl
    00003C5F 09               [11]10254 	add	hl, bc
    00003C60 29               [11]10255 	add	hl, hl
    00003C61 29               [11]10256 	add	hl, hl
    00003C62 09               [11]10257 	add	hl, bc
    00003C63 11r00r00         [10]10258 	ld	de, #_g_Players
    00003C66 19               [11]10259 	add	hl, de
    00003C67 4E               [ 7]10260 	ld	c, (hl)
    00003C68 23               [ 6]10261 	inc	hl
    00003C69 46               [ 7]10262 	ld	b, (hl)
    00003C6A ED 43r00r00      [20]10263 	ld	(_g_Ball), bc
                                  10264 ;E:\Dropbox\FAUSTO\SVILUPPI\MSX\CODE\C\MSXgl\projects\exsoccer/exsoccer_s2_b0.c:1887: PerformPass(s_ThrowTargetId);
    00003C6E 3Ar08r00         [13]10265 	ld	a, (_TickThrowIn_s_ThrowTargetId_65537_1786+0)
    00003C71 CDr00r00         [17]10266 	call	_PerformPass
                                  10267 ;E:\Dropbox\FAUSTO\SVILUPPI\MSX\CODE\C\MSXgl\projects\exsoccer/exsoccer_s2_b0.c:1888: g_MatchStatus = MATCH_IN_ACTION; 
    00003C74 21r00r00         [10]10268 	ld	hl, #_g_MatchStatus
    00003C77 36 0C            [10]10269 	ld	(hl), #0x0c
                                  10270 ;E:\Dropbox\FAUSTO\SVILUPPI\MSX\CODE\C\MSXgl\projects\exsoccer/exsoccer_s2_b0.c:1889: ClearTextFromLayerA(10, 18, 9); // Correct coords
    00003C79 3E 09            [ 7]10271 	ld	a, #0x09
    00003C7B F5               [11]10272 	push	af
    00003C7C 33               [ 6]10273 	inc	sp
    00003C7D 2E 12            [ 7]10274 	ld	l, #0x12
                                  10275 ;	spillPairReg hl
                                  10276 ;	spillPairReg hl
    00003C7F 3E 0A            [ 7]10277 	ld	a, #0x0a
    00003C81 CDrCDr08         [17]10278 	call	_ClearTextFromLayerA
                                  10279 ;E:\Dropbox\FAUSTO\SVILUPPI\MSX\CODE\C\MSXgl\projects\exsoccer/exsoccer_s2_b0.c:1890: g_Ball.ShotActive = 1; 
    00003C84 21r1Br00         [10]10280 	ld	hl, #(_g_Ball + 27)
    00003C87 36 01            [10]10281 	ld	(hl), #0x01
                                  10282 ;E:\Dropbox\FAUSTO\SVILUPPI\MSX\CODE\C\MSXgl\projects\exsoccer/exsoccer_s2_b0.c:1891: g_Ball.Size = 1;
    00003C89 21r04r00         [10]10283 	ld	hl, #(_g_Ball + 4)
    00003C8C 36 01            [10]10284 	ld	(hl), #0x01
    00003C8E C3rA4r3C         [10]10285 	jp	00269$
    00003C91                      10286 00240$:
                                  10287 ;E:\Dropbox\FAUSTO\SVILUPPI\MSX\CODE\C\MSXgl\projects\exsoccer/exsoccer_s2_b0.c:1893: g_Timer++;
    00003C91 21r00r00         [10]10288 	ld	hl, #_g_Timer
    00003C94 34               [11]10289 	inc	(hl)
    00003C95 C3rA4r3C         [10]10290 	jp	00269$
    00003C98                      10291 00243$:
                                  10292 ;E:\Dropbox\FAUSTO\SVILUPPI\MSX\CODE\C\MSXgl\projects\exsoccer/exsoccer_s2_b0.c:1896: g_Timer++;
    00003C98 21r00r00         [10]10293 	ld	hl, #_g_Timer
    00003C9B 34               [11]10294 	inc	(hl)
    00003C9C C3rA4r3C         [10]10295 	jp	00269$
    00003C9F                      10296 00251$:
                                  10297 ;E:\Dropbox\FAUSTO\SVILUPPI\MSX\CODE\C\MSXgl\projects\exsoccer/exsoccer_s2_b0.c:1901: g_Timer = 1; 
    00003C9F 21r00r00         [10]10298 	ld	hl, #_g_Timer
    00003CA2 36 01            [10]10299 	ld	(hl), #0x01
    00003CA4                      10300 00269$:
                                  10301 ;E:\Dropbox\FAUSTO\SVILUPPI\MSX\CODE\C\MSXgl\projects\exsoccer/exsoccer_s2_b0.c:1904: }
    00003CA4 DD F9            [10]10302 	ld	sp, ix
    00003CA6 DD E1            [14]10303 	pop	ix
    00003CA8 C9               [10]10304 	ret
                                  10305 ;E:\Dropbox\FAUSTO\SVILUPPI\MSX\CODE\C\MSXgl\projects\exsoccer/exsoccer_s2_b0.c:1906: void TickShotCursor() {
                                  10306 ;	---------------------------------
                                  10307 ; Function TickShotCursor
                                  10308 ; ---------------------------------
    00003CA9                      10309 _TickShotCursor::
    00003CA9 DD E5            [15]10310 	push	ix
    00003CAB DD 21 00 00      [14]10311 	ld	ix,#0
    00003CAF DD 39            [15]10312 	add	ix,sp
    00003CB1 F5               [11]10313 	push	af
    00003CB2 F5               [11]10314 	push	af
                                  10315 ;E:\Dropbox\FAUSTO\SVILUPPI\MSX\CODE\C\MSXgl\projects\exsoccer/exsoccer_s2_b0.c:1908: g_ShotCursorX += g_ShotCursorDir;
    00003CB3 3Ar00r00         [13]10316 	ld	a, (_g_ShotCursorDir+0)
    00003CB6 4F               [ 4]10317 	ld	c, a
    00003CB7 07               [ 4]10318 	rlca
    00003CB8 9F               [ 4]10319 	sbc	a, a
    00003CB9 47               [ 4]10320 	ld	b, a
    00003CBA 2Ar00r00         [16]10321 	ld	hl, (_g_ShotCursorX)
    00003CBD 09               [11]10322 	add	hl, bc
    00003CBE 22r00r00         [16]10323 	ld	(_g_ShotCursorX), hl
                                  10324 ;E:\Dropbox\FAUSTO\SVILUPPI\MSX\CODE\C\MSXgl\projects\exsoccer/exsoccer_s2_b0.c:1909: if (g_ShotCursorX < (GOAL_X_MIN - 30)) {
    00003CC1 11 42 00         [10]10325 	ld	de, #0x0042
    00003CC4 2Ar00r00         [16]10326 	ld	hl, (_g_ShotCursorX)
    00003CC7 BF               [ 4]10327 	cp	a, a
    00003CC8 ED 52            [15]10328 	sbc	hl, de
    00003CCA 30 0C            [12]10329 	jr	NC, 00102$
                                  10330 ;E:\Dropbox\FAUSTO\SVILUPPI\MSX\CODE\C\MSXgl\projects\exsoccer/exsoccer_s2_b0.c:1910: g_ShotCursorX = (GOAL_X_MIN - 30);
    00003CCC 21 42 00         [10]10331 	ld	hl, #0x0042
    00003CCF 22r00r00         [16]10332 	ld	(_g_ShotCursorX), hl
                                  10333 ;E:\Dropbox\FAUSTO\SVILUPPI\MSX\CODE\C\MSXgl\projects\exsoccer/exsoccer_s2_b0.c:1911: g_ShotCursorDir = -g_ShotCursorDir;
    00003CD2 21r00r00         [10]10334 	ld	hl, #_g_ShotCursorDir
    00003CD5 AF               [ 4]10335 	xor	a, a
    00003CD6 96               [ 7]10336 	sub	a, (hl)
    00003CD7 77               [ 7]10337 	ld	(hl), a
    00003CD8                      10338 00102$:
                                  10339 ;E:\Dropbox\FAUSTO\SVILUPPI\MSX\CODE\C\MSXgl\projects\exsoccer/exsoccer_s2_b0.c:1913: if (g_ShotCursorX > (GOAL_X_MAX + 30)) {
    00003CD8 3E AE            [ 7]10340 	ld	a, #0xae
    00003CDA FD 21r00r00      [14]10341 	ld	iy, #_g_ShotCursorX
    00003CDE FD BE 00         [19]10342 	cp	a, 0 (iy)
    00003CE1 3E 00            [ 7]10343 	ld	a, #0x00
    00003CE3 FD 9E 01         [19]10344 	sbc	a, 1 (iy)
    00003CE6 30 0C            [12]10345 	jr	NC, 00104$
                                  10346 ;E:\Dropbox\FAUSTO\SVILUPPI\MSX\CODE\C\MSXgl\projects\exsoccer/exsoccer_s2_b0.c:1914: g_ShotCursorX = (GOAL_X_MAX + 30);
    00003CE8 21 AE 00         [10]10347 	ld	hl, #0x00ae
    00003CEB 22r00r00         [16]10348 	ld	(_g_ShotCursorX), hl
                                  10349 ;E:\Dropbox\FAUSTO\SVILUPPI\MSX\CODE\C\MSXgl\projects\exsoccer/exsoccer_s2_b0.c:1915: g_ShotCursorDir = -g_ShotCursorDir;
    00003CEE 21r00r00         [10]10350 	ld	hl, #_g_ShotCursorDir
    00003CF1 AF               [ 4]10351 	xor	a, a
    00003CF2 96               [ 7]10352 	sub	a, (hl)
    00003CF3 77               [ 7]10353 	ld	(hl), a
    00003CF4                      10354 00104$:
                                  10355 ;E:\Dropbox\FAUSTO\SVILUPPI\MSX\CODE\C\MSXgl\projects\exsoccer/exsoccer_s2_b0.c:1919: bool show = false;
    00003CF4 0E 00            [ 7]10356 	ld	c, #0x00
                                  10357 ;E:\Dropbox\FAUSTO\SVILUPPI\MSX\CODE\C\MSXgl\projects\exsoccer/exsoccer_s2_b0.c:1920: if (g_MatchStatus == MATCH_IN_ACTION && g_ActiveFieldZone == FIELD_NORTH_ZONE) {
    00003CF6 3Ar00r00         [13]10358 	ld	a, (_g_MatchStatus+0)
    00003CF9 D6 0C            [ 7]10359 	sub	a, #0x0c
    00003CFB 20 26            [12]10360 	jr	NZ, 00110$
    00003CFD 3Ar00r00         [13]10361 	ld	a, (_g_ActiveFieldZone+0)
    00003D00 B7               [ 4]10362 	or	a, a
    00003D01 20 20            [12]10363 	jr	NZ, 00110$
                                  10364 ;E:\Dropbox\FAUSTO\SVILUPPI\MSX\CODE\C\MSXgl\projects\exsoccer/exsoccer_s2_b0.c:1921: if (g_Ball.PossessionPlayerId != NO_VALUE) {
    00003D03 21r06r00         [10]10365 	ld	hl, #_g_Ball+6
    00003D06 5E               [ 7]10366 	ld	e, (hl)
    00003D07 7B               [ 4]10367 	ld	a, e
    00003D08 3C               [ 4]10368 	inc	a
    00003D09 28 18            [12]10369 	jr	Z, 00110$
                                  10370 ;E:\Dropbox\FAUSTO\SVILUPPI\MSX\CODE\C\MSXgl\projects\exsoccer/exsoccer_s2_b0.c:1922: if (g_Players[g_Ball.PossessionPlayerId].TeamId == TEAM_1) {
    00003D0B 16 00            [ 7]10371 	ld	d, #0x00
    00003D0D 6B               [ 4]10372 	ld	l, e
    00003D0E 62               [ 4]10373 	ld	h, d
    00003D0F 29               [11]10374 	add	hl, hl
    00003D10 29               [11]10375 	add	hl, hl
    00003D11 19               [11]10376 	add	hl, de
    00003D12 29               [11]10377 	add	hl, hl
    00003D13 29               [11]10378 	add	hl, hl
    00003D14 19               [11]10379 	add	hl, de
    00003D15 11r00r00         [10]10380 	ld	de, #_g_Players
    00003D18 19               [11]10381 	add	hl, de
    00003D19 11 09 00         [10]10382 	ld	de, #0x0009
    00003D1C 19               [11]10383 	add	hl, de
    00003D1D 7E               [ 7]10384 	ld	a, (hl)
    00003D1E 3D               [ 4]10385 	dec	a
    00003D1F 20 02            [12]10386 	jr	NZ, 00110$
                                  10387 ;E:\Dropbox\FAUSTO\SVILUPPI\MSX\CODE\C\MSXgl\projects\exsoccer/exsoccer_s2_b0.c:1923: show = true;
    00003D21 0E 01            [ 7]10388 	ld	c, #0x01
    00003D23                      10389 00110$:
                                  10390 ;E:\Dropbox\FAUSTO\SVILUPPI\MSX\CODE\C\MSXgl\projects\exsoccer/exsoccer_s2_b0.c:1929: if (show) {
    00003D23 79               [ 4]10391 	ld	a, c
    00003D24 B7               [ 4]10392 	or	a, a
    00003D25 28 67            [12]10393 	jr	Z, 00117$
                                  10394 ;E:\Dropbox\FAUSTO\SVILUPPI\MSX\CODE\C\MSXgl\projects\exsoccer/exsoccer_s2_b0.c:1931: int screenY = (FIELD_BOUND_Y_TOP - 30) - g_FieldCurrentYPosition;
    00003D27 21r00r00         [10]10395 	ld	hl, #_g_FieldCurrentYPosition
    00003D2A 3E 14            [ 7]10396 	ld	a, #0x14
    00003D2C 96               [ 7]10397 	sub	a, (hl)
    00003D2D 23               [ 6]10398 	inc	hl
    00003D2E 4F               [ 4]10399 	ld	c, a
    00003D2F 9F               [ 4]10400 	sbc	a, a
    00003D30 96               [ 7]10401 	sub	a, (hl)
    00003D31 47               [ 4]10402 	ld	b, a
                                  10403 ;E:\Dropbox\FAUSTO\SVILUPPI\MSX\CODE\C\MSXgl\projects\exsoccer/exsoccer_s2_b0.c:1934: if (screenY < -16 || screenY > 212) {
    00003D32 79               [ 4]10404 	ld	a, c
    00003D33 D6 F0            [ 7]10405 	sub	a, #0xf0
    00003D35 78               [ 4]10406 	ld	a, b
    00003D36 17               [ 4]10407 	rla
    00003D37 3F               [ 4]10408 	ccf
    00003D38 1F               [ 4]10409 	rra
    00003D39 DE 7F            [ 7]10410 	sbc	a, #0x7f
    00003D3B 38 0E            [12]10411 	jr	C, 00112$
    00003D3D 3E D4            [ 7]10412 	ld	a, #0xd4
    00003D3F B9               [ 4]10413 	cp	a, c
    00003D40 3E 00            [ 7]10414 	ld	a, #0x00
    00003D42 98               [ 4]10415 	sbc	a, b
    00003D43 E2r48r3D         [10]10416 	jp	PO, 00170$
    00003D46 EE 80            [ 7]10417 	xor	a, #0x80
    00003D48                      10418 00170$:
    00003D48 F2r52r3D         [10]10419 	jp	P, 00113$
    00003D4B                      10420 00112$:
                                  10421 ;E:\Dropbox\FAUSTO\SVILUPPI\MSX\CODE\C\MSXgl\projects\exsoccer/exsoccer_s2_b0.c:1935: attr.Y = 216; 
    00003D4B DD 36 FC D8      [19]10422 	ld	-4 (ix), #0xd8
    00003D4F C3r55r3D         [10]10423 	jp	00114$
    00003D52                      10424 00113$:
                                  10425 ;E:\Dropbox\FAUSTO\SVILUPPI\MSX\CODE\C\MSXgl\projects\exsoccer/exsoccer_s2_b0.c:1937: attr.Y = (u8)screenY;
    00003D52 DD 71 FC         [19]10426 	ld	-4 (ix), c
    00003D55                      10427 00114$:
                                  10428 ;E:\Dropbox\FAUSTO\SVILUPPI\MSX\CODE\C\MSXgl\projects\exsoccer/exsoccer_s2_b0.c:1940: attr.X = (u8)g_ShotCursorX;
    00003D55 3Ar00r00         [13]10429 	ld	a, (_g_ShotCursorX+0)
    00003D58 4F               [ 4]10430 	ld	c, a
    00003D59 06 00            [ 7]10431 	ld	b, #0x00
    00003D5B 21 02 00         [10]10432 	ld	hl, #2
    00003D5E 39               [11]10433 	add	hl, sp
    00003D5F 71               [ 7]10434 	ld	(hl), c
    00003D60 23               [ 6]10435 	inc	hl
    00003D61 78               [ 4]10436 	ld	a, b
    00003D62 E6 03            [ 7]10437 	and	a, #0x03
    00003D64 5F               [ 4]10438 	ld	e,a
    00003D65 7E               [ 7]10439 	ld	a, (hl)
    00003D66 E6 FC            [ 7]10440 	and	a, #0xfc
    00003D68 B3               [ 4]10441 	or	a, e
    00003D69 77               [ 7]10442 	ld	(hl), a
                                  10443 ;E:\Dropbox\FAUSTO\SVILUPPI\MSX\CODE\C\MSXgl\projects\exsoccer/exsoccer_s2_b0.c:1941: attr.Pattern = SPRITE_DOWN_ARROW;
    00003D6A DD 36 FD 79      [19]10444 	ld	-3 (ix), #0x79
                                  10445 ;E:\Dropbox\FAUSTO\SVILUPPI\MSX\CODE\C\MSXgl\projects\exsoccer/exsoccer_s2_b0.c:1942: attr.P = 1; 
    00003D6E 21 03 00         [10]10446 	ld	hl,#0x3
    00003D71 39               [11]10447 	add	hl,sp
    00003D72 CB EE            [15]10448 	set	5, (hl)
                                  10449 ;E:\Dropbox\FAUSTO\SVILUPPI\MSX\CODE\C\MSXgl\projects\exsoccer/exsoccer_s2_b0.c:1943: attr.SC = 0; 
    00003D74 7E               [ 7]10450 	ld	a, (hl)
    00003D75 E6 3F            [ 7]10451 	and	a, #0x3f
    00003D77 77               [ 7]10452 	ld	(hl), a
                                  10453 ;E:\Dropbox\FAUSTO\SVILUPPI\MSX\CODE\C\MSXgl\projects\exsoccer/exsoccer_s2_b0.c:1945: V9_SetSpriteP1(16, &attr);
                                  10454 ;E:/Dropbox/FAUSTO/SVILUPPI/MSX/CODE/C/MSXgl/engine/src/v9990.h:781: inline void V9_SetSpriteP1(u8 id, const V9_Sprite* attr) { V9_WriteVRAM(V9_P1_SPAT + (id * 4), (const u8*)attr, 4); }
                                  10455 ;E:/Dropbox/FAUSTO/SVILUPPI/MSX/CODE/C/MSXgl/engine/src/v9990.h:371: inline void V9_WriteVRAM(u32 addr, const u8* src, u16 count) { V9_SetWriteAddress(addr); V9_WriteVRAM_CurrentAddr(src, count); }
    00003D78 11 40 FE         [10]10456 	ld	de, #0xfe40
    00003D7B 21 03 00         [10]10457 	ld	hl, #0x0003
    00003D7E CDr00r00         [17]10458 	call	_V9_SetWriteAddress
    00003D81 11 04 00         [10]10459 	ld	de, #0x0004
    00003D84 21 00 00         [10]10460 	ld	hl, #0
    00003D87 39               [11]10461 	add	hl, sp
    00003D88 CDr00r00         [17]10462 	call	_V9_WriteVRAM_CurrentAddr
                                  10463 ;E:\Dropbox\FAUSTO\SVILUPPI\MSX\CODE\C\MSXgl\projects\exsoccer/exsoccer_s2_b0.c:1945: V9_SetSpriteP1(16, &attr);
    00003D8B C3rA5r3D         [10]10464 	jp	00123$
    00003D8E                      10465 00117$:
                                  10466 ;E:\Dropbox\FAUSTO\SVILUPPI\MSX\CODE\C\MSXgl\projects\exsoccer/exsoccer_s2_b0.c:1948: attr.Y = 216;
    00003D8E DD 36 FC D8      [19]10467 	ld	-4 (ix), #0xd8
                                  10468 ;E:\Dropbox\FAUSTO\SVILUPPI\MSX\CODE\C\MSXgl\projects\exsoccer/exsoccer_s2_b0.c:1949: V9_SetSpriteP1(16, &attr);
                                  10469 ;E:/Dropbox/FAUSTO/SVILUPPI/MSX/CODE/C/MSXgl/engine/src/v9990.h:781: inline void V9_SetSpriteP1(u8 id, const V9_Sprite* attr) { V9_WriteVRAM(V9_P1_SPAT + (id * 4), (const u8*)attr, 4); }
                                  10470 ;E:/Dropbox/FAUSTO/SVILUPPI/MSX/CODE/C/MSXgl/engine/src/v9990.h:371: inline void V9_WriteVRAM(u32 addr, const u8* src, u16 count) { V9_SetWriteAddress(addr); V9_WriteVRAM_CurrentAddr(src, count); }
    00003D92 11 40 FE         [10]10471 	ld	de, #0xfe40
    00003D95 21 03 00         [10]10472 	ld	hl, #0x0003
    00003D98 CDr00r00         [17]10473 	call	_V9_SetWriteAddress
    00003D9B 11 04 00         [10]10474 	ld	de, #0x0004
    00003D9E 21 00 00         [10]10475 	ld	hl, #0
    00003DA1 39               [11]10476 	add	hl, sp
    00003DA2 CDr00r00         [17]10477 	call	_V9_WriteVRAM_CurrentAddr
                                  10478 ;E:\Dropbox\FAUSTO\SVILUPPI\MSX\CODE\C\MSXgl\projects\exsoccer/exsoccer_s2_b0.c:1949: V9_SetSpriteP1(16, &attr);
    00003DA5                      10479 00123$:
                                  10480 ;E:\Dropbox\FAUSTO\SVILUPPI\MSX\CODE\C\MSXgl\projects\exsoccer/exsoccer_s2_b0.c:1951: }
    00003DA5 DD F9            [10]10481 	ld	sp, ix
    00003DA7 DD E1            [14]10482 	pop	ix
    00003DA9 C9               [10]10483 	ret
                                  10484 ;E:\Dropbox\FAUSTO\SVILUPPI\MSX\CODE\C\MSXgl\projects\exsoccer/exsoccer_s2_b0.c:1953: void PenaltyShots() {
                                  10485 ;	---------------------------------
                                  10486 ; Function PenaltyShots
                                  10487 ; ---------------------------------
    00003DAA                      10488 _PenaltyShots::
    00003DAA                      10489 00103$:
                                  10490 ;E:\Dropbox\FAUSTO\SVILUPPI\MSX\CODE\C\MSXgl\projects\exsoccer/exsoccer_s2_b0.c:1955: }
    00003DAA C3rAAr3D         [10]10491 	jp	00103$
                                  10492 	.area _SEG2
                                  10493 	.area _INITIALIZER
    00000000                      10494 __xinit__g_ponPonPatternIndex:
    00000000 00                   10495 	.db #0x00	; 0
    00000001                      10496 __xinit__g_PonPonGrilsPoseCounter:
    00000001 00                   10497 	.db #0x00	; 0
    00000002                      10498 __xinit__g_peopleState:
    00000002 00                   10499 	.db #0x00	; 0
    00000003                      10500 __xinit__g_ponPonGirlsInitailized:
    00000003 00                   10501 	.db #0x00	; 0
    00000004                      10502 __xinit__s_GkAnimTimer:
    00000004 00                   10503 	.db #0x00	; 0
    00000005                      10504 __xinit__s_GkAnimPlayerId:
    00000005 FF                   10505 	.db #0xff	; 255
                                  10506 	.area _CABS (ABS)
