                                      1 ;--------------------------------------------------------
                                      2 ; File Created by SDCC : free open source ANSI-C Compiler
                                      3 ; Version 4.2.0 #13081 (MINGW64)
                                      4 ;--------------------------------------------------------
                                      5 	.module exsoccer_s22_b2
                                      6 	.optsdcc -mz80
                                      7 	
                                      8 ;--------------------------------------------------------
                                      9 ; Public variables in this module
                                     10 ;--------------------------------------------------------
                                     11 	.globl _IsOffside
                                     12 	.globl _ShowMenu
                                     13 	.globl _GetTeamStats
                                     14 	.globl _PerformPass
                                     15 	.globl _GetOffsideLineY
                                     16 	.globl _GetClosestPlayerToBall
                                     17 	.globl _PerformShot
                                     18 	.globl _PutBallOnPlayerFeet
                                     19 	.globl _ClearTextFromLayerA
                                     20 	.globl _IsTeamJoystickTriggerPressed
                                     21 	.globl _GetJoystick1Direction
                                     22 	.globl _UpdateSpritesPositions
                                     23 	.globl _ShowHeaderInfo
                                     24 	.globl _V9_PrintLayerAStringAtPos
                                     25 	.globl _UpdateV9990
                                     26 	.globl _V9_SetScrollingBY
                                     27 	.globl _V9_WriteVRAM_CurrentAddr
                                     28 	.globl _V9_SetWriteAddress
                                     29 	.globl _g_SLTSL
                                     30 	.globl _g_GRPACY
                                     31 	.globl _g_GRPACX
                                     32 	.globl _g_LOGOPR
                                     33 	.globl _g_CMASK
                                     34 	.globl _g_CLOC
                                     35 	.globl _g_FNKSTR
                                     36 	.globl _g_ATRBYT
                                     37 	.globl _g_BDRCLR
                                     38 	.globl _g_BAKCLR
                                     39 	.globl _g_FORCLR
                                     40 	.globl _g_CSRX
                                     41 	.globl _g_CSRY
                                     42 	.globl _g_CLIKSW
                                     43 	.globl _g_MLTPAT
                                     44 	.globl _g_MLTATR
                                     45 	.globl _g_MLTCGP
                                     46 	.globl _g_MLTCOL
                                     47 	.globl _g_MLTNAM
                                     48 	.globl _g_GRPPAT
                                     49 	.globl _g_GRPATR
                                     50 	.globl _g_GRPCGP
                                     51 	.globl _g_GRPCOL
                                     52 	.globl _g_GRPNAM
                                     53 	.globl _g_T32PAT
                                     54 	.globl _g_T32ATR
                                     55 	.globl _g_T32CGP
                                     56 	.globl _g_T32COL
                                     57 	.globl _g_T32NAM
                                     58 	.globl _g_TXTPAT
                                     59 	.globl _g_TXTATR
                                     60 	.globl _g_TXTCGP
                                     61 	.globl _g_TXTCOL
                                     62 	.globl _g_TXTNAM
                                     63 	.globl _g_CLMLST
                                     64 	.globl _g_CRTCNT
                                     65 	.globl _g_LINLEN
                                     66 	.globl _g_LINL32
                                     67 	.globl _g_LINL40
                                     68 	.globl _g_BDOS
                                     69 	.globl _g_MASTER
                                     70 	.globl _g_RAMAD3
                                     71 	.globl _g_RAMAD2
                                     72 	.globl _g_RAMAD1
                                     73 	.globl _g_RAMAD0
                                     74 	.globl _g_BREAKV
                                     75 	.globl _g_DISKVE
                                     76 	.globl _g_KANJTABLE
                                     77 	.globl _g_STRSRC
                                     78 	.globl _g_SUBRID
                                     79 	.globl _g_CHAR_16
                                     80 	.globl _g_MSXMID
                                     81 	.globl _g_MSXVER
                                     82 	.globl _g_ROMVersion
                                     83 	.globl _g_BASRVN
                                     84 	.globl _g_VDP_DW
                                     85 	.globl _g_VDP_DR
                                     86 	.globl _g_CGTABL
                                     87 	.globl _g_SVFFFD
                                     88 	.globl _g_RG27SAV
                                     89 	.globl _g_RG26SAV
                                     90 	.globl _g_RG25SAV
                                     91 	.globl _g_SVFFF8
                                     92 	.globl _g_MINROM
                                     93 	.globl _g_RG23SAV
                                     94 	.globl _g_RG22SAV
                                     95 	.globl _g_RG21SAV
                                     96 	.globl _g_RG20SAV
                                     97 	.globl _g_RG19SAV
                                     98 	.globl _g_RG18SAV
                                     99 	.globl _g_RG17SAV
                                    100 	.globl _g_RG16SAV
                                    101 	.globl _g_RG15SAV
                                    102 	.globl _g_RG14SAV
                                    103 	.globl _g_RG13SAV
                                    104 	.globl _g_RG12SAV
                                    105 	.globl _g_RG11SAV
                                    106 	.globl _g_RG10SAV
                                    107 	.globl _g_RG09SAV
                                    108 	.globl _g_RG08SAV
                                    109 	.globl _g_PROCNM
                                    110 	.globl _g_SLTWRK
                                    111 	.globl _g_SLTATR
                                    112 	.globl _g_SLTTBL
                                    113 	.globl _g_EXPTBL
                                    114 	.globl _g_MNROM
                                    115 	.globl _g_DRWANG
                                    116 	.globl _g_DRWSCL
                                    117 	.globl _g_DRWFLG
                                    118 	.globl _g_GYPOS
                                    119 	.globl _g_GXPOS
                                    120 	.globl _g_BRDATR
                                    121 	.globl _g_CASPRV
                                    122 	.globl _g_OLDSCR
                                    123 	.globl _g_SCRMOD
                                    124 	.globl _g_FLBMEM
                                    125 	.globl _g_KANAMD
                                    126 	.globl _g_KANAST
                                    127 	.globl _g_CAPST
                                    128 	.globl _g_CSTYLE
                                    129 	.globl _g_CSRSW
                                    130 	.globl _g_INSFLG
                                    131 	.globl _g_ESCCNT
                                    132 	.globl _g_GRPHED
                                    133 	.globl _g_WINWID
                                    134 	.globl _g_LOWLIM
                                    135 	.globl _g_INTCNT
                                    136 	.globl _g_INTVAL
                                    137 	.globl _g_JIFFY
                                    138 	.globl _g_PADX
                                    139 	.globl _g_PADY
                                    140 	.globl _g_INTFLG
                                    141 	.globl _g_RTYCNT
                                    142 	.globl _g_TRPTBL
                                    143 	.globl _g_HIMEM
                                    144 	.globl _g_BOTTOM
                                    145 	.globl _g_PATWRK
                                    146 	.globl _g_LINWRK
                                    147 	.globl _g_KEYBUF
                                    148 	.globl _g_NEWKEY
                                    149 	.globl _g_OLDKEY
                                    150 	.globl _g_CLIKFL
                                    151 	.globl _g_ONGSBF
                                    152 	.globl _g_FNKFLG
                                    153 	.globl _g_FNKSWI
                                    154 	.globl _g_CODSAV
                                    155 	.globl _g_FSTPOS
                                    156 	.globl _g_LINTTB
                                    157 	.globl _g_BASROM
                                    158 	.globl _g_ENSTOP
                                    159 	.globl _g_VCBC
                                    160 	.globl _g_VCBB
                                    161 	.globl _g_VCBA
                                    162 	.globl _g_PLYCNT
                                    163 	.globl _g_MUSICF
                                    164 	.globl _g_QUEUEN
                                    165 	.globl _g_MCLPTR
                                    166 	.globl _g_MCLLEN
                                    167 	.globl _g_SAVVOL
                                    168 	.globl _g_VOICEN
                                    169 	.globl _g_SAVSP
                                    170 	.globl _g_PRSCNT
                                    171 	.globl _g_LSTMOD
                                    172 	.globl _g_LSTCOM
                                    173 	.globl _g_COMMSK
                                    174 	.globl _g_ESTBLS
                                    175 	.globl _g_FLAGS
                                    176 	.globl _g_ERRORS
                                    177 	.globl _g_DATCNT
                                    178 	.globl _g_DEVNUM
                                    179 	.globl _g_OLDINT
                                    180 	.globl _g_OLDSTT
                                    181 	.globl _g_MEXBIh
                                    182 	.globl _g_RSIQLN
                                    183 	.globl _g_RSFCB
                                    184 	.globl _g_TOCNT
                                    185 	.globl _g_RSTMP
                                    186 	.globl _g_YSAVE
                                    187 	.globl _g_XSAVE
                                    188 	.globl _g_NORUSE
                                    189 	.globl _g_MODE
                                    190 	.globl _g_ROMA
                                    191 	.globl _g_CHRCNT
                                    192 	.globl _g_EXBRSA
                                    193 	.globl _g_AVCSAV
                                    194 	.globl _g_ACPAGE
                                    195 	.globl _g_DPPAGE
                                    196 	.globl _g_RS2IQ
                                    197 	.globl _g_VOICCQ
                                    198 	.globl _g_VOICBQ
                                    199 	.globl _g_VOICAQ
                                    200 	.globl _g_QUEBAK
                                    201 	.globl _g_QUETAB
                                    202 	.globl _g_ASPCT2
                                    203 	.globl _g_ASPCT1
                                    204 	.globl _g_HEADER
                                    205 	.globl _g_HIGH
                                    206 	.globl _g_LOW
                                    207 	.globl _g_CS240
                                    208 	.globl _g_CS120
                                    209 	.globl _g_GETPNT
                                    210 	.globl _g_PUTPNT
                                    211 	.globl _g_REPCNT
                                    212 	.globl _g_SCNCNT
                                    213 	.globl _g_FRCNEW
                                    214 	.globl _g_QUEUES
                                    215 	.globl _g_MINUPD
                                    216 	.globl _g_MAXUPD
                                    217 	.globl _g_TRGFLG
                                    218 	.globl _g_STATFL
                                    219 	.globl _g_RG7SAV
                                    220 	.globl _g_RG6SAV
                                    221 	.globl _g_RG5SAV
                                    222 	.globl _g_RG4SAV
                                    223 	.globl _g_RG3SAV
                                    224 	.globl _g_RG2SAV
                                    225 	.globl _g_RG1SAV
                                    226 	.globl _g_RG0SAV
                                    227 	.globl _g_CNSDFG
                                    228 	.globl _g_USRTAB
                                    229 	.globl _g_CLPRIM
                                    230 	.globl _g_WRPRIM
                                    231 	.globl _g_RDPRIM
                                    232 	.globl _TickAI
                                    233 	.globl _PenaltyShots
                                    234 	.globl _TeamVictory
                                    235 ;--------------------------------------------------------
                                    236 ; special function registers
                                    237 ;--------------------------------------------------------
                         000000A8   238 _g_PortPrimarySlot	=	0x00a8
                         000000A9   239 _g_PortReadKeyboard	=	0x00a9
                         000000AA   240 _g_PortAccessKeyboard	=	0x00aa
                         000000AB   241 _g_PortControl	=	0x00ab
                         00000098   242 _g_VDP_DataPort	=	0x0098
                         00000099   243 _g_VDP_RegPort	=	0x0099
                         00000099   244 _g_VDP_AddrPort	=	0x0099
                         00000099   245 _g_VDP_StatPort	=	0x0099
                         000000A0   246 _g_PSG_RegPort	=	0x00a0
                         000000A1   247 _g_PSG_DataPort	=	0x00a1
                         000000A2   248 _g_PSG_StatPort	=	0x00a2
                         00000010   249 _g_PSG_Ext_RegPort	=	0x0010
                         00000011   250 _g_PSG_Ext_DataPort	=	0x0011
                         00000012   251 _g_PSG_Ext_StatPort	=	0x0012
                         0000007C   252 _g_MSXMusic_IndexPort	=	0x007c
                         0000007D   253 _g_MSXMusic_DataPort	=	0x007d
                         000000C0   254 _g_MSXAudio_IndexPort	=	0x00c0
                         000000C1   255 _g_MSXAudio_DataPort	=	0x00c1
                         000000C2   256 _g_MSXAudio_IndexPort2	=	0x00c2
                         000000C3   257 _g_MSXAudio_DataPort2	=	0x00c3
                         000000B4   258 _g_RTC_AddrPort	=	0x00b4
                         000000B5   259 _g_RTC_DataPort	=	0x00b5
                         00000060   260 _g_V9_VRAMPort	=	0x0060
                         00000061   261 _g_V9_PalettePort	=	0x0061
                         00000062   262 _g_V9_CmdDataPort	=	0x0062
                         00000063   263 _g_V9_RegDataPort	=	0x0063
                         00000064   264 _g_V9_RegSelectPort	=	0x0064
                         00000065   265 _g_V9_SatusPort	=	0x0065
                         00000066   266 _g_V9_IntFlagPort	=	0x0066
                         00000067   267 _g_V9_SysCtrlPort	=	0x0067
                         00000068   268 _g_V9_KanjiAddrLPort	=	0x0068
                         00000069   269 _g_V9_KanjiAddrHPort	=	0x0069
                         00000069   270 _g_V9_KanjiDataPort	=	0x0069
                         0000006A   271 _g_V9_Kanji2AddrLPort	=	0x006a
                         0000006B   272 _g_V9_Kanji2AddrHPort	=	0x006b
                         0000006B   273 _g_V9_Kanji2DataPort	=	0x006b
                         0000006F   274 _g_V9_OutputCtrPort	=	0x006f
                                    275 ;--------------------------------------------------------
                                    276 ; ram data
                                    277 ;--------------------------------------------------------
                                    278 	.area _DATA
                         0000F3AE   279 _g_LINL40	=	0xf3ae
                         0000F3AF   280 _g_LINL32	=	0xf3af
                         0000F3B0   281 _g_LINLEN	=	0xf3b0
                         0000F3B1   282 _g_CRTCNT	=	0xf3b1
                         0000F3B2   283 _g_CLMLST	=	0xf3b2
                         0000F3B3   284 _g_TXTNAM	=	0xf3b3
                         0000F3B5   285 _g_TXTCOL	=	0xf3b5
                         0000F3B7   286 _g_TXTCGP	=	0xf3b7
                         0000F3B9   287 _g_TXTATR	=	0xf3b9
                         0000F3BB   288 _g_TXTPAT	=	0xf3bb
                         0000F3BD   289 _g_T32NAM	=	0xf3bd
                         0000F3BF   290 _g_T32COL	=	0xf3bf
                         0000F3C1   291 _g_T32CGP	=	0xf3c1
                         0000F3C3   292 _g_T32ATR	=	0xf3c3
                         0000F3C5   293 _g_T32PAT	=	0xf3c5
                         0000F3C7   294 _g_GRPNAM	=	0xf3c7
                         0000F3C9   295 _g_GRPCOL	=	0xf3c9
                         0000F3CB   296 _g_GRPCGP	=	0xf3cb
                         0000F3CD   297 _g_GRPATR	=	0xf3cd
                         0000F3CF   298 _g_GRPPAT	=	0xf3cf
                         0000F3D1   299 _g_MLTNAM	=	0xf3d1
                         0000F3D3   300 _g_MLTCOL	=	0xf3d3
                         0000F3D5   301 _g_MLTCGP	=	0xf3d5
                         0000F3D7   302 _g_MLTATR	=	0xf3d7
                         0000F3D9   303 _g_MLTPAT	=	0xf3d9
                         0000F3DB   304 _g_CLIKSW	=	0xf3db
                         0000F3DC   305 _g_CSRY	=	0xf3dc
                         0000F3DD   306 _g_CSRX	=	0xf3dd
                         0000F3E9   307 _g_FORCLR	=	0xf3e9
                         0000F3EA   308 _g_BAKCLR	=	0xf3ea
                         0000F3EB   309 _g_BDRCLR	=	0xf3eb
                         0000F3F2   310 _g_ATRBYT	=	0xf3f2
                         0000F87F   311 _g_FNKSTR	=	0xf87f
                         0000F92A   312 _g_CLOC	=	0xf92a
                         0000F92C   313 _g_CMASK	=	0xf92c
                         0000FB02   314 _g_LOGOPR	=	0xfb02
                         0000FCB7   315 _g_GRPACX	=	0xfcb7
                         0000FCB9   316 _g_GRPACY	=	0xfcb9
                         0000FFFF   317 _g_SLTSL	=	0xffff
                                    318 ;--------------------------------------------------------
                                    319 ; ram data
                                    320 ;--------------------------------------------------------
                                    321 	.area _INITIALIZED
                                    322 ;--------------------------------------------------------
                                    323 ; absolute external ram data
                                    324 ;--------------------------------------------------------
                                    325 	.area _DABS (ABS)
                                    326 ;--------------------------------------------------------
                                    327 ; global & static initialisations
                                    328 ;--------------------------------------------------------
                                    329 	.area _HOME
                                    330 	.area _GSINIT
                                    331 	.area _GSFINAL
                                    332 	.area _GSINIT
                                    333 ;--------------------------------------------------------
                                    334 ; Home
                                    335 ;--------------------------------------------------------
                                    336 	.area _HOME
                                    337 	.area _HOME
                                    338 ;--------------------------------------------------------
                                    339 ; code
                                    340 ;--------------------------------------------------------
                                    341 	.area _SEG22
                                    342 ;E:\Dropbox\FAUSTO\SVILUPPI\MSX\CODE\C\MSXgl\projects\exsoccer/exsoccer_s22_b2.c:41: void TickAI(u8 playerId){
                                    343 ;	---------------------------------
                                    344 ; Function TickAI
                                    345 ; ---------------------------------
    00000000                        346 _TickAI::
    00000000 DD E5            [15]  347 	push	ix
    00000002 DD 21 00 00      [14]  348 	ld	ix,#0
    00000006 DD 39            [15]  349 	add	ix,sp
    00000008 21 DA FF         [10]  350 	ld	hl, #-38
    0000000B 39               [11]  351 	add	hl, sp
    0000000C F9               [ 6]  352 	ld	sp, hl
    0000000D DD 77 FD         [19]  353 	ld	-3 (ix), a
                                    354 ;E:\Dropbox\FAUSTO\SVILUPPI\MSX\CODE\C\MSXgl\projects\exsoccer/exsoccer_s22_b2.c:42: if(g_MatchStatus==MATCH_IN_ACTION || g_MatchStatus == MATCH_BALL_ON_GOALKEEPER){
    00000010 3Ar00r00         [13]  355 	ld	a,(_g_MatchStatus+0)
    00000013 FE 0C            [ 7]  356 	cp	a,#0x0c
    00000015 28 05            [12]  357 	jr	Z, 00703$
    00000017 D6 0D            [ 7]  358 	sub	a, #0x0d
    00000019 C2r0Cr1F         [10]  359 	jp	NZ,00718$
    0000001C                        360 00703$:
                                    361 ;E:\Dropbox\FAUSTO\SVILUPPI\MSX\CODE\C\MSXgl\projects\exsoccer/exsoccer_s22_b2.c:48: u16 refX = g_Players[playerId].X;
    0000001C DD 4E FD         [19]  362 	ld	c, -3 (ix)
    0000001F 06 00            [ 7]  363 	ld	b, #0x00
    00000021 69               [ 4]  364 	ld	l, c
    00000022 60               [ 4]  365 	ld	h, b
    00000023 29               [11]  366 	add	hl, hl
    00000024 29               [11]  367 	add	hl, hl
    00000025 09               [11]  368 	add	hl, bc
    00000026 29               [11]  369 	add	hl, hl
    00000027 29               [11]  370 	add	hl, hl
    00000028 09               [11]  371 	add	hl, bc
    00000029 DD 75 FE         [19]  372 	ld	-2 (ix), l
    0000002C DD 74 FF         [19]  373 	ld	-1 (ix), h
                                    374 ;E:\Dropbox\FAUSTO\SVILUPPI\MSX\CODE\C\MSXgl\projects\exsoccer/exsoccer_s22_b2.c:45: if (playerId == REFEREE) {
    0000002F DD 7E FD         [19]  375 	ld	a, -3 (ix)
    00000032 D6 0E            [ 7]  376 	sub	a, #0x0e
    00000034 C2r19r03         [10]  377 	jp	NZ,00174$
                                    378 ;E:\Dropbox\FAUSTO\SVILUPPI\MSX\CODE\C\MSXgl\projects\exsoccer/exsoccer_s22_b2.c:46: u16 ballX = g_Ball.X;
    00000037 ED 4Br02r00      [20]  379 	ld	bc, (#_g_Ball + 2)
                                    380 ;E:\Dropbox\FAUSTO\SVILUPPI\MSX\CODE\C\MSXgl\projects\exsoccer/exsoccer_s22_b2.c:47: u16 ballY = g_Ball.Y;
    0000003B ED 5Br00r00      [20]  381 	ld	de, (#_g_Ball + 0)
                                    382 ;E:\Dropbox\FAUSTO\SVILUPPI\MSX\CODE\C\MSXgl\projects\exsoccer/exsoccer_s22_b2.c:48: u16 refX = g_Players[playerId].X;
    0000003F 3Er00            [ 7]  383 	ld	a, #<(_g_Players)
    00000041 DD 86 FE         [19]  384 	add	a, -2 (ix)
    00000044 DD 77 F1         [19]  385 	ld	-15 (ix), a
    00000047 3Es00            [ 7]  386 	ld	a, #>(_g_Players)
    00000049 DD 8E FF         [19]  387 	adc	a, -1 (ix)
    0000004C DD 77 F2         [19]  388 	ld	-14 (ix), a
    0000004F DD 7E F1         [19]  389 	ld	a, -15 (ix)
    00000052 C6 02            [ 7]  390 	add	a, #0x02
    00000054 DD 77 F3         [19]  391 	ld	-13 (ix), a
    00000057 DD 7E F2         [19]  392 	ld	a, -14 (ix)
    0000005A CE 00            [ 7]  393 	adc	a, #0x00
    0000005C DD 77 F4         [19]  394 	ld	-12 (ix), a
    0000005F DD 6E F3         [19]  395 	ld	l, -13 (ix)
    00000062 DD 66 F4         [19]  396 	ld	h, -12 (ix)
    00000065 7E               [ 7]  397 	ld	a, (hl)
    00000066 DD 77 F5         [19]  398 	ld	-11 (ix), a
    00000069 23               [ 6]  399 	inc	hl
    0000006A 7E               [ 7]  400 	ld	a, (hl)
    0000006B DD 77 F6         [19]  401 	ld	-10 (ix), a
                                    402 ;E:\Dropbox\FAUSTO\SVILUPPI\MSX\CODE\C\MSXgl\projects\exsoccer/exsoccer_s22_b2.c:49: u16 refY = g_Players[playerId].Y;
    0000006E DD 6E F1         [19]  403 	ld	l, -15 (ix)
    00000071 DD 66 F2         [19]  404 	ld	h, -14 (ix)
    00000074 7E               [ 7]  405 	ld	a, (hl)
    00000075 DD 77 F7         [19]  406 	ld	-9 (ix), a
    00000078 23               [ 6]  407 	inc	hl
    00000079 7E               [ 7]  408 	ld	a, (hl)
    0000007A DD 77 F8         [19]  409 	ld	-8 (ix), a
                                    410 ;E:\Dropbox\FAUSTO\SVILUPPI\MSX\CODE\C\MSXgl\projects\exsoccer/exsoccer_s22_b2.c:53: u16 targetY = ballY;
    0000007D DD 73 F9         [19]  411 	ld	-7 (ix), e
    00000080 DD 72 FA         [19]  412 	ld	-6 (ix), d
                                    413 ;E:\Dropbox\FAUSTO\SVILUPPI\MSX\CODE\C\MSXgl\projects\exsoccer/exsoccer_s22_b2.c:56: if (ballY > 230 && ballY < 260 && ballX > 110 && ballX < 140) {
    00000083 DD 71 FB         [19]  414 	ld	-5 (ix), c
    00000086 DD 70 FC         [19]  415 	ld	-4 (ix), b
    00000089 3E E6            [ 7]  416 	ld	a, #0xe6
    0000008B BB               [ 4]  417 	cp	a, e
    0000008C 3E 00            [ 7]  418 	ld	a, #0x00
    0000008E 9A               [ 4]  419 	sbc	a, d
    0000008F 30 30            [12]  420 	jr	NC, 00107$
    00000091 7B               [ 4]  421 	ld	a, e
    00000092 D6 04            [ 7]  422 	sub	a, #0x04
    00000094 7A               [ 4]  423 	ld	a, d
    00000095 DE 01            [ 7]  424 	sbc	a, #0x01
    00000097 30 28            [12]  425 	jr	NC, 00107$
    00000099 3E 6E            [ 7]  426 	ld	a, #0x6e
    0000009B DD BE FB         [19]  427 	cp	a, -5 (ix)
    0000009E 3E 00            [ 7]  428 	ld	a, #0x00
    000000A0 DD 9E FC         [19]  429 	sbc	a, -4 (ix)
    000000A3 30 1C            [12]  430 	jr	NC, 00107$
    000000A5 DD 7E FB         [19]  431 	ld	a, -5 (ix)
    000000A8 D6 8C            [ 7]  432 	sub	a, #0x8c
    000000AA DD 7E FC         [19]  433 	ld	a, -4 (ix)
    000000AD DE 00            [ 7]  434 	sbc	a, #0x00
    000000AF 30 10            [12]  435 	jr	NC, 00107$
                                    436 ;E:\Dropbox\FAUSTO\SVILUPPI\MSX\CODE\C\MSXgl\projects\exsoccer/exsoccer_s22_b2.c:57: targetY = ballY - 40; 
    000000B1 7B               [ 4]  437 	ld	a, e
    000000B2 C6 D8            [ 7]  438 	add	a, #0xd8
    000000B4 4F               [ 4]  439 	ld	c, a
    000000B5 7A               [ 4]  440 	ld	a, d
    000000B6 CE FF            [ 7]  441 	adc	a, #0xff
    000000B8 DD 71 F9         [19]  442 	ld	-7 (ix), c
    000000BB DD 77 FA         [19]  443 	ld	-6 (ix), a
    000000BE C3rF9r00         [10]  444 	jp	00108$
    000000C1                        445 00107$:
                                    446 ;E:\Dropbox\FAUSTO\SVILUPPI\MSX\CODE\C\MSXgl\projects\exsoccer/exsoccer_s22_b2.c:60: if (g_Ball.PossessionPlayerId != NO_VALUE) {
    000000C1 3Ar06r00         [13]  447 	ld	a, (#_g_Ball + 6)
    000000C4 FE FF            [ 7]  448 	cp	a, #0xff
    000000C6 28 31            [12]  449 	jr	Z, 00108$
                                    450 ;E:\Dropbox\FAUSTO\SVILUPPI\MSX\CODE\C\MSXgl\projects\exsoccer/exsoccer_s22_b2.c:61: if (g_Players[g_Ball.PossessionPlayerId].TeamId == TEAM_1) targetY = ballY - 20;
    000000C8 4F               [ 4]  451 	ld	c, a
    000000C9 06 00            [ 7]  452 	ld	b, #0x00
    000000CB 69               [ 4]  453 	ld	l, c
    000000CC 60               [ 4]  454 	ld	h, b
    000000CD 29               [11]  455 	add	hl, hl
    000000CE 29               [11]  456 	add	hl, hl
    000000CF 09               [11]  457 	add	hl, bc
    000000D0 29               [11]  458 	add	hl, hl
    000000D1 29               [11]  459 	add	hl, hl
    000000D2 09               [11]  460 	add	hl, bc
    000000D3 01r00r00         [10]  461 	ld	bc, #_g_Players
    000000D6 09               [11]  462 	add	hl, bc
    000000D7 01 09 00         [10]  463 	ld	bc, #0x0009
    000000DA 09               [11]  464 	add	hl, bc
    000000DB 7E               [ 7]  465 	ld	a, (hl)
    000000DC 3D               [ 4]  466 	dec	a
    000000DD 20 10            [12]  467 	jr	NZ, 00102$
    000000DF 7B               [ 4]  468 	ld	a, e
    000000E0 C6 EC            [ 7]  469 	add	a, #0xec
    000000E2 4F               [ 4]  470 	ld	c, a
    000000E3 7A               [ 4]  471 	ld	a, d
    000000E4 CE FF            [ 7]  472 	adc	a, #0xff
    000000E6 DD 71 F9         [19]  473 	ld	-7 (ix), c
    000000E9 DD 77 FA         [19]  474 	ld	-6 (ix), a
    000000EC C3rF9r00         [10]  475 	jp	00108$
    000000EF                        476 00102$:
                                    477 ;E:\Dropbox\FAUSTO\SVILUPPI\MSX\CODE\C\MSXgl\projects\exsoccer/exsoccer_s22_b2.c:62: else targetY = ballY + 20;
    000000EF 21 14 00         [10]  478 	ld	hl, #0x0014
    000000F2 19               [11]  479 	add	hl, de
    000000F3 DD 75 F9         [19]  480 	ld	-7 (ix), l
    000000F6 DD 74 FA         [19]  481 	ld	-6 (ix), h
    000000F9                        482 00108$:
                                    483 ;E:\Dropbox\FAUSTO\SVILUPPI\MSX\CODE\C\MSXgl\projects\exsoccer/exsoccer_s22_b2.c:73: if (ballX < 128) targetX = ballX + 60; // Ball Left -> Ref Right
    000000F9 DD 7E FB         [19]  484 	ld	a, -5 (ix)
    000000FC D6 80            [ 7]  485 	sub	a, #0x80
    000000FE DD 7E FC         [19]  486 	ld	a, -4 (ix)
    00000101 DE 00            [ 7]  487 	sbc	a, #0x00
    00000103 30 0F            [12]  488 	jr	NC, 00113$
    00000105 DD 7E FB         [19]  489 	ld	a, -5 (ix)
    00000108 C6 3C            [ 7]  490 	add	a, #0x3c
    0000010A 4F               [ 4]  491 	ld	c, a
    0000010B DD 7E FC         [19]  492 	ld	a, -4 (ix)
    0000010E CE 00            [ 7]  493 	adc	a, #0x00
    00000110 47               [ 4]  494 	ld	b, a
    00000111 C3r2Ar01         [10]  495 	jp	00114$
    00000114                        496 00113$:
                                    497 ;E:\Dropbox\FAUSTO\SVILUPPI\MSX\CODE\C\MSXgl\projects\exsoccer/exsoccer_s22_b2.c:74: else targetX = ballX - 60;             // Ball Right -> Ref Left
    00000114 DD 7E FB         [19]  498 	ld	a, -5 (ix)
    00000117 C6 C4            [ 7]  499 	add	a, #0xc4
    00000119 DD 77 FE         [19]  500 	ld	-2 (ix), a
    0000011C DD 7E FC         [19]  501 	ld	a, -4 (ix)
    0000011F CE FF            [ 7]  502 	adc	a, #0xff
    00000121 DD 77 FF         [19]  503 	ld	-1 (ix), a
    00000124 DD 4E FE         [19]  504 	ld	c, -2 (ix)
    00000127 DD 46 FF         [19]  505 	ld	b, -1 (ix)
    0000012A                        506 00114$:
                                    507 ;E:\Dropbox\FAUSTO\SVILUPPI\MSX\CODE\C\MSXgl\projects\exsoccer/exsoccer_s22_b2.c:77: if (targetX < FIELD_BOUND_X_LEFT + 10) targetX = FIELD_BOUND_X_LEFT + 10;
    0000012A 79               [ 4]  508 	ld	a, c
    0000012B D6 14            [ 7]  509 	sub	a, #0x14
    0000012D 78               [ 4]  510 	ld	a, b
    0000012E DE 00            [ 7]  511 	sbc	a, #0x00
    00000130 30 03            [12]  512 	jr	NC, 00116$
    00000132 01 14 00         [10]  513 	ld	bc, #0x0014
    00000135                        514 00116$:
                                    515 ;E:\Dropbox\FAUSTO\SVILUPPI\MSX\CODE\C\MSXgl\projects\exsoccer/exsoccer_s22_b2.c:78: if (targetX > FIELD_BOUND_X_RIGHT - 10) targetX = FIELD_BOUND_X_RIGHT - 10;
    00000135 3E EC            [ 7]  516 	ld	a, #0xec
    00000137 B9               [ 4]  517 	cp	a, c
    00000138 3E 00            [ 7]  518 	ld	a, #0x00
    0000013A 98               [ 4]  519 	sbc	a, b
    0000013B 30 03            [12]  520 	jr	NC, 00118$
    0000013D 01 EC 00         [10]  521 	ld	bc, #0x00ec
    00000140                        522 00118$:
                                    523 ;E:\Dropbox\FAUSTO\SVILUPPI\MSX\CODE\C\MSXgl\projects\exsoccer/exsoccer_s22_b2.c:83: u8 moveDir = DIRECTION_NONE;
    00000140 DD 36 FF 00      [19]  524 	ld	-1 (ix), #0x00
                                    525 ;E:\Dropbox\FAUSTO\SVILUPPI\MSX\CODE\C\MSXgl\projects\exsoccer/exsoccer_s22_b2.c:84: i16 diffY = (i16)targetY - (i16)refY;
    00000144 DD 6E F9         [19]  526 	ld	l, -7 (ix)
                                    527 ;	spillPairReg hl
                                    528 ;	spillPairReg hl
    00000147 DD 66 FA         [19]  529 	ld	h, -6 (ix)
                                    530 ;	spillPairReg hl
                                    531 ;	spillPairReg hl
    0000014A DD 5E F7         [19]  532 	ld	e, -9 (ix)
    0000014D DD 56 F8         [19]  533 	ld	d, -8 (ix)
    00000150 BF               [ 4]  534 	cp	a, a
    00000151 ED 52            [15]  535 	sbc	hl, de
    00000153 EB               [ 4]  536 	ex	de, hl
                                    537 ;E:\Dropbox\FAUSTO\SVILUPPI\MSX\CODE\C\MSXgl\projects\exsoccer/exsoccer_s22_b2.c:85: i16 diffX = (i16)targetX - (i16)refX;
    00000154 DD 6E F5         [19]  538 	ld	l, -11 (ix)
                                    539 ;	spillPairReg hl
                                    540 ;	spillPairReg hl
    00000157 DD 66 F6         [19]  541 	ld	h, -10 (ix)
                                    542 ;	spillPairReg hl
                                    543 ;	spillPairReg hl
    0000015A 79               [ 4]  544 	ld	a, c
    0000015B 95               [ 4]  545 	sub	a, l
    0000015C 4F               [ 4]  546 	ld	c, a
    0000015D 78               [ 4]  547 	ld	a, b
    0000015E 9C               [ 4]  548 	sbc	a, h
    0000015F 47               [ 4]  549 	ld	b, a
                                    550 ;E:\Dropbox\FAUSTO\SVILUPPI\MSX\CODE\C\MSXgl\projects\exsoccer/exsoccer_s22_b2.c:88: if (diffY < -8) moveDir = DIRECTION_UP;
    00000160 7B               [ 4]  551 	ld	a, e
    00000161 D6 F8            [ 7]  552 	sub	a, #0xf8
    00000163 7A               [ 4]  553 	ld	a, d
    00000164 17               [ 4]  554 	rla
    00000165 3F               [ 4]  555 	ccf
    00000166 1F               [ 4]  556 	rra
    00000167 DE 7F            [ 7]  557 	sbc	a, #0x7f
    00000169 30 07            [12]  558 	jr	NC, 00122$
    0000016B DD 36 FF 01      [19]  559 	ld	-1 (ix), #0x01
    0000016F C3r84r01         [10]  560 	jp	00123$
    00000172                        561 00122$:
                                    562 ;E:\Dropbox\FAUSTO\SVILUPPI\MSX\CODE\C\MSXgl\projects\exsoccer/exsoccer_s22_b2.c:89: else if (diffY > 8) moveDir = DIRECTION_DOWN;
    00000172 3E 08            [ 7]  563 	ld	a, #0x08
    00000174 BB               [ 4]  564 	cp	a, e
    00000175 3E 00            [ 7]  565 	ld	a, #0x00
    00000177 9A               [ 4]  566 	sbc	a, d
    00000178 E2r7Dr01         [10]  567 	jp	PO, 02244$
    0000017B EE 80            [ 7]  568 	xor	a, #0x80
    0000017D                        569 02244$:
    0000017D F2r84r01         [10]  570 	jp	P, 00123$
    00000180 DD 36 FF 05      [19]  571 	ld	-1 (ix), #0x05
    00000184                        572 00123$:
                                    573 ;E:\Dropbox\FAUSTO\SVILUPPI\MSX\CODE\C\MSXgl\projects\exsoccer/exsoccer_s22_b2.c:92: bool moveX = false;
    00000184 1E 00            [ 7]  574 	ld	e, #0x00
                                    575 ;E:\Dropbox\FAUSTO\SVILUPPI\MSX\CODE\C\MSXgl\projects\exsoccer/exsoccer_s22_b2.c:93: if (diffX < -16) moveX = true; // Need to go Left
    00000186 79               [ 4]  576 	ld	a, c
    00000187 D6 F0            [ 7]  577 	sub	a, #0xf0
    00000189 78               [ 4]  578 	ld	a, b
    0000018A 17               [ 4]  579 	rla
    0000018B 3F               [ 4]  580 	ccf
    0000018C 1F               [ 4]  581 	rra
    0000018D DE 7F            [ 7]  582 	sbc	a, #0x7f
    0000018F 30 05            [12]  583 	jr	NC, 00127$
    00000191 1E 01            [ 7]  584 	ld	e, #0x01
    00000193 C3rA8r01         [10]  585 	jp	00128$
    00000196                        586 00127$:
                                    587 ;E:\Dropbox\FAUSTO\SVILUPPI\MSX\CODE\C\MSXgl\projects\exsoccer/exsoccer_s22_b2.c:94: else if (diffX > 16) moveX = true; // Need to go Right
    00000196 51               [ 4]  588 	ld	d, c
    00000197 68               [ 4]  589 	ld	l, b
                                    590 ;	spillPairReg hl
                                    591 ;	spillPairReg hl
    00000198 3E 10            [ 7]  592 	ld	a, #0x10
    0000019A BA               [ 4]  593 	cp	a, d
    0000019B 3E 00            [ 7]  594 	ld	a, #0x00
    0000019D 9D               [ 4]  595 	sbc	a, l
    0000019E E2rA3r01         [10]  596 	jp	PO, 02245$
    000001A1 EE 80            [ 7]  597 	xor	a, #0x80
    000001A3                        598 02245$:
    000001A3 F2rA8r01         [10]  599 	jp	P, 00128$
    000001A6 1E 01            [ 7]  600 	ld	e, #0x01
    000001A8                        601 00128$:
                                    602 ;E:\Dropbox\FAUSTO\SVILUPPI\MSX\CODE\C\MSXgl\projects\exsoccer/exsoccer_s22_b2.c:96: if (moveX) {
    000001A8 7B               [ 4]  603 	ld	a, e
    000001A9 B7               [ 4]  604 	or	a, a
    000001AA 28 4B            [12]  605 	jr	Z, 00145$
                                    606 ;E:\Dropbox\FAUSTO\SVILUPPI\MSX\CODE\C\MSXgl\projects\exsoccer/exsoccer_s22_b2.c:94: else if (diffX > 16) moveX = true; // Need to go Right
                                    607 ;E:\Dropbox\FAUSTO\SVILUPPI\MSX\CODE\C\MSXgl\projects\exsoccer/exsoccer_s22_b2.c:98: if (diffX > 0) moveDir = DIRECTION_UP_RIGHT;
    000001AC AF               [ 4]  608 	xor	a, a
    000001AD B9               [ 4]  609 	cp	a, c
    000001AE 98               [ 4]  610 	sbc	a, b
    000001AF E2rB4r01         [10]  611 	jp	PO, 02246$
    000001B2 EE 80            [ 7]  612 	xor	a, #0x80
    000001B4                        613 02246$:
    000001B4 07               [ 4]  614 	rlca
    000001B5 E6 01            [ 7]  615 	and	a,#0x01
    000001B7 4F               [ 4]  616 	ld	c, a
                                    617 ;E:\Dropbox\FAUSTO\SVILUPPI\MSX\CODE\C\MSXgl\projects\exsoccer/exsoccer_s22_b2.c:97: if (moveDir == DIRECTION_UP) {
    000001B8 DD 7E FF         [19]  618 	ld	a, -1 (ix)
    000001BB 3D               [ 4]  619 	dec	a
    000001BC 20 12            [12]  620 	jr	NZ, 00142$
                                    621 ;E:\Dropbox\FAUSTO\SVILUPPI\MSX\CODE\C\MSXgl\projects\exsoccer/exsoccer_s22_b2.c:98: if (diffX > 0) moveDir = DIRECTION_UP_RIGHT;
    000001BE 79               [ 4]  622 	ld	a, c
    000001BF B7               [ 4]  623 	or	a, a
    000001C0 28 07            [12]  624 	jr	Z, 00130$
    000001C2 DD 36 FF 02      [19]  625 	ld	-1 (ix), #0x02
    000001C6 C3rF7r01         [10]  626 	jp	00145$
    000001C9                        627 00130$:
                                    628 ;E:\Dropbox\FAUSTO\SVILUPPI\MSX\CODE\C\MSXgl\projects\exsoccer/exsoccer_s22_b2.c:99: else moveDir = DIRECTION_UP_LEFT;
    000001C9 DD 36 FF 08      [19]  629 	ld	-1 (ix), #0x08
    000001CD C3rF7r01         [10]  630 	jp	00145$
    000001D0                        631 00142$:
                                    632 ;E:\Dropbox\FAUSTO\SVILUPPI\MSX\CODE\C\MSXgl\projects\exsoccer/exsoccer_s22_b2.c:100: } else if (moveDir == DIRECTION_DOWN) {
    000001D0 DD 7E FF         [19]  633 	ld	a, -1 (ix)
                                    634 ;E:\Dropbox\FAUSTO\SVILUPPI\MSX\CODE\C\MSXgl\projects\exsoccer/exsoccer_s22_b2.c:101: if (diffX > 0) moveDir = DIRECTION_DOWN_RIGHT;
    000001D3 D6 05            [ 7]  635 	sub	a,#0x05
    000001D5 20 11            [12]  636 	jr	NZ, 00139$
    000001D7 B1               [ 4]  637 	or	a,c
    000001D8 28 07            [12]  638 	jr	Z, 00133$
    000001DA DD 36 FF 04      [19]  639 	ld	-1 (ix), #0x04
    000001DE C3rF7r01         [10]  640 	jp	00145$
    000001E1                        641 00133$:
                                    642 ;E:\Dropbox\FAUSTO\SVILUPPI\MSX\CODE\C\MSXgl\projects\exsoccer/exsoccer_s22_b2.c:102: else moveDir = DIRECTION_DOWN_LEFT;
    000001E1 DD 36 FF 06      [19]  643 	ld	-1 (ix), #0x06
    000001E5 C3rF7r01         [10]  644 	jp	00145$
    000001E8                        645 00139$:
                                    646 ;E:\Dropbox\FAUSTO\SVILUPPI\MSX\CODE\C\MSXgl\projects\exsoccer/exsoccer_s22_b2.c:104: if (diffX > 0) moveDir = DIRECTION_RIGHT;
    000001E8 79               [ 4]  647 	ld	a, c
    000001E9 B7               [ 4]  648 	or	a, a
    000001EA 28 07            [12]  649 	jr	Z, 00136$
    000001EC DD 36 FF 03      [19]  650 	ld	-1 (ix), #0x03
    000001F0 C3rF7r01         [10]  651 	jp	00145$
    000001F3                        652 00136$:
                                    653 ;E:\Dropbox\FAUSTO\SVILUPPI\MSX\CODE\C\MSXgl\projects\exsoccer/exsoccer_s22_b2.c:105: else moveDir = DIRECTION_LEFT;
    000001F3 DD 36 FF 07      [19]  654 	ld	-1 (ix), #0x07
    000001F7                        655 00145$:
                                    656 ;E:\Dropbox\FAUSTO\SVILUPPI\MSX\CODE\C\MSXgl\projects\exsoccer/exsoccer_s22_b2.c:109: g_Players[playerId].Direction = moveDir;
    000001F7 DD 7E F1         [19]  657 	ld	a, -15 (ix)
    000001FA C6 0A            [ 7]  658 	add	a, #0x0a
    000001FC 4F               [ 4]  659 	ld	c, a
    000001FD DD 7E F2         [19]  660 	ld	a, -14 (ix)
    00000200 CE 00            [ 7]  661 	adc	a, #0x00
    00000202 47               [ 4]  662 	ld	b, a
    00000203 DD 7E FF         [19]  663 	ld	a, -1 (ix)
                                    664 ;E:\Dropbox\FAUSTO\SVILUPPI\MSX\CODE\C\MSXgl\projects\exsoccer/exsoccer_s22_b2.c:112: if (g_Players[playerId].Direction == DIRECTION_UP ||
    00000206 02               [ 7]  665 	ld	(bc), a
    00000207 5F               [ 4]  666 	ld	e, a
    00000208 DD 7E FF         [19]  667 	ld	a, -1 (ix)
    0000020B 3D               [ 4]  668 	dec	a
    0000020C 28 09            [12]  669 	jr	Z, 00146$
                                    670 ;E:\Dropbox\FAUSTO\SVILUPPI\MSX\CODE\C\MSXgl\projects\exsoccer/exsoccer_s22_b2.c:113: g_Players[playerId].Direction == DIRECTION_UP_RIGHT ||
                                    671 ;E:\Dropbox\FAUSTO\SVILUPPI\MSX\CODE\C\MSXgl\projects\exsoccer/exsoccer_s22_b2.c:114: g_Players[playerId].Direction == DIRECTION_UP_LEFT) {
    0000020E 7B               [ 4]  672 	ld	a,e
    0000020F FE 02            [ 7]  673 	cp	a,#0x02
    00000211 28 04            [12]  674 	jr	Z, 00146$
    00000213 D6 08            [ 7]  675 	sub	a, #0x08
    00000215 20 13            [12]  676 	jr	NZ, 00147$
    00000217                        677 00146$:
                                    678 ;E:\Dropbox\FAUSTO\SVILUPPI\MSX\CODE\C\MSXgl\projects\exsoccer/exsoccer_s22_b2.c:115: g_Players[playerId].Y--;
    00000217 DD 6E F1         [19]  679 	ld	l, -15 (ix)
    0000021A DD 66 F2         [19]  680 	ld	h, -14 (ix)
    0000021D 5E               [ 7]  681 	ld	e, (hl)
    0000021E 23               [ 6]  682 	inc	hl
    0000021F 56               [ 7]  683 	ld	d, (hl)
    00000220 1B               [ 6]  684 	dec	de
    00000221 DD 6E F1         [19]  685 	ld	l, -15 (ix)
    00000224 DD 66 F2         [19]  686 	ld	h, -14 (ix)
    00000227 73               [ 7]  687 	ld	(hl), e
    00000228 23               [ 6]  688 	inc	hl
    00000229 72               [ 7]  689 	ld	(hl), d
    0000022A                        690 00147$:
                                    691 ;E:\Dropbox\FAUSTO\SVILUPPI\MSX\CODE\C\MSXgl\projects\exsoccer/exsoccer_s22_b2.c:112: if (g_Players[playerId].Direction == DIRECTION_UP ||
    0000022A 0A               [ 7]  692 	ld	a, (bc)
                                    693 ;E:\Dropbox\FAUSTO\SVILUPPI\MSX\CODE\C\MSXgl\projects\exsoccer/exsoccer_s22_b2.c:117: if (g_Players[playerId].Direction == DIRECTION_DOWN ||
    0000022B FE 05            [ 7]  694 	cp	a, #0x05
    0000022D 28 08            [12]  695 	jr	Z, 00150$
                                    696 ;E:\Dropbox\FAUSTO\SVILUPPI\MSX\CODE\C\MSXgl\projects\exsoccer/exsoccer_s22_b2.c:118: g_Players[playerId].Direction == DIRECTION_DOWN_RIGHT ||
    0000022F FE 04            [ 7]  697 	cp	a, #0x04
    00000231 28 04            [12]  698 	jr	Z, 00150$
                                    699 ;E:\Dropbox\FAUSTO\SVILUPPI\MSX\CODE\C\MSXgl\projects\exsoccer/exsoccer_s22_b2.c:119: g_Players[playerId].Direction == DIRECTION_DOWN_LEFT) {
    00000233 D6 06            [ 7]  700 	sub	a, #0x06
    00000235 20 13            [12]  701 	jr	NZ, 00151$
    00000237                        702 00150$:
                                    703 ;E:\Dropbox\FAUSTO\SVILUPPI\MSX\CODE\C\MSXgl\projects\exsoccer/exsoccer_s22_b2.c:120: g_Players[playerId].Y++;
    00000237 DD 6E F1         [19]  704 	ld	l, -15 (ix)
    0000023A DD 66 F2         [19]  705 	ld	h, -14 (ix)
    0000023D 5E               [ 7]  706 	ld	e, (hl)
    0000023E 23               [ 6]  707 	inc	hl
    0000023F 56               [ 7]  708 	ld	d, (hl)
    00000240 13               [ 6]  709 	inc	de
    00000241 DD 6E F1         [19]  710 	ld	l, -15 (ix)
    00000244 DD 66 F2         [19]  711 	ld	h, -14 (ix)
    00000247 73               [ 7]  712 	ld	(hl), e
    00000248 23               [ 6]  713 	inc	hl
    00000249 72               [ 7]  714 	ld	(hl), d
    0000024A                        715 00151$:
                                    716 ;E:\Dropbox\FAUSTO\SVILUPPI\MSX\CODE\C\MSXgl\projects\exsoccer/exsoccer_s22_b2.c:112: if (g_Players[playerId].Direction == DIRECTION_UP ||
    0000024A 0A               [ 7]  717 	ld	a, (bc)
                                    718 ;E:\Dropbox\FAUSTO\SVILUPPI\MSX\CODE\C\MSXgl\projects\exsoccer/exsoccer_s22_b2.c:122: if (g_Players[playerId].Direction == DIRECTION_LEFT ||
    0000024B FE 07            [ 7]  719 	cp	a, #0x07
    0000024D 28 08            [12]  720 	jr	Z, 00154$
                                    721 ;E:\Dropbox\FAUSTO\SVILUPPI\MSX\CODE\C\MSXgl\projects\exsoccer/exsoccer_s22_b2.c:123: g_Players[playerId].Direction == DIRECTION_UP_LEFT ||
    0000024F FE 08            [ 7]  722 	cp	a, #0x08
    00000251 28 04            [12]  723 	jr	Z, 00154$
                                    724 ;E:\Dropbox\FAUSTO\SVILUPPI\MSX\CODE\C\MSXgl\projects\exsoccer/exsoccer_s22_b2.c:124: g_Players[playerId].Direction == DIRECTION_DOWN_LEFT) {
    00000253 D6 06            [ 7]  725 	sub	a, #0x06
    00000255 20 13            [12]  726 	jr	NZ, 00155$
    00000257                        727 00154$:
                                    728 ;E:\Dropbox\FAUSTO\SVILUPPI\MSX\CODE\C\MSXgl\projects\exsoccer/exsoccer_s22_b2.c:125: g_Players[playerId].X--;
    00000257 DD 6E F3         [19]  729 	ld	l, -13 (ix)
    0000025A DD 66 F4         [19]  730 	ld	h, -12 (ix)
    0000025D 5E               [ 7]  731 	ld	e, (hl)
    0000025E 23               [ 6]  732 	inc	hl
    0000025F 56               [ 7]  733 	ld	d, (hl)
    00000260 1B               [ 6]  734 	dec	de
    00000261 DD 6E F3         [19]  735 	ld	l, -13 (ix)
    00000264 DD 66 F4         [19]  736 	ld	h, -12 (ix)
    00000267 73               [ 7]  737 	ld	(hl), e
    00000268 23               [ 6]  738 	inc	hl
    00000269 72               [ 7]  739 	ld	(hl), d
    0000026A                        740 00155$:
                                    741 ;E:\Dropbox\FAUSTO\SVILUPPI\MSX\CODE\C\MSXgl\projects\exsoccer/exsoccer_s22_b2.c:112: if (g_Players[playerId].Direction == DIRECTION_UP ||
    0000026A 0A               [ 7]  742 	ld	a, (bc)
                                    743 ;E:\Dropbox\FAUSTO\SVILUPPI\MSX\CODE\C\MSXgl\projects\exsoccer/exsoccer_s22_b2.c:127: if (g_Players[playerId].Direction == DIRECTION_RIGHT ||
    0000026B FE 03            [ 7]  744 	cp	a, #0x03
    0000026D 28 08            [12]  745 	jr	Z, 00158$
                                    746 ;E:\Dropbox\FAUSTO\SVILUPPI\MSX\CODE\C\MSXgl\projects\exsoccer/exsoccer_s22_b2.c:128: g_Players[playerId].Direction == DIRECTION_UP_RIGHT ||
    0000026F FE 02            [ 7]  747 	cp	a, #0x02
    00000271 28 04            [12]  748 	jr	Z, 00158$
                                    749 ;E:\Dropbox\FAUSTO\SVILUPPI\MSX\CODE\C\MSXgl\projects\exsoccer/exsoccer_s22_b2.c:129: g_Players[playerId].Direction == DIRECTION_DOWN_RIGHT) {
    00000273 D6 04            [ 7]  750 	sub	a, #0x04
    00000275 20 13            [12]  751 	jr	NZ, 00159$
    00000277                        752 00158$:
                                    753 ;E:\Dropbox\FAUSTO\SVILUPPI\MSX\CODE\C\MSXgl\projects\exsoccer/exsoccer_s22_b2.c:130: g_Players[playerId].X++;
    00000277 DD 6E F3         [19]  754 	ld	l, -13 (ix)
    0000027A DD 66 F4         [19]  755 	ld	h, -12 (ix)
    0000027D 4E               [ 7]  756 	ld	c, (hl)
    0000027E 23               [ 6]  757 	inc	hl
    0000027F 46               [ 7]  758 	ld	b, (hl)
    00000280 03               [ 6]  759 	inc	bc
    00000281 DD 6E F3         [19]  760 	ld	l, -13 (ix)
    00000284 DD 66 F4         [19]  761 	ld	h, -12 (ix)
    00000287 71               [ 7]  762 	ld	(hl), c
    00000288 23               [ 6]  763 	inc	hl
    00000289 70               [ 7]  764 	ld	(hl), b
    0000028A                        765 00159$:
                                    766 ;E:\Dropbox\FAUSTO\SVILUPPI\MSX\CODE\C\MSXgl\projects\exsoccer/exsoccer_s22_b2.c:134: if(g_Players[playerId].Y < FIELD_BOUND_Y_TOP) g_Players[playerId].Y = FIELD_BOUND_Y_TOP;
    0000028A DD 6E F1         [19]  767 	ld	l, -15 (ix)
    0000028D DD 66 F2         [19]  768 	ld	h, -14 (ix)
    00000290 4E               [ 7]  769 	ld	c, (hl)
    00000291 23               [ 6]  770 	inc	hl
    00000292 46               [ 7]  771 	ld	b, (hl)
    00000293 79               [ 4]  772 	ld	a, c
    00000294 D6 32            [ 7]  773 	sub	a, #0x32
    00000296 78               [ 4]  774 	ld	a, b
    00000297 DE 00            [ 7]  775 	sbc	a, #0x00
    00000299 30 0B            [12]  776 	jr	NC, 00163$
    0000029B DD 6E F1         [19]  777 	ld	l, -15 (ix)
    0000029E DD 66 F2         [19]  778 	ld	h, -14 (ix)
    000002A1 36 32            [10]  779 	ld	(hl), #0x32
    000002A3 23               [ 6]  780 	inc	hl
    000002A4 36 00            [10]  781 	ld	(hl), #0x00
    000002A6                        782 00163$:
                                    783 ;E:\Dropbox\FAUSTO\SVILUPPI\MSX\CODE\C\MSXgl\projects\exsoccer/exsoccer_s22_b2.c:135: if(g_Players[playerId].Y > FIELD_BOUND_Y_BOTTOM) g_Players[playerId].Y = FIELD_BOUND_Y_BOTTOM;
    000002A6 DD 6E F1         [19]  784 	ld	l, -15 (ix)
    000002A9 DD 66 F2         [19]  785 	ld	h, -14 (ix)
    000002AC 4E               [ 7]  786 	ld	c, (hl)
    000002AD 23               [ 6]  787 	inc	hl
    000002AE 46               [ 7]  788 	ld	b, (hl)
    000002AF 3E AE            [ 7]  789 	ld	a, #0xae
    000002B1 B9               [ 4]  790 	cp	a, c
    000002B2 3E 01            [ 7]  791 	ld	a, #0x01
    000002B4 98               [ 4]  792 	sbc	a, b
    000002B5 30 0B            [12]  793 	jr	NC, 00165$
    000002B7 DD 6E F1         [19]  794 	ld	l, -15 (ix)
    000002BA DD 66 F2         [19]  795 	ld	h, -14 (ix)
    000002BD 36 AE            [10]  796 	ld	(hl), #0xae
    000002BF 23               [ 6]  797 	inc	hl
    000002C0 36 01            [10]  798 	ld	(hl), #0x01
    000002C2                        799 00165$:
                                    800 ;E:\Dropbox\FAUSTO\SVILUPPI\MSX\CODE\C\MSXgl\projects\exsoccer/exsoccer_s22_b2.c:136: if(g_Players[playerId].X < FIELD_BOUND_X_LEFT) g_Players[playerId].X = FIELD_BOUND_X_LEFT;
    000002C2 DD 6E F3         [19]  801 	ld	l, -13 (ix)
    000002C5 DD 66 F4         [19]  802 	ld	h, -12 (ix)
    000002C8 4E               [ 7]  803 	ld	c, (hl)
    000002C9 23               [ 6]  804 	inc	hl
    000002CA 46               [ 7]  805 	ld	b, (hl)
    000002CB 79               [ 4]  806 	ld	a, c
    000002CC D6 0A            [ 7]  807 	sub	a, #0x0a
    000002CE 78               [ 4]  808 	ld	a, b
    000002CF DE 00            [ 7]  809 	sbc	a, #0x00
    000002D1 30 0B            [12]  810 	jr	NC, 00167$
    000002D3 DD 6E F3         [19]  811 	ld	l, -13 (ix)
    000002D6 DD 66 F4         [19]  812 	ld	h, -12 (ix)
    000002D9 36 0A            [10]  813 	ld	(hl), #0x0a
    000002DB 23               [ 6]  814 	inc	hl
    000002DC 36 00            [10]  815 	ld	(hl), #0x00
    000002DE                        816 00167$:
                                    817 ;E:\Dropbox\FAUSTO\SVILUPPI\MSX\CODE\C\MSXgl\projects\exsoccer/exsoccer_s22_b2.c:137: if(g_Players[playerId].X > FIELD_BOUND_X_RIGHT) g_Players[playerId].X = FIELD_BOUND_X_RIGHT;
    000002DE DD 6E F3         [19]  818 	ld	l, -13 (ix)
    000002E1 DD 66 F4         [19]  819 	ld	h, -12 (ix)
    000002E4 4E               [ 7]  820 	ld	c, (hl)
    000002E5 23               [ 6]  821 	inc	hl
    000002E6 46               [ 7]  822 	ld	b, (hl)
    000002E7 3E F6            [ 7]  823 	ld	a, #0xf6
    000002E9 B9               [ 4]  824 	cp	a, c
    000002EA 3E 00            [ 7]  825 	ld	a, #0x00
    000002EC 98               [ 4]  826 	sbc	a, b
    000002ED 30 0B            [12]  827 	jr	NC, 00169$
    000002EF DD 6E F3         [19]  828 	ld	l, -13 (ix)
    000002F2 DD 66 F4         [19]  829 	ld	h, -12 (ix)
    000002F5 36 F6            [10]  830 	ld	(hl), #0xf6
    000002F7 23               [ 6]  831 	inc	hl
    000002F8 36 00            [10]  832 	ld	(hl), #0x00
    000002FA                        833 00169$:
                                    834 ;E:\Dropbox\FAUSTO\SVILUPPI\MSX\CODE\C\MSXgl\projects\exsoccer/exsoccer_s22_b2.c:143: g_Players[playerId].Status = PLAYER_STATUS_NONE; // Force not positioned
    000002FA DD 6E F1         [19]  835 	ld	l, -15 (ix)
    000002FD DD 66 F2         [19]  836 	ld	h, -14 (ix)
    00000300 11 12 00         [10]  837 	ld	de, #0x0012
    00000303 19               [11]  838 	add	hl, de
                                    839 ;E:\Dropbox\FAUSTO\SVILUPPI\MSX\CODE\C\MSXgl\projects\exsoccer/exsoccer_s22_b2.c:142: if (moveDir != DIRECTION_NONE) {
    00000304 DD 7E FF         [19]  840 	ld	a, -1 (ix)
    00000307 B7               [ 4]  841 	or	a, a
    00000308 28 07            [12]  842 	jr	Z, 00171$
                                    843 ;E:\Dropbox\FAUSTO\SVILUPPI\MSX\CODE\C\MSXgl\projects\exsoccer/exsoccer_s22_b2.c:143: g_Players[playerId].Status = PLAYER_STATUS_NONE; // Force not positioned
    0000030A AF               [ 4]  844 	xor	a, a
    0000030B 77               [ 7]  845 	ld	(hl), a
    0000030C 23               [ 6]  846 	inc	hl
    0000030D 77               [ 7]  847 	ld	(hl), a
    0000030E C3r0Cr1F         [10]  848 	jp	00718$
    00000311                        849 00171$:
                                    850 ;E:\Dropbox\FAUSTO\SVILUPPI\MSX\CODE\C\MSXgl\projects\exsoccer/exsoccer_s22_b2.c:145: g_Players[playerId].Status = PLAYER_STATUS_POSITIONED; // Allow rest
    00000311 36 04            [10]  851 	ld	(hl), #0x04
    00000313 23               [ 6]  852 	inc	hl
    00000314 36 00            [10]  853 	ld	(hl), #0x00
                                    854 ;E:\Dropbox\FAUSTO\SVILUPPI\MSX\CODE\C\MSXgl\projects\exsoccer/exsoccer_s22_b2.c:148: return;
    00000316 C3r0Cr1F         [10]  855 	jp	00718$
    00000319                        856 00174$:
                                    857 ;E:\Dropbox\FAUSTO\SVILUPPI\MSX\CODE\C\MSXgl\projects\exsoccer/exsoccer_s22_b2.c:151: u8 playerTeamId = g_Players[playerId].TeamId;
    00000319 3Er00            [ 7]  858 	ld	a, #<(_g_Players)
    0000031B DD 86 FE         [19]  859 	add	a, -2 (ix)
    0000031E DD 77 DA         [19]  860 	ld	-38 (ix), a
    00000321 3Es00            [ 7]  861 	ld	a, #>(_g_Players)
    00000323 DD 8E FF         [19]  862 	adc	a, -1 (ix)
    00000326 DD 77 DB         [19]  863 	ld	-37 (ix), a
    00000329 C1               [10]  864 	pop	bc
    0000032A C5               [11]  865 	push	bc
    0000032B 21 09 00         [10]  866 	ld	hl, #9
    0000032E 09               [11]  867 	add	hl, bc
    0000032F 7E               [ 7]  868 	ld	a, (hl)
    00000330 DD 77 DC         [19]  869 	ld	-36 (ix), a
                                    870 ;E:\Dropbox\FAUSTO\SVILUPPI\MSX\CODE\C\MSXgl\projects\exsoccer/exsoccer_s22_b2.c:152: bool ballPossessionByPlayerTeam = false;
    00000333 DD 36 FA 00      [19]  871 	ld	-6 (ix), #0x00
                                    872 ;E:\Dropbox\FAUSTO\SVILUPPI\MSX\CODE\C\MSXgl\projects\exsoccer/exsoccer_s22_b2.c:153: const TeamStats* stats = GetTeamStats(playerTeamId);
    00000337 DD 7E DC         [19]  873 	ld	a, -36 (ix)
    0000033A CDr00r00         [17]  874 	call	_GetTeamStats
    0000033D DD 73 DD         [19]  875 	ld	-35 (ix), e
    00000340 DD 72 DE         [19]  876 	ld	-34 (ix), d
                                    877 ;E:\Dropbox\FAUSTO\SVILUPPI\MSX\CODE\C\MSXgl\projects\exsoccer/exsoccer_s22_b2.c:155: if (g_MatchStatus == MATCH_BALL_ON_GOALKEEPER) {
    00000343 3Ar00r00         [13]  878 	ld	a, (_g_MatchStatus+0)
    00000346 D6 0D            [ 7]  879 	sub	a, #0x0d
    00000348 20 44            [12]  880 	jr	NZ, 00187$
                                    881 ;E:\Dropbox\FAUSTO\SVILUPPI\MSX\CODE\C\MSXgl\projects\exsoccer/exsoccer_s22_b2.c:158: if (g_Ball.PossessionPlayerId != NO_VALUE) {
    0000034A 3Ar06r00         [13]  882 	ld	a, (#(_g_Ball + 6) + 0)
    0000034D DD 77 FF         [19]  883 	ld	-1 (ix), a
    00000350 3C               [ 4]  884 	inc	a
    00000351 CArDEr03         [10]  885 	jp	Z,00188$
                                    886 ;E:\Dropbox\FAUSTO\SVILUPPI\MSX\CODE\C\MSXgl\projects\exsoccer/exsoccer_s22_b2.c:159: if (g_Players[g_Ball.PossessionPlayerId].TeamId == playerTeamId) ballPossessionByPlayerTeam = true;
    00000354 DD 4E FF         [19]  887 	ld	c, -1 (ix)
    00000357 06 00            [ 7]  888 	ld	b, #0x00
    00000359 69               [ 4]  889 	ld	l, c
    0000035A 60               [ 4]  890 	ld	h, b
    0000035B 29               [11]  891 	add	hl, hl
    0000035C 29               [11]  892 	add	hl, hl
    0000035D 09               [11]  893 	add	hl, bc
    0000035E 29               [11]  894 	add	hl, hl
    0000035F 29               [11]  895 	add	hl, hl
    00000360 09               [11]  896 	add	hl, bc
    00000361 DD 75 FB         [19]  897 	ld	-5 (ix), l
    00000364 DD 74 FC         [19]  898 	ld	-4 (ix), h
    00000367 3Er00            [ 7]  899 	ld	a, #<(_g_Players)
    00000369 DD 86 FB         [19]  900 	add	a, -5 (ix)
    0000036C DD 77 FE         [19]  901 	ld	-2 (ix), a
    0000036F 3Es00            [ 7]  902 	ld	a, #>(_g_Players)
    00000371 DD 8E FC         [19]  903 	adc	a, -4 (ix)
    00000374 DD 77 FF         [19]  904 	ld	-1 (ix), a
    00000377 DD 6E FE         [19]  905 	ld	l, -2 (ix)
    0000037A DD 66 FF         [19]  906 	ld	h, -1 (ix)
    0000037D 11 09 00         [10]  907 	ld	de, #0x0009
    00000380 19               [11]  908 	add	hl, de
    00000381 DD 7E DC         [19]  909 	ld	a,-36 (ix)
    00000384 96               [ 7]  910 	sub	a,(hl)
    00000385 20 57            [12]  911 	jr	NZ, 00188$
    00000387 DD 36 FA 01      [19]  912 	ld	-6 (ix), #0x01
    0000038B C3rDEr03         [10]  913 	jp	00188$
    0000038E                        914 00187$:
                                    915 ;E:\Dropbox\FAUSTO\SVILUPPI\MSX\CODE\C\MSXgl\projects\exsoccer/exsoccer_s22_b2.c:163: if (g_Ball.PossessionPlayerId != NO_VALUE) {
    0000038E 3Ar06r00         [13]  916 	ld	a, (#_g_Ball + 6)
    00000391 DD 77 FF         [19]  917 	ld	-1 (ix), a
    00000394 3C               [ 4]  918 	inc	a
    00000395 28 3A            [12]  919 	jr	Z, 00184$
                                    920 ;E:\Dropbox\FAUSTO\SVILUPPI\MSX\CODE\C\MSXgl\projects\exsoccer/exsoccer_s22_b2.c:164: if (g_Players[g_Ball.PossessionPlayerId].TeamId == playerTeamId) {
    00000397 DD 4E FF         [19]  921 	ld	c, -1 (ix)
    0000039A 06 00            [ 7]  922 	ld	b, #0x00
    0000039C 69               [ 4]  923 	ld	l, c
    0000039D 60               [ 4]  924 	ld	h, b
    0000039E 29               [11]  925 	add	hl, hl
    0000039F 29               [11]  926 	add	hl, hl
    000003A0 09               [11]  927 	add	hl, bc
    000003A1 29               [11]  928 	add	hl, hl
    000003A2 29               [11]  929 	add	hl, hl
    000003A3 09               [11]  930 	add	hl, bc
    000003A4 DD 75 FB         [19]  931 	ld	-5 (ix), l
    000003A7 DD 74 FC         [19]  932 	ld	-4 (ix), h
    000003AA 3Er00            [ 7]  933 	ld	a, #<(_g_Players)
    000003AC DD 86 FB         [19]  934 	add	a, -5 (ix)
    000003AF DD 77 FE         [19]  935 	ld	-2 (ix), a
    000003B2 3Es00            [ 7]  936 	ld	a, #>(_g_Players)
    000003B4 DD 8E FC         [19]  937 	adc	a, -4 (ix)
    000003B7 DD 77 FF         [19]  938 	ld	-1 (ix), a
    000003BA DD 6E FE         [19]  939 	ld	l, -2 (ix)
    000003BD DD 66 FF         [19]  940 	ld	h, -1 (ix)
    000003C0 11 09 00         [10]  941 	ld	de, #0x0009
    000003C3 19               [11]  942 	add	hl, de
    000003C4 DD 7E DC         [19]  943 	ld	a,-36 (ix)
    000003C7 96               [ 7]  944 	sub	a,(hl)
    000003C8 20 14            [12]  945 	jr	NZ, 00188$
                                    946 ;E:\Dropbox\FAUSTO\SVILUPPI\MSX\CODE\C\MSXgl\projects\exsoccer/exsoccer_s22_b2.c:165: ballPossessionByPlayerTeam = true;
    000003CA DD 36 FA 01      [19]  947 	ld	-6 (ix), #0x01
    000003CE C3rDEr03         [10]  948 	jp	00188$
    000003D1                        949 00184$:
                                    950 ;E:\Dropbox\FAUSTO\SVILUPPI\MSX\CODE\C\MSXgl\projects\exsoccer/exsoccer_s22_b2.c:169: if (g_Ball.LastTouchTeamId == playerTeamId) {
    000003D1 21r0Er00         [10]  951 	ld	hl, #_g_Ball + 14
    000003D4 DD 7E DC         [19]  952 	ld	a,-36 (ix)
    000003D7 96               [ 7]  953 	sub	a,(hl)
    000003D8 20 04            [12]  954 	jr	NZ, 00188$
                                    955 ;E:\Dropbox\FAUSTO\SVILUPPI\MSX\CODE\C\MSXgl\projects\exsoccer/exsoccer_s22_b2.c:170: ballPossessionByPlayerTeam = true;
    000003DA DD 36 FA 01      [19]  956 	ld	-6 (ix), #0x01
    000003DE                        957 00188$:
                                    958 ;E:\Dropbox\FAUSTO\SVILUPPI\MSX\CODE\C\MSXgl\projects\exsoccer/exsoccer_s22_b2.c:178: if (ballPossessionByPlayerTeam) {
    000003DE DD 7E FA         [19]  959 	ld	a, -6 (ix)
    000003E1 B7               [ 4]  960 	or	a, a
    000003E2 CArA6r13         [10]  961 	jp	Z, 00491$
                                    962 ;E:\Dropbox\FAUSTO\SVILUPPI\MSX\CODE\C\MSXgl\projects\exsoccer/exsoccer_s22_b2.c:181: if (g_Ball.PossessionPlayerId == playerId) {
    000003E5 3Ar06r00         [13]  963 	ld	a, (#_g_Ball + 6)
    000003E8 DD 77 FF         [19]  964 	ld	-1 (ix), a
    000003EB DD 7E FD         [19]  965 	ld	a, -3 (ix)
    000003EE DD 96 FF         [19]  966 	sub	a, -1 (ix)
    000003F1 C2r1Br0D         [10]  967 	jp	NZ,00370$
                                    968 ;E:\Dropbox\FAUSTO\SVILUPPI\MSX\CODE\C\MSXgl\projects\exsoccer/exsoccer_s22_b2.c:184: if (g_Players[playerId].Role == PLAYER_ROLE_GOALKEEPER) return;
    000003F4 C1               [10]  969 	pop	bc
    000003F5 C5               [11]  970 	push	bc
    000003F6 21 0D 00         [10]  971 	ld	hl, #13
    000003F9 09               [11]  972 	add	hl, bc
    000003FA 7E               [ 7]  973 	ld	a, (hl)
    000003FB DD 77 DF         [19]  974 	ld	-33 (ix), a
    000003FE B7               [ 4]  975 	or	a, a
    000003FF CAr0Cr1F         [10]  976 	jp	Z,00718$
                                    977 ;E:\Dropbox\FAUSTO\SVILUPPI\MSX\CODE\C\MSXgl\projects\exsoccer/exsoccer_s22_b2.c:190: if (playerTeamId == TEAM_1) { 
    00000402 DD 7E DC         [19]  978 	ld	a, -36 (ix)
    00000405 3D               [ 4]  979 	dec	a
    00000406 3E 01            [ 7]  980 	ld	a, #0x01
    00000408 28 01            [12]  981 	jr	Z, 02280$
    0000040A AF               [ 4]  982 	xor	a, a
    0000040B                        983 02280$:
    0000040B DD 77 E0         [19]  984 	ld	-32 (ix), a
    0000040E B7               [ 4]  985 	or	a, a
    0000040F 28 0B            [12]  986 	jr	Z, 00192$
                                    987 ;E:\Dropbox\FAUSTO\SVILUPPI\MSX\CODE\C\MSXgl\projects\exsoccer/exsoccer_s22_b2.c:191: targetY_Goal = goalTopY - 20; 
    00000411 DD 36 E1 37      [19]  988 	ld	-31 (ix), #0x37
    00000415 DD 36 E2 00      [19]  989 	ld	-30 (ix), #0
    00000419 C3r24r04         [10]  990 	jp	00193$
    0000041C                        991 00192$:
                                    992 ;E:\Dropbox\FAUSTO\SVILUPPI\MSX\CODE\C\MSXgl\projects\exsoccer/exsoccer_s22_b2.c:193: targetY_Goal = goalBottomY + 20;
    0000041C DD 36 E1 A9      [19]  993 	ld	-31 (ix), #0xa9
    00000420 DD 36 E2 01      [19]  994 	ld	-30 (ix), #0x01
    00000424                        995 00193$:
                                    996 ;E:\Dropbox\FAUSTO\SVILUPPI\MSX\CODE\C\MSXgl\projects\exsoccer/exsoccer_s22_b2.c:197: targetX_Goal = g_Players[playerId].X;
    00000424 DD 7E DA         [19]  997 	ld	a, -38 (ix)
    00000427 C6 02            [ 7]  998 	add	a, #0x02
    00000429 DD 77 E3         [19]  999 	ld	-29 (ix), a
    0000042C DD 7E DB         [19] 1000 	ld	a, -37 (ix)
    0000042F CE 00            [ 7] 1001 	adc	a, #0x00
    00000431 DD 77 E4         [19] 1002 	ld	-28 (ix), a
    00000434 DD 6E E3         [19] 1003 	ld	l, -29 (ix)
    00000437 DD 66 E4         [19] 1004 	ld	h, -28 (ix)
    0000043A 7E               [ 7] 1005 	ld	a, (hl)
    0000043B DD 77 E5         [19] 1006 	ld	-27 (ix), a
    0000043E 23               [ 6] 1007 	inc	hl
    0000043F 7E               [ 7] 1008 	ld	a, (hl)
    00000440 DD 77 E6         [19] 1009 	ld	-26 (ix), a
    00000443 DD 7E E5         [19] 1010 	ld	a, -27 (ix)
    00000446 DD 77 E7         [19] 1011 	ld	-25 (ix), a
    00000449 DD 7E E6         [19] 1012 	ld	a, -26 (ix)
    0000044C DD 77 E8         [19] 1013 	ld	-24 (ix), a
                                   1014 ;E:\Dropbox\FAUSTO\SVILUPPI\MSX\CODE\C\MSXgl\projects\exsoccer/exsoccer_s22_b2.c:198: if (targetX_Goal > 100 && targetX_Goal < 156) {
    0000044F DD 4E E7         [19] 1015 	ld	c, -25 (ix)
    00000452 DD 46 E8         [19] 1016 	ld	b, -24 (ix)
    00000455 3E 64            [ 7] 1017 	ld	a, #0x64
    00000457 B9               [ 4] 1018 	cp	a, c
    00000458 3E 00            [ 7] 1019 	ld	a, #0x00
    0000045A 98               [ 4] 1020 	sbc	a, b
    0000045B 30 21            [12] 1021 	jr	NC, 00198$
    0000045D 79               [ 4] 1022 	ld	a, c
    0000045E D6 9C            [ 7] 1023 	sub	a, #0x9c
    00000460 78               [ 4] 1024 	ld	a, b
    00000461 DE 00            [ 7] 1025 	sbc	a, #0x00
    00000463 30 19            [12] 1026 	jr	NC, 00198$
                                   1027 ;E:\Dropbox\FAUSTO\SVILUPPI\MSX\CODE\C\MSXgl\projects\exsoccer/exsoccer_s22_b2.c:199: if ((g_Players[playerId].Role % 2) != 0) targetX_Goal = 60; // Go Left
    00000465 DD CB DF 46      [20] 1028 	bit	0, -33 (ix)
    00000469 28 0B            [12] 1029 	jr	Z, 00195$
    0000046B DD 36 E7 3C      [19] 1030 	ld	-25 (ix), #0x3c
    0000046F DD 36 E8 00      [19] 1031 	ld	-24 (ix), #0
    00000473 C3r7Er04         [10] 1032 	jp	00198$
    00000476                       1033 00195$:
                                   1034 ;E:\Dropbox\FAUSTO\SVILUPPI\MSX\CODE\C\MSXgl\projects\exsoccer/exsoccer_s22_b2.c:200: else targetX_Goal = 190; // Go Right
    00000476 DD 36 E7 BE      [19] 1035 	ld	-25 (ix), #0xbe
    0000047A DD 36 E8 00      [19] 1036 	ld	-24 (ix), #0
    0000047E                       1037 00198$:
                                   1038 ;E:\Dropbox\FAUSTO\SVILUPPI\MSX\CODE\C\MSXgl\projects\exsoccer/exsoccer_s22_b2.c:203: if (targetX_Goal < FIELD_BOUND_X_LEFT + 20) targetX_Goal = FIELD_BOUND_X_LEFT + 20;
    0000047E DD 7E E7         [19] 1039 	ld	a, -25 (ix)
    00000481 D6 1E            [ 7] 1040 	sub	a, #0x1e
    00000483 DD 7E E8         [19] 1041 	ld	a, -24 (ix)
    00000486 DE 00            [ 7] 1042 	sbc	a, #0x00
    00000488 30 08            [12] 1043 	jr	NC, 00201$
    0000048A DD 36 E7 1E      [19] 1044 	ld	-25 (ix), #0x1e
    0000048E DD 36 E8 00      [19] 1045 	ld	-24 (ix), #0
    00000492                       1046 00201$:
                                   1047 ;E:\Dropbox\FAUSTO\SVILUPPI\MSX\CODE\C\MSXgl\projects\exsoccer/exsoccer_s22_b2.c:204: if (targetX_Goal > FIELD_BOUND_X_RIGHT - 20) targetX_Goal = FIELD_BOUND_X_RIGHT - 20;
    00000492 3E E2            [ 7] 1048 	ld	a, #0xe2
    00000494 DD BE E7         [19] 1049 	cp	a, -25 (ix)
    00000497 3E 00            [ 7] 1050 	ld	a, #0x00
    00000499 DD 9E E8         [19] 1051 	sbc	a, -24 (ix)
    0000049C 30 08            [12] 1052 	jr	NC, 00203$
    0000049E DD 36 E7 E2      [19] 1053 	ld	-25 (ix), #0xe2
    000004A2 DD 36 E8 00      [19] 1054 	ld	-24 (ix), #0
    000004A6                       1055 00203$:
                                   1056 ;E:\Dropbox\FAUSTO\SVILUPPI\MSX\CODE\C\MSXgl\projects\exsoccer/exsoccer_s22_b2.c:208: bool obstacleRight = false;
    000004A6 DD 36 E9 00      [19] 1057 	ld	-23 (ix), #0x00
                                   1058 ;E:\Dropbox\FAUSTO\SVILUPPI\MSX\CODE\C\MSXgl\projects\exsoccer/exsoccer_s22_b2.c:209: bool obstacleLeft = false;
    000004AA DD 36 EA 00      [19] 1059 	ld	-22 (ix), #0x00
                                   1060 ;E:\Dropbox\FAUSTO\SVILUPPI\MSX\CODE\C\MSXgl\projects\exsoccer/exsoccer_s22_b2.c:210: bool obstacleFront = false;
    000004AE DD 36 EB 00      [19] 1061 	ld	-21 (ix), #0x00
                                   1062 ;E:\Dropbox\FAUSTO\SVILUPPI\MSX\CODE\C\MSXgl\projects\exsoccer/exsoccer_s22_b2.c:211: bool obstacleFrontNonGK = false;
    000004B2 DD 36 EC 00      [19] 1063 	ld	-20 (ix), #0x00
                                   1064 ;E:\Dropbox\FAUSTO\SVILUPPI\MSX\CODE\C\MSXgl\projects\exsoccer/exsoccer_s22_b2.c:212: bool dangerousOpponent = false;
    000004B6 DD 36 ED 00      [19] 1065 	ld	-19 (ix), #0x00
                                   1066 ;E:\Dropbox\FAUSTO\SVILUPPI\MSX\CODE\C\MSXgl\projects\exsoccer/exsoccer_s22_b2.c:215: for(i=0; i<14; i++) { 
    000004BA E1               [10] 1067 	pop	hl
    000004BB E5               [11] 1068 	push	hl
    000004BC 7E               [ 7] 1069 	ld	a, (hl)
    000004BD DD 77 EE         [19] 1070 	ld	-18 (ix), a
    000004C0 23               [ 6] 1071 	inc	hl
    000004C1 7E               [ 7] 1072 	ld	a, (hl)
    000004C2 DD 77 EF         [19] 1073 	ld	-17 (ix), a
    000004C5 AF               [ 4] 1074 	xor	a, a
    000004C6 DD 77 FE         [19] 1075 	ld	-2 (ix), a
    000004C9 DD 77 FF         [19] 1076 	ld	-1 (ix), a
    000004CC                       1077 00706$:
                                   1078 ;E:\Dropbox\FAUSTO\SVILUPPI\MSX\CODE\C\MSXgl\projects\exsoccer/exsoccer_s22_b2.c:216: if (g_Players[i].TeamId == playerTeamId) continue;
    000004CC DD 4E FE         [19] 1079 	ld	c, -2 (ix)
    000004CF DD 46 FF         [19] 1080 	ld	b, -1 (ix)
    000004D2 69               [ 4] 1081 	ld	l, c
    000004D3 60               [ 4] 1082 	ld	h, b
    000004D4 29               [11] 1083 	add	hl, hl
    000004D5 29               [11] 1084 	add	hl, hl
    000004D6 09               [11] 1085 	add	hl, bc
    000004D7 29               [11] 1086 	add	hl, hl
    000004D8 29               [11] 1087 	add	hl, hl
    000004D9 09               [11] 1088 	add	hl, bc
    000004DA DD 75 FB         [19] 1089 	ld	-5 (ix), l
    000004DD DD 74 FC         [19] 1090 	ld	-4 (ix), h
    000004E0 DD 7E FB         [19] 1091 	ld	a, -5 (ix)
    000004E3 C6r00            [ 7] 1092 	add	a, #<(_g_Players)
    000004E5 DD 77 F0         [19] 1093 	ld	-16 (ix), a
    000004E8 DD 7E FC         [19] 1094 	ld	a, -4 (ix)
    000004EB CEs00            [ 7] 1095 	adc	a, #>(_g_Players)
    000004ED DD 77 F1         [19] 1096 	ld	-15 (ix), a
    000004F0 DD 4E F0         [19] 1097 	ld	c, -16 (ix)
    000004F3 DD 46 F1         [19] 1098 	ld	b, -15 (ix)
    000004F6 21 09 00         [10] 1099 	ld	hl, #9
    000004F9 09               [11] 1100 	add	hl, bc
    000004FA DD 7E DC         [19] 1101 	ld	a,-36 (ix)
    000004FD 96               [ 7] 1102 	sub	a,(hl)
    000004FE CArE1r06         [10] 1103 	jp	Z,00244$
                                   1104 ;E:\Dropbox\FAUSTO\SVILUPPI\MSX\CODE\C\MSXgl\projects\exsoccer/exsoccer_s22_b2.c:217: if (g_Players[i].Status == PLAYER_STATUS_NONE) continue;
    00000501 DD 4E F0         [19] 1105 	ld	c, -16 (ix)
    00000504 DD 46 F1         [19] 1106 	ld	b, -15 (ix)
    00000507 21 12 00         [10] 1107 	ld	hl, #18
    0000050A 09               [11] 1108 	add	hl, bc
    0000050B 7E               [ 7] 1109 	ld	a, (hl)
    0000050C 23               [ 6] 1110 	inc	hl
    0000050D B6               [ 7] 1111 	or	a, (hl)
    0000050E CArE1r06         [10] 1112 	jp	Z, 00244$
                                   1113 ;E:\Dropbox\FAUSTO\SVILUPPI\MSX\CODE\C\MSXgl\projects\exsoccer/exsoccer_s22_b2.c:218: if (i == playerId) continue;
    00000511 DD 4E FD         [19] 1114 	ld	c, -3 (ix)
    00000514 06 00            [ 7] 1115 	ld	b, #0x00
    00000516 DD 6E FE         [19] 1116 	ld	l, -2 (ix)
    00000519 DD 66 FF         [19] 1117 	ld	h, -1 (ix)
    0000051C BF               [ 4] 1118 	cp	a, a
    0000051D ED 42            [15] 1119 	sbc	hl, bc
    0000051F CArE1r06         [10] 1120 	jp	Z,00244$
                                   1121 ;E:\Dropbox\FAUSTO\SVILUPPI\MSX\CODE\C\MSXgl\projects\exsoccer/exsoccer_s22_b2.c:220: i16 relX = (i16)g_Players[i].X - (i16)g_Players[playerId].X;
    00000522 DD 6E F0         [19] 1122 	ld	l, -16 (ix)
                                   1123 ;	spillPairReg hl
                                   1124 ;	spillPairReg hl
    00000525 DD 66 F1         [19] 1125 	ld	h, -15 (ix)
                                   1126 ;	spillPairReg hl
                                   1127 ;	spillPairReg hl
    00000528 23               [ 6] 1128 	inc	hl
    00000529 23               [ 6] 1129 	inc	hl
    0000052A 5E               [ 7] 1130 	ld	e, (hl)
    0000052B 23               [ 6] 1131 	inc	hl
    0000052C 56               [ 7] 1132 	ld	d, (hl)
    0000052D EB               [ 4] 1133 	ex	de, hl
    0000052E DD 4E E5         [19] 1134 	ld	c, -27 (ix)
    00000531 DD 46 E6         [19] 1135 	ld	b, -26 (ix)
    00000534 BF               [ 4] 1136 	cp	a, a
    00000535 ED 42            [15] 1137 	sbc	hl, bc
    00000537 DD 75 F2         [19] 1138 	ld	-14 (ix), l
    0000053A DD 74 F3         [19] 1139 	ld	-13 (ix), h
                                   1140 ;E:\Dropbox\FAUSTO\SVILUPPI\MSX\CODE\C\MSXgl\projects\exsoccer/exsoccer_s22_b2.c:221: i16 relY = (i16)g_Players[i].Y - (i16)g_Players[playerId].Y;
    0000053D DD 6E F0         [19] 1141 	ld	l, -16 (ix)
    00000540 DD 66 F1         [19] 1142 	ld	h, -15 (ix)
    00000543 5E               [ 7] 1143 	ld	e, (hl)
    00000544 23               [ 6] 1144 	inc	hl
    00000545 56               [ 7] 1145 	ld	d, (hl)
    00000546 EB               [ 4] 1146 	ex	de, hl
    00000547 DD 4E EE         [19] 1147 	ld	c, -18 (ix)
    0000054A DD 46 EF         [19] 1148 	ld	b, -17 (ix)
    0000054D BF               [ 4] 1149 	cp	a, a
    0000054E ED 42            [15] 1150 	sbc	hl, bc
    00000550 DD 75 F4         [19] 1151 	ld	-12 (ix), l
    00000553 DD 74 F5         [19] 1152 	ld	-11 (ix), h
                                   1153 ;E:\Dropbox\FAUSTO\SVILUPPI\MSX\CODE\C\MSXgl\projects\exsoccer/exsoccer_s22_b2.c:227: bool isFront = false;
    00000556 DD 36 F6 00      [19] 1154 	ld	-10 (ix), #0x00
                                   1155 ;E:\Dropbox\FAUSTO\SVILUPPI\MSX\CODE\C\MSXgl\projects\exsoccer/exsoccer_s22_b2.c:228: bool isBehind = false;
    0000055A DD 36 FC 00      [19] 1156 	ld	-4 (ix), #0x00
                                   1157 ;E:\Dropbox\FAUSTO\SVILUPPI\MSX\CODE\C\MSXgl\projects\exsoccer/exsoccer_s22_b2.c:231: if (relY < 0 && relY > -obstacleDetDist) isFront = true;
    0000055E DD 7E F4         [19] 1158 	ld	a, -12 (ix)
    00000561 DD 77 F7         [19] 1159 	ld	-9 (ix), a
    00000564 DD 7E F5         [19] 1160 	ld	a, -11 (ix)
    00000567 DD 77 F8         [19] 1161 	ld	-8 (ix), a
                                   1162 ;E:\Dropbox\FAUSTO\SVILUPPI\MSX\CODE\C\MSXgl\projects\exsoccer/exsoccer_s22_b2.c:230: if (playerTeamId == TEAM_1) { // Moving UP (Y decreases)
    0000056A DD 7E E0         [19] 1163 	ld	a, -32 (ix)
    0000056D B7               [ 4] 1164 	or	a, a
    0000056E 28 2B            [12] 1165 	jr	Z, 00221$
                                   1166 ;E:\Dropbox\FAUSTO\SVILUPPI\MSX\CODE\C\MSXgl\projects\exsoccer/exsoccer_s22_b2.c:231: if (relY < 0 && relY > -obstacleDetDist) isFront = true;
    00000570 DD 7E F8         [19] 1167 	ld	a, -8 (ix)
    00000573 07               [ 4] 1168 	rlca
    00000574 E6 01            [ 7] 1169 	and	a,#0x01
    00000576 4F               [ 4] 1170 	ld	c, a
    00000577 B7               [ 4] 1171 	or	a, a
    00000578 28 16            [12] 1172 	jr	Z, 00211$
    0000057A 3E E0            [ 7] 1173 	ld	a, #0xe0
    0000057C DD BE F7         [19] 1174 	cp	a, -9 (ix)
    0000057F 3E FF            [ 7] 1175 	ld	a, #0xff
    00000581 DD 9E F8         [19] 1176 	sbc	a, -8 (ix)
    00000584 E2r89r05         [10] 1177 	jp	PO, 02284$
    00000587 EE 80            [ 7] 1178 	xor	a, #0x80
    00000589                       1179 02284$:
    00000589 F2r90r05         [10] 1180 	jp	P, 00211$
    0000058C DD 36 F6 01      [19] 1181 	ld	-10 (ix), #0x01
    00000590                       1182 00211$:
                                   1183 ;E:\Dropbox\FAUSTO\SVILUPPI\MSX\CODE\C\MSXgl\projects\exsoccer/exsoccer_s22_b2.c:232: if (relY >= 0) isBehind = true;
    00000590 CB 41            [ 8] 1184 	bit	0, c
    00000592 20 35            [12] 1185 	jr	NZ, 00222$
    00000594 DD 36 FC 01      [19] 1186 	ld	-4 (ix), #0x01
    00000598 C3rC9r05         [10] 1187 	jp	00222$
    0000059B                       1188 00221$:
                                   1189 ;E:\Dropbox\FAUSTO\SVILUPPI\MSX\CODE\C\MSXgl\projects\exsoccer/exsoccer_s22_b2.c:234: if (relY > 0 && relY < obstacleDetDist) isFront = true;
    0000059B AF               [ 4] 1190 	xor	a, a
    0000059C DD BE F7         [19] 1191 	cp	a, -9 (ix)
    0000059F DD 9E F8         [19] 1192 	sbc	a, -8 (ix)
    000005A2 E2rA7r05         [10] 1193 	jp	PO, 02285$
    000005A5 EE 80            [ 7] 1194 	xor	a, #0x80
    000005A7                       1195 02285$:
    000005A7 07               [ 4] 1196 	rlca
    000005A8 E6 01            [ 7] 1197 	and	a,#0x01
    000005AA 4F               [ 4] 1198 	ld	c, a
    000005AB B7               [ 4] 1199 	or	a, a
    000005AC 28 13            [12] 1200 	jr	Z, 00216$
    000005AE DD 7E F4         [19] 1201 	ld	a, -12 (ix)
    000005B1 D6 20            [ 7] 1202 	sub	a, #0x20
    000005B3 DD 7E F5         [19] 1203 	ld	a, -11 (ix)
    000005B6 17               [ 4] 1204 	rla
    000005B7 3F               [ 4] 1205 	ccf
    000005B8 1F               [ 4] 1206 	rra
    000005B9 DE 80            [ 7] 1207 	sbc	a, #0x80
    000005BB 30 04            [12] 1208 	jr	NC, 00216$
    000005BD DD 36 F6 01      [19] 1209 	ld	-10 (ix), #0x01
    000005C1                       1210 00216$:
                                   1211 ;E:\Dropbox\FAUSTO\SVILUPPI\MSX\CODE\C\MSXgl\projects\exsoccer/exsoccer_s22_b2.c:235: if (relY <= 0) isBehind = true;
    000005C1 CB 41            [ 8] 1212 	bit	0, c
    000005C3 20 04            [12] 1213 	jr	NZ, 00222$
    000005C5 DD 36 FC 01      [19] 1214 	ld	-4 (ix), #0x01
    000005C9                       1215 00222$:
                                   1216 ;E:\Dropbox\FAUSTO\SVILUPPI\MSX\CODE\C\MSXgl\projects\exsoccer/exsoccer_s22_b2.c:240: u8 safeDist = isBehind ? 12 : 16; 
    000005C9 DD 7E FC         [19] 1217 	ld	a, -4 (ix)
    000005CC B7               [ 4] 1218 	or	a, a
    000005CD 28 06            [12] 1219 	jr	Z, 00720$
    000005CF 01 0C 00         [10] 1220 	ld	bc, #0x000c
    000005D2 C3rD8r05         [10] 1221 	jp	00721$
    000005D5                       1222 00720$:
    000005D5 01 10 00         [10] 1223 	ld	bc, #0x0010
    000005D8                       1224 00721$:
                                   1225 ;E:\Dropbox\FAUSTO\SVILUPPI\MSX\CODE\C\MSXgl\projects\exsoccer/exsoccer_s22_b2.c:241: if (relX > -safeDist && relX < safeDist && relY > -safeDist && relY < safeDist) {
    000005D8 79               [ 4] 1226 	ld	a, c
    000005D9 06 00            [ 7] 1227 	ld	b, #0x00
    000005DB ED 44            [ 8] 1228 	neg
    000005DD DD 77 F9         [19] 1229 	ld	-7 (ix), a
    000005E0 9F               [ 4] 1230 	sbc	a, a
    000005E1 90               [ 4] 1231 	sub	a, b
    000005E2 DD 77 FA         [19] 1232 	ld	-6 (ix), a
    000005E5 DD 7E F2         [19] 1233 	ld	a, -14 (ix)
    000005E8 DD 77 FB         [19] 1234 	ld	-5 (ix), a
    000005EB DD 7E F3         [19] 1235 	ld	a, -13 (ix)
    000005EE DD 77 FC         [19] 1236 	ld	-4 (ix), a
    000005F1 DD 7E F9         [19] 1237 	ld	a, -7 (ix)
    000005F4 DD 96 FB         [19] 1238 	sub	a, -5 (ix)
    000005F7 DD 7E FA         [19] 1239 	ld	a, -6 (ix)
    000005FA DD 9E FC         [19] 1240 	sbc	a, -4 (ix)
    000005FD E2r02r06         [10] 1241 	jp	PO, 02286$
    00000600 EE 80            [ 7] 1242 	xor	a, #0x80
    00000602                       1243 02286$:
    00000602 F2r3Fr06         [10] 1244 	jp	P, 00224$
    00000605 06 00            [ 7] 1245 	ld	b, #0x00
    00000607 DD 7E F2         [19] 1246 	ld	a, -14 (ix)
    0000060A 91               [ 4] 1247 	sub	a, c
    0000060B DD 7E F3         [19] 1248 	ld	a, -13 (ix)
    0000060E 98               [ 4] 1249 	sbc	a, b
    0000060F E2r14r06         [10] 1250 	jp	PO, 02287$
    00000612 EE 80            [ 7] 1251 	xor	a, #0x80
    00000614                       1252 02287$:
    00000614 F2r3Fr06         [10] 1253 	jp	P, 00224$
    00000617 DD 7E F9         [19] 1254 	ld	a, -7 (ix)
    0000061A DD 96 F7         [19] 1255 	sub	a, -9 (ix)
    0000061D DD 7E FA         [19] 1256 	ld	a, -6 (ix)
    00000620 DD 9E F8         [19] 1257 	sbc	a, -8 (ix)
    00000623 E2r28r06         [10] 1258 	jp	PO, 02288$
    00000626 EE 80            [ 7] 1259 	xor	a, #0x80
    00000628                       1260 02288$:
    00000628 F2r3Fr06         [10] 1261 	jp	P, 00224$
    0000062B DD 7E F4         [19] 1262 	ld	a, -12 (ix)
    0000062E 91               [ 4] 1263 	sub	a, c
    0000062F DD 7E F5         [19] 1264 	ld	a, -11 (ix)
    00000632 98               [ 4] 1265 	sbc	a, b
    00000633 E2r38r06         [10] 1266 	jp	PO, 02289$
    00000636 EE 80            [ 7] 1267 	xor	a, #0x80
    00000638                       1268 02289$:
    00000638 F2r3Fr06         [10] 1269 	jp	P, 00224$
                                   1270 ;E:\Dropbox\FAUSTO\SVILUPPI\MSX\CODE\C\MSXgl\projects\exsoccer/exsoccer_s22_b2.c:242: dangerousOpponent = true;
    0000063B DD 36 ED 01      [19] 1271 	ld	-19 (ix), #0x01
    0000063F                       1272 00224$:
                                   1273 ;E:\Dropbox\FAUSTO\SVILUPPI\MSX\CODE\C\MSXgl\projects\exsoccer/exsoccer_s22_b2.c:246: if (isFront && relX > -10 && relX < 10) {
    0000063F DD 7E F6         [19] 1274 	ld	a, -10 (ix)
    00000642 B7               [ 4] 1275 	or	a, a
    00000643 28 37            [12] 1276 	jr	Z, 00231$
    00000645 3E F6            [ 7] 1277 	ld	a, #0xf6
    00000647 DD BE F2         [19] 1278 	cp	a, -14 (ix)
    0000064A 3E FF            [ 7] 1279 	ld	a, #0xff
    0000064C DD 9E F3         [19] 1280 	sbc	a, -13 (ix)
    0000064F E2r54r06         [10] 1281 	jp	PO, 02290$
    00000652 EE 80            [ 7] 1282 	xor	a, #0x80
    00000654                       1283 02290$:
    00000654 F2r7Cr06         [10] 1284 	jp	P, 00231$
    00000657 DD 7E FB         [19] 1285 	ld	a, -5 (ix)
    0000065A D6 0A            [ 7] 1286 	sub	a, #0x0a
    0000065C DD 7E FC         [19] 1287 	ld	a, -4 (ix)
    0000065F 17               [ 4] 1288 	rla
    00000660 3F               [ 4] 1289 	ccf
    00000661 1F               [ 4] 1290 	rra
    00000662 DE 80            [ 7] 1291 	sbc	a, #0x80
    00000664 30 16            [12] 1292 	jr	NC, 00231$
                                   1293 ;E:\Dropbox\FAUSTO\SVILUPPI\MSX\CODE\C\MSXgl\projects\exsoccer/exsoccer_s22_b2.c:247: obstacleFront = true;
    00000666 DD 36 EB 01      [19] 1294 	ld	-21 (ix), #0x01
                                   1295 ;E:\Dropbox\FAUSTO\SVILUPPI\MSX\CODE\C\MSXgl\projects\exsoccer/exsoccer_s22_b2.c:248: if (g_Players[i].Role != PLAYER_ROLE_GOALKEEPER) obstacleFrontNonGK = true;
    0000066A DD 4E F0         [19] 1296 	ld	c, -16 (ix)
    0000066D DD 46 F1         [19] 1297 	ld	b, -15 (ix)
    00000670 21 0D 00         [10] 1298 	ld	hl, #13
    00000673 09               [11] 1299 	add	hl, bc
    00000674 7E               [ 7] 1300 	ld	a, (hl)
    00000675 B7               [ 4] 1301 	or	a, a
    00000676 28 04            [12] 1302 	jr	Z, 00231$
    00000678 DD 36 EC 01      [19] 1303 	ld	-20 (ix), #0x01
    0000067C                       1304 00231$:
                                   1305 ;E:\Dropbox\FAUSTO\SVILUPPI\MSX\CODE\C\MSXgl\projects\exsoccer/exsoccer_s22_b2.c:251: if (isFront || (relY < 18 && relY > -18)) { 
    0000067C DD 7E F6         [19] 1306 	ld	a, -10 (ix)
    0000067F B7               [ 4] 1307 	or	a, a
    00000680 20 21            [12] 1308 	jr	NZ, 00240$
    00000682 DD 7E F7         [19] 1309 	ld	a, -9 (ix)
    00000685 D6 12            [ 7] 1310 	sub	a, #0x12
    00000687 DD 7E F8         [19] 1311 	ld	a, -8 (ix)
    0000068A 17               [ 4] 1312 	rla
    0000068B 3F               [ 4] 1313 	ccf
    0000068C 1F               [ 4] 1314 	rra
    0000068D DE 80            [ 7] 1315 	sbc	a, #0x80
    0000068F 30 50            [12] 1316 	jr	NC, 00244$
    00000691 3E EE            [ 7] 1317 	ld	a, #0xee
    00000693 DD BE F4         [19] 1318 	cp	a, -12 (ix)
    00000696 3E FF            [ 7] 1319 	ld	a, #0xff
    00000698 DD 9E F5         [19] 1320 	sbc	a, -11 (ix)
    0000069B E2rA0r06         [10] 1321 	jp	PO, 02291$
    0000069E EE 80            [ 7] 1322 	xor	a, #0x80
    000006A0                       1323 02291$:
    000006A0 F2rE1r06         [10] 1324 	jp	P, 00244$
    000006A3                       1325 00240$:
                                   1326 ;E:\Dropbox\FAUSTO\SVILUPPI\MSX\CODE\C\MSXgl\projects\exsoccer/exsoccer_s22_b2.c:252: if (relX >= 0 && relX < 24) obstacleRight = true; // Obstacle is to my right
    000006A3 DD 7E FC         [19] 1327 	ld	a, -4 (ix)
    000006A6 07               [ 4] 1328 	rlca
    000006A7 E6 01            [ 7] 1329 	and	a,#0x01
    000006A9 DD 77 FA         [19] 1330 	ld	-6 (ix), a
    000006AC DD CB FA 46      [20] 1331 	bit	0, -6 (ix)
    000006B0 20 13            [12] 1332 	jr	NZ, 00235$
    000006B2 DD 7E FB         [19] 1333 	ld	a, -5 (ix)
    000006B5 D6 18            [ 7] 1334 	sub	a, #0x18
    000006B7 DD 7E FC         [19] 1335 	ld	a, -4 (ix)
    000006BA 17               [ 4] 1336 	rla
    000006BB 3F               [ 4] 1337 	ccf
    000006BC 1F               [ 4] 1338 	rra
    000006BD DE 80            [ 7] 1339 	sbc	a, #0x80
    000006BF 30 04            [12] 1340 	jr	NC, 00235$
    000006C1 DD 36 E9 01      [19] 1341 	ld	-23 (ix), #0x01
    000006C5                       1342 00235$:
                                   1343 ;E:\Dropbox\FAUSTO\SVILUPPI\MSX\CODE\C\MSXgl\projects\exsoccer/exsoccer_s22_b2.c:253: if (relX < 0 && relX > -24) obstacleLeft = true; // Obstacle is to my left
    000006C5 DD 7E FA         [19] 1344 	ld	a, -6 (ix)
    000006C8 B7               [ 4] 1345 	or	a, a
    000006C9 28 16            [12] 1346 	jr	Z, 00244$
    000006CB 3E E8            [ 7] 1347 	ld	a, #0xe8
    000006CD DD BE F2         [19] 1348 	cp	a, -14 (ix)
    000006D0 3E FF            [ 7] 1349 	ld	a, #0xff
    000006D2 DD 9E F3         [19] 1350 	sbc	a, -13 (ix)
    000006D5 E2rDAr06         [10] 1351 	jp	PO, 02292$
    000006D8 EE 80            [ 7] 1352 	xor	a, #0x80
    000006DA                       1353 02292$:
    000006DA F2rE1r06         [10] 1354 	jp	P, 00244$
    000006DD DD 36 EA 01      [19] 1355 	ld	-22 (ix), #0x01
    000006E1                       1356 00244$:
                                   1357 ;E:\Dropbox\FAUSTO\SVILUPPI\MSX\CODE\C\MSXgl\projects\exsoccer/exsoccer_s22_b2.c:215: for(i=0; i<14; i++) { 
    000006E1 DD 34 FE         [23] 1358 	inc	-2 (ix)
    000006E4 20 03            [12] 1359 	jr	NZ, 02293$
    000006E6 DD 34 FF         [23] 1360 	inc	-1 (ix)
    000006E9                       1361 02293$:
    000006E9 DD 7E FE         [19] 1362 	ld	a, -2 (ix)
    000006EC D6 0E            [ 7] 1363 	sub	a, #0x0e
    000006EE DD 7E FF         [19] 1364 	ld	a, -1 (ix)
    000006F1 17               [ 4] 1365 	rla
    000006F2 3F               [ 4] 1366 	ccf
    000006F3 1F               [ 4] 1367 	rra
    000006F4 DE 80            [ 7] 1368 	sbc	a, #0x80
    000006F6 DArCCr04         [10] 1369 	jp	C, 00706$
                                   1370 ;E:\Dropbox\FAUSTO\SVILUPPI\MSX\CODE\C\MSXgl\projects\exsoccer/exsoccer_s22_b2.c:262: bool isHumanControlled = false;
    000006F9 DD 36 FE 00      [19] 1371 	ld	-2 (ix), #0x00
                                   1372 ;E:\Dropbox\FAUSTO\SVILUPPI\MSX\CODE\C\MSXgl\projects\exsoccer/exsoccer_s22_b2.c:263: if ((playerTeamId == TEAM_1 && g_Team1ActivePlayer == playerId) || 
    000006FD DD 7E E0         [19] 1373 	ld	a, -32 (ix)
    00000700 B7               [ 4] 1374 	or	a, a
    00000701 28 08            [12] 1375 	jr	Z, 00258$
    00000703 3Ar00r00         [13] 1376 	ld	a, (_g_Team1ActivePlayer+0)
    00000706 DD 96 FD         [19] 1377 	sub	a, -3 (ix)
    00000709 28 15            [12] 1378 	jr	Z, 00253$
    0000070B                       1379 00258$:
                                   1380 ;E:\Dropbox\FAUSTO\SVILUPPI\MSX\CODE\C\MSXgl\projects\exsoccer/exsoccer_s22_b2.c:264: (playerTeamId == TEAM_2 && g_GameWith2Players && g_Team2ActivePlayer == playerId)) {
    0000070B DD 7E DC         [19] 1381 	ld	a, -36 (ix)
    0000070E D6 02            [ 7] 1382 	sub	a, #0x02
    00000710 20 12            [12] 1383 	jr	NZ, 00254$
    00000712 3Ar00r00         [13] 1384 	ld	a, (_g_GameWith2Players+0)
    00000715 B7               [ 4] 1385 	or	a, a
    00000716 28 0C            [12] 1386 	jr	Z, 00254$
    00000718 3Ar00r00         [13] 1387 	ld	a, (_g_Team2ActivePlayer+0)
    0000071B DD 96 FD         [19] 1388 	sub	a, -3 (ix)
    0000071E 20 04            [12] 1389 	jr	NZ, 00254$
    00000720                       1390 00253$:
                                   1391 ;E:\Dropbox\FAUSTO\SVILUPPI\MSX\CODE\C\MSXgl\projects\exsoccer/exsoccer_s22_b2.c:265: isHumanControlled = true;
    00000720 DD 36 FE 01      [19] 1392 	ld	-2 (ix), #0x01
    00000724                       1393 00254$:
                                   1394 ;E:\Dropbox\FAUSTO\SVILUPPI\MSX\CODE\C\MSXgl\projects\exsoccer/exsoccer_s22_b2.c:268: if (!isHumanControlled) {
    00000724 DD 7E FE         [19] 1395 	ld	a, -2 (ix)
    00000727 B7               [ 4] 1396 	or	a, a
    00000728 C2rEFr08         [10] 1397 	jp	NZ, 00296$
                                   1398 ;E:\Dropbox\FAUSTO\SVILUPPI\MSX\CODE\C\MSXgl\projects\exsoccer/exsoccer_s22_b2.c:270: bool inRealShootingRange = false;
    0000072B DD 36 FA 00      [19] 1399 	ld	-6 (ix), #0x00
                                   1400 ;E:\Dropbox\FAUSTO\SVILUPPI\MSX\CODE\C\MSXgl\projects\exsoccer/exsoccer_s22_b2.c:271: bool inDangerousZone = false;
    0000072F DD 36 FF 00      [19] 1401 	ld	-1 (ix), #0x00
                                   1402 ;E:\Dropbox\FAUSTO\SVILUPPI\MSX\CODE\C\MSXgl\projects\exsoccer/exsoccer_s22_b2.c:274: if (playerTeamId == TEAM_1) {
    00000733 DD 7E E0         [19] 1403 	ld	a, -32 (ix)
    00000736 B7               [ 4] 1404 	or	a, a
    00000737 28 37            [12] 1405 	jr	Z, 00268$
                                   1406 ;E:\Dropbox\FAUSTO\SVILUPPI\MSX\CODE\C\MSXgl\projects\exsoccer/exsoccer_s22_b2.c:278: if (g_Players[playerId].Y < (FIELD_BOUND_Y_TOP + 90)) inRealShootingRange = true;
    00000739 DD 7E EE         [19] 1407 	ld	a, -18 (ix)
    0000073C DD 77 FB         [19] 1408 	ld	-5 (ix), a
    0000073F DD 7E EF         [19] 1409 	ld	a, -17 (ix)
    00000742 DD 77 FC         [19] 1410 	ld	-4 (ix), a
    00000745 DD 7E EE         [19] 1411 	ld	a, -18 (ix)
    00000748 D6 8C            [ 7] 1412 	sub	a, #0x8c
    0000074A DD 7E EF         [19] 1413 	ld	a, -17 (ix)
    0000074D DE 00            [ 7] 1414 	sbc	a, #0x00
    0000074F 30 04            [12] 1415 	jr	NC, 00260$
    00000751 DD 36 FA 01      [19] 1416 	ld	-6 (ix), #0x01
    00000755                       1417 00260$:
                                   1418 ;E:\Dropbox\FAUSTO\SVILUPPI\MSX\CODE\C\MSXgl\projects\exsoccer/exsoccer_s22_b2.c:281: if (g_Players[playerId].Y < (FIELD_BOUND_Y_TOP + 60)) inDangerousZone = true; 
    00000755 DD 7E FB         [19] 1419 	ld	a, -5 (ix)
    00000758 D6 6E            [ 7] 1420 	sub	a, #0x6e
    0000075A DD 7E FC         [19] 1421 	ld	a, -4 (ix)
    0000075D DE 00            [ 7] 1422 	sbc	a, #0x00
    0000075F 30 04            [12] 1423 	jr	NC, 00262$
    00000761 DD 36 FF 01      [19] 1424 	ld	-1 (ix), #0x01
    00000765                       1425 00262$:
                                   1426 ;E:\Dropbox\FAUSTO\SVILUPPI\MSX\CODE\C\MSXgl\projects\exsoccer/exsoccer_s22_b2.c:282: goalTargetY = FIELD_BOUND_Y_TOP - 40; 
    00000765 DD 36 FB 0A      [19] 1427 	ld	-5 (ix), #0x0a
    00000769 DD 36 FC 00      [19] 1428 	ld	-4 (ix), #0
    0000076D C3rA4r07         [10] 1429 	jp	00269$
    00000770                       1430 00268$:
                                   1431 ;E:\Dropbox\FAUSTO\SVILUPPI\MSX\CODE\C\MSXgl\projects\exsoccer/exsoccer_s22_b2.c:286: if (g_Players[playerId].Y > (FIELD_BOUND_Y_BOTTOM - 90)) inRealShootingRange = true;
    00000770 DD 7E EE         [19] 1432 	ld	a, -18 (ix)
    00000773 DD 77 FB         [19] 1433 	ld	-5 (ix), a
    00000776 DD 7E EF         [19] 1434 	ld	a, -17 (ix)
    00000779 DD 77 FC         [19] 1435 	ld	-4 (ix), a
    0000077C 3E 54            [ 7] 1436 	ld	a, #0x54
    0000077E DD BE FB         [19] 1437 	cp	a, -5 (ix)
    00000781 3E 01            [ 7] 1438 	ld	a, #0x01
    00000783 DD 9E FC         [19] 1439 	sbc	a, -4 (ix)
    00000786 30 04            [12] 1440 	jr	NC, 00264$
    00000788 DD 36 FA 01      [19] 1441 	ld	-6 (ix), #0x01
    0000078C                       1442 00264$:
                                   1443 ;E:\Dropbox\FAUSTO\SVILUPPI\MSX\CODE\C\MSXgl\projects\exsoccer/exsoccer_s22_b2.c:289: if (g_Players[playerId].Y > (FIELD_BOUND_Y_BOTTOM - 60)) inDangerousZone = true;
    0000078C 3E 72            [ 7] 1444 	ld	a, #0x72
    0000078E DD BE FB         [19] 1445 	cp	a, -5 (ix)
    00000791 3E 01            [ 7] 1446 	ld	a, #0x01
    00000793 DD 9E FC         [19] 1447 	sbc	a, -4 (ix)
    00000796 30 04            [12] 1448 	jr	NC, 00266$
    00000798 DD 36 FF 01      [19] 1449 	ld	-1 (ix), #0x01
    0000079C                       1450 00266$:
                                   1451 ;E:\Dropbox\FAUSTO\SVILUPPI\MSX\CODE\C\MSXgl\projects\exsoccer/exsoccer_s22_b2.c:290: goalTargetY = FIELD_BOUND_Y_BOTTOM + 40; 
    0000079C DD 36 FB D6      [19] 1452 	ld	-5 (ix), #0xd6
    000007A0 DD 36 FC 01      [19] 1453 	ld	-4 (ix), #0x01
    000007A4                       1454 00269$:
                                   1455 ;E:\Dropbox\FAUSTO\SVILUPPI\MSX\CODE\C\MSXgl\projects\exsoccer/exsoccer_s22_b2.c:294: if (g_Players[playerId].Role == PLAYER_ROLE_GOALKEEPER) {
    000007A4 DD 7E DF         [19] 1456 	ld	a, -33 (ix)
    000007A7 B7               [ 4] 1457 	or	a, a
    000007A8 20 08            [12] 1458 	jr	NZ, 00271$
                                   1459 ;E:\Dropbox\FAUSTO\SVILUPPI\MSX\CODE\C\MSXgl\projects\exsoccer/exsoccer_s22_b2.c:295: inRealShootingRange = false;
    000007AA DD 36 FA 00      [19] 1460 	ld	-6 (ix), #0x00
                                   1461 ;E:\Dropbox\FAUSTO\SVILUPPI\MSX\CODE\C\MSXgl\projects\exsoccer/exsoccer_s22_b2.c:296: inDangerousZone = false;
    000007AE DD 36 FF 00      [19] 1462 	ld	-1 (ix), #0x00
    000007B2                       1463 00271$:
                                   1464 ;E:\Dropbox\FAUSTO\SVILUPPI\MSX\CODE\C\MSXgl\projects\exsoccer/exsoccer_s22_b2.c:299: if (inRealShootingRange) {
    000007B2 DD 7E FA         [19] 1465 	ld	a, -6 (ix)
    000007B5 B7               [ 4] 1466 	or	a, a
    000007B6 CArEFr08         [10] 1467 	jp	Z, 00296$
                                   1468 ;E:\Dropbox\FAUSTO\SVILUPPI\MSX\CODE\C\MSXgl\projects\exsoccer/exsoccer_s22_b2.c:308: bool clearShot = !obstacleFrontNonGK;
    000007B9 DD 7E EC         [19] 1469 	ld	a, -20 (ix)
    000007BC D6 01            [ 7] 1470 	sub	a,#0x01
    000007BE 3E 00            [ 7] 1471 	ld	a, #0x00
    000007C0 17               [ 4] 1472 	rla
    000007C1 DD 77 FA         [19] 1473 	ld	-6 (ix), a
                                   1474 ;E:\Dropbox\FAUSTO\SVILUPPI\MSX\CODE\C\MSXgl\projects\exsoccer/exsoccer_s22_b2.c:311: if (inDangerousZone) clearShot = true;
    000007C4 DD 7E FF         [19] 1475 	ld	a, -1 (ix)
    000007C7 B7               [ 4] 1476 	or	a, a
    000007C8 28 04            [12] 1477 	jr	Z, 00273$
    000007CA DD 36 FA 01      [19] 1478 	ld	-6 (ix), #0x01
    000007CE                       1479 00273$:
                                   1480 ;E:\Dropbox\FAUSTO\SVILUPPI\MSX\CODE\C\MSXgl\projects\exsoccer/exsoccer_s22_b2.c:314: if (playerTeamId == TEAM_1) {
    000007CE DD 7E E0         [19] 1481 	ld	a, -32 (ix)
    000007D1 B7               [ 4] 1482 	or	a, a
    000007D2 28 2B            [12] 1483 	jr	Z, 00285$
                                   1484 ;E:\Dropbox\FAUSTO\SVILUPPI\MSX\CODE\C\MSXgl\projects\exsoccer/exsoccer_s22_b2.c:315: if (g_Players[playerId].Y < (FIELD_BOUND_Y_TOP + 20)) {
    000007D4 DD 7E EE         [19] 1485 	ld	a, -18 (ix)
    000007D7 D6 46            [ 7] 1486 	sub	a, #0x46
    000007D9 DD 7E EF         [19] 1487 	ld	a, -17 (ix)
    000007DC DE 00            [ 7] 1488 	sbc	a, #0x00
    000007DE 30 53            [12] 1489 	jr	NC, 00286$
                                   1490 ;E:\Dropbox\FAUSTO\SVILUPPI\MSX\CODE\C\MSXgl\projects\exsoccer/exsoccer_s22_b2.c:316: if (g_Players[playerId].X < (GOAL_X_MIN - 5) || g_Players[playerId].X > (GOAL_X_MAX + 5)) clearShot = false;
    000007E0 DD 7E E5         [19] 1491 	ld	a, -27 (ix)
    000007E3 D6 5B            [ 7] 1492 	sub	a, #0x5b
    000007E5 DD 7E E6         [19] 1493 	ld	a, -26 (ix)
    000007E8 DE 00            [ 7] 1494 	sbc	a, #0x00
    000007EA 38 0C            [12] 1495 	jr	C, 00274$
    000007EC 3E 95            [ 7] 1496 	ld	a, #0x95
    000007EE DD BE E5         [19] 1497 	cp	a, -27 (ix)
    000007F1 3E 00            [ 7] 1498 	ld	a, #0x00
    000007F3 DD 9E E6         [19] 1499 	sbc	a, -26 (ix)
    000007F6 30 3B            [12] 1500 	jr	NC, 00286$
    000007F8                       1501 00274$:
    000007F8 DD 36 FA 00      [19] 1502 	ld	-6 (ix), #0x00
    000007FC C3r33r08         [10] 1503 	jp	00286$
    000007FF                       1504 00285$:
                                   1505 ;E:\Dropbox\FAUSTO\SVILUPPI\MSX\CODE\C\MSXgl\projects\exsoccer/exsoccer_s22_b2.c:319: if (g_Players[playerId].Y > (FIELD_BOUND_Y_BOTTOM - 20)) {
    000007FF DD 7E EE         [19] 1506 	ld	a, -18 (ix)
    00000802 DD 77 F8         [19] 1507 	ld	-8 (ix), a
    00000805 DD 7E EF         [19] 1508 	ld	a, -17 (ix)
    00000808 DD 77 F9         [19] 1509 	ld	-7 (ix), a
    0000080B 3E 9A            [ 7] 1510 	ld	a, #0x9a
    0000080D DD BE F8         [19] 1511 	cp	a, -8 (ix)
    00000810 3E 01            [ 7] 1512 	ld	a, #0x01
    00000812 DD 9E F9         [19] 1513 	sbc	a, -7 (ix)
    00000815 30 1C            [12] 1514 	jr	NC, 00286$
                                   1515 ;E:\Dropbox\FAUSTO\SVILUPPI\MSX\CODE\C\MSXgl\projects\exsoccer/exsoccer_s22_b2.c:320: if (g_Players[playerId].X < (GOAL_X_MIN - 5) || g_Players[playerId].X > (GOAL_X_MAX + 5)) clearShot = false;
    00000817 DD 7E E5         [19] 1516 	ld	a, -27 (ix)
    0000081A D6 5B            [ 7] 1517 	sub	a, #0x5b
    0000081C DD 7E E6         [19] 1518 	ld	a, -26 (ix)
    0000081F DE 00            [ 7] 1519 	sbc	a, #0x00
    00000821 38 0C            [12] 1520 	jr	C, 00279$
    00000823 3E 95            [ 7] 1521 	ld	a, #0x95
    00000825 DD BE E5         [19] 1522 	cp	a, -27 (ix)
    00000828 3E 00            [ 7] 1523 	ld	a, #0x00
    0000082A DD 9E E6         [19] 1524 	sbc	a, -26 (ix)
    0000082D 30 04            [12] 1525 	jr	NC, 00286$
    0000082F                       1526 00279$:
    0000082F DD 36 FA 00      [19] 1527 	ld	-6 (ix), #0x00
    00000833                       1528 00286$:
                                   1529 ;E:\Dropbox\FAUSTO\SVILUPPI\MSX\CODE\C\MSXgl\projects\exsoccer/exsoccer_s22_b2.c:326: if (clearShot) {
    00000833 DD 7E FA         [19] 1530 	ld	a, -6 (ix)
    00000836 B7               [ 4] 1531 	or	a, a
    00000837 CArEFr08         [10] 1532 	jp	Z, 00296$
                                   1533 ;E:\Dropbox\FAUSTO\SVILUPPI\MSX\CODE\C\MSXgl\projects\exsoccer/exsoccer_s22_b2.c:328: if ((g_FrameCounter % 10) > stats->ShotFreq) return;
    0000083A 2Ar00r00         [16] 1534 	ld	hl, (_g_FrameCounter)
    0000083D DD 75 F7         [19] 1535 	ld	-9 (ix), l
    00000840 DD 74 F8         [19] 1536 	ld	-8 (ix), h
    00000843 11 0A 00         [10] 1537 	ld	de, #0x000a
    00000846 DD 6E F7         [19] 1538 	ld	l, -9 (ix)
                                   1539 ;	spillPairReg hl
                                   1540 ;	spillPairReg hl
    00000849 DD 66 F8         [19] 1541 	ld	h, -8 (ix)
                                   1542 ;	spillPairReg hl
                                   1543 ;	spillPairReg hl
    0000084C CDr00r00         [17] 1544 	call	__moduint
    0000084F DD 73 F9         [19] 1545 	ld	-7 (ix), e
    00000852 DD 72 FA         [19] 1546 	ld	-6 (ix), d
    00000855 DD 7E DD         [19] 1547 	ld	a, -35 (ix)
    00000858 DD 77 FE         [19] 1548 	ld	-2 (ix), a
    0000085B DD 7E DE         [19] 1549 	ld	a, -34 (ix)
    0000085E DD 77 FF         [19] 1550 	ld	-1 (ix), a
    00000861 DD 6E FE         [19] 1551 	ld	l, -2 (ix)
    00000864 DD 66 FF         [19] 1552 	ld	h, -1 (ix)
    00000867 23               [ 6] 1553 	inc	hl
    00000868 23               [ 6] 1554 	inc	hl
    00000869 7E               [ 7] 1555 	ld	a, (hl)
    0000086A DD 77 FF         [19] 1556 	ld	-1 (ix), a
    0000086D DD 77 FE         [19] 1557 	ld	-2 (ix), a
    00000870 DD 36 FF 00      [19] 1558 	ld	-1 (ix), #0x00
    00000874 DD 7E FE         [19] 1559 	ld	a, -2 (ix)
    00000877 DD 96 F9         [19] 1560 	sub	a, -7 (ix)
    0000087A DD 7E FF         [19] 1561 	ld	a, -1 (ix)
    0000087D DD 9E FA         [19] 1562 	sbc	a, -6 (ix)
    00000880 DAr0Cr1F         [10] 1563 	jp	C,00718$
                                   1564 ;E:\Dropbox\FAUSTO\SVILUPPI\MSX\CODE\C\MSXgl\projects\exsoccer/exsoccer_s22_b2.c:330: u16 shotX = 86 + ((g_FrameCounter + playerId * 13) % 68);
    00000883 DD 7E FD         [19] 1565 	ld	a, -3 (ix)
    00000886 DD 77 FE         [19] 1566 	ld	-2 (ix), a
    00000889 DD 36 FF 00      [19] 1567 	ld	-1 (ix), #0x00
    0000088D 4F               [ 4] 1568 	ld	c, a
    0000088E 06 00            [ 7] 1569 	ld	b, #0x00
    00000890 69               [ 4] 1570 	ld	l, c
    00000891 60               [ 4] 1571 	ld	h, b
    00000892 29               [11] 1572 	add	hl, hl
    00000893 09               [11] 1573 	add	hl, bc
    00000894 29               [11] 1574 	add	hl, hl
    00000895 29               [11] 1575 	add	hl, hl
    00000896 09               [11] 1576 	add	hl, bc
    00000897 DD 75 FE         [19] 1577 	ld	-2 (ix), l
    0000089A DD 74 FF         [19] 1578 	ld	-1 (ix), h
    0000089D DD 7E FE         [19] 1579 	ld	a, -2 (ix)
    000008A0 DD 77 F9         [19] 1580 	ld	-7 (ix), a
    000008A3 DD 7E FF         [19] 1581 	ld	a, -1 (ix)
    000008A6 DD 77 FA         [19] 1582 	ld	-6 (ix), a
    000008A9 DD 7E F9         [19] 1583 	ld	a, -7 (ix)
    000008AC DD 86 F7         [19] 1584 	add	a, -9 (ix)
    000008AF DD 77 FE         [19] 1585 	ld	-2 (ix), a
    000008B2 DD 7E FA         [19] 1586 	ld	a, -6 (ix)
    000008B5 DD 8E F8         [19] 1587 	adc	a, -8 (ix)
    000008B8 DD 77 FF         [19] 1588 	ld	-1 (ix), a
    000008BB 11 44 00         [10] 1589 	ld	de, #0x0044
    000008BE DD 6E FE         [19] 1590 	ld	l, -2 (ix)
                                   1591 ;	spillPairReg hl
                                   1592 ;	spillPairReg hl
    000008C1 DD 66 FF         [19] 1593 	ld	h, -1 (ix)
                                   1594 ;	spillPairReg hl
                                   1595 ;	spillPairReg hl
    000008C4 CDr00r00         [17] 1596 	call	__moduint
    000008C7 DD 73 F9         [19] 1597 	ld	-7 (ix), e
    000008CA DD 72 FA         [19] 1598 	ld	-6 (ix), d
    000008CD DD 7E F9         [19] 1599 	ld	a, -7 (ix)
    000008D0 C6 56            [ 7] 1600 	add	a, #0x56
    000008D2 DD 77 FE         [19] 1601 	ld	-2 (ix), a
    000008D5 DD 7E FA         [19] 1602 	ld	a, -6 (ix)
    000008D8 CE 00            [ 7] 1603 	adc	a, #0x00
    000008DA DD 77 FF         [19] 1604 	ld	-1 (ix), a
                                   1605 ;E:\Dropbox\FAUSTO\SVILUPPI\MSX\CODE\C\MSXgl\projects\exsoccer/exsoccer_s22_b2.c:331: PerformShot(shotX, goalTargetY);
    000008DD DD 5E FB         [19] 1606 	ld	e, -5 (ix)
    000008E0 DD 56 FC         [19] 1607 	ld	d, -4 (ix)
    000008E3 DD 6E FE         [19] 1608 	ld	l, -2 (ix)
                                   1609 ;	spillPairReg hl
                                   1610 ;	spillPairReg hl
    000008E6 DD 66 FF         [19] 1611 	ld	h, -1 (ix)
                                   1612 ;	spillPairReg hl
                                   1613 ;	spillPairReg hl
    000008E9 CDr00r00         [17] 1614 	call	_PerformShot
                                   1615 ;E:\Dropbox\FAUSTO\SVILUPPI\MSX\CODE\C\MSXgl\projects\exsoccer/exsoccer_s22_b2.c:332: return;
    000008EC C3r0Cr1F         [10] 1616 	jp	00718$
    000008EF                       1617 00296$:
                                   1618 ;E:\Dropbox\FAUSTO\SVILUPPI\MSX\CODE\C\MSXgl\projects\exsoccer/exsoccer_s22_b2.c:338: bool shouldPass = false;
    000008EF DD 36 FB 00      [19] 1619 	ld	-5 (ix), #0x00
                                   1620 ;E:\Dropbox\FAUSTO\SVILUPPI\MSX\CODE\C\MSXgl\projects\exsoccer/exsoccer_s22_b2.c:339: bool isPanicPass = false;
    000008F3 DD 36 FF 00      [19] 1621 	ld	-1 (ix), #0x00
                                   1622 ;E:\Dropbox\FAUSTO\SVILUPPI\MSX\CODE\C\MSXgl\projects\exsoccer/exsoccer_s22_b2.c:345: bool checkPassing = false;
    000008F7 DD 36 FC 00      [19] 1623 	ld	-4 (ix), #0x00
                                   1624 ;E:\Dropbox\FAUSTO\SVILUPPI\MSX\CODE\C\MSXgl\projects\exsoccer/exsoccer_s22_b2.c:347: if (dangerousOpponent) {
    000008FB DD 7E ED         [19] 1625 	ld	a, -19 (ix)
    000008FE B7               [ 4] 1626 	or	a, a
    000008FF 28 0B            [12] 1627 	jr	Z, 00307$
                                   1628 ;E:\Dropbox\FAUSTO\SVILUPPI\MSX\CODE\C\MSXgl\projects\exsoccer/exsoccer_s22_b2.c:349: shouldPass = true;
    00000901 DD 36 FB 01      [19] 1629 	ld	-5 (ix), #0x01
                                   1630 ;E:\Dropbox\FAUSTO\SVILUPPI\MSX\CODE\C\MSXgl\projects\exsoccer/exsoccer_s22_b2.c:350: isPanicPass = true;
    00000905 DD 36 FF 01      [19] 1631 	ld	-1 (ix), #0x01
    00000909 C3rB7r09         [10] 1632 	jp	00308$
    0000090C                       1633 00307$:
                                   1634 ;E:\Dropbox\FAUSTO\SVILUPPI\MSX\CODE\C\MSXgl\projects\exsoccer/exsoccer_s22_b2.c:352: else if (obstacleFront) {
    0000090C DD 7E EB         [19] 1635 	ld	a, -21 (ix)
    0000090F B7               [ 4] 1636 	or	a, a
    00000910 28 58            [12] 1637 	jr	Z, 00304$
                                   1638 ;E:\Dropbox\FAUSTO\SVILUPPI\MSX\CODE\C\MSXgl\projects\exsoccer/exsoccer_s22_b2.c:355: bool canGoRight = (g_Players[playerId].X < FIELD_BOUND_X_RIGHT - 20) && !obstacleRight;
    00000912 DD 7E E5         [19] 1639 	ld	a, -27 (ix)
    00000915 D6 E2            [ 7] 1640 	sub	a, #0xe2
    00000917 DD 7E E6         [19] 1641 	ld	a, -26 (ix)
    0000091A DE 00            [ 7] 1642 	sbc	a, #0x00
    0000091C 30 06            [12] 1643 	jr	NC, 00722$
    0000091E DD 7E E9         [19] 1644 	ld	a, -23 (ix)
    00000921 B7               [ 4] 1645 	or	a, a
    00000922 28 07            [12] 1646 	jr	Z, 00723$
    00000924                       1647 00722$:
    00000924 DD 36 FB 00      [19] 1648 	ld	-5 (ix), #0x00
    00000928 C3r2Fr09         [10] 1649 	jp	00724$
    0000092B                       1650 00723$:
    0000092B DD 36 FB 01      [19] 1651 	ld	-5 (ix), #0x01
    0000092F                       1652 00724$:
                                   1653 ;E:\Dropbox\FAUSTO\SVILUPPI\MSX\CODE\C\MSXgl\projects\exsoccer/exsoccer_s22_b2.c:356: bool canGoLeft = (g_Players[playerId].X > FIELD_BOUND_X_LEFT + 20) && !obstacleLeft;
    0000092F 3E 1E            [ 7] 1654 	ld	a, #0x1e
    00000931 DD BE E5         [19] 1655 	cp	a, -27 (ix)
    00000934 3E 00            [ 7] 1656 	ld	a, #0x00
    00000936 DD 9E E6         [19] 1657 	sbc	a, -26 (ix)
    00000939 30 06            [12] 1658 	jr	NC, 00725$
    0000093B DD 7E EA         [19] 1659 	ld	a, -22 (ix)
    0000093E B7               [ 4] 1660 	or	a, a
    0000093F 28 07            [12] 1661 	jr	Z, 00726$
    00000941                       1662 00725$:
    00000941 DD 36 FA 00      [19] 1663 	ld	-6 (ix), #0x00
    00000945 C3r4Cr09         [10] 1664 	jp	00727$
    00000948                       1665 00726$:
    00000948 DD 36 FA 01      [19] 1666 	ld	-6 (ix), #0x01
    0000094C                       1667 00727$:
    0000094C DD 4E FA         [19] 1668 	ld	c, -6 (ix)
                                   1669 ;E:\Dropbox\FAUSTO\SVILUPPI\MSX\CODE\C\MSXgl\projects\exsoccer/exsoccer_s22_b2.c:358: if (canGoRight || canGoLeft) {
    0000094F DD 7E FB         [19] 1670 	ld	a, -5 (ix)
    00000952 B7               [ 4] 1671 	or	a,a
    00000953 20 03            [12] 1672 	jr	NZ, 00297$
    00000955 B1               [ 4] 1673 	or	a,c
    00000956 28 07            [12] 1674 	jr	Z, 00298$
    00000958                       1675 00297$:
                                   1676 ;E:\Dropbox\FAUSTO\SVILUPPI\MSX\CODE\C\MSXgl\projects\exsoccer/exsoccer_s22_b2.c:360: shouldPass = false;
    00000958 DD 36 FB 00      [19] 1677 	ld	-5 (ix), #0x00
    0000095C C3rB7r09         [10] 1678 	jp	00308$
    0000095F                       1679 00298$:
                                   1680 ;E:\Dropbox\FAUSTO\SVILUPPI\MSX\CODE\C\MSXgl\projects\exsoccer/exsoccer_s22_b2.c:363: shouldPass = true;
    0000095F DD 36 FB 01      [19] 1681 	ld	-5 (ix), #0x01
                                   1682 ;E:\Dropbox\FAUSTO\SVILUPPI\MSX\CODE\C\MSXgl\projects\exsoccer/exsoccer_s22_b2.c:364: isPanicPass = true;
    00000963 DD 36 FF 01      [19] 1683 	ld	-1 (ix), #0x01
    00000967 C3rB7r09         [10] 1684 	jp	00308$
    0000096A                       1685 00304$:
                                   1686 ;E:\Dropbox\FAUSTO\SVILUPPI\MSX\CODE\C\MSXgl\projects\exsoccer/exsoccer_s22_b2.c:370: if ((g_FrameCounter % 10) < stats->PassFreq) checkPassing = true;
    0000096A 2Ar00r00         [16] 1687 	ld	hl, (_g_FrameCounter)
    0000096D DD 75 F9         [19] 1688 	ld	-7 (ix), l
    00000970 DD 74 FA         [19] 1689 	ld	-6 (ix), h
    00000973 11 0A 00         [10] 1690 	ld	de, #0x000a
    00000976 DD 6E F9         [19] 1691 	ld	l, -7 (ix)
                                   1692 ;	spillPairReg hl
                                   1693 ;	spillPairReg hl
    00000979 DD 66 FA         [19] 1694 	ld	h, -6 (ix)
                                   1695 ;	spillPairReg hl
                                   1696 ;	spillPairReg hl
    0000097C CDr00r00         [17] 1697 	call	__moduint
    0000097F DD 73 F7         [19] 1698 	ld	-9 (ix), e
    00000982 DD 72 F8         [19] 1699 	ld	-8 (ix), d
    00000985 DD 7E DD         [19] 1700 	ld	a, -35 (ix)
    00000988 DD 77 F9         [19] 1701 	ld	-7 (ix), a
    0000098B DD 7E DE         [19] 1702 	ld	a, -34 (ix)
    0000098E DD 77 FA         [19] 1703 	ld	-6 (ix), a
    00000991 DD 6E F9         [19] 1704 	ld	l, -7 (ix)
    00000994 DD 66 FA         [19] 1705 	ld	h, -6 (ix)
    00000997 23               [ 6] 1706 	inc	hl
    00000998 23               [ 6] 1707 	inc	hl
    00000999 23               [ 6] 1708 	inc	hl
    0000099A 7E               [ 7] 1709 	ld	a, (hl)
    0000099B DD 77 FA         [19] 1710 	ld	-6 (ix), a
    0000099E DD 77 F9         [19] 1711 	ld	-7 (ix), a
    000009A1 DD 36 FA 00      [19] 1712 	ld	-6 (ix), #0x00
    000009A5 DD 7E F7         [19] 1713 	ld	a, -9 (ix)
    000009A8 DD 96 F9         [19] 1714 	sub	a, -7 (ix)
    000009AB DD 7E F8         [19] 1715 	ld	a, -8 (ix)
    000009AE DD 9E FA         [19] 1716 	sbc	a, -6 (ix)
    000009B1 30 04            [12] 1717 	jr	NC, 00308$
    000009B3 DD 36 FC 01      [19] 1718 	ld	-4 (ix), #0x01
    000009B7                       1719 00308$:
                                   1720 ;E:\Dropbox\FAUSTO\SVILUPPI\MSX\CODE\C\MSXgl\projects\exsoccer/exsoccer_s22_b2.c:373: if (checkPassing) {
    000009B7 DD 7E FC         [19] 1721 	ld	a, -4 (ix)
    000009BA B7               [ 4] 1722 	or	a, a
    000009BB 28 08            [12] 1723 	jr	Z, 00310$
                                   1724 ;E:\Dropbox\FAUSTO\SVILUPPI\MSX\CODE\C\MSXgl\projects\exsoccer/exsoccer_s22_b2.c:376: shouldPass = true; 
    000009BD DD 36 FB 01      [19] 1725 	ld	-5 (ix), #0x01
                                   1726 ;E:\Dropbox\FAUSTO\SVILUPPI\MSX\CODE\C\MSXgl\projects\exsoccer/exsoccer_s22_b2.c:377: isPanicPass = false;
    000009C1 DD 36 FF 00      [19] 1727 	ld	-1 (ix), #0x00
    000009C5                       1728 00310$:
                                   1729 ;E:\Dropbox\FAUSTO\SVILUPPI\MSX\CODE\C\MSXgl\projects\exsoccer/exsoccer_s22_b2.c:380: if (shouldPass) {
    000009C5 DD 7E FB         [19] 1730 	ld	a, -5 (ix)
    000009C8 B7               [ 4] 1731 	or	a, a
    000009C9 CAr2Br0C         [10] 1732 	jp	Z, 00357$
                                   1733 ;E:\Dropbox\FAUSTO\SVILUPPI\MSX\CODE\C\MSXgl\projects\exsoccer/exsoccer_s22_b2.c:381: if (!isHumanControlled) {
    000009CC DD 7E FE         [19] 1734 	ld	a, -2 (ix)
    000009CF B7               [ 4] 1735 	or	a, a
    000009D0 C2r2Br0C         [10] 1736 	jp	NZ, 00357$
                                   1737 ;E:\Dropbox\FAUSTO\SVILUPPI\MSX\CODE\C\MSXgl\projects\exsoccer/exsoccer_s22_b2.c:382: u8 bestT = NO_VALUE;
    000009D3 DD 36 FE FF      [19] 1738 	ld	-2 (ix), #0xff
                                   1739 ;E:\Dropbox\FAUSTO\SVILUPPI\MSX\CODE\C\MSXgl\projects\exsoccer/exsoccer_s22_b2.c:383: i16 bestScore = -30000;
    000009D7 DD 36 F7 D0      [19] 1740 	ld	-9 (ix), #0xd0
    000009DB DD 36 F8 8A      [19] 1741 	ld	-8 (ix), #0x8a
                                   1742 ;E:\Dropbox\FAUSTO\SVILUPPI\MSX\CODE\C\MSXgl\projects\exsoccer/exsoccer_s22_b2.c:385: for(t=0; t<14; t++) {
    000009DF DD 7E DD         [19] 1743 	ld	a, -35 (ix)
    000009E2 C6 03            [ 7] 1744 	add	a, #0x03
    000009E4 DD 77 F9         [19] 1745 	ld	-7 (ix), a
    000009E7 DD 7E DE         [19] 1746 	ld	a, -34 (ix)
    000009EA CE 00            [ 7] 1747 	adc	a, #0x00
    000009EC DD 77 FA         [19] 1748 	ld	-6 (ix), a
    000009EF AF               [ 4] 1749 	xor	a, a
    000009F0 DD 77 FB         [19] 1750 	ld	-5 (ix), a
    000009F3 DD 77 FC         [19] 1751 	ld	-4 (ix), a
    000009F6                       1752 00707$:
                                   1753 ;E:\Dropbox\FAUSTO\SVILUPPI\MSX\CODE\C\MSXgl\projects\exsoccer/exsoccer_s22_b2.c:386: if(g_Players[t].TeamId != playerTeamId) continue;
    000009F6 DD 4E FB         [19] 1754 	ld	c, -5 (ix)
    000009F9 DD 46 FC         [19] 1755 	ld	b, -4 (ix)
    000009FC 69               [ 4] 1756 	ld	l, c
    000009FD 60               [ 4] 1757 	ld	h, b
    000009FE 29               [11] 1758 	add	hl, hl
    000009FF 29               [11] 1759 	add	hl, hl
    00000A00 09               [11] 1760 	add	hl, bc
    00000A01 29               [11] 1761 	add	hl, hl
    00000A02 29               [11] 1762 	add	hl, hl
    00000A03 09               [11] 1763 	add	hl, bc
    00000A04 EB               [ 4] 1764 	ex	de, hl
    00000A05 21r00r00         [10] 1765 	ld	hl, #_g_Players
    00000A08 19               [11] 1766 	add	hl, de
    00000A09 DD 75 F5         [19] 1767 	ld	-11 (ix), l
    00000A0C DD 74 F6         [19] 1768 	ld	-10 (ix), h
    00000A0F 4D               [ 4] 1769 	ld	c, l
    00000A10 44               [ 4] 1770 	ld	b, h
    00000A11 21 09 00         [10] 1771 	ld	hl, #9
    00000A14 09               [11] 1772 	add	hl, bc
    00000A15 DD 7E DC         [19] 1773 	ld	a,-36 (ix)
    00000A18 96               [ 7] 1774 	sub	a,(hl)
    00000A19 C2rCCr0B         [10] 1775 	jp	NZ,00346$
                                   1776 ;E:\Dropbox\FAUSTO\SVILUPPI\MSX\CODE\C\MSXgl\projects\exsoccer/exsoccer_s22_b2.c:387: if(t == playerId) continue;
    00000A1C DD 4E FD         [19] 1777 	ld	c, -3 (ix)
    00000A1F 06 00            [ 7] 1778 	ld	b, #0x00
    00000A21 DD 6E FB         [19] 1779 	ld	l, -5 (ix)
    00000A24 DD 66 FC         [19] 1780 	ld	h, -4 (ix)
    00000A27 BF               [ 4] 1781 	cp	a, a
    00000A28 ED 42            [15] 1782 	sbc	hl, bc
    00000A2A CArCCr0B         [10] 1783 	jp	Z,00346$
                                   1784 ;E:\Dropbox\FAUSTO\SVILUPPI\MSX\CODE\C\MSXgl\projects\exsoccer/exsoccer_s22_b2.c:389: if (stats->PassFreq < 8) {
    00000A2D DD 6E F9         [19] 1785 	ld	l, -7 (ix)
    00000A30 DD 66 FA         [19] 1786 	ld	h, -6 (ix)
    00000A33 7E               [ 7] 1787 	ld	a, (hl)
    00000A34 D6 08            [ 7] 1788 	sub	a, #0x08
    00000A36 30 10            [12] 1789 	jr	NC, 00318$
                                   1790 ;E:\Dropbox\FAUSTO\SVILUPPI\MSX\CODE\C\MSXgl\projects\exsoccer/exsoccer_s22_b2.c:390: if(g_Players[t].Status == PLAYER_STATUS_NONE) continue;
    00000A38 DD 4E F5         [19] 1791 	ld	c, -11 (ix)
    00000A3B DD 46 F6         [19] 1792 	ld	b, -10 (ix)
    00000A3E 21 12 00         [10] 1793 	ld	hl, #18
    00000A41 09               [11] 1794 	add	hl, bc
    00000A42 7E               [ 7] 1795 	ld	a, (hl)
    00000A43 23               [ 6] 1796 	inc	hl
    00000A44 B6               [ 7] 1797 	or	a, (hl)
    00000A45 CArCCr0B         [10] 1798 	jp	Z, 00346$
    00000A48                       1799 00318$:
                                   1800 ;E:\Dropbox\FAUSTO\SVILUPPI\MSX\CODE\C\MSXgl\projects\exsoccer/exsoccer_s22_b2.c:392: if(g_Players[t].Role == PLAYER_ROLE_GOALKEEPER) continue;
    00000A48 DD 4E F5         [19] 1801 	ld	c, -11 (ix)
    00000A4B DD 46 F6         [19] 1802 	ld	b, -10 (ix)
    00000A4E 21 0D 00         [10] 1803 	ld	hl, #13
    00000A51 09               [11] 1804 	add	hl, bc
    00000A52 7E               [ 7] 1805 	ld	a, (hl)
    00000A53 B7               [ 4] 1806 	or	a, a
    00000A54 CArCCr0B         [10] 1807 	jp	Z, 00346$
                                   1808 ;E:\Dropbox\FAUSTO\SVILUPPI\MSX\CODE\C\MSXgl\projects\exsoccer/exsoccer_s22_b2.c:395: if (IsOffside(t)) continue;
    00000A57 DD 7E FB         [19] 1809 	ld	a, -5 (ix)
    00000A5A DD 77 F0         [19] 1810 	ld	-16 (ix), a
    00000A5D CDr00r00         [17] 1811 	call	_IsOffside
    00000A60 B7               [ 4] 1812 	or	a, a
    00000A61 C2rCCr0B         [10] 1813 	jp	NZ, 00346$
                                   1814 ;E:\Dropbox\FAUSTO\SVILUPPI\MSX\CODE\C\MSXgl\projects\exsoccer/exsoccer_s22_b2.c:397: i16 dx = (i16)g_Players[t].X - (i16)g_Players[playerId].X;
    00000A64 DD 6E F5         [19] 1815 	ld	l, -11 (ix)
                                   1816 ;	spillPairReg hl
                                   1817 ;	spillPairReg hl
    00000A67 DD 66 F6         [19] 1818 	ld	h, -10 (ix)
                                   1819 ;	spillPairReg hl
                                   1820 ;	spillPairReg hl
    00000A6A 23               [ 6] 1821 	inc	hl
    00000A6B 23               [ 6] 1822 	inc	hl
    00000A6C 4E               [ 7] 1823 	ld	c, (hl)
    00000A6D 23               [ 6] 1824 	inc	hl
    00000A6E 46               [ 7] 1825 	ld	b, (hl)
    00000A6F DD 6E E3         [19] 1826 	ld	l, -29 (ix)
    00000A72 DD 66 E4         [19] 1827 	ld	h, -28 (ix)
    00000A75 5E               [ 7] 1828 	ld	e, (hl)
    00000A76 23               [ 6] 1829 	inc	hl
    00000A77 56               [ 7] 1830 	ld	d, (hl)
    00000A78 79               [ 4] 1831 	ld	a, c
    00000A79 93               [ 4] 1832 	sub	a, e
    00000A7A 4F               [ 4] 1833 	ld	c, a
    00000A7B 78               [ 4] 1834 	ld	a, b
    00000A7C 9A               [ 4] 1835 	sbc	a, d
    00000A7D 47               [ 4] 1836 	ld	b, a
                                   1837 ;E:\Dropbox\FAUSTO\SVILUPPI\MSX\CODE\C\MSXgl\projects\exsoccer/exsoccer_s22_b2.c:398: i16 dy = (i16)g_Players[t].Y - (i16)g_Players[playerId].Y;
    00000A7E DD 6E F5         [19] 1838 	ld	l, -11 (ix)
    00000A81 DD 66 F6         [19] 1839 	ld	h, -10 (ix)
    00000A84 7E               [ 7] 1840 	ld	a, (hl)
    00000A85 DD 77 F1         [19] 1841 	ld	-15 (ix), a
    00000A88 23               [ 6] 1842 	inc	hl
    00000A89 7E               [ 7] 1843 	ld	a, (hl)
    00000A8A DD 77 F2         [19] 1844 	ld	-14 (ix), a
    00000A8D DD 5E F1         [19] 1845 	ld	e, -15 (ix)
    00000A90 DD 56 F2         [19] 1846 	ld	d, -14 (ix)
    00000A93 E1               [10] 1847 	pop	hl
    00000A94 E5               [11] 1848 	push	hl
    00000A95 7E               [ 7] 1849 	ld	a, (hl)
    00000A96 23               [ 6] 1850 	inc	hl
    00000A97 66               [ 7] 1851 	ld	h, (hl)
                                   1852 ;	spillPairReg hl
    00000A98 6F               [ 4] 1853 	ld	l, a
                                   1854 ;	spillPairReg hl
                                   1855 ;	spillPairReg hl
    00000A99 7B               [ 4] 1856 	ld	a, e
    00000A9A 95               [ 4] 1857 	sub	a, l
    00000A9B 5F               [ 4] 1858 	ld	e, a
    00000A9C 7A               [ 4] 1859 	ld	a, d
    00000A9D 9C               [ 4] 1860 	sbc	a, h
    00000A9E DD 73 F3         [19] 1861 	ld	-13 (ix), e
    00000AA1 DD 77 F4         [19] 1862 	ld	-12 (ix), a
                                   1863 ;E:\Dropbox\FAUSTO\SVILUPPI\MSX\CODE\C\MSXgl\projects\exsoccer/exsoccer_s22_b2.c:399: u16 adx = (dx < 0) ? -dx : dx;
    00000AA4 59               [ 4] 1864 	ld	e, c
    00000AA5 50               [ 4] 1865 	ld	d, b
    00000AA6 CB 7A            [ 8] 1866 	bit	7, d
    00000AA8 28 08            [12] 1867 	jr	Z, 00728$
    00000AAA AF               [ 4] 1868 	xor	a, a
    00000AAB 91               [ 4] 1869 	sub	a, c
    00000AAC 4F               [ 4] 1870 	ld	c, a
    00000AAD 9F               [ 4] 1871 	sbc	a, a
    00000AAE 90               [ 4] 1872 	sub	a, b
    00000AAF C3rB3r0A         [10] 1873 	jp	00729$
    00000AB2                       1874 00728$:
    00000AB2 78               [ 4] 1875 	ld	a, b
    00000AB3                       1876 00729$:
    00000AB3 DD 71 F5         [19] 1877 	ld	-11 (ix), c
    00000AB6 DD 77 F6         [19] 1878 	ld	-10 (ix), a
                                   1879 ;E:\Dropbox\FAUSTO\SVILUPPI\MSX\CODE\C\MSXgl\projects\exsoccer/exsoccer_s22_b2.c:400: u16 ady = (dy < 0) ? -dy : dy;
    00000AB9 DD 46 F4         [19] 1880 	ld	b, -12 (ix)
    00000ABC CB 78            [ 8] 1881 	bit	7, b
    00000ABE 28 11            [12] 1882 	jr	Z, 00730$
    00000AC0 AF               [ 4] 1883 	xor	a, a
    00000AC1 DD 96 F3         [19] 1884 	sub	a, -13 (ix)
    00000AC4 DD 77 EE         [19] 1885 	ld	-18 (ix), a
    00000AC7 9F               [ 4] 1886 	sbc	a, a
    00000AC8 DD 96 F4         [19] 1887 	sub	a, -12 (ix)
    00000ACB DD 77 EF         [19] 1888 	ld	-17 (ix), a
    00000ACE C3rDDr0A         [10] 1889 	jp	00731$
    00000AD1                       1890 00730$:
    00000AD1 DD 7E F3         [19] 1891 	ld	a, -13 (ix)
    00000AD4 DD 77 EE         [19] 1892 	ld	-18 (ix), a
    00000AD7 DD 7E F4         [19] 1893 	ld	a, -12 (ix)
    00000ADA DD 77 EF         [19] 1894 	ld	-17 (ix), a
    00000ADD                       1895 00731$:
    00000ADD DD 4E EE         [19] 1896 	ld	c, -18 (ix)
    00000AE0 DD 46 EF         [19] 1897 	ld	b, -17 (ix)
                                   1898 ;E:\Dropbox\FAUSTO\SVILUPPI\MSX\CODE\C\MSXgl\projects\exsoccer/exsoccer_s22_b2.c:401: if (adx < 40 && ady < 40) continue; // Minimum pass distance
    00000AE3 DD 7E F5         [19] 1899 	ld	a, -11 (ix)
    00000AE6 D6 28            [ 7] 1900 	sub	a, #0x28
    00000AE8 DD 7E F6         [19] 1901 	ld	a, -10 (ix)
    00000AEB DE 00            [ 7] 1902 	sbc	a, #0x00
    00000AED 30 09            [12] 1903 	jr	NC, 00324$
    00000AEF 79               [ 4] 1904 	ld	a, c
    00000AF0 D6 28            [ 7] 1905 	sub	a, #0x28
    00000AF2 78               [ 4] 1906 	ld	a, b
    00000AF3 DE 00            [ 7] 1907 	sbc	a, #0x00
    00000AF5 DArCCr0B         [10] 1908 	jp	C, 00346$
    00000AF8                       1909 00324$:
                                   1910 ;E:\Dropbox\FAUSTO\SVILUPPI\MSX\CODE\C\MSXgl\projects\exsoccer/exsoccer_s22_b2.c:404: if (g_Players[t].Y < g_FieldCurrentYPosition - 40 || 
    00000AF8 3Ar00r00         [13] 1911 	ld	a, (_g_FieldCurrentYPosition+0)
    00000AFB C6 D8            [ 7] 1912 	add	a, #0xd8
    00000AFD 5F               [ 4] 1913 	ld	e, a
    00000AFE 3Ar01r00         [13] 1914 	ld	a, (_g_FieldCurrentYPosition+1)
    00000B01 CE FF            [ 7] 1915 	adc	a, #0xff
    00000B03 57               [ 4] 1916 	ld	d, a
    00000B04 DD 4E F1         [19] 1917 	ld	c, -15 (ix)
    00000B07 DD 46 F2         [19] 1918 	ld	b, -14 (ix)
    00000B0A 79               [ 4] 1919 	ld	a, c
    00000B0B 93               [ 4] 1920 	sub	a, e
    00000B0C 78               [ 4] 1921 	ld	a, b
    00000B0D 9A               [ 4] 1922 	sbc	a, d
    00000B0E DArCCr0B         [10] 1923 	jp	C, 00346$
                                   1924 ;E:\Dropbox\FAUSTO\SVILUPPI\MSX\CODE\C\MSXgl\projects\exsoccer/exsoccer_s22_b2.c:405: g_Players[t].Y > (g_FieldCurrentYPosition + 252)) continue;
    00000B11 2Ar00r00         [16] 1925 	ld	hl, (_g_FieldCurrentYPosition)
    00000B14 11 FC 00         [10] 1926 	ld	de, #0x00fc
    00000B17 19               [11] 1927 	add	hl, de
    00000B18 AF               [ 4] 1928 	xor	a, a
    00000B19 ED 42            [15] 1929 	sbc	hl, bc
    00000B1B DArCCr0B         [10] 1930 	jp	C, 00346$
                                   1931 ;E:\Dropbox\FAUSTO\SVILUPPI\MSX\CODE\C\MSXgl\projects\exsoccer/exsoccer_s22_b2.c:407: i16 advanceScore = (playerTeamId == TEAM_1) ? -dy : dy;
    00000B1E DD 7E E0         [19] 1932 	ld	a, -32 (ix)
    00000B21 B7               [ 4] 1933 	or	a, a
    00000B22 28 0C            [12] 1934 	jr	Z, 00732$
    00000B24 AF               [ 4] 1935 	xor	a, a
    00000B25 DD 96 F3         [19] 1936 	sub	a, -13 (ix)
    00000B28 4F               [ 4] 1937 	ld	c, a
    00000B29 9F               [ 4] 1938 	sbc	a, a
    00000B2A DD 96 F4         [19] 1939 	sub	a, -12 (ix)
    00000B2D C3r36r0B         [10] 1940 	jp	00733$
    00000B30                       1941 00732$:
    00000B30 DD 4E F3         [19] 1942 	ld	c, -13 (ix)
    00000B33 DD 7E F4         [19] 1943 	ld	a, -12 (ix)
    00000B36                       1944 00733$:
    00000B36 47               [ 4] 1945 	ld	b, a
                                   1946 ;E:\Dropbox\FAUSTO\SVILUPPI\MSX\CODE\C\MSXgl\projects\exsoccer/exsoccer_s22_b2.c:410: if (!isPanicPass) {
    00000B37 DD 7E FF         [19] 1947 	ld	a, -1 (ix)
    00000B3A B7               [ 4] 1948 	or	a, a
    00000B3B 20 3E            [12] 1949 	jr	NZ, 00339$
                                   1950 ;E:\Dropbox\FAUSTO\SVILUPPI\MSX\CODE\C\MSXgl\projects\exsoccer/exsoccer_s22_b2.c:411: bool allowSwitch = (stats->PassFreq >= 8 && adx > 80); // Strong teams switch play
    00000B3D DD 6E F9         [19] 1951 	ld	l, -7 (ix)
    00000B40 DD 66 FA         [19] 1952 	ld	h, -6 (ix)
    00000B43 7E               [ 7] 1953 	ld	a, (hl)
    00000B44 D6 08            [ 7] 1954 	sub	a, #0x08
    00000B46 38 0C            [12] 1955 	jr	C, 00734$
    00000B48 3E 50            [ 7] 1956 	ld	a, #0x50
    00000B4A DD BE F5         [19] 1957 	cp	a, -11 (ix)
    00000B4D 3E 00            [ 7] 1958 	ld	a, #0x00
    00000B4F DD 9E F6         [19] 1959 	sbc	a, -10 (ix)
    00000B52 38 04            [12] 1960 	jr	C, 00735$
    00000B54                       1961 00734$:
    00000B54 AF               [ 4] 1962 	xor	a, a
    00000B55 C3r5Ar0B         [10] 1963 	jp	00736$
    00000B58                       1964 00735$:
    00000B58 3E 01            [ 7] 1965 	ld	a, #0x01
    00000B5A                       1966 00736$:
                                   1967 ;E:\Dropbox\FAUSTO\SVILUPPI\MSX\CODE\C\MSXgl\projects\exsoccer/exsoccer_s22_b2.c:412: if (allowSwitch) {
    00000B5A B7               [ 4] 1968 	or	a, a
    00000B5B 28 0E            [12] 1969 	jr	Z, 00334$
                                   1970 ;E:\Dropbox\FAUSTO\SVILUPPI\MSX\CODE\C\MSXgl\projects\exsoccer/exsoccer_s22_b2.c:413: if (advanceScore < -10) continue; // Allow flat/slight back for wide balls
    00000B5D 79               [ 4] 1971 	ld	a, c
    00000B5E D6 F6            [ 7] 1972 	sub	a, #0xf6
    00000B60 78               [ 4] 1973 	ld	a, b
    00000B61 17               [ 4] 1974 	rla
    00000B62 3F               [ 4] 1975 	ccf
    00000B63 1F               [ 4] 1976 	rra
    00000B64 DE 7F            [ 7] 1977 	sbc	a, #0x7f
    00000B66 30 20            [12] 1978 	jr	NC, 00340$
    00000B68 C3rCCr0B         [10] 1979 	jp	00346$
    00000B6B                       1980 00334$:
                                   1981 ;E:\Dropbox\FAUSTO\SVILUPPI\MSX\CODE\C\MSXgl\projects\exsoccer/exsoccer_s22_b2.c:415: if (advanceScore < 40) continue; // Must gain at least 40px ground
    00000B6B 59               [ 4] 1982 	ld	e, c
    00000B6C 50               [ 4] 1983 	ld	d, b
    00000B6D 7B               [ 4] 1984 	ld	a, e
    00000B6E D6 28            [ 7] 1985 	sub	a, #0x28
    00000B70 7A               [ 4] 1986 	ld	a, d
    00000B71 17               [ 4] 1987 	rla
    00000B72 3F               [ 4] 1988 	ccf
    00000B73 1F               [ 4] 1989 	rra
    00000B74 DE 80            [ 7] 1990 	sbc	a, #0x80
    00000B76 38 54            [12] 1991 	jr	C, 00346$
    00000B78 C3r88r0B         [10] 1992 	jp	00340$
    00000B7B                       1993 00339$:
                                   1994 ;E:\Dropbox\FAUSTO\SVILUPPI\MSX\CODE\C\MSXgl\projects\exsoccer/exsoccer_s22_b2.c:419: if (advanceScore < -150) continue;
    00000B7B 59               [ 4] 1995 	ld	e, c
    00000B7C 50               [ 4] 1996 	ld	d, b
    00000B7D 7B               [ 4] 1997 	ld	a, e
    00000B7E D6 6A            [ 7] 1998 	sub	a, #0x6a
    00000B80 7A               [ 4] 1999 	ld	a, d
    00000B81 17               [ 4] 2000 	rla
    00000B82 3F               [ 4] 2001 	ccf
    00000B83 1F               [ 4] 2002 	rra
    00000B84 DE 7F            [ 7] 2003 	sbc	a, #0x7f
    00000B86 38 44            [12] 2004 	jr	C, 00346$
    00000B88                       2005 00340$:
                                   2006 ;E:\Dropbox\FAUSTO\SVILUPPI\MSX\CODE\C\MSXgl\projects\exsoccer/exsoccer_s22_b2.c:423: if (stats->PassFreq >= 8) {
    00000B88 DD 6E F9         [19] 2007 	ld	l, -7 (ix)
    00000B8B DD 66 FA         [19] 2008 	ld	h, -6 (ix)
    00000B8E 6E               [ 7] 2009 	ld	l, (hl)
                                   2010 ;	spillPairReg hl
                                   2011 ;E:\Dropbox\FAUSTO\SVILUPPI\MSX\CODE\C\MSXgl\projects\exsoccer/exsoccer_s22_b2.c:424: score = advanceScore + (adx/4); // Reward width (Switch play)
    00000B8F DD 5E F5         [19] 2012 	ld	e, -11 (ix)
    00000B92 DD 56 F6         [19] 2013 	ld	d, -10 (ix)
    00000B95 CB 3A            [ 8] 2014 	srl	d
    00000B97 CB 1B            [ 8] 2015 	rr	e
    00000B99 CB 3A            [ 8] 2016 	srl	d
    00000B9B CB 1B            [ 8] 2017 	rr	e
                                   2018 ;E:\Dropbox\FAUSTO\SVILUPPI\MSX\CODE\C\MSXgl\projects\exsoccer/exsoccer_s22_b2.c:423: if (stats->PassFreq >= 8) {
    00000B9D 7D               [ 4] 2019 	ld	a, l
    00000B9E D6 08            [ 7] 2020 	sub	a, #0x08
    00000BA0 38 08            [12] 2021 	jr	C, 00342$
                                   2022 ;E:\Dropbox\FAUSTO\SVILUPPI\MSX\CODE\C\MSXgl\projects\exsoccer/exsoccer_s22_b2.c:424: score = advanceScore + (adx/4); // Reward width (Switch play)
    00000BA2 69               [ 4] 2023 	ld	l, c
    00000BA3 60               [ 4] 2024 	ld	h, b
    00000BA4 19               [11] 2025 	add	hl, de
    00000BA5 4D               [ 4] 2026 	ld	c, l
    00000BA6 44               [ 4] 2027 	ld	b, h
    00000BA7 C3rB0r0B         [10] 2028 	jp	00343$
    00000BAA                       2029 00342$:
                                   2030 ;E:\Dropbox\FAUSTO\SVILUPPI\MSX\CODE\C\MSXgl\projects\exsoccer/exsoccer_s22_b2.c:426: score = advanceScore - (adx/4); // Penalize width (Direct play)
    00000BAA 79               [ 4] 2031 	ld	a, c
    00000BAB 93               [ 4] 2032 	sub	a, e
    00000BAC 4F               [ 4] 2033 	ld	c, a
    00000BAD 78               [ 4] 2034 	ld	a, b
    00000BAE 9A               [ 4] 2035 	sbc	a, d
    00000BAF 47               [ 4] 2036 	ld	b, a
    00000BB0                       2037 00343$:
                                   2038 ;E:\Dropbox\FAUSTO\SVILUPPI\MSX\CODE\C\MSXgl\projects\exsoccer/exsoccer_s22_b2.c:429: if (score > bestScore) {
    00000BB0 DD 7E F7         [19] 2039 	ld	a, -9 (ix)
    00000BB3 91               [ 4] 2040 	sub	a, c
    00000BB4 DD 7E F8         [19] 2041 	ld	a, -8 (ix)
    00000BB7 98               [ 4] 2042 	sbc	a, b
    00000BB8 E2rBDr0B         [10] 2043 	jp	PO, 02302$
    00000BBB EE 80            [ 7] 2044 	xor	a, #0x80
    00000BBD                       2045 02302$:
    00000BBD F2rCCr0B         [10] 2046 	jp	P, 00346$
                                   2047 ;E:\Dropbox\FAUSTO\SVILUPPI\MSX\CODE\C\MSXgl\projects\exsoccer/exsoccer_s22_b2.c:430: bestScore = score;
    00000BC0 DD 71 F7         [19] 2048 	ld	-9 (ix), c
    00000BC3 DD 70 F8         [19] 2049 	ld	-8 (ix), b
                                   2050 ;E:\Dropbox\FAUSTO\SVILUPPI\MSX\CODE\C\MSXgl\projects\exsoccer/exsoccer_s22_b2.c:431: bestT = t;
    00000BC6 DD 7E F0         [19] 2051 	ld	a, -16 (ix)
    00000BC9 DD 77 FE         [19] 2052 	ld	-2 (ix), a
    00000BCC                       2053 00346$:
                                   2054 ;E:\Dropbox\FAUSTO\SVILUPPI\MSX\CODE\C\MSXgl\projects\exsoccer/exsoccer_s22_b2.c:385: for(t=0; t<14; t++) {
    00000BCC DD 34 FB         [23] 2055 	inc	-5 (ix)
    00000BCF 20 03            [12] 2056 	jr	NZ, 02303$
    00000BD1 DD 34 FC         [23] 2057 	inc	-4 (ix)
    00000BD4                       2058 02303$:
    00000BD4 DD 7E FB         [19] 2059 	ld	a, -5 (ix)
    00000BD7 D6 0E            [ 7] 2060 	sub	a, #0x0e
    00000BD9 DD 7E FC         [19] 2061 	ld	a, -4 (ix)
    00000BDC 17               [ 4] 2062 	rla
    00000BDD 3F               [ 4] 2063 	ccf
    00000BDE 1F               [ 4] 2064 	rra
    00000BDF DE 80            [ 7] 2065 	sbc	a, #0x80
    00000BE1 DArF6r09         [10] 2066 	jp	C, 00707$
                                   2067 ;E:\Dropbox\FAUSTO\SVILUPPI\MSX\CODE\C\MSXgl\projects\exsoccer/exsoccer_s22_b2.c:436: if (bestT != NO_VALUE) {
    00000BE4 DD 7E FE         [19] 2068 	ld	a, -2 (ix)
    00000BE7 3C               [ 4] 2069 	inc	a
    00000BE8 28 41            [12] 2070 	jr	Z, 00357$
                                   2071 ;E:\Dropbox\FAUSTO\SVILUPPI\MSX\CODE\C\MSXgl\projects\exsoccer/exsoccer_s22_b2.c:439: i16 threshold = isPanicPass ? -80 : 10;
    00000BEA DD 7E FF         [19] 2072 	ld	a, -1 (ix)
    00000BED B7               [ 4] 2073 	or	a, a
    00000BEE 28 0B            [12] 2074 	jr	Z, 00737$
    00000BF0 DD 36 FB B0      [19] 2075 	ld	-5 (ix), #0xb0
    00000BF4 DD 36 FC FF      [19] 2076 	ld	-4 (ix), #0xff
    00000BF8 C3r03r0C         [10] 2077 	jp	00738$
    00000BFB                       2078 00737$:
    00000BFB DD 36 FB 0A      [19] 2079 	ld	-5 (ix), #0x0a
    00000BFF DD 36 FC 00      [19] 2080 	ld	-4 (ix), #0
    00000C03                       2081 00738$:
                                   2082 ;E:\Dropbox\FAUSTO\SVILUPPI\MSX\CODE\C\MSXgl\projects\exsoccer/exsoccer_s22_b2.c:441: if (bestScore > threshold) {
    00000C03 DD 7E FB         [19] 2083 	ld	a, -5 (ix)
    00000C06 DD 96 F7         [19] 2084 	sub	a, -9 (ix)
    00000C09 DD 7E FC         [19] 2085 	ld	a, -4 (ix)
    00000C0C DD 9E F8         [19] 2086 	sbc	a, -8 (ix)
    00000C0F E2r14r0C         [10] 2087 	jp	PO, 02305$
    00000C12 EE 80            [ 7] 2088 	xor	a, #0x80
    00000C14                       2089 02305$:
    00000C14 F2r2Br0C         [10] 2090 	jp	P, 00357$
                                   2091 ;E:\Dropbox\FAUSTO\SVILUPPI\MSX\CODE\C\MSXgl\projects\exsoccer/exsoccer_s22_b2.c:442: if (g_Ball.PossessionTimer < 15) return; // Wait 15 frames before passing
    00000C17 3Ar1Cr00         [13] 2092 	ld	a, (#_g_Ball + 28)
    00000C1A DD 77 FF         [19] 2093 	ld	-1 (ix), a
    00000C1D D6 0F            [ 7] 2094 	sub	a, #0x0f
    00000C1F DAr0Cr1F         [10] 2095 	jp	C,00718$
                                   2096 ;E:\Dropbox\FAUSTO\SVILUPPI\MSX\CODE\C\MSXgl\projects\exsoccer/exsoccer_s22_b2.c:443: PerformPass(bestT);
    00000C22 DD 7E FE         [19] 2097 	ld	a, -2 (ix)
    00000C25 CDr00r00         [17] 2098 	call	_PerformPass
                                   2099 ;E:\Dropbox\FAUSTO\SVILUPPI\MSX\CODE\C\MSXgl\projects\exsoccer/exsoccer_s22_b2.c:444: return; // End tick
    00000C28 C3r0Cr1F         [10] 2100 	jp	00718$
    00000C2B                       2101 00357$:
                                   2102 ;E:\Dropbox\FAUSTO\SVILUPPI\MSX\CODE\C\MSXgl\projects\exsoccer/exsoccer_s22_b2.c:450: u16 finalTargetX = targetX_Goal;
    00000C2B DD 7E E7         [19] 2103 	ld	a, -25 (ix)
    00000C2E DD 77 FE         [19] 2104 	ld	-2 (ix), a
    00000C31 DD 7E E8         [19] 2105 	ld	a, -24 (ix)
    00000C34 DD 77 FF         [19] 2106 	ld	-1 (ix), a
                                   2107 ;E:\Dropbox\FAUSTO\SVILUPPI\MSX\CODE\C\MSXgl\projects\exsoccer/exsoccer_s22_b2.c:451: u16 finalTargetY = targetY_Goal;
    00000C37 DD 7E E1         [19] 2108 	ld	a, -31 (ix)
    00000C3A DD 77 FB         [19] 2109 	ld	-5 (ix), a
    00000C3D DD 7E E2         [19] 2110 	ld	a, -30 (ix)
    00000C40 DD 77 FC         [19] 2111 	ld	-4 (ix), a
                                   2112 ;E:\Dropbox\FAUSTO\SVILUPPI\MSX\CODE\C\MSXgl\projects\exsoccer/exsoccer_s22_b2.c:453: if (obstacleFront) {
    00000C43 DD 7E EB         [19] 2113 	ld	a, -21 (ix)
    00000C46 B7               [ 4] 2114 	or	a, a
    00000C47 CArDAr0C         [10] 2115 	jp	Z, 00368$
                                   2116 ;E:\Dropbox\FAUSTO\SVILUPPI\MSX\CODE\C\MSXgl\projects\exsoccer/exsoccer_s22_b2.c:454: if (!obstacleRight) {
    00000C4A DD 7E E9         [19] 2117 	ld	a, -23 (ix)
    00000C4D B7               [ 4] 2118 	or	a, a
    00000C4E 20 44            [12] 2119 	jr	NZ, 00365$
                                   2120 ;E:\Dropbox\FAUSTO\SVILUPPI\MSX\CODE\C\MSXgl\projects\exsoccer/exsoccer_s22_b2.c:455: finalTargetX = g_Players[playerId].X + 24;
    00000C50 DD 6E E3         [19] 2121 	ld	l, -29 (ix)
    00000C53 DD 66 E4         [19] 2122 	ld	h, -28 (ix)
    00000C56 7E               [ 7] 2123 	ld	a, (hl)
    00000C57 DD 77 FE         [19] 2124 	ld	-2 (ix), a
    00000C5A 23               [ 6] 2125 	inc	hl
    00000C5B 7E               [ 7] 2126 	ld	a, (hl)
    00000C5C DD 77 FF         [19] 2127 	ld	-1 (ix), a
    00000C5F DD 7E FE         [19] 2128 	ld	a, -2 (ix)
    00000C62 DD 77 F9         [19] 2129 	ld	-7 (ix), a
    00000C65 DD 7E FF         [19] 2130 	ld	a, -1 (ix)
    00000C68 DD 77 FA         [19] 2131 	ld	-6 (ix), a
    00000C6B DD 7E F9         [19] 2132 	ld	a, -7 (ix)
    00000C6E C6 18            [ 7] 2133 	add	a, #0x18
    00000C70 DD 77 FE         [19] 2134 	ld	-2 (ix), a
    00000C73 DD 7E FA         [19] 2135 	ld	a, -6 (ix)
    00000C76 CE 00            [ 7] 2136 	adc	a, #0x00
    00000C78 DD 77 FF         [19] 2137 	ld	-1 (ix), a
                                   2138 ;E:\Dropbox\FAUSTO\SVILUPPI\MSX\CODE\C\MSXgl\projects\exsoccer/exsoccer_s22_b2.c:456: if (finalTargetX > FIELD_BOUND_X_RIGHT) finalTargetX = FIELD_BOUND_X_RIGHT;
    00000C7B DD 4E FE         [19] 2139 	ld	c, -2 (ix)
    00000C7E DD 46 FF         [19] 2140 	ld	b, -1 (ix)
    00000C81 3E F6            [ 7] 2141 	ld	a, #0xf6
    00000C83 B9               [ 4] 2142 	cp	a, c
    00000C84 3E 00            [ 7] 2143 	ld	a, #0x00
    00000C86 98               [ 4] 2144 	sbc	a, b
    00000C87 30 51            [12] 2145 	jr	NC, 00368$
    00000C89 DD 36 FE F6      [19] 2146 	ld	-2 (ix), #0xf6
    00000C8D DD 36 FF 00      [19] 2147 	ld	-1 (ix), #0
    00000C91 C3rDAr0C         [10] 2148 	jp	00368$
    00000C94                       2149 00365$:
                                   2150 ;E:\Dropbox\FAUSTO\SVILUPPI\MSX\CODE\C\MSXgl\projects\exsoccer/exsoccer_s22_b2.c:457: } else if (!obstacleLeft) {
    00000C94 DD 7E EA         [19] 2151 	ld	a, -22 (ix)
    00000C97 B7               [ 4] 2152 	or	a, a
    00000C98 20 40            [12] 2153 	jr	NZ, 00368$
                                   2154 ;E:\Dropbox\FAUSTO\SVILUPPI\MSX\CODE\C\MSXgl\projects\exsoccer/exsoccer_s22_b2.c:458: finalTargetX = g_Players[playerId].X - 24; 
    00000C9A DD 6E E3         [19] 2155 	ld	l, -29 (ix)
    00000C9D DD 66 E4         [19] 2156 	ld	h, -28 (ix)
    00000CA0 7E               [ 7] 2157 	ld	a, (hl)
    00000CA1 DD 77 FE         [19] 2158 	ld	-2 (ix), a
    00000CA4 23               [ 6] 2159 	inc	hl
    00000CA5 7E               [ 7] 2160 	ld	a, (hl)
    00000CA6 DD 77 FF         [19] 2161 	ld	-1 (ix), a
    00000CA9 DD 7E FE         [19] 2162 	ld	a, -2 (ix)
    00000CAC DD 77 F9         [19] 2163 	ld	-7 (ix), a
    00000CAF DD 7E FF         [19] 2164 	ld	a, -1 (ix)
    00000CB2 DD 77 FA         [19] 2165 	ld	-6 (ix), a
    00000CB5 DD 7E F9         [19] 2166 	ld	a, -7 (ix)
    00000CB8 C6 E8            [ 7] 2167 	add	a, #0xe8
    00000CBA DD 77 FE         [19] 2168 	ld	-2 (ix), a
    00000CBD DD 7E FA         [19] 2169 	ld	a, -6 (ix)
    00000CC0 CE FF            [ 7] 2170 	adc	a, #0xff
    00000CC2 DD 77 FF         [19] 2171 	ld	-1 (ix), a
                                   2172 ;E:\Dropbox\FAUSTO\SVILUPPI\MSX\CODE\C\MSXgl\projects\exsoccer/exsoccer_s22_b2.c:459: if (finalTargetX < FIELD_BOUND_X_LEFT) finalTargetX = FIELD_BOUND_X_LEFT;
    00000CC5 DD 7E FE         [19] 2173 	ld	a, -2 (ix)
    00000CC8 DD 46 FF         [19] 2174 	ld	b, -1 (ix)
    00000CCB D6 0A            [ 7] 2175 	sub	a, #0x0a
    00000CCD 78               [ 4] 2176 	ld	a, b
    00000CCE DE 00            [ 7] 2177 	sbc	a, #0x00
    00000CD0 30 08            [12] 2178 	jr	NC, 00368$
    00000CD2 DD 36 FE 0A      [19] 2179 	ld	-2 (ix), #0x0a
    00000CD6 DD 36 FF 00      [19] 2180 	ld	-1 (ix), #0
    00000CDA                       2181 00368$:
                                   2182 ;E:\Dropbox\FAUSTO\SVILUPPI\MSX\CODE\C\MSXgl\projects\exsoccer/exsoccer_s22_b2.c:462: g_Players[playerId].TargetY = finalTargetY;
    00000CDA DD 7E DA         [19] 2183 	ld	a, -38 (ix)
    00000CDD C6 0E            [ 7] 2184 	add	a, #0x0e
    00000CDF DD 77 F9         [19] 2185 	ld	-7 (ix), a
    00000CE2 DD 7E DB         [19] 2186 	ld	a, -37 (ix)
    00000CE5 CE 00            [ 7] 2187 	adc	a, #0x00
    00000CE7 DD 77 FA         [19] 2188 	ld	-6 (ix), a
    00000CEA DD 6E F9         [19] 2189 	ld	l, -7 (ix)
    00000CED DD 66 FA         [19] 2190 	ld	h, -6 (ix)
    00000CF0 DD 7E FB         [19] 2191 	ld	a, -5 (ix)
    00000CF3 77               [ 7] 2192 	ld	(hl), a
    00000CF4 23               [ 6] 2193 	inc	hl
    00000CF5 DD 7E FC         [19] 2194 	ld	a, -4 (ix)
    00000CF8 77               [ 7] 2195 	ld	(hl), a
                                   2196 ;E:\Dropbox\FAUSTO\SVILUPPI\MSX\CODE\C\MSXgl\projects\exsoccer/exsoccer_s22_b2.c:463: g_Players[playerId].TargetX = finalTargetX;
    00000CF9 DD 7E DA         [19] 2197 	ld	a, -38 (ix)
    00000CFC C6 10            [ 7] 2198 	add	a, #0x10
    00000CFE DD 77 FB         [19] 2199 	ld	-5 (ix), a
    00000D01 DD 7E DB         [19] 2200 	ld	a, -37 (ix)
    00000D04 CE 00            [ 7] 2201 	adc	a, #0x00
    00000D06 DD 77 FC         [19] 2202 	ld	-4 (ix), a
    00000D09 DD 6E FB         [19] 2203 	ld	l, -5 (ix)
    00000D0C DD 66 FC         [19] 2204 	ld	h, -4 (ix)
    00000D0F DD 7E FE         [19] 2205 	ld	a, -2 (ix)
    00000D12 77               [ 7] 2206 	ld	(hl), a
    00000D13 23               [ 6] 2207 	inc	hl
    00000D14 DD 7E FF         [19] 2208 	ld	a, -1 (ix)
    00000D17 77               [ 7] 2209 	ld	(hl), a
                                   2210 ;E:\Dropbox\FAUSTO\SVILUPPI\MSX\CODE\C\MSXgl\projects\exsoccer/exsoccer_s22_b2.c:464: return; // IMPORTANT: Ball Carrier handled. Stop.
    00000D18 C3r0Cr1F         [10] 2211 	jp	00718$
    00000D1B                       2212 00370$:
                                   2213 ;E:\Dropbox\FAUSTO\SVILUPPI\MSX\CODE\C\MSXgl\projects\exsoccer/exsoccer_s22_b2.c:470: if (g_Ball.PossessionPlayerId == NO_VALUE) {
    00000D1B DD 7E FF         [19] 2214 	ld	a, -1 (ix)
    00000D1E 3C               [ 4] 2215 	inc	a
    00000D1F 20 3C            [12] 2216 	jr	NZ, 00374$
                                   2217 ;E:\Dropbox\FAUSTO\SVILUPPI\MSX\CODE\C\MSXgl\projects\exsoccer/exsoccer_s22_b2.c:472: if (GetClosestPlayerToBall(playerTeamId, NO_VALUE) == playerId) {
    00000D21 2E FF            [ 7] 2218 	ld	l, #0xff
                                   2219 ;	spillPairReg hl
                                   2220 ;	spillPairReg hl
    00000D23 DD 7E DC         [19] 2221 	ld	a, -36 (ix)
    00000D26 CDr00r00         [17] 2222 	call	_GetClosestPlayerToBall
    00000D29 4F               [ 4] 2223 	ld	c, a
    00000D2A DD 7E FD         [19] 2224 	ld	a, -3 (ix)
    00000D2D 91               [ 4] 2225 	sub	a, c
    00000D2E 20 2D            [12] 2226 	jr	NZ, 00374$
                                   2227 ;E:\Dropbox\FAUSTO\SVILUPPI\MSX\CODE\C\MSXgl\projects\exsoccer/exsoccer_s22_b2.c:473: g_Players[playerId].TargetX = g_Ball.X;
    00000D30 DD 7E DA         [19] 2228 	ld	a, -38 (ix)
    00000D33 C6 10            [ 7] 2229 	add	a, #0x10
    00000D35 4F               [ 4] 2230 	ld	c, a
    00000D36 DD 7E DB         [19] 2231 	ld	a, -37 (ix)
    00000D39 CE 00            [ 7] 2232 	adc	a, #0x00
    00000D3B 47               [ 4] 2233 	ld	b, a
    00000D3C ED 5Br02r00      [20] 2234 	ld	de, (#_g_Ball + 2)
    00000D40 7B               [ 4] 2235 	ld	a, e
    00000D41 02               [ 7] 2236 	ld	(bc), a
    00000D42 03               [ 6] 2237 	inc	bc
    00000D43 7A               [ 4] 2238 	ld	a, d
    00000D44 02               [ 7] 2239 	ld	(bc), a
                                   2240 ;E:\Dropbox\FAUSTO\SVILUPPI\MSX\CODE\C\MSXgl\projects\exsoccer/exsoccer_s22_b2.c:474: g_Players[playerId].TargetY = g_Ball.Y;
    00000D45 DD 7E DA         [19] 2241 	ld	a, -38 (ix)
    00000D48 C6 0E            [ 7] 2242 	add	a, #0x0e
    00000D4A 4F               [ 4] 2243 	ld	c, a
    00000D4B DD 7E DB         [19] 2244 	ld	a, -37 (ix)
    00000D4E CE 00            [ 7] 2245 	adc	a, #0x00
    00000D50 47               [ 4] 2246 	ld	b, a
    00000D51 ED 5Br00r00      [20] 2247 	ld	de, (#_g_Ball + 0)
    00000D55 7B               [ 4] 2248 	ld	a, e
    00000D56 02               [ 7] 2249 	ld	(bc), a
    00000D57 03               [ 6] 2250 	inc	bc
    00000D58 7A               [ 4] 2251 	ld	a, d
    00000D59 02               [ 7] 2252 	ld	(bc), a
                                   2253 ;E:\Dropbox\FAUSTO\SVILUPPI\MSX\CODE\C\MSXgl\projects\exsoccer/exsoccer_s22_b2.c:475: return;
    00000D5A C3r0Cr1F         [10] 2254 	jp	00718$
    00000D5D                       2255 00374$:
                                   2256 ;E:\Dropbox\FAUSTO\SVILUPPI\MSX\CODE\C\MSXgl\projects\exsoccer/exsoccer_s22_b2.c:184: if (g_Players[playerId].Role == PLAYER_ROLE_GOALKEEPER) return;
    00000D5D DD 7E DA         [19] 2257 	ld	a, -38 (ix)
    00000D60 C6 0D            [ 7] 2258 	add	a, #0x0d
    00000D62 DD 77 F7         [19] 2259 	ld	-9 (ix), a
    00000D65 DD 7E DB         [19] 2260 	ld	a, -37 (ix)
    00000D68 CE 00            [ 7] 2261 	adc	a, #0x00
    00000D6A DD 77 F8         [19] 2262 	ld	-8 (ix), a
                                   2263 ;E:\Dropbox\FAUSTO\SVILUPPI\MSX\CODE\C\MSXgl\projects\exsoccer/exsoccer_s22_b2.c:509: if (g_Players[playerId].Role == PLAYER_ROLE_LEFT_STRIKER || 
    00000D6D DD 6E F7         [19] 2264 	ld	l, -9 (ix)
    00000D70 DD 66 F8         [19] 2265 	ld	h, -8 (ix)
    00000D73 7E               [ 7] 2266 	ld	a, (hl)
    00000D74 DD 77 FE         [19] 2267 	ld	-2 (ix), a
                                   2268 ;E:\Dropbox\FAUSTO\SVILUPPI\MSX\CODE\C\MSXgl\projects\exsoccer/exsoccer_s22_b2.c:483: if (g_MatchStatus == MATCH_BALL_ON_GOALKEEPER) {
    00000D77 3Ar00r00         [13] 2269 	ld	a, (_g_MatchStatus+0)
    00000D7A D6 0D            [ 7] 2270 	sub	a, #0x0d
    00000D7C C2r5Fr0E         [10] 2271 	jp	NZ,00408$
                                   2272 ;E:\Dropbox\FAUSTO\SVILUPPI\MSX\CODE\C\MSXgl\projects\exsoccer/exsoccer_s22_b2.c:462: g_Players[playerId].TargetY = finalTargetY;
    00000D7F DD 7E DA         [19] 2273 	ld	a, -38 (ix)
    00000D82 C6 0E            [ 7] 2274 	add	a, #0x0e
    00000D84 4F               [ 4] 2275 	ld	c, a
    00000D85 DD 7E DB         [19] 2276 	ld	a, -37 (ix)
    00000D88 CE 00            [ 7] 2277 	adc	a, #0x00
    00000D8A 47               [ 4] 2278 	ld	b, a
                                   2279 ;E:\Dropbox\FAUSTO\SVILUPPI\MSX\CODE\C\MSXgl\projects\exsoccer/exsoccer_s22_b2.c:486: if (g_Players[playerId].Role >= PLAYER_ROLE_LEFT_STRIKER) g_Players[playerId].TargetY = 160;
    00000D8B DD 7E FE         [19] 2280 	ld	a, -2 (ix)
    00000D8E D6 05            [ 7] 2281 	sub	a, #0x05
    00000D90 3E 00            [ 7] 2282 	ld	a, #0x00
    00000D92 17               [ 4] 2283 	rla
    00000D93 DD 77 FF         [19] 2284 	ld	-1 (ix), a
                                   2285 ;E:\Dropbox\FAUSTO\SVILUPPI\MSX\CODE\C\MSXgl\projects\exsoccer/exsoccer_s22_b2.c:485: if (playerTeamId == TEAM_1) { // Moving UP
    00000D96 DD 7E DC         [19] 2286 	ld	a, -36 (ix)
    00000D99 3D               [ 4] 2287 	dec	a
    00000D9A 20 29            [12] 2288 	jr	NZ, 00388$
                                   2289 ;E:\Dropbox\FAUSTO\SVILUPPI\MSX\CODE\C\MSXgl\projects\exsoccer/exsoccer_s22_b2.c:486: if (g_Players[playerId].Role >= PLAYER_ROLE_LEFT_STRIKER) g_Players[playerId].TargetY = 160;
    00000D9C DD CB FF 46      [20] 2290 	bit	0, -1 (ix)
    00000DA0 20 09            [12] 2291 	jr	NZ, 00379$
    00000DA2 3E A0            [ 7] 2292 	ld	a, #0xa0
    00000DA4 02               [ 7] 2293 	ld	(bc), a
    00000DA5 03               [ 6] 2294 	inc	bc
    00000DA6 AF               [ 4] 2295 	xor	a, a
    00000DA7 02               [ 7] 2296 	ld	(bc), a
    00000DA8 C3rEBr0D         [10] 2297 	jp	00389$
    00000DAB                       2298 00379$:
                                   2299 ;E:\Dropbox\FAUSTO\SVILUPPI\MSX\CODE\C\MSXgl\projects\exsoccer/exsoccer_s22_b2.c:487: else if (g_Players[playerId].Role >= PLAYER_ROLE_LEFT_HALFFIELDER) g_Players[playerId].TargetY = 240;
    00000DAB DD 7E FE         [19] 2300 	ld	a, -2 (ix)
    00000DAE D6 03            [ 7] 2301 	sub	a, #0x03
    00000DB0 38 09            [12] 2302 	jr	C, 00376$
    00000DB2 3E F0            [ 7] 2303 	ld	a, #0xf0
    00000DB4 02               [ 7] 2304 	ld	(bc), a
    00000DB5 03               [ 6] 2305 	inc	bc
    00000DB6 AF               [ 4] 2306 	xor	a, a
    00000DB7 02               [ 7] 2307 	ld	(bc), a
    00000DB8 C3rEBr0D         [10] 2308 	jp	00389$
    00000DBB                       2309 00376$:
                                   2310 ;E:\Dropbox\FAUSTO\SVILUPPI\MSX\CODE\C\MSXgl\projects\exsoccer/exsoccer_s22_b2.c:488: else g_Players[playerId].TargetY = 350;
    00000DBB 3E 5E            [ 7] 2311 	ld	a, #0x5e
    00000DBD 02               [ 7] 2312 	ld	(bc), a
    00000DBE 03               [ 6] 2313 	inc	bc
    00000DBF 3E 01            [ 7] 2314 	ld	a, #0x01
    00000DC1 02               [ 7] 2315 	ld	(bc), a
    00000DC2 C3rEBr0D         [10] 2316 	jp	00389$
    00000DC5                       2317 00388$:
                                   2318 ;E:\Dropbox\FAUSTO\SVILUPPI\MSX\CODE\C\MSXgl\projects\exsoccer/exsoccer_s22_b2.c:490: if (g_Players[playerId].Role >= PLAYER_ROLE_LEFT_STRIKER) g_Players[playerId].TargetY = 320;
    00000DC5 DD CB FF 46      [20] 2319 	bit	0, -1 (ix)
    00000DC9 20 0A            [12] 2320 	jr	NZ, 00385$
    00000DCB 3E 40            [ 7] 2321 	ld	a, #0x40
    00000DCD 02               [ 7] 2322 	ld	(bc), a
    00000DCE 03               [ 6] 2323 	inc	bc
    00000DCF 3E 01            [ 7] 2324 	ld	a, #0x01
    00000DD1 02               [ 7] 2325 	ld	(bc), a
    00000DD2 C3rEBr0D         [10] 2326 	jp	00389$
    00000DD5                       2327 00385$:
                                   2328 ;E:\Dropbox\FAUSTO\SVILUPPI\MSX\CODE\C\MSXgl\projects\exsoccer/exsoccer_s22_b2.c:491: else if (g_Players[playerId].Role >= PLAYER_ROLE_LEFT_HALFFIELDER) g_Players[playerId].TargetY = 240;
    00000DD5 DD 7E FE         [19] 2329 	ld	a, -2 (ix)
    00000DD8 D6 03            [ 7] 2330 	sub	a, #0x03
    00000DDA 38 09            [12] 2331 	jr	C, 00382$
    00000DDC 3E F0            [ 7] 2332 	ld	a, #0xf0
    00000DDE 02               [ 7] 2333 	ld	(bc), a
    00000DDF 03               [ 6] 2334 	inc	bc
    00000DE0 AF               [ 4] 2335 	xor	a, a
    00000DE1 02               [ 7] 2336 	ld	(bc), a
    00000DE2 C3rEBr0D         [10] 2337 	jp	00389$
    00000DE5                       2338 00382$:
                                   2339 ;E:\Dropbox\FAUSTO\SVILUPPI\MSX\CODE\C\MSXgl\projects\exsoccer/exsoccer_s22_b2.c:492: else g_Players[playerId].TargetY = 130;
    00000DE5 3E 82            [ 7] 2340 	ld	a, #0x82
    00000DE7 02               [ 7] 2341 	ld	(bc), a
    00000DE8 03               [ 6] 2342 	inc	bc
    00000DE9 AF               [ 4] 2343 	xor	a, a
    00000DEA 02               [ 7] 2344 	ld	(bc), a
    00000DEB                       2345 00389$:
                                   2346 ;E:\Dropbox\FAUSTO\SVILUPPI\MSX\CODE\C\MSXgl\projects\exsoccer/exsoccer_s22_b2.c:496: if (g_Players[playerId].Role == PLAYER_ROLE_LEFT_STRIKER) g_Players[playerId].TargetX = 64;
    00000DEB DD 6E F7         [19] 2347 	ld	l, -9 (ix)
    00000DEE DD 66 F8         [19] 2348 	ld	h, -8 (ix)
    00000DF1 7E               [ 7] 2349 	ld	a, (hl)
    00000DF2 FE 05            [ 7] 2350 	cp	a, #0x05
    00000DF4 20 0E            [12] 2351 	jr	NZ, 00405$
    00000DF6 E1               [10] 2352 	pop	hl
    00000DF7 E5               [11] 2353 	push	hl
    00000DF8 11 10 00         [10] 2354 	ld	de, #0x0010
    00000DFB 19               [11] 2355 	add	hl, de
    00000DFC 36 40            [10] 2356 	ld	(hl), #0x40
    00000DFE 23               [ 6] 2357 	inc	hl
    00000DFF 36 00            [10] 2358 	ld	(hl), #0x00
    00000E01 C3r0Cr1F         [10] 2359 	jp	00718$
    00000E04                       2360 00405$:
                                   2361 ;E:\Dropbox\FAUSTO\SVILUPPI\MSX\CODE\C\MSXgl\projects\exsoccer/exsoccer_s22_b2.c:497: else if (g_Players[playerId].Role == PLAYER_ROLE_RIGHT_STRIKER) g_Players[playerId].TargetX = 192;
    00000E04 FE 06            [ 7] 2362 	cp	a, #0x06
    00000E06 20 0E            [12] 2363 	jr	NZ, 00402$
    00000E08 E1               [10] 2364 	pop	hl
    00000E09 E5               [11] 2365 	push	hl
    00000E0A 11 10 00         [10] 2366 	ld	de, #0x0010
    00000E0D 19               [11] 2367 	add	hl, de
    00000E0E 36 C0            [10] 2368 	ld	(hl), #0xc0
    00000E10 23               [ 6] 2369 	inc	hl
    00000E11 36 00            [10] 2370 	ld	(hl), #0x00
    00000E13 C3r0Cr1F         [10] 2371 	jp	00718$
    00000E16                       2372 00402$:
                                   2373 ;E:\Dropbox\FAUSTO\SVILUPPI\MSX\CODE\C\MSXgl\projects\exsoccer/exsoccer_s22_b2.c:498: else if (g_Players[playerId].Role == PLAYER_ROLE_LEFT_HALFFIELDER) g_Players[playerId].TargetX = 48;
    00000E16 FE 03            [ 7] 2374 	cp	a, #0x03
    00000E18 20 0E            [12] 2375 	jr	NZ, 00399$
    00000E1A E1               [10] 2376 	pop	hl
    00000E1B E5               [11] 2377 	push	hl
    00000E1C 11 10 00         [10] 2378 	ld	de, #0x0010
    00000E1F 19               [11] 2379 	add	hl, de
    00000E20 36 30            [10] 2380 	ld	(hl), #0x30
    00000E22 23               [ 6] 2381 	inc	hl
    00000E23 36 00            [10] 2382 	ld	(hl), #0x00
    00000E25 C3r0Cr1F         [10] 2383 	jp	00718$
    00000E28                       2384 00399$:
                                   2385 ;E:\Dropbox\FAUSTO\SVILUPPI\MSX\CODE\C\MSXgl\projects\exsoccer/exsoccer_s22_b2.c:499: else if (g_Players[playerId].Role == PLAYER_ROLE_RIGHT_HALFFIELDER) g_Players[playerId].TargetX = 208;
    00000E28 FE 04            [ 7] 2386 	cp	a, #0x04
    00000E2A 20 0E            [12] 2387 	jr	NZ, 00396$
    00000E2C E1               [10] 2388 	pop	hl
    00000E2D E5               [11] 2389 	push	hl
    00000E2E 11 10 00         [10] 2390 	ld	de, #0x0010
    00000E31 19               [11] 2391 	add	hl, de
    00000E32 36 D0            [10] 2392 	ld	(hl), #0xd0
    00000E34 23               [ 6] 2393 	inc	hl
    00000E35 36 00            [10] 2394 	ld	(hl), #0x00
    00000E37 C3r0Cr1F         [10] 2395 	jp	00718$
    00000E3A                       2396 00396$:
                                   2397 ;E:\Dropbox\FAUSTO\SVILUPPI\MSX\CODE\C\MSXgl\projects\exsoccer/exsoccer_s22_b2.c:500: else if (g_Players[playerId].Role == PLAYER_ROLE_LEFT_DEFENDER) g_Players[playerId].TargetX = 80;
    00000E3A FE 01            [ 7] 2398 	cp	a, #0x01
    00000E3C 20 0E            [12] 2399 	jr	NZ, 00393$
    00000E3E E1               [10] 2400 	pop	hl
    00000E3F E5               [11] 2401 	push	hl
    00000E40 11 10 00         [10] 2402 	ld	de, #0x0010
    00000E43 19               [11] 2403 	add	hl, de
    00000E44 36 50            [10] 2404 	ld	(hl), #0x50
    00000E46 23               [ 6] 2405 	inc	hl
    00000E47 36 00            [10] 2406 	ld	(hl), #0x00
    00000E49 C3r0Cr1F         [10] 2407 	jp	00718$
    00000E4C                       2408 00393$:
                                   2409 ;E:\Dropbox\FAUSTO\SVILUPPI\MSX\CODE\C\MSXgl\projects\exsoccer/exsoccer_s22_b2.c:501: else if (g_Players[playerId].Role == PLAYER_ROLE_RIGHT_DEFENDER) g_Players[playerId].TargetX = 176;
    00000E4C D6 02            [ 7] 2410 	sub	a, #0x02
    00000E4E C2r0Cr1F         [10] 2411 	jp	NZ,00718$
    00000E51 E1               [10] 2412 	pop	hl
    00000E52 E5               [11] 2413 	push	hl
    00000E53 11 10 00         [10] 2414 	ld	de, #0x0010
    00000E56 19               [11] 2415 	add	hl, de
    00000E57 36 B0            [10] 2416 	ld	(hl), #0xb0
    00000E59 23               [ 6] 2417 	inc	hl
    00000E5A 36 00            [10] 2418 	ld	(hl), #0x00
                                   2419 ;E:\Dropbox\FAUSTO\SVILUPPI\MSX\CODE\C\MSXgl\projects\exsoccer/exsoccer_s22_b2.c:503: return;
    00000E5C C3r0Cr1F         [10] 2420 	jp	00718$
    00000E5F                       2421 00408$:
                                   2422 ;E:\Dropbox\FAUSTO\SVILUPPI\MSX\CODE\C\MSXgl\projects\exsoccer/exsoccer_s22_b2.c:509: if (g_Players[playerId].Role == PLAYER_ROLE_LEFT_STRIKER || 
    00000E5F DD 7E FE         [19] 2423 	ld	a, -2 (ix)
    00000E62 D6 05            [ 7] 2424 	sub	a, #0x05
    00000E64 28 07            [12] 2425 	jr	Z, 00458$
                                   2426 ;E:\Dropbox\FAUSTO\SVILUPPI\MSX\CODE\C\MSXgl\projects\exsoccer/exsoccer_s22_b2.c:510: g_Players[playerId].Role == PLAYER_ROLE_RIGHT_STRIKER) {
    00000E66 DD 7E FE         [19] 2427 	ld	a, -2 (ix)
    00000E69 D6 06            [ 7] 2428 	sub	a, #0x06
    00000E6B 20 3B            [12] 2429 	jr	NZ, 00459$
    00000E6D                       2430 00458$:
                                   2431 ;E:\Dropbox\FAUSTO\SVILUPPI\MSX\CODE\C\MSXgl\projects\exsoccer/exsoccer_s22_b2.c:462: g_Players[playerId].TargetY = finalTargetY;
    00000E6D E1               [10] 2432 	pop	hl
    00000E6E E5               [11] 2433 	push	hl
    00000E6F 11 0E 00         [10] 2434 	ld	de, #0x000e
    00000E72 19               [11] 2435 	add	hl, de
                                   2436 ;E:\Dropbox\FAUSTO\SVILUPPI\MSX\CODE\C\MSXgl\projects\exsoccer/exsoccer_s22_b2.c:513: if (playerTeamId == TEAM_1) g_Players[playerId].TargetY = GK_BOX_Y_TOP_MAX - 10;
    00000E73 DD 7E DC         [19] 2437 	ld	a, -36 (ix)
    00000E76 3D               [ 4] 2438 	dec	a
    00000E77 20 08            [12] 2439 	jr	NZ, 00410$
    00000E79 36 41            [10] 2440 	ld	(hl), #0x41
    00000E7B 23               [ 6] 2441 	inc	hl
    00000E7C 36 00            [10] 2442 	ld	(hl), #0x00
    00000E7E C3r86r0E         [10] 2443 	jp	00411$
    00000E81                       2444 00410$:
                                   2445 ;E:\Dropbox\FAUSTO\SVILUPPI\MSX\CODE\C\MSXgl\projects\exsoccer/exsoccer_s22_b2.c:514: else g_Players[playerId].TargetY = GK_BOX_Y_BOTTOM_MIN + 10;
    00000E81 36 9F            [10] 2446 	ld	(hl), #0x9f
    00000E83 23               [ 6] 2447 	inc	hl
    00000E84 36 01            [10] 2448 	ld	(hl), #0x01
    00000E86                       2449 00411$:
                                   2450 ;E:\Dropbox\FAUSTO\SVILUPPI\MSX\CODE\C\MSXgl\projects\exsoccer/exsoccer_s22_b2.c:516: if (g_Players[playerId].Role == PLAYER_ROLE_LEFT_STRIKER) g_Players[playerId].TargetX = 64;
    00000E86 DD 6E F7         [19] 2451 	ld	l, -9 (ix)
    00000E89 DD 66 F8         [19] 2452 	ld	h, -8 (ix)
    00000E8C 4E               [ 7] 2453 	ld	c, (hl)
                                   2454 ;E:\Dropbox\FAUSTO\SVILUPPI\MSX\CODE\C\MSXgl\projects\exsoccer/exsoccer_s22_b2.c:463: g_Players[playerId].TargetX = finalTargetX;
    00000E8D E1               [10] 2455 	pop	hl
    00000E8E E5               [11] 2456 	push	hl
    00000E8F 11 10 00         [10] 2457 	ld	de, #0x0010
    00000E92 19               [11] 2458 	add	hl, de
                                   2459 ;E:\Dropbox\FAUSTO\SVILUPPI\MSX\CODE\C\MSXgl\projects\exsoccer/exsoccer_s22_b2.c:516: if (g_Players[playerId].Role == PLAYER_ROLE_LEFT_STRIKER) g_Players[playerId].TargetX = 64;
    00000E93 79               [ 4] 2460 	ld	a, c
    00000E94 D6 05            [ 7] 2461 	sub	a, #0x05
    00000E96 20 08            [12] 2462 	jr	NZ, 00413$
    00000E98 36 40            [10] 2463 	ld	(hl), #0x40
    00000E9A 23               [ 6] 2464 	inc	hl
    00000E9B 36 00            [10] 2465 	ld	(hl), #0x00
    00000E9D C3rCCr10         [10] 2466 	jp	00940$
    00000EA0                       2467 00413$:
                                   2468 ;E:\Dropbox\FAUSTO\SVILUPPI\MSX\CODE\C\MSXgl\projects\exsoccer/exsoccer_s22_b2.c:517: else g_Players[playerId].TargetX = 192;
    00000EA0 36 C0            [10] 2469 	ld	(hl), #0xc0
    00000EA2 23               [ 6] 2470 	inc	hl
    00000EA3 36 00            [10] 2471 	ld	(hl), #0x00
    00000EA5 C3rCCr10         [10] 2472 	jp	00940$
    00000EA8                       2473 00459$:
                                   2474 ;E:\Dropbox\FAUSTO\SVILUPPI\MSX\CODE\C\MSXgl\projects\exsoccer/exsoccer_s22_b2.c:519: } else if (g_Players[playerId].Role == PLAYER_ROLE_LEFT_HALFFIELDER || 
    00000EA8 DD 7E FE         [19] 2475 	ld	a, -2 (ix)
    00000EAB D6 03            [ 7] 2476 	sub	a, #0x03
    00000EAD 28 08            [12] 2477 	jr	Z, 00454$
                                   2478 ;E:\Dropbox\FAUSTO\SVILUPPI\MSX\CODE\C\MSXgl\projects\exsoccer/exsoccer_s22_b2.c:520: g_Players[playerId].Role == PLAYER_ROLE_RIGHT_HALFFIELDER) {
    00000EAF DD 7E FE         [19] 2479 	ld	a, -2 (ix)
    00000EB2 D6 04            [ 7] 2480 	sub	a, #0x04
    00000EB4 C2r4Ar0F         [10] 2481 	jp	NZ,00455$
    00000EB7                       2482 00454$:
                                   2483 ;E:\Dropbox\FAUSTO\SVILUPPI\MSX\CODE\C\MSXgl\projects\exsoccer/exsoccer_s22_b2.c:462: g_Players[playerId].TargetY = finalTargetY;
    00000EB7 DD 7E DA         [19] 2484 	ld	a, -38 (ix)
    00000EBA C6 0E            [ 7] 2485 	add	a, #0x0e
    00000EBC DD 77 FB         [19] 2486 	ld	-5 (ix), a
    00000EBF DD 7E DB         [19] 2487 	ld	a, -37 (ix)
    00000EC2 CE 00            [ 7] 2488 	adc	a, #0x00
    00000EC4 DD 77 FC         [19] 2489 	ld	-4 (ix), a
                                   2490 ;E:\Dropbox\FAUSTO\SVILUPPI\MSX\CODE\C\MSXgl\projects\exsoccer/exsoccer_s22_b2.c:474: g_Players[playerId].TargetY = g_Ball.Y;
    00000EC7 2Ar00r00         [16] 2491 	ld	hl, (#_g_Ball + 0)
                                   2492 ;E:\Dropbox\FAUSTO\SVILUPPI\MSX\CODE\C\MSXgl\projects\exsoccer/exsoccer_s22_b2.c:527: g_Players[playerId].TargetY = g_Ball.Y - 40;
    00000ECA DD 75 FE         [19] 2493 	ld	-2 (ix), l
    00000ECD DD 74 FF         [19] 2494 	ld	-1 (ix), h
                                   2495 ;E:\Dropbox\FAUSTO\SVILUPPI\MSX\CODE\C\MSXgl\projects\exsoccer/exsoccer_s22_b2.c:524: if (playerTeamId == TEAM_1) {
    00000ED0 DD 7E DC         [19] 2496 	ld	a, -36 (ix)
    00000ED3 3D               [ 4] 2497 	dec	a
    00000ED4 20 2B            [12] 2498 	jr	NZ, 00420$
                                   2499 ;E:\Dropbox\FAUSTO\SVILUPPI\MSX\CODE\C\MSXgl\projects\exsoccer/exsoccer_s22_b2.c:527: g_Players[playerId].TargetY = g_Ball.Y - 40;
    00000ED6 DD 7E FE         [19] 2500 	ld	a, -2 (ix)
    00000ED9 C6 D8            [ 7] 2501 	add	a, #0xd8
    00000EDB 4F               [ 4] 2502 	ld	c, a
    00000EDC DD 7E FF         [19] 2503 	ld	a, -1 (ix)
    00000EDF CE FF            [ 7] 2504 	adc	a, #0xff
    00000EE1 47               [ 4] 2505 	ld	b, a
    00000EE2 DD 6E FB         [19] 2506 	ld	l, -5 (ix)
    00000EE5 DD 66 FC         [19] 2507 	ld	h, -4 (ix)
    00000EE8 71               [ 7] 2508 	ld	(hl), c
    00000EE9 23               [ 6] 2509 	inc	hl
    00000EEA 70               [ 7] 2510 	ld	(hl), b
                                   2511 ;E:\Dropbox\FAUSTO\SVILUPPI\MSX\CODE\C\MSXgl\projects\exsoccer/exsoccer_s22_b2.c:528: if (g_Players[playerId].TargetY < limitY) g_Players[playerId].TargetY = limitY;
    00000EEB 79               [ 4] 2512 	ld	a, c
    00000EEC D6 6A            [ 7] 2513 	sub	a, #0x6a
    00000EEE 78               [ 4] 2514 	ld	a, b
    00000EEF DE 00            [ 7] 2515 	sbc	a, #0x00
    00000EF1 30 35            [12] 2516 	jr	NC, 00421$
    00000EF3 DD 6E FB         [19] 2517 	ld	l, -5 (ix)
    00000EF6 DD 66 FC         [19] 2518 	ld	h, -4 (ix)
    00000EF9 36 6A            [10] 2519 	ld	(hl), #0x6a
    00000EFB 23               [ 6] 2520 	inc	hl
    00000EFC 36 00            [10] 2521 	ld	(hl), #0x00
    00000EFE C3r28r0F         [10] 2522 	jp	00421$
    00000F01                       2523 00420$:
                                   2524 ;E:\Dropbox\FAUSTO\SVILUPPI\MSX\CODE\C\MSXgl\projects\exsoccer/exsoccer_s22_b2.c:532: g_Players[playerId].TargetY = g_Ball.Y + 40;
    00000F01 DD 6E FE         [19] 2525 	ld	l, -2 (ix)
    00000F04 DD 66 FF         [19] 2526 	ld	h, -1 (ix)
    00000F07 11 28 00         [10] 2527 	ld	de, #0x0028
    00000F0A 19               [11] 2528 	add	hl, de
    00000F0B EB               [ 4] 2529 	ex	de, hl
    00000F0C DD 6E FB         [19] 2530 	ld	l, -5 (ix)
    00000F0F DD 66 FC         [19] 2531 	ld	h, -4 (ix)
    00000F12 73               [ 7] 2532 	ld	(hl), e
    00000F13 23               [ 6] 2533 	inc	hl
    00000F14 72               [ 7] 2534 	ld	(hl), d
                                   2535 ;E:\Dropbox\FAUSTO\SVILUPPI\MSX\CODE\C\MSXgl\projects\exsoccer/exsoccer_s22_b2.c:533: if (g_Players[playerId].TargetY > limitY) g_Players[playerId].TargetY = limitY;
    00000F15 3E 3E            [ 7] 2536 	ld	a, #0x3e
    00000F17 BB               [ 4] 2537 	cp	a, e
    00000F18 3E 01            [ 7] 2538 	ld	a, #0x01
    00000F1A 9A               [ 4] 2539 	sbc	a, d
    00000F1B 30 0B            [12] 2540 	jr	NC, 00421$
    00000F1D DD 6E FB         [19] 2541 	ld	l, -5 (ix)
    00000F20 DD 66 FC         [19] 2542 	ld	h, -4 (ix)
    00000F23 36 3E            [10] 2543 	ld	(hl), #0x3e
    00000F25 23               [ 6] 2544 	inc	hl
    00000F26 36 01            [10] 2545 	ld	(hl), #0x01
    00000F28                       2546 00421$:
                                   2547 ;E:\Dropbox\FAUSTO\SVILUPPI\MSX\CODE\C\MSXgl\projects\exsoccer/exsoccer_s22_b2.c:536: if (g_Players[playerId].Role == PLAYER_ROLE_LEFT_HALFFIELDER) g_Players[playerId].TargetX = 48;
    00000F28 DD 6E F7         [19] 2548 	ld	l, -9 (ix)
    00000F2B DD 66 F8         [19] 2549 	ld	h, -8 (ix)
    00000F2E 4E               [ 7] 2550 	ld	c, (hl)
                                   2551 ;E:\Dropbox\FAUSTO\SVILUPPI\MSX\CODE\C\MSXgl\projects\exsoccer/exsoccer_s22_b2.c:463: g_Players[playerId].TargetX = finalTargetX;
    00000F2F E1               [10] 2552 	pop	hl
    00000F30 E5               [11] 2553 	push	hl
    00000F31 11 10 00         [10] 2554 	ld	de, #0x0010
    00000F34 19               [11] 2555 	add	hl, de
                                   2556 ;E:\Dropbox\FAUSTO\SVILUPPI\MSX\CODE\C\MSXgl\projects\exsoccer/exsoccer_s22_b2.c:536: if (g_Players[playerId].Role == PLAYER_ROLE_LEFT_HALFFIELDER) g_Players[playerId].TargetX = 48;
    00000F35 79               [ 4] 2557 	ld	a, c
    00000F36 D6 03            [ 7] 2558 	sub	a, #0x03
    00000F38 20 08            [12] 2559 	jr	NZ, 00423$
    00000F3A 36 30            [10] 2560 	ld	(hl), #0x30
    00000F3C 23               [ 6] 2561 	inc	hl
    00000F3D 36 00            [10] 2562 	ld	(hl), #0x00
    00000F3F C3rCCr10         [10] 2563 	jp	00940$
    00000F42                       2564 00423$:
                                   2565 ;E:\Dropbox\FAUSTO\SVILUPPI\MSX\CODE\C\MSXgl\projects\exsoccer/exsoccer_s22_b2.c:537: else g_Players[playerId].TargetX = 208;
    00000F42 36 D0            [10] 2566 	ld	(hl), #0xd0
    00000F44 23               [ 6] 2567 	inc	hl
    00000F45 36 00            [10] 2568 	ld	(hl), #0x00
    00000F47 C3rCCr10         [10] 2569 	jp	00940$
    00000F4A                       2570 00455$:
                                   2571 ;E:\Dropbox\FAUSTO\SVILUPPI\MSX\CODE\C\MSXgl\projects\exsoccer/exsoccer_s22_b2.c:539: } else if (g_Players[playerId].Role == PLAYER_ROLE_LEFT_DEFENDER || 
    00000F4A DD 7E FE         [19] 2572 	ld	a, -2 (ix)
    00000F4D 3D               [ 4] 2573 	dec	a
    00000F4E 28 08            [12] 2574 	jr	Z, 00450$
                                   2575 ;E:\Dropbox\FAUSTO\SVILUPPI\MSX\CODE\C\MSXgl\projects\exsoccer/exsoccer_s22_b2.c:540: g_Players[playerId].Role == PLAYER_ROLE_RIGHT_DEFENDER) {
    00000F50 DD 7E FE         [19] 2576 	ld	a, -2 (ix)
    00000F53 D6 02            [ 7] 2577 	sub	a, #0x02
    00000F55 C2r89r10         [10] 2578 	jp	NZ,00451$
    00000F58                       2579 00450$:
                                   2580 ;E:\Dropbox\FAUSTO\SVILUPPI\MSX\CODE\C\MSXgl\projects\exsoccer/exsoccer_s22_b2.c:462: g_Players[playerId].TargetY = finalTargetY;
    00000F58 DD 7E DA         [19] 2581 	ld	a, -38 (ix)
    00000F5B C6 0E            [ 7] 2582 	add	a, #0x0e
    00000F5D DD 77 F9         [19] 2583 	ld	-7 (ix), a
    00000F60 DD 7E DB         [19] 2584 	ld	a, -37 (ix)
    00000F63 CE 00            [ 7] 2585 	adc	a, #0x00
    00000F65 DD 77 FA         [19] 2586 	ld	-6 (ix), a
                                   2587 ;E:\Dropbox\FAUSTO\SVILUPPI\MSX\CODE\C\MSXgl\projects\exsoccer/exsoccer_s22_b2.c:474: g_Players[playerId].TargetY = g_Ball.Y;
    00000F68 2Ar00r00         [16] 2588 	ld	hl, (#_g_Ball + 0)
                                   2589 ;E:\Dropbox\FAUSTO\SVILUPPI\MSX\CODE\C\MSXgl\projects\exsoccer/exsoccer_s22_b2.c:527: g_Players[playerId].TargetY = g_Ball.Y - 40;
    00000F6B DD 75 FB         [19] 2590 	ld	-5 (ix), l
    00000F6E DD 74 FC         [19] 2591 	ld	-4 (ix), h
                                   2592 ;E:\Dropbox\FAUSTO\SVILUPPI\MSX\CODE\C\MSXgl\projects\exsoccer/exsoccer_s22_b2.c:543: if (playerTeamId == TEAM_1) { // Attacking UP
    00000F71 DD 7E DC         [19] 2593 	ld	a, -36 (ix)
    00000F74 3D               [ 4] 2594 	dec	a
    00000F75 20 5B            [12] 2595 	jr	NZ, 00440$
                                   2596 ;E:\Dropbox\FAUSTO\SVILUPPI\MSX\CODE\C\MSXgl\projects\exsoccer/exsoccer_s22_b2.c:544: g_Players[playerId].TargetY = g_Ball.Y + 30;
    00000F77 DD 7E FB         [19] 2597 	ld	a, -5 (ix)
    00000F7A C6 1E            [ 7] 2598 	add	a, #0x1e
    00000F7C DD 77 FE         [19] 2599 	ld	-2 (ix), a
    00000F7F DD 7E FC         [19] 2600 	ld	a, -4 (ix)
    00000F82 CE 00            [ 7] 2601 	adc	a, #0x00
    00000F84 DD 77 FF         [19] 2602 	ld	-1 (ix), a
    00000F87 DD 6E F9         [19] 2603 	ld	l, -7 (ix)
    00000F8A DD 66 FA         [19] 2604 	ld	h, -6 (ix)
    00000F8D DD 7E FE         [19] 2605 	ld	a, -2 (ix)
    00000F90 77               [ 7] 2606 	ld	(hl), a
    00000F91 23               [ 6] 2607 	inc	hl
    00000F92 DD 7E FF         [19] 2608 	ld	a, -1 (ix)
    00000F95 77               [ 7] 2609 	ld	(hl), a
                                   2610 ;E:\Dropbox\FAUSTO\SVILUPPI\MSX\CODE\C\MSXgl\projects\exsoccer/exsoccer_s22_b2.c:546: if (g_Players[playerId].Role == PLAYER_ROLE_LEFT_DEFENDER) {
    00000F96 DD 6E F7         [19] 2611 	ld	l, -9 (ix)
    00000F99 DD 66 F8         [19] 2612 	ld	h, -8 (ix)
    00000F9C 7E               [ 7] 2613 	ld	a, (hl)
                                   2614 ;E:\Dropbox\FAUSTO\SVILUPPI\MSX\CODE\C\MSXgl\projects\exsoccer/exsoccer_s22_b2.c:548: if (g_Players[playerId].TargetY < 318) g_Players[playerId].TargetY = 318;
    00000F9D DD 4E FE         [19] 2615 	ld	c, -2 (ix)
    00000FA0 DD 46 FF         [19] 2616 	ld	b, -1 (ix)
                                   2617 ;E:\Dropbox\FAUSTO\SVILUPPI\MSX\CODE\C\MSXgl\projects\exsoccer/exsoccer_s22_b2.c:546: if (g_Players[playerId].Role == PLAYER_ROLE_LEFT_DEFENDER) {
    00000FA3 3D               [ 4] 2618 	dec	a
    00000FA4 20 16            [12] 2619 	jr	NZ, 00430$
                                   2620 ;E:\Dropbox\FAUSTO\SVILUPPI\MSX\CODE\C\MSXgl\projects\exsoccer/exsoccer_s22_b2.c:548: if (g_Players[playerId].TargetY < 318) g_Players[playerId].TargetY = 318;
    00000FA6 79               [ 4] 2621 	ld	a, c
    00000FA7 D6 3E            [ 7] 2622 	sub	a, #0x3e
    00000FA9 78               [ 4] 2623 	ld	a, b
    00000FAA DE 01            [ 7] 2624 	sbc	a, #0x01
    00000FAC 30 76            [12] 2625 	jr	NC, 00441$
    00000FAE DD 6E F9         [19] 2626 	ld	l, -7 (ix)
    00000FB1 DD 66 FA         [19] 2627 	ld	h, -6 (ix)
    00000FB4 36 3E            [10] 2628 	ld	(hl), #0x3e
    00000FB6 23               [ 6] 2629 	inc	hl
    00000FB7 36 01            [10] 2630 	ld	(hl), #0x01
    00000FB9 C3r24r10         [10] 2631 	jp	00441$
    00000FBC                       2632 00430$:
                                   2633 ;E:\Dropbox\FAUSTO\SVILUPPI\MSX\CODE\C\MSXgl\projects\exsoccer/exsoccer_s22_b2.c:551: if (g_Players[playerId].TargetY < 190) g_Players[playerId].TargetY = 190;
    00000FBC 79               [ 4] 2634 	ld	a, c
    00000FBD D6 BE            [ 7] 2635 	sub	a, #0xbe
    00000FBF 78               [ 4] 2636 	ld	a, b
    00000FC0 DE 00            [ 7] 2637 	sbc	a, #0x00
    00000FC2 30 60            [12] 2638 	jr	NC, 00441$
    00000FC4 DD 6E F9         [19] 2639 	ld	l, -7 (ix)
    00000FC7 DD 66 FA         [19] 2640 	ld	h, -6 (ix)
    00000FCA 36 BE            [10] 2641 	ld	(hl), #0xbe
    00000FCC 23               [ 6] 2642 	inc	hl
    00000FCD 36 00            [10] 2643 	ld	(hl), #0x00
    00000FCF C3r24r10         [10] 2644 	jp	00441$
    00000FD2                       2645 00440$:
                                   2646 ;E:\Dropbox\FAUSTO\SVILUPPI\MSX\CODE\C\MSXgl\projects\exsoccer/exsoccer_s22_b2.c:555: g_Players[playerId].TargetY = g_Ball.Y - 30;
    00000FD2 DD 7E FB         [19] 2647 	ld	a, -5 (ix)
    00000FD5 C6 E2            [ 7] 2648 	add	a, #0xe2
    00000FD7 DD 77 FE         [19] 2649 	ld	-2 (ix), a
    00000FDA DD 7E FC         [19] 2650 	ld	a, -4 (ix)
    00000FDD CE FF            [ 7] 2651 	adc	a, #0xff
    00000FDF DD 77 FF         [19] 2652 	ld	-1 (ix), a
    00000FE2 DD 4E FE         [19] 2653 	ld	c, -2 (ix)
    00000FE5 DD 46 FF         [19] 2654 	ld	b, -1 (ix)
    00000FE8 DD 6E F9         [19] 2655 	ld	l, -7 (ix)
    00000FEB DD 66 FA         [19] 2656 	ld	h, -6 (ix)
    00000FEE 71               [ 7] 2657 	ld	(hl), c
    00000FEF 23               [ 6] 2658 	inc	hl
    00000FF0 70               [ 7] 2659 	ld	(hl), b
                                   2660 ;E:\Dropbox\FAUSTO\SVILUPPI\MSX\CODE\C\MSXgl\projects\exsoccer/exsoccer_s22_b2.c:557: if (g_Players[playerId].Role == PLAYER_ROLE_LEFT_DEFENDER) {
    00000FF1 DD 6E F7         [19] 2661 	ld	l, -9 (ix)
    00000FF4 DD 66 F8         [19] 2662 	ld	h, -8 (ix)
    00000FF7 7E               [ 7] 2663 	ld	a, (hl)
                                   2664 ;E:\Dropbox\FAUSTO\SVILUPPI\MSX\CODE\C\MSXgl\projects\exsoccer/exsoccer_s22_b2.c:548: if (g_Players[playerId].TargetY < 318) g_Players[playerId].TargetY = 318;
                                   2665 ;E:\Dropbox\FAUSTO\SVILUPPI\MSX\CODE\C\MSXgl\projects\exsoccer/exsoccer_s22_b2.c:557: if (g_Players[playerId].Role == PLAYER_ROLE_LEFT_DEFENDER) {
    00000FF8 3D               [ 4] 2666 	dec	a
    00000FF9 20 16            [12] 2667 	jr	NZ, 00437$
                                   2668 ;E:\Dropbox\FAUSTO\SVILUPPI\MSX\CODE\C\MSXgl\projects\exsoccer/exsoccer_s22_b2.c:559: if (g_Players[playerId].TargetY > 106) g_Players[playerId].TargetY = 106;
    00000FFB 3E 6A            [ 7] 2669 	ld	a, #0x6a
    00000FFD B9               [ 4] 2670 	cp	a, c
    00000FFE 3E 00            [ 7] 2671 	ld	a, #0x00
    00001000 98               [ 4] 2672 	sbc	a, b
    00001001 30 21            [12] 2673 	jr	NC, 00441$
    00001003 DD 6E F9         [19] 2674 	ld	l, -7 (ix)
    00001006 DD 66 FA         [19] 2675 	ld	h, -6 (ix)
    00001009 36 6A            [10] 2676 	ld	(hl), #0x6a
    0000100B 23               [ 6] 2677 	inc	hl
    0000100C 36 00            [10] 2678 	ld	(hl), #0x00
    0000100E C3r24r10         [10] 2679 	jp	00441$
    00001011                       2680 00437$:
                                   2681 ;E:\Dropbox\FAUSTO\SVILUPPI\MSX\CODE\C\MSXgl\projects\exsoccer/exsoccer_s22_b2.c:562: if (g_Players[playerId].TargetY > 234) g_Players[playerId].TargetY = 234;
    00001011 3E EA            [ 7] 2682 	ld	a, #0xea
    00001013 B9               [ 4] 2683 	cp	a, c
    00001014 3E 00            [ 7] 2684 	ld	a, #0x00
    00001016 98               [ 4] 2685 	sbc	a, b
    00001017 30 0B            [12] 2686 	jr	NC, 00441$
    00001019 DD 6E F9         [19] 2687 	ld	l, -7 (ix)
    0000101C DD 66 FA         [19] 2688 	ld	h, -6 (ix)
    0000101F 36 EA            [10] 2689 	ld	(hl), #0xea
    00001021 23               [ 6] 2690 	inc	hl
    00001022 36 00            [10] 2691 	ld	(hl), #0x00
    00001024                       2692 00441$:
                                   2693 ;E:\Dropbox\FAUSTO\SVILUPPI\MSX\CODE\C\MSXgl\projects\exsoccer/exsoccer_s22_b2.c:568: if (g_Players[playerId].Role == PLAYER_ROLE_LEFT_DEFENDER) defTargetX = 80;
    00001024 DD 6E F7         [19] 2694 	ld	l, -9 (ix)
    00001027 DD 66 F8         [19] 2695 	ld	h, -8 (ix)
    0000102A 7E               [ 7] 2696 	ld	a, (hl)
    0000102B 3D               [ 4] 2697 	dec	a
    0000102C 20 0B            [12] 2698 	jr	NZ, 00443$
    0000102E DD 36 F9 50      [19] 2699 	ld	-7 (ix), #0x50
    00001032 DD 36 FA 00      [19] 2700 	ld	-6 (ix), #0
    00001036 C3r41r10         [10] 2701 	jp	00444$
    00001039                       2702 00443$:
                                   2703 ;E:\Dropbox\FAUSTO\SVILUPPI\MSX\CODE\C\MSXgl\projects\exsoccer/exsoccer_s22_b2.c:569: else defTargetX = 176;
    00001039 DD 36 F9 B0      [19] 2704 	ld	-7 (ix), #0xb0
    0000103D DD 36 FA 00      [19] 2705 	ld	-6 (ix), #0
    00001041                       2706 00444$:
                                   2707 ;E:\Dropbox\FAUSTO\SVILUPPI\MSX\CODE\C\MSXgl\projects\exsoccer/exsoccer_s22_b2.c:572: defTargetX = (defTargetX + g_Ball.X) / 2;
    00001041 21r02r00         [10] 2708 	ld	hl, #_g_Ball + 2
    00001044 7E               [ 7] 2709 	ld	a, (hl)
    00001045 DD 77 FB         [19] 2710 	ld	-5 (ix), a
    00001048 23               [ 6] 2711 	inc	hl
    00001049 7E               [ 7] 2712 	ld	a, (hl)
    0000104A DD 77 FC         [19] 2713 	ld	-4 (ix), a
    0000104D DD 7E FB         [19] 2714 	ld	a, -5 (ix)
    00001050 DD 86 F9         [19] 2715 	add	a, -7 (ix)
    00001053 DD 77 FE         [19] 2716 	ld	-2 (ix), a
    00001056 DD 7E FC         [19] 2717 	ld	a, -4 (ix)
    00001059 DD 8E FA         [19] 2718 	adc	a, -6 (ix)
    0000105C DD 77 FF         [19] 2719 	ld	-1 (ix), a
    0000105F DD CB FF 3E      [23] 2720 	srl	-1 (ix)
    00001063 DD CB FE 1E      [23] 2721 	rr	-2 (ix)
                                   2722 ;E:\Dropbox\FAUSTO\SVILUPPI\MSX\CODE\C\MSXgl\projects\exsoccer/exsoccer_s22_b2.c:573: g_Players[playerId].TargetX = defTargetX;
    00001067 DD 7E DA         [19] 2723 	ld	a, -38 (ix)
    0000106A C6 10            [ 7] 2724 	add	a, #0x10
    0000106C DD 77 FB         [19] 2725 	ld	-5 (ix), a
    0000106F DD 7E DB         [19] 2726 	ld	a, -37 (ix)
    00001072 CE 00            [ 7] 2727 	adc	a, #0x00
    00001074 DD 77 FC         [19] 2728 	ld	-4 (ix), a
    00001077 DD 6E FB         [19] 2729 	ld	l, -5 (ix)
    0000107A DD 66 FC         [19] 2730 	ld	h, -4 (ix)
    0000107D DD 7E FE         [19] 2731 	ld	a, -2 (ix)
    00001080 77               [ 7] 2732 	ld	(hl), a
    00001081 23               [ 6] 2733 	inc	hl
    00001082 DD 7E FF         [19] 2734 	ld	a, -1 (ix)
    00001085 77               [ 7] 2735 	ld	(hl), a
    00001086 C3rCCr10         [10] 2736 	jp	00940$
    00001089                       2737 00451$:
                                   2738 ;E:\Dropbox\FAUSTO\SVILUPPI\MSX\CODE\C\MSXgl\projects\exsoccer/exsoccer_s22_b2.c:575: } else if (g_Players[playerId].Role == PLAYER_ROLE_GOALKEEPER) {
    00001089 DD 7E FE         [19] 2739 	ld	a, -2 (ix)
    0000108C B7               [ 4] 2740 	or	a, a
    0000108D 20 3D            [12] 2741 	jr	NZ, 00940$
                                   2742 ;E:\Dropbox\FAUSTO\SVILUPPI\MSX\CODE\C\MSXgl\projects\exsoccer/exsoccer_s22_b2.c:576: g_Players[playerId].TargetX = FIELD_POS_X_CENTER;
    0000108F E1               [10] 2743 	pop	hl
    00001090 E5               [11] 2744 	push	hl
    00001091 11 10 00         [10] 2745 	ld	de, #0x0010
    00001094 19               [11] 2746 	add	hl, de
    00001095 36 78            [10] 2747 	ld	(hl), #0x78
    00001097 23               [ 6] 2748 	inc	hl
    00001098 36 00            [10] 2749 	ld	(hl), #0x00
                                   2750 ;E:\Dropbox\FAUSTO\SVILUPPI\MSX\CODE\C\MSXgl\projects\exsoccer/exsoccer_s22_b2.c:462: g_Players[playerId].TargetY = finalTargetY;
    0000109A DD 7E DA         [19] 2751 	ld	a, -38 (ix)
    0000109D C6 0E            [ 7] 2752 	add	a, #0x0e
    0000109F DD 77 FE         [19] 2753 	ld	-2 (ix), a
    000010A2 DD 7E DB         [19] 2754 	ld	a, -37 (ix)
    000010A5 CE 00            [ 7] 2755 	adc	a, #0x00
    000010A7 DD 77 FF         [19] 2756 	ld	-1 (ix), a
                                   2757 ;E:\Dropbox\FAUSTO\SVILUPPI\MSX\CODE\C\MSXgl\projects\exsoccer/exsoccer_s22_b2.c:577: if (playerTeamId == TEAM_1) g_Players[playerId].TargetY = GK_BOX_Y_BOTTOM_MIN + 20;
    000010AA DD 7E DC         [19] 2758 	ld	a, -36 (ix)
    000010AD 3D               [ 4] 2759 	dec	a
    000010AE 20 0E            [12] 2760 	jr	NZ, 00446$
    000010B0 DD 6E FE         [19] 2761 	ld	l, -2 (ix)
    000010B3 DD 66 FF         [19] 2762 	ld	h, -1 (ix)
    000010B6 36 A9            [10] 2763 	ld	(hl), #0xa9
    000010B8 23               [ 6] 2764 	inc	hl
    000010B9 36 01            [10] 2765 	ld	(hl), #0x01
    000010BB C3r0Cr1F         [10] 2766 	jp	00718$
    000010BE                       2767 00446$:
                                   2768 ;E:\Dropbox\FAUSTO\SVILUPPI\MSX\CODE\C\MSXgl\projects\exsoccer/exsoccer_s22_b2.c:578: else g_Players[playerId].TargetY = GK_BOX_Y_TOP_MAX - 20;
    000010BE DD 6E FE         [19] 2769 	ld	l, -2 (ix)
    000010C1 DD 66 FF         [19] 2770 	ld	h, -1 (ix)
    000010C4 36 37            [10] 2771 	ld	(hl), #0x37
    000010C6 23               [ 6] 2772 	inc	hl
    000010C7 36 00            [10] 2773 	ld	(hl), #0x00
                                   2774 ;E:\Dropbox\FAUSTO\SVILUPPI\MSX\CODE\C\MSXgl\projects\exsoccer/exsoccer_s22_b2.c:579: return; // GK Done
    000010C9 C3r0Cr1F         [10] 2775 	jp	00718$
                                   2776 ;E:\Dropbox\FAUSTO\SVILUPPI\MSX\CODE\C\MSXgl\projects\exsoccer/exsoccer_s22_b2.c:583: for(u8 i=0; i<14; i++) {
    000010CC                       2777 00940$:
    000010CC DD 36 FF 00      [19] 2778 	ld	-1 (ix), #0x00
    000010D0                       2779 00709$:
    000010D0 DD 7E FF         [19] 2780 	ld	a, -1 (ix)
    000010D3 D6 0E            [ 7] 2781 	sub	a, #0x0e
    000010D5 D2rF4r12         [10] 2782 	jp	NC, 00482$
                                   2783 ;E:\Dropbox\FAUSTO\SVILUPPI\MSX\CODE\C\MSXgl\projects\exsoccer/exsoccer_s22_b2.c:584: if (i == playerId) continue;
    000010D8 DD 7E FD         [19] 2784 	ld	a, -3 (ix)
    000010DB DD 96 FF         [19] 2785 	sub	a, -1 (ix)
    000010DE CArEEr12         [10] 2786 	jp	Z,00481$
                                   2787 ;E:\Dropbox\FAUSTO\SVILUPPI\MSX\CODE\C\MSXgl\projects\exsoccer/exsoccer_s22_b2.c:585: if (g_Players[i].Status == PLAYER_STATUS_NONE) continue;
    000010E1 DD 4E FF         [19] 2788 	ld	c, -1 (ix)
    000010E4 06 00            [ 7] 2789 	ld	b, #0x00
    000010E6 69               [ 4] 2790 	ld	l, c
    000010E7 60               [ 4] 2791 	ld	h, b
    000010E8 29               [11] 2792 	add	hl, hl
    000010E9 29               [11] 2793 	add	hl, hl
    000010EA 09               [11] 2794 	add	hl, bc
    000010EB 29               [11] 2795 	add	hl, hl
    000010EC 29               [11] 2796 	add	hl, hl
    000010ED 09               [11] 2797 	add	hl, bc
    000010EE DD 75 F9         [19] 2798 	ld	-7 (ix), l
    000010F1 DD 74 FA         [19] 2799 	ld	-6 (ix), h
    000010F4 DD 7E F9         [19] 2800 	ld	a, -7 (ix)
    000010F7 C6r00            [ 7] 2801 	add	a, #<(_g_Players)
    000010F9 DD 77 FB         [19] 2802 	ld	-5 (ix), a
    000010FC DD 7E FA         [19] 2803 	ld	a, -6 (ix)
    000010FF CEs00            [ 7] 2804 	adc	a, #>(_g_Players)
    00001101 DD 77 FC         [19] 2805 	ld	-4 (ix), a
    00001104 DD 7E FB         [19] 2806 	ld	a, -5 (ix)
    00001107 DD 77 F9         [19] 2807 	ld	-7 (ix), a
    0000110A DD 7E FC         [19] 2808 	ld	a, -4 (ix)
    0000110D DD 77 FA         [19] 2809 	ld	-6 (ix), a
    00001110 DD 6E F9         [19] 2810 	ld	l, -7 (ix)
    00001113 DD 66 FA         [19] 2811 	ld	h, -6 (ix)
    00001116 11 12 00         [10] 2812 	ld	de, #0x0012
    00001119 19               [11] 2813 	add	hl, de
    0000111A 7E               [ 7] 2814 	ld	a, (hl)
    0000111B DD 77 F9         [19] 2815 	ld	-7 (ix), a
    0000111E 23               [ 6] 2816 	inc	hl
    0000111F 7E               [ 7] 2817 	ld	a, (hl)
    00001120 DD 77 FA         [19] 2818 	ld	-6 (ix), a
    00001123 DD B6 F9         [19] 2819 	or	a, -7 (ix)
    00001126 CArEEr12         [10] 2820 	jp	Z, 00481$
                                   2821 ;E:\Dropbox\FAUSTO\SVILUPPI\MSX\CODE\C\MSXgl\projects\exsoccer/exsoccer_s22_b2.c:586: if (g_Players[i].TeamId != playerTeamId) continue;
    00001129 DD 4E FB         [19] 2822 	ld	c, -5 (ix)
    0000112C DD 46 FC         [19] 2823 	ld	b, -4 (ix)
    0000112F 21 09 00         [10] 2824 	ld	hl, #9
    00001132 09               [11] 2825 	add	hl, bc
    00001133 DD 7E DC         [19] 2826 	ld	a,-36 (ix)
    00001136 96               [ 7] 2827 	sub	a,(hl)
    00001137 C2rEEr12         [10] 2828 	jp	NZ,00481$
                                   2829 ;E:\Dropbox\FAUSTO\SVILUPPI\MSX\CODE\C\MSXgl\projects\exsoccer/exsoccer_s22_b2.c:587: if (g_Players[i].Role == PLAYER_ROLE_GOALKEEPER) continue;
    0000113A DD 4E FB         [19] 2830 	ld	c, -5 (ix)
    0000113D DD 46 FC         [19] 2831 	ld	b, -4 (ix)
    00001140 21 0D 00         [10] 2832 	ld	hl, #13
    00001143 09               [11] 2833 	add	hl, bc
    00001144 7E               [ 7] 2834 	ld	a, (hl)
    00001145 B7               [ 4] 2835 	or	a, a
    00001146 CArEEr12         [10] 2836 	jp	Z, 00481$
                                   2837 ;E:\Dropbox\FAUSTO\SVILUPPI\MSX\CODE\C\MSXgl\projects\exsoccer/exsoccer_s22_b2.c:589: i16 dx = (i16)g_Players[playerId].TargetX - (i16)g_Players[i].X;
    00001149 DD 7E DA         [19] 2838 	ld	a, -38 (ix)
    0000114C C6 10            [ 7] 2839 	add	a, #0x10
    0000114E DD 77 EF         [19] 2840 	ld	-17 (ix), a
    00001151 DD 7E DB         [19] 2841 	ld	a, -37 (ix)
    00001154 CE 00            [ 7] 2842 	adc	a, #0x00
    00001156 DD 77 F0         [19] 2843 	ld	-16 (ix), a
    00001159 DD 6E EF         [19] 2844 	ld	l, -17 (ix)
    0000115C DD 66 F0         [19] 2845 	ld	h, -16 (ix)
    0000115F 7E               [ 7] 2846 	ld	a, (hl)
    00001160 DD 77 F1         [19] 2847 	ld	-15 (ix), a
    00001163 23               [ 6] 2848 	inc	hl
    00001164 7E               [ 7] 2849 	ld	a, (hl)
    00001165 DD 77 F2         [19] 2850 	ld	-14 (ix), a
    00001168 DD 7E F1         [19] 2851 	ld	a, -15 (ix)
    0000116B DD 77 F5         [19] 2852 	ld	-11 (ix), a
    0000116E DD 7E F2         [19] 2853 	ld	a, -14 (ix)
    00001171 DD 77 F6         [19] 2854 	ld	-10 (ix), a
    00001174 DD 7E FB         [19] 2855 	ld	a, -5 (ix)
    00001177 DD 77 F9         [19] 2856 	ld	-7 (ix), a
    0000117A DD 7E FC         [19] 2857 	ld	a, -4 (ix)
    0000117D DD 77 FA         [19] 2858 	ld	-6 (ix), a
    00001180 DD 6E F9         [19] 2859 	ld	l, -7 (ix)
    00001183 DD 66 FA         [19] 2860 	ld	h, -6 (ix)
    00001186 23               [ 6] 2861 	inc	hl
    00001187 23               [ 6] 2862 	inc	hl
    00001188 7E               [ 7] 2863 	ld	a, (hl)
    00001189 DD 77 F9         [19] 2864 	ld	-7 (ix), a
    0000118C 23               [ 6] 2865 	inc	hl
    0000118D 7E               [ 7] 2866 	ld	a, (hl)
    0000118E DD 77 FA         [19] 2867 	ld	-6 (ix), a
    00001191 DD 7E F9         [19] 2868 	ld	a, -7 (ix)
    00001194 DD 77 F7         [19] 2869 	ld	-9 (ix), a
    00001197 DD 7E FA         [19] 2870 	ld	a, -6 (ix)
    0000119A DD 77 F8         [19] 2871 	ld	-8 (ix), a
    0000119D DD 7E F5         [19] 2872 	ld	a, -11 (ix)
    000011A0 DD 96 F7         [19] 2873 	sub	a, -9 (ix)
    000011A3 DD 77 F9         [19] 2874 	ld	-7 (ix), a
    000011A6 DD 7E F6         [19] 2875 	ld	a, -10 (ix)
    000011A9 DD 9E F8         [19] 2876 	sbc	a, -8 (ix)
    000011AC DD 77 FA         [19] 2877 	ld	-6 (ix), a
    000011AF DD 7E F9         [19] 2878 	ld	a, -7 (ix)
    000011B2 DD 77 F3         [19] 2879 	ld	-13 (ix), a
    000011B5 DD 7E FA         [19] 2880 	ld	a, -6 (ix)
    000011B8 DD 77 F4         [19] 2881 	ld	-12 (ix), a
                                   2882 ;E:\Dropbox\FAUSTO\SVILUPPI\MSX\CODE\C\MSXgl\projects\exsoccer/exsoccer_s22_b2.c:590: i16 dy = (i16)g_Players[playerId].TargetY - (i16)g_Players[i].Y;
    000011BB DD 7E DA         [19] 2883 	ld	a, -38 (ix)
    000011BE C6 0E            [ 7] 2884 	add	a, #0x0e
    000011C0 DD 77 F5         [19] 2885 	ld	-11 (ix), a
    000011C3 DD 7E DB         [19] 2886 	ld	a, -37 (ix)
    000011C6 CE 00            [ 7] 2887 	adc	a, #0x00
    000011C8 DD 77 F6         [19] 2888 	ld	-10 (ix), a
    000011CB DD 6E F5         [19] 2889 	ld	l, -11 (ix)
    000011CE DD 66 F6         [19] 2890 	ld	h, -10 (ix)
    000011D1 7E               [ 7] 2891 	ld	a, (hl)
    000011D2 DD 77 F9         [19] 2892 	ld	-7 (ix), a
    000011D5 23               [ 6] 2893 	inc	hl
    000011D6 7E               [ 7] 2894 	ld	a, (hl)
    000011D7 DD 77 FA         [19] 2895 	ld	-6 (ix), a
    000011DA DD 7E F9         [19] 2896 	ld	a, -7 (ix)
    000011DD DD 77 F7         [19] 2897 	ld	-9 (ix), a
    000011E0 DD 7E FA         [19] 2898 	ld	a, -6 (ix)
    000011E3 DD 77 F8         [19] 2899 	ld	-8 (ix), a
    000011E6 DD 6E FB         [19] 2900 	ld	l, -5 (ix)
    000011E9 DD 66 FC         [19] 2901 	ld	h, -4 (ix)
    000011EC 7E               [ 7] 2902 	ld	a, (hl)
    000011ED DD 77 FB         [19] 2903 	ld	-5 (ix), a
    000011F0 23               [ 6] 2904 	inc	hl
    000011F1 7E               [ 7] 2905 	ld	a, (hl)
    000011F2 DD 77 FC         [19] 2906 	ld	-4 (ix), a
    000011F5 DD 7E FB         [19] 2907 	ld	a, -5 (ix)
    000011F8 DD 77 F9         [19] 2908 	ld	-7 (ix), a
    000011FB DD 7E FC         [19] 2909 	ld	a, -4 (ix)
    000011FE DD 77 FA         [19] 2910 	ld	-6 (ix), a
    00001201 DD 7E F7         [19] 2911 	ld	a, -9 (ix)
    00001204 DD 96 F9         [19] 2912 	sub	a, -7 (ix)
    00001207 DD 77 FB         [19] 2913 	ld	-5 (ix), a
    0000120A DD 7E F8         [19] 2914 	ld	a, -8 (ix)
    0000120D DD 9E FA         [19] 2915 	sbc	a, -6 (ix)
    00001210 DD 77 FC         [19] 2916 	ld	-4 (ix), a
    00001213 DD 5E FB         [19] 2917 	ld	e, -5 (ix)
    00001216 DD 56 FC         [19] 2918 	ld	d, -4 (ix)
                                   2919 ;E:\Dropbox\FAUSTO\SVILUPPI\MSX\CODE\C\MSXgl\projects\exsoccer/exsoccer_s22_b2.c:591: if (dx > -75 && dx < 75 && dy > -75 && dy < 75) {
    00001219 3E B5            [ 7] 2920 	ld	a, #0xb5
    0000121B DD BE F3         [19] 2921 	cp	a, -13 (ix)
    0000121E 3E FF            [ 7] 2922 	ld	a, #0xff
    00001220 DD 9E F4         [19] 2923 	sbc	a, -12 (ix)
    00001223 E2r28r12         [10] 2924 	jp	PO, 02356$
    00001226 EE 80            [ 7] 2925 	xor	a, #0x80
    00001228                       2926 02356$:
    00001228 F2rEEr12         [10] 2927 	jp	P, 00481$
    0000122B DD 7E F3         [19] 2928 	ld	a, -13 (ix)
    0000122E DD 46 F4         [19] 2929 	ld	b, -12 (ix)
    00001231 D6 4B            [ 7] 2930 	sub	a, #0x4b
    00001233 78               [ 4] 2931 	ld	a, b
    00001234 17               [ 4] 2932 	rla
    00001235 3F               [ 4] 2933 	ccf
    00001236 1F               [ 4] 2934 	rra
    00001237 DE 80            [ 7] 2935 	sbc	a, #0x80
    00001239 D2rEEr12         [10] 2936 	jp	NC, 00481$
    0000123C 3E B5            [ 7] 2937 	ld	a, #0xb5
    0000123E BB               [ 4] 2938 	cp	a, e
    0000123F 3E FF            [ 7] 2939 	ld	a, #0xff
    00001241 9A               [ 4] 2940 	sbc	a, d
    00001242 E2r47r12         [10] 2941 	jp	PO, 02357$
    00001245 EE 80            [ 7] 2942 	xor	a, #0x80
    00001247                       2943 02357$:
    00001247 F2rEEr12         [10] 2944 	jp	P, 00481$
    0000124A DD 73 F9         [19] 2945 	ld	-7 (ix), e
    0000124D DD 72 FA         [19] 2946 	ld	-6 (ix), d
    00001250 DD 7E F9         [19] 2947 	ld	a, -7 (ix)
    00001253 D6 4B            [ 7] 2948 	sub	a, #0x4b
    00001255 DD 7E FA         [19] 2949 	ld	a, -6 (ix)
    00001258 17               [ 4] 2950 	rla
    00001259 3F               [ 4] 2951 	ccf
    0000125A 1F               [ 4] 2952 	rra
    0000125B DE 80            [ 7] 2953 	sbc	a, #0x80
    0000125D D2rEEr12         [10] 2954 	jp	NC, 00481$
                                   2955 ;E:\Dropbox\FAUSTO\SVILUPPI\MSX\CODE\C\MSXgl\projects\exsoccer/exsoccer_s22_b2.c:592: if (dx >= 0) g_Players[playerId].TargetX += 12; else g_Players[playerId].TargetX -= 12;
    00001260 DD 7E F1         [19] 2956 	ld	a, -15 (ix)
    00001263 DD 77 FB         [19] 2957 	ld	-5 (ix), a
    00001266 DD 7E F2         [19] 2958 	ld	a, -14 (ix)
    00001269 DD 77 FC         [19] 2959 	ld	-4 (ix), a
    0000126C CB 78            [ 8] 2960 	bit	7, b
    0000126E 20 2E            [12] 2961 	jr	NZ, 00471$
    00001270 DD 7E FB         [19] 2962 	ld	a, -5 (ix)
    00001273 C6 0C            [ 7] 2963 	add	a, #0x0c
    00001275 DD 77 F7         [19] 2964 	ld	-9 (ix), a
    00001278 DD 7E FC         [19] 2965 	ld	a, -4 (ix)
    0000127B CE 00            [ 7] 2966 	adc	a, #0x00
    0000127D DD 77 F8         [19] 2967 	ld	-8 (ix), a
    00001280 DD 7E F7         [19] 2968 	ld	a, -9 (ix)
    00001283 DD 77 FB         [19] 2969 	ld	-5 (ix), a
    00001286 DD 7E F8         [19] 2970 	ld	a, -8 (ix)
    00001289 DD 77 FC         [19] 2971 	ld	-4 (ix), a
    0000128C DD 6E EF         [19] 2972 	ld	l, -17 (ix)
    0000128F DD 66 F0         [19] 2973 	ld	h, -16 (ix)
    00001292 DD 7E FB         [19] 2974 	ld	a, -5 (ix)
    00001295 77               [ 7] 2975 	ld	(hl), a
    00001296 23               [ 6] 2976 	inc	hl
    00001297 DD 7E FC         [19] 2977 	ld	a, -4 (ix)
    0000129A 77               [ 7] 2978 	ld	(hl), a
    0000129B C3rBDr12         [10] 2979 	jp	00472$
    0000129E                       2980 00471$:
    0000129E DD 7E FB         [19] 2981 	ld	a, -5 (ix)
    000012A1 C6 F4            [ 7] 2982 	add	a, #0xf4
    000012A3 DD 77 F7         [19] 2983 	ld	-9 (ix), a
    000012A6 DD 7E FC         [19] 2984 	ld	a, -4 (ix)
    000012A9 CE FF            [ 7] 2985 	adc	a, #0xff
    000012AB DD 77 F8         [19] 2986 	ld	-8 (ix), a
    000012AE DD 4E F7         [19] 2987 	ld	c, -9 (ix)
    000012B1 DD 46 F8         [19] 2988 	ld	b, -8 (ix)
    000012B4 DD 6E EF         [19] 2989 	ld	l, -17 (ix)
    000012B7 DD 66 F0         [19] 2990 	ld	h, -16 (ix)
    000012BA 71               [ 7] 2991 	ld	(hl), c
    000012BB 23               [ 6] 2992 	inc	hl
    000012BC 70               [ 7] 2993 	ld	(hl), b
    000012BD                       2994 00472$:
                                   2995 ;E:\Dropbox\FAUSTO\SVILUPPI\MSX\CODE\C\MSXgl\projects\exsoccer/exsoccer_s22_b2.c:590: i16 dy = (i16)g_Players[playerId].TargetY - (i16)g_Players[i].Y;
    000012BD DD 6E F5         [19] 2996 	ld	l, -11 (ix)
    000012C0 DD 66 F6         [19] 2997 	ld	h, -10 (ix)
    000012C3 4E               [ 7] 2998 	ld	c, (hl)
    000012C4 23               [ 6] 2999 	inc	hl
    000012C5 46               [ 7] 3000 	ld	b, (hl)
                                   3001 ;E:\Dropbox\FAUSTO\SVILUPPI\MSX\CODE\C\MSXgl\projects\exsoccer/exsoccer_s22_b2.c:593: if (dy >= 0) g_Players[playerId].TargetY += 12; else g_Players[playerId].TargetY -= 12;
    000012C6 DD CB FA 7E      [20] 3002 	bit	7, -6 (ix)
    000012CA 20 11            [12] 3003 	jr	NZ, 00474$
    000012CC 21 0C 00         [10] 3004 	ld	hl, #0x000c
    000012CF 09               [11] 3005 	add	hl, bc
    000012D0 EB               [ 4] 3006 	ex	de, hl
    000012D1 DD 6E F5         [19] 3007 	ld	l, -11 (ix)
    000012D4 DD 66 F6         [19] 3008 	ld	h, -10 (ix)
    000012D7 73               [ 7] 3009 	ld	(hl), e
    000012D8 23               [ 6] 3010 	inc	hl
    000012D9 72               [ 7] 3011 	ld	(hl), d
    000012DA C3rEEr12         [10] 3012 	jp	00481$
    000012DD                       3013 00474$:
    000012DD 79               [ 4] 3014 	ld	a, c
    000012DE C6 F4            [ 7] 3015 	add	a, #0xf4
    000012E0 4F               [ 4] 3016 	ld	c, a
    000012E1 78               [ 4] 3017 	ld	a, b
    000012E2 CE FF            [ 7] 3018 	adc	a, #0xff
    000012E4 47               [ 4] 3019 	ld	b, a
    000012E5 DD 6E F5         [19] 3020 	ld	l, -11 (ix)
    000012E8 DD 66 F6         [19] 3021 	ld	h, -10 (ix)
    000012EB 71               [ 7] 3022 	ld	(hl), c
    000012EC 23               [ 6] 3023 	inc	hl
    000012ED 70               [ 7] 3024 	ld	(hl), b
    000012EE                       3025 00481$:
                                   3026 ;E:\Dropbox\FAUSTO\SVILUPPI\MSX\CODE\C\MSXgl\projects\exsoccer/exsoccer_s22_b2.c:583: for(u8 i=0; i<14; i++) {
    000012EE DD 34 FF         [23] 3027 	inc	-1 (ix)
    000012F1 C3rD0r10         [10] 3028 	jp	00709$
    000012F4                       3029 00482$:
                                   3030 ;E:\Dropbox\FAUSTO\SVILUPPI\MSX\CODE\C\MSXgl\projects\exsoccer/exsoccer_s22_b2.c:598: u16 offsideY = GetOffsideLineY(playerTeamId);
    000012F4 DD 7E DC         [19] 3031 	ld	a, -36 (ix)
    000012F7 CDr00r00         [17] 3032 	call	_GetOffsideLineY
    000012FA DD 73 FB         [19] 3033 	ld	-5 (ix), e
    000012FD DD 72 FC         [19] 3034 	ld	-4 (ix), d
                                   3035 ;E:\Dropbox\FAUSTO\SVILUPPI\MSX\CODE\C\MSXgl\projects\exsoccer/exsoccer_s22_b2.c:462: g_Players[playerId].TargetY = finalTargetY;
    00001300 DD 7E DA         [19] 3036 	ld	a, -38 (ix)
    00001303 C6 0E            [ 7] 3037 	add	a, #0x0e
    00001305 DD 77 FE         [19] 3038 	ld	-2 (ix), a
    00001308 DD 7E DB         [19] 3039 	ld	a, -37 (ix)
    0000130B CE 00            [ 7] 3040 	adc	a, #0x00
    0000130D DD 77 FF         [19] 3041 	ld	-1 (ix), a
                                   3042 ;E:\Dropbox\FAUSTO\SVILUPPI\MSX\CODE\C\MSXgl\projects\exsoccer/exsoccer_s22_b2.c:474: g_Players[playerId].TargetY = g_Ball.Y;
    00001310 21r00r00         [10] 3043 	ld	hl, #_g_Ball
    00001313 7E               [ 7] 3044 	ld	a, (hl)
    00001314 DD 77 F7         [19] 3045 	ld	-9 (ix), a
    00001317 23               [ 6] 3046 	inc	hl
    00001318 7E               [ 7] 3047 	ld	a, (hl)
    00001319 DD 77 F8         [19] 3048 	ld	-8 (ix), a
                                   3049 ;E:\Dropbox\FAUSTO\SVILUPPI\MSX\CODE\C\MSXgl\projects\exsoccer/exsoccer_s22_b2.c:548: if (g_Players[playerId].TargetY < 318) g_Players[playerId].TargetY = 318;
    0000131C DD 6E FE         [19] 3050 	ld	l, -2 (ix)
    0000131F DD 66 FF         [19] 3051 	ld	h, -1 (ix)
    00001322 4E               [ 7] 3052 	ld	c, (hl)
    00001323 23               [ 6] 3053 	inc	hl
    00001324 7E               [ 7] 3054 	ld	a, (hl)
    00001325 DD 71 F9         [19] 3055 	ld	-7 (ix), c
    00001328 DD 77 FA         [19] 3056 	ld	-6 (ix), a
                                   3057 ;E:\Dropbox\FAUSTO\SVILUPPI\MSX\CODE\C\MSXgl\projects\exsoccer/exsoccer_s22_b2.c:601: if (playerTeamId == TEAM_1) { // Attacking UP (TargetY decreases)
    0000132B DD 7E DC         [19] 3058 	ld	a, -36 (ix)
    0000132E 3D               [ 4] 3059 	dec	a
    0000132F 20 39            [12] 3060 	jr	NZ, 00488$
                                   3061 ;E:\Dropbox\FAUSTO\SVILUPPI\MSX\CODE\C\MSXgl\projects\exsoccer/exsoccer_s22_b2.c:605: effectiveLimit = (g_Ball.Y < offsideY) ? g_Ball.Y : offsideY;
    00001331 DD 7E F7         [19] 3062 	ld	a, -9 (ix)
    00001334 DD 96 FB         [19] 3063 	sub	a, -5 (ix)
    00001337 DD 7E F8         [19] 3064 	ld	a, -8 (ix)
    0000133A DD 9E FC         [19] 3065 	sbc	a, -4 (ix)
    0000133D 30 09            [12] 3066 	jr	NC, 00739$
    0000133F DD 5E F7         [19] 3067 	ld	e, -9 (ix)
    00001342 DD 56 F8         [19] 3068 	ld	d, -8 (ix)
    00001345 C3r4Er13         [10] 3069 	jp	00740$
    00001348                       3070 00739$:
    00001348 DD 5E FB         [19] 3071 	ld	e, -5 (ix)
    0000134B DD 56 FC         [19] 3072 	ld	d, -4 (ix)
    0000134E                       3073 00740$:
                                   3074 ;E:\Dropbox\FAUSTO\SVILUPPI\MSX\CODE\C\MSXgl\projects\exsoccer/exsoccer_s22_b2.c:607: if (g_Players[playerId].TargetY < (effectiveLimit + 30)) { 
    0000134E 21 1E 00         [10] 3075 	ld	hl, #0x001e
    00001351 19               [11] 3076 	add	hl, de
    00001352 EB               [ 4] 3077 	ex	de, hl
    00001353 DD 7E F9         [19] 3078 	ld	a, -7 (ix)
    00001356 93               [ 4] 3079 	sub	a, e
    00001357 DD 7E FA         [19] 3080 	ld	a, -6 (ix)
    0000135A 9A               [ 4] 3081 	sbc	a, d
    0000135B D2r0Cr1F         [10] 3082 	jp	NC,00718$
                                   3083 ;E:\Dropbox\FAUSTO\SVILUPPI\MSX\CODE\C\MSXgl\projects\exsoccer/exsoccer_s22_b2.c:608: g_Players[playerId].TargetY = effectiveLimit + 30;
    0000135E DD 6E FE         [19] 3084 	ld	l, -2 (ix)
    00001361 DD 66 FF         [19] 3085 	ld	h, -1 (ix)
    00001364 73               [ 7] 3086 	ld	(hl), e
    00001365 23               [ 6] 3087 	inc	hl
    00001366 72               [ 7] 3088 	ld	(hl), d
    00001367 C3r0Cr1F         [10] 3089 	jp	00718$
    0000136A                       3090 00488$:
                                   3091 ;E:\Dropbox\FAUSTO\SVILUPPI\MSX\CODE\C\MSXgl\projects\exsoccer/exsoccer_s22_b2.c:612: effectiveLimit = (g_Ball.Y > offsideY) ? g_Ball.Y : offsideY;
    0000136A DD 7E FB         [19] 3092 	ld	a, -5 (ix)
    0000136D DD 96 F7         [19] 3093 	sub	a, -9 (ix)
    00001370 DD 7E FC         [19] 3094 	ld	a, -4 (ix)
    00001373 DD 9E F8         [19] 3095 	sbc	a, -8 (ix)
    00001376 30 09            [12] 3096 	jr	NC, 00741$
    00001378 DD 5E F7         [19] 3097 	ld	e, -9 (ix)
    0000137B DD 56 F8         [19] 3098 	ld	d, -8 (ix)
    0000137E C3r87r13         [10] 3099 	jp	00742$
    00001381                       3100 00741$:
    00001381 DD 5E FB         [19] 3101 	ld	e, -5 (ix)
    00001384 DD 56 FC         [19] 3102 	ld	d, -4 (ix)
    00001387                       3103 00742$:
                                   3104 ;E:\Dropbox\FAUSTO\SVILUPPI\MSX\CODE\C\MSXgl\projects\exsoccer/exsoccer_s22_b2.c:614: if (g_Players[playerId].TargetY > (effectiveLimit - 30)) {
    00001387 7B               [ 4] 3105 	ld	a, e
    00001388 C6 E2            [ 7] 3106 	add	a, #0xe2
    0000138A 4F               [ 4] 3107 	ld	c, a
    0000138B 7A               [ 4] 3108 	ld	a, d
    0000138C CE FF            [ 7] 3109 	adc	a, #0xff
    0000138E 47               [ 4] 3110 	ld	b, a
    0000138F 79               [ 4] 3111 	ld	a, c
    00001390 DD 96 F9         [19] 3112 	sub	a, -7 (ix)
    00001393 78               [ 4] 3113 	ld	a, b
    00001394 DD 9E FA         [19] 3114 	sbc	a, -6 (ix)
    00001397 D2r0Cr1F         [10] 3115 	jp	NC,00718$
                                   3116 ;E:\Dropbox\FAUSTO\SVILUPPI\MSX\CODE\C\MSXgl\projects\exsoccer/exsoccer_s22_b2.c:615: g_Players[playerId].TargetY = effectiveLimit - 30;
    0000139A DD 6E FE         [19] 3117 	ld	l, -2 (ix)
    0000139D DD 66 FF         [19] 3118 	ld	h, -1 (ix)
    000013A0 71               [ 7] 3119 	ld	(hl), c
    000013A1 23               [ 6] 3120 	inc	hl
    000013A2 70               [ 7] 3121 	ld	(hl), b
                                   3122 ;E:\Dropbox\FAUSTO\SVILUPPI\MSX\CODE\C\MSXgl\projects\exsoccer/exsoccer_s22_b2.c:620: return; 
    000013A3 C3r0Cr1F         [10] 3123 	jp	00718$
    000013A6                       3124 00491$:
                                   3125 ;E:\Dropbox\FAUSTO\SVILUPPI\MSX\CODE\C\MSXgl\projects\exsoccer/exsoccer_s22_b2.c:629: if (g_Players[playerId].Role == PLAYER_ROLE_GOALKEEPER) {
    000013A6 DD 7E DA         [19] 3126 	ld	a, -38 (ix)
    000013A9 C6 0D            [ 7] 3127 	add	a, #0x0d
    000013AB DD 77 F9         [19] 3128 	ld	-7 (ix), a
    000013AE DD 7E DB         [19] 3129 	ld	a, -37 (ix)
    000013B1 CE 00            [ 7] 3130 	adc	a, #0x00
    000013B3 DD 77 FA         [19] 3131 	ld	-6 (ix), a
    000013B6 DD 6E F9         [19] 3132 	ld	l, -7 (ix)
    000013B9 DD 66 FA         [19] 3133 	ld	h, -6 (ix)
    000013BC 7E               [ 7] 3134 	ld	a, (hl)
    000013BD B7               [ 4] 3135 	or	a, a
    000013BE C2r23r15         [10] 3136 	jp	NZ, 00516$
                                   3137 ;E:\Dropbox\FAUSTO\SVILUPPI\MSX\CODE\C\MSXgl\projects\exsoccer/exsoccer_s22_b2.c:631: if (g_Ball.ShotActive) return;
    000013C1 3Ar1Br00         [13] 3138 	ld	a, (#_g_Ball + 27)
    000013C4 B7               [ 4] 3139 	or	a, a
    000013C5 C2r0Cr1F         [10] 3140 	jp	NZ,00718$
                                   3141 ;E:\Dropbox\FAUSTO\SVILUPPI\MSX\CODE\C\MSXgl\projects\exsoccer/exsoccer_s22_b2.c:638: if (playerTeamId == TEAM_1) { 
    000013C8 DD 7E DC         [19] 3142 	ld	a, -36 (ix)
    000013CB 3D               [ 4] 3143 	dec	a
    000013CC 20 16            [12] 3144 	jr	NZ, 00495$
                                   3145 ;E:\Dropbox\FAUSTO\SVILUPPI\MSX\CODE\C\MSXgl\projects\exsoccer/exsoccer_s22_b2.c:639: gkTargetY = FIELD_POS_Y_TEAM1_GOALKEEPER;
    000013CE 01 A8 01         [10] 3146 	ld	bc, #0x01a8
                                   3147 ;E:\Dropbox\FAUSTO\SVILUPPI\MSX\CODE\C\MSXgl\projects\exsoccer/exsoccer_s22_b2.c:640: boxYMin = GK_BOX_Y_BOTTOM_MIN; boxYMax = GK_BOX_Y_BOTTOM_MAX;
    000013D1 DD 36 FB 95      [19] 3148 	ld	-5 (ix), #0x95
    000013D5 DD 36 FC 01      [19] 3149 	ld	-4 (ix), #0x01
    000013D9 DD 36 FE B3      [19] 3150 	ld	-2 (ix), #0xb3
    000013DD DD 36 FF 01      [19] 3151 	ld	-1 (ix), #0x01
    000013E1 C3rF7r13         [10] 3152 	jp	00496$
    000013E4                       3153 00495$:
                                   3154 ;E:\Dropbox\FAUSTO\SVILUPPI\MSX\CODE\C\MSXgl\projects\exsoccer/exsoccer_s22_b2.c:642: gkTargetY = FIELD_POS_Y_TEAM2_GOALKEEPER;
    000013E4 01 32 00         [10] 3155 	ld	bc, #0x0032
                                   3156 ;E:\Dropbox\FAUSTO\SVILUPPI\MSX\CODE\C\MSXgl\projects\exsoccer/exsoccer_s22_b2.c:643: boxYMin = GK_BOX_Y_TOP_MIN; boxYMax = GK_BOX_Y_TOP_MAX;
    000013E7 DD 36 FB 23      [19] 3157 	ld	-5 (ix), #0x23
    000013EB DD 36 FC 00      [19] 3158 	ld	-4 (ix), #0
    000013EF DD 36 FE 4B      [19] 3159 	ld	-2 (ix), #0x4b
    000013F3 DD 36 FF 00      [19] 3160 	ld	-1 (ix), #0
    000013F7                       3161 00496$:
                                   3162 ;E:\Dropbox\FAUSTO\SVILUPPI\MSX\CODE\C\MSXgl\projects\exsoccer/exsoccer_s22_b2.c:646: u8 closestId = GetClosestPlayerToBall(playerTeamId, NO_VALUE);
    000013F7 C5               [11] 3163 	push	bc
    000013F8 2E FF            [ 7] 3164 	ld	l, #0xff
                                   3165 ;	spillPairReg hl
                                   3166 ;	spillPairReg hl
    000013FA DD 7E DC         [19] 3167 	ld	a, -36 (ix)
    000013FD CDr00r00         [17] 3168 	call	_GetClosestPlayerToBall
    00001400 C1               [10] 3169 	pop	bc
    00001401 DD 77 F5         [19] 3170 	ld	-11 (ix), a
                                   3171 ;E:\Dropbox\FAUSTO\SVILUPPI\MSX\CODE\C\MSXgl\projects\exsoccer/exsoccer_s22_b2.c:647: bool ballInBox = (g_Ball.X > (boxXMin-5) && g_Ball.X < (boxXMax+5) && 
    00001404 21r02r00         [10] 3172 	ld	hl, #_g_Ball + 2
    00001407 7E               [ 7] 3173 	ld	a, (hl)
    00001408 DD 77 F6         [19] 3174 	ld	-10 (ix), a
    0000140B 23               [ 6] 3175 	inc	hl
    0000140C 7E               [ 7] 3176 	ld	a, (hl)
    0000140D DD 77 F7         [19] 3177 	ld	-9 (ix), a
    00001410 DD 7E F6         [19] 3178 	ld	a, -10 (ix)
    00001413 DD 77 F8         [19] 3179 	ld	-8 (ix), a
    00001416 DD 7E F7         [19] 3180 	ld	a, -9 (ix)
    00001419 DD 77 F9         [19] 3181 	ld	-7 (ix), a
    0000141C 3E 4B            [ 7] 3182 	ld	a, #0x4b
    0000141E DD BE F8         [19] 3183 	cp	a, -8 (ix)
    00001421 3E 00            [ 7] 3184 	ld	a, #0x00
    00001423 DD 9E F9         [19] 3185 	sbc	a, -7 (ix)
    00001426 30 32            [12] 3186 	jr	NC, 00743$
    00001428 DD 7E F8         [19] 3187 	ld	a, -8 (ix)
    0000142B D6 A5            [ 7] 3188 	sub	a, #0xa5
    0000142D DD 7E F9         [19] 3189 	ld	a, -7 (ix)
    00001430 DE 00            [ 7] 3190 	sbc	a, #0x00
    00001432 30 26            [12] 3191 	jr	NC, 00743$
    00001434 2Ar00r00         [16] 3192 	ld	hl, (#_g_Ball + 0)
    00001437 DD 7E FB         [19] 3193 	ld	a, -5 (ix)
    0000143A DD 56 FC         [19] 3194 	ld	d, -4 (ix)
    0000143D C6 FB            [ 7] 3195 	add	a, #0xfb
    0000143F 5F               [ 4] 3196 	ld	e, a
    00001440 7A               [ 4] 3197 	ld	a, d
    00001441 CE FF            [ 7] 3198 	adc	a, #0xff
    00001443 57               [ 4] 3199 	ld	d, a
    00001444 7B               [ 4] 3200 	ld	a, e
    00001445 95               [ 4] 3201 	sub	a, l
    00001446 7A               [ 4] 3202 	ld	a, d
    00001447 9C               [ 4] 3203 	sbc	a, h
    00001448 30 10            [12] 3204 	jr	NC, 00743$
    0000144A DD 5E FE         [19] 3205 	ld	e, -2 (ix)
    0000144D DD 56 FF         [19] 3206 	ld	d, -1 (ix)
    00001450 13               [ 6] 3207 	inc	de
    00001451 13               [ 6] 3208 	inc	de
    00001452 13               [ 6] 3209 	inc	de
    00001453 13               [ 6] 3210 	inc	de
    00001454 13               [ 6] 3211 	inc	de
    00001455 AF               [ 4] 3212 	xor	a, a
    00001456 ED 52            [15] 3213 	sbc	hl, de
    00001458 38 07            [12] 3214 	jr	C, 00744$
    0000145A                       3215 00743$:
    0000145A DD 36 FA 00      [19] 3216 	ld	-6 (ix), #0x00
    0000145E C3r65r14         [10] 3217 	jp	00745$
    00001461                       3218 00744$:
    00001461 DD 36 FA 01      [19] 3219 	ld	-6 (ix), #0x01
    00001465                       3220 00745$:
                                   3221 ;E:\Dropbox\FAUSTO\SVILUPPI\MSX\CODE\C\MSXgl\projects\exsoccer/exsoccer_s22_b2.c:650: if (ballInBox && closestId == playerId) {
    00001465 DD 7E FA         [19] 3222 	ld	a, -6 (ix)
    00001468 B7               [ 4] 3223 	or	a, a
    00001469 28 1B            [12] 3224 	jr	Z, 00504$
    0000146B DD 7E FD         [19] 3225 	ld	a, -3 (ix)
    0000146E DD 96 F5         [19] 3226 	sub	a, -11 (ix)
    00001471 20 13            [12] 3227 	jr	NZ, 00504$
                                   3228 ;E:\Dropbox\FAUSTO\SVILUPPI\MSX\CODE\C\MSXgl\projects\exsoccer/exsoccer_s22_b2.c:651: gkTargetX = g_Ball.X;
    00001473 DD 7E F6         [19] 3229 	ld	a, -10 (ix)
    00001476 DD 6E F7         [19] 3230 	ld	l, -9 (ix)
                                   3231 ;	spillPairReg hl
                                   3232 ;	spillPairReg hl
    00001479 DD 77 F9         [19] 3233 	ld	-7 (ix), a
    0000147C DD 75 FA         [19] 3234 	ld	-6 (ix), l
                                   3235 ;E:\Dropbox\FAUSTO\SVILUPPI\MSX\CODE\C\MSXgl\projects\exsoccer/exsoccer_s22_b2.c:652: gkTargetY = g_Ball.Y;
    0000147F ED 4Br00r00      [20] 3236 	ld	bc, (#_g_Ball + 0)
    00001483 C3rC0r14         [10] 3237 	jp	00505$
    00001486                       3238 00504$:
                                   3239 ;E:\Dropbox\FAUSTO\SVILUPPI\MSX\CODE\C\MSXgl\projects\exsoccer/exsoccer_s22_b2.c:654: if (g_Ball.X > gkTargetX + 24) gkTargetX += 16;
    00001486 3E 90            [ 7] 3240 	ld	a, #0x90
    00001488 DD BE F8         [19] 3241 	cp	a, -8 (ix)
    0000148B 3E 00            [ 7] 3242 	ld	a, #0x00
    0000148D DD 9E F9         [19] 3243 	sbc	a, -7 (ix)
    00001490 30 0B            [12] 3244 	jr	NC, 00501$
    00001492 DD 36 F9 88      [19] 3245 	ld	-7 (ix), #0x88
    00001496 DD 36 FA 00      [19] 3246 	ld	-6 (ix), #0
    0000149A C3rC0r14         [10] 3247 	jp	00505$
    0000149D                       3248 00501$:
                                   3249 ;E:\Dropbox\FAUSTO\SVILUPPI\MSX\CODE\C\MSXgl\projects\exsoccer/exsoccer_s22_b2.c:655: else if (g_Ball.X < gkTargetX - 24) gkTargetX -= 16;
    0000149D DD 7E F8         [19] 3250 	ld	a, -8 (ix)
    000014A0 D6 60            [ 7] 3251 	sub	a, #0x60
    000014A2 DD 7E F9         [19] 3252 	ld	a, -7 (ix)
    000014A5 DE 00            [ 7] 3253 	sbc	a, #0x00
    000014A7 30 0B            [12] 3254 	jr	NC, 00498$
    000014A9 DD 36 F9 68      [19] 3255 	ld	-7 (ix), #0x68
    000014AD DD 36 FA 00      [19] 3256 	ld	-6 (ix), #0
    000014B1 C3rC0r14         [10] 3257 	jp	00505$
    000014B4                       3258 00498$:
                                   3259 ;E:\Dropbox\FAUSTO\SVILUPPI\MSX\CODE\C\MSXgl\projects\exsoccer/exsoccer_s22_b2.c:656: else gkTargetX = g_Ball.X; 
    000014B4 DD 7E F6         [19] 3260 	ld	a, -10 (ix)
    000014B7 DD 5E F7         [19] 3261 	ld	e, -9 (ix)
    000014BA DD 77 F9         [19] 3262 	ld	-7 (ix), a
    000014BD DD 73 FA         [19] 3263 	ld	-6 (ix), e
    000014C0                       3264 00505$:
                                   3265 ;E:\Dropbox\FAUSTO\SVILUPPI\MSX\CODE\C\MSXgl\projects\exsoccer/exsoccer_s22_b2.c:659: if (gkTargetX < boxXMin) gkTargetX = boxXMin;
    000014C0 DD 7E F9         [19] 3266 	ld	a, -7 (ix)
    000014C3 D6 50            [ 7] 3267 	sub	a, #0x50
    000014C5 DD 7E FA         [19] 3268 	ld	a, -6 (ix)
    000014C8 DE 00            [ 7] 3269 	sbc	a, #0x00
    000014CA 30 08            [12] 3270 	jr	NC, 00508$
    000014CC DD 36 F9 50      [19] 3271 	ld	-7 (ix), #0x50
    000014D0 DD 36 FA 00      [19] 3272 	ld	-6 (ix), #0
    000014D4                       3273 00508$:
                                   3274 ;E:\Dropbox\FAUSTO\SVILUPPI\MSX\CODE\C\MSXgl\projects\exsoccer/exsoccer_s22_b2.c:660: if (gkTargetX > boxXMax) gkTargetX = boxXMax;
    000014D4 3E A0            [ 7] 3275 	ld	a, #0xa0
    000014D6 DD BE F9         [19] 3276 	cp	a, -7 (ix)
    000014D9 3E 00            [ 7] 3277 	ld	a, #0x00
    000014DB DD 9E FA         [19] 3278 	sbc	a, -6 (ix)
    000014DE 30 08            [12] 3279 	jr	NC, 00510$
    000014E0 DD 36 F9 A0      [19] 3280 	ld	-7 (ix), #0xa0
    000014E4 DD 36 FA 00      [19] 3281 	ld	-6 (ix), #0
    000014E8                       3282 00510$:
                                   3283 ;E:\Dropbox\FAUSTO\SVILUPPI\MSX\CODE\C\MSXgl\projects\exsoccer/exsoccer_s22_b2.c:661: if (gkTargetY < boxYMin) gkTargetY = boxYMin;
    000014E8 79               [ 4] 3284 	ld	a, c
    000014E9 DD 96 FB         [19] 3285 	sub	a, -5 (ix)
    000014EC 78               [ 4] 3286 	ld	a, b
    000014ED DD 9E FC         [19] 3287 	sbc	a, -4 (ix)
    000014F0 30 06            [12] 3288 	jr	NC, 00512$
    000014F2 DD 4E FB         [19] 3289 	ld	c, -5 (ix)
    000014F5 DD 46 FC         [19] 3290 	ld	b, -4 (ix)
    000014F8                       3291 00512$:
                                   3292 ;E:\Dropbox\FAUSTO\SVILUPPI\MSX\CODE\C\MSXgl\projects\exsoccer/exsoccer_s22_b2.c:662: if (gkTargetY > boxYMax) gkTargetY = boxYMax;
    000014F8 DD 7E FE         [19] 3293 	ld	a, -2 (ix)
    000014FB 91               [ 4] 3294 	sub	a, c
    000014FC DD 7E FF         [19] 3295 	ld	a, -1 (ix)
    000014FF 98               [ 4] 3296 	sbc	a, b
    00001500 30 06            [12] 3297 	jr	NC, 00514$
    00001502 DD 4E FE         [19] 3298 	ld	c, -2 (ix)
    00001505 DD 46 FF         [19] 3299 	ld	b, -1 (ix)
    00001508                       3300 00514$:
                                   3301 ;E:\Dropbox\FAUSTO\SVILUPPI\MSX\CODE\C\MSXgl\projects\exsoccer/exsoccer_s22_b2.c:664: g_Players[playerId].TargetX = gkTargetX;
    00001508 E1               [10] 3302 	pop	hl
    00001509 E5               [11] 3303 	push	hl
    0000150A 11 10 00         [10] 3304 	ld	de, #0x0010
    0000150D 19               [11] 3305 	add	hl, de
    0000150E DD 7E F9         [19] 3306 	ld	a, -7 (ix)
    00001511 77               [ 7] 3307 	ld	(hl), a
    00001512 23               [ 6] 3308 	inc	hl
    00001513 DD 7E FA         [19] 3309 	ld	a, -6 (ix)
    00001516 77               [ 7] 3310 	ld	(hl), a
                                   3311 ;E:\Dropbox\FAUSTO\SVILUPPI\MSX\CODE\C\MSXgl\projects\exsoccer/exsoccer_s22_b2.c:665: g_Players[playerId].TargetY = gkTargetY;
    00001517 E1               [10] 3312 	pop	hl
    00001518 E5               [11] 3313 	push	hl
    00001519 11 0E 00         [10] 3314 	ld	de, #0x000e
    0000151C 19               [11] 3315 	add	hl, de
    0000151D 71               [ 7] 3316 	ld	(hl), c
    0000151E 23               [ 6] 3317 	inc	hl
    0000151F 70               [ 7] 3318 	ld	(hl), b
                                   3319 ;E:\Dropbox\FAUSTO\SVILUPPI\MSX\CODE\C\MSXgl\projects\exsoccer/exsoccer_s22_b2.c:666: return; 
    00001520 C3r0Cr1F         [10] 3320 	jp	00718$
    00001523                       3321 00516$:
                                   3322 ;E:\Dropbox\FAUSTO\SVILUPPI\MSX\CODE\C\MSXgl\projects\exsoccer/exsoccer_s22_b2.c:670: u8 playerClosesestToBallId = GetClosestPlayerToBall(playerTeamId, NO_VALUE);
    00001523 2E FF            [ 7] 3323 	ld	l, #0xff
                                   3324 ;	spillPairReg hl
                                   3325 ;	spillPairReg hl
    00001525 DD 7E DC         [19] 3326 	ld	a, -36 (ix)
    00001528 CDr00r00         [17] 3327 	call	_GetClosestPlayerToBall
    0000152B 47               [ 4] 3328 	ld	b, a
                                   3329 ;E:\Dropbox\FAUSTO\SVILUPPI\MSX\CODE\C\MSXgl\projects\exsoccer/exsoccer_s22_b2.c:672: bool amIEffectiveChaser = (playerClosesestToBallId == playerId);
    0000152C DD 7E FD         [19] 3330 	ld	a, -3 (ix)
    0000152F 90               [ 4] 3331 	sub	a, b
    00001530 3E 01            [ 7] 3332 	ld	a, #0x01
    00001532 28 01            [12] 3333 	jr	Z, 02365$
    00001534 AF               [ 4] 3334 	xor	a, a
    00001535                       3335 02365$:
    00001535 DD 77 FF         [19] 3336 	ld	-1 (ix), a
                                   3337 ;E:\Dropbox\FAUSTO\SVILUPPI\MSX\CODE\C\MSXgl\projects\exsoccer/exsoccer_s22_b2.c:674: if (g_Players[playerClosesestToBallId].Role == PLAYER_ROLE_GOALKEEPER) {
    00001538 58               [ 4] 3338 	ld	e, b
    00001539 16 00            [ 7] 3339 	ld	d, #0x00
    0000153B 6B               [ 4] 3340 	ld	l, e
    0000153C 62               [ 4] 3341 	ld	h, d
    0000153D 29               [11] 3342 	add	hl, hl
    0000153E 29               [11] 3343 	add	hl, hl
    0000153F 19               [11] 3344 	add	hl, de
    00001540 29               [11] 3345 	add	hl, hl
    00001541 29               [11] 3346 	add	hl, hl
    00001542 19               [11] 3347 	add	hl, de
    00001543 11r00r00         [10] 3348 	ld	de, #_g_Players
    00001546 19               [11] 3349 	add	hl, de
    00001547 DD 75 FB         [19] 3350 	ld	-5 (ix), l
    0000154A DD 74 FC         [19] 3351 	ld	-4 (ix), h
    0000154D EB               [ 4] 3352 	ex	de,hl
    0000154E 21 0D 00         [10] 3353 	ld	hl, #13
    00001551 19               [11] 3354 	add	hl, de
    00001552 7E               [ 7] 3355 	ld	a, (hl)
    00001553 B7               [ 4] 3356 	or	a, a
    00001554 C2rD5r15         [10] 3357 	jp	NZ, 00528$
                                   3358 ;E:\Dropbox\FAUSTO\SVILUPPI\MSX\CODE\C\MSXgl\projects\exsoccer/exsoccer_s22_b2.c:675: u16 limitY = (playerTeamId == TEAM_1) ? GK_BOX_Y_BOTTOM_MIN : GK_BOX_Y_TOP_MAX;
    00001557 DD 7E DC         [19] 3359 	ld	a, -36 (ix)
    0000155A 3D               [ 4] 3360 	dec	a
    0000155B 3E 01            [ 7] 3361 	ld	a, #0x01
    0000155D 28 01            [12] 3362 	jr	Z, 02367$
    0000155F AF               [ 4] 3363 	xor	a, a
    00001560                       3364 02367$:
    00001560 4F               [ 4] 3365 	ld	c, a
    00001561 B7               [ 4] 3366 	or	a, a
    00001562 28 06            [12] 3367 	jr	Z, 00752$
    00001564 11 95 01         [10] 3368 	ld	de, #0x0195
    00001567 C3r6Dr15         [10] 3369 	jp	00753$
    0000156A                       3370 00752$:
    0000156A 11 4B 00         [10] 3371 	ld	de, #0x004b
    0000156D                       3372 00753$:
                                   3373 ;E:\Dropbox\FAUSTO\SVILUPPI\MSX\CODE\C\MSXgl\projects\exsoccer/exsoccer_s22_b2.c:676: bool ballFar = false;
    0000156D DD 36 FE 00      [19] 3374 	ld	-2 (ix), #0x00
                                   3375 ;E:\Dropbox\FAUSTO\SVILUPPI\MSX\CODE\C\MSXgl\projects\exsoccer/exsoccer_s22_b2.c:677: if (playerTeamId == TEAM_1 && g_Ball.Y < limitY - 10) ballFar = true;
    00001571 79               [ 4] 3376 	ld	a, c
    00001572 B7               [ 4] 3377 	or	a, a
    00001573 28 2B            [12] 3378 	jr	Z, 00518$
    00001575 21r00r00         [10] 3379 	ld	hl, #_g_Ball
    00001578 7E               [ 7] 3380 	ld	a, (hl)
    00001579 DD 77 F7         [19] 3381 	ld	-9 (ix), a
    0000157C 23               [ 6] 3382 	inc	hl
    0000157D 7E               [ 7] 3383 	ld	a, (hl)
    0000157E DD 77 F8         [19] 3384 	ld	-8 (ix), a
    00001581 7B               [ 4] 3385 	ld	a, e
    00001582 4A               [ 4] 3386 	ld	c, d
    00001583 C6 F6            [ 7] 3387 	add	a, #0xf6
    00001585 DD 77 F5         [19] 3388 	ld	-11 (ix), a
    00001588 79               [ 4] 3389 	ld	a, c
    00001589 CE FF            [ 7] 3390 	adc	a, #0xff
    0000158B DD 77 F6         [19] 3391 	ld	-10 (ix), a
    0000158E DD 7E F7         [19] 3392 	ld	a, -9 (ix)
    00001591 DD 96 F5         [19] 3393 	sub	a, -11 (ix)
    00001594 DD 7E F8         [19] 3394 	ld	a, -8 (ix)
    00001597 DD 9E F6         [19] 3395 	sbc	a, -10 (ix)
    0000159A 30 04            [12] 3396 	jr	NC, 00518$
    0000159C DD 36 FE 01      [19] 3397 	ld	-2 (ix), #0x01
    000015A0                       3398 00518$:
                                   3399 ;E:\Dropbox\FAUSTO\SVILUPPI\MSX\CODE\C\MSXgl\projects\exsoccer/exsoccer_s22_b2.c:678: if (playerTeamId == TEAM_2 && g_Ball.Y > limitY + 10) ballFar = true;
    000015A0 DD 7E DC         [19] 3400 	ld	a, -36 (ix)
    000015A3 D6 02            [ 7] 3401 	sub	a, #0x02
    000015A5 20 14            [12] 3402 	jr	NZ, 00521$
    000015A7 2Ar00r00         [16] 3403 	ld	hl, (#_g_Ball + 0)
    000015AA 7B               [ 4] 3404 	ld	a, e
    000015AB C6 0A            [ 7] 3405 	add	a, #0x0a
    000015AD 4F               [ 4] 3406 	ld	c, a
    000015AE 30 01            [12] 3407 	jr	NC, 02370$
    000015B0 14               [ 4] 3408 	inc	d
    000015B1                       3409 02370$:
    000015B1 79               [ 4] 3410 	ld	a, c
    000015B2 95               [ 4] 3411 	sub	a, l
    000015B3 7A               [ 4] 3412 	ld	a, d
    000015B4 9C               [ 4] 3413 	sbc	a, h
    000015B5 30 04            [12] 3414 	jr	NC, 00521$
    000015B7 DD 36 FE 01      [19] 3415 	ld	-2 (ix), #0x01
    000015BB                       3416 00521$:
                                   3417 ;E:\Dropbox\FAUSTO\SVILUPPI\MSX\CODE\C\MSXgl\projects\exsoccer/exsoccer_s22_b2.c:680: if (ballFar) {
    000015BB DD 7E FE         [19] 3418 	ld	a, -2 (ix)
    000015BE B7               [ 4] 3419 	or	a, a
    000015BF 28 14            [12] 3420 	jr	Z, 00528$
                                   3421 ;E:\Dropbox\FAUSTO\SVILUPPI\MSX\CODE\C\MSXgl\projects\exsoccer/exsoccer_s22_b2.c:681: u8 nextClosest = GetClosestPlayerToBall(playerTeamId, playerClosesestToBallId);
    000015C1 C5               [11] 3422 	push	bc
    000015C2 68               [ 4] 3423 	ld	l, b
                                   3424 ;	spillPairReg hl
                                   3425 ;	spillPairReg hl
    000015C3 DD 7E DC         [19] 3426 	ld	a, -36 (ix)
    000015C6 CDr00r00         [17] 3427 	call	_GetClosestPlayerToBall
    000015C9 C1               [10] 3428 	pop	bc
    000015CA 4F               [ 4] 3429 	ld	c, a
                                   3430 ;E:\Dropbox\FAUSTO\SVILUPPI\MSX\CODE\C\MSXgl\projects\exsoccer/exsoccer_s22_b2.c:682: if (nextClosest == playerId) amIEffectiveChaser = true;
    000015CB DD 7E FD         [19] 3431 	ld	a, -3 (ix)
    000015CE 91               [ 4] 3432 	sub	a, c
    000015CF 20 04            [12] 3433 	jr	NZ, 00528$
    000015D1 DD 36 FF 01      [19] 3434 	ld	-1 (ix), #0x01
    000015D5                       3435 00528$:
                                   3436 ;E:\Dropbox\FAUSTO\SVILUPPI\MSX\CODE\C\MSXgl\projects\exsoccer/exsoccer_s22_b2.c:686: if (amIEffectiveChaser) {
    000015D5 DD 7E FF         [19] 3437 	ld	a, -1 (ix)
    000015D8 B7               [ 4] 3438 	or	a, a
    000015D9 CArDDr17         [10] 3439 	jp	Z, 00701$
                                   3440 ;E:\Dropbox\FAUSTO\SVILUPPI\MSX\CODE\C\MSXgl\projects\exsoccer/exsoccer_s22_b2.c:688: if (g_Ball.PossessionPlayerId == NO_VALUE) {
    000015DC 21r06r00         [10] 3441 	ld	hl, #_g_Ball + 6
    000015DF 5E               [ 7] 3442 	ld	e, (hl)
                                   3443 ;E:\Dropbox\FAUSTO\SVILUPPI\MSX\CODE\C\MSXgl\projects\exsoccer/exsoccer_s22_b2.c:689: g_Players[playerId].TargetX = g_Ball.X;
    000015E0 ED 4Br02r00      [20] 3444 	ld	bc, (#_g_Ball + 2)
                                   3445 ;E:\Dropbox\FAUSTO\SVILUPPI\MSX\CODE\C\MSXgl\projects\exsoccer/exsoccer_s22_b2.c:688: if (g_Ball.PossessionPlayerId == NO_VALUE) {
    000015E4 1C               [ 4] 3446 	inc	e
    000015E5 20 21            [12] 3447 	jr	NZ, 00556$
                                   3448 ;E:\Dropbox\FAUSTO\SVILUPPI\MSX\CODE\C\MSXgl\projects\exsoccer/exsoccer_s22_b2.c:689: g_Players[playerId].TargetX = g_Ball.X;
    000015E7 E1               [10] 3449 	pop	hl
    000015E8 E5               [11] 3450 	push	hl
    000015E9 11 10 00         [10] 3451 	ld	de, #0x0010
    000015EC 19               [11] 3452 	add	hl, de
    000015ED 71               [ 7] 3453 	ld	(hl), c
    000015EE 23               [ 6] 3454 	inc	hl
    000015EF 70               [ 7] 3455 	ld	(hl), b
                                   3456 ;E:\Dropbox\FAUSTO\SVILUPPI\MSX\CODE\C\MSXgl\projects\exsoccer/exsoccer_s22_b2.c:690: g_Players[playerId].TargetY = g_Ball.Y;
    000015F0 DD 7E DA         [19] 3457 	ld	a, -38 (ix)
    000015F3 C6 0E            [ 7] 3458 	add	a, #0x0e
    000015F5 4F               [ 4] 3459 	ld	c, a
    000015F6 DD 7E DB         [19] 3460 	ld	a, -37 (ix)
    000015F9 CE 00            [ 7] 3461 	adc	a, #0x00
    000015FB 47               [ 4] 3462 	ld	b, a
    000015FC ED 5Br00r00      [20] 3463 	ld	de, (#_g_Ball + 0)
    00001600 7B               [ 4] 3464 	ld	a, e
    00001601 02               [ 7] 3465 	ld	(bc), a
    00001602 03               [ 6] 3466 	inc	bc
    00001603 7A               [ 4] 3467 	ld	a, d
    00001604 02               [ 7] 3468 	ld	(bc), a
    00001605 C3r0Cr1F         [10] 3469 	jp	00718$
    00001608                       3470 00556$:
                                   3471 ;E:\Dropbox\FAUSTO\SVILUPPI\MSX\CODE\C\MSXgl\projects\exsoccer/exsoccer_s22_b2.c:696: i16 dx = (i16)g_Players[playerId].X - (i16)g_Ball.X;
    00001608 E1               [10] 3472 	pop	hl
    00001609 E5               [11] 3473 	push	hl
    0000160A 23               [ 6] 3474 	inc	hl
    0000160B 23               [ 6] 3475 	inc	hl
    0000160C 5E               [ 7] 3476 	ld	e, (hl)
    0000160D 23               [ 6] 3477 	inc	hl
    0000160E 56               [ 7] 3478 	ld	d, (hl)
    0000160F 69               [ 4] 3479 	ld	l, c
                                   3480 ;	spillPairReg hl
                                   3481 ;	spillPairReg hl
    00001610 60               [ 4] 3482 	ld	h, b
                                   3483 ;	spillPairReg hl
                                   3484 ;	spillPairReg hl
    00001611 7B               [ 4] 3485 	ld	a, e
    00001612 95               [ 4] 3486 	sub	a, l
    00001613 5F               [ 4] 3487 	ld	e, a
    00001614 7A               [ 4] 3488 	ld	a, d
    00001615 9C               [ 4] 3489 	sbc	a, h
    00001616 57               [ 4] 3490 	ld	d, a
    00001617 DD 73 F9         [19] 3491 	ld	-7 (ix), e
    0000161A DD 72 FA         [19] 3492 	ld	-6 (ix), d
                                   3493 ;E:\Dropbox\FAUSTO\SVILUPPI\MSX\CODE\C\MSXgl\projects\exsoccer/exsoccer_s22_b2.c:697: i16 dy = (i16)g_Players[playerId].Y - (i16)g_Ball.Y;
    0000161D E1               [10] 3494 	pop	hl
    0000161E E5               [11] 3495 	push	hl
    0000161F 5E               [ 7] 3496 	ld	e, (hl)
    00001620 23               [ 6] 3497 	inc	hl
    00001621 56               [ 7] 3498 	ld	d, (hl)
    00001622 21r00r00         [10] 3499 	ld	hl, #_g_Ball
    00001625 7E               [ 7] 3500 	ld	a, (hl)
    00001626 DD 77 FB         [19] 3501 	ld	-5 (ix), a
    00001629 23               [ 6] 3502 	inc	hl
    0000162A 7E               [ 7] 3503 	ld	a, (hl)
    0000162B DD 77 FC         [19] 3504 	ld	-4 (ix), a
    0000162E DD 6E FB         [19] 3505 	ld	l, -5 (ix)
                                   3506 ;	spillPairReg hl
                                   3507 ;	spillPairReg hl
    00001631 DD 66 FC         [19] 3508 	ld	h, -4 (ix)
                                   3509 ;	spillPairReg hl
                                   3510 ;	spillPairReg hl
    00001634 7B               [ 4] 3511 	ld	a, e
    00001635 95               [ 4] 3512 	sub	a, l
    00001636 5F               [ 4] 3513 	ld	e, a
    00001637 7A               [ 4] 3514 	ld	a, d
    00001638 9C               [ 4] 3515 	sbc	a, h
    00001639 DD 73 FE         [19] 3516 	ld	-2 (ix), e
    0000163C DD 77 FF         [19] 3517 	ld	-1 (ix), a
                                   3518 ;E:\Dropbox\FAUSTO\SVILUPPI\MSX\CODE\C\MSXgl\projects\exsoccer/exsoccer_s22_b2.c:698: i16 range = stats->Aggression;
    0000163F DD 6E DD         [19] 3519 	ld	l, -35 (ix)
                                   3520 ;	spillPairReg hl
                                   3521 ;	spillPairReg hl
    00001642 DD 66 DE         [19] 3522 	ld	h, -34 (ix)
                                   3523 ;	spillPairReg hl
                                   3524 ;	spillPairReg hl
    00001645 23               [ 6] 3525 	inc	hl
    00001646 5E               [ 7] 3526 	ld	e, (hl)
                                   3527 ;E:\Dropbox\FAUSTO\SVILUPPI\MSX\CODE\C\MSXgl\projects\exsoccer/exsoccer_s22_b2.c:699: if (dx > -range && dx < range && dy > -range && dy < range) {
    00001647 AF               [ 4] 3528 	xor	a, a
    00001648 57               [ 4] 3529 	ld	d, a
    00001649 93               [ 4] 3530 	sub	a, e
    0000164A DD 77 F7         [19] 3531 	ld	-9 (ix), a
    0000164D 9F               [ 4] 3532 	sbc	a, a
    0000164E 92               [ 4] 3533 	sub	a, d
    0000164F DD 77 F8         [19] 3534 	ld	-8 (ix), a
    00001652 DD 7E F7         [19] 3535 	ld	a, -9 (ix)
    00001655 DD 96 F9         [19] 3536 	sub	a, -7 (ix)
    00001658 DD 7E F8         [19] 3537 	ld	a, -8 (ix)
    0000165B DD 9E FA         [19] 3538 	sbc	a, -6 (ix)
    0000165E E2r63r16         [10] 3539 	jp	PO, 02375$
    00001661 EE 80            [ 7] 3540 	xor	a, #0x80
    00001663                       3541 02375$:
    00001663 F2rDCr16         [10] 3542 	jp	P, 00540$
    00001666 DD 7E F9         [19] 3543 	ld	a, -7 (ix)
    00001669 93               [ 4] 3544 	sub	a, e
    0000166A DD 7E FA         [19] 3545 	ld	a, -6 (ix)
    0000166D 9A               [ 4] 3546 	sbc	a, d
    0000166E E2r73r16         [10] 3547 	jp	PO, 02376$
    00001671 EE 80            [ 7] 3548 	xor	a, #0x80
    00001673                       3549 02376$:
    00001673 F2rDCr16         [10] 3550 	jp	P, 00540$
    00001676 DD 7E F7         [19] 3551 	ld	a, -9 (ix)
    00001679 DD 96 FE         [19] 3552 	sub	a, -2 (ix)
    0000167C DD 7E F8         [19] 3553 	ld	a, -8 (ix)
    0000167F DD 9E FF         [19] 3554 	sbc	a, -1 (ix)
    00001682 E2r87r16         [10] 3555 	jp	PO, 02377$
    00001685 EE 80            [ 7] 3556 	xor	a, #0x80
    00001687                       3557 02377$:
    00001687 F2rDCr16         [10] 3558 	jp	P, 00540$
    0000168A DD 7E FE         [19] 3559 	ld	a, -2 (ix)
    0000168D 93               [ 4] 3560 	sub	a, e
    0000168E DD 7E FF         [19] 3561 	ld	a, -1 (ix)
    00001691 9A               [ 4] 3562 	sbc	a, d
    00001692 E2r97r16         [10] 3563 	jp	PO, 02378$
    00001695 EE 80            [ 7] 3564 	xor	a, #0x80
    00001697                       3565 02378$:
    00001697 F2rDCr16         [10] 3566 	jp	P, 00540$
                                   3567 ;E:\Dropbox\FAUSTO\SVILUPPI\MSX\CODE\C\MSXgl\projects\exsoccer/exsoccer_s22_b2.c:704: bool isHumanControlled = false;
    0000169A DD 36 FF 00      [19] 3568 	ld	-1 (ix), #0x00
                                   3569 ;E:\Dropbox\FAUSTO\SVILUPPI\MSX\CODE\C\MSXgl\projects\exsoccer/exsoccer_s22_b2.c:705: if ((playerTeamId == TEAM_1 && g_Team1ActivePlayer == playerId) || 
    0000169E DD 7E DC         [19] 3570 	ld	a, -36 (ix)
    000016A1 3D               [ 4] 3571 	dec	a
    000016A2 20 08            [12] 3572 	jr	NZ, 00534$
    000016A4 3Ar00r00         [13] 3573 	ld	a, (_g_Team1ActivePlayer+0)
    000016A7 DD 96 FD         [19] 3574 	sub	a, -3 (ix)
    000016AA 28 15            [12] 3575 	jr	Z, 00529$
    000016AC                       3576 00534$:
                                   3577 ;E:\Dropbox\FAUSTO\SVILUPPI\MSX\CODE\C\MSXgl\projects\exsoccer/exsoccer_s22_b2.c:706: (playerTeamId == TEAM_2 && g_GameWith2Players && g_Team2ActivePlayer == playerId)) {
    000016AC DD 7E DC         [19] 3578 	ld	a, -36 (ix)
    000016AF D6 02            [ 7] 3579 	sub	a, #0x02
    000016B1 20 12            [12] 3580 	jr	NZ, 00530$
    000016B3 3Ar00r00         [13] 3581 	ld	a, (_g_GameWith2Players+0)
    000016B6 B7               [ 4] 3582 	or	a, a
    000016B7 28 0C            [12] 3583 	jr	Z, 00530$
    000016B9 3Ar00r00         [13] 3584 	ld	a, (_g_Team2ActivePlayer+0)
    000016BC DD 96 FD         [19] 3585 	sub	a, -3 (ix)
    000016BF 20 04            [12] 3586 	jr	NZ, 00530$
    000016C1                       3587 00529$:
                                   3588 ;E:\Dropbox\FAUSTO\SVILUPPI\MSX\CODE\C\MSXgl\projects\exsoccer/exsoccer_s22_b2.c:707: isHumanControlled = true;
    000016C1 DD 36 FF 01      [19] 3589 	ld	-1 (ix), #0x01
    000016C5                       3590 00530$:
                                   3591 ;E:\Dropbox\FAUSTO\SVILUPPI\MSX\CODE\C\MSXgl\projects\exsoccer/exsoccer_s22_b2.c:710: if (!isHumanControlled) {
    000016C5 DD 7E FF         [19] 3592 	ld	a, -1 (ix)
    000016C8 B7               [ 4] 3593 	or	a, a
    000016C9 20 11            [12] 3594 	jr	NZ, 00540$
                                   3595 ;E:\Dropbox\FAUSTO\SVILUPPI\MSX\CODE\C\MSXgl\projects\exsoccer/exsoccer_s22_b2.c:713: if ((g_FrameCounter % 4) == 0) {
    000016CB 2Ar00r00         [16] 3596 	ld	hl, (_g_FrameCounter)
    000016CE 7D               [ 4] 3597 	ld	a, l
    000016CF E6 03            [ 7] 3598 	and	a, #0x03
    000016D1 20 09            [12] 3599 	jr	NZ, 00540$
                                   3600 ;E:\Dropbox\FAUSTO\SVILUPPI\MSX\CODE\C\MSXgl\projects\exsoccer/exsoccer_s22_b2.c:714: PutBallOnPlayerFeet(playerId);
    000016D3 DD 7E FD         [19] 3601 	ld	a, -3 (ix)
    000016D6 CDr00r00         [17] 3602 	call	_PutBallOnPlayerFeet
                                   3603 ;E:\Dropbox\FAUSTO\SVILUPPI\MSX\CODE\C\MSXgl\projects\exsoccer/exsoccer_s22_b2.c:715: return;
    000016D9 C3r0Cr1F         [10] 3604 	jp	00718$
    000016DC                       3605 00540$:
                                   3606 ;E:\Dropbox\FAUSTO\SVILUPPI\MSX\CODE\C\MSXgl\projects\exsoccer/exsoccer_s22_b2.c:722: i16 targetX = g_Ball.X;
                                   3607 ;E:\Dropbox\FAUSTO\SVILUPPI\MSX\CODE\C\MSXgl\projects\exsoccer/exsoccer_s22_b2.c:723: i16 targetY = g_Ball.Y;
    000016DC DD 7E FB         [19] 3608 	ld	a, -5 (ix)
    000016DF DD 5E FC         [19] 3609 	ld	e, -4 (ix)
    000016E2 DD 77 FE         [19] 3610 	ld	-2 (ix), a
    000016E5 DD 73 FF         [19] 3611 	ld	-1 (ix), e
                                   3612 ;E:\Dropbox\FAUSTO\SVILUPPI\MSX\CODE\C\MSXgl\projects\exsoccer/exsoccer_s22_b2.c:725: if (g_Ball.KickMoveState != 0) {
    000016E8 3Ar0Dr00         [13] 3613 	ld	a, (#_g_Ball + 13)
    000016EB B7               [ 4] 3614 	or	a, a
    000016EC CArC2r17         [10] 3615 	jp	Z, 00554$
                                   3616 ;E:\Dropbox\FAUSTO\SVILUPPI\MSX\CODE\C\MSXgl\projects\exsoccer/exsoccer_s22_b2.c:727: switch(g_Ball.Direction) {
    000016EF 21r05r00         [10] 3617 	ld	hl, #_g_Ball + 5
    000016F2 5E               [ 7] 3618 	ld	e, (hl)
    000016F3 3E 08            [ 7] 3619 	ld	a, #0x08
    000016F5 93               [ 4] 3620 	sub	a, e
    000016F6 DArC2r17         [10] 3621 	jp	C, 00554$
    000016F9 16 00            [ 7] 3622 	ld	d, #0x00
    000016FB 21r02r17         [10] 3623 	ld	hl, #02388$
    000016FE 19               [11] 3624 	add	hl, de
    000016FF 19               [11] 3625 	add	hl, de
    00001700 19               [11] 3626 	add	hl, de
    00001701 E9               [ 4] 3627 	jp	(hl)
    00001702                       3628 02388$:
    00001702 C3rC2r17         [10] 3629 	jp	00554$
    00001705 C3r1Dr17         [10] 3630 	jp	00544$
    00001708 C3r59r17         [10] 3631 	jp	00548$
    0000170B C3r50r17         [10] 3632 	jp	00547$
    0000170E C3r91r17         [10] 3633 	jp	00550$
    00001711 C3r32r17         [10] 3634 	jp	00545$
    00001714 C3rAAr17         [10] 3635 	jp	00551$
    00001717 C3r45r17         [10] 3636 	jp	00546$
    0000171A C3r74r17         [10] 3637 	jp	00549$
                                   3638 ;E:\Dropbox\FAUSTO\SVILUPPI\MSX\CODE\C\MSXgl\projects\exsoccer/exsoccer_s22_b2.c:728: case DIRECTION_UP: targetY -= 16; break;
    0000171D                       3639 00544$:
    0000171D DD 7E FE         [19] 3640 	ld	a, -2 (ix)
    00001720 DD 56 FF         [19] 3641 	ld	d, -1 (ix)
    00001723 C6 F0            [ 7] 3642 	add	a, #0xf0
    00001725 5F               [ 4] 3643 	ld	e, a
    00001726 7A               [ 4] 3644 	ld	a, d
    00001727 CE FF            [ 7] 3645 	adc	a, #0xff
    00001729 DD 73 FE         [19] 3646 	ld	-2 (ix), e
    0000172C DD 77 FF         [19] 3647 	ld	-1 (ix), a
    0000172F C3rC2r17         [10] 3648 	jp	00554$
                                   3649 ;E:\Dropbox\FAUSTO\SVILUPPI\MSX\CODE\C\MSXgl\projects\exsoccer/exsoccer_s22_b2.c:729: case DIRECTION_DOWN: targetY += 16; break;
    00001732                       3650 00545$:
    00001732 DD 5E FE         [19] 3651 	ld	e, -2 (ix)
    00001735 DD 56 FF         [19] 3652 	ld	d, -1 (ix)
    00001738 21 10 00         [10] 3653 	ld	hl, #0x0010
    0000173B 19               [11] 3654 	add	hl, de
    0000173C DD 75 FE         [19] 3655 	ld	-2 (ix), l
    0000173F DD 74 FF         [19] 3656 	ld	-1 (ix), h
    00001742 C3rC2r17         [10] 3657 	jp	00554$
                                   3658 ;E:\Dropbox\FAUSTO\SVILUPPI\MSX\CODE\C\MSXgl\projects\exsoccer/exsoccer_s22_b2.c:730: case DIRECTION_LEFT: targetX -= 16; break;
    00001745                       3659 00546$:
    00001745 79               [ 4] 3660 	ld	a, c
    00001746 C6 F0            [ 7] 3661 	add	a, #0xf0
    00001748 4F               [ 4] 3662 	ld	c, a
    00001749 78               [ 4] 3663 	ld	a, b
    0000174A CE FF            [ 7] 3664 	adc	a, #0xff
    0000174C 47               [ 4] 3665 	ld	b, a
    0000174D C3rC2r17         [10] 3666 	jp	00554$
                                   3667 ;E:\Dropbox\FAUSTO\SVILUPPI\MSX\CODE\C\MSXgl\projects\exsoccer/exsoccer_s22_b2.c:731: case DIRECTION_RIGHT: targetX += 16; break;
    00001750                       3668 00547$:
    00001750 21 10 00         [10] 3669 	ld	hl, #0x0010
    00001753 09               [11] 3670 	add	hl, bc
    00001754 4D               [ 4] 3671 	ld	c, l
    00001755 44               [ 4] 3672 	ld	b, h
    00001756 C3rC2r17         [10] 3673 	jp	00554$
                                   3674 ;E:\Dropbox\FAUSTO\SVILUPPI\MSX\CODE\C\MSXgl\projects\exsoccer/exsoccer_s22_b2.c:732: case DIRECTION_UP_RIGHT: targetY -= 12; targetX += 12; break;
    00001759                       3675 00548$:
    00001759 DD 7E FE         [19] 3676 	ld	a, -2 (ix)
    0000175C DD 56 FF         [19] 3677 	ld	d, -1 (ix)
    0000175F C6 F4            [ 7] 3678 	add	a, #0xf4
    00001761 5F               [ 4] 3679 	ld	e, a
    00001762 7A               [ 4] 3680 	ld	a, d
    00001763 CE FF            [ 7] 3681 	adc	a, #0xff
    00001765 DD 73 FE         [19] 3682 	ld	-2 (ix), e
    00001768 DD 77 FF         [19] 3683 	ld	-1 (ix), a
    0000176B 21 0C 00         [10] 3684 	ld	hl, #0x000c
    0000176E 09               [11] 3685 	add	hl, bc
    0000176F 4D               [ 4] 3686 	ld	c, l
    00001770 44               [ 4] 3687 	ld	b, h
    00001771 C3rC2r17         [10] 3688 	jp	00554$
                                   3689 ;E:\Dropbox\FAUSTO\SVILUPPI\MSX\CODE\C\MSXgl\projects\exsoccer/exsoccer_s22_b2.c:733: case DIRECTION_UP_LEFT: targetY -= 12; targetX -= 12; break;
    00001774                       3690 00549$:
    00001774 DD 7E FE         [19] 3691 	ld	a, -2 (ix)
    00001777 DD 56 FF         [19] 3692 	ld	d, -1 (ix)
    0000177A C6 F4            [ 7] 3693 	add	a, #0xf4
    0000177C 5F               [ 4] 3694 	ld	e, a
    0000177D 7A               [ 4] 3695 	ld	a, d
    0000177E CE FF            [ 7] 3696 	adc	a, #0xff
    00001780 DD 73 FE         [19] 3697 	ld	-2 (ix), e
    00001783 DD 77 FF         [19] 3698 	ld	-1 (ix), a
    00001786 79               [ 4] 3699 	ld	a, c
    00001787 C6 F4            [ 7] 3700 	add	a, #0xf4
    00001789 4F               [ 4] 3701 	ld	c, a
    0000178A 78               [ 4] 3702 	ld	a, b
    0000178B CE FF            [ 7] 3703 	adc	a, #0xff
    0000178D 47               [ 4] 3704 	ld	b, a
    0000178E C3rC2r17         [10] 3705 	jp	00554$
                                   3706 ;E:\Dropbox\FAUSTO\SVILUPPI\MSX\CODE\C\MSXgl\projects\exsoccer/exsoccer_s22_b2.c:734: case DIRECTION_DOWN_RIGHT: targetY += 12; targetX += 12; break;
    00001791                       3707 00550$:
    00001791 DD 5E FE         [19] 3708 	ld	e, -2 (ix)
    00001794 DD 56 FF         [19] 3709 	ld	d, -1 (ix)
    00001797 21 0C 00         [10] 3710 	ld	hl, #0x000c
    0000179A 19               [11] 3711 	add	hl, de
    0000179B DD 75 FE         [19] 3712 	ld	-2 (ix), l
    0000179E DD 74 FF         [19] 3713 	ld	-1 (ix), h
    000017A1 21 0C 00         [10] 3714 	ld	hl, #0x000c
    000017A4 09               [11] 3715 	add	hl, bc
    000017A5 4D               [ 4] 3716 	ld	c, l
    000017A6 44               [ 4] 3717 	ld	b, h
    000017A7 C3rC2r17         [10] 3718 	jp	00554$
                                   3719 ;E:\Dropbox\FAUSTO\SVILUPPI\MSX\CODE\C\MSXgl\projects\exsoccer/exsoccer_s22_b2.c:735: case DIRECTION_DOWN_LEFT: targetY += 12; targetX -= 12; break;
    000017AA                       3720 00551$:
    000017AA DD 5E FE         [19] 3721 	ld	e, -2 (ix)
    000017AD DD 56 FF         [19] 3722 	ld	d, -1 (ix)
    000017B0 21 0C 00         [10] 3723 	ld	hl, #0x000c
    000017B3 19               [11] 3724 	add	hl, de
    000017B4 DD 75 FE         [19] 3725 	ld	-2 (ix), l
    000017B7 DD 74 FF         [19] 3726 	ld	-1 (ix), h
    000017BA 79               [ 4] 3727 	ld	a, c
    000017BB C6 F4            [ 7] 3728 	add	a, #0xf4
    000017BD 4F               [ 4] 3729 	ld	c, a
    000017BE 78               [ 4] 3730 	ld	a, b
    000017BF CE FF            [ 7] 3731 	adc	a, #0xff
    000017C1 47               [ 4] 3732 	ld	b, a
                                   3733 ;E:\Dropbox\FAUSTO\SVILUPPI\MSX\CODE\C\MSXgl\projects\exsoccer/exsoccer_s22_b2.c:736: }
    000017C2                       3734 00554$:
                                   3735 ;E:\Dropbox\FAUSTO\SVILUPPI\MSX\CODE\C\MSXgl\projects\exsoccer/exsoccer_s22_b2.c:738: g_Players[playerId].TargetX = targetX;
    000017C2 E1               [10] 3736 	pop	hl
    000017C3 E5               [11] 3737 	push	hl
    000017C4 11 10 00         [10] 3738 	ld	de, #0x0010
    000017C7 19               [11] 3739 	add	hl, de
    000017C8 71               [ 7] 3740 	ld	(hl), c
    000017C9 23               [ 6] 3741 	inc	hl
    000017CA 70               [ 7] 3742 	ld	(hl), b
                                   3743 ;E:\Dropbox\FAUSTO\SVILUPPI\MSX\CODE\C\MSXgl\projects\exsoccer/exsoccer_s22_b2.c:739: g_Players[playerId].TargetY = targetY;
    000017CB E1               [10] 3744 	pop	hl
    000017CC E5               [11] 3745 	push	hl
    000017CD 11 0E 00         [10] 3746 	ld	de, #0x000e
    000017D0 19               [11] 3747 	add	hl, de
    000017D1 DD 7E FE         [19] 3748 	ld	a, -2 (ix)
    000017D4 77               [ 7] 3749 	ld	(hl), a
    000017D5 23               [ 6] 3750 	inc	hl
    000017D6 DD 7E FF         [19] 3751 	ld	a, -1 (ix)
    000017D9 77               [ 7] 3752 	ld	(hl), a
    000017DA C3r0Cr1F         [10] 3753 	jp	00718$
    000017DD                       3754 00701$:
                                   3755 ;E:\Dropbox\FAUSTO\SVILUPPI\MSX\CODE\C\MSXgl\projects\exsoccer/exsoccer_s22_b2.c:744: u16 defGoalY = (playerTeamId == TEAM_1) ? FIELD_BOUND_Y_BOTTOM : FIELD_BOUND_Y_TOP;
    000017DD DD 7E DC         [19] 3756 	ld	a, -36 (ix)
    000017E0 3D               [ 4] 3757 	dec	a
    000017E1 3E 01            [ 7] 3758 	ld	a, #0x01
    000017E3 28 01            [12] 3759 	jr	Z, 02390$
    000017E5 AF               [ 4] 3760 	xor	a, a
    000017E6                       3761 02390$:
    000017E6 DD 77 FE         [19] 3762 	ld	-2 (ix), a
                                   3763 ;E:\Dropbox\FAUSTO\SVILUPPI\MSX\CODE\C\MSXgl\projects\exsoccer/exsoccer_s22_b2.c:745: bool chaserBeaten = false;
    000017E9 DD 36 F7 00      [19] 3764 	ld	-9 (ix), #0x00
                                   3765 ;E:\Dropbox\FAUSTO\SVILUPPI\MSX\CODE\C\MSXgl\projects\exsoccer/exsoccer_s22_b2.c:746: bool opponentHasBall = (g_Ball.PossessionPlayerId != NO_VALUE && g_Players[g_Ball.PossessionPlayerId].TeamId != playerTeamId);
    000017ED 3Ar06r00         [13] 3766 	ld	a, (#(_g_Ball + 6) + 0)
    000017F0 FE FF            [ 7] 3767 	cp	a, #0xff
    000017F2 28 19            [12] 3768 	jr	Z, 00756$
    000017F4 5F               [ 4] 3769 	ld	e, a
    000017F5 16 00            [ 7] 3770 	ld	d, #0x00
    000017F7 6B               [ 4] 3771 	ld	l, e
    000017F8 62               [ 4] 3772 	ld	h, d
    000017F9 29               [11] 3773 	add	hl, hl
    000017FA 29               [11] 3774 	add	hl, hl
    000017FB 19               [11] 3775 	add	hl, de
    000017FC 29               [11] 3776 	add	hl, hl
    000017FD 29               [11] 3777 	add	hl, hl
    000017FE 19               [11] 3778 	add	hl, de
    000017FF 11r00r00         [10] 3779 	ld	de, #_g_Players
    00001802 19               [11] 3780 	add	hl, de
    00001803 11 09 00         [10] 3781 	ld	de, #0x0009
    00001806 19               [11] 3782 	add	hl, de
    00001807 DD 7E DC         [19] 3783 	ld	a,-36 (ix)
    0000180A 96               [ 7] 3784 	sub	a,(hl)
    0000180B 20 05            [12] 3785 	jr	NZ, 00757$
    0000180D                       3786 00756$:
    0000180D 0E 00            [ 7] 3787 	ld	c, #0x00
    0000180F C3r14r18         [10] 3788 	jp	00758$
    00001812                       3789 00757$:
    00001812 0E 01            [ 7] 3790 	ld	c, #0x01
    00001814                       3791 00758$:
                                   3792 ;E:\Dropbox\FAUSTO\SVILUPPI\MSX\CODE\C\MSXgl\projects\exsoccer/exsoccer_s22_b2.c:748: bool forceRetreat = (g_MatchStatus == MATCH_BALL_ON_GOALKEEPER);
    00001814 3Ar00r00         [13] 3793 	ld	a, (_g_MatchStatus+0)
    00001817 D6 0D            [ 7] 3794 	sub	a, #0x0d
    00001819 3E 01            [ 7] 3795 	ld	a, #0x01
    0000181B 28 01            [12] 3796 	jr	Z, 02395$
    0000181D AF               [ 4] 3797 	xor	a, a
    0000181E                       3798 02395$:
    0000181E DD 77 F8         [19] 3799 	ld	-8 (ix), a
                                   3800 ;E:\Dropbox\FAUSTO\SVILUPPI\MSX\CODE\C\MSXgl\projects\exsoccer/exsoccer_s22_b2.c:749: if (opponentHasBall && playerClosesestToBallId != NO_VALUE && !forceRetreat) {
    00001821 79               [ 4] 3801 	ld	a, c
    00001822 B7               [ 4] 3802 	or	a, a
    00001823 28 31            [12] 3803 	jr	Z, 00566$
    00001825 04               [ 4] 3804 	inc	b
    00001826 28 2E            [12] 3805 	jr	Z, 00566$
    00001828 DD 7E F8         [19] 3806 	ld	a, -8 (ix)
    0000182B B7               [ 4] 3807 	or	a, a
    0000182C 20 28            [12] 3808 	jr	NZ, 00566$
                                   3809 ;E:\Dropbox\FAUSTO\SVILUPPI\MSX\CODE\C\MSXgl\projects\exsoccer/exsoccer_s22_b2.c:750: u16 chaserY = g_Players[playerClosesestToBallId].Y;
    0000182E DD 6E FB         [19] 3810 	ld	l, -5 (ix)
    00001831 DD 66 FC         [19] 3811 	ld	h, -4 (ix)
    00001834 5E               [ 7] 3812 	ld	e, (hl)
    00001835 23               [ 6] 3813 	inc	hl
    00001836 56               [ 7] 3814 	ld	d, (hl)
                                   3815 ;E:\Dropbox\FAUSTO\SVILUPPI\MSX\CODE\C\MSXgl\projects\exsoccer/exsoccer_s22_b2.c:751: if (playerTeamId == TEAM_1) { if (g_Ball.Y > chaserY) chaserBeaten = true; } 
    00001837 2Ar00r00         [16] 3816 	ld	hl, (#_g_Ball + 0)
    0000183A DD 7E FE         [19] 3817 	ld	a, -2 (ix)
    0000183D B7               [ 4] 3818 	or	a, a
    0000183E 28 0D            [12] 3819 	jr	Z, 00563$
    00001840 7B               [ 4] 3820 	ld	a, e
    00001841 95               [ 4] 3821 	sub	a, l
    00001842 7A               [ 4] 3822 	ld	a, d
    00001843 9C               [ 4] 3823 	sbc	a, h
    00001844 30 10            [12] 3824 	jr	NC, 00566$
    00001846 DD 36 F7 01      [19] 3825 	ld	-9 (ix), #0x01
    0000184A C3r56r18         [10] 3826 	jp	00566$
    0000184D                       3827 00563$:
                                   3828 ;E:\Dropbox\FAUSTO\SVILUPPI\MSX\CODE\C\MSXgl\projects\exsoccer/exsoccer_s22_b2.c:752: else { if (g_Ball.Y < chaserY) chaserBeaten = true; }
    0000184D AF               [ 4] 3829 	xor	a, a
    0000184E ED 52            [15] 3830 	sbc	hl, de
    00001850 30 04            [12] 3831 	jr	NC, 00566$
    00001852 DD 36 F7 01      [19] 3832 	ld	-9 (ix), #0x01
    00001856                       3833 00566$:
                                   3834 ;E:\Dropbox\FAUSTO\SVILUPPI\MSX\CODE\C\MSXgl\projects\exsoccer/exsoccer_s22_b2.c:755: if (opponentHasBall && chaserBeaten && !forceRetreat) {
    00001856 79               [ 4] 3835 	ld	a, c
    00001857 B7               [ 4] 3836 	or	a, a
    00001858 28 50            [12] 3837 	jr	Z, 00633$
    0000185A DD 7E F7         [19] 3838 	ld	a, -9 (ix)
    0000185D B7               [ 4] 3839 	or	a, a
    0000185E 28 4A            [12] 3840 	jr	Z, 00633$
    00001860 DD 7E F8         [19] 3841 	ld	a, -8 (ix)
    00001863 B7               [ 4] 3842 	or	a, a
    00001864 20 44            [12] 3843 	jr	NZ, 00633$
                                   3844 ;E:\Dropbox\FAUSTO\SVILUPPI\MSX\CODE\C\MSXgl\projects\exsoccer/exsoccer_s22_b2.c:756: g_Players[playerId].TargetX = g_Ball.X;
    00001866 DD 7E DA         [19] 3845 	ld	a, -38 (ix)
    00001869 C6 10            [ 7] 3846 	add	a, #0x10
    0000186B 4F               [ 4] 3847 	ld	c, a
    0000186C DD 7E DB         [19] 3848 	ld	a, -37 (ix)
    0000186F CE 00            [ 7] 3849 	adc	a, #0x00
    00001871 47               [ 4] 3850 	ld	b, a
    00001872 ED 5Br02r00      [20] 3851 	ld	de, (#_g_Ball + 2)
    00001876 7B               [ 4] 3852 	ld	a, e
    00001877 02               [ 7] 3853 	ld	(bc), a
    00001878 03               [ 6] 3854 	inc	bc
    00001879 7A               [ 4] 3855 	ld	a, d
    0000187A 02               [ 7] 3856 	ld	(bc), a
                                   3857 ;E:\Dropbox\FAUSTO\SVILUPPI\MSX\CODE\C\MSXgl\projects\exsoccer/exsoccer_s22_b2.c:462: g_Players[playerId].TargetY = finalTargetY;
    0000187B DD 7E DA         [19] 3858 	ld	a, -38 (ix)
    0000187E C6 0E            [ 7] 3859 	add	a, #0x0e
    00001880 4F               [ 4] 3860 	ld	c, a
    00001881 DD 7E DB         [19] 3861 	ld	a, -37 (ix)
    00001884 CE 00            [ 7] 3862 	adc	a, #0x00
    00001886 47               [ 4] 3863 	ld	b, a
                                   3864 ;E:\Dropbox\FAUSTO\SVILUPPI\MSX\CODE\C\MSXgl\projects\exsoccer/exsoccer_s22_b2.c:751: if (playerTeamId == TEAM_1) { if (g_Ball.Y > chaserY) chaserBeaten = true; } 
    00001887 2Ar00r00         [16] 3865 	ld	hl, (#_g_Ball + 0)
                                   3866 ;E:\Dropbox\FAUSTO\SVILUPPI\MSX\CODE\C\MSXgl\projects\exsoccer/exsoccer_s22_b2.c:757: if (playerTeamId == TEAM_1) g_Players[playerId].TargetY = g_Ball.Y + 15;
    0000188A DD 7E FE         [19] 3867 	ld	a, -2 (ix)
    0000188D B7               [ 4] 3868 	or	a, a
    0000188E 28 0D            [12] 3869 	jr	Z, 00570$
    00001890 11 0F 00         [10] 3870 	ld	de, #0x000f
    00001893 19               [11] 3871 	add	hl, de
    00001894 EB               [ 4] 3872 	ex	de, hl
    00001895 7B               [ 4] 3873 	ld	a, e
    00001896 02               [ 7] 3874 	ld	(bc), a
    00001897 03               [ 6] 3875 	inc	bc
    00001898 7A               [ 4] 3876 	ld	a, d
    00001899 02               [ 7] 3877 	ld	(bc), a
    0000189A C3r61r1B         [10] 3878 	jp	00634$
    0000189D                       3879 00570$:
                                   3880 ;E:\Dropbox\FAUSTO\SVILUPPI\MSX\CODE\C\MSXgl\projects\exsoccer/exsoccer_s22_b2.c:758: else g_Players[playerId].TargetY = g_Ball.Y - 15;
    0000189D 11 F1 FF         [10] 3881 	ld	de, #0xfff1
    000018A0 19               [11] 3882 	add	hl, de
    000018A1 EB               [ 4] 3883 	ex	de,hl
    000018A2 7B               [ 4] 3884 	ld	a, e
    000018A3 02               [ 7] 3885 	ld	(bc), a
    000018A4 03               [ 6] 3886 	inc	bc
    000018A5 7A               [ 4] 3887 	ld	a, d
    000018A6 02               [ 7] 3888 	ld	(bc), a
    000018A7 C3r61r1B         [10] 3889 	jp	00634$
    000018AA                       3890 00633$:
                                   3891 ;E:\Dropbox\FAUSTO\SVILUPPI\MSX\CODE\C\MSXgl\projects\exsoccer/exsoccer_s22_b2.c:629: if (g_Players[playerId].Role == PLAYER_ROLE_GOALKEEPER) {
    000018AA DD 6E F9         [19] 3892 	ld	l, -7 (ix)
    000018AD DD 66 FA         [19] 3893 	ld	h, -6 (ix)
    000018B0 7E               [ 7] 3894 	ld	a, (hl)
                                   3895 ;E:\Dropbox\FAUSTO\SVILUPPI\MSX\CODE\C\MSXgl\projects\exsoccer/exsoccer_s22_b2.c:762: if (g_Players[playerId].Role >= PLAYER_ROLE_LEFT_STRIKER) {
    000018B1 DD 77 FB         [19] 3896 	ld	-5 (ix), a
    000018B4 D6 05            [ 7] 3897 	sub	a, #0x05
    000018B6 3E 00            [ 7] 3898 	ld	a, #0x00
    000018B8 17               [ 4] 3899 	rla
    000018B9 DD 77 FC         [19] 3900 	ld	-4 (ix), a
                                   3901 ;E:\Dropbox\FAUSTO\SVILUPPI\MSX\CODE\C\MSXgl\projects\exsoccer/exsoccer_s22_b2.c:761: if (playerTeamId == TEAM_1) { // Defend Bottom (High Y)
    000018BC DD 7E FE         [19] 3902 	ld	a, -2 (ix)
    000018BF B7               [ 4] 3903 	or	a, a
    000018C0 CArA9r19         [10] 3904 	jp	Z, 00617$
                                   3905 ;E:\Dropbox\FAUSTO\SVILUPPI\MSX\CODE\C\MSXgl\projects\exsoccer/exsoccer_s22_b2.c:762: if (g_Players[playerId].Role >= PLAYER_ROLE_LEFT_STRIKER) {
    000018C3 DD CB FC 46      [20] 3906 	bit	0, -4 (ix)
    000018C7 20 0E            [12] 3907 	jr	NZ, 00592$
                                   3908 ;E:\Dropbox\FAUSTO\SVILUPPI\MSX\CODE\C\MSXgl\projects\exsoccer/exsoccer_s22_b2.c:764: g_Players[playerId].TargetY = FIELD_POS_Y_CENTER;
    000018C9 E1               [10] 3909 	pop	hl
    000018CA E5               [11] 3910 	push	hl
    000018CB 11 0E 00         [10] 3911 	ld	de, #0x000e
    000018CE 19               [11] 3912 	add	hl, de
    000018CF 36 F3            [10] 3913 	ld	(hl), #0xf3
    000018D1 23               [ 6] 3914 	inc	hl
    000018D2 36 00            [10] 3915 	ld	(hl), #0x00
    000018D4 C3r92r1A         [10] 3916 	jp	00618$
    000018D7                       3917 00592$:
                                   3918 ;E:\Dropbox\FAUSTO\SVILUPPI\MSX\CODE\C\MSXgl\projects\exsoccer/exsoccer_s22_b2.c:766: else if (g_Players[playerId].Role >= PLAYER_ROLE_LEFT_HALFFIELDER) {
    000018D7 DD 7E FB         [19] 3919 	ld	a, -5 (ix)
    000018DA D6 03            [ 7] 3920 	sub	a, #0x03
    000018DC 38 0E            [12] 3921 	jr	C, 00589$
                                   3922 ;E:\Dropbox\FAUSTO\SVILUPPI\MSX\CODE\C\MSXgl\projects\exsoccer/exsoccer_s22_b2.c:768: g_Players[playerId].TargetY = 318; 
    000018DE E1               [10] 3923 	pop	hl
    000018DF E5               [11] 3924 	push	hl
    000018E0 11 0E 00         [10] 3925 	ld	de, #0x000e
    000018E3 19               [11] 3926 	add	hl, de
    000018E4 36 3E            [10] 3927 	ld	(hl), #0x3e
    000018E6 23               [ 6] 3928 	inc	hl
    000018E7 36 01            [10] 3929 	ld	(hl), #0x01
    000018E9 C3r92r1A         [10] 3930 	jp	00618$
    000018EC                       3931 00589$:
                                   3932 ;E:\Dropbox\FAUSTO\SVILUPPI\MSX\CODE\C\MSXgl\projects\exsoccer/exsoccer_s22_b2.c:773: u16 defenseLineY = 350;
    000018EC DD 36 F5 5E      [19] 3933 	ld	-11 (ix), #0x5e
    000018F0 DD 36 F6 01      [19] 3934 	ld	-10 (ix), #0x01
                                   3935 ;E:\Dropbox\FAUSTO\SVILUPPI\MSX\CODE\C\MSXgl\projects\exsoccer/exsoccer_s22_b2.c:778: for(u8 k=0; k<14; k++) {
    000018F4 E1               [10] 3936 	pop	hl
    000018F5 E5               [11] 3937 	push	hl
    000018F6 4E               [ 7] 3938 	ld	c, (hl)
    000018F7 23               [ 6] 3939 	inc	hl
    000018F8 46               [ 7] 3940 	ld	b, (hl)
    000018F9 1E 00            [ 7] 3941 	ld	e, #0x00
    000018FB DD 36 FC 00      [19] 3942 	ld	-4 (ix), #0x00
    000018FF                       3943 00711$:
    000018FF DD 7E FC         [19] 3944 	ld	a, -4 (ix)
    00001902 D6 0E            [ 7] 3945 	sub	a, #0x0e
    00001904 30 5C            [12] 3946 	jr	NC, 00580$
                                   3947 ;E:\Dropbox\FAUSTO\SVILUPPI\MSX\CODE\C\MSXgl\projects\exsoccer/exsoccer_s22_b2.c:779: if (k==playerId) continue;
    00001906 DD 7E FD         [19] 3948 	ld	a, -3 (ix)
    00001909 DD 96 FC         [19] 3949 	sub	a, -4 (ix)
    0000190C 28 4E            [12] 3950 	jr	Z, 00579$
                                   3951 ;E:\Dropbox\FAUSTO\SVILUPPI\MSX\CODE\C\MSXgl\projects\exsoccer/exsoccer_s22_b2.c:780: if (g_Players[k].TeamId == playerTeamId && g_Players[k].Role != PLAYER_ROLE_GOALKEEPER) {
    0000190E D5               [11] 3952 	push	de
    0000190F DD 5E FC         [19] 3953 	ld	e, -4 (ix)
    00001912 16 00            [ 7] 3954 	ld	d, #0x00
    00001914 6B               [ 4] 3955 	ld	l, e
    00001915 62               [ 4] 3956 	ld	h, d
    00001916 29               [11] 3957 	add	hl, hl
    00001917 29               [11] 3958 	add	hl, hl
    00001918 19               [11] 3959 	add	hl, de
    00001919 29               [11] 3960 	add	hl, hl
    0000191A 29               [11] 3961 	add	hl, hl
    0000191B 19               [11] 3962 	add	hl, de
    0000191C D1               [10] 3963 	pop	de
    0000191D 3Er00            [ 7] 3964 	ld	a, #<(_g_Players)
    0000191F 85               [ 4] 3965 	add	a, l
    00001920 DD 77 F7         [19] 3966 	ld	-9 (ix), a
    00001923 3Es00            [ 7] 3967 	ld	a, #>(_g_Players)
    00001925 8C               [ 4] 3968 	adc	a, h
    00001926 DD 77 F8         [19] 3969 	ld	-8 (ix), a
    00001929 DD 6E F7         [19] 3970 	ld	l, -9 (ix)
                                   3971 ;	spillPairReg hl
                                   3972 ;	spillPairReg hl
    0000192C DD 66 F8         [19] 3973 	ld	h, -8 (ix)
                                   3974 ;	spillPairReg hl
                                   3975 ;	spillPairReg hl
    0000192F C5               [11] 3976 	push	bc
    00001930 01 09 00         [10] 3977 	ld	bc, #0x0009
    00001933 09               [11] 3978 	add	hl, bc
    00001934 C1               [10] 3979 	pop	bc
    00001935 56               [ 7] 3980 	ld	d, (hl)
    00001936 DD 7E DC         [19] 3981 	ld	a, -36 (ix)
    00001939 92               [ 4] 3982 	sub	a, d
    0000193A 20 20            [12] 3983 	jr	NZ, 00579$
    0000193C DD 6E F7         [19] 3984 	ld	l, -9 (ix)
                                   3985 ;	spillPairReg hl
                                   3986 ;	spillPairReg hl
    0000193F DD 66 F8         [19] 3987 	ld	h, -8 (ix)
                                   3988 ;	spillPairReg hl
                                   3989 ;	spillPairReg hl
    00001942 C5               [11] 3990 	push	bc
    00001943 01 0D 00         [10] 3991 	ld	bc, #0x000d
    00001946 09               [11] 3992 	add	hl, bc
    00001947 C1               [10] 3993 	pop	bc
    00001948 7E               [ 7] 3994 	ld	a, (hl)
    00001949 B7               [ 4] 3995 	or	a, a
    0000194A 28 10            [12] 3996 	jr	Z, 00579$
                                   3997 ;E:\Dropbox\FAUSTO\SVILUPPI\MSX\CODE\C\MSXgl\projects\exsoccer/exsoccer_s22_b2.c:781: if (g_Players[k].Y < g_Players[playerId].Y) teammatesAhead++;
    0000194C DD 6E F7         [19] 3998 	ld	l, -9 (ix)
    0000194F DD 66 F8         [19] 3999 	ld	h, -8 (ix)
    00001952 7E               [ 7] 4000 	ld	a, (hl)
    00001953 23               [ 6] 4001 	inc	hl
    00001954 66               [ 7] 4002 	ld	h, (hl)
                                   4003 ;	spillPairReg hl
    00001955 6F               [ 4] 4004 	ld	l, a
                                   4005 ;	spillPairReg hl
                                   4006 ;	spillPairReg hl
    00001956 AF               [ 4] 4007 	xor	a, a
    00001957 ED 42            [15] 4008 	sbc	hl, bc
    00001959 30 01            [12] 4009 	jr	NC, 00579$
    0000195B 1C               [ 4] 4010 	inc	e
    0000195C                       4011 00579$:
                                   4012 ;E:\Dropbox\FAUSTO\SVILUPPI\MSX\CODE\C\MSXgl\projects\exsoccer/exsoccer_s22_b2.c:778: for(u8 k=0; k<14; k++) {
    0000195C DD 34 FC         [23] 4013 	inc	-4 (ix)
    0000195F C3rFFr18         [10] 4014 	jp	00711$
    00001962                       4015 00580$:
                                   4016 ;E:\Dropbox\FAUSTO\SVILUPPI\MSX\CODE\C\MSXgl\projects\exsoccer/exsoccer_s22_b2.c:751: if (playerTeamId == TEAM_1) { if (g_Ball.Y > chaserY) chaserBeaten = true; } 
    00001962 ED 4Br00r00      [20] 4017 	ld	bc, (#_g_Ball + 0)
                                   4018 ;E:\Dropbox\FAUSTO\SVILUPPI\MSX\CODE\C\MSXgl\projects\exsoccer/exsoccer_s22_b2.c:757: if (playerTeamId == TEAM_1) g_Players[playerId].TargetY = g_Ball.Y + 15;
                                   4019 ;E:\Dropbox\FAUSTO\SVILUPPI\MSX\CODE\C\MSXgl\projects\exsoccer/exsoccer_s22_b2.c:786: if (teammatesAhead < 2 || g_Ball.Y > 280) {
    00001966 7B               [ 4] 4020 	ld	a, e
    00001967 D6 02            [ 7] 4021 	sub	a, #0x02
    00001969 38 08            [12] 4022 	jr	C, 00585$
    0000196B 3E 18            [ 7] 4023 	ld	a, #0x18
    0000196D B9               [ 4] 4024 	cp	a, c
    0000196E 3E 01            [ 7] 4025 	ld	a, #0x01
    00001970 98               [ 4] 4026 	sbc	a, b
    00001971 30 24            [12] 4027 	jr	NC, 00586$
    00001973                       4028 00585$:
                                   4029 ;E:\Dropbox\FAUSTO\SVILUPPI\MSX\CODE\C\MSXgl\projects\exsoccer/exsoccer_s22_b2.c:788: if (g_Ball.Y > defenseLineY - 40) {
    00001973 3E 36            [ 7] 4030 	ld	a, #0x36
    00001975 B9               [ 4] 4031 	cp	a, c
    00001976 3E 01            [ 7] 4032 	ld	a, #0x01
    00001978 98               [ 4] 4033 	sbc	a, b
    00001979 30 1C            [12] 4034 	jr	NC, 00586$
                                   4035 ;E:\Dropbox\FAUSTO\SVILUPPI\MSX\CODE\C\MSXgl\projects\exsoccer/exsoccer_s22_b2.c:790: defenseLineY = g_Ball.Y + 15; 
    0000197B 21 0F 00         [10] 4036 	ld	hl, #0x000f
    0000197E 09               [11] 4037 	add	hl, bc
                                   4038 ;E:\Dropbox\FAUSTO\SVILUPPI\MSX\CODE\C\MSXgl\projects\exsoccer/exsoccer_s22_b2.c:791: if (defenseLineY > FIELD_BOUND_Y_BOTTOM - 10) defenseLineY = FIELD_BOUND_Y_BOTTOM - 10;
    0000197F DD 75 F5         [19] 4039 	ld	-11 (ix), l
    00001982 DD 74 F6         [19] 4040 	ld	-10 (ix), h
    00001985 4D               [ 4] 4041 	ld	c, l
    00001986 44               [ 4] 4042 	ld	b, h
    00001987 3E A4            [ 7] 4043 	ld	a, #0xa4
    00001989 B9               [ 4] 4044 	cp	a, c
    0000198A 3E 01            [ 7] 4045 	ld	a, #0x01
    0000198C 98               [ 4] 4046 	sbc	a, b
    0000198D 30 08            [12] 4047 	jr	NC, 00586$
    0000198F DD 36 F5 A4      [19] 4048 	ld	-11 (ix), #0xa4
    00001993 DD 36 F6 01      [19] 4049 	ld	-10 (ix), #0x01
    00001997                       4050 00586$:
                                   4051 ;E:\Dropbox\FAUSTO\SVILUPPI\MSX\CODE\C\MSXgl\projects\exsoccer/exsoccer_s22_b2.c:794: g_Players[playerId].TargetY = defenseLineY; 
    00001997 E1               [10] 4052 	pop	hl
    00001998 E5               [11] 4053 	push	hl
    00001999 11 0E 00         [10] 4054 	ld	de, #0x000e
    0000199C 19               [11] 4055 	add	hl, de
    0000199D DD 7E F5         [19] 4056 	ld	a, -11 (ix)
    000019A0 77               [ 7] 4057 	ld	(hl), a
    000019A1 23               [ 6] 4058 	inc	hl
    000019A2 DD 7E F6         [19] 4059 	ld	a, -10 (ix)
    000019A5 77               [ 7] 4060 	ld	(hl), a
    000019A6 C3r92r1A         [10] 4061 	jp	00618$
    000019A9                       4062 00617$:
                                   4063 ;E:\Dropbox\FAUSTO\SVILUPPI\MSX\CODE\C\MSXgl\projects\exsoccer/exsoccer_s22_b2.c:798: if (g_Players[playerId].Role >= PLAYER_ROLE_LEFT_STRIKER) {
    000019A9 DD CB FC 46      [20] 4064 	bit	0, -4 (ix)
    000019AD 20 0E            [12] 4065 	jr	NZ, 00614$
                                   4066 ;E:\Dropbox\FAUSTO\SVILUPPI\MSX\CODE\C\MSXgl\projects\exsoccer/exsoccer_s22_b2.c:800: g_Players[playerId].TargetY = FIELD_POS_Y_CENTER;
    000019AF E1               [10] 4067 	pop	hl
    000019B0 E5               [11] 4068 	push	hl
    000019B1 11 0E 00         [10] 4069 	ld	de, #0x000e
    000019B4 19               [11] 4070 	add	hl, de
    000019B5 36 F3            [10] 4071 	ld	(hl), #0xf3
    000019B7 23               [ 6] 4072 	inc	hl
    000019B8 36 00            [10] 4073 	ld	(hl), #0x00
    000019BA C3r92r1A         [10] 4074 	jp	00618$
    000019BD                       4075 00614$:
                                   4076 ;E:\Dropbox\FAUSTO\SVILUPPI\MSX\CODE\C\MSXgl\projects\exsoccer/exsoccer_s22_b2.c:802: else if (g_Players[playerId].Role >= PLAYER_ROLE_LEFT_HALFFIELDER) {
    000019BD DD 7E FB         [19] 4077 	ld	a, -5 (ix)
    000019C0 D6 03            [ 7] 4078 	sub	a, #0x03
    000019C2 38 0E            [12] 4079 	jr	C, 00611$
                                   4080 ;E:\Dropbox\FAUSTO\SVILUPPI\MSX\CODE\C\MSXgl\projects\exsoccer/exsoccer_s22_b2.c:804: g_Players[playerId].TargetY = 106;
    000019C4 E1               [10] 4081 	pop	hl
    000019C5 E5               [11] 4082 	push	hl
    000019C6 11 0E 00         [10] 4083 	ld	de, #0x000e
    000019C9 19               [11] 4084 	add	hl, de
    000019CA 36 6A            [10] 4085 	ld	(hl), #0x6a
    000019CC 23               [ 6] 4086 	inc	hl
    000019CD 36 00            [10] 4087 	ld	(hl), #0x00
    000019CF C3r92r1A         [10] 4088 	jp	00618$
    000019D2                       4089 00611$:
                                   4090 ;E:\Dropbox\FAUSTO\SVILUPPI\MSX\CODE\C\MSXgl\projects\exsoccer/exsoccer_s22_b2.c:809: u16 defenseLineY = 130;
    000019D2 DD 36 F5 82      [19] 4091 	ld	-11 (ix), #0x82
    000019D6 DD 36 F6 00      [19] 4092 	ld	-10 (ix), #0
                                   4093 ;E:\Dropbox\FAUSTO\SVILUPPI\MSX\CODE\C\MSXgl\projects\exsoccer/exsoccer_s22_b2.c:813: for(u8 k=0; k<14; k++) {
    000019DA E1               [10] 4094 	pop	hl
    000019DB E5               [11] 4095 	push	hl
    000019DC 4E               [ 7] 4096 	ld	c, (hl)
    000019DD 23               [ 6] 4097 	inc	hl
    000019DE 46               [ 7] 4098 	ld	b, (hl)
    000019DF 1E 00            [ 7] 4099 	ld	e, #0x00
    000019E1 DD 36 FC 00      [19] 4100 	ld	-4 (ix), #0x00
    000019E5                       4101 00713$:
    000019E5 DD 7E FC         [19] 4102 	ld	a, -4 (ix)
    000019E8 D6 0E            [ 7] 4103 	sub	a, #0x0e
    000019EA 30 5D            [12] 4104 	jr	NC, 00602$
                                   4105 ;E:\Dropbox\FAUSTO\SVILUPPI\MSX\CODE\C\MSXgl\projects\exsoccer/exsoccer_s22_b2.c:814: if (k==playerId) continue;
    000019EC DD 7E FD         [19] 4106 	ld	a, -3 (ix)
    000019EF DD 96 FC         [19] 4107 	sub	a, -4 (ix)
    000019F2 28 4F            [12] 4108 	jr	Z, 00601$
                                   4109 ;E:\Dropbox\FAUSTO\SVILUPPI\MSX\CODE\C\MSXgl\projects\exsoccer/exsoccer_s22_b2.c:815: if (g_Players[k].TeamId == playerTeamId && g_Players[k].Role != PLAYER_ROLE_GOALKEEPER) {
    000019F4 D5               [11] 4110 	push	de
    000019F5 DD 5E FC         [19] 4111 	ld	e, -4 (ix)
    000019F8 16 00            [ 7] 4112 	ld	d, #0x00
    000019FA 6B               [ 4] 4113 	ld	l, e
    000019FB 62               [ 4] 4114 	ld	h, d
    000019FC 29               [11] 4115 	add	hl, hl
    000019FD 29               [11] 4116 	add	hl, hl
    000019FE 19               [11] 4117 	add	hl, de
    000019FF 29               [11] 4118 	add	hl, hl
    00001A00 29               [11] 4119 	add	hl, hl
    00001A01 19               [11] 4120 	add	hl, de
    00001A02 D1               [10] 4121 	pop	de
    00001A03 3Er00            [ 7] 4122 	ld	a, #<(_g_Players)
    00001A05 85               [ 4] 4123 	add	a, l
    00001A06 DD 77 F7         [19] 4124 	ld	-9 (ix), a
    00001A09 3Es00            [ 7] 4125 	ld	a, #>(_g_Players)
    00001A0B 8C               [ 4] 4126 	adc	a, h
    00001A0C DD 77 F8         [19] 4127 	ld	-8 (ix), a
    00001A0F DD 6E F7         [19] 4128 	ld	l, -9 (ix)
                                   4129 ;	spillPairReg hl
                                   4130 ;	spillPairReg hl
    00001A12 DD 66 F8         [19] 4131 	ld	h, -8 (ix)
                                   4132 ;	spillPairReg hl
                                   4133 ;	spillPairReg hl
    00001A15 C5               [11] 4134 	push	bc
    00001A16 01 09 00         [10] 4135 	ld	bc, #0x0009
    00001A19 09               [11] 4136 	add	hl, bc
    00001A1A C1               [10] 4137 	pop	bc
    00001A1B 56               [ 7] 4138 	ld	d, (hl)
    00001A1C DD 7E DC         [19] 4139 	ld	a, -36 (ix)
    00001A1F 92               [ 4] 4140 	sub	a, d
    00001A20 20 21            [12] 4141 	jr	NZ, 00601$
    00001A22 DD 6E F7         [19] 4142 	ld	l, -9 (ix)
                                   4143 ;	spillPairReg hl
                                   4144 ;	spillPairReg hl
    00001A25 DD 66 F8         [19] 4145 	ld	h, -8 (ix)
                                   4146 ;	spillPairReg hl
                                   4147 ;	spillPairReg hl
    00001A28 C5               [11] 4148 	push	bc
    00001A29 01 0D 00         [10] 4149 	ld	bc, #0x000d
    00001A2C 09               [11] 4150 	add	hl, bc
    00001A2D C1               [10] 4151 	pop	bc
    00001A2E 7E               [ 7] 4152 	ld	a, (hl)
    00001A2F B7               [ 4] 4153 	or	a, a
    00001A30 28 11            [12] 4154 	jr	Z, 00601$
                                   4155 ;E:\Dropbox\FAUSTO\SVILUPPI\MSX\CODE\C\MSXgl\projects\exsoccer/exsoccer_s22_b2.c:816: if (g_Players[k].Y > g_Players[playerId].Y) teammatesAhead++;
    00001A32 DD 6E F7         [19] 4156 	ld	l, -9 (ix)
    00001A35 DD 66 F8         [19] 4157 	ld	h, -8 (ix)
    00001A38 7E               [ 7] 4158 	ld	a, (hl)
    00001A39 23               [ 6] 4159 	inc	hl
    00001A3A 56               [ 7] 4160 	ld	d, (hl)
    00001A3B 6F               [ 4] 4161 	ld	l, a
                                   4162 ;	spillPairReg hl
                                   4163 ;	spillPairReg hl
    00001A3C 79               [ 4] 4164 	ld	a, c
    00001A3D 95               [ 4] 4165 	sub	a, l
    00001A3E 78               [ 4] 4166 	ld	a, b
    00001A3F 9A               [ 4] 4167 	sbc	a, d
    00001A40 30 01            [12] 4168 	jr	NC, 00601$
    00001A42 1C               [ 4] 4169 	inc	e
    00001A43                       4170 00601$:
                                   4171 ;E:\Dropbox\FAUSTO\SVILUPPI\MSX\CODE\C\MSXgl\projects\exsoccer/exsoccer_s22_b2.c:813: for(u8 k=0; k<14; k++) {
    00001A43 DD 34 FC         [23] 4172 	inc	-4 (ix)
    00001A46 C3rE5r19         [10] 4173 	jp	00713$
    00001A49                       4174 00602$:
                                   4175 ;E:\Dropbox\FAUSTO\SVILUPPI\MSX\CODE\C\MSXgl\projects\exsoccer/exsoccer_s22_b2.c:751: if (playerTeamId == TEAM_1) { if (g_Ball.Y > chaserY) chaserBeaten = true; } 
    00001A49 ED 4Br00r00      [20] 4176 	ld	bc, (#_g_Ball + 0)
                                   4177 ;E:\Dropbox\FAUSTO\SVILUPPI\MSX\CODE\C\MSXgl\projects\exsoccer/exsoccer_s22_b2.c:757: if (playerTeamId == TEAM_1) g_Players[playerId].TargetY = g_Ball.Y + 15;
                                   4178 ;E:\Dropbox\FAUSTO\SVILUPPI\MSX\CODE\C\MSXgl\projects\exsoccer/exsoccer_s22_b2.c:820: if (teammatesAhead < 2 || g_Ball.Y < 200) {
    00001A4D 7B               [ 4] 4179 	ld	a, e
    00001A4E D6 02            [ 7] 4180 	sub	a, #0x02
    00001A50 38 08            [12] 4181 	jr	C, 00607$
    00001A52 79               [ 4] 4182 	ld	a, c
    00001A53 D6 C8            [ 7] 4183 	sub	a, #0xc8
    00001A55 78               [ 4] 4184 	ld	a, b
    00001A56 DE 00            [ 7] 4185 	sbc	a, #0x00
    00001A58 30 29            [12] 4186 	jr	NC, 00608$
    00001A5A                       4187 00607$:
                                   4188 ;E:\Dropbox\FAUSTO\SVILUPPI\MSX\CODE\C\MSXgl\projects\exsoccer/exsoccer_s22_b2.c:822: if (g_Ball.Y < defenseLineY + 40) {
    00001A5A 79               [ 4] 4189 	ld	a, c
    00001A5B D6 AA            [ 7] 4190 	sub	a, #0xaa
    00001A5D 78               [ 4] 4191 	ld	a, b
    00001A5E DE 00            [ 7] 4192 	sbc	a, #0x00
    00001A60 30 21            [12] 4193 	jr	NC, 00608$
                                   4194 ;E:\Dropbox\FAUSTO\SVILUPPI\MSX\CODE\C\MSXgl\projects\exsoccer/exsoccer_s22_b2.c:823: defenseLineY = g_Ball.Y - 15;
    00001A62 79               [ 4] 4195 	ld	a, c
    00001A63 C6 F1            [ 7] 4196 	add	a, #0xf1
    00001A65 4F               [ 4] 4197 	ld	c, a
    00001A66 78               [ 4] 4198 	ld	a, b
    00001A67 CE FF            [ 7] 4199 	adc	a, #0xff
    00001A69 DD 71 F5         [19] 4200 	ld	-11 (ix), c
    00001A6C DD 77 F6         [19] 4201 	ld	-10 (ix), a
                                   4202 ;E:\Dropbox\FAUSTO\SVILUPPI\MSX\CODE\C\MSXgl\projects\exsoccer/exsoccer_s22_b2.c:824: if (defenseLineY < FIELD_BOUND_Y_TOP + 10) defenseLineY = FIELD_BOUND_Y_TOP + 10;
    00001A6F DD 7E F5         [19] 4203 	ld	a, -11 (ix)
    00001A72 D6 3C            [ 7] 4204 	sub	a, #0x3c
    00001A74 DD 7E F6         [19] 4205 	ld	a, -10 (ix)
    00001A77 DE 00            [ 7] 4206 	sbc	a, #0x00
    00001A79 30 08            [12] 4207 	jr	NC, 00608$
    00001A7B DD 36 F5 3C      [19] 4208 	ld	-11 (ix), #0x3c
    00001A7F DD 36 F6 00      [19] 4209 	ld	-10 (ix), #0
    00001A83                       4210 00608$:
                                   4211 ;E:\Dropbox\FAUSTO\SVILUPPI\MSX\CODE\C\MSXgl\projects\exsoccer/exsoccer_s22_b2.c:827: g_Players[playerId].TargetY = defenseLineY;
    00001A83 E1               [10] 4212 	pop	hl
    00001A84 E5               [11] 4213 	push	hl
    00001A85 11 0E 00         [10] 4214 	ld	de, #0x000e
    00001A88 19               [11] 4215 	add	hl, de
    00001A89 DD 7E F5         [19] 4216 	ld	a, -11 (ix)
    00001A8C 77               [ 7] 4217 	ld	(hl), a
    00001A8D 23               [ 6] 4218 	inc	hl
    00001A8E DD 7E F6         [19] 4219 	ld	a, -10 (ix)
    00001A91 77               [ 7] 4220 	ld	(hl), a
    00001A92                       4221 00618$:
                                   4222 ;E:\Dropbox\FAUSTO\SVILUPPI\MSX\CODE\C\MSXgl\projects\exsoccer/exsoccer_s22_b2.c:831: if (g_Players[playerId].Role % 2 != 0) {
    00001A92 DD 6E F9         [19] 4223 	ld	l, -7 (ix)
    00001A95 DD 66 FA         [19] 4224 	ld	h, -6 (ix)
    00001A98 7E               [ 7] 4225 	ld	a, (hl)
    00001A99 E6 01            [ 7] 4226 	and	a, #0x01
    00001A9B 4F               [ 4] 4227 	ld	c, a
    00001A9C 06 00            [ 7] 4228 	ld	b, #0x00
                                   4229 ;E:\Dropbox\FAUSTO\SVILUPPI\MSX\CODE\C\MSXgl\projects\exsoccer/exsoccer_s22_b2.c:463: g_Players[playerId].TargetX = finalTargetX;
    00001A9E DD 7E DA         [19] 4230 	ld	a, -38 (ix)
    00001AA1 C6 10            [ 7] 4231 	add	a, #0x10
    00001AA3 DD 77 F7         [19] 4232 	ld	-9 (ix), a
    00001AA6 DD 7E DB         [19] 4233 	ld	a, -37 (ix)
    00001AA9 CE 00            [ 7] 4234 	adc	a, #0x00
    00001AAB DD 77 F8         [19] 4235 	ld	-8 (ix), a
                                   4236 ;E:\Dropbox\FAUSTO\SVILUPPI\MSX\CODE\C\MSXgl\projects\exsoccer/exsoccer_s22_b2.c:756: g_Players[playerId].TargetX = g_Ball.X;
                                   4237 ;E:\Dropbox\FAUSTO\SVILUPPI\MSX\CODE\C\MSXgl\projects\exsoccer/exsoccer_s22_b2.c:834: u16 intendedX = g_Ball.X - 40;
    00001AAE 2Ar02r00         [16] 4238 	ld	hl, (#_g_Ball + 2)
    00001AB1 DD 75 F9         [19] 4239 	ld	-7 (ix), l
    00001AB4 DD 74 FA         [19] 4240 	ld	-6 (ix), h
                                   4241 ;E:\Dropbox\FAUSTO\SVILUPPI\MSX\CODE\C\MSXgl\projects\exsoccer/exsoccer_s22_b2.c:831: if (g_Players[playerId].Role % 2 != 0) {
    00001AB7 78               [ 4] 4242 	ld	a, b
    00001AB8 B1               [ 4] 4243 	or	a, c
    00001AB9 28 2F            [12] 4244 	jr	Z, 00626$
                                   4245 ;E:\Dropbox\FAUSTO\SVILUPPI\MSX\CODE\C\MSXgl\projects\exsoccer/exsoccer_s22_b2.c:834: u16 intendedX = g_Ball.X - 40;
    00001ABB DD 7E F9         [19] 4246 	ld	a, -7 (ix)
    00001ABE C6 D8            [ 7] 4247 	add	a, #0xd8
    00001AC0 4F               [ 4] 4248 	ld	c, a
    00001AC1 DD 7E FA         [19] 4249 	ld	a, -6 (ix)
    00001AC4 CE FF            [ 7] 4250 	adc	a, #0xff
    00001AC6 47               [ 4] 4251 	ld	b, a
                                   4252 ;E:\Dropbox\FAUSTO\SVILUPPI\MSX\CODE\C\MSXgl\projects\exsoccer/exsoccer_s22_b2.c:835: if (g_Ball.X > FIELD_POS_X_CENTER && intendedX > FIELD_POS_X_CENTER + 20) {
    00001AC7 3E 78            [ 7] 4253 	ld	a, #0x78
    00001AC9 DD BE F9         [19] 4254 	cp	a, -7 (ix)
    00001ACC 3E 00            [ 7] 4255 	ld	a, #0x00
    00001ACE DD 9E FA         [19] 4256 	sbc	a, -6 (ix)
    00001AD1 30 0B            [12] 4257 	jr	NC, 00620$
    00001AD3 3E 8C            [ 7] 4258 	ld	a, #0x8c
    00001AD5 B9               [ 4] 4259 	cp	a, c
    00001AD6 3E 00            [ 7] 4260 	ld	a, #0x00
    00001AD8 98               [ 4] 4261 	sbc	a, b
    00001AD9 30 03            [12] 4262 	jr	NC, 00620$
                                   4263 ;E:\Dropbox\FAUSTO\SVILUPPI\MSX\CODE\C\MSXgl\projects\exsoccer/exsoccer_s22_b2.c:836: intendedX = FIELD_POS_X_CENTER + 20; // Stay central
    00001ADB 01 8C 00         [10] 4264 	ld	bc, #0x008c
    00001ADE                       4265 00620$:
                                   4266 ;E:\Dropbox\FAUSTO\SVILUPPI\MSX\CODE\C\MSXgl\projects\exsoccer/exsoccer_s22_b2.c:838: g_Players[playerId].TargetX = intendedX; 
    00001ADE DD 6E F7         [19] 4267 	ld	l, -9 (ix)
    00001AE1 DD 66 F8         [19] 4268 	ld	h, -8 (ix)
    00001AE4 71               [ 7] 4269 	ld	(hl), c
    00001AE5 23               [ 6] 4270 	inc	hl
    00001AE6 70               [ 7] 4271 	ld	(hl), b
    00001AE7 C3r29r1B         [10] 4272 	jp	00627$
    00001AEA                       4273 00626$:
                                   4274 ;E:\Dropbox\FAUSTO\SVILUPPI\MSX\CODE\C\MSXgl\projects\exsoccer/exsoccer_s22_b2.c:843: u16 intendedX = g_Ball.X + 40;
    00001AEA DD 6E F9         [19] 4275 	ld	l, -7 (ix)
    00001AED DD 66 FA         [19] 4276 	ld	h, -6 (ix)
    00001AF0 11 28 00         [10] 4277 	ld	de, #0x0028
    00001AF3 19               [11] 4278 	add	hl, de
    00001AF4 DD 75 FB         [19] 4279 	ld	-5 (ix), l
    00001AF7 DD 74 FC         [19] 4280 	ld	-4 (ix), h
                                   4281 ;E:\Dropbox\FAUSTO\SVILUPPI\MSX\CODE\C\MSXgl\projects\exsoccer/exsoccer_s22_b2.c:844: if (g_Ball.X < FIELD_POS_X_CENTER && intendedX < FIELD_POS_X_CENTER - 20) {
    00001AFA DD 7E F9         [19] 4282 	ld	a, -7 (ix)
    00001AFD D6 78            [ 7] 4283 	sub	a, #0x78
    00001AFF DD 7E FA         [19] 4284 	ld	a, -6 (ix)
    00001B02 DE 00            [ 7] 4285 	sbc	a, #0x00
    00001B04 30 14            [12] 4286 	jr	NC, 00623$
    00001B06 DD 7E FB         [19] 4287 	ld	a, -5 (ix)
    00001B09 D6 64            [ 7] 4288 	sub	a, #0x64
    00001B0B DD 7E FC         [19] 4289 	ld	a, -4 (ix)
    00001B0E DE 00            [ 7] 4290 	sbc	a, #0x00
    00001B10 30 08            [12] 4291 	jr	NC, 00623$
                                   4292 ;E:\Dropbox\FAUSTO\SVILUPPI\MSX\CODE\C\MSXgl\projects\exsoccer/exsoccer_s22_b2.c:845: intendedX = FIELD_POS_X_CENTER - 20; // Stay central
    00001B12 DD 36 FB 64      [19] 4293 	ld	-5 (ix), #0x64
    00001B16 DD 36 FC 00      [19] 4294 	ld	-4 (ix), #0
    00001B1A                       4295 00623$:
                                   4296 ;E:\Dropbox\FAUSTO\SVILUPPI\MSX\CODE\C\MSXgl\projects\exsoccer/exsoccer_s22_b2.c:847: g_Players[playerId].TargetX = intendedX; 
    00001B1A DD 6E F7         [19] 4297 	ld	l, -9 (ix)
    00001B1D DD 66 F8         [19] 4298 	ld	h, -8 (ix)
    00001B20 DD 7E FB         [19] 4299 	ld	a, -5 (ix)
    00001B23 77               [ 7] 4300 	ld	(hl), a
    00001B24 23               [ 6] 4301 	inc	hl
    00001B25 DD 7E FC         [19] 4302 	ld	a, -4 (ix)
    00001B28 77               [ 7] 4303 	ld	(hl), a
    00001B29                       4304 00627$:
                                   4305 ;E:\Dropbox\FAUSTO\SVILUPPI\MSX\CODE\C\MSXgl\projects\exsoccer/exsoccer_s22_b2.c:850: if (g_Players[playerId].TargetX < FIELD_BOUND_X_LEFT + 20) g_Players[playerId].TargetX = FIELD_BOUND_X_LEFT + 20;
    00001B29 DD 6E F7         [19] 4306 	ld	l, -9 (ix)
    00001B2C DD 66 F8         [19] 4307 	ld	h, -8 (ix)
    00001B2F 4E               [ 7] 4308 	ld	c, (hl)
    00001B30 23               [ 6] 4309 	inc	hl
    00001B31 46               [ 7] 4310 	ld	b, (hl)
    00001B32 79               [ 4] 4311 	ld	a, c
    00001B33 D6 1E            [ 7] 4312 	sub	a, #0x1e
    00001B35 78               [ 4] 4313 	ld	a, b
    00001B36 DE 00            [ 7] 4314 	sbc	a, #0x00
    00001B38 30 0B            [12] 4315 	jr	NC, 00629$
    00001B3A DD 6E F7         [19] 4316 	ld	l, -9 (ix)
    00001B3D DD 66 F8         [19] 4317 	ld	h, -8 (ix)
    00001B40 36 1E            [10] 4318 	ld	(hl), #0x1e
    00001B42 23               [ 6] 4319 	inc	hl
    00001B43 36 00            [10] 4320 	ld	(hl), #0x00
    00001B45                       4321 00629$:
                                   4322 ;E:\Dropbox\FAUSTO\SVILUPPI\MSX\CODE\C\MSXgl\projects\exsoccer/exsoccer_s22_b2.c:851: if (g_Players[playerId].TargetX > FIELD_BOUND_X_RIGHT - 20) g_Players[playerId].TargetX = FIELD_BOUND_X_RIGHT - 20;
    00001B45 DD 6E F7         [19] 4323 	ld	l, -9 (ix)
    00001B48 DD 66 F8         [19] 4324 	ld	h, -8 (ix)
    00001B4B 4E               [ 7] 4325 	ld	c, (hl)
    00001B4C 23               [ 6] 4326 	inc	hl
    00001B4D 46               [ 7] 4327 	ld	b, (hl)
    00001B4E 3E E2            [ 7] 4328 	ld	a, #0xe2
    00001B50 B9               [ 4] 4329 	cp	a, c
    00001B51 3E 00            [ 7] 4330 	ld	a, #0x00
    00001B53 98               [ 4] 4331 	sbc	a, b
    00001B54 30 0B            [12] 4332 	jr	NC, 00634$
    00001B56 DD 6E F7         [19] 4333 	ld	l, -9 (ix)
    00001B59 DD 66 F8         [19] 4334 	ld	h, -8 (ix)
    00001B5C 36 E2            [10] 4335 	ld	(hl), #0xe2
    00001B5E 23               [ 6] 4336 	inc	hl
    00001B5F 36 00            [10] 4337 	ld	(hl), #0x00
    00001B61                       4338 00634$:
                                   4339 ;E:\Dropbox\FAUSTO\SVILUPPI\MSX\CODE\C\MSXgl\projects\exsoccer/exsoccer_s22_b2.c:855: if (stats->Aggression >= 15 && !amIEffectiveChaser) {
    00001B61 DD 4E DD         [19] 4340 	ld	c, -35 (ix)
    00001B64 DD 46 DE         [19] 4341 	ld	b, -34 (ix)
    00001B67 03               [ 6] 4342 	inc	bc
    00001B68 0A               [ 7] 4343 	ld	a, (bc)
    00001B69 D6 0F            [ 7] 4344 	sub	a, #0x0f
    00001B6B DAr55r1D         [10] 4345 	jp	C, 01050$
    00001B6E DD 7E FF         [19] 4346 	ld	a, -1 (ix)
    00001B71 B7               [ 4] 4347 	or	a, a
    00001B72 C2r55r1D         [10] 4348 	jp	NZ, 01050$
                                   4349 ;E:\Dropbox\FAUSTO\SVILUPPI\MSX\CODE\C\MSXgl\projects\exsoccer/exsoccer_s22_b2.c:856: u8 bestMark = NO_VALUE;
    00001B75 DD 36 F1 FF      [19] 4350 	ld	-15 (ix), #0xff
                                   4351 ;E:\Dropbox\FAUSTO\SVILUPPI\MSX\CODE\C\MSXgl\projects\exsoccer/exsoccer_s22_b2.c:857: u16 minD = 120; // Look for opponents within this range
    00001B79 DD 36 F2 78      [19] 4352 	ld	-14 (ix), #0x78
    00001B7D DD 36 F3 00      [19] 4353 	ld	-13 (ix), #0
                                   4354 ;E:\Dropbox\FAUSTO\SVILUPPI\MSX\CODE\C\MSXgl\projects\exsoccer/exsoccer_s22_b2.c:859: for(u8 m=0; m<14; m++) {
    00001B81 DD 7E DA         [19] 4355 	ld	a, -38 (ix)
    00001B84 DD 77 F4         [19] 4356 	ld	-12 (ix), a
    00001B87 DD 7E DB         [19] 4357 	ld	a, -37 (ix)
    00001B8A DD 77 F5         [19] 4358 	ld	-11 (ix), a
    00001B8D DD 36 FF 00      [19] 4359 	ld	-1 (ix), #0x00
    00001B91                       4360 00715$:
    00001B91 DD 7E FF         [19] 4361 	ld	a, -1 (ix)
    00001B94 D6 0E            [ 7] 4362 	sub	a, #0x0e
    00001B96 D2r94r1C         [10] 4363 	jp	NC, 00655$
                                   4364 ;E:\Dropbox\FAUSTO\SVILUPPI\MSX\CODE\C\MSXgl\projects\exsoccer/exsoccer_s22_b2.c:860: if (g_Players[m].TeamId == playerTeamId) continue;
    00001B99 DD 4E FF         [19] 4365 	ld	c, -1 (ix)
    00001B9C 06 00            [ 7] 4366 	ld	b, #0x00
    00001B9E 69               [ 4] 4367 	ld	l, c
    00001B9F 60               [ 4] 4368 	ld	h, b
    00001BA0 29               [11] 4369 	add	hl, hl
    00001BA1 29               [11] 4370 	add	hl, hl
    00001BA2 09               [11] 4371 	add	hl, bc
    00001BA3 29               [11] 4372 	add	hl, hl
    00001BA4 29               [11] 4373 	add	hl, hl
    00001BA5 09               [11] 4374 	add	hl, bc
    00001BA6 EB               [ 4] 4375 	ex	de, hl
    00001BA7 21r00r00         [10] 4376 	ld	hl, #_g_Players
    00001BAA 19               [11] 4377 	add	hl, de
    00001BAB DD 75 F6         [19] 4378 	ld	-10 (ix), l
    00001BAE DD 74 F7         [19] 4379 	ld	-9 (ix), h
    00001BB1 01 09 00         [10] 4380 	ld	bc,#9
    00001BB4 09               [11] 4381 	add	hl,bc
    00001BB5 DD 7E DC         [19] 4382 	ld	a,-36 (ix)
    00001BB8 96               [ 7] 4383 	sub	a,(hl)
    00001BB9 CAr8Er1C         [10] 4384 	jp	Z,00654$
                                   4385 ;E:\Dropbox\FAUSTO\SVILUPPI\MSX\CODE\C\MSXgl\projects\exsoccer/exsoccer_s22_b2.c:861: if (m == g_Ball.PossessionPlayerId) continue; // Don't mark ball carrier (chaser handles it)
    00001BBC 21r06r00         [10] 4386 	ld	hl, #(_g_Ball + 6)
    00001BBF DD 7E FF         [19] 4387 	ld	a,-1 (ix)
    00001BC2 96               [ 7] 4388 	sub	a,(hl)
    00001BC3 CAr8Er1C         [10] 4389 	jp	Z,00654$
                                   4390 ;E:\Dropbox\FAUSTO\SVILUPPI\MSX\CODE\C\MSXgl\projects\exsoccer/exsoccer_s22_b2.c:862: if (g_Players[m].Role == PLAYER_ROLE_GOALKEEPER) continue;
    00001BC6 DD 4E F6         [19] 4391 	ld	c, -10 (ix)
    00001BC9 DD 46 F7         [19] 4392 	ld	b, -9 (ix)
    00001BCC 21 0D 00         [10] 4393 	ld	hl, #13
    00001BCF 09               [11] 4394 	add	hl, bc
    00001BD0 7E               [ 7] 4395 	ld	a, (hl)
    00001BD1 B7               [ 4] 4396 	or	a, a
    00001BD2 CAr8Er1C         [10] 4397 	jp	Z, 00654$
                                   4398 ;E:\Dropbox\FAUSTO\SVILUPPI\MSX\CODE\C\MSXgl\projects\exsoccer/exsoccer_s22_b2.c:865: bool inBox = false;
    00001BD5 DD 36 F8 00      [19] 4399 	ld	-8 (ix), #0x00
                                   4400 ;E:\Dropbox\FAUSTO\SVILUPPI\MSX\CODE\C\MSXgl\projects\exsoccer/exsoccer_s22_b2.c:867: if (g_Players[m].Y > PENALTY_BOX_Y_BOTTOM) inBox = true;
    00001BD9 DD 6E F6         [19] 4401 	ld	l, -10 (ix)
    00001BDC DD 66 F7         [19] 4402 	ld	h, -9 (ix)
    00001BDF 7E               [ 7] 4403 	ld	a, (hl)
    00001BE0 DD 77 F9         [19] 4404 	ld	-7 (ix), a
    00001BE3 23               [ 6] 4405 	inc	hl
    00001BE4 7E               [ 7] 4406 	ld	a, (hl)
    00001BE5 DD 77 FA         [19] 4407 	ld	-6 (ix), a
    00001BE8 DD 7E F9         [19] 4408 	ld	a, -7 (ix)
    00001BEB DD 77 FB         [19] 4409 	ld	-5 (ix), a
    00001BEE DD 7E FA         [19] 4410 	ld	a, -6 (ix)
    00001BF1 DD 77 FC         [19] 4411 	ld	-4 (ix), a
                                   4412 ;E:\Dropbox\FAUSTO\SVILUPPI\MSX\CODE\C\MSXgl\projects\exsoccer/exsoccer_s22_b2.c:866: if (playerTeamId == TEAM_1) { // Defending Bottom
    00001BF4 DD 7E FE         [19] 4413 	ld	a, -2 (ix)
    00001BF7 B7               [ 4] 4414 	or	a, a
    00001BF8 28 13            [12] 4415 	jr	Z, 00648$
                                   4416 ;E:\Dropbox\FAUSTO\SVILUPPI\MSX\CODE\C\MSXgl\projects\exsoccer/exsoccer_s22_b2.c:867: if (g_Players[m].Y > PENALTY_BOX_Y_BOTTOM) inBox = true;
    00001BFA 3E 5E            [ 7] 4417 	ld	a, #0x5e
    00001BFC DD BE FB         [19] 4418 	cp	a, -5 (ix)
    00001BFF 3E 01            [ 7] 4419 	ld	a, #0x01
    00001C01 DD 9E FC         [19] 4420 	sbc	a, -4 (ix)
    00001C04 30 17            [12] 4421 	jr	NC, 00649$
    00001C06 DD 36 F8 01      [19] 4422 	ld	-8 (ix), #0x01
    00001C0A C3r1Dr1C         [10] 4423 	jp	00649$
    00001C0D                       4424 00648$:
                                   4425 ;E:\Dropbox\FAUSTO\SVILUPPI\MSX\CODE\C\MSXgl\projects\exsoccer/exsoccer_s22_b2.c:869: if (g_Players[m].Y < PENALTY_BOX_Y_TOP) inBox = true;
    00001C0D DD 7E FB         [19] 4426 	ld	a, -5 (ix)
    00001C10 D6 82            [ 7] 4427 	sub	a, #0x82
    00001C12 DD 7E FC         [19] 4428 	ld	a, -4 (ix)
    00001C15 DE 00            [ 7] 4429 	sbc	a, #0x00
    00001C17 30 04            [12] 4430 	jr	NC, 00649$
    00001C19 DD 36 F8 01      [19] 4431 	ld	-8 (ix), #0x01
    00001C1D                       4432 00649$:
                                   4433 ;E:\Dropbox\FAUSTO\SVILUPPI\MSX\CODE\C\MSXgl\projects\exsoccer/exsoccer_s22_b2.c:871: if (inBox) continue; 
    00001C1D DD 7E F8         [19] 4434 	ld	a, -8 (ix)
    00001C20 B7               [ 4] 4435 	or	a, a
    00001C21 20 6B            [12] 4436 	jr	NZ, 00654$
                                   4437 ;E:\Dropbox\FAUSTO\SVILUPPI\MSX\CODE\C\MSXgl\projects\exsoccer/exsoccer_s22_b2.c:873: i16 mdx = (i16)g_Players[m].X - (i16)g_Players[playerId].X;
    00001C23 DD 6E F6         [19] 4438 	ld	l, -10 (ix)
                                   4439 ;	spillPairReg hl
                                   4440 ;	spillPairReg hl
    00001C26 DD 66 F7         [19] 4441 	ld	h, -9 (ix)
                                   4442 ;	spillPairReg hl
                                   4443 ;	spillPairReg hl
    00001C29 23               [ 6] 4444 	inc	hl
    00001C2A 23               [ 6] 4445 	inc	hl
    00001C2B 4E               [ 7] 4446 	ld	c, (hl)
    00001C2C 23               [ 6] 4447 	inc	hl
    00001C2D 46               [ 7] 4448 	ld	b, (hl)
    00001C2E DD 6E F4         [19] 4449 	ld	l, -12 (ix)
    00001C31 DD 66 F5         [19] 4450 	ld	h, -11 (ix)
    00001C34 23               [ 6] 4451 	inc	hl
    00001C35 23               [ 6] 4452 	inc	hl
    00001C36 5E               [ 7] 4453 	ld	e, (hl)
    00001C37 23               [ 6] 4454 	inc	hl
    00001C38 56               [ 7] 4455 	ld	d, (hl)
    00001C39 79               [ 4] 4456 	ld	a, c
    00001C3A 93               [ 4] 4457 	sub	a, e
    00001C3B 5F               [ 4] 4458 	ld	e, a
    00001C3C 78               [ 4] 4459 	ld	a, b
    00001C3D 9A               [ 4] 4460 	sbc	a, d
    00001C3E 57               [ 4] 4461 	ld	d, a
                                   4462 ;E:\Dropbox\FAUSTO\SVILUPPI\MSX\CODE\C\MSXgl\projects\exsoccer/exsoccer_s22_b2.c:874: i16 mdy = (i16)g_Players[m].Y - (i16)g_Players[playerId].Y;
    00001C3F DD 4E F9         [19] 4463 	ld	c, -7 (ix)
    00001C42 DD 46 FA         [19] 4464 	ld	b, -6 (ix)
    00001C45 E1               [10] 4465 	pop	hl
    00001C46 E5               [11] 4466 	push	hl
    00001C47 7E               [ 7] 4467 	ld	a, (hl)
    00001C48 23               [ 6] 4468 	inc	hl
    00001C49 66               [ 7] 4469 	ld	h, (hl)
                                   4470 ;	spillPairReg hl
    00001C4A 6F               [ 4] 4471 	ld	l, a
                                   4472 ;	spillPairReg hl
                                   4473 ;	spillPairReg hl
    00001C4B 79               [ 4] 4474 	ld	a, c
    00001C4C 95               [ 4] 4475 	sub	a, l
    00001C4D 4F               [ 4] 4476 	ld	c, a
    00001C4E 78               [ 4] 4477 	ld	a, b
    00001C4F 9C               [ 4] 4478 	sbc	a, h
    00001C50 47               [ 4] 4479 	ld	b, a
                                   4480 ;E:\Dropbox\FAUSTO\SVILUPPI\MSX\CODE\C\MSXgl\projects\exsoccer/exsoccer_s22_b2.c:875: u16 dist = (u16)(Math_Abs32_Local(mdx) + Math_Abs32_Local(mdy));
    00001C51 7A               [ 4] 4481 	ld	a, d
    00001C52 07               [ 4] 4482 	rlca
    00001C53 ED 62            [15] 4483 	sbc	hl, hl
    00001C55 C5               [11] 4484 	push	bc
    00001C56 CDr11r1F         [17] 4485 	call	_Math_Abs32_Local
    00001C59 DD 73 F9         [19] 4486 	ld	-7 (ix), e
    00001C5C DD 72 FA         [19] 4487 	ld	-6 (ix), d
    00001C5F DD 75 FB         [19] 4488 	ld	-5 (ix), l
    00001C62 DD 74 FC         [19] 4489 	ld	-4 (ix), h
    00001C65 C1               [10] 4490 	pop	bc
    00001C66 78               [ 4] 4491 	ld	a, b
    00001C67 07               [ 4] 4492 	rlca
    00001C68 ED 62            [15] 4493 	sbc	hl, hl
    00001C6A 59               [ 4] 4494 	ld	e, c
    00001C6B 50               [ 4] 4495 	ld	d, b
    00001C6C CDr11r1F         [17] 4496 	call	_Math_Abs32_Local
    00001C6F DD 4E F9         [19] 4497 	ld	c, -7 (ix)
    00001C72 DD 46 FA         [19] 4498 	ld	b, -6 (ix)
    00001C75 EB               [ 4] 4499 	ex	de, hl
    00001C76 09               [11] 4500 	add	hl, bc
    00001C77 EB               [ 4] 4501 	ex	de, hl
                                   4502 ;E:\Dropbox\FAUSTO\SVILUPPI\MSX\CODE\C\MSXgl\projects\exsoccer/exsoccer_s22_b2.c:877: if (dist < minD) {
    00001C78 7B               [ 4] 4503 	ld	a, e
    00001C79 DD 96 F2         [19] 4504 	sub	a, -14 (ix)
    00001C7C 7A               [ 4] 4505 	ld	a, d
    00001C7D DD 9E F3         [19] 4506 	sbc	a, -13 (ix)
    00001C80 30 0C            [12] 4507 	jr	NC, 00654$
                                   4508 ;E:\Dropbox\FAUSTO\SVILUPPI\MSX\CODE\C\MSXgl\projects\exsoccer/exsoccer_s22_b2.c:878: minD = dist;
    00001C82 DD 73 F2         [19] 4509 	ld	-14 (ix), e
    00001C85 DD 72 F3         [19] 4510 	ld	-13 (ix), d
                                   4511 ;E:\Dropbox\FAUSTO\SVILUPPI\MSX\CODE\C\MSXgl\projects\exsoccer/exsoccer_s22_b2.c:879: bestMark = m;
    00001C88 DD 7E FF         [19] 4512 	ld	a, -1 (ix)
    00001C8B DD 77 F1         [19] 4513 	ld	-15 (ix), a
    00001C8E                       4514 00654$:
                                   4515 ;E:\Dropbox\FAUSTO\SVILUPPI\MSX\CODE\C\MSXgl\projects\exsoccer/exsoccer_s22_b2.c:859: for(u8 m=0; m<14; m++) {
    00001C8E DD 34 FF         [23] 4516 	inc	-1 (ix)
    00001C91 C3r91r1B         [10] 4517 	jp	00715$
    00001C94                       4518 00655$:
                                   4519 ;E:\Dropbox\FAUSTO\SVILUPPI\MSX\CODE\C\MSXgl\projects\exsoccer/exsoccer_s22_b2.c:883: if (bestMark != NO_VALUE) {
    00001C94 DD 7E F1         [19] 4520 	ld	a, -15 (ix)
    00001C97 3C               [ 4] 4521 	inc	a
    00001C98 28 64            [12] 4522 	jr	Z, 00668$
                                   4523 ;E:\Dropbox\FAUSTO\SVILUPPI\MSX\CODE\C\MSXgl\projects\exsoccer/exsoccer_s22_b2.c:885: g_Players[playerId].TargetX = g_Players[bestMark].X;
    00001C9A DD 7E DA         [19] 4524 	ld	a, -38 (ix)
    00001C9D C6 10            [ 7] 4525 	add	a, #0x10
    00001C9F DD 77 FB         [19] 4526 	ld	-5 (ix), a
    00001CA2 DD 7E DB         [19] 4527 	ld	a, -37 (ix)
    00001CA5 CE 00            [ 7] 4528 	adc	a, #0x00
    00001CA7 DD 77 FC         [19] 4529 	ld	-4 (ix), a
    00001CAA DD 4E F1         [19] 4530 	ld	c, -15 (ix)
    00001CAD 06 00            [ 7] 4531 	ld	b, #0x00
    00001CAF 69               [ 4] 4532 	ld	l, c
    00001CB0 60               [ 4] 4533 	ld	h, b
    00001CB1 29               [11] 4534 	add	hl, hl
    00001CB2 29               [11] 4535 	add	hl, hl
    00001CB3 09               [11] 4536 	add	hl, bc
    00001CB4 29               [11] 4537 	add	hl, hl
    00001CB5 29               [11] 4538 	add	hl, hl
    00001CB6 09               [11] 4539 	add	hl, bc
    00001CB7 11r00r00         [10] 4540 	ld	de, #_g_Players
    00001CBA 19               [11] 4541 	add	hl, de
                                   4542 ;	spillPairReg hl
                                   4543 ;	spillPairReg hl
    00001CBB 5D               [ 4] 4544 	ld	e, l
    00001CBC 54               [ 4] 4545 	ld	d, h
                                   4546 ;	spillPairReg hl
                                   4547 ;	spillPairReg hl
    00001CBD 23               [ 6] 4548 	inc	hl
    00001CBE 23               [ 6] 4549 	inc	hl
    00001CBF 4E               [ 7] 4550 	ld	c, (hl)
    00001CC0 23               [ 6] 4551 	inc	hl
    00001CC1 46               [ 7] 4552 	ld	b, (hl)
    00001CC2 DD 6E FB         [19] 4553 	ld	l, -5 (ix)
    00001CC5 DD 66 FC         [19] 4554 	ld	h, -4 (ix)
    00001CC8 71               [ 7] 4555 	ld	(hl), c
    00001CC9 23               [ 6] 4556 	inc	hl
    00001CCA 70               [ 7] 4557 	ld	(hl), b
                                   4558 ;E:\Dropbox\FAUSTO\SVILUPPI\MSX\CODE\C\MSXgl\projects\exsoccer/exsoccer_s22_b2.c:462: g_Players[playerId].TargetY = finalTargetY;
    00001CCB DD 7E DA         [19] 4559 	ld	a, -38 (ix)
    00001CCE C6 0E            [ 7] 4560 	add	a, #0x0e
    00001CD0 4F               [ 4] 4561 	ld	c, a
    00001CD1 DD 7E DB         [19] 4562 	ld	a, -37 (ix)
    00001CD4 CE 00            [ 7] 4563 	adc	a, #0x00
    00001CD6 47               [ 4] 4564 	ld	b, a
                                   4565 ;E:\Dropbox\FAUSTO\SVILUPPI\MSX\CODE\C\MSXgl\projects\exsoccer/exsoccer_s22_b2.c:887: if (playerTeamId == TEAM_1) g_Players[playerId].TargetY = g_Players[bestMark].Y + 12;
    00001CD7 EB               [ 4] 4566 	ex	de,hl
    00001CD8 5E               [ 7] 4567 	ld	e, (hl)
    00001CD9 23               [ 6] 4568 	inc	hl
    00001CDA 56               [ 7] 4569 	ld	d, (hl)
    00001CDB DD 7E FE         [19] 4570 	ld	a, -2 (ix)
    00001CDE B7               [ 4] 4571 	or	a, a
    00001CDF 28 0D            [12] 4572 	jr	Z, 00657$
    00001CE1 21 0C 00         [10] 4573 	ld	hl, #0x000c
    00001CE4 19               [11] 4574 	add	hl, de
    00001CE5 EB               [ 4] 4575 	ex	de, hl
    00001CE6 7B               [ 4] 4576 	ld	a, e
    00001CE7 02               [ 7] 4577 	ld	(bc), a
    00001CE8 03               [ 6] 4578 	inc	bc
    00001CE9 7A               [ 4] 4579 	ld	a, d
    00001CEA 02               [ 7] 4580 	ld	(bc), a
    00001CEB C3r55r1D         [10] 4581 	jp	01050$
    00001CEE                       4582 00657$:
                                   4583 ;E:\Dropbox\FAUSTO\SVILUPPI\MSX\CODE\C\MSXgl\projects\exsoccer/exsoccer_s22_b2.c:888: else g_Players[playerId].TargetY = g_Players[bestMark].Y - 12;
    00001CEE 7B               [ 4] 4584 	ld	a, e
    00001CEF C6 F4            [ 7] 4585 	add	a, #0xf4
    00001CF1 5F               [ 4] 4586 	ld	e, a
    00001CF2 7A               [ 4] 4587 	ld	a, d
    00001CF3 CE FF            [ 7] 4588 	adc	a, #0xff
    00001CF5 57               [ 4] 4589 	ld	d, a
    00001CF6 7B               [ 4] 4590 	ld	a, e
    00001CF7 02               [ 7] 4591 	ld	(bc), a
    00001CF8 03               [ 6] 4592 	inc	bc
    00001CF9 7A               [ 4] 4593 	ld	a, d
    00001CFA 02               [ 7] 4594 	ld	(bc), a
    00001CFB C3r55r1D         [10] 4595 	jp	01050$
    00001CFE                       4596 00668$:
                                   4597 ;E:\Dropbox\FAUSTO\SVILUPPI\MSX\CODE\C\MSXgl\projects\exsoccer/exsoccer_s22_b2.c:891: bool deepDefense = false;
    00001CFE 0E 00            [ 7] 4598 	ld	c, #0x00
                                   4599 ;E:\Dropbox\FAUSTO\SVILUPPI\MSX\CODE\C\MSXgl\projects\exsoccer/exsoccer_s22_b2.c:892: if (playerTeamId == TEAM_1 && g_Ball.Y > PENALTY_BOX_Y_BOTTOM) deepDefense = true;
    00001D00 DD 7E FE         [19] 4600 	ld	a, -2 (ix)
    00001D03 B7               [ 4] 4601 	or	a, a
    00001D04 28 0D            [12] 4602 	jr	Z, 00660$
    00001D06 2Ar00r00         [16] 4603 	ld	hl, (#_g_Ball + 0)
    00001D09 3E 5E            [ 7] 4604 	ld	a, #0x5e
    00001D0B BD               [ 4] 4605 	cp	a, l
    00001D0C 3E 01            [ 7] 4606 	ld	a, #0x01
    00001D0E 9C               [ 4] 4607 	sbc	a, h
    00001D0F 30 02            [12] 4608 	jr	NC, 00660$
    00001D11 0E 01            [ 7] 4609 	ld	c, #0x01
    00001D13                       4610 00660$:
                                   4611 ;E:\Dropbox\FAUSTO\SVILUPPI\MSX\CODE\C\MSXgl\projects\exsoccer/exsoccer_s22_b2.c:893: if (playerTeamId == TEAM_2 && g_Ball.Y < PENALTY_BOX_Y_TOP) deepDefense = true;
    00001D13 DD 7E DC         [19] 4612 	ld	a, -36 (ix)
    00001D16 D6 02            [ 7] 4613 	sub	a, #0x02
    00001D18 20 0D            [12] 4614 	jr	NZ, 00663$
    00001D1A 2Ar00r00         [16] 4615 	ld	hl, (#_g_Ball + 0)
    00001D1D 11 82 00         [10] 4616 	ld	de, #0x0082
    00001D20 BF               [ 4] 4617 	cp	a, a
    00001D21 ED 52            [15] 4618 	sbc	hl, de
    00001D23 30 02            [12] 4619 	jr	NC, 00663$
    00001D25 0E 01            [ 7] 4620 	ld	c, #0x01
    00001D27                       4621 00663$:
                                   4622 ;E:\Dropbox\FAUSTO\SVILUPPI\MSX\CODE\C\MSXgl\projects\exsoccer/exsoccer_s22_b2.c:895: if (deepDefense) {
    00001D27 79               [ 4] 4623 	ld	a, c
    00001D28 B7               [ 4] 4624 	or	a, a
    00001D29 28 2A            [12] 4625 	jr	Z, 01050$
                                   4626 ;E:\Dropbox\FAUSTO\SVILUPPI\MSX\CODE\C\MSXgl\projects\exsoccer/exsoccer_s22_b2.c:896: g_Players[playerId].TargetX = g_Ball.X;
    00001D2B DD 7E DA         [19] 4627 	ld	a, -38 (ix)
    00001D2E C6 10            [ 7] 4628 	add	a, #0x10
    00001D30 4F               [ 4] 4629 	ld	c, a
    00001D31 DD 7E DB         [19] 4630 	ld	a, -37 (ix)
    00001D34 CE 00            [ 7] 4631 	adc	a, #0x00
    00001D36 47               [ 4] 4632 	ld	b, a
    00001D37 ED 5Br02r00      [20] 4633 	ld	de, (#_g_Ball + 2)
    00001D3B 7B               [ 4] 4634 	ld	a, e
    00001D3C 02               [ 7] 4635 	ld	(bc), a
    00001D3D 03               [ 6] 4636 	inc	bc
    00001D3E 7A               [ 4] 4637 	ld	a, d
    00001D3F 02               [ 7] 4638 	ld	(bc), a
                                   4639 ;E:\Dropbox\FAUSTO\SVILUPPI\MSX\CODE\C\MSXgl\projects\exsoccer/exsoccer_s22_b2.c:897: g_Players[playerId].TargetY = g_Ball.Y;
    00001D40 DD 7E DA         [19] 4640 	ld	a, -38 (ix)
    00001D43 C6 0E            [ 7] 4641 	add	a, #0x0e
    00001D45 4F               [ 4] 4642 	ld	c, a
    00001D46 DD 7E DB         [19] 4643 	ld	a, -37 (ix)
    00001D49 CE 00            [ 7] 4644 	adc	a, #0x00
    00001D4B 47               [ 4] 4645 	ld	b, a
    00001D4C ED 5Br00r00      [20] 4646 	ld	de, (#_g_Ball + 0)
    00001D50 7B               [ 4] 4647 	ld	a, e
    00001D51 02               [ 7] 4648 	ld	(bc), a
    00001D52 03               [ 6] 4649 	inc	bc
    00001D53 7A               [ 4] 4650 	ld	a, d
    00001D54 02               [ 7] 4651 	ld	(bc), a
                                   4652 ;E:\Dropbox\FAUSTO\SVILUPPI\MSX\CODE\C\MSXgl\projects\exsoccer/exsoccer_s22_b2.c:903: for(u8 i=0; i<14; i++) {
    00001D55                       4653 01050$:
    00001D55 DD 36 FF 00      [19] 4654 	ld	-1 (ix), #0x00
    00001D59                       4655 00717$:
    00001D59 DD 7E FF         [19] 4656 	ld	a, -1 (ix)
    00001D5C D6 0E            [ 7] 4657 	sub	a, #0x0e
    00001D5E D2rB0r1E         [10] 4658 	jp	NC, 00691$
                                   4659 ;E:\Dropbox\FAUSTO\SVILUPPI\MSX\CODE\C\MSXgl\projects\exsoccer/exsoccer_s22_b2.c:904: if (i == playerId) continue;
    00001D61 DD 7E FD         [19] 4660 	ld	a, -3 (ix)
    00001D64 DD 96 FF         [19] 4661 	sub	a, -1 (ix)
    00001D67 CArAAr1E         [10] 4662 	jp	Z,00690$
                                   4663 ;E:\Dropbox\FAUSTO\SVILUPPI\MSX\CODE\C\MSXgl\projects\exsoccer/exsoccer_s22_b2.c:905: if (g_Players[i].TeamId != playerTeamId) continue;
    00001D6A DD 4E FF         [19] 4664 	ld	c, -1 (ix)
    00001D6D 06 00            [ 7] 4665 	ld	b, #0x00
    00001D6F 69               [ 4] 4666 	ld	l, c
    00001D70 60               [ 4] 4667 	ld	h, b
    00001D71 29               [11] 4668 	add	hl, hl
    00001D72 29               [11] 4669 	add	hl, hl
    00001D73 09               [11] 4670 	add	hl, bc
    00001D74 29               [11] 4671 	add	hl, hl
    00001D75 29               [11] 4672 	add	hl, hl
    00001D76 09               [11] 4673 	add	hl, bc
    00001D77 EB               [ 4] 4674 	ex	de, hl
    00001D78 21r00r00         [10] 4675 	ld	hl, #_g_Players
    00001D7B 19               [11] 4676 	add	hl, de
    00001D7C EB               [ 4] 4677 	ex	de, hl
    00001D7D 4B               [ 4] 4678 	ld	c, e
    00001D7E 42               [ 4] 4679 	ld	b, d
    00001D7F 21 09 00         [10] 4680 	ld	hl, #9
    00001D82 09               [11] 4681 	add	hl, bc
    00001D83 DD 7E DC         [19] 4682 	ld	a,-36 (ix)
    00001D86 96               [ 7] 4683 	sub	a,(hl)
    00001D87 C2rAAr1E         [10] 4684 	jp	NZ,00690$
                                   4685 ;E:\Dropbox\FAUSTO\SVILUPPI\MSX\CODE\C\MSXgl\projects\exsoccer/exsoccer_s22_b2.c:906: if (g_Players[i].Role == PLAYER_ROLE_GOALKEEPER) continue;
    00001D8A 4B               [ 4] 4686 	ld	c, e
    00001D8B 42               [ 4] 4687 	ld	b, d
    00001D8C 21 0D 00         [10] 4688 	ld	hl, #13
    00001D8F 09               [11] 4689 	add	hl, bc
    00001D90 7E               [ 7] 4690 	ld	a, (hl)
    00001D91 B7               [ 4] 4691 	or	a, a
    00001D92 CArAAr1E         [10] 4692 	jp	Z, 00690$
                                   4693 ;E:\Dropbox\FAUSTO\SVILUPPI\MSX\CODE\C\MSXgl\projects\exsoccer/exsoccer_s22_b2.c:907: i16 dx = (i16)g_Players[playerId].TargetX - (i16)g_Players[i].X;
    00001D95 DD 7E DA         [19] 4694 	ld	a, -38 (ix)
    00001D98 C6 10            [ 7] 4695 	add	a, #0x10
    00001D9A DD 77 F3         [19] 4696 	ld	-13 (ix), a
    00001D9D DD 7E DB         [19] 4697 	ld	a, -37 (ix)
    00001DA0 CE 00            [ 7] 4698 	adc	a, #0x00
    00001DA2 DD 77 F4         [19] 4699 	ld	-12 (ix), a
    00001DA5 DD 6E F3         [19] 4700 	ld	l, -13 (ix)
    00001DA8 DD 66 F4         [19] 4701 	ld	h, -12 (ix)
    00001DAB 7E               [ 7] 4702 	ld	a, (hl)
    00001DAC DD 77 FB         [19] 4703 	ld	-5 (ix), a
    00001DAF 23               [ 6] 4704 	inc	hl
    00001DB0 7E               [ 7] 4705 	ld	a, (hl)
    00001DB1 DD 77 FC         [19] 4706 	ld	-4 (ix), a
    00001DB4 DD 4E FB         [19] 4707 	ld	c, -5 (ix)
    00001DB7 DD 46 FC         [19] 4708 	ld	b, -4 (ix)
    00001DBA 6B               [ 4] 4709 	ld	l, e
                                   4710 ;	spillPairReg hl
                                   4711 ;	spillPairReg hl
    00001DBB 62               [ 4] 4712 	ld	h, d
                                   4713 ;	spillPairReg hl
                                   4714 ;	spillPairReg hl
    00001DBC 23               [ 6] 4715 	inc	hl
    00001DBD 23               [ 6] 4716 	inc	hl
    00001DBE 7E               [ 7] 4717 	ld	a, (hl)
    00001DBF 23               [ 6] 4718 	inc	hl
    00001DC0 66               [ 7] 4719 	ld	h, (hl)
                                   4720 ;	spillPairReg hl
    00001DC1 6F               [ 4] 4721 	ld	l, a
                                   4722 ;	spillPairReg hl
                                   4723 ;	spillPairReg hl
    00001DC2 79               [ 4] 4724 	ld	a, c
    00001DC3 95               [ 4] 4725 	sub	a, l
    00001DC4 4F               [ 4] 4726 	ld	c, a
    00001DC5 78               [ 4] 4727 	ld	a, b
    00001DC6 9C               [ 4] 4728 	sbc	a, h
    00001DC7 47               [ 4] 4729 	ld	b, a
                                   4730 ;E:\Dropbox\FAUSTO\SVILUPPI\MSX\CODE\C\MSXgl\projects\exsoccer/exsoccer_s22_b2.c:908: i16 dy = (i16)g_Players[playerId].TargetY - (i16)g_Players[i].Y;
    00001DC8 DD 7E DA         [19] 4731 	ld	a, -38 (ix)
    00001DCB C6 0E            [ 7] 4732 	add	a, #0x0e
    00001DCD DD 77 F5         [19] 4733 	ld	-11 (ix), a
    00001DD0 DD 7E DB         [19] 4734 	ld	a, -37 (ix)
    00001DD3 CE 00            [ 7] 4735 	adc	a, #0x00
    00001DD5 DD 77 F6         [19] 4736 	ld	-10 (ix), a
    00001DD8 DD 6E F5         [19] 4737 	ld	l, -11 (ix)
    00001DDB DD 66 F6         [19] 4738 	ld	h, -10 (ix)
    00001DDE 23               [ 6] 4739 	inc	hl
    00001DDF 7E               [ 7] 4740 	ld	a, (hl)
    00001DE0 2B               [ 6] 4741 	dec	hl
    00001DE1 6E               [ 7] 4742 	ld	l, (hl)
                                   4743 ;	spillPairReg hl
    00001DE2 DD 75 F9         [19] 4744 	ld	-7 (ix), l
    00001DE5 DD 77 FA         [19] 4745 	ld	-6 (ix), a
    00001DE8 EB               [ 4] 4746 	ex	de,hl
    00001DE9 5E               [ 7] 4747 	ld	e, (hl)
    00001DEA 23               [ 6] 4748 	inc	hl
    00001DEB 56               [ 7] 4749 	ld	d, (hl)
    00001DEC DD 7E F9         [19] 4750 	ld	a, -7 (ix)
    00001DEF 93               [ 4] 4751 	sub	a, e
    00001DF0 5F               [ 4] 4752 	ld	e, a
    00001DF1 DD 7E FA         [19] 4753 	ld	a, -6 (ix)
    00001DF4 9A               [ 4] 4754 	sbc	a, d
    00001DF5 57               [ 4] 4755 	ld	d, a
                                   4756 ;E:\Dropbox\FAUSTO\SVILUPPI\MSX\CODE\C\MSXgl\projects\exsoccer/exsoccer_s22_b2.c:909: if (dx > -60 && dx < 60 && dy > -60 && dy < 60) {
    00001DF6 3E C4            [ 7] 4757 	ld	a, #0xc4
    00001DF8 B9               [ 4] 4758 	cp	a, c
    00001DF9 3E FF            [ 7] 4759 	ld	a, #0xff
    00001DFB 98               [ 4] 4760 	sbc	a, b
    00001DFC E2r01r1E         [10] 4761 	jp	PO, 02411$
    00001DFF EE 80            [ 7] 4762 	xor	a, #0x80
    00001E01                       4763 02411$:
    00001E01 F2rAAr1E         [10] 4764 	jp	P, 00690$
    00001E04 79               [ 4] 4765 	ld	a, c
    00001E05 D6 3C            [ 7] 4766 	sub	a, #0x3c
    00001E07 78               [ 4] 4767 	ld	a, b
    00001E08 17               [ 4] 4768 	rla
    00001E09 3F               [ 4] 4769 	ccf
    00001E0A 1F               [ 4] 4770 	rra
    00001E0B DE 80            [ 7] 4771 	sbc	a, #0x80
    00001E0D D2rAAr1E         [10] 4772 	jp	NC, 00690$
    00001E10 3E C4            [ 7] 4773 	ld	a, #0xc4
    00001E12 BB               [ 4] 4774 	cp	a, e
    00001E13 3E FF            [ 7] 4775 	ld	a, #0xff
    00001E15 9A               [ 4] 4776 	sbc	a, d
    00001E16 E2r1Br1E         [10] 4777 	jp	PO, 02412$
    00001E19 EE 80            [ 7] 4778 	xor	a, #0x80
    00001E1B                       4779 02412$:
    00001E1B F2rAAr1E         [10] 4780 	jp	P, 00690$
    00001E1E DD 73 F7         [19] 4781 	ld	-9 (ix), e
    00001E21 DD 72 F8         [19] 4782 	ld	-8 (ix), d
    00001E24 DD 7E F7         [19] 4783 	ld	a, -9 (ix)
    00001E27 D6 3C            [ 7] 4784 	sub	a, #0x3c
    00001E29 DD 7E F8         [19] 4785 	ld	a, -8 (ix)
    00001E2C 17               [ 4] 4786 	rla
    00001E2D 3F               [ 4] 4787 	ccf
    00001E2E 1F               [ 4] 4788 	rra
    00001E2F DE 80            [ 7] 4789 	sbc	a, #0x80
    00001E31 30 77            [12] 4790 	jr	NC, 00690$
                                   4791 ;E:\Dropbox\FAUSTO\SVILUPPI\MSX\CODE\C\MSXgl\projects\exsoccer/exsoccer_s22_b2.c:910: if (dx >= 0) g_Players[playerId].TargetX += 12; else g_Players[playerId].TargetX -= 12;
    00001E33 DD 7E FB         [19] 4792 	ld	a, -5 (ix)
    00001E36 DD 77 F9         [19] 4793 	ld	-7 (ix), a
    00001E39 DD 7E FC         [19] 4794 	ld	a, -4 (ix)
    00001E3C DD 77 FA         [19] 4795 	ld	-6 (ix), a
    00001E3F CB 78            [ 8] 4796 	bit	7, b
    00001E41 20 17            [12] 4797 	jr	NZ, 00680$
    00001E43 DD 6E F9         [19] 4798 	ld	l, -7 (ix)
    00001E46 DD 66 FA         [19] 4799 	ld	h, -6 (ix)
    00001E49 11 0C 00         [10] 4800 	ld	de, #0x000c
    00001E4C 19               [11] 4801 	add	hl, de
    00001E4D EB               [ 4] 4802 	ex	de, hl
    00001E4E DD 6E F3         [19] 4803 	ld	l, -13 (ix)
    00001E51 DD 66 F4         [19] 4804 	ld	h, -12 (ix)
    00001E54 73               [ 7] 4805 	ld	(hl), e
    00001E55 23               [ 6] 4806 	inc	hl
    00001E56 72               [ 7] 4807 	ld	(hl), d
    00001E57 C3r79r1E         [10] 4808 	jp	00681$
    00001E5A                       4809 00680$:
    00001E5A DD 7E F9         [19] 4810 	ld	a, -7 (ix)
    00001E5D C6 F4            [ 7] 4811 	add	a, #0xf4
    00001E5F DD 77 FB         [19] 4812 	ld	-5 (ix), a
    00001E62 DD 7E FA         [19] 4813 	ld	a, -6 (ix)
    00001E65 CE FF            [ 7] 4814 	adc	a, #0xff
    00001E67 DD 77 FC         [19] 4815 	ld	-4 (ix), a
    00001E6A DD 4E FB         [19] 4816 	ld	c, -5 (ix)
    00001E6D DD 46 FC         [19] 4817 	ld	b, -4 (ix)
    00001E70 DD 6E F3         [19] 4818 	ld	l, -13 (ix)
    00001E73 DD 66 F4         [19] 4819 	ld	h, -12 (ix)
    00001E76 71               [ 7] 4820 	ld	(hl), c
    00001E77 23               [ 6] 4821 	inc	hl
    00001E78 70               [ 7] 4822 	ld	(hl), b
    00001E79                       4823 00681$:
                                   4824 ;E:\Dropbox\FAUSTO\SVILUPPI\MSX\CODE\C\MSXgl\projects\exsoccer/exsoccer_s22_b2.c:908: i16 dy = (i16)g_Players[playerId].TargetY - (i16)g_Players[i].Y;
    00001E79 DD 6E F5         [19] 4825 	ld	l, -11 (ix)
    00001E7C DD 66 F6         [19] 4826 	ld	h, -10 (ix)
    00001E7F 4E               [ 7] 4827 	ld	c, (hl)
    00001E80 23               [ 6] 4828 	inc	hl
    00001E81 46               [ 7] 4829 	ld	b, (hl)
                                   4830 ;E:\Dropbox\FAUSTO\SVILUPPI\MSX\CODE\C\MSXgl\projects\exsoccer/exsoccer_s22_b2.c:911: if (dy >= 0) g_Players[playerId].TargetY += 12; else g_Players[playerId].TargetY -= 12;
    00001E82 DD CB F8 7E      [20] 4831 	bit	7, -8 (ix)
    00001E86 20 11            [12] 4832 	jr	NZ, 00683$
    00001E88 21 0C 00         [10] 4833 	ld	hl, #0x000c
    00001E8B 09               [11] 4834 	add	hl, bc
    00001E8C EB               [ 4] 4835 	ex	de, hl
    00001E8D DD 6E F5         [19] 4836 	ld	l, -11 (ix)
    00001E90 DD 66 F6         [19] 4837 	ld	h, -10 (ix)
    00001E93 73               [ 7] 4838 	ld	(hl), e
    00001E94 23               [ 6] 4839 	inc	hl
    00001E95 72               [ 7] 4840 	ld	(hl), d
    00001E96 C3rAAr1E         [10] 4841 	jp	00690$
    00001E99                       4842 00683$:
    00001E99 79               [ 4] 4843 	ld	a, c
    00001E9A C6 F4            [ 7] 4844 	add	a, #0xf4
    00001E9C 4F               [ 4] 4845 	ld	c, a
    00001E9D 78               [ 4] 4846 	ld	a, b
    00001E9E CE FF            [ 7] 4847 	adc	a, #0xff
    00001EA0 47               [ 4] 4848 	ld	b, a
    00001EA1 DD 6E F5         [19] 4849 	ld	l, -11 (ix)
    00001EA4 DD 66 F6         [19] 4850 	ld	h, -10 (ix)
    00001EA7 71               [ 7] 4851 	ld	(hl), c
    00001EA8 23               [ 6] 4852 	inc	hl
    00001EA9 70               [ 7] 4853 	ld	(hl), b
    00001EAA                       4854 00690$:
                                   4855 ;E:\Dropbox\FAUSTO\SVILUPPI\MSX\CODE\C\MSXgl\projects\exsoccer/exsoccer_s22_b2.c:903: for(u8 i=0; i<14; i++) {
    00001EAA DD 34 FF         [23] 4856 	inc	-1 (ix)
    00001EAD C3r59r1D         [10] 4857 	jp	00717$
    00001EB0                       4858 00691$:
                                   4859 ;E:\Dropbox\FAUSTO\SVILUPPI\MSX\CODE\C\MSXgl\projects\exsoccer/exsoccer_s22_b2.c:916: if (g_Players[playerId].TargetY < FIELD_BOUND_Y_TOP) g_Players[playerId].TargetY = FIELD_BOUND_Y_TOP;
    00001EB0 E1               [10] 4860 	pop	hl
    00001EB1 E5               [11] 4861 	push	hl
    00001EB2 11 0E 00         [10] 4862 	ld	de, #0x000e
    00001EB5 19               [11] 4863 	add	hl, de
    00001EB6 4E               [ 7] 4864 	ld	c, (hl)
    00001EB7 23               [ 6] 4865 	inc	hl
    00001EB8 46               [ 7] 4866 	ld	b, (hl)
    00001EB9 2B               [ 6] 4867 	dec	hl
    00001EBA 79               [ 4] 4868 	ld	a, c
    00001EBB D6 32            [ 7] 4869 	sub	a, #0x32
    00001EBD 78               [ 4] 4870 	ld	a, b
    00001EBE DE 00            [ 7] 4871 	sbc	a, #0x00
    00001EC0 30 06            [12] 4872 	jr	NC, 00693$
    00001EC2 36 32            [10] 4873 	ld	(hl), #0x32
    00001EC4 23               [ 6] 4874 	inc	hl
    00001EC5 36 00            [10] 4875 	ld	(hl), #0x00
    00001EC7 2B               [ 6] 4876 	dec	hl
    00001EC8                       4877 00693$:
                                   4878 ;E:\Dropbox\FAUSTO\SVILUPPI\MSX\CODE\C\MSXgl\projects\exsoccer/exsoccer_s22_b2.c:917: if (g_Players[playerId].TargetY > FIELD_BOUND_Y_BOTTOM) g_Players[playerId].TargetY = FIELD_BOUND_Y_BOTTOM;
    00001EC8 4E               [ 7] 4879 	ld	c, (hl)
    00001EC9 23               [ 6] 4880 	inc	hl
    00001ECA 46               [ 7] 4881 	ld	b, (hl)
    00001ECB 2B               [ 6] 4882 	dec	hl
    00001ECC 3E AE            [ 7] 4883 	ld	a, #0xae
    00001ECE B9               [ 4] 4884 	cp	a, c
    00001ECF 3E 01            [ 7] 4885 	ld	a, #0x01
    00001ED1 98               [ 4] 4886 	sbc	a, b
    00001ED2 30 05            [12] 4887 	jr	NC, 00695$
    00001ED4 36 AE            [10] 4888 	ld	(hl), #0xae
    00001ED6 23               [ 6] 4889 	inc	hl
    00001ED7 36 01            [10] 4890 	ld	(hl), #0x01
    00001ED9                       4891 00695$:
                                   4892 ;E:\Dropbox\FAUSTO\SVILUPPI\MSX\CODE\C\MSXgl\projects\exsoccer/exsoccer_s22_b2.c:918: if (g_Players[playerId].TargetX < FIELD_BOUND_X_LEFT) g_Players[playerId].TargetX = FIELD_BOUND_X_LEFT;
    00001ED9 DD 7E DA         [19] 4893 	ld	a, -38 (ix)
    00001EDC C6 10            [ 7] 4894 	add	a, #0x10
    00001EDE 4F               [ 4] 4895 	ld	c, a
    00001EDF DD 7E DB         [19] 4896 	ld	a, -37 (ix)
    00001EE2 CE 00            [ 7] 4897 	adc	a, #0x00
    00001EE4 47               [ 4] 4898 	ld	b, a
    00001EE5 69               [ 4] 4899 	ld	l, c
    00001EE6 60               [ 4] 4900 	ld	h, b
    00001EE7 5E               [ 7] 4901 	ld	e, (hl)
    00001EE8 23               [ 6] 4902 	inc	hl
    00001EE9 56               [ 7] 4903 	ld	d, (hl)
    00001EEA 7B               [ 4] 4904 	ld	a, e
    00001EEB D6 0A            [ 7] 4905 	sub	a, #0x0a
    00001EED 7A               [ 4] 4906 	ld	a, d
    00001EEE DE 00            [ 7] 4907 	sbc	a, #0x00
    00001EF0 30 07            [12] 4908 	jr	NC, 00697$
    00001EF2 69               [ 4] 4909 	ld	l, c
    00001EF3 60               [ 4] 4910 	ld	h, b
    00001EF4 36 0A            [10] 4911 	ld	(hl), #0x0a
    00001EF6 23               [ 6] 4912 	inc	hl
    00001EF7 36 00            [10] 4913 	ld	(hl), #0x00
    00001EF9                       4914 00697$:
                                   4915 ;E:\Dropbox\FAUSTO\SVILUPPI\MSX\CODE\C\MSXgl\projects\exsoccer/exsoccer_s22_b2.c:919: if (g_Players[playerId].TargetX > FIELD_BOUND_X_RIGHT) g_Players[playerId].TargetX = FIELD_BOUND_X_RIGHT;
    00001EF9 69               [ 4] 4916 	ld	l, c
    00001EFA 60               [ 4] 4917 	ld	h, b
    00001EFB 5E               [ 7] 4918 	ld	e, (hl)
    00001EFC 23               [ 6] 4919 	inc	hl
    00001EFD 56               [ 7] 4920 	ld	d, (hl)
    00001EFE 3E F6            [ 7] 4921 	ld	a, #0xf6
    00001F00 BB               [ 4] 4922 	cp	a, e
    00001F01 3E 00            [ 7] 4923 	ld	a, #0x00
    00001F03 9A               [ 4] 4924 	sbc	a, d
    00001F04 30 06            [12] 4925 	jr	NC, 00718$
    00001F06 3E F6            [ 7] 4926 	ld	a, #0xf6
    00001F08 02               [ 7] 4927 	ld	(bc), a
    00001F09 03               [ 6] 4928 	inc	bc
    00001F0A AF               [ 4] 4929 	xor	a, a
    00001F0B 02               [ 7] 4930 	ld	(bc), a
    00001F0C                       4931 00718$:
                                   4932 ;E:\Dropbox\FAUSTO\SVILUPPI\MSX\CODE\C\MSXgl\projects\exsoccer/exsoccer_s22_b2.c:922: }
    00001F0C DD F9            [10] 4933 	ld	sp, ix
    00001F0E DD E1            [14] 4934 	pop	ix
    00001F10 C9               [10] 4935 	ret
                         0000F380  4936 _g_RDPRIM	=	0xf380
                         0000F385  4937 _g_WRPRIM	=	0xf385
                         0000F38C  4938 _g_CLPRIM	=	0xf38c
                         0000F39A  4939 _g_USRTAB	=	0xf39a
                         0000F3DE  4940 _g_CNSDFG	=	0xf3de
                         0000F3DF  4941 _g_RG0SAV	=	0xf3df
                         0000F3E0  4942 _g_RG1SAV	=	0xf3e0
                         0000F3E1  4943 _g_RG2SAV	=	0xf3e1
                         0000F3E2  4944 _g_RG3SAV	=	0xf3e2
                         0000F3E3  4945 _g_RG4SAV	=	0xf3e3
                         0000F3E4  4946 _g_RG5SAV	=	0xf3e4
                         0000F3E5  4947 _g_RG6SAV	=	0xf3e5
                         0000F3E6  4948 _g_RG7SAV	=	0xf3e6
                         0000F3E7  4949 _g_STATFL	=	0xf3e7
                         0000F3E8  4950 _g_TRGFLG	=	0xf3e8
                         0000F3EC  4951 _g_MAXUPD	=	0xf3ec
                         0000F3EF  4952 _g_MINUPD	=	0xf3ef
                         0000F3F3  4953 _g_QUEUES	=	0xf3f3
                         0000F3F5  4954 _g_FRCNEW	=	0xf3f5
                         0000F3F6  4955 _g_SCNCNT	=	0xf3f6
                         0000F3F7  4956 _g_REPCNT	=	0xf3f7
                         0000F3F8  4957 _g_PUTPNT	=	0xf3f8
                         0000F3FA  4958 _g_GETPNT	=	0xf3fa
                         0000F3FC  4959 _g_CS120	=	0xf3fc
                         0000F401  4960 _g_CS240	=	0xf401
                         0000F406  4961 _g_LOW	=	0xf406
                         0000F408  4962 _g_HIGH	=	0xf408
                         0000F40A  4963 _g_HEADER	=	0xf40a
                         0000F40B  4964 _g_ASPCT1	=	0xf40b
                         0000F40D  4965 _g_ASPCT2	=	0xf40d
                         0000F959  4966 _g_QUETAB	=	0xf959
                         0000F971  4967 _g_QUEBAK	=	0xf971
                         0000F975  4968 _g_VOICAQ	=	0xf975
                         0000F9F5  4969 _g_VOICBQ	=	0xf9f5
                         0000FA75  4970 _g_VOICCQ	=	0xfa75
                         0000FAF5  4971 _g_RS2IQ	=	0xfaf5
                         0000FAF5  4972 _g_DPPAGE	=	0xfaf5
                         0000FAF6  4973 _g_ACPAGE	=	0xfaf6
                         0000FAF7  4974 _g_AVCSAV	=	0xfaf7
                         0000FAF8  4975 _g_EXBRSA	=	0xfaf8
                         0000FAF9  4976 _g_CHRCNT	=	0xfaf9
                         0000FAFA  4977 _g_ROMA	=	0xfafa
                         0000FAFC  4978 _g_MODE	=	0xfafc
                         0000FAFD  4979 _g_NORUSE	=	0xfafd
                         0000FAFE  4980 _g_XSAVE	=	0xfafe
                         0000FB00  4981 _g_YSAVE	=	0xfb00
                         0000FB03  4982 _g_RSTMP	=	0xfb03
                         0000FB03  4983 _g_TOCNT	=	0xfb03
                         0000FB04  4984 _g_RSFCB	=	0xfb04
                         0000FB06  4985 _g_RSIQLN	=	0xfb06
                         0000FB07  4986 _g_MEXBIh	=	0xfb07
                         0000FB0C  4987 _g_OLDSTT	=	0xfb0c
                         0000FB0C  4988 _g_OLDINT	=	0xfb0c
                         0000FB16  4989 _g_DEVNUM	=	0xfb16
                         0000FB17  4990 _g_DATCNT	=	0xfb17
                         0000FB1A  4991 _g_ERRORS	=	0xfb1a
                         0000FB1B  4992 _g_FLAGS	=	0xfb1b
                         0000FB1C  4993 _g_ESTBLS	=	0xfb1c
                         0000FB1D  4994 _g_COMMSK	=	0xfb1d
                         0000FB1E  4995 _g_LSTCOM	=	0xfb1e
                         0000FB1F  4996 _g_LSTMOD	=	0xfb1f
                         0000FB35  4997 _g_PRSCNT	=	0xfb35
                         0000FB36  4998 _g_SAVSP	=	0xfb36
                         0000FB38  4999 _g_VOICEN	=	0xfb38
                         0000FB39  5000 _g_SAVVOL	=	0xfb39
                         0000FB3B  5001 _g_MCLLEN	=	0xfb3b
                         0000FB3C  5002 _g_MCLPTR	=	0xfb3c
                         0000FB3E  5003 _g_QUEUEN	=	0xfb3e
                         0000FB3F  5004 _g_MUSICF	=	0xfb3f
                         0000FB40  5005 _g_PLYCNT	=	0xfb40
                         0000FB41  5006 _g_VCBA	=	0xfb41
                         0000FB66  5007 _g_VCBB	=	0xfb66
                         0000FB8B  5008 _g_VCBC	=	0xfb8b
                         0000FBB0  5009 _g_ENSTOP	=	0xfbb0
                         0000FBB1  5010 _g_BASROM	=	0xfbb1
                         0000FBB2  5011 _g_LINTTB	=	0xfbb2
                         0000FBCA  5012 _g_FSTPOS	=	0xfbca
                         0000FBCC  5013 _g_CODSAV	=	0xfbcc
                         0000FBCD  5014 _g_FNKSWI	=	0xfbcd
                         0000FBCE  5015 _g_FNKFLG	=	0xfbce
                         0000FBD8  5016 _g_ONGSBF	=	0xfbd8
                         0000FBD9  5017 _g_CLIKFL	=	0xfbd9
                         0000FBDA  5018 _g_OLDKEY	=	0xfbda
                         0000FBE5  5019 _g_NEWKEY	=	0xfbe5
                         0000FBF0  5020 _g_KEYBUF	=	0xfbf0
                         0000FC18  5021 _g_LINWRK	=	0xfc18
                         0000FC40  5022 _g_PATWRK	=	0xfc40
                         0000FC48  5023 _g_BOTTOM	=	0xfc48
                         0000FC4A  5024 _g_HIMEM	=	0xfc4a
                         0000FC4C  5025 _g_TRPTBL	=	0xfc4c
                         0000FC9A  5026 _g_RTYCNT	=	0xfc9a
                         0000FC9B  5027 _g_INTFLG	=	0xfc9b
                         0000FC9C  5028 _g_PADY	=	0xfc9c
                         0000FC9D  5029 _g_PADX	=	0xfc9d
                         0000FC9E  5030 _g_JIFFY	=	0xfc9e
                         0000FCA0  5031 _g_INTVAL	=	0xfca0
                         0000FCA2  5032 _g_INTCNT	=	0xfca2
                         0000FCA4  5033 _g_LOWLIM	=	0xfca4
                         0000FCA5  5034 _g_WINWID	=	0xfca5
                         0000FCA6  5035 _g_GRPHED	=	0xfca6
                         0000FCA7  5036 _g_ESCCNT	=	0xfca7
                         0000FCA8  5037 _g_INSFLG	=	0xfca8
                         0000FCA9  5038 _g_CSRSW	=	0xfca9
                         0000FCAA  5039 _g_CSTYLE	=	0xfcaa
                         0000FCAB  5040 _g_CAPST	=	0xfcab
                         0000FCAC  5041 _g_KANAST	=	0xfcac
                         0000FCAD  5042 _g_KANAMD	=	0xfcad
                         0000FCAE  5043 _g_FLBMEM	=	0xfcae
                         0000FCAF  5044 _g_SCRMOD	=	0xfcaf
                         0000FCB0  5045 _g_OLDSCR	=	0xfcb0
                         0000FCB1  5046 _g_CASPRV	=	0xfcb1
                         0000FCB2  5047 _g_BRDATR	=	0xfcb2
                         0000FCB3  5048 _g_GXPOS	=	0xfcb3
                         0000FCB5  5049 _g_GYPOS	=	0xfcb5
                         0000FCBB  5050 _g_DRWFLG	=	0xfcbb
                         0000FCBC  5051 _g_DRWSCL	=	0xfcbc
                         0000FCBD  5052 _g_DRWANG	=	0xfcbd
                         0000FCC1  5053 _g_MNROM	=	0xfcc1
                         0000FCC1  5054 _g_EXPTBL	=	0xfcc1
                         0000FCC5  5055 _g_SLTTBL	=	0xfcc5
                         0000FCC9  5056 _g_SLTATR	=	0xfcc9
                         0000FD09  5057 _g_SLTWRK	=	0xfd09
                         0000FD89  5058 _g_PROCNM	=	0xfd89
                         0000FFE7  5059 _g_RG08SAV	=	0xffe7
                         0000FFE8  5060 _g_RG09SAV	=	0xffe8
                         0000FFE9  5061 _g_RG10SAV	=	0xffe9
                         0000FFEA  5062 _g_RG11SAV	=	0xffea
                         0000FFEB  5063 _g_RG12SAV	=	0xffeb
                         0000FFEC  5064 _g_RG13SAV	=	0xffec
                         0000FFED  5065 _g_RG14SAV	=	0xffed
                         0000FFEE  5066 _g_RG15SAV	=	0xffee
                         0000FFEF  5067 _g_RG16SAV	=	0xffef
                         0000FFF0  5068 _g_RG17SAV	=	0xfff0
                         0000FFF1  5069 _g_RG18SAV	=	0xfff1
                         0000FFF2  5070 _g_RG19SAV	=	0xfff2
                         0000FFF3  5071 _g_RG20SAV	=	0xfff3
                         0000FFF4  5072 _g_RG21SAV	=	0xfff4
                         0000FFF5  5073 _g_RG22SAV	=	0xfff5
                         0000FFF6  5074 _g_RG23SAV	=	0xfff6
                         0000FFF7  5075 _g_MINROM	=	0xfff7
                         0000FFF8  5076 _g_SVFFF8	=	0xfff8
                         0000FFFA  5077 _g_RG25SAV	=	0xfffa
                         0000FFFB  5078 _g_RG26SAV	=	0xfffb
                         0000FFFC  5079 _g_RG27SAV	=	0xfffc
                         0000FFFD  5080 _g_SVFFFD	=	0xfffd
                         00000004  5081 _g_CGTABL	=	0x0004
                         00000006  5082 _g_VDP_DR	=	0x0006
                         00000007  5083 _g_VDP_DW	=	0x0007
                         0000002B  5084 _g_BASRVN	=	0x002b
                         0000002B  5085 _g_ROMVersion	=	0x002b
                         0000002D  5086 _g_MSXVER	=	0x002d
                         0000002E  5087 _g_MSXMID	=	0x002e
                         00000034  5088 _g_CHAR_16	=	0x0034
                         00000000  5089 _g_SUBRID	=	0x0000
                         00000002  5090 _g_STRSRC	=	0x0002
                         0000F30F  5091 _g_KANJTABLE	=	0xf30f
                         0000F323  5092 _g_DISKVE	=	0xf323
                         0000F325  5093 _g_BREAKV	=	0xf325
                         0000F341  5094 _g_RAMAD0	=	0xf341
                         0000F342  5095 _g_RAMAD1	=	0xf342
                         0000F343  5096 _g_RAMAD2	=	0xf343
                         0000F344  5097 _g_RAMAD3	=	0xf344
                         0000F348  5098 _g_MASTER	=	0xf348
                         0000F37D  5099 _g_BDOS	=	0xf37d
                                   5100 ;E:\Dropbox\FAUSTO\SVILUPPI\MSX\CODE\C\MSXgl\projects\exsoccer/exsoccer_s22_b2.c:924: static i32 Math_Abs32_Local(i32 v) { return (v < 0) ? -v : v; }
                                   5101 ;	---------------------------------
                                   5102 ; Function Math_Abs32_Local
                                   5103 ; ---------------------------------
    00001F11                       5104 _Math_Abs32_Local:
    00001F11 4D               [ 4] 5105 	ld	c, l
    00001F12 44               [ 4] 5106 	ld	b, h
    00001F13 CB 78            [ 8] 5107 	bit	7, b
    00001F15 28 0D            [12] 5108 	jr	Z, 00103$
    00001F17 21 00 00         [10] 5109 	ld	hl, #0x0000
    00001F1A BF               [ 4] 5110 	cp	a, a
    00001F1B ED 52            [15] 5111 	sbc	hl, de
    00001F1D EB               [ 4] 5112 	ex	de, hl
    00001F1E 21 00 00         [10] 5113 	ld	hl, #0x0000
    00001F21 ED 42            [15] 5114 	sbc	hl, bc
    00001F23 C9               [10] 5115 	ret
    00001F24                       5116 00103$:
    00001F24 69               [ 4] 5117 	ld	l, c
                                   5118 ;	spillPairReg hl
                                   5119 ;	spillPairReg hl
    00001F25 60               [ 4] 5120 	ld	h, b
                                   5121 ;	spillPairReg hl
                                   5122 ;	spillPairReg hl
    00001F26 C9               [10] 5123 	ret
                                   5124 ;E:\Dropbox\FAUSTO\SVILUPPI\MSX\CODE\C\MSXgl\projects\exsoccer/exsoccer_s22_b2.c:926: void PenaltyShots() {
                                   5125 ;	---------------------------------
                                   5126 ; Function PenaltyShots
                                   5127 ; ---------------------------------
    00001F27                       5128 _PenaltyShots::
    00001F27 DD E5            [15] 5129 	push	ix
    00001F29 DD 21 00 00      [14] 5130 	ld	ix,#0
    00001F2D DD 39            [15] 5131 	add	ix,sp
    00001F2F 21 C7 FF         [10] 5132 	ld	hl, #-57
    00001F32 39               [11] 5133 	add	hl, sp
    00001F33 F9               [ 6] 5134 	ld	sp, hl
                                   5135 ;E:\Dropbox\FAUSTO\SVILUPPI\MSX\CODE\C\MSXgl\projects\exsoccer/exsoccer_s22_b2.c:927: g_MatchStatus = MATCH_PENALTY_SETUP;
    00001F34 21r00r00         [10] 5136 	ld	hl, #_g_MatchStatus
    00001F37 36 12            [10] 5137 	ld	(hl), #0x12
                                   5138 ;E:\Dropbox\FAUSTO\SVILUPPI\MSX\CODE\C\MSXgl\projects\exsoccer/exsoccer_s22_b2.c:928: g_FieldScrollingActionInProgress = NO_VALUE;
    00001F39 21r00r00         [10] 5139 	ld	hl, #_g_FieldScrollingActionInProgress
    00001F3C 36 FF            [10] 5140 	ld	(hl), #0xff
                                   5141 ;E:\Dropbox\FAUSTO\SVILUPPI\MSX\CODE\C\MSXgl\projects\exsoccer/exsoccer_s22_b2.c:932: while (g_FieldCurrentYPosition != centerScroll) {
    00001F3E                       5142 00104$:
    00001F3E 2Ar00r00         [16] 5143 	ld	hl, (_g_FieldCurrentYPosition)
    00001F41 7D               [ 4] 5144 	ld	a, l
    00001F42 D6 89            [ 7] 5145 	sub	a, #0x89
    00001F44 B4               [ 4] 5146 	or	a, h
    00001F45 28 25            [12] 5147 	jr	Z, 00106$
                                   5148 ;E:\Dropbox\FAUSTO\SVILUPPI\MSX\CODE\C\MSXgl\projects\exsoccer/exsoccer_s22_b2.c:933: if (g_FieldCurrentYPosition < centerScroll) g_FieldCurrentYPosition++;
    00001F47 11 89 00         [10] 5149 	ld	de, #0x0089
    00001F4A BF               [ 4] 5150 	cp	a, a
    00001F4B ED 52            [15] 5151 	sbc	hl, de
    00001F4D 30 0A            [12] 5152 	jr	NC, 00102$
    00001F4F 2Ar00r00         [16] 5153 	ld	hl, (_g_FieldCurrentYPosition)
    00001F52 23               [ 6] 5154 	inc	hl
    00001F53 22r00r00         [16] 5155 	ld	(_g_FieldCurrentYPosition), hl
    00001F56 C3r60r1F         [10] 5156 	jp	00103$
    00001F59                       5157 00102$:
                                   5158 ;E:\Dropbox\FAUSTO\SVILUPPI\MSX\CODE\C\MSXgl\projects\exsoccer/exsoccer_s22_b2.c:934: else g_FieldCurrentYPosition--;
    00001F59 2Ar00r00         [16] 5159 	ld	hl, (_g_FieldCurrentYPosition)
    00001F5C 2B               [ 6] 5160 	dec	hl
    00001F5D 22r00r00         [16] 5161 	ld	(_g_FieldCurrentYPosition), hl
    00001F60                       5162 00103$:
                                   5163 ;E:\Dropbox\FAUSTO\SVILUPPI\MSX\CODE\C\MSXgl\projects\exsoccer/exsoccer_s22_b2.c:935: V9_SetScrollingBY((u16)g_FieldCurrentYPosition);
    00001F60 2Ar00r00         [16] 5164 	ld	hl, (_g_FieldCurrentYPosition)
    00001F63 CDr00r00         [17] 5165 	call	_V9_SetScrollingBY
                                   5166 ;E:\Dropbox\FAUSTO\SVILUPPI\MSX\CODE\C\MSXgl\projects\exsoccer/exsoccer_s22_b2.c:936: UpdateV9990();
    00001F66 CDr00r00         [17] 5167 	call	_UpdateV9990
    00001F69 C3r3Er1F         [10] 5168 	jp	00104$
    00001F6C                       5169 00106$:
                                   5170 ;E:\Dropbox\FAUSTO\SVILUPPI\MSX\CODE\C\MSXgl\projects\exsoccer/exsoccer_s22_b2.c:940: ShowHeaderInfo();
    00001F6C CDr00r00         [17] 5171 	call	_ShowHeaderInfo
                                   5172 ;E:\Dropbox\FAUSTO\SVILUPPI\MSX\CODE\C\MSXgl\projects\exsoccer/exsoccer_s22_b2.c:942: V9_PrintLayerAStringAtPos(8, 10, "PENALTY SHOOTOUT");
    00001F6F 21rE8r34         [10] 5173 	ld	hl, #___str_0
    00001F72 E5               [11] 5174 	push	hl
    00001F73 2E 0A            [ 7] 5175 	ld	l, #0x0a
                                   5176 ;	spillPairReg hl
                                   5177 ;	spillPairReg hl
    00001F75 3E 08            [ 7] 5178 	ld	a, #0x08
    00001F77 CDr00r00         [17] 5179 	call	_V9_PrintLayerAStringAtPos
                                   5180 ;E:\Dropbox\FAUSTO\SVILUPPI\MSX\CODE\C\MSXgl\projects\exsoccer/exsoccer_s22_b2.c:943: for(u8 w=0; w<120; w++) UpdateV9990();
    00001F7A 0E 00            [ 7] 5181 	ld	c, #0x00
    00001F7C                       5182 00350$:
    00001F7C 79               [ 4] 5183 	ld	a, c
    00001F7D D6 78            [ 7] 5184 	sub	a, #0x78
    00001F7F 30 09            [12] 5185 	jr	NC, 00107$
    00001F81 C5               [11] 5186 	push	bc
    00001F82 CDr00r00         [17] 5187 	call	_UpdateV9990
    00001F85 C1               [10] 5188 	pop	bc
    00001F86 0C               [ 4] 5189 	inc	c
    00001F87 C3r7Cr1F         [10] 5190 	jp	00350$
    00001F8A                       5191 00107$:
                                   5192 ;E:\Dropbox\FAUSTO\SVILUPPI\MSX\CODE\C\MSXgl\projects\exsoccer/exsoccer_s22_b2.c:944: ClearTextFromLayerA(8, 10, 16);
    00001F8A 3E 10            [ 7] 5193 	ld	a, #0x10
    00001F8C F5               [11] 5194 	push	af
    00001F8D 33               [ 6] 5195 	inc	sp
    00001F8E 2E 0A            [ 7] 5196 	ld	l, #0x0a
                                   5197 ;	spillPairReg hl
                                   5198 ;	spillPairReg hl
    00001F90 3E 08            [ 7] 5199 	ld	a, #0x08
    00001F92 CDr00r00         [17] 5200 	call	_ClearTextFromLayerA
                                   5201 ;E:\Dropbox\FAUSTO\SVILUPPI\MSX\CODE\C\MSXgl\projects\exsoccer/exsoccer_s22_b2.c:947: for(u8 i=0; i<15; i++) {
    00001F95 DD 36 FF 00      [19] 5202 	ld	-1 (ix), #0x00
    00001F99                       5203 00353$:
    00001F99 DD 7E FF         [19] 5204 	ld	a, -1 (ix)
    00001F9C D6 0F            [ 7] 5205 	sub	a, #0x0f
    00001F9E D2rA2r20         [10] 5206 	jp	NC, 00421$
                                   5207 ;E:\Dropbox\FAUSTO\SVILUPPI\MSX\CODE\C\MSXgl\projects\exsoccer/exsoccer_s22_b2.c:948: g_Players[i].Status = PLAYER_STATUS_NONE;
    00001FA1 DD 4E FF         [19] 5208 	ld	c, -1 (ix)
    00001FA4 06 00            [ 7] 5209 	ld	b, #0x00
    00001FA6 69               [ 4] 5210 	ld	l, c
    00001FA7 60               [ 4] 5211 	ld	h, b
    00001FA8 29               [11] 5212 	add	hl, hl
    00001FA9 29               [11] 5213 	add	hl, hl
    00001FAA 09               [11] 5214 	add	hl, bc
    00001FAB 29               [11] 5215 	add	hl, hl
    00001FAC 29               [11] 5216 	add	hl, hl
    00001FAD 09               [11] 5217 	add	hl, bc
    00001FAE EB               [ 4] 5218 	ex	de, hl
    00001FAF 21r00r00         [10] 5219 	ld	hl, #_g_Players
    00001FB2 19               [11] 5220 	add	hl, de
    00001FB3 EB               [ 4] 5221 	ex	de, hl
    00001FB4 21 12 00         [10] 5222 	ld	hl, #0x0012
    00001FB7 19               [11] 5223 	add	hl, de
    00001FB8 AF               [ 4] 5224 	xor	a, a
    00001FB9 77               [ 7] 5225 	ld	(hl), a
    00001FBA 23               [ 6] 5226 	inc	hl
    00001FBB 77               [ 7] 5227 	ld	(hl), a
                                   5228 ;E:\Dropbox\FAUSTO\SVILUPPI\MSX\CODE\C\MSXgl\projects\exsoccer/exsoccer_s22_b2.c:951: g_Players[i].TargetY = 220 + (i/4)*15; 
    00001FBC 21 0E 00         [10] 5229 	ld	hl, #0x000e
    00001FBF 19               [11] 5230 	add	hl, de
    00001FC0 4D               [ 4] 5231 	ld	c, l
    00001FC1 44               [ 4] 5232 	ld	b, h
                                   5233 ;E:\Dropbox\FAUSTO\SVILUPPI\MSX\CODE\C\MSXgl\projects\exsoccer/exsoccer_s22_b2.c:952: g_Players[i].TargetX = 80 + (i%4)*25;
    00001FC2 21 10 00         [10] 5234 	ld	hl, #0x0010
    00001FC5 19               [11] 5235 	add	hl, de
    00001FC6 DD 75 FB         [19] 5236 	ld	-5 (ix), l
    00001FC9 DD 74 FC         [19] 5237 	ld	-4 (ix), h
                                   5238 ;E:\Dropbox\FAUSTO\SVILUPPI\MSX\CODE\C\MSXgl\projects\exsoccer/exsoccer_s22_b2.c:950: if (i < 7) { // Team 2 (Top)
    00001FCC DD 7E FF         [19] 5239 	ld	a, -1 (ix)
    00001FCF D6 07            [ 7] 5240 	sub	a, #0x07
    00001FD1 30 57            [12] 5241 	jr	NC, 00112$
                                   5242 ;E:\Dropbox\FAUSTO\SVILUPPI\MSX\CODE\C\MSXgl\projects\exsoccer/exsoccer_s22_b2.c:951: g_Players[i].TargetY = 220 + (i/4)*15; 
    00001FD3 DD 7E FF         [19] 5243 	ld	a, -1 (ix)
    00001FD6 DD 77 FD         [19] 5244 	ld	-3 (ix), a
    00001FD9 DD 36 FE 00      [19] 5245 	ld	-2 (ix), #0x00
    00001FDD 5F               [ 4] 5246 	ld	e, a
    00001FDE 16 00            [ 7] 5247 	ld	d, #0x00
    00001FE0 DD CB FE 7E      [20] 5248 	bit	7, -2 (ix)
    00001FE4 28 09            [12] 5249 	jr	Z, 00372$
    00001FE6 DD 5E FD         [19] 5250 	ld	e, -3 (ix)
    00001FE9 DD 56 FE         [19] 5251 	ld	d, -2 (ix)
    00001FEC 13               [ 6] 5252 	inc	de
    00001FED 13               [ 6] 5253 	inc	de
    00001FEE 13               [ 6] 5254 	inc	de
    00001FEF                       5255 00372$:
    00001FEF CB 2A            [ 8] 5256 	sra	d
    00001FF1 CB 1B            [ 8] 5257 	rr	e
    00001FF3 CB 2A            [ 8] 5258 	sra	d
    00001FF5 CB 1B            [ 8] 5259 	rr	e
    00001FF7 6B               [ 4] 5260 	ld	l, e
    00001FF8 62               [ 4] 5261 	ld	h, d
    00001FF9 29               [11] 5262 	add	hl, hl
    00001FFA 19               [11] 5263 	add	hl, de
    00001FFB 29               [11] 5264 	add	hl, hl
    00001FFC 19               [11] 5265 	add	hl, de
    00001FFD 29               [11] 5266 	add	hl, hl
    00001FFE 19               [11] 5267 	add	hl, de
    00001FFF 11 DC 00         [10] 5268 	ld	de, #0x00dc
    00002002 19               [11] 5269 	add	hl, de
    00002003 EB               [ 4] 5270 	ex	de, hl
    00002004 7B               [ 4] 5271 	ld	a, e
    00002005 02               [ 7] 5272 	ld	(bc), a
    00002006 03               [ 6] 5273 	inc	bc
    00002007 7A               [ 4] 5274 	ld	a, d
    00002008 02               [ 7] 5275 	ld	(bc), a
                                   5276 ;E:\Dropbox\FAUSTO\SVILUPPI\MSX\CODE\C\MSXgl\projects\exsoccer/exsoccer_s22_b2.c:952: g_Players[i].TargetX = 80 + (i%4)*25;
    00002009 DD 7E FD         [19] 5277 	ld	a, -3 (ix)
    0000200C E6 03            [ 7] 5278 	and	a, #0x03
    0000200E 4F               [ 4] 5279 	ld	c, a
    0000200F 06 00            [ 7] 5280 	ld	b, #0x00
    00002011 69               [ 4] 5281 	ld	l, c
    00002012 60               [ 4] 5282 	ld	h, b
    00002013 29               [11] 5283 	add	hl, hl
    00002014 09               [11] 5284 	add	hl, bc
    00002015 29               [11] 5285 	add	hl, hl
    00002016 29               [11] 5286 	add	hl, hl
    00002017 29               [11] 5287 	add	hl, hl
    00002018 09               [11] 5288 	add	hl, bc
    00002019 01 50 00         [10] 5289 	ld	bc, #0x0050
    0000201C 09               [11] 5290 	add	hl, bc
    0000201D EB               [ 4] 5291 	ex	de, hl
    0000201E DD 6E FB         [19] 5292 	ld	l, -5 (ix)
    00002021 DD 66 FC         [19] 5293 	ld	h, -4 (ix)
    00002024 73               [ 7] 5294 	ld	(hl), e
    00002025 23               [ 6] 5295 	inc	hl
    00002026 72               [ 7] 5296 	ld	(hl), d
    00002027 C3r9Cr20         [10] 5297 	jp	00354$
    0000202A                       5298 00112$:
                                   5299 ;E:\Dropbox\FAUSTO\SVILUPPI\MSX\CODE\C\MSXgl\projects\exsoccer/exsoccer_s22_b2.c:953: } else if (i < 14) { // Team 1 (Bottom)
    0000202A DD 7E FF         [19] 5300 	ld	a, -1 (ix)
    0000202D D6 0E            [ 7] 5301 	sub	a, #0x0e
    0000202F 30 5A            [12] 5302 	jr	NC, 00109$
                                   5303 ;E:\Dropbox\FAUSTO\SVILUPPI\MSX\CODE\C\MSXgl\projects\exsoccer/exsoccer_s22_b2.c:954: u8 k = i - 7;
    00002031 DD 7E FF         [19] 5304 	ld	a, -1 (ix)
    00002034 C6 F9            [ 7] 5305 	add	a, #0xf9
                                   5306 ;E:\Dropbox\FAUSTO\SVILUPPI\MSX\CODE\C\MSXgl\projects\exsoccer/exsoccer_s22_b2.c:955: g_Players[i].TargetY = 260 + (k/4)*15;
    00002036 5F               [ 4] 5307 	ld	e, a
    00002037 16 00            [ 7] 5308 	ld	d, #0x00
    00002039 6B               [ 4] 5309 	ld	l, e
                                   5310 ;	spillPairReg hl
                                   5311 ;	spillPairReg hl
    0000203A 62               [ 4] 5312 	ld	h, d
                                   5313 ;	spillPairReg hl
                                   5314 ;	spillPairReg hl
    0000203B CB 7A            [ 8] 5315 	bit	7, d
    0000203D 28 05            [12] 5316 	jr	Z, 00373$
    0000203F 6B               [ 4] 5317 	ld	l, e
                                   5318 ;	spillPairReg hl
                                   5319 ;	spillPairReg hl
    00002040 62               [ 4] 5320 	ld	h, d
                                   5321 ;	spillPairReg hl
                                   5322 ;	spillPairReg hl
    00002041 23               [ 6] 5323 	inc	hl
    00002042 23               [ 6] 5324 	inc	hl
    00002043 23               [ 6] 5325 	inc	hl
    00002044                       5326 00373$:
    00002044 CB 2C            [ 8] 5327 	sra	h
    00002046 CB 1D            [ 8] 5328 	rr	l
    00002048 CB 2C            [ 8] 5329 	sra	h
    0000204A CB 1D            [ 8] 5330 	rr	l
    0000204C D5               [11] 5331 	push	de
    0000204D 5D               [ 4] 5332 	ld	e, l
    0000204E 54               [ 4] 5333 	ld	d, h
    0000204F 29               [11] 5334 	add	hl, hl
    00002050 19               [11] 5335 	add	hl, de
    00002051 29               [11] 5336 	add	hl, hl
    00002052 19               [11] 5337 	add	hl, de
    00002053 29               [11] 5338 	add	hl, hl
    00002054 19               [11] 5339 	add	hl, de
    00002055 D1               [10] 5340 	pop	de
    00002056 7D               [ 4] 5341 	ld	a, l
    00002057 C6 04            [ 7] 5342 	add	a, #0x04
    00002059 6F               [ 4] 5343 	ld	l, a
                                   5344 ;	spillPairReg hl
                                   5345 ;	spillPairReg hl
    0000205A 7C               [ 4] 5346 	ld	a, h
    0000205B CE 01            [ 7] 5347 	adc	a, #0x01
    0000205D DD 75 FD         [19] 5348 	ld	-3 (ix), l
    00002060 DD 77 FE         [19] 5349 	ld	-2 (ix), a
    00002063 DD 7E FD         [19] 5350 	ld	a, -3 (ix)
    00002066 02               [ 7] 5351 	ld	(bc), a
    00002067 03               [ 6] 5352 	inc	bc
    00002068 DD 7E FE         [19] 5353 	ld	a, -2 (ix)
    0000206B 02               [ 7] 5354 	ld	(bc), a
                                   5355 ;E:\Dropbox\FAUSTO\SVILUPPI\MSX\CODE\C\MSXgl\projects\exsoccer/exsoccer_s22_b2.c:956: g_Players[i].TargetX = 80 + (k%4)*25;
    0000206C 7B               [ 4] 5356 	ld	a, e
    0000206D E6 03            [ 7] 5357 	and	a, #0x03
    0000206F 4F               [ 4] 5358 	ld	c, a
    00002070 06 00            [ 7] 5359 	ld	b, #0x00
    00002072 69               [ 4] 5360 	ld	l, c
    00002073 60               [ 4] 5361 	ld	h, b
    00002074 29               [11] 5362 	add	hl, hl
    00002075 09               [11] 5363 	add	hl, bc
    00002076 29               [11] 5364 	add	hl, hl
    00002077 29               [11] 5365 	add	hl, hl
    00002078 29               [11] 5366 	add	hl, hl
    00002079 09               [11] 5367 	add	hl, bc
    0000207A 01 50 00         [10] 5368 	ld	bc, #0x0050
    0000207D 09               [11] 5369 	add	hl, bc
    0000207E EB               [ 4] 5370 	ex	de, hl
    0000207F DD 6E FB         [19] 5371 	ld	l, -5 (ix)
    00002082 DD 66 FC         [19] 5372 	ld	h, -4 (ix)
    00002085 73               [ 7] 5373 	ld	(hl), e
    00002086 23               [ 6] 5374 	inc	hl
    00002087 72               [ 7] 5375 	ld	(hl), d
    00002088 C3r9Cr20         [10] 5376 	jp	00354$
    0000208B                       5377 00109$:
                                   5378 ;E:\Dropbox\FAUSTO\SVILUPPI\MSX\CODE\C\MSXgl\projects\exsoccer/exsoccer_s22_b2.c:958: g_Players[i].TargetX = 128;
    0000208B DD 6E FB         [19] 5379 	ld	l, -5 (ix)
    0000208E DD 66 FC         [19] 5380 	ld	h, -4 (ix)
    00002091 36 80            [10] 5381 	ld	(hl), #0x80
    00002093 23               [ 6] 5382 	inc	hl
    00002094 36 00            [10] 5383 	ld	(hl), #0x00
                                   5384 ;E:\Dropbox\FAUSTO\SVILUPPI\MSX\CODE\C\MSXgl\projects\exsoccer/exsoccer_s22_b2.c:959: g_Players[i].TargetY = 243; // Midfield
    00002096 3E F3            [ 7] 5385 	ld	a, #0xf3
    00002098 02               [ 7] 5386 	ld	(bc), a
    00002099 03               [ 6] 5387 	inc	bc
    0000209A AF               [ 4] 5388 	xor	a, a
    0000209B 02               [ 7] 5389 	ld	(bc), a
    0000209C                       5390 00354$:
                                   5391 ;E:\Dropbox\FAUSTO\SVILUPPI\MSX\CODE\C\MSXgl\projects\exsoccer/exsoccer_s22_b2.c:947: for(u8 i=0; i<15; i++) {
    0000209C DD 34 FF         [23] 5392 	inc	-1 (ix)
    0000209F C3r99r1F         [10] 5393 	jp	00353$
                                   5394 ;E:\Dropbox\FAUSTO\SVILUPPI\MSX\CODE\C\MSXgl\projects\exsoccer/exsoccer_s22_b2.c:964: while(true) {
    000020A2                       5395 00421$:
    000020A2                       5396 00135$:
                                   5397 ;E:\Dropbox\FAUSTO\SVILUPPI\MSX\CODE\C\MSXgl\projects\exsoccer/exsoccer_s22_b2.c:965: bool allArrived = true;
    000020A2 DD 36 F8 01      [19] 5398 	ld	-8 (ix), #0x01
                                   5399 ;E:\Dropbox\FAUSTO\SVILUPPI\MSX\CODE\C\MSXgl\projects\exsoccer/exsoccer_s22_b2.c:966: for(u8 i=0; i<15; i++) {
    000020A6 DD 36 FF 00      [19] 5400 	ld	-1 (ix), #0x00
    000020AA                       5401 00356$:
    000020AA DD 7E FF         [19] 5402 	ld	a, -1 (ix)
    000020AD D6 0F            [ 7] 5403 	sub	a, #0x0f
    000020AF D2r3Cr22         [10] 5404 	jp	NC, 00131$
                                   5405 ;E:\Dropbox\FAUSTO\SVILUPPI\MSX\CODE\C\MSXgl\projects\exsoccer/exsoccer_s22_b2.c:967: bool arrived = true;
    000020B2 DD 36 FC 01      [19] 5406 	ld	-4 (ix), #0x01
                                   5407 ;E:\Dropbox\FAUSTO\SVILUPPI\MSX\CODE\C\MSXgl\projects\exsoccer/exsoccer_s22_b2.c:968: if (g_Players[i].X < g_Players[i].TargetX) { g_Players[i].X++; arrived=false; g_Players[i].Direction = DIRECTION_RIGHT; }
    000020B6 DD 4E FF         [19] 5408 	ld	c, -1 (ix)
    000020B9 06 00            [ 7] 5409 	ld	b, #0x00
    000020BB 69               [ 4] 5410 	ld	l, c
    000020BC 60               [ 4] 5411 	ld	h, b
    000020BD 29               [11] 5412 	add	hl, hl
    000020BE 29               [11] 5413 	add	hl, hl
    000020BF 09               [11] 5414 	add	hl, bc
    000020C0 29               [11] 5415 	add	hl, hl
    000020C1 29               [11] 5416 	add	hl, hl
    000020C2 09               [11] 5417 	add	hl, bc
                                   5418 ;E:\Dropbox\FAUSTO\SVILUPPI\MSX\CODE\C\MSXgl\projects\exsoccer/exsoccer_s22_b2.c:971: if (g_Players[i].Y < g_Players[i].TargetY) { g_Players[i].Y++; arrived=false; g_Players[i].Direction = DIRECTION_DOWN; }
    000020C3 11r00r00         [10] 5419 	ld	de, #_g_Players
    000020C6 19               [11] 5420 	add	hl, de
    000020C7 DD 75 F9         [19] 5421 	ld	-7 (ix), l
    000020CA DD 74 FA         [19] 5422 	ld	-6 (ix), h
                                   5423 ;E:\Dropbox\FAUSTO\SVILUPPI\MSX\CODE\C\MSXgl\projects\exsoccer/exsoccer_s22_b2.c:968: if (g_Players[i].X < g_Players[i].TargetX) { g_Players[i].X++; arrived=false; g_Players[i].Direction = DIRECTION_RIGHT; }
    000020CD DD 7E F9         [19] 5424 	ld	a, -7 (ix)
    000020D0 C6 02            [ 7] 5425 	add	a, #0x02
    000020D2 DD 77 FD         [19] 5426 	ld	-3 (ix), a
    000020D5 DD 7E FA         [19] 5427 	ld	a, -6 (ix)
    000020D8 CE 00            [ 7] 5428 	adc	a, #0x00
    000020DA DD 77 FE         [19] 5429 	ld	-2 (ix), a
    000020DD DD 6E FD         [19] 5430 	ld	l, -3 (ix)
    000020E0 DD 66 FE         [19] 5431 	ld	h, -2 (ix)
    000020E3 4E               [ 7] 5432 	ld	c, (hl)
    000020E4 23               [ 6] 5433 	inc	hl
    000020E5 46               [ 7] 5434 	ld	b, (hl)
    000020E6 DD 5E F9         [19] 5435 	ld	e, -7 (ix)
    000020E9 DD 56 FA         [19] 5436 	ld	d, -6 (ix)
    000020EC 21 10 00         [10] 5437 	ld	hl, #16
    000020EF 19               [11] 5438 	add	hl, de
    000020F0 5E               [ 7] 5439 	ld	e, (hl)
    000020F1 23               [ 6] 5440 	inc	hl
    000020F2 56               [ 7] 5441 	ld	d, (hl)
    000020F3 79               [ 4] 5442 	ld	a, c
    000020F4 93               [ 4] 5443 	sub	a, e
    000020F5 78               [ 4] 5444 	ld	a, b
    000020F6 9A               [ 4] 5445 	sbc	a, d
    000020F7 30 1D            [12] 5446 	jr	NC, 00118$
    000020F9 03               [ 6] 5447 	inc	bc
    000020FA DD 6E FD         [19] 5448 	ld	l, -3 (ix)
    000020FD DD 66 FE         [19] 5449 	ld	h, -2 (ix)
    00002100 71               [ 7] 5450 	ld	(hl), c
    00002101 23               [ 6] 5451 	inc	hl
    00002102 70               [ 7] 5452 	ld	(hl), b
    00002103 DD 36 FC 00      [19] 5453 	ld	-4 (ix), #0x00
    00002107 DD 6E F9         [19] 5454 	ld	l, -7 (ix)
    0000210A DD 66 FA         [19] 5455 	ld	h, -6 (ix)
    0000210D 11 0A 00         [10] 5456 	ld	de, #0x000a
    00002110 19               [11] 5457 	add	hl, de
    00002111 36 03            [10] 5458 	ld	(hl), #0x03
    00002113 C3r36r21         [10] 5459 	jp	00119$
    00002116                       5460 00118$:
                                   5461 ;E:\Dropbox\FAUSTO\SVILUPPI\MSX\CODE\C\MSXgl\projects\exsoccer/exsoccer_s22_b2.c:969: else if (g_Players[i].X > g_Players[i].TargetX) { g_Players[i].X--; arrived=false; g_Players[i].Direction = DIRECTION_LEFT; }
    00002116 7B               [ 4] 5462 	ld	a, e
    00002117 91               [ 4] 5463 	sub	a, c
    00002118 7A               [ 4] 5464 	ld	a, d
    00002119 98               [ 4] 5465 	sbc	a, b
    0000211A 30 1A            [12] 5466 	jr	NC, 00119$
    0000211C 0B               [ 6] 5467 	dec	bc
    0000211D DD 6E FD         [19] 5468 	ld	l, -3 (ix)
    00002120 DD 66 FE         [19] 5469 	ld	h, -2 (ix)
    00002123 71               [ 7] 5470 	ld	(hl), c
    00002124 23               [ 6] 5471 	inc	hl
    00002125 70               [ 7] 5472 	ld	(hl), b
    00002126 DD 36 FC 00      [19] 5473 	ld	-4 (ix), #0x00
    0000212A DD 6E F9         [19] 5474 	ld	l, -7 (ix)
    0000212D DD 66 FA         [19] 5475 	ld	h, -6 (ix)
    00002130 11 0A 00         [10] 5476 	ld	de, #0x000a
    00002133 19               [11] 5477 	add	hl, de
    00002134 36 07            [10] 5478 	ld	(hl), #0x07
    00002136                       5479 00119$:
                                   5480 ;E:\Dropbox\FAUSTO\SVILUPPI\MSX\CODE\C\MSXgl\projects\exsoccer/exsoccer_s22_b2.c:971: if (g_Players[i].Y < g_Players[i].TargetY) { g_Players[i].Y++; arrived=false; g_Players[i].Direction = DIRECTION_DOWN; }
    00002136 DD 6E F9         [19] 5481 	ld	l, -7 (ix)
    00002139 DD 66 FA         [19] 5482 	ld	h, -6 (ix)
    0000213C 4E               [ 7] 5483 	ld	c, (hl)
    0000213D 23               [ 6] 5484 	inc	hl
    0000213E 46               [ 7] 5485 	ld	b, (hl)
    0000213F DD 5E F9         [19] 5486 	ld	e, -7 (ix)
    00002142 DD 56 FA         [19] 5487 	ld	d, -6 (ix)
    00002145 21 0E 00         [10] 5488 	ld	hl, #14
    00002148 19               [11] 5489 	add	hl, de
    00002149 5E               [ 7] 5490 	ld	e, (hl)
    0000214A 23               [ 6] 5491 	inc	hl
    0000214B 56               [ 7] 5492 	ld	d, (hl)
    0000214C 79               [ 4] 5493 	ld	a, c
    0000214D 93               [ 4] 5494 	sub	a, e
    0000214E 78               [ 4] 5495 	ld	a, b
    0000214F 9A               [ 4] 5496 	sbc	a, d
    00002150 30 1D            [12] 5497 	jr	NC, 00123$
    00002152 03               [ 6] 5498 	inc	bc
    00002153 DD 6E F9         [19] 5499 	ld	l, -7 (ix)
    00002156 DD 66 FA         [19] 5500 	ld	h, -6 (ix)
    00002159 71               [ 7] 5501 	ld	(hl), c
    0000215A 23               [ 6] 5502 	inc	hl
    0000215B 70               [ 7] 5503 	ld	(hl), b
    0000215C DD 36 FC 00      [19] 5504 	ld	-4 (ix), #0x00
    00002160 DD 6E F9         [19] 5505 	ld	l, -7 (ix)
    00002163 DD 66 FA         [19] 5506 	ld	h, -6 (ix)
    00002166 11 0A 00         [10] 5507 	ld	de, #0x000a
    00002169 19               [11] 5508 	add	hl, de
    0000216A 36 05            [10] 5509 	ld	(hl), #0x05
    0000216C C3r8Fr21         [10] 5510 	jp	00124$
    0000216F                       5511 00123$:
                                   5512 ;E:\Dropbox\FAUSTO\SVILUPPI\MSX\CODE\C\MSXgl\projects\exsoccer/exsoccer_s22_b2.c:972: else if (g_Players[i].Y > g_Players[i].TargetY) { g_Players[i].Y--; arrived=false; g_Players[i].Direction = DIRECTION_UP; }
    0000216F 7B               [ 4] 5513 	ld	a, e
    00002170 91               [ 4] 5514 	sub	a, c
    00002171 7A               [ 4] 5515 	ld	a, d
    00002172 98               [ 4] 5516 	sbc	a, b
    00002173 30 1A            [12] 5517 	jr	NC, 00124$
    00002175 0B               [ 6] 5518 	dec	bc
    00002176 DD 6E F9         [19] 5519 	ld	l, -7 (ix)
    00002179 DD 66 FA         [19] 5520 	ld	h, -6 (ix)
    0000217C 71               [ 7] 5521 	ld	(hl), c
    0000217D 23               [ 6] 5522 	inc	hl
    0000217E 70               [ 7] 5523 	ld	(hl), b
    0000217F DD 36 FC 00      [19] 5524 	ld	-4 (ix), #0x00
    00002183 DD 6E F9         [19] 5525 	ld	l, -7 (ix)
    00002186 DD 66 FA         [19] 5526 	ld	h, -6 (ix)
    00002189 11 0A 00         [10] 5527 	ld	de, #0x000a
    0000218C 19               [11] 5528 	add	hl, de
    0000218D 36 01            [10] 5529 	ld	(hl), #0x01
    0000218F                       5530 00124$:
                                   5531 ;E:\Dropbox\FAUSTO\SVILUPPI\MSX\CODE\C\MSXgl\projects\exsoccer/exsoccer_s22_b2.c:976: g_Players[i].Status = PLAYER_STATUS_NONE;
    0000218F DD 7E F9         [19] 5532 	ld	a, -7 (ix)
    00002192 C6 12            [ 7] 5533 	add	a, #0x12
    00002194 DD 77 FD         [19] 5534 	ld	-3 (ix), a
    00002197 DD 7E FA         [19] 5535 	ld	a, -6 (ix)
    0000219A CE 00            [ 7] 5536 	adc	a, #0x00
    0000219C DD 77 FE         [19] 5537 	ld	-2 (ix), a
                                   5538 ;E:\Dropbox\FAUSTO\SVILUPPI\MSX\CODE\C\MSXgl\projects\exsoccer/exsoccer_s22_b2.c:974: if (!arrived) {
    0000219F DD 7E FC         [19] 5539 	ld	a, -4 (ix)
    000021A2 B7               [ 4] 5540 	or	a, a
    000021A3 20 11            [12] 5541 	jr	NZ, 00129$
                                   5542 ;E:\Dropbox\FAUSTO\SVILUPPI\MSX\CODE\C\MSXgl\projects\exsoccer/exsoccer_s22_b2.c:975: allArrived = false;
    000021A5 DD 36 F8 00      [19] 5543 	ld	-8 (ix), #0x00
                                   5544 ;E:\Dropbox\FAUSTO\SVILUPPI\MSX\CODE\C\MSXgl\projects\exsoccer/exsoccer_s22_b2.c:976: g_Players[i].Status = PLAYER_STATUS_NONE;
    000021A9 DD 6E FD         [19] 5545 	ld	l, -3 (ix)
    000021AC DD 66 FE         [19] 5546 	ld	h, -2 (ix)
    000021AF AF               [ 4] 5547 	xor	a, a
    000021B0 77               [ 7] 5548 	ld	(hl), a
    000021B1 23               [ 6] 5549 	inc	hl
    000021B2 77               [ 7] 5550 	ld	(hl), a
    000021B3 C3r36r22         [10] 5551 	jp	00357$
    000021B6                       5552 00129$:
                                   5553 ;E:\Dropbox\FAUSTO\SVILUPPI\MSX\CODE\C\MSXgl\projects\exsoccer/exsoccer_s22_b2.c:978: g_Players[i].Status = PLAYER_STATUS_POSITIONED;
    000021B6 DD 6E FD         [19] 5554 	ld	l, -3 (ix)
    000021B9 DD 66 FE         [19] 5555 	ld	h, -2 (ix)
    000021BC 36 04            [10] 5556 	ld	(hl), #0x04
    000021BE 23               [ 6] 5557 	inc	hl
    000021BF 36 00            [10] 5558 	ld	(hl), #0x00
                                   5559 ;E:\Dropbox\FAUSTO\SVILUPPI\MSX\CODE\C\MSXgl\projects\exsoccer/exsoccer_s22_b2.c:979: if (g_Players[i].Y < 243) g_Players[i].Direction = DIRECTION_DOWN;
    000021C1 DD 6E F9         [19] 5560 	ld	l, -7 (ix)
    000021C4 DD 66 FA         [19] 5561 	ld	h, -6 (ix)
    000021C7 7E               [ 7] 5562 	ld	a, (hl)
    000021C8 DD 77 FD         [19] 5563 	ld	-3 (ix), a
    000021CB 23               [ 6] 5564 	inc	hl
    000021CC 7E               [ 7] 5565 	ld	a, (hl)
    000021CD DD 77 FE         [19] 5566 	ld	-2 (ix), a
                                   5567 ;E:\Dropbox\FAUSTO\SVILUPPI\MSX\CODE\C\MSXgl\projects\exsoccer/exsoccer_s22_b2.c:971: if (g_Players[i].Y < g_Players[i].TargetY) { g_Players[i].Y++; arrived=false; g_Players[i].Direction = DIRECTION_DOWN; }
    000021D0 DD 7E F9         [19] 5568 	ld	a, -7 (ix)
    000021D3 C6 0A            [ 7] 5569 	add	a, #0x0a
    000021D5 DD 77 FB         [19] 5570 	ld	-5 (ix), a
    000021D8 DD 7E FA         [19] 5571 	ld	a, -6 (ix)
    000021DB CE 00            [ 7] 5572 	adc	a, #0x00
    000021DD DD 77 FC         [19] 5573 	ld	-4 (ix), a
                                   5574 ;E:\Dropbox\FAUSTO\SVILUPPI\MSX\CODE\C\MSXgl\projects\exsoccer/exsoccer_s22_b2.c:979: if (g_Players[i].Y < 243) g_Players[i].Direction = DIRECTION_DOWN;
    000021E0 DD 7E FD         [19] 5575 	ld	a, -3 (ix)
    000021E3 D6 F3            [ 7] 5576 	sub	a, #0xf3
    000021E5 DD 7E FE         [19] 5577 	ld	a, -2 (ix)
    000021E8 DE 00            [ 7] 5578 	sbc	a, #0x00
    000021EA 30 0B            [12] 5579 	jr	NC, 00126$
    000021EC DD 6E FB         [19] 5580 	ld	l, -5 (ix)
    000021EF DD 66 FC         [19] 5581 	ld	h, -4 (ix)
    000021F2 36 05            [10] 5582 	ld	(hl), #0x05
    000021F4 C3rFFr21         [10] 5583 	jp	00127$
    000021F7                       5584 00126$:
                                   5585 ;E:\Dropbox\FAUSTO\SVILUPPI\MSX\CODE\C\MSXgl\projects\exsoccer/exsoccer_s22_b2.c:980: else g_Players[i].Direction = DIRECTION_UP;
    000021F7 DD 6E FB         [19] 5586 	ld	l, -5 (ix)
    000021FA DD 66 FC         [19] 5587 	ld	h, -4 (ix)
    000021FD 36 01            [10] 5588 	ld	(hl), #0x01
    000021FF                       5589 00127$:
                                   5590 ;E:\Dropbox\FAUSTO\SVILUPPI\MSX\CODE\C\MSXgl\projects\exsoccer/exsoccer_s22_b2.c:981: g_Players[i].PatternId = (g_Players[i].Direction == DIRECTION_UP) ? PLAYER_POSE_BACK : PLAYER_POSE_FRONT;
    000021FF DD 7E F9         [19] 5591 	ld	a, -7 (ix)
    00002202 C6 08            [ 7] 5592 	add	a, #0x08
    00002204 DD 77 FD         [19] 5593 	ld	-3 (ix), a
    00002207 DD 7E FA         [19] 5594 	ld	a, -6 (ix)
    0000220A CE 00            [ 7] 5595 	adc	a, #0x00
    0000220C DD 77 FE         [19] 5596 	ld	-2 (ix), a
    0000220F DD 6E FB         [19] 5597 	ld	l, -5 (ix)
    00002212 DD 66 FC         [19] 5598 	ld	h, -4 (ix)
    00002215 7E               [ 7] 5599 	ld	a, (hl)
    00002216 3D               [ 4] 5600 	dec	a
    00002217 20 0B            [12] 5601 	jr	NZ, 00374$
    00002219 DD 36 FB 11      [19] 5602 	ld	-5 (ix), #0x11
    0000221D DD 36 FC 00      [19] 5603 	ld	-4 (ix), #0
    00002221 C3r2Cr22         [10] 5604 	jp	00375$
    00002224                       5605 00374$:
    00002224 DD 36 FB 10      [19] 5606 	ld	-5 (ix), #0x10
    00002228 DD 36 FC 00      [19] 5607 	ld	-4 (ix), #0
    0000222C                       5608 00375$:
    0000222C DD 7E FB         [19] 5609 	ld	a, -5 (ix)
    0000222F DD 6E FD         [19] 5610 	ld	l, -3 (ix)
    00002232 DD 66 FE         [19] 5611 	ld	h, -2 (ix)
    00002235 77               [ 7] 5612 	ld	(hl), a
    00002236                       5613 00357$:
                                   5614 ;E:\Dropbox\FAUSTO\SVILUPPI\MSX\CODE\C\MSXgl\projects\exsoccer/exsoccer_s22_b2.c:966: for(u8 i=0; i<15; i++) {
    00002236 DD 34 FF         [23] 5615 	inc	-1 (ix)
    00002239 C3rAAr20         [10] 5616 	jp	00356$
    0000223C                       5617 00131$:
                                   5618 ;E:\Dropbox\FAUSTO\SVILUPPI\MSX\CODE\C\MSXgl\projects\exsoccer/exsoccer_s22_b2.c:984: UpdateSpritesPositions();
    0000223C CDr00r00         [17] 5619 	call	_UpdateSpritesPositions
                                   5620 ;E:\Dropbox\FAUSTO\SVILUPPI\MSX\CODE\C\MSXgl\projects\exsoccer/exsoccer_s22_b2.c:985: UpdateV9990();
    0000223F CDr00r00         [17] 5621 	call	_UpdateV9990
                                   5622 ;E:\Dropbox\FAUSTO\SVILUPPI\MSX\CODE\C\MSXgl\projects\exsoccer/exsoccer_s22_b2.c:986: if (allArrived) break;
    00002242 DD 7E F8         [19] 5623 	ld	a, -8 (ix)
    00002245 B7               [ 4] 5624 	or	a, a
    00002246 CArA2r20         [10] 5625 	jp	Z, 00135$
                                   5626 ;E:\Dropbox\FAUSTO\SVILUPPI\MSX\CODE\C\MSXgl\projects\exsoccer/exsoccer_s22_b2.c:989: g_MatchStatus = MATCH_PENALTY_SHOOTOUT;
    00002249 21r00r00         [10] 5627 	ld	hl, #_g_MatchStatus
    0000224C 36 11            [10] 5628 	ld	(hl), #0x11
                                   5629 ;E:\Dropbox\FAUSTO\SVILUPPI\MSX\CODE\C\MSXgl\projects\exsoccer/exsoccer_s22_b2.c:1000: g_Ball.Size = 1;
    0000224E 21r04r00         [10] 5630 	ld	hl, #(_g_Ball + 4)
    00002251 36 01            [10] 5631 	ld	(hl), #0x01
                                   5632 ;E:\Dropbox\FAUSTO\SVILUPPI\MSX\CODE\C\MSXgl\projects\exsoccer/exsoccer_s22_b2.c:1001: g_Ball.KickMoveState = 0; // Ensure no dribble offset interferes with Y
    00002253 21r0Dr00         [10] 5633 	ld	hl, #(_g_Ball + 13)
    00002256 36 00            [10] 5634 	ld	(hl), #0x00
                                   5635 ;E:\Dropbox\FAUSTO\SVILUPPI\MSX\CODE\C\MSXgl\projects\exsoccer/exsoccer_s22_b2.c:1003: while(true) {
    00002258 DD 36 F7 04      [19] 5636 	ld	-9 (ix), #0x04
    0000225C DD 36 F8 00      [19] 5637 	ld	-8 (ix), #0x00
    00002260 DD 36 F9 00      [19] 5638 	ld	-7 (ix), #0x00
    00002264 DD 36 FA 04      [19] 5639 	ld	-6 (ix), #0x04
    00002268 DD 36 FB 00      [19] 5640 	ld	-5 (ix), #0x00
    0000226C DD 36 FC 00      [19] 5641 	ld	-4 (ix), #0x00
    00002270 DD 36 FD 00      [19] 5642 	ld	-3 (ix), #0x00
    00002274                       5643 00343$:
                                   5644 ;E:\Dropbox\FAUSTO\SVILUPPI\MSX\CODE\C\MSXgl\projects\exsoccer/exsoccer_s22_b2.c:1004: UpdateV9990();
    00002274 CDr00r00         [17] 5645 	call	_UpdateV9990
                                   5646 ;E:\Dropbox\FAUSTO\SVILUPPI\MSX\CODE\C\MSXgl\projects\exsoccer/exsoccer_s22_b2.c:1007: if (turn < 10) {
    00002277 DD 7E FD         [19] 5647 	ld	a, -3 (ix)
    0000227A D6 0A            [ 7] 5648 	sub	a, #0x0a
    0000227C D2r1Fr23         [10] 5649 	jp	NC, 00148$
                                   5650 ;E:\Dropbox\FAUSTO\SVILUPPI\MSX\CODE\C\MSXgl\projects\exsoccer/exsoccer_s22_b2.c:1008: u8 rem1 = 5 - shots1;
    0000227F DD 7E FC         [19] 5651 	ld	a, -4 (ix)
    00002282 DD 77 FF         [19] 5652 	ld	-1 (ix), a
    00002285 3E 05            [ 7] 5653 	ld	a, #0x05
    00002287 DD 96 FF         [19] 5654 	sub	a, -1 (ix)
    0000228A DD 77 FF         [19] 5655 	ld	-1 (ix), a
                                   5656 ;E:\Dropbox\FAUSTO\SVILUPPI\MSX\CODE\C\MSXgl\projects\exsoccer/exsoccer_s22_b2.c:1009: u8 rem2 = 5 - shots2;
    0000228D DD 7E FB         [19] 5657 	ld	a, -5 (ix)
    00002290 DD 77 FE         [19] 5658 	ld	-2 (ix), a
    00002293 3E 05            [ 7] 5659 	ld	a, #0x05
    00002295 DD 96 FE         [19] 5660 	sub	a, -2 (ix)
    00002298 DD 77 FE         [19] 5661 	ld	-2 (ix), a
                                   5662 ;E:\Dropbox\FAUSTO\SVILUPPI\MSX\CODE\C\MSXgl\projects\exsoccer/exsoccer_s22_b2.c:1010: if (goals1 > goals2 + rem2) { TeamVictory(TEAM_1); return; }
    0000229B DD 7E F8         [19] 5663 	ld	a, -8 (ix)
    0000229E DD 77 F1         [19] 5664 	ld	-15 (ix), a
    000022A1 DD 36 F2 00      [19] 5665 	ld	-14 (ix), #0x00
    000022A5 DD 7E FE         [19] 5666 	ld	a, -2 (ix)
    000022A8 DD 77 F3         [19] 5667 	ld	-13 (ix), a
    000022AB DD 36 F4 00      [19] 5668 	ld	-12 (ix), #0x00
    000022AF DD 7E F1         [19] 5669 	ld	a, -15 (ix)
    000022B2 DD 86 F3         [19] 5670 	add	a, -13 (ix)
    000022B5 DD 77 F5         [19] 5671 	ld	-11 (ix), a
    000022B8 DD 7E F2         [19] 5672 	ld	a, -14 (ix)
    000022BB DD 8E F4         [19] 5673 	adc	a, -12 (ix)
    000022BE DD 77 F6         [19] 5674 	ld	-10 (ix), a
    000022C1 DD 7E F9         [19] 5675 	ld	a, -7 (ix)
    000022C4 DD 77 F3         [19] 5676 	ld	-13 (ix), a
    000022C7 DD 36 F4 00      [19] 5677 	ld	-12 (ix), #0x00
    000022CB DD 7E F5         [19] 5678 	ld	a, -11 (ix)
    000022CE DD 96 F3         [19] 5679 	sub	a, -13 (ix)
    000022D1 DD 7E F6         [19] 5680 	ld	a, -10 (ix)
    000022D4 DD 9E F4         [19] 5681 	sbc	a, -12 (ix)
    000022D7 E2rDCr22         [10] 5682 	jp	PO, 01063$
    000022DA EE 80            [ 7] 5683 	xor	a, #0x80
    000022DC                       5684 01063$:
    000022DC F2rE7r22         [10] 5685 	jp	P, 00138$
    000022DF 3E 01            [ 7] 5686 	ld	a, #0x01
    000022E1 CDr0Cr35         [17] 5687 	call	_TeamVictory
    000022E4 C3rE3r34         [10] 5688 	jp	00370$
    000022E7                       5689 00138$:
                                   5690 ;E:\Dropbox\FAUSTO\SVILUPPI\MSX\CODE\C\MSXgl\projects\exsoccer/exsoccer_s22_b2.c:1011: if (goals2 > goals1 + rem1) { TeamVictory(TEAM_2); return; }
    000022E7 DD 7E FF         [19] 5691 	ld	a, -1 (ix)
    000022EA DD 77 F5         [19] 5692 	ld	-11 (ix), a
    000022ED DD 36 F6 00      [19] 5693 	ld	-10 (ix), #0x00
    000022F1 DD 7E F3         [19] 5694 	ld	a, -13 (ix)
    000022F4 DD 86 F5         [19] 5695 	add	a, -11 (ix)
    000022F7 DD 77 FE         [19] 5696 	ld	-2 (ix), a
    000022FA DD 7E F4         [19] 5697 	ld	a, -12 (ix)
    000022FD DD 8E F6         [19] 5698 	adc	a, -10 (ix)
    00002300 DD 77 FF         [19] 5699 	ld	-1 (ix), a
    00002303 DD 7E FE         [19] 5700 	ld	a, -2 (ix)
    00002306 DD 96 F1         [19] 5701 	sub	a, -15 (ix)
    00002309 DD 7E FF         [19] 5702 	ld	a, -1 (ix)
    0000230C DD 9E F2         [19] 5703 	sbc	a, -14 (ix)
    0000230F E2r14r23         [10] 5704 	jp	PO, 01064$
    00002312 EE 80            [ 7] 5705 	xor	a, #0x80
    00002314                       5706 01064$:
    00002314 F2r47r23         [10] 5707 	jp	P, 00149$
    00002317 3E 02            [ 7] 5708 	ld	a, #0x02
    00002319 CDr0Cr35         [17] 5709 	call	_TeamVictory
    0000231C C3rE3r34         [10] 5710 	jp	00370$
    0000231F                       5711 00148$:
                                   5712 ;E:\Dropbox\FAUSTO\SVILUPPI\MSX\CODE\C\MSXgl\projects\exsoccer/exsoccer_s22_b2.c:1014: if (shots1 == shots2) {
    0000231F DD 7E FB         [19] 5713 	ld	a, -5 (ix)
    00002322 DD 96 FC         [19] 5714 	sub	a, -4 (ix)
    00002325 20 20            [12] 5715 	jr	NZ, 00149$
                                   5716 ;E:\Dropbox\FAUSTO\SVILUPPI\MSX\CODE\C\MSXgl\projects\exsoccer/exsoccer_s22_b2.c:1015: if (goals1 > goals2) { TeamVictory(TEAM_1); return; }
    00002327 DD 7E F8         [19] 5717 	ld	a, -8 (ix)
    0000232A DD 96 F9         [19] 5718 	sub	a, -7 (ix)
    0000232D 30 08            [12] 5719 	jr	NC, 00142$
    0000232F 3E 01            [ 7] 5720 	ld	a, #0x01
    00002331 CDr0Cr35         [17] 5721 	call	_TeamVictory
    00002334 C3rE3r34         [10] 5722 	jp	00370$
    00002337                       5723 00142$:
                                   5724 ;E:\Dropbox\FAUSTO\SVILUPPI\MSX\CODE\C\MSXgl\projects\exsoccer/exsoccer_s22_b2.c:1016: if (goals2 > goals1) { TeamVictory(TEAM_2); return; }
    00002337 DD 7E F9         [19] 5725 	ld	a, -7 (ix)
    0000233A DD 96 F8         [19] 5726 	sub	a, -8 (ix)
    0000233D 30 08            [12] 5727 	jr	NC, 00149$
    0000233F 3E 02            [ 7] 5728 	ld	a, #0x02
    00002341 CDr0Cr35         [17] 5729 	call	_TeamVictory
    00002344 C3rE3r34         [10] 5730 	jp	00370$
    00002347                       5731 00149$:
                                   5732 ;E:\Dropbox\FAUSTO\SVILUPPI\MSX\CODE\C\MSXgl\projects\exsoccer/exsoccer_s22_b2.c:1021: u8 kickingTeam = (turn % 2 == 0) ? TEAM_1 : TEAM_2;
    00002347 DD 7E FD         [19] 5733 	ld	a, -3 (ix)
    0000234A DD 77 F4         [19] 5734 	ld	-12 (ix), a
    0000234D DD 36 F5 00      [19] 5735 	ld	-11 (ix), #0x00
    00002351 DD CB F4 46      [20] 5736 	bit	0, -12 (ix)
    00002355 20 06            [12] 5737 	jr	NZ, 00376$
    00002357 01 01 00         [10] 5738 	ld	bc, #0x0001
    0000235A C3r60r23         [10] 5739 	jp	00377$
    0000235D                       5740 00376$:
    0000235D 01 02 00         [10] 5741 	ld	bc, #0x0002
    00002360                       5742 00377$:
                                   5743 ;E:\Dropbox\FAUSTO\SVILUPPI\MSX\CODE\C\MSXgl\projects\exsoccer/exsoccer_s22_b2.c:1022: u8 gkTeam = (kickingTeam == TEAM_1) ? TEAM_2 : TEAM_1;
    00002360 0D               [ 4] 5744 	dec	c
    00002361 3E 01            [ 7] 5745 	ld	a, #0x01
    00002363 28 01            [12] 5746 	jr	Z, 01070$
    00002365 AF               [ 4] 5747 	xor	a, a
    00002366                       5748 01070$:
    00002366 DD 77 CB         [19] 5749 	ld	-53 (ix), a
    00002369 B7               [ 4] 5750 	or	a, a
    0000236A 28 0B            [12] 5751 	jr	Z, 00378$
    0000236C DD 36 FE 02      [19] 5752 	ld	-2 (ix), #0x02
    00002370 DD 36 FF 00      [19] 5753 	ld	-1 (ix), #0
    00002374 C3r7Fr23         [10] 5754 	jp	00379$
    00002377                       5755 00378$:
    00002377 DD 36 FE 01      [19] 5756 	ld	-2 (ix), #0x01
    0000237B DD 36 FF 00      [19] 5757 	ld	-1 (ix), #0
    0000237F                       5758 00379$:
    0000237F DD 7E FE         [19] 5759 	ld	a, -2 (ix)
    00002382 DD 77 F6         [19] 5760 	ld	-10 (ix), a
                                   5761 ;E:\Dropbox\FAUSTO\SVILUPPI\MSX\CODE\C\MSXgl\projects\exsoccer/exsoccer_s22_b2.c:1028: u8 k = 8 + ((turn/2) % 6); // Team 1 players 8-13
    00002385 DD 7E F5         [19] 5762 	ld	a, -11 (ix)
    00002388 07               [ 4] 5763 	rlca
    00002389 E6 01            [ 7] 5764 	and	a,#0x01
    0000238B 4F               [ 4] 5765 	ld	c, a
                                   5766 ;E:\Dropbox\FAUSTO\SVILUPPI\MSX\CODE\C\MSXgl\projects\exsoccer/exsoccer_s22_b2.c:1027: if (kickingTeam == TEAM_1) {
    0000238C DD 7E CB         [19] 5767 	ld	a, -53 (ix)
    0000238F B7               [ 4] 5768 	or	a, a
    00002390 28 28            [12] 5769 	jr	Z, 00151$
                                   5770 ;E:\Dropbox\FAUSTO\SVILUPPI\MSX\CODE\C\MSXgl\projects\exsoccer/exsoccer_s22_b2.c:1028: u8 k = 8 + ((turn/2) % 6); // Team 1 players 8-13
    00002392 DD 6E F4         [19] 5771 	ld	l, -12 (ix)
                                   5772 ;	spillPairReg hl
                                   5773 ;	spillPairReg hl
    00002395 DD 66 F5         [19] 5774 	ld	h, -11 (ix)
                                   5775 ;	spillPairReg hl
                                   5776 ;	spillPairReg hl
    00002398 79               [ 4] 5777 	ld	a, c
    00002399 B7               [ 4] 5778 	or	a, a
    0000239A 28 07            [12] 5779 	jr	Z, 00380$
    0000239C DD 6E F4         [19] 5780 	ld	l, -12 (ix)
                                   5781 ;	spillPairReg hl
                                   5782 ;	spillPairReg hl
    0000239F DD 66 F5         [19] 5783 	ld	h, -11 (ix)
                                   5784 ;	spillPairReg hl
                                   5785 ;	spillPairReg hl
    000023A2 23               [ 6] 5786 	inc	hl
    000023A3                       5787 00380$:
    000023A3 CB 2C            [ 8] 5788 	sra	h
    000023A5 CB 1D            [ 8] 5789 	rr	l
    000023A7 11 06 00         [10] 5790 	ld	de, #0x0006
    000023AA CDr00r00         [17] 5791 	call	__modsint
    000023AD 7B               [ 4] 5792 	ld	a, e
    000023AE C6 08            [ 7] 5793 	add	a, #0x08
    000023B0 DD 77 CC         [19] 5794 	ld	-52 (ix), a
                                   5795 ;E:\Dropbox\FAUSTO\SVILUPPI\MSX\CODE\C\MSXgl\projects\exsoccer/exsoccer_s22_b2.c:1030: gkId = 0; // Team 2 GK
    000023B3 DD 36 CD 00      [19] 5796 	ld	-51 (ix), #0x00
    000023B7 C3rF3r23         [10] 5797 	jp	00152$
    000023BA                       5798 00151$:
                                   5799 ;E:\Dropbox\FAUSTO\SVILUPPI\MSX\CODE\C\MSXgl\projects\exsoccer/exsoccer_s22_b2.c:1032: u8 k = 1 + ((turn/2) % 6); // Team 2 players 1-6
    000023BA DD 7E F4         [19] 5800 	ld	a, -12 (ix)
    000023BD DD 77 FE         [19] 5801 	ld	-2 (ix), a
    000023C0 DD 7E F5         [19] 5802 	ld	a, -11 (ix)
    000023C3 DD 77 FF         [19] 5803 	ld	-1 (ix), a
    000023C6 79               [ 4] 5804 	ld	a, c
    000023C7 B7               [ 4] 5805 	or	a, a
    000023C8 28 10            [12] 5806 	jr	Z, 00381$
    000023CA DD 7E F4         [19] 5807 	ld	a, -12 (ix)
    000023CD C6 01            [ 7] 5808 	add	a, #0x01
    000023CF DD 77 FE         [19] 5809 	ld	-2 (ix), a
    000023D2 DD 7E F5         [19] 5810 	ld	a, -11 (ix)
    000023D5 CE 00            [ 7] 5811 	adc	a, #0x00
    000023D7 DD 77 FF         [19] 5812 	ld	-1 (ix), a
    000023DA                       5813 00381$:
    000023DA DD 6E FE         [19] 5814 	ld	l, -2 (ix)
    000023DD DD 66 FF         [19] 5815 	ld	h, -1 (ix)
    000023E0 CB 2C            [ 8] 5816 	sra	h
    000023E2 CB 1D            [ 8] 5817 	rr	l
    000023E4 11 06 00         [10] 5818 	ld	de, #0x0006
    000023E7 CDr00r00         [17] 5819 	call	__modsint
    000023EA 7B               [ 4] 5820 	ld	a, e
    000023EB 3C               [ 4] 5821 	inc	a
    000023EC DD 77 CC         [19] 5822 	ld	-52 (ix), a
                                   5823 ;E:\Dropbox\FAUSTO\SVILUPPI\MSX\CODE\C\MSXgl\projects\exsoccer/exsoccer_s22_b2.c:1034: gkId = 7; // Team 1 GK
    000023EF DD 36 CD 07      [19] 5824 	ld	-51 (ix), #0x07
    000023F3                       5825 00152$:
                                   5826 ;E:\Dropbox\FAUSTO\SVILUPPI\MSX\CODE\C\MSXgl\projects\exsoccer/exsoccer_s22_b2.c:1042: g_Players[kickerId].TargetX = kickSpotX;
    000023F3 DD 4E CC         [19] 5827 	ld	c, -52 (ix)
    000023F6 06 00            [ 7] 5828 	ld	b, #0x00
    000023F8 69               [ 4] 5829 	ld	l, c
    000023F9 60               [ 4] 5830 	ld	h, b
    000023FA 29               [11] 5831 	add	hl, hl
    000023FB 29               [11] 5832 	add	hl, hl
    000023FC 09               [11] 5833 	add	hl, bc
    000023FD 29               [11] 5834 	add	hl, hl
    000023FE 29               [11] 5835 	add	hl, hl
    000023FF 09               [11] 5836 	add	hl, bc
    00002400 DD 75 FE         [19] 5837 	ld	-2 (ix), l
    00002403 DD 74 FF         [19] 5838 	ld	-1 (ix), h
    00002406 3Er00            [ 7] 5839 	ld	a, #<(_g_Players)
    00002408 DD 86 FE         [19] 5840 	add	a, -2 (ix)
    0000240B DD 77 CE         [19] 5841 	ld	-50 (ix), a
    0000240E 3Es00            [ 7] 5842 	ld	a, #>(_g_Players)
    00002410 DD 8E FF         [19] 5843 	adc	a, -1 (ix)
    00002413 DD 77 CF         [19] 5844 	ld	-49 (ix), a
    00002416 DD 7E CE         [19] 5845 	ld	a, -50 (ix)
    00002419 C6 10            [ 7] 5846 	add	a, #0x10
    0000241B DD 77 D0         [19] 5847 	ld	-48 (ix), a
    0000241E DD 7E CF         [19] 5848 	ld	a, -49 (ix)
    00002421 CE 00            [ 7] 5849 	adc	a, #0x00
    00002423 DD 77 D1         [19] 5850 	ld	-47 (ix), a
    00002426 DD 6E D0         [19] 5851 	ld	l, -48 (ix)
    00002429 DD 66 D1         [19] 5852 	ld	h, -47 (ix)
    0000242C 36 78            [10] 5853 	ld	(hl), #0x78
    0000242E 23               [ 6] 5854 	inc	hl
    0000242F 36 00            [10] 5855 	ld	(hl), #0x00
                                   5856 ;E:\Dropbox\FAUSTO\SVILUPPI\MSX\CODE\C\MSXgl\projects\exsoccer/exsoccer_s22_b2.c:1043: g_Players[kickerId].TargetY = kickSpotY + 6; // Player stands behind ball
    00002431 DD 7E CE         [19] 5857 	ld	a, -50 (ix)
    00002434 C6 0E            [ 7] 5858 	add	a, #0x0e
    00002436 DD 77 D2         [19] 5859 	ld	-46 (ix), a
    00002439 DD 7E CF         [19] 5860 	ld	a, -49 (ix)
    0000243C CE 00            [ 7] 5861 	adc	a, #0x00
    0000243E DD 77 D3         [19] 5862 	ld	-45 (ix), a
    00002441 DD 6E D2         [19] 5863 	ld	l, -46 (ix)
    00002444 DD 66 D3         [19] 5864 	ld	h, -45 (ix)
    00002447 36 67            [10] 5865 	ld	(hl), #0x67
    00002449 23               [ 6] 5866 	inc	hl
    0000244A 36 00            [10] 5867 	ld	(hl), #0x00
                                   5868 ;E:\Dropbox\FAUSTO\SVILUPPI\MSX\CODE\C\MSXgl\projects\exsoccer/exsoccer_s22_b2.c:1044: g_Players[gkId].TargetX = kickSpotX;
    0000244C DD 4E CD         [19] 5869 	ld	c, -51 (ix)
    0000244F 06 00            [ 7] 5870 	ld	b, #0x00
    00002451 69               [ 4] 5871 	ld	l, c
    00002452 60               [ 4] 5872 	ld	h, b
    00002453 29               [11] 5873 	add	hl, hl
    00002454 29               [11] 5874 	add	hl, hl
    00002455 09               [11] 5875 	add	hl, bc
    00002456 29               [11] 5876 	add	hl, hl
    00002457 29               [11] 5877 	add	hl, hl
    00002458 09               [11] 5878 	add	hl, bc
    00002459 DD 75 FE         [19] 5879 	ld	-2 (ix), l
    0000245C DD 74 FF         [19] 5880 	ld	-1 (ix), h
    0000245F 3Er00            [ 7] 5881 	ld	a, #<(_g_Players)
    00002461 DD 86 FE         [19] 5882 	add	a, -2 (ix)
    00002464 DD 77 D4         [19] 5883 	ld	-44 (ix), a
    00002467 3Es00            [ 7] 5884 	ld	a, #>(_g_Players)
    00002469 DD 8E FF         [19] 5885 	adc	a, -1 (ix)
    0000246C DD 77 D5         [19] 5886 	ld	-43 (ix), a
    0000246F DD 7E D4         [19] 5887 	ld	a, -44 (ix)
    00002472 C6 10            [ 7] 5888 	add	a, #0x10
    00002474 DD 77 D6         [19] 5889 	ld	-42 (ix), a
    00002477 DD 7E D5         [19] 5890 	ld	a, -43 (ix)
    0000247A CE 00            [ 7] 5891 	adc	a, #0x00
    0000247C DD 77 D7         [19] 5892 	ld	-41 (ix), a
    0000247F DD 6E D6         [19] 5893 	ld	l, -42 (ix)
    00002482 DD 66 D7         [19] 5894 	ld	h, -41 (ix)
    00002485 36 78            [10] 5895 	ld	(hl), #0x78
    00002487 23               [ 6] 5896 	inc	hl
    00002488 36 00            [10] 5897 	ld	(hl), #0x00
                                   5898 ;E:\Dropbox\FAUSTO\SVILUPPI\MSX\CODE\C\MSXgl\projects\exsoccer/exsoccer_s22_b2.c:1045: g_Players[gkId].TargetY = gkSpotY;
    0000248A DD 7E D4         [19] 5899 	ld	a, -44 (ix)
    0000248D C6 0E            [ 7] 5900 	add	a, #0x0e
    0000248F DD 77 D8         [19] 5901 	ld	-40 (ix), a
    00002492 DD 7E D5         [19] 5902 	ld	a, -43 (ix)
    00002495 CE 00            [ 7] 5903 	adc	a, #0x00
    00002497 DD 77 D9         [19] 5904 	ld	-39 (ix), a
    0000249A DD 6E D8         [19] 5905 	ld	l, -40 (ix)
    0000249D DD 66 D9         [19] 5906 	ld	h, -39 (ix)
    000024A0 36 36            [10] 5907 	ld	(hl), #0x36
    000024A2 23               [ 6] 5908 	inc	hl
    000024A3 36 00            [10] 5909 	ld	(hl), #0x00
                                   5910 ;E:\Dropbox\FAUSTO\SVILUPPI\MSX\CODE\C\MSXgl\projects\exsoccer/exsoccer_s22_b2.c:1048: g_Players[REFEREE].TargetX = 50;
    000024A5 21 32 00         [10] 5911 	ld	hl, #0x0032
    000024A8 22r36r01         [16] 5912 	ld	((_g_Players + 310)), hl
                                   5913 ;E:\Dropbox\FAUSTO\SVILUPPI\MSX\CODE\C\MSXgl\projects\exsoccer/exsoccer_s22_b2.c:1049: g_Players[REFEREE].TargetY = kickSpotY; 
    000024AB 2E 61            [ 7] 5914 	ld	l, #0x61
    000024AD 22r34r01         [16] 5915 	ld	((_g_Players + 308)), hl
                                   5916 ;E:\Dropbox\FAUSTO\SVILUPPI\MSX\CODE\C\MSXgl\projects\exsoccer/exsoccer_s22_b2.c:1051: g_Players[kickerId].Status = PLAYER_STATUS_NONE;
    000024B0 DD 7E CE         [19] 5917 	ld	a, -50 (ix)
    000024B3 C6 12            [ 7] 5918 	add	a, #0x12
    000024B5 DD 77 DA         [19] 5919 	ld	-38 (ix), a
    000024B8 DD 7E CF         [19] 5920 	ld	a, -49 (ix)
    000024BB CE 00            [ 7] 5921 	adc	a, #0x00
    000024BD DD 77 DB         [19] 5922 	ld	-37 (ix), a
    000024C0 DD 6E DA         [19] 5923 	ld	l, -38 (ix)
    000024C3 DD 66 DB         [19] 5924 	ld	h, -37 (ix)
    000024C6 AF               [ 4] 5925 	xor	a, a
    000024C7 77               [ 7] 5926 	ld	(hl), a
    000024C8 23               [ 6] 5927 	inc	hl
    000024C9 77               [ 7] 5928 	ld	(hl), a
                                   5929 ;E:\Dropbox\FAUSTO\SVILUPPI\MSX\CODE\C\MSXgl\projects\exsoccer/exsoccer_s22_b2.c:1052: g_Players[gkId].Status = PLAYER_STATUS_NONE;
    000024CA DD 7E D4         [19] 5930 	ld	a, -44 (ix)
    000024CD C6 12            [ 7] 5931 	add	a, #0x12
    000024CF DD 77 DC         [19] 5932 	ld	-36 (ix), a
    000024D2 DD 7E D5         [19] 5933 	ld	a, -43 (ix)
    000024D5 CE 00            [ 7] 5934 	adc	a, #0x00
    000024D7 DD 77 DD         [19] 5935 	ld	-35 (ix), a
    000024DA DD 6E DC         [19] 5936 	ld	l, -36 (ix)
    000024DD DD 66 DD         [19] 5937 	ld	h, -35 (ix)
    000024E0 AF               [ 4] 5938 	xor	a, a
    000024E1 77               [ 7] 5939 	ld	(hl), a
    000024E2 23               [ 6] 5940 	inc	hl
    000024E3 77               [ 7] 5941 	ld	(hl), a
                                   5942 ;E:\Dropbox\FAUSTO\SVILUPPI\MSX\CODE\C\MSXgl\projects\exsoccer/exsoccer_s22_b2.c:1053: g_Players[REFEREE].Status = PLAYER_STATUS_NONE;
    000024E4 21 00 00         [10] 5943 	ld	hl, #0x0000
    000024E7 22r38r01         [16] 5944 	ld	((_g_Players + 312)), hl
                                   5945 ;E:\Dropbox\FAUSTO\SVILUPPI\MSX\CODE\C\MSXgl\projects\exsoccer/exsoccer_s22_b2.c:1056: g_Ball.PossessionPlayerId = NO_VALUE;
    000024EA 21r06r00         [10] 5946 	ld	hl, #(_g_Ball + 6)
    000024ED 36 FF            [10] 5947 	ld	(hl), #0xff
                                   5948 ;E:\Dropbox\FAUSTO\SVILUPPI\MSX\CODE\C\MSXgl\projects\exsoccer/exsoccer_s22_b2.c:1057: g_Ball.X = kickSpotX;
    000024EF 21 78 00         [10] 5949 	ld	hl, #0x0078
    000024F2 22r02r00         [16] 5950 	ld	((_g_Ball + 2)), hl
                                   5951 ;E:\Dropbox\FAUSTO\SVILUPPI\MSX\CODE\C\MSXgl\projects\exsoccer/exsoccer_s22_b2.c:1058: g_Ball.Y = kickSpotY; // Ball exactly on spot
    000024F5 2E 61            [ 7] 5952 	ld	l, #0x61
    000024F7 22r00r00         [16] 5953 	ld	(_g_Ball), hl
                                   5954 ;E:\Dropbox\FAUSTO\SVILUPPI\MSX\CODE\C\MSXgl\projects\exsoccer/exsoccer_s22_b2.c:1059: g_Ball.KickMoveState = 0;
    000024FA 21r0Dr00         [10] 5955 	ld	hl, #(_g_Ball + 13)
    000024FD 36 00            [10] 5956 	ld	(hl), #0x00
                                   5957 ;E:\Dropbox\FAUSTO\SVILUPPI\MSX\CODE\C\MSXgl\projects\exsoccer/exsoccer_s22_b2.c:1062: while(true) {
    000024FF                       5958 00191$:
                                   5959 ;E:\Dropbox\FAUSTO\SVILUPPI\MSX\CODE\C\MSXgl\projects\exsoccer/exsoccer_s22_b2.c:1063: UpdateV9990();
    000024FF CDr00r00         [17] 5960 	call	_UpdateV9990
                                   5961 ;E:\Dropbox\FAUSTO\SVILUPPI\MSX\CODE\C\MSXgl\projects\exsoccer/exsoccer_s22_b2.c:1066: bool kDone = true;
    00002502 DD 36 F2 01      [19] 5962 	ld	-14 (ix), #0x01
                                   5963 ;E:\Dropbox\FAUSTO\SVILUPPI\MSX\CODE\C\MSXgl\projects\exsoccer/exsoccer_s22_b2.c:1067: if (g_Players[kickerId].Y > g_Players[kickerId].TargetY) { g_Players[kickerId].Y--; kDone=false; g_Players[kickerId].Direction=DIRECTION_UP; }
    00002506 DD 6E CE         [19] 5964 	ld	l, -50 (ix)
    00002509 DD 66 CF         [19] 5965 	ld	h, -49 (ix)
    0000250C 4E               [ 7] 5966 	ld	c, (hl)
    0000250D 23               [ 6] 5967 	inc	hl
    0000250E 46               [ 7] 5968 	ld	b, (hl)
    0000250F DD 6E D2         [19] 5969 	ld	l, -46 (ix)
    00002512 DD 66 D3         [19] 5970 	ld	h, -45 (ix)
    00002515 5E               [ 7] 5971 	ld	e, (hl)
    00002516 23               [ 6] 5972 	inc	hl
    00002517 56               [ 7] 5973 	ld	d, (hl)
    00002518 7B               [ 4] 5974 	ld	a, e
    00002519 91               [ 4] 5975 	sub	a, c
    0000251A 7A               [ 4] 5976 	ld	a, d
    0000251B 98               [ 4] 5977 	sbc	a, b
    0000251C 30 1D            [12] 5978 	jr	NC, 00156$
    0000251E 0B               [ 6] 5979 	dec	bc
    0000251F DD 6E CE         [19] 5980 	ld	l, -50 (ix)
    00002522 DD 66 CF         [19] 5981 	ld	h, -49 (ix)
    00002525 71               [ 7] 5982 	ld	(hl), c
    00002526 23               [ 6] 5983 	inc	hl
    00002527 70               [ 7] 5984 	ld	(hl), b
    00002528 DD 36 F2 00      [19] 5985 	ld	-14 (ix), #0x00
    0000252C DD 6E CE         [19] 5986 	ld	l, -50 (ix)
    0000252F DD 66 CF         [19] 5987 	ld	h, -49 (ix)
    00002532 11 0A 00         [10] 5988 	ld	de, #0x000a
    00002535 19               [11] 5989 	add	hl, de
    00002536 36 01            [10] 5990 	ld	(hl), #0x01
    00002538 C3r5Br25         [10] 5991 	jp	00157$
    0000253B                       5992 00156$:
                                   5993 ;E:\Dropbox\FAUSTO\SVILUPPI\MSX\CODE\C\MSXgl\projects\exsoccer/exsoccer_s22_b2.c:1068: else if (g_Players[kickerId].Y < g_Players[kickerId].TargetY) { g_Players[kickerId].Y++; kDone=false; g_Players[kickerId].Direction=DIRECTION_DOWN; }
    0000253B 79               [ 4] 5994 	ld	a, c
    0000253C 93               [ 4] 5995 	sub	a, e
    0000253D 78               [ 4] 5996 	ld	a, b
    0000253E 9A               [ 4] 5997 	sbc	a, d
    0000253F 30 1A            [12] 5998 	jr	NC, 00157$
    00002541 03               [ 6] 5999 	inc	bc
    00002542 DD 6E CE         [19] 6000 	ld	l, -50 (ix)
    00002545 DD 66 CF         [19] 6001 	ld	h, -49 (ix)
    00002548 71               [ 7] 6002 	ld	(hl), c
    00002549 23               [ 6] 6003 	inc	hl
    0000254A 70               [ 7] 6004 	ld	(hl), b
    0000254B DD 36 F2 00      [19] 6005 	ld	-14 (ix), #0x00
    0000254F DD 6E CE         [19] 6006 	ld	l, -50 (ix)
    00002552 DD 66 CF         [19] 6007 	ld	h, -49 (ix)
    00002555 11 0A 00         [10] 6008 	ld	de, #0x000a
    00002558 19               [11] 6009 	add	hl, de
    00002559 36 05            [10] 6010 	ld	(hl), #0x05
    0000255B                       6011 00157$:
                                   6012 ;E:\Dropbox\FAUSTO\SVILUPPI\MSX\CODE\C\MSXgl\projects\exsoccer/exsoccer_s22_b2.c:1070: if (g_Players[kickerId].X > g_Players[kickerId].TargetX) { g_Players[kickerId].X--; kDone=false; g_Players[kickerId].Direction=DIRECTION_LEFT; }
    0000255B DD 7E CE         [19] 6013 	ld	a, -50 (ix)
    0000255E C6 02            [ 7] 6014 	add	a, #0x02
    00002560 DD 77 DE         [19] 6015 	ld	-34 (ix), a
    00002563 DD 7E CF         [19] 6016 	ld	a, -49 (ix)
    00002566 CE 00            [ 7] 6017 	adc	a, #0x00
    00002568 DD 77 DF         [19] 6018 	ld	-33 (ix), a
    0000256B DD 6E DE         [19] 6019 	ld	l, -34 (ix)
    0000256E DD 66 DF         [19] 6020 	ld	h, -33 (ix)
    00002571 7E               [ 7] 6021 	ld	a, (hl)
    00002572 DD 77 F4         [19] 6022 	ld	-12 (ix), a
    00002575 23               [ 6] 6023 	inc	hl
    00002576 7E               [ 7] 6024 	ld	a, (hl)
    00002577 DD 77 F5         [19] 6025 	ld	-11 (ix), a
    0000257A DD 6E D0         [19] 6026 	ld	l, -48 (ix)
    0000257D DD 66 D1         [19] 6027 	ld	h, -47 (ix)
    00002580 7E               [ 7] 6028 	ld	a, (hl)
    00002581 DD 77 FE         [19] 6029 	ld	-2 (ix), a
    00002584 23               [ 6] 6030 	inc	hl
    00002585 7E               [ 7] 6031 	ld	a, (hl)
    00002586 DD 77 FF         [19] 6032 	ld	-1 (ix), a
    00002589 DD 7E FE         [19] 6033 	ld	a, -2 (ix)
    0000258C DD 96 F4         [19] 6034 	sub	a, -12 (ix)
    0000258F DD 7E FF         [19] 6035 	ld	a, -1 (ix)
    00002592 DD 9E F5         [19] 6036 	sbc	a, -11 (ix)
    00002595 30 23            [12] 6037 	jr	NC, 00161$
    00002597 DD 4E F4         [19] 6038 	ld	c, -12 (ix)
    0000259A DD 46 F5         [19] 6039 	ld	b, -11 (ix)
    0000259D 0B               [ 6] 6040 	dec	bc
    0000259E DD 6E DE         [19] 6041 	ld	l, -34 (ix)
    000025A1 DD 66 DF         [19] 6042 	ld	h, -33 (ix)
    000025A4 71               [ 7] 6043 	ld	(hl), c
    000025A5 23               [ 6] 6044 	inc	hl
    000025A6 70               [ 7] 6045 	ld	(hl), b
    000025A7 DD 36 F2 00      [19] 6046 	ld	-14 (ix), #0x00
    000025AB DD 6E CE         [19] 6047 	ld	l, -50 (ix)
    000025AE DD 66 CF         [19] 6048 	ld	h, -49 (ix)
    000025B1 11 0A 00         [10] 6049 	ld	de, #0x000a
    000025B4 19               [11] 6050 	add	hl, de
    000025B5 36 07            [10] 6051 	ld	(hl), #0x07
    000025B7 C3rE8r25         [10] 6052 	jp	00162$
    000025BA                       6053 00161$:
                                   6054 ;E:\Dropbox\FAUSTO\SVILUPPI\MSX\CODE\C\MSXgl\projects\exsoccer/exsoccer_s22_b2.c:1071: else if (g_Players[kickerId].X < g_Players[kickerId].TargetX) { g_Players[kickerId].X++; kDone=false; g_Players[kickerId].Direction=DIRECTION_RIGHT; }
    000025BA DD 7E F4         [19] 6055 	ld	a, -12 (ix)
    000025BD DD 96 FE         [19] 6056 	sub	a, -2 (ix)
    000025C0 DD 7E F5         [19] 6057 	ld	a, -11 (ix)
    000025C3 DD 9E FF         [19] 6058 	sbc	a, -1 (ix)
    000025C6 30 20            [12] 6059 	jr	NC, 00162$
    000025C8 DD 4E F4         [19] 6060 	ld	c, -12 (ix)
    000025CB DD 46 F5         [19] 6061 	ld	b, -11 (ix)
    000025CE 03               [ 6] 6062 	inc	bc
    000025CF DD 6E DE         [19] 6063 	ld	l, -34 (ix)
    000025D2 DD 66 DF         [19] 6064 	ld	h, -33 (ix)
    000025D5 71               [ 7] 6065 	ld	(hl), c
    000025D6 23               [ 6] 6066 	inc	hl
    000025D7 70               [ 7] 6067 	ld	(hl), b
    000025D8 DD 36 F2 00      [19] 6068 	ld	-14 (ix), #0x00
    000025DC DD 6E CE         [19] 6069 	ld	l, -50 (ix)
    000025DF DD 66 CF         [19] 6070 	ld	h, -49 (ix)
    000025E2 11 0A 00         [10] 6071 	ld	de, #0x000a
    000025E5 19               [11] 6072 	add	hl, de
    000025E6 36 03            [10] 6073 	ld	(hl), #0x03
    000025E8                       6074 00162$:
                                   6075 ;E:\Dropbox\FAUSTO\SVILUPPI\MSX\CODE\C\MSXgl\projects\exsoccer/exsoccer_s22_b2.c:1074: bool gDone = true;
    000025E8 DD 36 F3 01      [19] 6076 	ld	-13 (ix), #0x01
                                   6077 ;E:\Dropbox\FAUSTO\SVILUPPI\MSX\CODE\C\MSXgl\projects\exsoccer/exsoccer_s22_b2.c:1075: if (g_Players[gkId].Y > g_Players[gkId].TargetY) { g_Players[gkId].Y--; gDone=false; g_Players[gkId].Direction=DIRECTION_UP; }
    000025EC DD 6E D4         [19] 6078 	ld	l, -44 (ix)
    000025EF DD 66 D5         [19] 6079 	ld	h, -43 (ix)
    000025F2 4E               [ 7] 6080 	ld	c, (hl)
    000025F3 23               [ 6] 6081 	inc	hl
    000025F4 46               [ 7] 6082 	ld	b, (hl)
    000025F5 DD 6E D8         [19] 6083 	ld	l, -40 (ix)
    000025F8 DD 66 D9         [19] 6084 	ld	h, -39 (ix)
    000025FB 5E               [ 7] 6085 	ld	e, (hl)
    000025FC 23               [ 6] 6086 	inc	hl
    000025FD 56               [ 7] 6087 	ld	d, (hl)
    000025FE 7B               [ 4] 6088 	ld	a, e
    000025FF 91               [ 4] 6089 	sub	a, c
    00002600 7A               [ 4] 6090 	ld	a, d
    00002601 98               [ 4] 6091 	sbc	a, b
    00002602 30 1D            [12] 6092 	jr	NC, 00166$
    00002604 0B               [ 6] 6093 	dec	bc
    00002605 DD 6E D4         [19] 6094 	ld	l, -44 (ix)
    00002608 DD 66 D5         [19] 6095 	ld	h, -43 (ix)
    0000260B 71               [ 7] 6096 	ld	(hl), c
    0000260C 23               [ 6] 6097 	inc	hl
    0000260D 70               [ 7] 6098 	ld	(hl), b
    0000260E DD 36 F3 00      [19] 6099 	ld	-13 (ix), #0x00
    00002612 DD 6E D4         [19] 6100 	ld	l, -44 (ix)
    00002615 DD 66 D5         [19] 6101 	ld	h, -43 (ix)
    00002618 11 0A 00         [10] 6102 	ld	de, #0x000a
    0000261B 19               [11] 6103 	add	hl, de
    0000261C 36 01            [10] 6104 	ld	(hl), #0x01
    0000261E C3r41r26         [10] 6105 	jp	00167$
    00002621                       6106 00166$:
                                   6107 ;E:\Dropbox\FAUSTO\SVILUPPI\MSX\CODE\C\MSXgl\projects\exsoccer/exsoccer_s22_b2.c:1076: else if (g_Players[gkId].Y < g_Players[gkId].TargetY) { g_Players[gkId].Y++; gDone=false; g_Players[gkId].Direction=DIRECTION_DOWN; }
    00002621 79               [ 4] 6108 	ld	a, c
    00002622 93               [ 4] 6109 	sub	a, e
    00002623 78               [ 4] 6110 	ld	a, b
    00002624 9A               [ 4] 6111 	sbc	a, d
    00002625 30 1A            [12] 6112 	jr	NC, 00167$
    00002627 03               [ 6] 6113 	inc	bc
    00002628 DD 6E D4         [19] 6114 	ld	l, -44 (ix)
    0000262B DD 66 D5         [19] 6115 	ld	h, -43 (ix)
    0000262E 71               [ 7] 6116 	ld	(hl), c
    0000262F 23               [ 6] 6117 	inc	hl
    00002630 70               [ 7] 6118 	ld	(hl), b
    00002631 DD 36 F3 00      [19] 6119 	ld	-13 (ix), #0x00
    00002635 DD 6E D4         [19] 6120 	ld	l, -44 (ix)
    00002638 DD 66 D5         [19] 6121 	ld	h, -43 (ix)
    0000263B 11 0A 00         [10] 6122 	ld	de, #0x000a
    0000263E 19               [11] 6123 	add	hl, de
    0000263F 36 05            [10] 6124 	ld	(hl), #0x05
    00002641                       6125 00167$:
                                   6126 ;E:\Dropbox\FAUSTO\SVILUPPI\MSX\CODE\C\MSXgl\projects\exsoccer/exsoccer_s22_b2.c:1078: if (g_Players[gkId].X > g_Players[gkId].TargetX) { g_Players[gkId].X--; gDone=false; g_Players[gkId].Direction=DIRECTION_LEFT; }
    00002641 DD 7E D4         [19] 6127 	ld	a, -44 (ix)
    00002644 C6 02            [ 7] 6128 	add	a, #0x02
    00002646 DD 77 E0         [19] 6129 	ld	-32 (ix), a
    00002649 DD 7E D5         [19] 6130 	ld	a, -43 (ix)
    0000264C CE 00            [ 7] 6131 	adc	a, #0x00
    0000264E DD 77 E1         [19] 6132 	ld	-31 (ix), a
    00002651 DD 6E E0         [19] 6133 	ld	l, -32 (ix)
    00002654 DD 66 E1         [19] 6134 	ld	h, -31 (ix)
    00002657 7E               [ 7] 6135 	ld	a, (hl)
    00002658 DD 77 F4         [19] 6136 	ld	-12 (ix), a
    0000265B 23               [ 6] 6137 	inc	hl
    0000265C 7E               [ 7] 6138 	ld	a, (hl)
    0000265D DD 77 F5         [19] 6139 	ld	-11 (ix), a
    00002660 DD 6E D6         [19] 6140 	ld	l, -42 (ix)
    00002663 DD 66 D7         [19] 6141 	ld	h, -41 (ix)
    00002666 7E               [ 7] 6142 	ld	a, (hl)
    00002667 DD 77 FE         [19] 6143 	ld	-2 (ix), a
    0000266A 23               [ 6] 6144 	inc	hl
    0000266B 7E               [ 7] 6145 	ld	a, (hl)
    0000266C DD 77 FF         [19] 6146 	ld	-1 (ix), a
    0000266F DD 7E FE         [19] 6147 	ld	a, -2 (ix)
    00002672 DD 96 F4         [19] 6148 	sub	a, -12 (ix)
    00002675 DD 7E FF         [19] 6149 	ld	a, -1 (ix)
    00002678 DD 9E F5         [19] 6150 	sbc	a, -11 (ix)
    0000267B 30 3E            [12] 6151 	jr	NC, 00171$
    0000267D DD 7E F4         [19] 6152 	ld	a, -12 (ix)
    00002680 C6 FF            [ 7] 6153 	add	a, #0xff
    00002682 DD 77 FE         [19] 6154 	ld	-2 (ix), a
    00002685 DD 7E F5         [19] 6155 	ld	a, -11 (ix)
    00002688 CE FF            [ 7] 6156 	adc	a, #0xff
    0000268A DD 77 FF         [19] 6157 	ld	-1 (ix), a
    0000268D DD 6E E0         [19] 6158 	ld	l, -32 (ix)
    00002690 DD 66 E1         [19] 6159 	ld	h, -31 (ix)
    00002693 DD 7E FE         [19] 6160 	ld	a, -2 (ix)
    00002696 77               [ 7] 6161 	ld	(hl), a
    00002697 23               [ 6] 6162 	inc	hl
    00002698 DD 7E FF         [19] 6163 	ld	a, -1 (ix)
    0000269B 77               [ 7] 6164 	ld	(hl), a
    0000269C DD 36 F3 00      [19] 6165 	ld	-13 (ix), #0x00
    000026A0 DD 7E D4         [19] 6166 	ld	a, -44 (ix)
    000026A3 C6 0A            [ 7] 6167 	add	a, #0x0a
    000026A5 DD 77 FE         [19] 6168 	ld	-2 (ix), a
    000026A8 DD 7E D5         [19] 6169 	ld	a, -43 (ix)
    000026AB CE 00            [ 7] 6170 	adc	a, #0x00
    000026AD DD 77 FF         [19] 6171 	ld	-1 (ix), a
    000026B0 DD 6E FE         [19] 6172 	ld	l, -2 (ix)
    000026B3 DD 66 FF         [19] 6173 	ld	h, -1 (ix)
    000026B6 36 07            [10] 6174 	ld	(hl), #0x07
    000026B8 C3rF8r26         [10] 6175 	jp	00172$
    000026BB                       6176 00171$:
                                   6177 ;E:\Dropbox\FAUSTO\SVILUPPI\MSX\CODE\C\MSXgl\projects\exsoccer/exsoccer_s22_b2.c:1079: else if (g_Players[gkId].X < g_Players[gkId].TargetX) { g_Players[gkId].X++; gDone=false; g_Players[gkId].Direction=DIRECTION_RIGHT; }
    000026BB DD 7E F4         [19] 6178 	ld	a, -12 (ix)
    000026BE DD 96 FE         [19] 6179 	sub	a, -2 (ix)
    000026C1 DD 7E F5         [19] 6180 	ld	a, -11 (ix)
    000026C4 DD 9E FF         [19] 6181 	sbc	a, -1 (ix)
    000026C7 30 2F            [12] 6182 	jr	NC, 00172$
    000026C9 DD 7E F4         [19] 6183 	ld	a, -12 (ix)
    000026CC C6 01            [ 7] 6184 	add	a, #0x01
    000026CE DD 77 FE         [19] 6185 	ld	-2 (ix), a
    000026D1 DD 7E F5         [19] 6186 	ld	a, -11 (ix)
    000026D4 CE 00            [ 7] 6187 	adc	a, #0x00
    000026D6 DD 77 FF         [19] 6188 	ld	-1 (ix), a
    000026D9 DD 6E E0         [19] 6189 	ld	l, -32 (ix)
    000026DC DD 66 E1         [19] 6190 	ld	h, -31 (ix)
    000026DF DD 7E FE         [19] 6191 	ld	a, -2 (ix)
    000026E2 77               [ 7] 6192 	ld	(hl), a
    000026E3 23               [ 6] 6193 	inc	hl
    000026E4 DD 7E FF         [19] 6194 	ld	a, -1 (ix)
    000026E7 77               [ 7] 6195 	ld	(hl), a
    000026E8 DD 36 F3 00      [19] 6196 	ld	-13 (ix), #0x00
    000026EC DD 6E D4         [19] 6197 	ld	l, -44 (ix)
    000026EF DD 66 D5         [19] 6198 	ld	h, -43 (ix)
    000026F2 11 0A 00         [10] 6199 	ld	de, #0x000a
    000026F5 19               [11] 6200 	add	hl, de
    000026F6 36 03            [10] 6201 	ld	(hl), #0x03
    000026F8                       6202 00172$:
                                   6203 ;E:\Dropbox\FAUSTO\SVILUPPI\MSX\CODE\C\MSXgl\projects\exsoccer/exsoccer_s22_b2.c:1082: bool rDone = true;
    000026F8 DD 36 FF 01      [19] 6204 	ld	-1 (ix), #0x01
                                   6205 ;E:\Dropbox\FAUSTO\SVILUPPI\MSX\CODE\C\MSXgl\projects\exsoccer/exsoccer_s22_b2.c:1083: if (g_Players[REFEREE].Y > g_Players[REFEREE].TargetY) { g_Players[REFEREE].Y--; rDone=false; g_Players[REFEREE].Direction=DIRECTION_UP; }
    000026FC ED 4Br26r01      [20] 6206 	ld	bc, (#(_g_Players + 294) + 0)
    00002700 ED 5Br34r01      [20] 6207 	ld	de, (#(_g_Players + 308) + 0)
    00002704 7B               [ 4] 6208 	ld	a, e
    00002705 91               [ 4] 6209 	sub	a, c
    00002706 7A               [ 4] 6210 	ld	a, d
    00002707 98               [ 4] 6211 	sbc	a, b
    00002708 30 11            [12] 6212 	jr	NC, 00176$
    0000270A 0B               [ 6] 6213 	dec	bc
    0000270B ED 43r26r01      [20] 6214 	ld	((_g_Players + 294)), bc
    0000270F DD 36 FF 00      [19] 6215 	ld	-1 (ix), #0x00
    00002713 21r30r01         [10] 6216 	ld	hl, #(_g_Players + 304)
    00002716 36 01            [10] 6217 	ld	(hl), #0x01
    00002718 C3r2Fr27         [10] 6218 	jp	00177$
    0000271B                       6219 00176$:
                                   6220 ;E:\Dropbox\FAUSTO\SVILUPPI\MSX\CODE\C\MSXgl\projects\exsoccer/exsoccer_s22_b2.c:1084: else if (g_Players[REFEREE].Y < g_Players[REFEREE].TargetY) { g_Players[REFEREE].Y++; rDone=false; g_Players[REFEREE].Direction=DIRECTION_DOWN; }
    0000271B 79               [ 4] 6221 	ld	a, c
    0000271C 93               [ 4] 6222 	sub	a, e
    0000271D 78               [ 4] 6223 	ld	a, b
    0000271E 9A               [ 4] 6224 	sbc	a, d
    0000271F 30 0E            [12] 6225 	jr	NC, 00177$
    00002721 03               [ 6] 6226 	inc	bc
    00002722 ED 43r26r01      [20] 6227 	ld	((_g_Players + 294)), bc
    00002726 DD 36 FF 00      [19] 6228 	ld	-1 (ix), #0x00
    0000272A 21r30r01         [10] 6229 	ld	hl, #(_g_Players + 304)
    0000272D 36 05            [10] 6230 	ld	(hl), #0x05
    0000272F                       6231 00177$:
                                   6232 ;E:\Dropbox\FAUSTO\SVILUPPI\MSX\CODE\C\MSXgl\projects\exsoccer/exsoccer_s22_b2.c:1086: if (g_Players[REFEREE].X > g_Players[REFEREE].TargetX) { g_Players[REFEREE].X--; rDone=false; g_Players[REFEREE].Direction=DIRECTION_LEFT; }
    0000272F ED 4Br28r01      [20] 6233 	ld	bc, (#(_g_Players + 296) + 0)
    00002733 ED 5Br36r01      [20] 6234 	ld	de, (#(_g_Players + 310) + 0)
    00002737 7B               [ 4] 6235 	ld	a, e
    00002738 91               [ 4] 6236 	sub	a, c
    00002739 7A               [ 4] 6237 	ld	a, d
    0000273A 98               [ 4] 6238 	sbc	a, b
    0000273B 30 11            [12] 6239 	jr	NC, 00181$
    0000273D 0B               [ 6] 6240 	dec	bc
    0000273E ED 43r28r01      [20] 6241 	ld	((_g_Players + 296)), bc
    00002742 DD 36 FF 00      [19] 6242 	ld	-1 (ix), #0x00
    00002746 21r30r01         [10] 6243 	ld	hl, #(_g_Players + 304)
    00002749 36 07            [10] 6244 	ld	(hl), #0x07
    0000274B C3r62r27         [10] 6245 	jp	00182$
    0000274E                       6246 00181$:
                                   6247 ;E:\Dropbox\FAUSTO\SVILUPPI\MSX\CODE\C\MSXgl\projects\exsoccer/exsoccer_s22_b2.c:1087: else if (g_Players[REFEREE].X < g_Players[REFEREE].TargetX) { g_Players[REFEREE].X++; rDone=false; g_Players[REFEREE].Direction=DIRECTION_RIGHT; }
    0000274E 79               [ 4] 6248 	ld	a, c
    0000274F 93               [ 4] 6249 	sub	a, e
    00002750 78               [ 4] 6250 	ld	a, b
    00002751 9A               [ 4] 6251 	sbc	a, d
    00002752 30 0E            [12] 6252 	jr	NC, 00182$
    00002754 03               [ 6] 6253 	inc	bc
    00002755 ED 43r28r01      [20] 6254 	ld	((_g_Players + 296)), bc
    00002759 DD 36 FF 00      [19] 6255 	ld	-1 (ix), #0x00
    0000275D 21r30r01         [10] 6256 	ld	hl, #(_g_Players + 304)
    00002760 36 03            [10] 6257 	ld	(hl), #0x03
    00002762                       6258 00182$:
                                   6259 ;E:\Dropbox\FAUSTO\SVILUPPI\MSX\CODE\C\MSXgl\projects\exsoccer/exsoccer_s22_b2.c:1090: u16 animStatus = ((g_FrameCounter % 8) == 0) ? PLAYER_STATUS_NONE : PLAYER_STATUS_POSITIONED;
    00002762 2Ar00r00         [16] 6260 	ld	hl, (_g_FrameCounter)
    00002765 7D               [ 4] 6261 	ld	a, l
    00002766 E6 07            [ 7] 6262 	and	a, #0x07
    00002768 20 06            [12] 6263 	jr	NZ, 00382$
    0000276A 01 00 00         [10] 6264 	ld	bc, #0x0000
    0000276D C3r73r27         [10] 6265 	jp	00383$
    00002770                       6266 00382$:
    00002770 01 04 00         [10] 6267 	ld	bc, #0x0004
    00002773                       6268 00383$:
                                   6269 ;E:\Dropbox\FAUSTO\SVILUPPI\MSX\CODE\C\MSXgl\projects\exsoccer/exsoccer_s22_b2.c:1091: g_Players[kickerId].Status = animStatus;
    00002773 DD 6E DA         [19] 6270 	ld	l, -38 (ix)
    00002776 DD 66 DB         [19] 6271 	ld	h, -37 (ix)
    00002779 71               [ 7] 6272 	ld	(hl), c
    0000277A 23               [ 6] 6273 	inc	hl
    0000277B 70               [ 7] 6274 	ld	(hl), b
                                   6275 ;E:\Dropbox\FAUSTO\SVILUPPI\MSX\CODE\C\MSXgl\projects\exsoccer/exsoccer_s22_b2.c:1092: g_Players[gkId].Status = animStatus;
    0000277C DD 6E DC         [19] 6276 	ld	l, -36 (ix)
    0000277F DD 66 DD         [19] 6277 	ld	h, -35 (ix)
    00002782 71               [ 7] 6278 	ld	(hl), c
    00002783 23               [ 6] 6279 	inc	hl
    00002784 70               [ 7] 6280 	ld	(hl), b
                                   6281 ;E:\Dropbox\FAUSTO\SVILUPPI\MSX\CODE\C\MSXgl\projects\exsoccer/exsoccer_s22_b2.c:1093: g_Players[REFEREE].Status = animStatus;
    00002785 ED 43r38r01      [20] 6282 	ld	((_g_Players + 312)), bc
                                   6283 ;E:\Dropbox\FAUSTO\SVILUPPI\MSX\CODE\C\MSXgl\projects\exsoccer/exsoccer_s22_b2.c:1098: if (g_Players[kickerId].Y < (u16)g_FieldCurrentYPosition) {
    00002789 DD 6E CE         [19] 6284 	ld	l, -50 (ix)
    0000278C DD 66 CF         [19] 6285 	ld	h, -49 (ix)
    0000278F 4E               [ 7] 6286 	ld	c, (hl)
    00002790 23               [ 6] 6287 	inc	hl
    00002791 46               [ 7] 6288 	ld	b, (hl)
    00002792 2Ar00r00         [16] 6289 	ld	hl, (_g_FieldCurrentYPosition)
    00002795 79               [ 4] 6290 	ld	a, c
    00002796 95               [ 4] 6291 	sub	a, l
    00002797 78               [ 4] 6292 	ld	a, b
    00002798 9C               [ 4] 6293 	sbc	a, h
    00002799 30 06            [12] 6294 	jr	NC, 00184$
                                   6295 ;E:\Dropbox\FAUSTO\SVILUPPI\MSX\CODE\C\MSXgl\projects\exsoccer/exsoccer_s22_b2.c:1099: g_FieldCurrentYPosition = 0;
    0000279B 21 00 00         [10] 6296 	ld	hl, #0x0000
    0000279E 22r00r00         [16] 6297 	ld	(_g_FieldCurrentYPosition), hl
    000027A1                       6298 00184$:
                                   6299 ;E:\Dropbox\FAUSTO\SVILUPPI\MSX\CODE\C\MSXgl\projects\exsoccer/exsoccer_s22_b2.c:1102: V9_SetScrollingBY((u16)g_FieldCurrentYPosition);
    000027A1 2Ar00r00         [16] 6300 	ld	hl, (_g_FieldCurrentYPosition)
    000027A4 CDr00r00         [17] 6301 	call	_V9_SetScrollingBY
                                   6302 ;E:\Dropbox\FAUSTO\SVILUPPI\MSX\CODE\C\MSXgl\projects\exsoccer/exsoccer_s22_b2.c:1103: UpdateSpritesPositions();
    000027A7 CDr00r00         [17] 6303 	call	_UpdateSpritesPositions
                                   6304 ;E:\Dropbox\FAUSTO\SVILUPPI\MSX\CODE\C\MSXgl\projects\exsoccer/exsoccer_s22_b2.c:1105: if (kDone && gDone && rDone && g_FieldCurrentYPosition == 0) {
    000027AA DD 7E F2         [19] 6305 	ld	a, -14 (ix)
    000027AD B7               [ 4] 6306 	or	a, a
    000027AE CArFFr24         [10] 6307 	jp	Z, 00191$
    000027B1 DD 7E F3         [19] 6308 	ld	a, -13 (ix)
    000027B4 B7               [ 4] 6309 	or	a, a
    000027B5 CArFFr24         [10] 6310 	jp	Z, 00191$
    000027B8 DD 7E FF         [19] 6311 	ld	a, -1 (ix)
    000027BB B7               [ 4] 6312 	or	a, a
    000027BC CArFFr24         [10] 6313 	jp	Z, 00191$
    000027BF 3Ar01r00         [13] 6314 	ld	a, (_g_FieldCurrentYPosition+1)
    000027C2 21r00r00         [10] 6315 	ld	hl, #_g_FieldCurrentYPosition
    000027C5 B6               [ 7] 6316 	or	a, (hl)
    000027C6 C2rFFr24         [10] 6317 	jp	NZ, 00191$
                                   6318 ;E:\Dropbox\FAUSTO\SVILUPPI\MSX\CODE\C\MSXgl\projects\exsoccer/exsoccer_s22_b2.c:1106: g_ActiveFieldZone = FIELD_NORTH_ZONE;
    000027C9 21r00r00         [10] 6319 	ld	hl, #_g_ActiveFieldZone
    000027CC 36 00            [10] 6320 	ld	(hl), #0x00
                                   6321 ;E:\Dropbox\FAUSTO\SVILUPPI\MSX\CODE\C\MSXgl\projects\exsoccer/exsoccer_s22_b2.c:1112: g_Players[kickerId].Direction = DIRECTION_UP;
    000027CE DD 7E CE         [19] 6322 	ld	a, -50 (ix)
    000027D1 C6 0A            [ 7] 6323 	add	a, #0x0a
    000027D3 DD 77 E2         [19] 6324 	ld	-30 (ix), a
    000027D6 DD 7E CF         [19] 6325 	ld	a, -49 (ix)
    000027D9 CE 00            [ 7] 6326 	adc	a, #0x00
    000027DB DD 77 E3         [19] 6327 	ld	-29 (ix), a
    000027DE DD 6E E2         [19] 6328 	ld	l, -30 (ix)
    000027E1 DD 66 E3         [19] 6329 	ld	h, -29 (ix)
    000027E4 36 01            [10] 6330 	ld	(hl), #0x01
                                   6331 ;E:\Dropbox\FAUSTO\SVILUPPI\MSX\CODE\C\MSXgl\projects\exsoccer/exsoccer_s22_b2.c:1113: g_Players[kickerId].PatternId = PLAYER_POSE_BACK;
    000027E6 DD 7E CE         [19] 6332 	ld	a, -50 (ix)
    000027E9 C6 08            [ 7] 6333 	add	a, #0x08
    000027EB DD 77 E4         [19] 6334 	ld	-28 (ix), a
    000027EE DD 7E CF         [19] 6335 	ld	a, -49 (ix)
    000027F1 CE 00            [ 7] 6336 	adc	a, #0x00
    000027F3 DD 77 E5         [19] 6337 	ld	-27 (ix), a
    000027F6 DD 6E E4         [19] 6338 	ld	l, -28 (ix)
    000027F9 DD 66 E5         [19] 6339 	ld	h, -27 (ix)
    000027FC 36 11            [10] 6340 	ld	(hl), #0x11
                                   6341 ;E:\Dropbox\FAUSTO\SVILUPPI\MSX\CODE\C\MSXgl\projects\exsoccer/exsoccer_s22_b2.c:1114: g_Players[gkId].Direction = DIRECTION_DOWN;
    000027FE DD 7E D4         [19] 6342 	ld	a, -44 (ix)
    00002801 C6 0A            [ 7] 6343 	add	a, #0x0a
    00002803 DD 77 E6         [19] 6344 	ld	-26 (ix), a
    00002806 DD 7E D5         [19] 6345 	ld	a, -43 (ix)
    00002809 CE 00            [ 7] 6346 	adc	a, #0x00
    0000280B DD 77 E7         [19] 6347 	ld	-25 (ix), a
    0000280E DD 6E E6         [19] 6348 	ld	l, -26 (ix)
    00002811 DD 66 E7         [19] 6349 	ld	h, -25 (ix)
    00002814 36 05            [10] 6350 	ld	(hl), #0x05
                                   6351 ;E:\Dropbox\FAUSTO\SVILUPPI\MSX\CODE\C\MSXgl\projects\exsoccer/exsoccer_s22_b2.c:1115: g_Players[gkId].PatternId = PLAYER_POSE_FRONT;
    00002816 DD 7E D4         [19] 6352 	ld	a, -44 (ix)
    00002819 C6 08            [ 7] 6353 	add	a, #0x08
    0000281B DD 77 E8         [19] 6354 	ld	-24 (ix), a
    0000281E DD 7E D5         [19] 6355 	ld	a, -43 (ix)
    00002821 CE 00            [ 7] 6356 	adc	a, #0x00
    00002823 DD 77 E9         [19] 6357 	ld	-23 (ix), a
    00002826 DD 6E E8         [19] 6358 	ld	l, -24 (ix)
    00002829 DD 66 E9         [19] 6359 	ld	h, -23 (ix)
    0000282C 36 10            [10] 6360 	ld	(hl), #0x10
                                   6361 ;E:\Dropbox\FAUSTO\SVILUPPI\MSX\CODE\C\MSXgl\projects\exsoccer/exsoccer_s22_b2.c:1116: g_Players[REFEREE].PatternId = PLAYER_POSE_RIGHT;
    0000282E 21r2Er01         [10] 6362 	ld	hl, #(_g_Players + 302)
    00002831 36 9D            [10] 6363 	ld	(hl), #0x9d
                                   6364 ;E:\Dropbox\FAUSTO\SVILUPPI\MSX\CODE\C\MSXgl\projects\exsoccer/exsoccer_s22_b2.c:1118: g_Ball.PossessionPlayerId = NO_VALUE;
    00002833 21r06r00         [10] 6365 	ld	hl, #(_g_Ball + 6)
    00002836 36 FF            [10] 6366 	ld	(hl), #0xff
                                   6367 ;E:\Dropbox\FAUSTO\SVILUPPI\MSX\CODE\C\MSXgl\projects\exsoccer/exsoccer_s22_b2.c:1119: g_Ball.X = kickSpotX;
    00002838 21 78 00         [10] 6368 	ld	hl, #0x0078
    0000283B 22r02r00         [16] 6369 	ld	((_g_Ball + 2)), hl
                                   6370 ;E:\Dropbox\FAUSTO\SVILUPPI\MSX\CODE\C\MSXgl\projects\exsoccer/exsoccer_s22_b2.c:1120: g_Ball.Y = kickSpotY;
    0000283E 2E 61            [ 7] 6371 	ld	l, #0x61
    00002840 22r00r00         [16] 6372 	ld	(_g_Ball), hl
                                   6373 ;E:\Dropbox\FAUSTO\SVILUPPI\MSX\CODE\C\MSXgl\projects\exsoccer/exsoccer_s22_b2.c:1122: UpdateSpritesPositions();
    00002843 CDr00r00         [17] 6374 	call	_UpdateSpritesPositions
                                   6375 ;E:\Dropbox\FAUSTO\SVILUPPI\MSX\CODE\C\MSXgl\projects\exsoccer/exsoccer_s22_b2.c:1124: V9_PrintLayerAStringAtPos(10, 22, g_History1);
    00002846 21r00r00         [10] 6376 	ld	hl, #_g_History1
    00002849 E5               [11] 6377 	push	hl
    0000284A 2E 16            [ 7] 6378 	ld	l, #0x16
                                   6379 ;	spillPairReg hl
                                   6380 ;	spillPairReg hl
    0000284C 3E 0A            [ 7] 6381 	ld	a, #0x0a
    0000284E CDr00r00         [17] 6382 	call	_V9_PrintLayerAStringAtPos
                                   6383 ;E:\Dropbox\FAUSTO\SVILUPPI\MSX\CODE\C\MSXgl\projects\exsoccer/exsoccer_s22_b2.c:1125: V9_PrintLayerAStringAtPos(10, 23, g_History2);
    00002851 21r00r00         [10] 6384 	ld	hl, #_g_History2
    00002854 E5               [11] 6385 	push	hl
    00002855 2E 17            [ 7] 6386 	ld	l, #0x17
                                   6387 ;	spillPairReg hl
                                   6388 ;	spillPairReg hl
    00002857 3E 0A            [ 7] 6389 	ld	a, #0x0a
    00002859 CDr00r00         [17] 6390 	call	_V9_PrintLayerAStringAtPos
                                   6391 ;E:\Dropbox\FAUSTO\SVILUPPI\MSX\CODE\C\MSXgl\projects\exsoccer/exsoccer_s22_b2.c:1127: for(u8 w=0; w<60; w++) UpdateV9990();
    0000285C 0E 00            [ 7] 6392 	ld	c, #0x00
    0000285E                       6393 00359$:
    0000285E 79               [ 4] 6394 	ld	a, c
    0000285F D6 3C            [ 7] 6395 	sub	a, #0x3c
    00002861 30 09            [12] 6396 	jr	NC, 00193$
    00002863 C5               [11] 6397 	push	bc
    00002864 CDr00r00         [17] 6398 	call	_UpdateV9990
    00002867 C1               [10] 6399 	pop	bc
    00002868 0C               [ 4] 6400 	inc	c
    00002869 C3r5Er28         [10] 6401 	jp	00359$
    0000286C                       6402 00193$:
                                   6403 ;E:\Dropbox\FAUSTO\SVILUPPI\MSX\CODE\C\MSXgl\projects\exsoccer/exsoccer_s22_b2.c:1130: u16 targetX = FIELD_POS_X_CENTER;
    0000286C DD 36 EA 78      [19] 6404 	ld	-22 (ix), #0x78
    00002870 DD 36 EB 00      [19] 6405 	ld	-21 (ix), #0
                                   6406 ;E:\Dropbox\FAUSTO\SVILUPPI\MSX\CODE\C\MSXgl\projects\exsoccer/exsoccer_s22_b2.c:1131: u8 shotDirIdx = 1; // 0=Left, 1=Center, 2=Right
    00002874 DD 36 FF 01      [19] 6407 	ld	-1 (ix), #0x01
                                   6408 ;E:\Dropbox\FAUSTO\SVILUPPI\MSX\CODE\C\MSXgl\projects\exsoccer/exsoccer_s22_b2.c:1132: bool shotTaken = false;
    00002878 DD 36 ED 00      [19] 6409 	ld	-19 (ix), #0x00
                                   6410 ;E:\Dropbox\FAUSTO\SVILUPPI\MSX\CODE\C\MSXgl\projects\exsoccer/exsoccer_s22_b2.c:1133: u8 playerGkChoice = 1; // 0=Left, 1=Center, 2=Right
    0000287C DD 36 FE 01      [19] 6411 	ld	-2 (ix), #0x01
                                   6412 ;E:\Dropbox\FAUSTO\SVILUPPI\MSX\CODE\C\MSXgl\projects\exsoccer/exsoccer_s22_b2.c:1135: if (kickingTeam == TEAM_1) {
    00002880 DD 7E CB         [19] 6413 	ld	a, -53 (ix)
    00002883 B7               [ 4] 6414 	or	a, a
    00002884 CArBCr29         [10] 6415 	jp	Z, 00226$
                                   6416 ;E:\Dropbox\FAUSTO\SVILUPPI\MSX\CODE\C\MSXgl\projects\exsoccer/exsoccer_s22_b2.c:1136: g_ShotCursorX = FIELD_POS_X_CENTER;
    00002887 21 78 00         [10] 6417 	ld	hl, #0x0078
    0000288A 22r00r00         [16] 6418 	ld	(_g_ShotCursorX), hl
                                   6419 ;E:\Dropbox\FAUSTO\SVILUPPI\MSX\CODE\C\MSXgl\projects\exsoccer/exsoccer_s22_b2.c:1137: i8 aimPos = 1;
    0000288D DD 36 F1 01      [19] 6420 	ld	-15 (ix), #0x01
                                   6421 ;E:\Dropbox\FAUSTO\SVILUPPI\MSX\CODE\C\MSXgl\projects\exsoccer/exsoccer_s22_b2.c:1138: i8 aimDir = 1;
    00002891 DD 36 EE 01      [19] 6422 	ld	-18 (ix), #0x01
                                   6423 ;E:\Dropbox\FAUSTO\SVILUPPI\MSX\CODE\C\MSXgl\projects\exsoccer/exsoccer_s22_b2.c:1139: u16 moveTimer = 0;
    00002895 AF               [ 4] 6424 	xor	a, a
    00002896 DD 77 F2         [19] 6425 	ld	-14 (ix), a
    00002899 DD 77 F3         [19] 6426 	ld	-13 (ix), a
                                   6427 ;E:\Dropbox\FAUSTO\SVILUPPI\MSX\CODE\C\MSXgl\projects\exsoccer/exsoccer_s22_b2.c:1142: while(!shotTaken) {
    0000289C AF               [ 4] 6428 	xor	a, a
    0000289D DD 77 F4         [19] 6429 	ld	-12 (ix), a
    000028A0 DD 77 F5         [19] 6430 	ld	-11 (ix), a
    000028A3                       6431 00210$:
    000028A3 DD 7E ED         [19] 6432 	ld	a, -19 (ix)
    000028A6 B7               [ 4] 6433 	or	a, a
    000028A7 C2r2Er2A         [10] 6434 	jp	NZ, 00227$
                                   6435 ;E:\Dropbox\FAUSTO\SVILUPPI\MSX\CODE\C\MSXgl\projects\exsoccer/exsoccer_s22_b2.c:1143: UpdateV9990();
    000028AA CDr00r00         [17] 6436 	call	_UpdateV9990
                                   6437 ;E:\Dropbox\FAUSTO\SVILUPPI\MSX\CODE\C\MSXgl\projects\exsoccer/exsoccer_s22_b2.c:1146: moveTimer++;
    000028AD DD 34 F2         [23] 6438 	inc	-14 (ix)
    000028B0 20 03            [12] 6439 	jr	NZ, 01073$
    000028B2 DD 34 F3         [23] 6440 	inc	-13 (ix)
    000028B5                       6441 01073$:
                                   6442 ;E:\Dropbox\FAUSTO\SVILUPPI\MSX\CODE\C\MSXgl\projects\exsoccer/exsoccer_s22_b2.c:1147: if (moveTimer > 8) { // Speed of cursor
    000028B5 DD 7E F2         [19] 6443 	ld	a, -14 (ix)
    000028B8 DD 77 EF         [19] 6444 	ld	-17 (ix), a
    000028BB DD 7E F3         [19] 6445 	ld	a, -13 (ix)
    000028BE DD 77 F0         [19] 6446 	ld	-16 (ix), a
    000028C1 3E 08            [ 7] 6447 	ld	a, #0x08
    000028C3 DD BE EF         [19] 6448 	cp	a, -17 (ix)
    000028C6 3E 00            [ 7] 6449 	ld	a, #0x00
    000028C8 DD 9E F0         [19] 6450 	sbc	a, -16 (ix)
    000028CB 30 35            [12] 6451 	jr	NC, 00200$
                                   6452 ;E:\Dropbox\FAUSTO\SVILUPPI\MSX\CODE\C\MSXgl\projects\exsoccer/exsoccer_s22_b2.c:1148: moveTimer = 0;
    000028CD AF               [ 4] 6453 	xor	a, a
    000028CE DD 77 F2         [19] 6454 	ld	-14 (ix), a
    000028D1 DD 77 F3         [19] 6455 	ld	-13 (ix), a
                                   6456 ;E:\Dropbox\FAUSTO\SVILUPPI\MSX\CODE\C\MSXgl\projects\exsoccer/exsoccer_s22_b2.c:1149: aimPos += aimDir;
    000028D4 DD 7E EE         [19] 6457 	ld	a, -18 (ix)
    000028D7 DD 86 F1         [19] 6458 	add	a, -15 (ix)
                                   6459 ;E:\Dropbox\FAUSTO\SVILUPPI\MSX\CODE\C\MSXgl\projects\exsoccer/exsoccer_s22_b2.c:1150: if (aimPos >= 2) {
    000028DA DD 77 F1         [19] 6460 	ld	-15 (ix), a
    000028DD EE 80            [ 7] 6461 	xor	a, #0x80
    000028DF D6 82            [ 7] 6462 	sub	a, #0x82
    000028E1 38 0B            [12] 6463 	jr	C, 00197$
                                   6464 ;E:\Dropbox\FAUSTO\SVILUPPI\MSX\CODE\C\MSXgl\projects\exsoccer/exsoccer_s22_b2.c:1151: aimPos = 2;
    000028E3 DD 36 F1 02      [19] 6465 	ld	-15 (ix), #0x02
                                   6466 ;E:\Dropbox\FAUSTO\SVILUPPI\MSX\CODE\C\MSXgl\projects\exsoccer/exsoccer_s22_b2.c:1152: aimDir = -1;
    000028E7 DD 36 EE FF      [19] 6467 	ld	-18 (ix), #0xff
    000028EB C3r02r29         [10] 6468 	jp	00200$
    000028EE                       6469 00197$:
                                   6470 ;E:\Dropbox\FAUSTO\SVILUPPI\MSX\CODE\C\MSXgl\projects\exsoccer/exsoccer_s22_b2.c:1153: } else if (aimPos <= 0) {
    000028EE AF               [ 4] 6471 	xor	a, a
    000028EF DD 96 F1         [19] 6472 	sub	a, -15 (ix)
    000028F2 E2rF7r28         [10] 6473 	jp	PO, 01074$
    000028F5 EE 80            [ 7] 6474 	xor	a, #0x80
    000028F7                       6475 01074$:
    000028F7 FAr02r29         [10] 6476 	jp	M, 00200$
                                   6477 ;E:\Dropbox\FAUSTO\SVILUPPI\MSX\CODE\C\MSXgl\projects\exsoccer/exsoccer_s22_b2.c:1154: aimPos = 0;
    000028FA DD 36 F1 00      [19] 6478 	ld	-15 (ix), #0x00
                                   6479 ;E:\Dropbox\FAUSTO\SVILUPPI\MSX\CODE\C\MSXgl\projects\exsoccer/exsoccer_s22_b2.c:1155: aimDir = 1;
    000028FE DD 36 EE 01      [19] 6480 	ld	-18 (ix), #0x01
    00002902                       6481 00200$:
                                   6482 ;E:\Dropbox\FAUSTO\SVILUPPI\MSX\CODE\C\MSXgl\projects\exsoccer/exsoccer_s22_b2.c:1159: if (aimPos == 0) g_ShotCursorX = GOAL_X_MIN;
    00002902 DD 7E F1         [19] 6483 	ld	a, -15 (ix)
    00002905 B7               [ 4] 6484 	or	a, a
    00002906 20 09            [12] 6485 	jr	NZ, 00205$
    00002908 21 60 00         [10] 6486 	ld	hl, #0x0060
    0000290B 22r00r00         [16] 6487 	ld	(_g_ShotCursorX), hl
    0000290E C3r26r29         [10] 6488 	jp	00206$
    00002911                       6489 00205$:
                                   6490 ;E:\Dropbox\FAUSTO\SVILUPPI\MSX\CODE\C\MSXgl\projects\exsoccer/exsoccer_s22_b2.c:1160: else if (aimPos == 1) g_ShotCursorX = FIELD_POS_X_CENTER;
    00002911 DD 7E F1         [19] 6491 	ld	a, -15 (ix)
    00002914 3D               [ 4] 6492 	dec	a
    00002915 20 09            [12] 6493 	jr	NZ, 00202$
    00002917 21 78 00         [10] 6494 	ld	hl, #0x0078
    0000291A 22r00r00         [16] 6495 	ld	(_g_ShotCursorX), hl
    0000291D C3r26r29         [10] 6496 	jp	00206$
    00002920                       6497 00202$:
                                   6498 ;E:\Dropbox\FAUSTO\SVILUPPI\MSX\CODE\C\MSXgl\projects\exsoccer/exsoccer_s22_b2.c:1161: else g_ShotCursorX = GOAL_X_MAX;
    00002920 21 90 00         [10] 6499 	ld	hl, #0x0090
    00002923 22r00r00         [16] 6500 	ld	(_g_ShotCursorX), hl
    00002926                       6501 00206$:
                                   6502 ;E:\Dropbox\FAUSTO\SVILUPPI\MSX\CODE\C\MSXgl\projects\exsoccer/exsoccer_s22_b2.c:1164: attr.Y = FIELD_BOUND_Y_TOP - 20 - g_FieldCurrentYPosition;
    00002926 3Ar00r00         [13] 6503 	ld	a, (_g_FieldCurrentYPosition+0)
    00002929 4F               [ 4] 6504 	ld	c, a
    0000292A 3E 1E            [ 7] 6505 	ld	a, #0x1e
    0000292C 91               [ 4] 6506 	sub	a, c
    0000292D DD 77 C7         [19] 6507 	ld	-57 (ix), a
                                   6508 ;E:\Dropbox\FAUSTO\SVILUPPI\MSX\CODE\C\MSXgl\projects\exsoccer/exsoccer_s22_b2.c:1165: attr.X = g_ShotCursorX;
    00002930 21 02 00         [10] 6509 	ld	hl, #2
    00002933 39               [11] 6510 	add	hl, sp
    00002934 3Ar00r00         [13] 6511 	ld	a, (_g_ShotCursorX+0)
    00002937 77               [ 7] 6512 	ld	(hl), a
    00002938 23               [ 6] 6513 	inc	hl
    00002939 3Ar01r00         [13] 6514 	ld	a, (_g_ShotCursorX+1)
    0000293C E6 03            [ 7] 6515 	and	a, #0x03
    0000293E 4F               [ 4] 6516 	ld	c,a
    0000293F 7E               [ 7] 6517 	ld	a, (hl)
    00002940 E6 FC            [ 7] 6518 	and	a, #0xfc
    00002942 B1               [ 4] 6519 	or	a, c
    00002943 77               [ 7] 6520 	ld	(hl), a
                                   6521 ;E:\Dropbox\FAUSTO\SVILUPPI\MSX\CODE\C\MSXgl\projects\exsoccer/exsoccer_s22_b2.c:1166: attr.Pattern = SPRITE_DOWN_ARROW;
    00002944 DD 36 C8 79      [19] 6522 	ld	-56 (ix), #0x79
                                   6523 ;E:\Dropbox\FAUSTO\SVILUPPI\MSX\CODE\C\MSXgl\projects\exsoccer/exsoccer_s22_b2.c:1167: attr.P = 1; attr.SC = 0; attr.D = 0;
    00002948 21 03 00         [10] 6524 	ld	hl, #3
    0000294B 39               [11] 6525 	add	hl, sp
    0000294C CB EE            [15] 6526 	set	5, (hl)
    0000294E 21 03 00         [10] 6527 	ld	hl, #3
    00002951 39               [11] 6528 	add	hl, sp
    00002952 7E               [ 7] 6529 	ld	a, (hl)
    00002953 E6 3F            [ 7] 6530 	and	a, #0x3f
    00002955 77               [ 7] 6531 	ld	(hl), a
    00002956 21 03 00         [10] 6532 	ld	hl, #3
    00002959 39               [11] 6533 	add	hl, sp
    0000295A CB A6            [15] 6534 	res	4, (hl)
                                   6535 ;E:\Dropbox\FAUSTO\SVILUPPI\MSX\CODE\C\MSXgl\projects\exsoccer/exsoccer_s22_b2.c:1168: V9_SetSpriteP1(16, &attr);
                                   6536 ;E:/Dropbox/FAUSTO/SVILUPPI/MSX/CODE/C/MSXgl/engine/src/v9990.h:781: inline void V9_SetSpriteP1(u8 id, const V9_Sprite* attr) { V9_WriteVRAM(V9_P1_SPAT + (id * 4), (const u8*)attr, 4); }
                                   6537 ;E:/Dropbox/FAUSTO/SVILUPPI/MSX/CODE/C/MSXgl/engine/src/v9990.h:371: inline void V9_WriteVRAM(u32 addr, const u8* src, u16 count) { V9_SetWriteAddress(addr); V9_WriteVRAM_CurrentAddr(src, count); }
    0000295C 11 40 FE         [10] 6538 	ld	de, #0xfe40
    0000295F 21 03 00         [10] 6539 	ld	hl, #0x0003
    00002962 CDr00r00         [17] 6540 	call	_V9_SetWriteAddress
    00002965 11 04 00         [10] 6541 	ld	de, #0x0004
    00002968 21 00 00         [10] 6542 	ld	hl, #0
    0000296B 39               [11] 6543 	add	hl, sp
    0000296C CDr00r00         [17] 6544 	call	_V9_WriteVRAM_CurrentAddr
                                   6545 ;E:\Dropbox\FAUSTO\SVILUPPI\MSX\CODE\C\MSXgl\projects\exsoccer/exsoccer_s22_b2.c:1170: timeoutTimer++;
    0000296F DD 34 F4         [23] 6546 	inc	-12 (ix)
    00002972 20 03            [12] 6547 	jr	NZ, 01077$
    00002974 DD 34 F5         [23] 6548 	inc	-11 (ix)
    00002977                       6549 01077$:
                                   6550 ;E:\Dropbox\FAUSTO\SVILUPPI\MSX\CODE\C\MSXgl\projects\exsoccer/exsoccer_s22_b2.c:1172: if (IsTeamJoystickTriggerPressed(TEAM_1) || timeoutTimer >= 300) {
    00002977 3E 01            [ 7] 6551 	ld	a, #0x01
    00002979 CDr00r00         [17] 6552 	call	_IsTeamJoystickTriggerPressed
    0000297C B7               [ 4] 6553 	or	a, a
    0000297D 20 0E            [12] 6554 	jr	NZ, 00207$
    0000297F DD 7E F4         [19] 6555 	ld	a, -12 (ix)
    00002982 DD 46 F5         [19] 6556 	ld	b, -11 (ix)
    00002985 D6 2C            [ 7] 6557 	sub	a, #0x2c
    00002987 78               [ 4] 6558 	ld	a, b
    00002988 DE 01            [ 7] 6559 	sbc	a, #0x01
    0000298A DArA3r28         [10] 6560 	jp	C, 00210$
    0000298D                       6561 00207$:
                                   6562 ;E:\Dropbox\FAUSTO\SVILUPPI\MSX\CODE\C\MSXgl\projects\exsoccer/exsoccer_s22_b2.c:1173: targetX = g_ShotCursorX;
    0000298D 2Ar00r00         [16] 6563 	ld	hl, (_g_ShotCursorX)
    00002990 DD 75 EA         [19] 6564 	ld	-22 (ix), l
    00002993 DD 74 EB         [19] 6565 	ld	-21 (ix), h
                                   6566 ;E:\Dropbox\FAUSTO\SVILUPPI\MSX\CODE\C\MSXgl\projects\exsoccer/exsoccer_s22_b2.c:1174: shotDirIdx = (u8)aimPos;
    00002996 DD 7E F1         [19] 6567 	ld	a, -15 (ix)
    00002999 DD 77 FF         [19] 6568 	ld	-1 (ix), a
                                   6569 ;E:\Dropbox\FAUSTO\SVILUPPI\MSX\CODE\C\MSXgl\projects\exsoccer/exsoccer_s22_b2.c:1175: shotTaken = true;
    0000299C DD 36 ED 01      [19] 6570 	ld	-19 (ix), #0x01
                                   6571 ;E:\Dropbox\FAUSTO\SVILUPPI\MSX\CODE\C\MSXgl\projects\exsoccer/exsoccer_s22_b2.c:1176: attr.D = 1;
    000029A0 21 03 00         [10] 6572 	ld	hl, #3
    000029A3 39               [11] 6573 	add	hl, sp
    000029A4 CB E6            [15] 6574 	set	4, (hl)
                                   6575 ;E:\Dropbox\FAUSTO\SVILUPPI\MSX\CODE\C\MSXgl\projects\exsoccer/exsoccer_s22_b2.c:1177: V9_SetSpriteP1(16, &attr);
                                   6576 ;E:/Dropbox/FAUSTO/SVILUPPI/MSX/CODE/C/MSXgl/engine/src/v9990.h:781: inline void V9_SetSpriteP1(u8 id, const V9_Sprite* attr) { V9_WriteVRAM(V9_P1_SPAT + (id * 4), (const u8*)attr, 4); }
                                   6577 ;E:/Dropbox/FAUSTO/SVILUPPI/MSX/CODE/C/MSXgl/engine/src/v9990.h:371: inline void V9_WriteVRAM(u32 addr, const u8* src, u16 count) { V9_SetWriteAddress(addr); V9_WriteVRAM_CurrentAddr(src, count); }
    000029A6 11 40 FE         [10] 6578 	ld	de, #0xfe40
    000029A9 21 03 00         [10] 6579 	ld	hl, #0x0003
    000029AC CDr00r00         [17] 6580 	call	_V9_SetWriteAddress
    000029AF 11 04 00         [10] 6581 	ld	de, #0x0004
    000029B2 21 00 00         [10] 6582 	ld	hl, #0
    000029B5 39               [11] 6583 	add	hl, sp
    000029B6 CDr00r00         [17] 6584 	call	_V9_WriteVRAM_CurrentAddr
                                   6585 ;E:\Dropbox\FAUSTO\SVILUPPI\MSX\CODE\C\MSXgl\projects\exsoccer/exsoccer_s22_b2.c:1177: V9_SetSpriteP1(16, &attr);
    000029B9 C3rA3r28         [10] 6586 	jp	00210$
    000029BC                       6587 00226$:
                                   6588 ;E:\Dropbox\FAUSTO\SVILUPPI\MSX\CODE\C\MSXgl\projects\exsoccer/exsoccer_s22_b2.c:1182: shotDirIdx = g_FrameCounter % 3;
    000029BC 2Ar00r00         [16] 6589 	ld	hl, (_g_FrameCounter)
    000029BF DD 75 F4         [19] 6590 	ld	-12 (ix), l
    000029C2 DD 74 F5         [19] 6591 	ld	-11 (ix), h
    000029C5 11 03 00         [10] 6592 	ld	de, #0x0003
    000029C8 DD 6E F4         [19] 6593 	ld	l, -12 (ix)
                                   6594 ;	spillPairReg hl
                                   6595 ;	spillPairReg hl
    000029CB DD 66 F5         [19] 6596 	ld	h, -11 (ix)
                                   6597 ;	spillPairReg hl
                                   6598 ;	spillPairReg hl
    000029CE CDr00r00         [17] 6599 	call	__moduint
    000029D1 DD 73 F4         [19] 6600 	ld	-12 (ix), e
    000029D4 DD 72 F5         [19] 6601 	ld	-11 (ix), d
    000029D7 DD 7E F4         [19] 6602 	ld	a, -12 (ix)
                                   6603 ;E:\Dropbox\FAUSTO\SVILUPPI\MSX\CODE\C\MSXgl\projects\exsoccer/exsoccer_s22_b2.c:1183: if (shotDirIdx == 0) targetX = GOAL_X_MIN;
    000029DA DD 77 FF         [19] 6604 	ld	-1 (ix), a
    000029DD B7               [ 4] 6605 	or	a, a
    000029DE 20 0B            [12] 6606 	jr	NZ, 00217$
    000029E0 DD 36 EA 60      [19] 6607 	ld	-22 (ix), #0x60
    000029E4 DD 36 EB 00      [19] 6608 	ld	-21 (ix), #0
    000029E8 C3r04r2A         [10] 6609 	jp	00469$
    000029EB                       6610 00217$:
                                   6611 ;E:\Dropbox\FAUSTO\SVILUPPI\MSX\CODE\C\MSXgl\projects\exsoccer/exsoccer_s22_b2.c:1184: else if (shotDirIdx == 1) targetX = FIELD_POS_X_CENTER;
    000029EB DD 7E FF         [19] 6612 	ld	a, -1 (ix)
    000029EE 3D               [ 4] 6613 	dec	a
    000029EF 20 0B            [12] 6614 	jr	NZ, 00214$
    000029F1 DD 36 EA 78      [19] 6615 	ld	-22 (ix), #0x78
    000029F5 DD 36 EB 00      [19] 6616 	ld	-21 (ix), #0
    000029F9 C3r04r2A         [10] 6617 	jp	00469$
    000029FC                       6618 00214$:
                                   6619 ;E:\Dropbox\FAUSTO\SVILUPPI\MSX\CODE\C\MSXgl\projects\exsoccer/exsoccer_s22_b2.c:1185: else targetX = GOAL_X_MAX;
    000029FC DD 36 EA 90      [19] 6620 	ld	-22 (ix), #0x90
    00002A00 DD 36 EB 00      [19] 6621 	ld	-21 (ix), #0
                                   6622 ;E:\Dropbox\FAUSTO\SVILUPPI\MSX\CODE\C\MSXgl\projects\exsoccer/exsoccer_s22_b2.c:1188: for(u8 w=0; w<120; w++) {
    00002A04                       6623 00469$:
    00002A04 DD 36 F5 00      [19] 6624 	ld	-11 (ix), #0x00
    00002A08                       6625 00362$:
    00002A08 DD 7E F5         [19] 6626 	ld	a, -11 (ix)
    00002A0B D6 78            [ 7] 6627 	sub	a, #0x78
    00002A0D 30 1F            [12] 6628 	jr	NC, 00227$
                                   6629 ;E:\Dropbox\FAUSTO\SVILUPPI\MSX\CODE\C\MSXgl\projects\exsoccer/exsoccer_s22_b2.c:1189: UpdateV9990();
    00002A0F CDr00r00         [17] 6630 	call	_UpdateV9990
                                   6631 ;E:\Dropbox\FAUSTO\SVILUPPI\MSX\CODE\C\MSXgl\projects\exsoccer/exsoccer_s22_b2.c:1190: u8 joy = GetJoystick1Direction();
    00002A12 CDr00r00         [17] 6632 	call	_GetJoystick1Direction
                                   6633 ;E:\Dropbox\FAUSTO\SVILUPPI\MSX\CODE\C\MSXgl\projects\exsoccer/exsoccer_s22_b2.c:1191: if (joy == DIRECTION_LEFT) playerGkChoice = 0;
    00002A15 FE 07            [ 7] 6634 	cp	a, #0x07
    00002A17 20 07            [12] 6635 	jr	NZ, 00222$
    00002A19 DD 36 FE 00      [19] 6636 	ld	-2 (ix), #0x00
    00002A1D C3r28r2A         [10] 6637 	jp	00363$
    00002A20                       6638 00222$:
                                   6639 ;E:\Dropbox\FAUSTO\SVILUPPI\MSX\CODE\C\MSXgl\projects\exsoccer/exsoccer_s22_b2.c:1192: else if (joy == DIRECTION_RIGHT) playerGkChoice = 2;
    00002A20 D6 03            [ 7] 6640 	sub	a, #0x03
    00002A22 20 04            [12] 6641 	jr	NZ, 00363$
    00002A24 DD 36 FE 02      [19] 6642 	ld	-2 (ix), #0x02
    00002A28                       6643 00363$:
                                   6644 ;E:\Dropbox\FAUSTO\SVILUPPI\MSX\CODE\C\MSXgl\projects\exsoccer/exsoccer_s22_b2.c:1188: for(u8 w=0; w<120; w++) {
    00002A28 DD 34 F5         [23] 6645 	inc	-11 (ix)
    00002A2B C3r08r2A         [10] 6646 	jp	00362$
                                   6647 ;E:\Dropbox\FAUSTO\SVILUPPI\MSX\CODE\C\MSXgl\projects\exsoccer/exsoccer_s22_b2.c:1195: shotTaken = true;
    00002A2E                       6648 00227$:
                                   6649 ;E:\Dropbox\FAUSTO\SVILUPPI\MSX\CODE\C\MSXgl\projects\exsoccer/exsoccer_s22_b2.c:1200: bool goal = false;
    00002A2E DD 36 EC 00      [19] 6650 	ld	-20 (ix), #0x00
                                   6651 ;E:\Dropbox\FAUSTO\SVILUPPI\MSX\CODE\C\MSXgl\projects\exsoccer/exsoccer_s22_b2.c:1201: bool saved = false;
    00002A32 DD 36 ED 00      [19] 6652 	ld	-19 (ix), #0x00
                                   6653 ;E:\Dropbox\FAUSTO\SVILUPPI\MSX\CODE\C\MSXgl\projects\exsoccer/exsoccer_s22_b2.c:1205: if (kickingTeam == TEAM_1) {
    00002A36 DD 7E CB         [19] 6654 	ld	a, -53 (ix)
    00002A39 B7               [ 4] 6655 	or	a, a
    00002A3A CAr4Dr2B         [10] 6656 	jp	Z, 00238$
                                   6657 ;E:\Dropbox\FAUSTO\SVILUPPI\MSX\CODE\C\MSXgl\projects\exsoccer/exsoccer_s22_b2.c:1207: const TeamStats* stats = GetTeamStats(gkTeam);
    00002A3D DD 7E F6         [19] 6658 	ld	a, -10 (ix)
    00002A40 CDr00r00         [17] 6659 	call	_GetTeamStats
                                   6660 ;E:\Dropbox\FAUSTO\SVILUPPI\MSX\CODE\C\MSXgl\projects\exsoccer/exsoccer_s22_b2.c:1208: u8 skill = stats->GkSkill; 
    00002A43 DD 73 F5         [19] 6661 	ld	-11 (ix), e
    00002A46 DD 72 F6         [19] 6662 	ld	-10 (ix), d
    00002A49 EB               [ 4] 6663 	ex	de,hl
    00002A4A 11 04 00         [10] 6664 	ld	de, #0x0004
    00002A4D 19               [11] 6665 	add	hl, de
    00002A4E 7E               [ 7] 6666 	ld	a, (hl)
    00002A4F DD 77 F6         [19] 6667 	ld	-10 (ix), a
                                   6668 ;E:\Dropbox\FAUSTO\SVILUPPI\MSX\CODE\C\MSXgl\projects\exsoccer/exsoccer_s22_b2.c:1209: u8 rnd = g_FrameCounter % 100;
    00002A52 2Ar00r00         [16] 6669 	ld	hl, (_g_FrameCounter)
    00002A55 DD 75 F1         [19] 6670 	ld	-15 (ix), l
    00002A58 DD 74 F2         [19] 6671 	ld	-14 (ix), h
    00002A5B 11 64 00         [10] 6672 	ld	de, #0x0064
    00002A5E DD 6E F1         [19] 6673 	ld	l, -15 (ix)
                                   6674 ;	spillPairReg hl
                                   6675 ;	spillPairReg hl
    00002A61 DD 66 F2         [19] 6676 	ld	h, -14 (ix)
                                   6677 ;	spillPairReg hl
                                   6678 ;	spillPairReg hl
    00002A64 CDr00r00         [17] 6679 	call	__moduint
    00002A67 DD 73 F4         [19] 6680 	ld	-12 (ix), e
    00002A6A DD 72 F5         [19] 6681 	ld	-11 (ix), d
    00002A6D DD 7E F4         [19] 6682 	ld	a, -12 (ix)
    00002A70 DD 77 FE         [19] 6683 	ld	-2 (ix), a
                                   6684 ;E:\Dropbox\FAUSTO\SVILUPPI\MSX\CODE\C\MSXgl\projects\exsoccer/exsoccer_s22_b2.c:1212: if (rnd < (33 + skill * 2)) {
    00002A73 DD 7E F6         [19] 6685 	ld	a, -10 (ix)
    00002A76 DD 77 F5         [19] 6686 	ld	-11 (ix), a
    00002A79 DD 36 F6 00      [19] 6687 	ld	-10 (ix), #0x00
    00002A7D DD CB F5 26      [23] 6688 	sla	-11 (ix)
    00002A81 DD CB F6 16      [23] 6689 	rl	-10 (ix)
    00002A85 DD 7E F5         [19] 6690 	ld	a, -11 (ix)
    00002A88 C6 21            [ 7] 6691 	add	a, #0x21
    00002A8A DD 77 F3         [19] 6692 	ld	-13 (ix), a
    00002A8D DD 7E F6         [19] 6693 	ld	a, -10 (ix)
    00002A90 CE 00            [ 7] 6694 	adc	a, #0x00
    00002A92 DD 77 F4         [19] 6695 	ld	-12 (ix), a
    00002A95 DD 7E FE         [19] 6696 	ld	a, -2 (ix)
    00002A98 DD 77 F5         [19] 6697 	ld	-11 (ix), a
    00002A9B DD 36 F6 00      [19] 6698 	ld	-10 (ix), #0x00
    00002A9F DD 7E F5         [19] 6699 	ld	a, -11 (ix)
    00002AA2 DD 96 F3         [19] 6700 	sub	a, -13 (ix)
    00002AA5 DD 7E F6         [19] 6701 	ld	a, -10 (ix)
    00002AA8 DD 9E F4         [19] 6702 	sbc	a, -12 (ix)
    00002AAB E2rB0r2A         [10] 6703 	jp	PO, 01085$
    00002AAE EE 80            [ 7] 6704 	xor	a, #0x80
    00002AB0                       6705 01085$:
    00002AB0 F2rBCr2A         [10] 6706 	jp	P, 00235$
                                   6707 ;E:\Dropbox\FAUSTO\SVILUPPI\MSX\CODE\C\MSXgl\projects\exsoccer/exsoccer_s22_b2.c:1213: gkChoice = shotDirIdx;
    00002AB3 DD 7E FF         [19] 6708 	ld	a, -1 (ix)
    00002AB6 DD 77 FE         [19] 6709 	ld	-2 (ix), a
    00002AB9 C3r4Dr2B         [10] 6710 	jp	00239$
    00002ABC                       6711 00235$:
                                   6712 ;E:\Dropbox\FAUSTO\SVILUPPI\MSX\CODE\C\MSXgl\projects\exsoccer/exsoccer_s22_b2.c:1216: u8 wrong = (g_FrameCounter / 7) % 2;
    00002ABC 11 07 00         [10] 6713 	ld	de, #0x0007
    00002ABF DD 6E F1         [19] 6714 	ld	l, -15 (ix)
                                   6715 ;	spillPairReg hl
                                   6716 ;	spillPairReg hl
    00002AC2 DD 66 F2         [19] 6717 	ld	h, -14 (ix)
                                   6718 ;	spillPairReg hl
                                   6719 ;	spillPairReg hl
    00002AC5 CDr00r00         [17] 6720 	call	__divuint
    00002AC8 DD 73 F3         [19] 6721 	ld	-13 (ix), e
    00002ACB DD 72 F4         [19] 6722 	ld	-12 (ix), d
    00002ACE DD 7E F3         [19] 6723 	ld	a, -13 (ix)
    00002AD1 E6 01            [ 7] 6724 	and	a, #0x01
    00002AD3 DD 77 F5         [19] 6725 	ld	-11 (ix), a
    00002AD6 DD 36 F6 00      [19] 6726 	ld	-10 (ix), #0x00
    00002ADA DD 7E F5         [19] 6727 	ld	a, -11 (ix)
    00002ADD DD 77 FE         [19] 6728 	ld	-2 (ix), a
                                   6729 ;E:\Dropbox\FAUSTO\SVILUPPI\MSX\CODE\C\MSXgl\projects\exsoccer/exsoccer_s22_b2.c:1217: if (shotDirIdx == 0) gkChoice = (wrong ? 1 : 2);
    00002AE0 DD 7E FF         [19] 6730 	ld	a, -1 (ix)
    00002AE3 B7               [ 4] 6731 	or	a, a
    00002AE4 20 22            [12] 6732 	jr	NZ, 00232$
    00002AE6 DD 7E FE         [19] 6733 	ld	a, -2 (ix)
    00002AE9 B7               [ 4] 6734 	or	a, a
    00002AEA 28 0B            [12] 6735 	jr	Z, 00384$
    00002AEC DD 36 F5 01      [19] 6736 	ld	-11 (ix), #0x01
    00002AF0 DD 36 F6 00      [19] 6737 	ld	-10 (ix), #0
    00002AF4 C3rFFr2A         [10] 6738 	jp	00385$
    00002AF7                       6739 00384$:
    00002AF7 DD 36 F5 02      [19] 6740 	ld	-11 (ix), #0x02
    00002AFB DD 36 F6 00      [19] 6741 	ld	-10 (ix), #0
    00002AFF                       6742 00385$:
    00002AFF DD 7E F5         [19] 6743 	ld	a, -11 (ix)
    00002B02 DD 77 FE         [19] 6744 	ld	-2 (ix), a
    00002B05 C3r4Dr2B         [10] 6745 	jp	00239$
    00002B08                       6746 00232$:
                                   6747 ;E:\Dropbox\FAUSTO\SVILUPPI\MSX\CODE\C\MSXgl\projects\exsoccer/exsoccer_s22_b2.c:1218: else if (shotDirIdx == 1) gkChoice = (wrong ? 0 : 2);
    00002B08 DD 7E FF         [19] 6748 	ld	a, -1 (ix)
    00002B0B 3D               [ 4] 6749 	dec	a
    00002B0C 20 21            [12] 6750 	jr	NZ, 00229$
    00002B0E DD 7E FE         [19] 6751 	ld	a, -2 (ix)
    00002B11 B7               [ 4] 6752 	or	a, a
    00002B12 28 0A            [12] 6753 	jr	Z, 00386$
    00002B14 AF               [ 4] 6754 	xor	a, a
    00002B15 DD 77 F5         [19] 6755 	ld	-11 (ix), a
    00002B18 DD 77 F6         [19] 6756 	ld	-10 (ix), a
    00002B1B C3r26r2B         [10] 6757 	jp	00387$
    00002B1E                       6758 00386$:
    00002B1E DD 36 F5 02      [19] 6759 	ld	-11 (ix), #0x02
    00002B22 DD 36 F6 00      [19] 6760 	ld	-10 (ix), #0
    00002B26                       6761 00387$:
    00002B26 DD 7E F5         [19] 6762 	ld	a, -11 (ix)
    00002B29 DD 77 FE         [19] 6763 	ld	-2 (ix), a
    00002B2C C3r4Dr2B         [10] 6764 	jp	00239$
    00002B2F                       6765 00229$:
                                   6766 ;E:\Dropbox\FAUSTO\SVILUPPI\MSX\CODE\C\MSXgl\projects\exsoccer/exsoccer_s22_b2.c:1219: else gkChoice = (wrong ? 0 : 1);
    00002B2F DD 7E FE         [19] 6767 	ld	a, -2 (ix)
    00002B32 B7               [ 4] 6768 	or	a, a
    00002B33 28 0A            [12] 6769 	jr	Z, 00388$
    00002B35 AF               [ 4] 6770 	xor	a, a
    00002B36 DD 77 F5         [19] 6771 	ld	-11 (ix), a
    00002B39 DD 77 F6         [19] 6772 	ld	-10 (ix), a
    00002B3C C3r47r2B         [10] 6773 	jp	00389$
    00002B3F                       6774 00388$:
    00002B3F DD 36 F5 01      [19] 6775 	ld	-11 (ix), #0x01
    00002B43 DD 36 F6 00      [19] 6776 	ld	-10 (ix), #0
    00002B47                       6777 00389$:
    00002B47 DD 7E F5         [19] 6778 	ld	a, -11 (ix)
    00002B4A DD 77 FE         [19] 6779 	ld	-2 (ix), a
                                   6780 ;E:\Dropbox\FAUSTO\SVILUPPI\MSX\CODE\C\MSXgl\projects\exsoccer/exsoccer_s22_b2.c:1223: gkChoice = playerGkChoice;
    00002B4D                       6781 00238$:
    00002B4D                       6782 00239$:
                                   6783 ;E:\Dropbox\FAUSTO\SVILUPPI\MSX\CODE\C\MSXgl\projects\exsoccer/exsoccer_s22_b2.c:1226: if (gkChoice == 0) gkDiveDir = DIRECTION_LEFT;
    00002B4D DD 7E FE         [19] 6784 	ld	a, -2 (ix)
    00002B50 B7               [ 4] 6785 	or	a, a
    00002B51 20 05            [12] 6786 	jr	NZ, 00244$
    00002B53 0E 07            [ 7] 6787 	ld	c, #0x07
    00002B55 C3r63r2B         [10] 6788 	jp	00487$
    00002B58                       6789 00244$:
                                   6790 ;E:\Dropbox\FAUSTO\SVILUPPI\MSX\CODE\C\MSXgl\projects\exsoccer/exsoccer_s22_b2.c:1227: else if (gkChoice == 2) gkDiveDir = DIRECTION_RIGHT;
    00002B58 DD 7E FE         [19] 6791 	ld	a, -2 (ix)
    00002B5B D6 02            [ 7] 6792 	sub	a, #0x02
                                   6793 ;E:\Dropbox\FAUSTO\SVILUPPI\MSX\CODE\C\MSXgl\projects\exsoccer/exsoccer_s22_b2.c:1228: else gkDiveDir = DIRECTION_NONE;
                                   6794 ;E:\Dropbox\FAUSTO\SVILUPPI\MSX\CODE\C\MSXgl\projects\exsoccer/exsoccer_s22_b2.c:1230: while (ballTimer < 60) {
    00002B5D 0E 03            [ 7] 6795 	ld	c, #0x03
    00002B5F 28 02            [12] 6796 	jr	Z, 00487$
    00002B61 0E 00            [ 7] 6797 	ld	c, #0x00
    00002B63                       6798 00487$:
    00002B63 79               [ 4] 6799 	ld	a, c
    00002B64 D6 07            [ 7] 6800 	sub	a, #0x07
    00002B66 3E 01            [ 7] 6801 	ld	a, #0x01
    00002B68 28 01            [12] 6802 	jr	Z, 01091$
    00002B6A AF               [ 4] 6803 	xor	a, a
    00002B6B                       6804 01091$:
    00002B6B DD 77 EE         [19] 6805 	ld	-18 (ix), a
    00002B6E 79               [ 4] 6806 	ld	a, c
    00002B6F D6 03            [ 7] 6807 	sub	a, #0x03
    00002B71 3E 01            [ 7] 6808 	ld	a, #0x01
    00002B73 28 01            [12] 6809 	jr	Z, 01093$
    00002B75 AF               [ 4] 6810 	xor	a, a
    00002B76                       6811 01093$:
    00002B76 DD 77 EF         [19] 6812 	ld	-17 (ix), a
    00002B79 DD 7E FF         [19] 6813 	ld	a, -1 (ix)
    00002B7C DD 96 FE         [19] 6814 	sub	a, -2 (ix)
    00002B7F 3E 01            [ 7] 6815 	ld	a, #0x01
    00002B81 28 01            [12] 6816 	jr	Z, 01095$
    00002B83 AF               [ 4] 6817 	xor	a, a
    00002B84                       6818 01095$:
    00002B84 DD 77 F0         [19] 6819 	ld	-16 (ix), a
    00002B87 AF               [ 4] 6820 	xor	a, a
    00002B88 DD 77 FE         [19] 6821 	ld	-2 (ix), a
    00002B8B DD 77 FF         [19] 6822 	ld	-1 (ix), a
    00002B8E                       6823 00264$:
                                   6824 ;	spillPairReg hl
                                   6825 ;	spillPairReg hl
    00002B8E DD 7E FE         [19] 6826 	ld	a, -2 (ix)
    00002B91 DD 4E FF         [19] 6827 	ld	c, -1 (ix)
    00002B94 D6 3C            [ 7] 6828 	sub	a, #0x3c
    00002B96 79               [ 4] 6829 	ld	a, c
    00002B97 DE 00            [ 7] 6830 	sbc	a, #0x00
    00002B99 D2r81r2D         [10] 6831 	jp	NC, 00266$
                                   6832 ;E:\Dropbox\FAUSTO\SVILUPPI\MSX\CODE\C\MSXgl\projects\exsoccer/exsoccer_s22_b2.c:1231: UpdateV9990();
    00002B9C CDr00r00         [17] 6833 	call	_UpdateV9990
                                   6834 ;E:\Dropbox\FAUSTO\SVILUPPI\MSX\CODE\C\MSXgl\projects\exsoccer/exsoccer_s22_b2.c:1232: ballTimer++;
    00002B9F DD 34 FE         [23] 6835 	inc	-2 (ix)
    00002BA2 20 03            [12] 6836 	jr	NZ, 01096$
    00002BA4 DD 34 FF         [23] 6837 	inc	-1 (ix)
    00002BA7                       6838 01096$:
                                   6839 ;E:\Dropbox\FAUSTO\SVILUPPI\MSX\CODE\C\MSXgl\projects\exsoccer/exsoccer_s22_b2.c:1234: i16 dx = (i16)targetX - (i16)g_Ball.X;
    00002BA7 DD 7E EA         [19] 6840 	ld	a, -22 (ix)
    00002BAA DD 77 F1         [19] 6841 	ld	-15 (ix), a
    00002BAD DD 7E EB         [19] 6842 	ld	a, -21 (ix)
    00002BB0 DD 77 F2         [19] 6843 	ld	-14 (ix), a
    00002BB3 21r02r00         [10] 6844 	ld	hl, #(_g_Ball + 2)
    00002BB6 7E               [ 7] 6845 	ld	a, (hl)
    00002BB7 DD 77 F5         [19] 6846 	ld	-11 (ix), a
    00002BBA 23               [ 6] 6847 	inc	hl
    00002BBB 7E               [ 7] 6848 	ld	a, (hl)
    00002BBC DD 77 F6         [19] 6849 	ld	-10 (ix), a
    00002BBF DD 7E F5         [19] 6850 	ld	a, -11 (ix)
    00002BC2 DD 77 F3         [19] 6851 	ld	-13 (ix), a
    00002BC5 DD 7E F6         [19] 6852 	ld	a, -10 (ix)
    00002BC8 DD 77 F4         [19] 6853 	ld	-12 (ix), a
    00002BCB DD 7E F1         [19] 6854 	ld	a, -15 (ix)
    00002BCE DD 96 F3         [19] 6855 	sub	a, -13 (ix)
    00002BD1 DD 77 F5         [19] 6856 	ld	-11 (ix), a
    00002BD4 DD 7E F2         [19] 6857 	ld	a, -14 (ix)
    00002BD7 DD 9E F4         [19] 6858 	sbc	a, -12 (ix)
    00002BDA DD 77 F6         [19] 6859 	ld	-10 (ix), a
                                   6860 ;E:\Dropbox\FAUSTO\SVILUPPI\MSX\CODE\C\MSXgl\projects\exsoccer/exsoccer_s22_b2.c:1237: g_Ball.Y -= 6;
    00002BDD 21r00r00         [10] 6861 	ld	hl, #_g_Ball
    00002BE0 7E               [ 7] 6862 	ld	a, (hl)
    00002BE1 DD 77 F3         [19] 6863 	ld	-13 (ix), a
    00002BE4 23               [ 6] 6864 	inc	hl
    00002BE5 7E               [ 7] 6865 	ld	a, (hl)
    00002BE6 DD 77 F4         [19] 6866 	ld	-12 (ix), a
    00002BE9 DD 7E F3         [19] 6867 	ld	a, -13 (ix)
    00002BEC DD 77 F1         [19] 6868 	ld	-15 (ix), a
    00002BEF DD 7E F4         [19] 6869 	ld	a, -12 (ix)
    00002BF2 DD 77 F2         [19] 6870 	ld	-14 (ix), a
    00002BF5 DD 7E F1         [19] 6871 	ld	a, -15 (ix)
    00002BF8 C6 FA            [ 7] 6872 	add	a, #0xfa
    00002BFA DD 77 F3         [19] 6873 	ld	-13 (ix), a
    00002BFD DD 7E F2         [19] 6874 	ld	a, -14 (ix)
    00002C00 CE FF            [ 7] 6875 	adc	a, #0xff
    00002C02 DD 77 F4         [19] 6876 	ld	-12 (ix), a
    00002C05 21r00r00         [10] 6877 	ld	hl, #_g_Ball
    00002C08 DD 7E F3         [19] 6878 	ld	a, -13 (ix)
    00002C0B 77               [ 7] 6879 	ld	(hl), a
    00002C0C 23               [ 6] 6880 	inc	hl
    00002C0D DD 7E F4         [19] 6881 	ld	a, -12 (ix)
    00002C10 77               [ 7] 6882 	ld	(hl), a
                                   6883 ;E:\Dropbox\FAUSTO\SVILUPPI\MSX\CODE\C\MSXgl\projects\exsoccer/exsoccer_s22_b2.c:1238: g_Ball.X += (dx / 8); 
    00002C11 21r02r00         [10] 6884 	ld	hl, #(_g_Ball + 2)
    00002C14 7E               [ 7] 6885 	ld	a, (hl)
    00002C15 DD 77 F3         [19] 6886 	ld	-13 (ix), a
    00002C18 23               [ 6] 6887 	inc	hl
    00002C19 7E               [ 7] 6888 	ld	a, (hl)
    00002C1A DD 77 F4         [19] 6889 	ld	-12 (ix), a
    00002C1D DD 7E F5         [19] 6890 	ld	a, -11 (ix)
    00002C20 DD 77 F1         [19] 6891 	ld	-15 (ix), a
    00002C23 DD 7E F6         [19] 6892 	ld	a, -10 (ix)
    00002C26 DD 77 F2         [19] 6893 	ld	-14 (ix), a
    00002C29 DD 7E F1         [19] 6894 	ld	a, -15 (ix)
    00002C2C DD 77 F5         [19] 6895 	ld	-11 (ix), a
    00002C2F DD 7E F2         [19] 6896 	ld	a, -14 (ix)
    00002C32 DD 77 F6         [19] 6897 	ld	-10 (ix), a
    00002C35 DD CB F2 7E      [20] 6898 	bit	7, -14 (ix)
    00002C39 28 10            [12] 6899 	jr	Z, 00390$
    00002C3B DD 7E F1         [19] 6900 	ld	a, -15 (ix)
    00002C3E C6 07            [ 7] 6901 	add	a, #0x07
    00002C40 DD 77 F5         [19] 6902 	ld	-11 (ix), a
    00002C43 DD 7E F2         [19] 6903 	ld	a, -14 (ix)
    00002C46 CE 00            [ 7] 6904 	adc	a, #0x00
    00002C48 DD 77 F6         [19] 6905 	ld	-10 (ix), a
    00002C4B                       6906 00390$:
    00002C4B DD CB F6 2E      [23] 6907 	sra	-10 (ix)
    00002C4F DD CB F5 1E      [23] 6908 	rr	-11 (ix)
    00002C53 DD CB F6 2E      [23] 6909 	sra	-10 (ix)
    00002C57 DD CB F5 1E      [23] 6910 	rr	-11 (ix)
    00002C5B DD CB F6 2E      [23] 6911 	sra	-10 (ix)
    00002C5F DD CB F5 1E      [23] 6912 	rr	-11 (ix)
    00002C63 DD 7E F3         [19] 6913 	ld	a, -13 (ix)
    00002C66 DD 77 F1         [19] 6914 	ld	-15 (ix), a
    00002C69 DD 7E F4         [19] 6915 	ld	a, -12 (ix)
    00002C6C DD 77 F2         [19] 6916 	ld	-14 (ix), a
    00002C6F DD 7E F5         [19] 6917 	ld	a, -11 (ix)
    00002C72 DD 77 F3         [19] 6918 	ld	-13 (ix), a
    00002C75 DD 7E F6         [19] 6919 	ld	a, -10 (ix)
    00002C78 DD 77 F4         [19] 6920 	ld	-12 (ix), a
    00002C7B DD 7E F3         [19] 6921 	ld	a, -13 (ix)
    00002C7E DD 86 F1         [19] 6922 	add	a, -15 (ix)
    00002C81 DD 77 F5         [19] 6923 	ld	-11 (ix), a
    00002C84 DD 7E F4         [19] 6924 	ld	a, -12 (ix)
    00002C87 DD 8E F2         [19] 6925 	adc	a, -14 (ix)
    00002C8A DD 77 F6         [19] 6926 	ld	-10 (ix), a
    00002C8D 21r02r00         [10] 6927 	ld	hl, #(_g_Ball + 2)
    00002C90 DD 7E F5         [19] 6928 	ld	a, -11 (ix)
    00002C93 77               [ 7] 6929 	ld	(hl), a
    00002C94 23               [ 6] 6930 	inc	hl
    00002C95 DD 7E F6         [19] 6931 	ld	a, -10 (ix)
    00002C98 77               [ 7] 6932 	ld	(hl), a
                                   6933 ;E:\Dropbox\FAUSTO\SVILUPPI\MSX\CODE\C\MSXgl\projects\exsoccer/exsoccer_s22_b2.c:1240: if (ballTimer < 20) {
    00002C99 DD 7E FE         [19] 6934 	ld	a, -2 (ix)
    00002C9C DD 46 FF         [19] 6935 	ld	b, -1 (ix)
    00002C9F D6 14            [ 7] 6936 	sub	a, #0x14
    00002CA1 78               [ 4] 6937 	ld	a, b
    00002CA2 DE 00            [ 7] 6938 	sbc	a, #0x00
    00002CA4 D2r3Ar2D         [10] 6939 	jp	NC, 00252$
                                   6940 ;E:\Dropbox\FAUSTO\SVILUPPI\MSX\CODE\C\MSXgl\projects\exsoccer/exsoccer_s22_b2.c:1241: if (gkDiveDir == DIRECTION_LEFT) {
    00002CA7 DD 7E EE         [19] 6941 	ld	a, -18 (ix)
    00002CAA B7               [ 4] 6942 	or	a, a
    00002CAB 28 45            [12] 6943 	jr	Z, 00249$
                                   6944 ;E:\Dropbox\FAUSTO\SVILUPPI\MSX\CODE\C\MSXgl\projects\exsoccer/exsoccer_s22_b2.c:1242: g_Players[gkId].X -= 3;
    00002CAD DD 6E E0         [19] 6945 	ld	l, -32 (ix)
    00002CB0 DD 66 E1         [19] 6946 	ld	h, -31 (ix)
    00002CB3 7E               [ 7] 6947 	ld	a, (hl)
    00002CB4 DD 77 F5         [19] 6948 	ld	-11 (ix), a
    00002CB7 23               [ 6] 6949 	inc	hl
    00002CB8 7E               [ 7] 6950 	ld	a, (hl)
    00002CB9 DD 77 F6         [19] 6951 	ld	-10 (ix), a
    00002CBC DD 7E F5         [19] 6952 	ld	a, -11 (ix)
    00002CBF DD 77 F3         [19] 6953 	ld	-13 (ix), a
    00002CC2 DD 7E F6         [19] 6954 	ld	a, -10 (ix)
    00002CC5 DD 77 F4         [19] 6955 	ld	-12 (ix), a
    00002CC8 DD 7E F3         [19] 6956 	ld	a, -13 (ix)
    00002CCB C6 FD            [ 7] 6957 	add	a, #0xfd
    00002CCD DD 77 F5         [19] 6958 	ld	-11 (ix), a
    00002CD0 DD 7E F4         [19] 6959 	ld	a, -12 (ix)
    00002CD3 CE FF            [ 7] 6960 	adc	a, #0xff
    00002CD5 DD 77 F6         [19] 6961 	ld	-10 (ix), a
    00002CD8 DD 6E E0         [19] 6962 	ld	l, -32 (ix)
    00002CDB DD 66 E1         [19] 6963 	ld	h, -31 (ix)
    00002CDE DD 7E F5         [19] 6964 	ld	a, -11 (ix)
    00002CE1 77               [ 7] 6965 	ld	(hl), a
    00002CE2 23               [ 6] 6966 	inc	hl
    00002CE3 DD 7E F6         [19] 6967 	ld	a, -10 (ix)
    00002CE6 77               [ 7] 6968 	ld	(hl), a
                                   6969 ;E:\Dropbox\FAUSTO\SVILUPPI\MSX\CODE\C\MSXgl\projects\exsoccer/exsoccer_s22_b2.c:1243: g_Players[gkId].PatternId = PLAYER_POSE_TEAM2_GK_DOWN_LEFT;
    00002CE7 DD 6E E8         [19] 6970 	ld	l, -24 (ix)
    00002CEA DD 66 E9         [19] 6971 	ld	h, -23 (ix)
    00002CED 36 A0            [10] 6972 	ld	(hl), #0xa0
    00002CEF C3r3Ar2D         [10] 6973 	jp	00252$
    00002CF2                       6974 00249$:
                                   6975 ;E:\Dropbox\FAUSTO\SVILUPPI\MSX\CODE\C\MSXgl\projects\exsoccer/exsoccer_s22_b2.c:1244: } else if (gkDiveDir == DIRECTION_RIGHT) {
    00002CF2 DD 7E EF         [19] 6976 	ld	a, -17 (ix)
    00002CF5 B7               [ 4] 6977 	or	a, a
    00002CF6 28 42            [12] 6978 	jr	Z, 00252$
                                   6979 ;E:\Dropbox\FAUSTO\SVILUPPI\MSX\CODE\C\MSXgl\projects\exsoccer/exsoccer_s22_b2.c:1245: g_Players[gkId].X += 3;
    00002CF8 DD 6E E0         [19] 6980 	ld	l, -32 (ix)
    00002CFB DD 66 E1         [19] 6981 	ld	h, -31 (ix)
    00002CFE 7E               [ 7] 6982 	ld	a, (hl)
    00002CFF DD 77 F5         [19] 6983 	ld	-11 (ix), a
    00002D02 23               [ 6] 6984 	inc	hl
    00002D03 7E               [ 7] 6985 	ld	a, (hl)
    00002D04 DD 77 F6         [19] 6986 	ld	-10 (ix), a
    00002D07 DD 7E F5         [19] 6987 	ld	a, -11 (ix)
    00002D0A DD 77 F3         [19] 6988 	ld	-13 (ix), a
    00002D0D DD 7E F6         [19] 6989 	ld	a, -10 (ix)
    00002D10 DD 77 F4         [19] 6990 	ld	-12 (ix), a
    00002D13 DD 7E F3         [19] 6991 	ld	a, -13 (ix)
    00002D16 C6 03            [ 7] 6992 	add	a, #0x03
    00002D18 DD 77 F5         [19] 6993 	ld	-11 (ix), a
    00002D1B DD 7E F4         [19] 6994 	ld	a, -12 (ix)
    00002D1E CE 00            [ 7] 6995 	adc	a, #0x00
    00002D20 DD 77 F6         [19] 6996 	ld	-10 (ix), a
    00002D23 DD 6E E0         [19] 6997 	ld	l, -32 (ix)
    00002D26 DD 66 E1         [19] 6998 	ld	h, -31 (ix)
    00002D29 DD 7E F5         [19] 6999 	ld	a, -11 (ix)
    00002D2C 77               [ 7] 7000 	ld	(hl), a
    00002D2D 23               [ 6] 7001 	inc	hl
    00002D2E DD 7E F6         [19] 7002 	ld	a, -10 (ix)
    00002D31 77               [ 7] 7003 	ld	(hl), a
                                   7004 ;E:\Dropbox\FAUSTO\SVILUPPI\MSX\CODE\C\MSXgl\projects\exsoccer/exsoccer_s22_b2.c:1246: g_Players[gkId].PatternId = PLAYER_POSE_TEAM2_GK_DOWN_RIGHT;
    00002D32 DD 6E E8         [19] 7005 	ld	l, -24 (ix)
    00002D35 DD 66 E9         [19] 7006 	ld	h, -23 (ix)
    00002D38 36 2F            [10] 7007 	ld	(hl), #0x2f
    00002D3A                       7008 00252$:
                                   7009 ;E:\Dropbox\FAUSTO\SVILUPPI\MSX\CODE\C\MSXgl\projects\exsoccer/exsoccer_s22_b2.c:1237: g_Ball.Y -= 6;
    00002D3A 21r00r00         [10] 7010 	ld	hl, #_g_Ball
    00002D3D 7E               [ 7] 7011 	ld	a, (hl)
    00002D3E DD 77 F5         [19] 7012 	ld	-11 (ix), a
    00002D41 23               [ 6] 7013 	inc	hl
    00002D42 7E               [ 7] 7014 	ld	a, (hl)
    00002D43 DD 77 F6         [19] 7015 	ld	-10 (ix), a
                                   7016 ;E:\Dropbox\FAUSTO\SVILUPPI\MSX\CODE\C\MSXgl\projects\exsoccer/exsoccer_s22_b2.c:1250: if (g_Ball.Y <= FIELD_BOUND_Y_TOP + 8) {
    00002D46 3E 3A            [ 7] 7017 	ld	a, #0x3a
    00002D48 DD BE F5         [19] 7018 	cp	a, -11 (ix)
    00002D4B 3E 00            [ 7] 7019 	ld	a, #0x00
    00002D4D DD 9E F6         [19] 7020 	sbc	a, -10 (ix)
    00002D50 38 17            [12] 7021 	jr	C, 00259$
                                   7022 ;E:\Dropbox\FAUSTO\SVILUPPI\MSX\CODE\C\MSXgl\projects\exsoccer/exsoccer_s22_b2.c:1251: if (gkChoice == shotDirIdx) {
    00002D52 DD 7E F0         [19] 7023 	ld	a, -16 (ix)
    00002D55 B7               [ 4] 7024 	or	a, a
    00002D56 28 07            [12] 7025 	jr	Z, 00254$
                                   7026 ;E:\Dropbox\FAUSTO\SVILUPPI\MSX\CODE\C\MSXgl\projects\exsoccer/exsoccer_s22_b2.c:1252: saved = true;
    00002D58 DD 36 ED 01      [19] 7027 	ld	-19 (ix), #0x01
    00002D5C C3r63r2D         [10] 7028 	jp	00255$
    00002D5F                       7029 00254$:
                                   7030 ;E:\Dropbox\FAUSTO\SVILUPPI\MSX\CODE\C\MSXgl\projects\exsoccer/exsoccer_s22_b2.c:1254: goal = true;
    00002D5F DD 36 EC 01      [19] 7031 	ld	-20 (ix), #0x01
    00002D63                       7032 00255$:
                                   7033 ;E:\Dropbox\FAUSTO\SVILUPPI\MSX\CODE\C\MSXgl\projects\exsoccer/exsoccer_s22_b2.c:1257: if (saved) break;
    00002D63 DD 7E ED         [19] 7034 	ld	a, -19 (ix)
    00002D66 B7               [ 4] 7035 	or	a, a
    00002D67 20 18            [12] 7036 	jr	NZ, 00266$
    00002D69                       7037 00259$:
                                   7038 ;E:\Dropbox\FAUSTO\SVILUPPI\MSX\CODE\C\MSXgl\projects\exsoccer/exsoccer_s22_b2.c:1260: if (goal) {
    00002D69 DD 7E EC         [19] 7039 	ld	a, -20 (ix)
    00002D6C B7               [ 4] 7040 	or	a, a
    00002D6D 28 0C            [12] 7041 	jr	Z, 00263$
                                   7042 ;E:\Dropbox\FAUSTO\SVILUPPI\MSX\CODE\C\MSXgl\projects\exsoccer/exsoccer_s22_b2.c:1261: if (g_Ball.Y <= FIELD_BOUND_Y_TOP - 10) break;
    00002D6F 3E 28            [ 7] 7043 	ld	a, #0x28
    00002D71 DD BE F5         [19] 7044 	cp	a, -11 (ix)
    00002D74 3E 00            [ 7] 7045 	ld	a, #0x00
    00002D76 DD 9E F6         [19] 7046 	sbc	a, -10 (ix)
    00002D79 30 06            [12] 7047 	jr	NC, 00266$
    00002D7B                       7048 00263$:
                                   7049 ;E:\Dropbox\FAUSTO\SVILUPPI\MSX\CODE\C\MSXgl\projects\exsoccer/exsoccer_s22_b2.c:1263: UpdateSpritesPositions();
    00002D7B CDr00r00         [17] 7050 	call	_UpdateSpritesPositions
    00002D7E C3r8Er2B         [10] 7051 	jp	00264$
    00002D81                       7052 00266$:
                                   7053 ;E:\Dropbox\FAUSTO\SVILUPPI\MSX\CODE\C\MSXgl\projects\exsoccer/exsoccer_s22_b2.c:1267: if (goal) {
    00002D81 DD 7E EC         [19] 7054 	ld	a, -20 (ix)
    00002D84 B7               [ 4] 7055 	or	a, a
    00002D85 28 21            [12] 7056 	jr	Z, 00271$
                                   7057 ;E:\Dropbox\FAUSTO\SVILUPPI\MSX\CODE\C\MSXgl\projects\exsoccer/exsoccer_s22_b2.c:1268: resChar = 'O'; // Uppercase for visibility
    00002D87 DD 36 FF 4F      [19] 7058 	ld	-1 (ix), #0x4f
                                   7059 ;E:\Dropbox\FAUSTO\SVILUPPI\MSX\CODE\C\MSXgl\projects\exsoccer/exsoccer_s22_b2.c:1269: if (kickingTeam == TEAM_1) goals1++; else goals2++;
    00002D8B DD 7E CB         [19] 7060 	ld	a, -53 (ix)
    00002D8E B7               [ 4] 7061 	or	a, a
    00002D8F 28 06            [12] 7062 	jr	Z, 00268$
    00002D91 DD 34 F9         [23] 7063 	inc	-7 (ix)
    00002D94 C3r9Ar2D         [10] 7064 	jp	00269$
    00002D97                       7065 00268$:
    00002D97 DD 34 F8         [23] 7066 	inc	-8 (ix)
    00002D9A                       7067 00269$:
                                   7068 ;E:\Dropbox\FAUSTO\SVILUPPI\MSX\CODE\C\MSXgl\projects\exsoccer/exsoccer_s22_b2.c:1270: V9_PrintLayerAStringAtPos(12, 10, "GOAL!");
    00002D9A 21rF9r34         [10] 7069 	ld	hl, #___str_1
    00002D9D E5               [11] 7070 	push	hl
    00002D9E 2E 0A            [ 7] 7071 	ld	l, #0x0a
                                   7072 ;	spillPairReg hl
                                   7073 ;	spillPairReg hl
    00002DA0 3E 0C            [ 7] 7074 	ld	a, #0x0c
    00002DA2 CDr00r00         [17] 7075 	call	_V9_PrintLayerAStringAtPos
    00002DA5 C3rD3r2D         [10] 7076 	jp	00272$
    00002DA8                       7077 00271$:
                                   7078 ;E:\Dropbox\FAUSTO\SVILUPPI\MSX\CODE\C\MSXgl\projects\exsoccer/exsoccer_s22_b2.c:1272: resChar = 'X'; // Uppercase for visibility
    00002DA8 DD 36 FF 58      [19] 7079 	ld	-1 (ix), #0x58
                                   7080 ;E:\Dropbox\FAUSTO\SVILUPPI\MSX\CODE\C\MSXgl\projects\exsoccer/exsoccer_s22_b2.c:1273: V9_PrintLayerAStringAtPos(12, 10, saved ? "SAVED!" : "MISS!");
    00002DAC DD 7E ED         [19] 7081 	ld	a, -19 (ix)
    00002DAF B7               [ 4] 7082 	or	a, a
    00002DB0 28 0B            [12] 7083 	jr	Z, 00391$
    00002DB2 DD 36 F5rFF      [19] 7084 	ld	-11 (ix), #<(___str_2)
    00002DB6 DD 36 F6s34      [19] 7085 	ld	-10 (ix), #>(___str_2)
    00002DBA C3rC5r2D         [10] 7086 	jp	00392$
    00002DBD                       7087 00391$:
    00002DBD DD 36 F5r06      [19] 7088 	ld	-11 (ix), #<(___str_3)
    00002DC1 DD 36 F6s35      [19] 7089 	ld	-10 (ix), #>(___str_3)
    00002DC5                       7090 00392$:
    00002DC5 DD 4E F5         [19] 7091 	ld	c, -11 (ix)
    00002DC8 DD 46 F6         [19] 7092 	ld	b, -10 (ix)
    00002DCB C5               [11] 7093 	push	bc
    00002DCC 2E 0A            [ 7] 7094 	ld	l, #0x0a
                                   7095 ;	spillPairReg hl
                                   7096 ;	spillPairReg hl
    00002DCE 3E 0C            [ 7] 7097 	ld	a, #0x0c
    00002DD0 CDr00r00         [17] 7098 	call	_V9_PrintLayerAStringAtPos
    00002DD3                       7099 00272$:
                                   7100 ;E:\Dropbox\FAUSTO\SVILUPPI\MSX\CODE\C\MSXgl\projects\exsoccer/exsoccer_s22_b2.c:1276: if (kickingTeam == TEAM_1) { if(h1_idx < 19) { g_History1[h1_idx++] = resChar; g_History1[h1_idx] = 0; } shots1++; } 
    00002DD3 DD 7E CB         [19] 7101 	ld	a, -53 (ix)
    00002DD6 B7               [ 4] 7102 	or	a, a
    00002DD7 28 2C            [12] 7103 	jr	Z, 00278$
    00002DD9 DD 7E F7         [19] 7104 	ld	a, -9 (ix)
    00002DDC D6 13            [ 7] 7105 	sub	a, #0x13
    00002DDE 30 1F            [12] 7106 	jr	NC, 00274$
    00002DE0 3Er00            [ 7] 7107 	ld	a, #<(_g_History1)
    00002DE2 DD 86 F7         [19] 7108 	add	a, -9 (ix)
    00002DE5 4F               [ 4] 7109 	ld	c, a
    00002DE6 3Es00            [ 7] 7110 	ld	a, #>(_g_History1)
    00002DE8 CE 00            [ 7] 7111 	adc	a, #0x00
    00002DEA 47               [ 4] 7112 	ld	b, a
    00002DEB DD 34 F7         [23] 7113 	inc	-9 (ix)
    00002DEE DD 7E FF         [19] 7114 	ld	a, -1 (ix)
    00002DF1 02               [ 7] 7115 	ld	(bc), a
    00002DF2 3Er00            [ 7] 7116 	ld	a, #<(_g_History1)
    00002DF4 DD 86 F7         [19] 7117 	add	a, -9 (ix)
    00002DF7 4F               [ 4] 7118 	ld	c, a
    00002DF8 3Es00            [ 7] 7119 	ld	a, #>(_g_History1)
    00002DFA CE 00            [ 7] 7120 	adc	a, #0x00
    00002DFC 47               [ 4] 7121 	ld	b, a
    00002DFD AF               [ 4] 7122 	xor	a, a
    00002DFE 02               [ 7] 7123 	ld	(bc), a
    00002DFF                       7124 00274$:
    00002DFF DD 34 FC         [23] 7125 	inc	-4 (ix)
    00002E02 C3r2Er2E         [10] 7126 	jp	00279$
    00002E05                       7127 00278$:
                                   7128 ;E:\Dropbox\FAUSTO\SVILUPPI\MSX\CODE\C\MSXgl\projects\exsoccer/exsoccer_s22_b2.c:1277: else { if(h2_idx < 19) { g_History2[h2_idx++] = resChar; g_History2[h2_idx] = 0; } shots2++; }
    00002E05 DD 7E FA         [19] 7129 	ld	a, -6 (ix)
    00002E08 D6 13            [ 7] 7130 	sub	a, #0x13
    00002E0A 30 1F            [12] 7131 	jr	NC, 00276$
    00002E0C 3Er00            [ 7] 7132 	ld	a, #<(_g_History2)
    00002E0E DD 86 FA         [19] 7133 	add	a, -6 (ix)
    00002E11 4F               [ 4] 7134 	ld	c, a
    00002E12 3Es00            [ 7] 7135 	ld	a, #>(_g_History2)
    00002E14 CE 00            [ 7] 7136 	adc	a, #0x00
    00002E16 47               [ 4] 7137 	ld	b, a
    00002E17 DD 34 FA         [23] 7138 	inc	-6 (ix)
    00002E1A DD 7E FF         [19] 7139 	ld	a, -1 (ix)
    00002E1D 02               [ 7] 7140 	ld	(bc), a
    00002E1E 3Er00            [ 7] 7141 	ld	a, #<(_g_History2)
    00002E20 DD 86 FA         [19] 7142 	add	a, -6 (ix)
    00002E23 4F               [ 4] 7143 	ld	c, a
    00002E24 3Es00            [ 7] 7144 	ld	a, #>(_g_History2)
    00002E26 CE 00            [ 7] 7145 	adc	a, #0x00
    00002E28 47               [ 4] 7146 	ld	b, a
    00002E29 AF               [ 4] 7147 	xor	a, a
    00002E2A 02               [ 7] 7148 	ld	(bc), a
    00002E2B                       7149 00276$:
    00002E2B DD 34 FB         [23] 7150 	inc	-5 (ix)
    00002E2E                       7151 00279$:
                                   7152 ;E:\Dropbox\FAUSTO\SVILUPPI\MSX\CODE\C\MSXgl\projects\exsoccer/exsoccer_s22_b2.c:1280: V9_PrintLayerAStringAtPos(10, 22, g_History1);
    00002E2E 21r00r00         [10] 7153 	ld	hl, #_g_History1
    00002E31 E5               [11] 7154 	push	hl
    00002E32 2E 16            [ 7] 7155 	ld	l, #0x16
                                   7156 ;	spillPairReg hl
                                   7157 ;	spillPairReg hl
    00002E34 3E 0A            [ 7] 7158 	ld	a, #0x0a
    00002E36 CDr00r00         [17] 7159 	call	_V9_PrintLayerAStringAtPos
                                   7160 ;E:\Dropbox\FAUSTO\SVILUPPI\MSX\CODE\C\MSXgl\projects\exsoccer/exsoccer_s22_b2.c:1281: V9_PrintLayerAStringAtPos(10, 23, g_History2);
    00002E39 21r00r00         [10] 7161 	ld	hl, #_g_History2
    00002E3C E5               [11] 7162 	push	hl
    00002E3D 2E 17            [ 7] 7163 	ld	l, #0x17
                                   7164 ;	spillPairReg hl
                                   7165 ;	spillPairReg hl
    00002E3F 3E 0A            [ 7] 7166 	ld	a, #0x0a
    00002E41 CDr00r00         [17] 7167 	call	_V9_PrintLayerAStringAtPos
                                   7168 ;E:\Dropbox\FAUSTO\SVILUPPI\MSX\CODE\C\MSXgl\projects\exsoccer/exsoccer_s22_b2.c:1283: for(u8 w=0; w<120; w++) UpdateV9990();
    00002E44 0E 00            [ 7] 7169 	ld	c, #0x00
    00002E46                       7170 00365$:
    00002E46 79               [ 4] 7171 	ld	a, c
    00002E47 D6 78            [ 7] 7172 	sub	a, #0x78
    00002E49 30 09            [12] 7173 	jr	NC, 00280$
    00002E4B C5               [11] 7174 	push	bc
    00002E4C CDr00r00         [17] 7175 	call	_UpdateV9990
    00002E4F C1               [10] 7176 	pop	bc
    00002E50 0C               [ 4] 7177 	inc	c
    00002E51 C3r46r2E         [10] 7178 	jp	00365$
    00002E54                       7179 00280$:
                                   7180 ;E:\Dropbox\FAUSTO\SVILUPPI\MSX\CODE\C\MSXgl\projects\exsoccer/exsoccer_s22_b2.c:1284: ClearTextFromLayerA(12, 10, 10);
    00002E54 3E 0A            [ 7] 7181 	ld	a, #0x0a
    00002E56 F5               [11] 7182 	push	af
    00002E57 33               [ 6] 7183 	inc	sp
    00002E58 2E 0A            [ 7] 7184 	ld	l, #0x0a
                                   7185 ;	spillPairReg hl
                                   7186 ;	spillPairReg hl
    00002E5A 3E 0C            [ 7] 7187 	ld	a, #0x0c
    00002E5C CDr00r00         [17] 7188 	call	_ClearTextFromLayerA
                                   7189 ;E:\Dropbox\FAUSTO\SVILUPPI\MSX\CODE\C\MSXgl\projects\exsoccer/exsoccer_s22_b2.c:1288: if (kickerId < 7) {
    00002E5F DD 7E CC         [19] 7190 	ld	a, -52 (ix)
    00002E62 D6 07            [ 7] 7191 	sub	a, #0x07
    00002E64 30 59            [12] 7192 	jr	NC, 00282$
                                   7193 ;E:\Dropbox\FAUSTO\SVILUPPI\MSX\CODE\C\MSXgl\projects\exsoccer/exsoccer_s22_b2.c:1289: g_Players[kickerId].TargetY = 220 + (kickerId/4)*15; 
    00002E66 DD 7E D2         [19] 7194 	ld	a, -46 (ix)
    00002E69 DD 77 FE         [19] 7195 	ld	-2 (ix), a
    00002E6C DD 7E D3         [19] 7196 	ld	a, -45 (ix)
    00002E6F DD 77 FF         [19] 7197 	ld	-1 (ix), a
    00002E72 DD 4E CC         [19] 7198 	ld	c, -52 (ix)
    00002E75 06 00            [ 7] 7199 	ld	b, #0x00
    00002E77 59               [ 4] 7200 	ld	e, c
    00002E78 50               [ 4] 7201 	ld	d, b
    00002E79 CB 78            [ 8] 7202 	bit	7, b
    00002E7B 28 05            [12] 7203 	jr	Z, 00393$
    00002E7D 59               [ 4] 7204 	ld	e, c
    00002E7E 50               [ 4] 7205 	ld	d, b
    00002E7F 13               [ 6] 7206 	inc	de
    00002E80 13               [ 6] 7207 	inc	de
    00002E81 13               [ 6] 7208 	inc	de
    00002E82                       7209 00393$:
    00002E82 CB 2A            [ 8] 7210 	sra	d
    00002E84 CB 1B            [ 8] 7211 	rr	e
    00002E86 CB 2A            [ 8] 7212 	sra	d
    00002E88 CB 1B            [ 8] 7213 	rr	e
    00002E8A 6B               [ 4] 7214 	ld	l, e
    00002E8B 62               [ 4] 7215 	ld	h, d
    00002E8C 29               [11] 7216 	add	hl, hl
    00002E8D 19               [11] 7217 	add	hl, de
    00002E8E 29               [11] 7218 	add	hl, hl
    00002E8F 19               [11] 7219 	add	hl, de
    00002E90 29               [11] 7220 	add	hl, hl
    00002E91 19               [11] 7221 	add	hl, de
    00002E92 11 DC 00         [10] 7222 	ld	de, #0x00dc
    00002E95 19               [11] 7223 	add	hl, de
    00002E96 EB               [ 4] 7224 	ex	de, hl
    00002E97 DD 6E FE         [19] 7225 	ld	l, -2 (ix)
    00002E9A DD 66 FF         [19] 7226 	ld	h, -1 (ix)
    00002E9D 73               [ 7] 7227 	ld	(hl), e
    00002E9E 23               [ 6] 7228 	inc	hl
    00002E9F 72               [ 7] 7229 	ld	(hl), d
                                   7230 ;E:\Dropbox\FAUSTO\SVILUPPI\MSX\CODE\C\MSXgl\projects\exsoccer/exsoccer_s22_b2.c:1290: g_Players[kickerId].TargetX = 80 + (kickerId%4)*25;
    00002EA0 79               [ 4] 7231 	ld	a, c
    00002EA1 E6 03            [ 7] 7232 	and	a, #0x03
    00002EA3 4F               [ 4] 7233 	ld	c, a
    00002EA4 06 00            [ 7] 7234 	ld	b, #0x00
    00002EA6 69               [ 4] 7235 	ld	l, c
    00002EA7 60               [ 4] 7236 	ld	h, b
    00002EA8 29               [11] 7237 	add	hl, hl
    00002EA9 09               [11] 7238 	add	hl, bc
    00002EAA 29               [11] 7239 	add	hl, hl
    00002EAB 29               [11] 7240 	add	hl, hl
    00002EAC 29               [11] 7241 	add	hl, hl
    00002EAD 09               [11] 7242 	add	hl, bc
    00002EAE 01 50 00         [10] 7243 	ld	bc, #0x0050
    00002EB1 09               [11] 7244 	add	hl, bc
    00002EB2 EB               [ 4] 7245 	ex	de, hl
    00002EB3 DD 6E D0         [19] 7246 	ld	l, -48 (ix)
    00002EB6 DD 66 D1         [19] 7247 	ld	h, -47 (ix)
    00002EB9 73               [ 7] 7248 	ld	(hl), e
    00002EBA 23               [ 6] 7249 	inc	hl
    00002EBB 72               [ 7] 7250 	ld	(hl), d
    00002EBC C3r18r2F         [10] 7251 	jp	00283$
    00002EBF                       7252 00282$:
                                   7253 ;E:\Dropbox\FAUSTO\SVILUPPI\MSX\CODE\C\MSXgl\projects\exsoccer/exsoccer_s22_b2.c:1292: u8 k = kickerId - 7;
    00002EBF DD 7E CC         [19] 7254 	ld	a, -52 (ix)
    00002EC2 C6 F9            [ 7] 7255 	add	a, #0xf9
    00002EC4 4F               [ 4] 7256 	ld	c, a
                                   7257 ;E:\Dropbox\FAUSTO\SVILUPPI\MSX\CODE\C\MSXgl\projects\exsoccer/exsoccer_s22_b2.c:1293: g_Players[kickerId].TargetY = 260 + (k/4)*15;
    00002EC5 DD 7E D2         [19] 7258 	ld	a, -46 (ix)
    00002EC8 DD 77 FE         [19] 7259 	ld	-2 (ix), a
    00002ECB DD 7E D3         [19] 7260 	ld	a, -45 (ix)
    00002ECE DD 77 FF         [19] 7261 	ld	-1 (ix), a
    00002ED1 06 00            [ 7] 7262 	ld	b, #0x00
    00002ED3 59               [ 4] 7263 	ld	e, c
    00002ED4 50               [ 4] 7264 	ld	d, b
    00002ED5 CB 78            [ 8] 7265 	bit	7, b
    00002ED7 28 05            [12] 7266 	jr	Z, 00394$
    00002ED9 59               [ 4] 7267 	ld	e, c
    00002EDA 50               [ 4] 7268 	ld	d, b
    00002EDB 13               [ 6] 7269 	inc	de
    00002EDC 13               [ 6] 7270 	inc	de
    00002EDD 13               [ 6] 7271 	inc	de
    00002EDE                       7272 00394$:
    00002EDE CB 2A            [ 8] 7273 	sra	d
    00002EE0 CB 1B            [ 8] 7274 	rr	e
    00002EE2 CB 2A            [ 8] 7275 	sra	d
    00002EE4 CB 1B            [ 8] 7276 	rr	e
    00002EE6 6B               [ 4] 7277 	ld	l, e
    00002EE7 62               [ 4] 7278 	ld	h, d
    00002EE8 29               [11] 7279 	add	hl, hl
    00002EE9 19               [11] 7280 	add	hl, de
    00002EEA 29               [11] 7281 	add	hl, hl
    00002EEB 19               [11] 7282 	add	hl, de
    00002EEC 29               [11] 7283 	add	hl, hl
    00002EED 19               [11] 7284 	add	hl, de
    00002EEE 11 04 01         [10] 7285 	ld	de, #0x0104
    00002EF1 19               [11] 7286 	add	hl, de
    00002EF2 EB               [ 4] 7287 	ex	de, hl
    00002EF3 DD 6E FE         [19] 7288 	ld	l, -2 (ix)
    00002EF6 DD 66 FF         [19] 7289 	ld	h, -1 (ix)
    00002EF9 73               [ 7] 7290 	ld	(hl), e
    00002EFA 23               [ 6] 7291 	inc	hl
    00002EFB 72               [ 7] 7292 	ld	(hl), d
                                   7293 ;E:\Dropbox\FAUSTO\SVILUPPI\MSX\CODE\C\MSXgl\projects\exsoccer/exsoccer_s22_b2.c:1294: g_Players[kickerId].TargetX = 80 + (k%4)*25;
    00002EFC 79               [ 4] 7294 	ld	a, c
    00002EFD E6 03            [ 7] 7295 	and	a, #0x03
    00002EFF 4F               [ 4] 7296 	ld	c, a
    00002F00 06 00            [ 7] 7297 	ld	b, #0x00
    00002F02 69               [ 4] 7298 	ld	l, c
    00002F03 60               [ 4] 7299 	ld	h, b
    00002F04 29               [11] 7300 	add	hl, hl
    00002F05 09               [11] 7301 	add	hl, bc
    00002F06 29               [11] 7302 	add	hl, hl
    00002F07 29               [11] 7303 	add	hl, hl
    00002F08 29               [11] 7304 	add	hl, hl
    00002F09 09               [11] 7305 	add	hl, bc
    00002F0A 01 50 00         [10] 7306 	ld	bc, #0x0050
    00002F0D 09               [11] 7307 	add	hl, bc
    00002F0E EB               [ 4] 7308 	ex	de, hl
    00002F0F DD 6E D0         [19] 7309 	ld	l, -48 (ix)
    00002F12 DD 66 D1         [19] 7310 	ld	h, -47 (ix)
    00002F15 73               [ 7] 7311 	ld	(hl), e
    00002F16 23               [ 6] 7312 	inc	hl
    00002F17 72               [ 7] 7313 	ld	(hl), d
    00002F18                       7314 00283$:
                                   7315 ;E:\Dropbox\FAUSTO\SVILUPPI\MSX\CODE\C\MSXgl\projects\exsoccer/exsoccer_s22_b2.c:1298: if (gkId < 7) {
    00002F18 DD 7E CD         [19] 7316 	ld	a, -51 (ix)
    00002F1B D6 07            [ 7] 7317 	sub	a, #0x07
    00002F1D 30 59            [12] 7318 	jr	NC, 00285$
                                   7319 ;E:\Dropbox\FAUSTO\SVILUPPI\MSX\CODE\C\MSXgl\projects\exsoccer/exsoccer_s22_b2.c:1299: g_Players[gkId].TargetY = 220 + (gkId/4)*15; 
    00002F1F DD 7E D8         [19] 7320 	ld	a, -40 (ix)
    00002F22 DD 77 FE         [19] 7321 	ld	-2 (ix), a
    00002F25 DD 7E D9         [19] 7322 	ld	a, -39 (ix)
    00002F28 DD 77 FF         [19] 7323 	ld	-1 (ix), a
    00002F2B DD 4E CD         [19] 7324 	ld	c, -51 (ix)
    00002F2E 06 00            [ 7] 7325 	ld	b, #0x00
    00002F30 59               [ 4] 7326 	ld	e, c
    00002F31 50               [ 4] 7327 	ld	d, b
    00002F32 CB 78            [ 8] 7328 	bit	7, b
    00002F34 28 05            [12] 7329 	jr	Z, 00395$
    00002F36 59               [ 4] 7330 	ld	e, c
    00002F37 50               [ 4] 7331 	ld	d, b
    00002F38 13               [ 6] 7332 	inc	de
    00002F39 13               [ 6] 7333 	inc	de
    00002F3A 13               [ 6] 7334 	inc	de
    00002F3B                       7335 00395$:
    00002F3B CB 2A            [ 8] 7336 	sra	d
    00002F3D CB 1B            [ 8] 7337 	rr	e
    00002F3F CB 2A            [ 8] 7338 	sra	d
    00002F41 CB 1B            [ 8] 7339 	rr	e
    00002F43 6B               [ 4] 7340 	ld	l, e
    00002F44 62               [ 4] 7341 	ld	h, d
    00002F45 29               [11] 7342 	add	hl, hl
    00002F46 19               [11] 7343 	add	hl, de
    00002F47 29               [11] 7344 	add	hl, hl
    00002F48 19               [11] 7345 	add	hl, de
    00002F49 29               [11] 7346 	add	hl, hl
    00002F4A 19               [11] 7347 	add	hl, de
    00002F4B 11 DC 00         [10] 7348 	ld	de, #0x00dc
    00002F4E 19               [11] 7349 	add	hl, de
    00002F4F EB               [ 4] 7350 	ex	de, hl
    00002F50 DD 6E FE         [19] 7351 	ld	l, -2 (ix)
    00002F53 DD 66 FF         [19] 7352 	ld	h, -1 (ix)
    00002F56 73               [ 7] 7353 	ld	(hl), e
    00002F57 23               [ 6] 7354 	inc	hl
    00002F58 72               [ 7] 7355 	ld	(hl), d
                                   7356 ;E:\Dropbox\FAUSTO\SVILUPPI\MSX\CODE\C\MSXgl\projects\exsoccer/exsoccer_s22_b2.c:1300: g_Players[gkId].TargetX = 80 + (gkId%4)*25;
    00002F59 79               [ 4] 7357 	ld	a, c
    00002F5A E6 03            [ 7] 7358 	and	a, #0x03
    00002F5C 4F               [ 4] 7359 	ld	c, a
    00002F5D 06 00            [ 7] 7360 	ld	b, #0x00
    00002F5F 69               [ 4] 7361 	ld	l, c
    00002F60 60               [ 4] 7362 	ld	h, b
    00002F61 29               [11] 7363 	add	hl, hl
    00002F62 09               [11] 7364 	add	hl, bc
    00002F63 29               [11] 7365 	add	hl, hl
    00002F64 29               [11] 7366 	add	hl, hl
    00002F65 29               [11] 7367 	add	hl, hl
    00002F66 09               [11] 7368 	add	hl, bc
    00002F67 01 50 00         [10] 7369 	ld	bc, #0x0050
    00002F6A 09               [11] 7370 	add	hl, bc
    00002F6B EB               [ 4] 7371 	ex	de, hl
    00002F6C DD 6E D6         [19] 7372 	ld	l, -42 (ix)
    00002F6F DD 66 D7         [19] 7373 	ld	h, -41 (ix)
    00002F72 73               [ 7] 7374 	ld	(hl), e
    00002F73 23               [ 6] 7375 	inc	hl
    00002F74 72               [ 7] 7376 	ld	(hl), d
    00002F75 C3rD1r2F         [10] 7377 	jp	00286$
    00002F78                       7378 00285$:
                                   7379 ;E:\Dropbox\FAUSTO\SVILUPPI\MSX\CODE\C\MSXgl\projects\exsoccer/exsoccer_s22_b2.c:1302: u8 k = gkId - 7;
    00002F78 DD 7E CD         [19] 7380 	ld	a, -51 (ix)
    00002F7B C6 F9            [ 7] 7381 	add	a, #0xf9
    00002F7D 4F               [ 4] 7382 	ld	c, a
                                   7383 ;E:\Dropbox\FAUSTO\SVILUPPI\MSX\CODE\C\MSXgl\projects\exsoccer/exsoccer_s22_b2.c:1303: g_Players[gkId].TargetY = 260 + (k/4)*15;
    00002F7E DD 7E D8         [19] 7384 	ld	a, -40 (ix)
    00002F81 DD 77 FE         [19] 7385 	ld	-2 (ix), a
    00002F84 DD 7E D9         [19] 7386 	ld	a, -39 (ix)
    00002F87 DD 77 FF         [19] 7387 	ld	-1 (ix), a
    00002F8A 06 00            [ 7] 7388 	ld	b, #0x00
    00002F8C 59               [ 4] 7389 	ld	e, c
    00002F8D 50               [ 4] 7390 	ld	d, b
    00002F8E CB 78            [ 8] 7391 	bit	7, b
    00002F90 28 05            [12] 7392 	jr	Z, 00396$
    00002F92 59               [ 4] 7393 	ld	e, c
    00002F93 50               [ 4] 7394 	ld	d, b
    00002F94 13               [ 6] 7395 	inc	de
    00002F95 13               [ 6] 7396 	inc	de
    00002F96 13               [ 6] 7397 	inc	de
    00002F97                       7398 00396$:
    00002F97 CB 2A            [ 8] 7399 	sra	d
    00002F99 CB 1B            [ 8] 7400 	rr	e
    00002F9B CB 2A            [ 8] 7401 	sra	d
    00002F9D CB 1B            [ 8] 7402 	rr	e
    00002F9F 6B               [ 4] 7403 	ld	l, e
    00002FA0 62               [ 4] 7404 	ld	h, d
    00002FA1 29               [11] 7405 	add	hl, hl
    00002FA2 19               [11] 7406 	add	hl, de
    00002FA3 29               [11] 7407 	add	hl, hl
    00002FA4 19               [11] 7408 	add	hl, de
    00002FA5 29               [11] 7409 	add	hl, hl
    00002FA6 19               [11] 7410 	add	hl, de
    00002FA7 11 04 01         [10] 7411 	ld	de, #0x0104
    00002FAA 19               [11] 7412 	add	hl, de
    00002FAB EB               [ 4] 7413 	ex	de, hl
    00002FAC DD 6E FE         [19] 7414 	ld	l, -2 (ix)
    00002FAF DD 66 FF         [19] 7415 	ld	h, -1 (ix)
    00002FB2 73               [ 7] 7416 	ld	(hl), e
    00002FB3 23               [ 6] 7417 	inc	hl
    00002FB4 72               [ 7] 7418 	ld	(hl), d
                                   7419 ;E:\Dropbox\FAUSTO\SVILUPPI\MSX\CODE\C\MSXgl\projects\exsoccer/exsoccer_s22_b2.c:1304: g_Players[gkId].TargetX = 80 + (k%4)*25;
    00002FB5 79               [ 4] 7420 	ld	a, c
    00002FB6 E6 03            [ 7] 7421 	and	a, #0x03
    00002FB8 4F               [ 4] 7422 	ld	c, a
    00002FB9 06 00            [ 7] 7423 	ld	b, #0x00
    00002FBB 69               [ 4] 7424 	ld	l, c
    00002FBC 60               [ 4] 7425 	ld	h, b
    00002FBD 29               [11] 7426 	add	hl, hl
    00002FBE 09               [11] 7427 	add	hl, bc
    00002FBF 29               [11] 7428 	add	hl, hl
    00002FC0 29               [11] 7429 	add	hl, hl
    00002FC1 29               [11] 7430 	add	hl, hl
    00002FC2 09               [11] 7431 	add	hl, bc
    00002FC3 01 50 00         [10] 7432 	ld	bc, #0x0050
    00002FC6 09               [11] 7433 	add	hl, bc
    00002FC7 EB               [ 4] 7434 	ex	de, hl
    00002FC8 DD 6E D6         [19] 7435 	ld	l, -42 (ix)
    00002FCB DD 66 D7         [19] 7436 	ld	h, -41 (ix)
    00002FCE 73               [ 7] 7437 	ld	(hl), e
    00002FCF 23               [ 6] 7438 	inc	hl
    00002FD0 72               [ 7] 7439 	ld	(hl), d
    00002FD1                       7440 00286$:
                                   7441 ;E:\Dropbox\FAUSTO\SVILUPPI\MSX\CODE\C\MSXgl\projects\exsoccer/exsoccer_s22_b2.c:1308: g_Players[REFEREE].TargetX = 128;
    00002FD1 21 80 00         [10] 7442 	ld	hl, #0x0080
    00002FD4 22r36r01         [16] 7443 	ld	((_g_Players + 310)), hl
                                   7444 ;E:\Dropbox\FAUSTO\SVILUPPI\MSX\CODE\C\MSXgl\projects\exsoccer/exsoccer_s22_b2.c:1309: g_Players[REFEREE].TargetY = 243;
    00002FD7 2E F3            [ 7] 7445 	ld	l, #0xf3
    00002FD9 22r34r01         [16] 7446 	ld	((_g_Players + 308)), hl
                                   7447 ;E:\Dropbox\FAUSTO\SVILUPPI\MSX\CODE\C\MSXgl\projects\exsoccer/exsoccer_s22_b2.c:1311: while(true) {
    00002FDC                       7448 00336$:
                                   7449 ;E:\Dropbox\FAUSTO\SVILUPPI\MSX\CODE\C\MSXgl\projects\exsoccer/exsoccer_s22_b2.c:1312: UpdateV9990();
    00002FDC CDr00r00         [17] 7450 	call	_UpdateV9990
                                   7451 ;E:\Dropbox\FAUSTO\SVILUPPI\MSX\CODE\C\MSXgl\projects\exsoccer/exsoccer_s22_b2.c:1313: bool kDone = true;
    00002FDF DD 36 F2 01      [19] 7452 	ld	-14 (ix), #0x01
                                   7453 ;E:\Dropbox\FAUSTO\SVILUPPI\MSX\CODE\C\MSXgl\projects\exsoccer/exsoccer_s22_b2.c:1314: bool gDone = true;
    00002FE3 DD 36 F3 01      [19] 7454 	ld	-13 (ix), #0x01
                                   7455 ;E:\Dropbox\FAUSTO\SVILUPPI\MSX\CODE\C\MSXgl\projects\exsoccer/exsoccer_s22_b2.c:1315: bool rDone = true;
    00002FE7 DD 36 F4 01      [19] 7456 	ld	-12 (ix), #0x01
                                   7457 ;E:\Dropbox\FAUSTO\SVILUPPI\MSX\CODE\C\MSXgl\projects\exsoccer/exsoccer_s22_b2.c:1067: if (g_Players[kickerId].Y > g_Players[kickerId].TargetY) { g_Players[kickerId].Y--; kDone=false; g_Players[kickerId].Direction=DIRECTION_UP; }
    00002FEB DD 6E CE         [19] 7458 	ld	l, -50 (ix)
    00002FEE DD 66 CF         [19] 7459 	ld	h, -49 (ix)
    00002FF1 7E               [ 7] 7460 	ld	a, (hl)
    00002FF2 DD 77 F5         [19] 7461 	ld	-11 (ix), a
    00002FF5 23               [ 6] 7462 	inc	hl
    00002FF6 7E               [ 7] 7463 	ld	a, (hl)
    00002FF7 DD 77 F6         [19] 7464 	ld	-10 (ix), a
    00002FFA DD 6E D2         [19] 7465 	ld	l, -46 (ix)
    00002FFD DD 66 D3         [19] 7466 	ld	h, -45 (ix)
    00003000 7E               [ 7] 7467 	ld	a, (hl)
    00003001 DD 77 FE         [19] 7468 	ld	-2 (ix), a
    00003004 23               [ 6] 7469 	inc	hl
    00003005 7E               [ 7] 7470 	ld	a, (hl)
    00003006 DD 77 FF         [19] 7471 	ld	-1 (ix), a
                                   7472 ;E:\Dropbox\FAUSTO\SVILUPPI\MSX\CODE\C\MSXgl\projects\exsoccer/exsoccer_s22_b2.c:1318: if (g_Players[kickerId].Y < g_Players[kickerId].TargetY) { g_Players[kickerId].Y++; kDone=false; g_Players[kickerId].Direction=DIRECTION_DOWN; }
    00003009 DD 7E F5         [19] 7473 	ld	a, -11 (ix)
    0000300C DD 96 FE         [19] 7474 	sub	a, -2 (ix)
    0000300F DD 7E F6         [19] 7475 	ld	a, -10 (ix)
    00003012 DD 9E FF         [19] 7476 	sbc	a, -1 (ix)
    00003015 30 2E            [12] 7477 	jr	NC, 00290$
    00003017 DD 7E F5         [19] 7478 	ld	a, -11 (ix)
    0000301A C6 01            [ 7] 7479 	add	a, #0x01
    0000301C DD 77 FE         [19] 7480 	ld	-2 (ix), a
    0000301F DD 7E F6         [19] 7481 	ld	a, -10 (ix)
    00003022 CE 00            [ 7] 7482 	adc	a, #0x00
    00003024 DD 77 FF         [19] 7483 	ld	-1 (ix), a
    00003027 DD 6E CE         [19] 7484 	ld	l, -50 (ix)
    0000302A DD 66 CF         [19] 7485 	ld	h, -49 (ix)
    0000302D DD 7E FE         [19] 7486 	ld	a, -2 (ix)
    00003030 77               [ 7] 7487 	ld	(hl), a
    00003031 23               [ 6] 7488 	inc	hl
    00003032 DD 7E FF         [19] 7489 	ld	a, -1 (ix)
    00003035 77               [ 7] 7490 	ld	(hl), a
    00003036 DD 36 F2 00      [19] 7491 	ld	-14 (ix), #0x00
    0000303A DD 6E E2         [19] 7492 	ld	l, -30 (ix)
    0000303D DD 66 E3         [19] 7493 	ld	h, -29 (ix)
    00003040 36 05            [10] 7494 	ld	(hl), #0x05
    00003042 C3r7Er30         [10] 7495 	jp	00291$
    00003045                       7496 00290$:
                                   7497 ;E:\Dropbox\FAUSTO\SVILUPPI\MSX\CODE\C\MSXgl\projects\exsoccer/exsoccer_s22_b2.c:1319: else if (g_Players[kickerId].Y > g_Players[kickerId].TargetY) { g_Players[kickerId].Y--; kDone=false; g_Players[kickerId].Direction=DIRECTION_UP; }
    00003045 DD 7E FE         [19] 7498 	ld	a, -2 (ix)
    00003048 DD 96 F5         [19] 7499 	sub	a, -11 (ix)
    0000304B DD 7E FF         [19] 7500 	ld	a, -1 (ix)
    0000304E DD 9E F6         [19] 7501 	sbc	a, -10 (ix)
    00003051 30 2B            [12] 7502 	jr	NC, 00291$
    00003053 DD 7E F5         [19] 7503 	ld	a, -11 (ix)
    00003056 C6 FF            [ 7] 7504 	add	a, #0xff
    00003058 DD 77 FE         [19] 7505 	ld	-2 (ix), a
    0000305B DD 7E F6         [19] 7506 	ld	a, -10 (ix)
    0000305E CE FF            [ 7] 7507 	adc	a, #0xff
    00003060 DD 77 FF         [19] 7508 	ld	-1 (ix), a
    00003063 DD 6E CE         [19] 7509 	ld	l, -50 (ix)
    00003066 DD 66 CF         [19] 7510 	ld	h, -49 (ix)
    00003069 DD 7E FE         [19] 7511 	ld	a, -2 (ix)
    0000306C 77               [ 7] 7512 	ld	(hl), a
    0000306D 23               [ 6] 7513 	inc	hl
    0000306E DD 7E FF         [19] 7514 	ld	a, -1 (ix)
    00003071 77               [ 7] 7515 	ld	(hl), a
    00003072 DD 36 F2 00      [19] 7516 	ld	-14 (ix), #0x00
    00003076 DD 6E E2         [19] 7517 	ld	l, -30 (ix)
    00003079 DD 66 E3         [19] 7518 	ld	h, -29 (ix)
    0000307C 36 01            [10] 7519 	ld	(hl), #0x01
    0000307E                       7520 00291$:
                                   7521 ;E:\Dropbox\FAUSTO\SVILUPPI\MSX\CODE\C\MSXgl\projects\exsoccer/exsoccer_s22_b2.c:1070: if (g_Players[kickerId].X > g_Players[kickerId].TargetX) { g_Players[kickerId].X--; kDone=false; g_Players[kickerId].Direction=DIRECTION_LEFT; }
    0000307E DD 6E DE         [19] 7522 	ld	l, -34 (ix)
    00003081 DD 66 DF         [19] 7523 	ld	h, -33 (ix)
    00003084 7E               [ 7] 7524 	ld	a, (hl)
    00003085 DD 77 F5         [19] 7525 	ld	-11 (ix), a
    00003088 23               [ 6] 7526 	inc	hl
    00003089 7E               [ 7] 7527 	ld	a, (hl)
    0000308A DD 77 F6         [19] 7528 	ld	-10 (ix), a
    0000308D DD 6E D0         [19] 7529 	ld	l, -48 (ix)
    00003090 DD 66 D1         [19] 7530 	ld	h, -47 (ix)
    00003093 7E               [ 7] 7531 	ld	a, (hl)
    00003094 DD 77 FE         [19] 7532 	ld	-2 (ix), a
    00003097 23               [ 6] 7533 	inc	hl
    00003098 7E               [ 7] 7534 	ld	a, (hl)
    00003099 DD 77 FF         [19] 7535 	ld	-1 (ix), a
                                   7536 ;E:\Dropbox\FAUSTO\SVILUPPI\MSX\CODE\C\MSXgl\projects\exsoccer/exsoccer_s22_b2.c:1321: if (g_Players[kickerId].X < g_Players[kickerId].TargetX) { g_Players[kickerId].X++; kDone=false; if(g_Players[kickerId].Direction==DIRECTION_NONE) g_Players[kickerId].Direction=DIRECTION_RIGHT; }
    0000309C DD 7E F5         [19] 7537 	ld	a, -11 (ix)
    0000309F DD 96 FE         [19] 7538 	sub	a, -2 (ix)
    000030A2 DD 7E F6         [19] 7539 	ld	a, -10 (ix)
    000030A5 DD 9E FF         [19] 7540 	sbc	a, -1 (ix)
    000030A8 30 38            [12] 7541 	jr	NC, 00299$
    000030AA DD 7E F5         [19] 7542 	ld	a, -11 (ix)
    000030AD C6 01            [ 7] 7543 	add	a, #0x01
    000030AF DD 77 FE         [19] 7544 	ld	-2 (ix), a
    000030B2 DD 7E F6         [19] 7545 	ld	a, -10 (ix)
    000030B5 CE 00            [ 7] 7546 	adc	a, #0x00
    000030B7 DD 77 FF         [19] 7547 	ld	-1 (ix), a
    000030BA DD 6E DE         [19] 7548 	ld	l, -34 (ix)
    000030BD DD 66 DF         [19] 7549 	ld	h, -33 (ix)
    000030C0 DD 7E FE         [19] 7550 	ld	a, -2 (ix)
    000030C3 77               [ 7] 7551 	ld	(hl), a
    000030C4 23               [ 6] 7552 	inc	hl
    000030C5 DD 7E FF         [19] 7553 	ld	a, -1 (ix)
    000030C8 77               [ 7] 7554 	ld	(hl), a
    000030C9 DD 36 F2 00      [19] 7555 	ld	-14 (ix), #0x00
    000030CD DD 6E E2         [19] 7556 	ld	l, -30 (ix)
    000030D0 DD 66 E3         [19] 7557 	ld	h, -29 (ix)
    000030D3 7E               [ 7] 7558 	ld	a, (hl)
    000030D4 B7               [ 4] 7559 	or	a, a
    000030D5 20 4E            [12] 7560 	jr	NZ, 00300$
    000030D7 DD 6E E2         [19] 7561 	ld	l, -30 (ix)
    000030DA DD 66 E3         [19] 7562 	ld	h, -29 (ix)
    000030DD 36 03            [10] 7563 	ld	(hl), #0x03
    000030DF C3r25r31         [10] 7564 	jp	00300$
    000030E2                       7565 00299$:
                                   7566 ;E:\Dropbox\FAUSTO\SVILUPPI\MSX\CODE\C\MSXgl\projects\exsoccer/exsoccer_s22_b2.c:1322: else if (g_Players[kickerId].X > g_Players[kickerId].TargetX) { g_Players[kickerId].X--; kDone=false; if(g_Players[kickerId].Direction==DIRECTION_NONE) g_Players[kickerId].Direction=DIRECTION_LEFT; }
    000030E2 DD 7E FE         [19] 7567 	ld	a, -2 (ix)
    000030E5 DD 96 F5         [19] 7568 	sub	a, -11 (ix)
    000030E8 DD 7E FF         [19] 7569 	ld	a, -1 (ix)
    000030EB DD 9E F6         [19] 7570 	sbc	a, -10 (ix)
    000030EE 30 35            [12] 7571 	jr	NC, 00300$
    000030F0 DD 7E F5         [19] 7572 	ld	a, -11 (ix)
    000030F3 C6 FF            [ 7] 7573 	add	a, #0xff
    000030F5 DD 77 FE         [19] 7574 	ld	-2 (ix), a
    000030F8 DD 7E F6         [19] 7575 	ld	a, -10 (ix)
    000030FB CE FF            [ 7] 7576 	adc	a, #0xff
    000030FD DD 77 FF         [19] 7577 	ld	-1 (ix), a
    00003100 DD 6E DE         [19] 7578 	ld	l, -34 (ix)
    00003103 DD 66 DF         [19] 7579 	ld	h, -33 (ix)
    00003106 DD 7E FE         [19] 7580 	ld	a, -2 (ix)
    00003109 77               [ 7] 7581 	ld	(hl), a
    0000310A 23               [ 6] 7582 	inc	hl
    0000310B DD 7E FF         [19] 7583 	ld	a, -1 (ix)
    0000310E 77               [ 7] 7584 	ld	(hl), a
    0000310F DD 36 F2 00      [19] 7585 	ld	-14 (ix), #0x00
    00003113 DD 6E E2         [19] 7586 	ld	l, -30 (ix)
    00003116 DD 66 E3         [19] 7587 	ld	h, -29 (ix)
    00003119 7E               [ 7] 7588 	ld	a, (hl)
    0000311A B7               [ 4] 7589 	or	a, a
    0000311B 20 08            [12] 7590 	jr	NZ, 00300$
    0000311D DD 6E E2         [19] 7591 	ld	l, -30 (ix)
    00003120 DD 66 E3         [19] 7592 	ld	h, -29 (ix)
    00003123 36 07            [10] 7593 	ld	(hl), #0x07
    00003125                       7594 00300$:
                                   7595 ;E:\Dropbox\FAUSTO\SVILUPPI\MSX\CODE\C\MSXgl\projects\exsoccer/exsoccer_s22_b2.c:1075: if (g_Players[gkId].Y > g_Players[gkId].TargetY) { g_Players[gkId].Y--; gDone=false; g_Players[gkId].Direction=DIRECTION_UP; }
    00003125 DD 6E D4         [19] 7596 	ld	l, -44 (ix)
    00003128 DD 66 D5         [19] 7597 	ld	h, -43 (ix)
    0000312B 7E               [ 7] 7598 	ld	a, (hl)
    0000312C DD 77 F5         [19] 7599 	ld	-11 (ix), a
    0000312F 23               [ 6] 7600 	inc	hl
    00003130 7E               [ 7] 7601 	ld	a, (hl)
    00003131 DD 77 F6         [19] 7602 	ld	-10 (ix), a
    00003134 DD 6E D8         [19] 7603 	ld	l, -40 (ix)
    00003137 DD 66 D9         [19] 7604 	ld	h, -39 (ix)
    0000313A 7E               [ 7] 7605 	ld	a, (hl)
    0000313B DD 77 FE         [19] 7606 	ld	-2 (ix), a
    0000313E 23               [ 6] 7607 	inc	hl
    0000313F 7E               [ 7] 7608 	ld	a, (hl)
    00003140 DD 77 FF         [19] 7609 	ld	-1 (ix), a
                                   7610 ;E:\Dropbox\FAUSTO\SVILUPPI\MSX\CODE\C\MSXgl\projects\exsoccer/exsoccer_s22_b2.c:1325: if (g_Players[gkId].Y < g_Players[gkId].TargetY) { g_Players[gkId].Y++; gDone=false; g_Players[gkId].Direction=DIRECTION_DOWN; }
    00003143 DD 7E F5         [19] 7611 	ld	a, -11 (ix)
    00003146 DD 96 FE         [19] 7612 	sub	a, -2 (ix)
    00003149 DD 7E F6         [19] 7613 	ld	a, -10 (ix)
    0000314C DD 9E FF         [19] 7614 	sbc	a, -1 (ix)
    0000314F 30 2E            [12] 7615 	jr	NC, 00304$
    00003151 DD 7E F5         [19] 7616 	ld	a, -11 (ix)
    00003154 C6 01            [ 7] 7617 	add	a, #0x01
    00003156 DD 77 FE         [19] 7618 	ld	-2 (ix), a
    00003159 DD 7E F6         [19] 7619 	ld	a, -10 (ix)
    0000315C CE 00            [ 7] 7620 	adc	a, #0x00
    0000315E DD 77 FF         [19] 7621 	ld	-1 (ix), a
    00003161 DD 6E D4         [19] 7622 	ld	l, -44 (ix)
    00003164 DD 66 D5         [19] 7623 	ld	h, -43 (ix)
    00003167 DD 7E FE         [19] 7624 	ld	a, -2 (ix)
    0000316A 77               [ 7] 7625 	ld	(hl), a
    0000316B 23               [ 6] 7626 	inc	hl
    0000316C DD 7E FF         [19] 7627 	ld	a, -1 (ix)
    0000316F 77               [ 7] 7628 	ld	(hl), a
    00003170 DD 36 F3 00      [19] 7629 	ld	-13 (ix), #0x00
    00003174 DD 6E E6         [19] 7630 	ld	l, -26 (ix)
    00003177 DD 66 E7         [19] 7631 	ld	h, -25 (ix)
    0000317A 36 05            [10] 7632 	ld	(hl), #0x05
    0000317C C3rB8r31         [10] 7633 	jp	00305$
    0000317F                       7634 00304$:
                                   7635 ;E:\Dropbox\FAUSTO\SVILUPPI\MSX\CODE\C\MSXgl\projects\exsoccer/exsoccer_s22_b2.c:1326: else if (g_Players[gkId].Y > g_Players[gkId].TargetY) { g_Players[gkId].Y--; gDone=false; g_Players[gkId].Direction=DIRECTION_UP; }
    0000317F DD 7E FE         [19] 7636 	ld	a, -2 (ix)
    00003182 DD 96 F5         [19] 7637 	sub	a, -11 (ix)
    00003185 DD 7E FF         [19] 7638 	ld	a, -1 (ix)
    00003188 DD 9E F6         [19] 7639 	sbc	a, -10 (ix)
    0000318B 30 2B            [12] 7640 	jr	NC, 00305$
    0000318D DD 7E F5         [19] 7641 	ld	a, -11 (ix)
    00003190 C6 FF            [ 7] 7642 	add	a, #0xff
    00003192 DD 77 FE         [19] 7643 	ld	-2 (ix), a
    00003195 DD 7E F6         [19] 7644 	ld	a, -10 (ix)
    00003198 CE FF            [ 7] 7645 	adc	a, #0xff
    0000319A DD 77 FF         [19] 7646 	ld	-1 (ix), a
    0000319D DD 6E D4         [19] 7647 	ld	l, -44 (ix)
    000031A0 DD 66 D5         [19] 7648 	ld	h, -43 (ix)
    000031A3 DD 7E FE         [19] 7649 	ld	a, -2 (ix)
    000031A6 77               [ 7] 7650 	ld	(hl), a
    000031A7 23               [ 6] 7651 	inc	hl
    000031A8 DD 7E FF         [19] 7652 	ld	a, -1 (ix)
    000031AB 77               [ 7] 7653 	ld	(hl), a
    000031AC DD 36 F3 00      [19] 7654 	ld	-13 (ix), #0x00
    000031B0 DD 6E E6         [19] 7655 	ld	l, -26 (ix)
    000031B3 DD 66 E7         [19] 7656 	ld	h, -25 (ix)
    000031B6 36 01            [10] 7657 	ld	(hl), #0x01
    000031B8                       7658 00305$:
                                   7659 ;E:\Dropbox\FAUSTO\SVILUPPI\MSX\CODE\C\MSXgl\projects\exsoccer/exsoccer_s22_b2.c:1078: if (g_Players[gkId].X > g_Players[gkId].TargetX) { g_Players[gkId].X--; gDone=false; g_Players[gkId].Direction=DIRECTION_LEFT; }
    000031B8 DD 6E E0         [19] 7660 	ld	l, -32 (ix)
    000031BB DD 66 E1         [19] 7661 	ld	h, -31 (ix)
    000031BE 7E               [ 7] 7662 	ld	a, (hl)
    000031BF DD 77 F5         [19] 7663 	ld	-11 (ix), a
    000031C2 23               [ 6] 7664 	inc	hl
    000031C3 7E               [ 7] 7665 	ld	a, (hl)
    000031C4 DD 77 F6         [19] 7666 	ld	-10 (ix), a
    000031C7 DD 6E D6         [19] 7667 	ld	l, -42 (ix)
    000031CA DD 66 D7         [19] 7668 	ld	h, -41 (ix)
    000031CD 7E               [ 7] 7669 	ld	a, (hl)
    000031CE DD 77 FE         [19] 7670 	ld	-2 (ix), a
    000031D1 23               [ 6] 7671 	inc	hl
    000031D2 7E               [ 7] 7672 	ld	a, (hl)
    000031D3 DD 77 FF         [19] 7673 	ld	-1 (ix), a
                                   7674 ;E:\Dropbox\FAUSTO\SVILUPPI\MSX\CODE\C\MSXgl\projects\exsoccer/exsoccer_s22_b2.c:1328: if (g_Players[gkId].X < g_Players[gkId].TargetX) { g_Players[gkId].X++; gDone=false; if(g_Players[gkId].Direction==DIRECTION_NONE) g_Players[gkId].Direction=DIRECTION_RIGHT; }
    000031D6 DD 7E F5         [19] 7675 	ld	a, -11 (ix)
    000031D9 DD 96 FE         [19] 7676 	sub	a, -2 (ix)
    000031DC DD 7E F6         [19] 7677 	ld	a, -10 (ix)
    000031DF DD 9E FF         [19] 7678 	sbc	a, -1 (ix)
    000031E2 30 38            [12] 7679 	jr	NC, 00313$
    000031E4 DD 7E F5         [19] 7680 	ld	a, -11 (ix)
    000031E7 C6 01            [ 7] 7681 	add	a, #0x01
    000031E9 DD 77 FE         [19] 7682 	ld	-2 (ix), a
    000031EC DD 7E F6         [19] 7683 	ld	a, -10 (ix)
    000031EF CE 00            [ 7] 7684 	adc	a, #0x00
    000031F1 DD 77 FF         [19] 7685 	ld	-1 (ix), a
    000031F4 DD 6E E0         [19] 7686 	ld	l, -32 (ix)
    000031F7 DD 66 E1         [19] 7687 	ld	h, -31 (ix)
    000031FA DD 7E FE         [19] 7688 	ld	a, -2 (ix)
    000031FD 77               [ 7] 7689 	ld	(hl), a
    000031FE 23               [ 6] 7690 	inc	hl
    000031FF DD 7E FF         [19] 7691 	ld	a, -1 (ix)
    00003202 77               [ 7] 7692 	ld	(hl), a
    00003203 DD 36 F3 00      [19] 7693 	ld	-13 (ix), #0x00
    00003207 DD 6E E6         [19] 7694 	ld	l, -26 (ix)
    0000320A DD 66 E7         [19] 7695 	ld	h, -25 (ix)
    0000320D 7E               [ 7] 7696 	ld	a, (hl)
    0000320E B7               [ 4] 7697 	or	a, a
    0000320F 20 4E            [12] 7698 	jr	NZ, 00314$
    00003211 DD 6E E6         [19] 7699 	ld	l, -26 (ix)
    00003214 DD 66 E7         [19] 7700 	ld	h, -25 (ix)
    00003217 36 03            [10] 7701 	ld	(hl), #0x03
    00003219 C3r5Fr32         [10] 7702 	jp	00314$
    0000321C                       7703 00313$:
                                   7704 ;E:\Dropbox\FAUSTO\SVILUPPI\MSX\CODE\C\MSXgl\projects\exsoccer/exsoccer_s22_b2.c:1329: else if (g_Players[gkId].X > g_Players[gkId].TargetX) { g_Players[gkId].X--; gDone=false; if(g_Players[gkId].Direction==DIRECTION_NONE) g_Players[gkId].Direction=DIRECTION_LEFT; }
    0000321C DD 7E FE         [19] 7705 	ld	a, -2 (ix)
    0000321F DD 96 F5         [19] 7706 	sub	a, -11 (ix)
    00003222 DD 7E FF         [19] 7707 	ld	a, -1 (ix)
    00003225 DD 9E F6         [19] 7708 	sbc	a, -10 (ix)
    00003228 30 35            [12] 7709 	jr	NC, 00314$
    0000322A DD 7E F5         [19] 7710 	ld	a, -11 (ix)
    0000322D C6 FF            [ 7] 7711 	add	a, #0xff
    0000322F DD 77 FE         [19] 7712 	ld	-2 (ix), a
    00003232 DD 7E F6         [19] 7713 	ld	a, -10 (ix)
    00003235 CE FF            [ 7] 7714 	adc	a, #0xff
    00003237 DD 77 FF         [19] 7715 	ld	-1 (ix), a
    0000323A DD 6E E0         [19] 7716 	ld	l, -32 (ix)
    0000323D DD 66 E1         [19] 7717 	ld	h, -31 (ix)
    00003240 DD 7E FE         [19] 7718 	ld	a, -2 (ix)
    00003243 77               [ 7] 7719 	ld	(hl), a
    00003244 23               [ 6] 7720 	inc	hl
    00003245 DD 7E FF         [19] 7721 	ld	a, -1 (ix)
    00003248 77               [ 7] 7722 	ld	(hl), a
    00003249 DD 36 F3 00      [19] 7723 	ld	-13 (ix), #0x00
    0000324D DD 6E E6         [19] 7724 	ld	l, -26 (ix)
    00003250 DD 66 E7         [19] 7725 	ld	h, -25 (ix)
    00003253 7E               [ 7] 7726 	ld	a, (hl)
    00003254 B7               [ 4] 7727 	or	a, a
    00003255 20 08            [12] 7728 	jr	NZ, 00314$
    00003257 DD 6E E6         [19] 7729 	ld	l, -26 (ix)
    0000325A DD 66 E7         [19] 7730 	ld	h, -25 (ix)
    0000325D 36 07            [10] 7731 	ld	(hl), #0x07
    0000325F                       7732 00314$:
                                   7733 ;E:\Dropbox\FAUSTO\SVILUPPI\MSX\CODE\C\MSXgl\projects\exsoccer/exsoccer_s22_b2.c:1083: if (g_Players[REFEREE].Y > g_Players[REFEREE].TargetY) { g_Players[REFEREE].Y--; rDone=false; g_Players[REFEREE].Direction=DIRECTION_UP; }
    0000325F 21r26r01         [10] 7734 	ld	hl, #(_g_Players + 294)
    00003262 7E               [ 7] 7735 	ld	a, (hl)
    00003263 DD 77 F5         [19] 7736 	ld	-11 (ix), a
    00003266 23               [ 6] 7737 	inc	hl
    00003267 7E               [ 7] 7738 	ld	a, (hl)
    00003268 DD 77 F6         [19] 7739 	ld	-10 (ix), a
    0000326B 21r34r01         [10] 7740 	ld	hl, #(_g_Players + 308)
    0000326E 7E               [ 7] 7741 	ld	a, (hl)
    0000326F DD 77 FE         [19] 7742 	ld	-2 (ix), a
    00003272 23               [ 6] 7743 	inc	hl
    00003273 7E               [ 7] 7744 	ld	a, (hl)
    00003274 DD 77 FF         [19] 7745 	ld	-1 (ix), a
                                   7746 ;E:\Dropbox\FAUSTO\SVILUPPI\MSX\CODE\C\MSXgl\projects\exsoccer/exsoccer_s22_b2.c:1332: if (g_Players[REFEREE].Y < g_Players[REFEREE].TargetY) { g_Players[REFEREE].Y++; rDone=false; g_Players[REFEREE].Direction=DIRECTION_DOWN; }
    00003277 DD 7E F5         [19] 7747 	ld	a, -11 (ix)
    0000327A DD 96 FE         [19] 7748 	sub	a, -2 (ix)
    0000327D DD 7E F6         [19] 7749 	ld	a, -10 (ix)
    00003280 DD 9E FF         [19] 7750 	sbc	a, -1 (ix)
    00003283 30 28            [12] 7751 	jr	NC, 00318$
    00003285 DD 7E F5         [19] 7752 	ld	a, -11 (ix)
    00003288 C6 01            [ 7] 7753 	add	a, #0x01
    0000328A DD 77 FE         [19] 7754 	ld	-2 (ix), a
    0000328D DD 7E F6         [19] 7755 	ld	a, -10 (ix)
    00003290 CE 00            [ 7] 7756 	adc	a, #0x00
    00003292 DD 77 FF         [19] 7757 	ld	-1 (ix), a
    00003295 21r26r01         [10] 7758 	ld	hl, #(_g_Players + 294)
    00003298 DD 7E FE         [19] 7759 	ld	a, -2 (ix)
    0000329B 77               [ 7] 7760 	ld	(hl), a
    0000329C 23               [ 6] 7761 	inc	hl
    0000329D DD 7E FF         [19] 7762 	ld	a, -1 (ix)
    000032A0 77               [ 7] 7763 	ld	(hl), a
    000032A1 DD 36 F4 00      [19] 7764 	ld	-12 (ix), #0x00
    000032A5 21r30r01         [10] 7765 	ld	hl, #(_g_Players + 304)
    000032A8 36 05            [10] 7766 	ld	(hl), #0x05
    000032AA C3rE0r32         [10] 7767 	jp	00319$
    000032AD                       7768 00318$:
                                   7769 ;E:\Dropbox\FAUSTO\SVILUPPI\MSX\CODE\C\MSXgl\projects\exsoccer/exsoccer_s22_b2.c:1333: else if (g_Players[REFEREE].Y > g_Players[REFEREE].TargetY) { g_Players[REFEREE].Y--; rDone=false; g_Players[REFEREE].Direction=DIRECTION_UP; }
    000032AD DD 7E FE         [19] 7770 	ld	a, -2 (ix)
    000032B0 DD 96 F5         [19] 7771 	sub	a, -11 (ix)
    000032B3 DD 7E FF         [19] 7772 	ld	a, -1 (ix)
    000032B6 DD 9E F6         [19] 7773 	sbc	a, -10 (ix)
    000032B9 30 25            [12] 7774 	jr	NC, 00319$
    000032BB DD 7E F5         [19] 7775 	ld	a, -11 (ix)
    000032BE C6 FF            [ 7] 7776 	add	a, #0xff
    000032C0 DD 77 FE         [19] 7777 	ld	-2 (ix), a
    000032C3 DD 7E F6         [19] 7778 	ld	a, -10 (ix)
    000032C6 CE FF            [ 7] 7779 	adc	a, #0xff
    000032C8 DD 77 FF         [19] 7780 	ld	-1 (ix), a
    000032CB 21r26r01         [10] 7781 	ld	hl, #(_g_Players + 294)
    000032CE DD 7E FE         [19] 7782 	ld	a, -2 (ix)
    000032D1 77               [ 7] 7783 	ld	(hl), a
    000032D2 23               [ 6] 7784 	inc	hl
    000032D3 DD 7E FF         [19] 7785 	ld	a, -1 (ix)
    000032D6 77               [ 7] 7786 	ld	(hl), a
    000032D7 DD 36 F4 00      [19] 7787 	ld	-12 (ix), #0x00
    000032DB 21r30r01         [10] 7788 	ld	hl, #(_g_Players + 304)
    000032DE 36 01            [10] 7789 	ld	(hl), #0x01
    000032E0                       7790 00319$:
                                   7791 ;E:\Dropbox\FAUSTO\SVILUPPI\MSX\CODE\C\MSXgl\projects\exsoccer/exsoccer_s22_b2.c:1086: if (g_Players[REFEREE].X > g_Players[REFEREE].TargetX) { g_Players[REFEREE].X--; rDone=false; g_Players[REFEREE].Direction=DIRECTION_LEFT; }
    000032E0 21r28r01         [10] 7792 	ld	hl, #(_g_Players + 296)
    000032E3 7E               [ 7] 7793 	ld	a, (hl)
    000032E4 DD 77 F5         [19] 7794 	ld	-11 (ix), a
    000032E7 23               [ 6] 7795 	inc	hl
    000032E8 7E               [ 7] 7796 	ld	a, (hl)
    000032E9 DD 77 F6         [19] 7797 	ld	-10 (ix), a
    000032EC 21r36r01         [10] 7798 	ld	hl, #(_g_Players + 310)
    000032EF 7E               [ 7] 7799 	ld	a, (hl)
    000032F0 DD 77 FE         [19] 7800 	ld	-2 (ix), a
    000032F3 23               [ 6] 7801 	inc	hl
    000032F4 7E               [ 7] 7802 	ld	a, (hl)
    000032F5 DD 77 FF         [19] 7803 	ld	-1 (ix), a
                                   7804 ;E:\Dropbox\FAUSTO\SVILUPPI\MSX\CODE\C\MSXgl\projects\exsoccer/exsoccer_s22_b2.c:1335: if (g_Players[REFEREE].X < g_Players[REFEREE].TargetX) { g_Players[REFEREE].X++; rDone=false; g_Players[REFEREE].Direction=DIRECTION_RIGHT; }
    000032F8 DD 7E F5         [19] 7805 	ld	a, -11 (ix)
    000032FB DD 96 FE         [19] 7806 	sub	a, -2 (ix)
    000032FE DD 7E F6         [19] 7807 	ld	a, -10 (ix)
    00003301 DD 9E FF         [19] 7808 	sbc	a, -1 (ix)
    00003304 30 28            [12] 7809 	jr	NC, 00323$
    00003306 DD 7E F5         [19] 7810 	ld	a, -11 (ix)
    00003309 C6 01            [ 7] 7811 	add	a, #0x01
    0000330B DD 77 FE         [19] 7812 	ld	-2 (ix), a
    0000330E DD 7E F6         [19] 7813 	ld	a, -10 (ix)
    00003311 CE 00            [ 7] 7814 	adc	a, #0x00
    00003313 DD 77 FF         [19] 7815 	ld	-1 (ix), a
    00003316 21r28r01         [10] 7816 	ld	hl, #(_g_Players + 296)
    00003319 DD 7E FE         [19] 7817 	ld	a, -2 (ix)
    0000331C 77               [ 7] 7818 	ld	(hl), a
    0000331D 23               [ 6] 7819 	inc	hl
    0000331E DD 7E FF         [19] 7820 	ld	a, -1 (ix)
    00003321 77               [ 7] 7821 	ld	(hl), a
    00003322 DD 36 F4 00      [19] 7822 	ld	-12 (ix), #0x00
    00003326 21r30r01         [10] 7823 	ld	hl, #(_g_Players + 304)
    00003329 36 03            [10] 7824 	ld	(hl), #0x03
    0000332B C3r61r33         [10] 7825 	jp	00324$
    0000332E                       7826 00323$:
                                   7827 ;E:\Dropbox\FAUSTO\SVILUPPI\MSX\CODE\C\MSXgl\projects\exsoccer/exsoccer_s22_b2.c:1336: else if (g_Players[REFEREE].X > g_Players[REFEREE].TargetX) { g_Players[REFEREE].X--; rDone=false; g_Players[REFEREE].Direction=DIRECTION_LEFT; }
    0000332E DD 7E FE         [19] 7828 	ld	a, -2 (ix)
    00003331 DD 96 F5         [19] 7829 	sub	a, -11 (ix)
    00003334 DD 7E FF         [19] 7830 	ld	a, -1 (ix)
    00003337 DD 9E F6         [19] 7831 	sbc	a, -10 (ix)
    0000333A 30 25            [12] 7832 	jr	NC, 00324$
    0000333C DD 7E F5         [19] 7833 	ld	a, -11 (ix)
    0000333F C6 FF            [ 7] 7834 	add	a, #0xff
    00003341 DD 77 FE         [19] 7835 	ld	-2 (ix), a
    00003344 DD 7E F6         [19] 7836 	ld	a, -10 (ix)
    00003347 CE FF            [ 7] 7837 	adc	a, #0xff
    00003349 DD 77 FF         [19] 7838 	ld	-1 (ix), a
    0000334C 21r28r01         [10] 7839 	ld	hl, #(_g_Players + 296)
    0000334F DD 7E FE         [19] 7840 	ld	a, -2 (ix)
    00003352 77               [ 7] 7841 	ld	(hl), a
    00003353 23               [ 6] 7842 	inc	hl
    00003354 DD 7E FF         [19] 7843 	ld	a, -1 (ix)
    00003357 77               [ 7] 7844 	ld	(hl), a
    00003358 DD 36 F4 00      [19] 7845 	ld	-12 (ix), #0x00
    0000335C 21r30r01         [10] 7846 	ld	hl, #(_g_Players + 304)
    0000335F 36 07            [10] 7847 	ld	(hl), #0x07
    00003361                       7848 00324$:
                                   7849 ;E:\Dropbox\FAUSTO\SVILUPPI\MSX\CODE\C\MSXgl\projects\exsoccer/exsoccer_s22_b2.c:1090: u16 animStatus = ((g_FrameCounter % 8) == 0) ? PLAYER_STATUS_NONE : PLAYER_STATUS_POSITIONED;
    00003361 2Ar00r00         [16] 7850 	ld	hl, (_g_FrameCounter)
    00003364 DD 75 F5         [19] 7851 	ld	-11 (ix), l
    00003367 DD 74 F6         [19] 7852 	ld	-10 (ix), h
                                   7853 ;E:\Dropbox\FAUSTO\SVILUPPI\MSX\CODE\C\MSXgl\projects\exsoccer/exsoccer_s22_b2.c:1339: u16 animStatus = ((g_FrameCounter % 8) == 0) ? PLAYER_STATUS_NONE : PLAYER_STATUS_POSITIONED;
    0000336A DD 7E F5         [19] 7854 	ld	a, -11 (ix)
    0000336D E6 07            [ 7] 7855 	and	a,#0x07
    0000336F 20 09            [12] 7856 	jr	NZ, 00397$
    00003371 DD 77 FE         [19] 7857 	ld	-2 (ix), a
    00003374 DD 77 FF         [19] 7858 	ld	-1 (ix), a
    00003377 C3r82r33         [10] 7859 	jp	00398$
    0000337A                       7860 00397$:
    0000337A DD 36 FE 04      [19] 7861 	ld	-2 (ix), #0x04
    0000337E DD 36 FF 00      [19] 7862 	ld	-1 (ix), #0
    00003382                       7863 00398$:
    00003382 DD 4E FE         [19] 7864 	ld	c, -2 (ix)
    00003385 DD 46 FF         [19] 7865 	ld	b, -1 (ix)
                                   7866 ;E:\Dropbox\FAUSTO\SVILUPPI\MSX\CODE\C\MSXgl\projects\exsoccer/exsoccer_s22_b2.c:1342: if (goal) {
    00003388 DD 7E EC         [19] 7867 	ld	a, -20 (ix)
    0000338B B7               [ 4] 7868 	or	a, a
    0000338C 28 44            [12] 7869 	jr	Z, 00326$
                                   7870 ;E:\Dropbox\FAUSTO\SVILUPPI\MSX\CODE\C\MSXgl\projects\exsoccer/exsoccer_s22_b2.c:1344: u8 anim = (g_FrameCounter / 8) % 2;
    0000338E DD 5E F5         [19] 7871 	ld	e, -11 (ix)
    00003391 DD 56 F6         [19] 7872 	ld	d, -10 (ix)
    00003394 CB 3A            [ 8] 7873 	srl	d
    00003396 CB 1B            [ 8] 7874 	rr	e
    00003398 CB 3A            [ 8] 7875 	srl	d
    0000339A CB 1B            [ 8] 7876 	rr	e
    0000339C CB 3A            [ 8] 7877 	srl	d
    0000339E CB 1B            [ 8] 7878 	rr	e
    000033A0 7B               [ 4] 7879 	ld	a, e
    000033A1 E6 01            [ 7] 7880 	and	a, #0x01
                                   7881 ;E:\Dropbox\FAUSTO\SVILUPPI\MSX\CODE\C\MSXgl\projects\exsoccer/exsoccer_s22_b2.c:1345: g_Players[kickerId].PatternId = (anim == 0) ? PLAYER_POSE_CELEBRATION_FRONT_1 : PLAYER_POSE_CELEBRATION_FRONT_2;
    000033A3 F5               [11] 7882 	push	af
    000033A4 DD 7E E4         [19] 7883 	ld	a, -28 (ix)
    000033A7 DD 77 FE         [19] 7884 	ld	-2 (ix), a
    000033AA DD 7E E5         [19] 7885 	ld	a, -27 (ix)
    000033AD DD 77 FF         [19] 7886 	ld	-1 (ix), a
    000033B0 F1               [10] 7887 	pop	af
    000033B1 B7               [ 4] 7888 	or	a, a
    000033B2 20 06            [12] 7889 	jr	NZ, 00399$
    000033B4 11 30 00         [10] 7890 	ld	de, #0x0030
    000033B7 C3rBDr33         [10] 7891 	jp	00400$
    000033BA                       7892 00399$:
    000033BA 11 31 00         [10] 7893 	ld	de, #0x0031
    000033BD                       7894 00400$:
    000033BD DD 6E FE         [19] 7895 	ld	l, -2 (ix)
    000033C0 DD 66 FF         [19] 7896 	ld	h, -1 (ix)
    000033C3 73               [ 7] 7897 	ld	(hl), e
                                   7898 ;E:\Dropbox\FAUSTO\SVILUPPI\MSX\CODE\C\MSXgl\projects\exsoccer/exsoccer_s22_b2.c:1346: g_Players[kickerId].Status = PLAYER_STATUS_POSITIONED; // Lock pattern
    000033C4 DD 6E DA         [19] 7899 	ld	l, -38 (ix)
    000033C7 DD 66 DB         [19] 7900 	ld	h, -37 (ix)
    000033CA 36 04            [10] 7901 	ld	(hl), #0x04
    000033CC 23               [ 6] 7902 	inc	hl
    000033CD 36 00            [10] 7903 	ld	(hl), #0x00
    000033CF C3rDBr33         [10] 7904 	jp	00327$
    000033D2                       7905 00326$:
                                   7906 ;E:\Dropbox\FAUSTO\SVILUPPI\MSX\CODE\C\MSXgl\projects\exsoccer/exsoccer_s22_b2.c:1348: g_Players[kickerId].Status = animStatus;
    000033D2 DD 6E DA         [19] 7907 	ld	l, -38 (ix)
    000033D5 DD 66 DB         [19] 7908 	ld	h, -37 (ix)
    000033D8 71               [ 7] 7909 	ld	(hl), c
    000033D9 23               [ 6] 7910 	inc	hl
    000033DA 70               [ 7] 7911 	ld	(hl), b
    000033DB                       7912 00327$:
                                   7913 ;E:\Dropbox\FAUSTO\SVILUPPI\MSX\CODE\C\MSXgl\projects\exsoccer/exsoccer_s22_b2.c:1351: g_Players[gkId].Status = animStatus;
    000033DB DD 6E DC         [19] 7914 	ld	l, -36 (ix)
    000033DE DD 66 DD         [19] 7915 	ld	h, -35 (ix)
    000033E1 71               [ 7] 7916 	ld	(hl), c
    000033E2 23               [ 6] 7917 	inc	hl
    000033E3 70               [ 7] 7918 	ld	(hl), b
                                   7919 ;E:\Dropbox\FAUSTO\SVILUPPI\MSX\CODE\C\MSXgl\projects\exsoccer/exsoccer_s22_b2.c:1352: g_Players[REFEREE].Status = animStatus;
    000033E4 ED 43r38r01      [20] 7920 	ld	((_g_Players + 312)), bc
                                   7921 ;E:\Dropbox\FAUSTO\SVILUPPI\MSX\CODE\C\MSXgl\projects\exsoccer/exsoccer_s22_b2.c:1355: if (g_FieldCurrentYPosition < 137) g_FieldCurrentYPosition++;
    000033E8 3Ar00r00         [13] 7922 	ld	a, (_g_FieldCurrentYPosition+0)
    000033EB D6 89            [ 7] 7923 	sub	a, #0x89
    000033ED 3Ar01r00         [13] 7924 	ld	a, (_g_FieldCurrentYPosition+1)
    000033F0 17               [ 4] 7925 	rla
    000033F1 3F               [ 4] 7926 	ccf
    000033F2 1F               [ 4] 7927 	rra
    000033F3 DE 80            [ 7] 7928 	sbc	a, #0x80
    000033F5 30 07            [12] 7929 	jr	NC, 00329$
    000033F7 2Ar00r00         [16] 7930 	ld	hl, (_g_FieldCurrentYPosition)
    000033FA 23               [ 6] 7931 	inc	hl
    000033FB 22r00r00         [16] 7932 	ld	(_g_FieldCurrentYPosition), hl
    000033FE                       7933 00329$:
                                   7934 ;E:\Dropbox\FAUSTO\SVILUPPI\MSX\CODE\C\MSXgl\projects\exsoccer/exsoccer_s22_b2.c:1357: V9_SetScrollingBY((u16)g_FieldCurrentYPosition);
    000033FE 2Ar00r00         [16] 7935 	ld	hl, (_g_FieldCurrentYPosition)
    00003401 CDr00r00         [17] 7936 	call	_V9_SetScrollingBY
                                   7937 ;E:\Dropbox\FAUSTO\SVILUPPI\MSX\CODE\C\MSXgl\projects\exsoccer/exsoccer_s22_b2.c:1358: UpdateSpritesPositions();
    00003404 CDr00r00         [17] 7938 	call	_UpdateSpritesPositions
                                   7939 ;E:\Dropbox\FAUSTO\SVILUPPI\MSX\CODE\C\MSXgl\projects\exsoccer/exsoccer_s22_b2.c:1360: if (kDone && gDone && rDone && g_FieldCurrentYPosition >= 137) break;
    00003407 DD 7E F2         [19] 7940 	ld	a, -14 (ix)
    0000340A B7               [ 4] 7941 	or	a, a
    0000340B CArDCr2F         [10] 7942 	jp	Z, 00336$
    0000340E DD 7E F3         [19] 7943 	ld	a, -13 (ix)
    00003411 B7               [ 4] 7944 	or	a, a
    00003412 CArDCr2F         [10] 7945 	jp	Z, 00336$
    00003415 DD 7E F4         [19] 7946 	ld	a, -12 (ix)
    00003418 B7               [ 4] 7947 	or	a, a
    00003419 CArDCr2F         [10] 7948 	jp	Z, 00336$
    0000341C 3Ar00r00         [13] 7949 	ld	a, (_g_FieldCurrentYPosition+0)
    0000341F D6 89            [ 7] 7950 	sub	a, #0x89
    00003421 3Ar01r00         [13] 7951 	ld	a, (_g_FieldCurrentYPosition+1)
    00003424 17               [ 4] 7952 	rla
    00003425 3F               [ 4] 7953 	ccf
    00003426 1F               [ 4] 7954 	rra
    00003427 DE 80            [ 7] 7955 	sbc	a, #0x80
    00003429 DArDCr2F         [10] 7956 	jp	C, 00336$
                                   7957 ;E:\Dropbox\FAUSTO\SVILUPPI\MSX\CODE\C\MSXgl\projects\exsoccer/exsoccer_s22_b2.c:1364: for(u8 i=0; i<15; i++) {
    0000342C DD 36 FF 00      [19] 7958 	ld	-1 (ix), #0x00
    00003430                       7959 00368$:
    00003430 DD 7E FF         [19] 7960 	ld	a, -1 (ix)
    00003433 D6 0F            [ 7] 7961 	sub	a, #0x0f
    00003435 D2rDAr34         [10] 7962 	jp	NC, 00341$
                                   7963 ;E:\Dropbox\FAUSTO\SVILUPPI\MSX\CODE\C\MSXgl\projects\exsoccer/exsoccer_s22_b2.c:1365: if (g_Players[i].Y < 243) {
    00003438 DD 4E FF         [19] 7964 	ld	c, -1 (ix)
    0000343B 06 00            [ 7] 7965 	ld	b, #0x00
    0000343D 69               [ 4] 7966 	ld	l, c
    0000343E 60               [ 4] 7967 	ld	h, b
    0000343F 29               [11] 7968 	add	hl, hl
    00003440 29               [11] 7969 	add	hl, hl
    00003441 09               [11] 7970 	add	hl, bc
    00003442 29               [11] 7971 	add	hl, hl
    00003443 29               [11] 7972 	add	hl, hl
    00003444 09               [11] 7973 	add	hl, bc
    00003445 DD 75 F5         [19] 7974 	ld	-11 (ix), l
    00003448 DD 74 F6         [19] 7975 	ld	-10 (ix), h
    0000344B DD 7E F5         [19] 7976 	ld	a, -11 (ix)
    0000344E C6r00            [ 7] 7977 	add	a, #<(_g_Players)
    00003450 DD 77 EF         [19] 7978 	ld	-17 (ix), a
    00003453 DD 7E F6         [19] 7979 	ld	a, -10 (ix)
    00003456 CEs00            [ 7] 7980 	adc	a, #>(_g_Players)
    00003458 DD 77 F0         [19] 7981 	ld	-16 (ix), a
    0000345B DD 6E EF         [19] 7982 	ld	l, -17 (ix)
    0000345E DD 66 F0         [19] 7983 	ld	h, -16 (ix)
    00003461 7E               [ 7] 7984 	ld	a, (hl)
    00003462 DD 77 F5         [19] 7985 	ld	-11 (ix), a
    00003465 23               [ 6] 7986 	inc	hl
    00003466 7E               [ 7] 7987 	ld	a, (hl)
    00003467 DD 77 F6         [19] 7988 	ld	-10 (ix), a
    0000346A DD 7E F5         [19] 7989 	ld	a, -11 (ix)
    0000346D DD 77 F1         [19] 7990 	ld	-15 (ix), a
    00003470 DD 7E F6         [19] 7991 	ld	a, -10 (ix)
    00003473 DD 77 F2         [19] 7992 	ld	-14 (ix), a
                                   7993 ;E:\Dropbox\FAUSTO\SVILUPPI\MSX\CODE\C\MSXgl\projects\exsoccer/exsoccer_s22_b2.c:1366: g_Players[i].Direction = DIRECTION_DOWN;
    00003476 DD 7E EF         [19] 7994 	ld	a, -17 (ix)
    00003479 C6 0A            [ 7] 7995 	add	a, #0x0a
    0000347B DD 77 F3         [19] 7996 	ld	-13 (ix), a
    0000347E DD 7E F0         [19] 7997 	ld	a, -16 (ix)
    00003481 CE 00            [ 7] 7998 	adc	a, #0x00
    00003483 DD 77 F4         [19] 7999 	ld	-12 (ix), a
                                   8000 ;E:\Dropbox\FAUSTO\SVILUPPI\MSX\CODE\C\MSXgl\projects\exsoccer/exsoccer_s22_b2.c:1367: g_Players[i].PatternId = PLAYER_POSE_FRONT;
    00003486 DD 7E EF         [19] 8001 	ld	a, -17 (ix)
    00003489 C6 08            [ 7] 8002 	add	a, #0x08
    0000348B DD 77 F5         [19] 8003 	ld	-11 (ix), a
    0000348E DD 7E F0         [19] 8004 	ld	a, -16 (ix)
    00003491 CE 00            [ 7] 8005 	adc	a, #0x00
    00003493 DD 77 F6         [19] 8006 	ld	-10 (ix), a
                                   8007 ;E:\Dropbox\FAUSTO\SVILUPPI\MSX\CODE\C\MSXgl\projects\exsoccer/exsoccer_s22_b2.c:1365: if (g_Players[i].Y < 243) {
    00003496 DD 7E F1         [19] 8008 	ld	a, -15 (ix)
    00003499 D6 F3            [ 7] 8009 	sub	a, #0xf3
    0000349B DD 7E F2         [19] 8010 	ld	a, -14 (ix)
    0000349E DE 00            [ 7] 8011 	sbc	a, #0x00
    000034A0 30 13            [12] 8012 	jr	NC, 00339$
                                   8013 ;E:\Dropbox\FAUSTO\SVILUPPI\MSX\CODE\C\MSXgl\projects\exsoccer/exsoccer_s22_b2.c:1366: g_Players[i].Direction = DIRECTION_DOWN;
    000034A2 DD 6E F3         [19] 8014 	ld	l, -13 (ix)
    000034A5 DD 66 F4         [19] 8015 	ld	h, -12 (ix)
    000034A8 36 05            [10] 8016 	ld	(hl), #0x05
                                   8017 ;E:\Dropbox\FAUSTO\SVILUPPI\MSX\CODE\C\MSXgl\projects\exsoccer/exsoccer_s22_b2.c:1367: g_Players[i].PatternId = PLAYER_POSE_FRONT;
    000034AA DD 6E F5         [19] 8018 	ld	l, -11 (ix)
    000034AD DD 66 F6         [19] 8019 	ld	h, -10 (ix)
    000034B0 36 10            [10] 8020 	ld	(hl), #0x10
    000034B2 C3rC5r34         [10] 8021 	jp	00340$
    000034B5                       8022 00339$:
                                   8023 ;E:\Dropbox\FAUSTO\SVILUPPI\MSX\CODE\C\MSXgl\projects\exsoccer/exsoccer_s22_b2.c:1369: g_Players[i].Direction = DIRECTION_UP;
    000034B5 DD 6E F3         [19] 8024 	ld	l, -13 (ix)
    000034B8 DD 66 F4         [19] 8025 	ld	h, -12 (ix)
    000034BB 36 01            [10] 8026 	ld	(hl), #0x01
                                   8027 ;E:\Dropbox\FAUSTO\SVILUPPI\MSX\CODE\C\MSXgl\projects\exsoccer/exsoccer_s22_b2.c:1370: g_Players[i].PatternId = PLAYER_POSE_BACK;
    000034BD DD 6E F5         [19] 8028 	ld	l, -11 (ix)
    000034C0 DD 66 F6         [19] 8029 	ld	h, -10 (ix)
    000034C3 36 11            [10] 8030 	ld	(hl), #0x11
    000034C5                       8031 00340$:
                                   8032 ;E:\Dropbox\FAUSTO\SVILUPPI\MSX\CODE\C\MSXgl\projects\exsoccer/exsoccer_s22_b2.c:1372: g_Players[i].Status = PLAYER_STATUS_POSITIONED;
    000034C5 DD 6E EF         [19] 8033 	ld	l, -17 (ix)
    000034C8 DD 66 F0         [19] 8034 	ld	h, -16 (ix)
    000034CB 11 12 00         [10] 8035 	ld	de, #0x0012
    000034CE 19               [11] 8036 	add	hl, de
    000034CF 36 04            [10] 8037 	ld	(hl), #0x04
    000034D1 23               [ 6] 8038 	inc	hl
    000034D2 36 00            [10] 8039 	ld	(hl), #0x00
                                   8040 ;E:\Dropbox\FAUSTO\SVILUPPI\MSX\CODE\C\MSXgl\projects\exsoccer/exsoccer_s22_b2.c:1364: for(u8 i=0; i<15; i++) {
    000034D4 DD 34 FF         [23] 8041 	inc	-1 (ix)
    000034D7 C3r30r34         [10] 8042 	jp	00368$
    000034DA                       8043 00341$:
                                   8044 ;E:\Dropbox\FAUSTO\SVILUPPI\MSX\CODE\C\MSXgl\projects\exsoccer/exsoccer_s22_b2.c:1374: UpdateSpritesPositions();
    000034DA CDr00r00         [17] 8045 	call	_UpdateSpritesPositions
                                   8046 ;E:\Dropbox\FAUSTO\SVILUPPI\MSX\CODE\C\MSXgl\projects\exsoccer/exsoccer_s22_b2.c:1376: turn++;
    000034DD DD 34 FD         [23] 8047 	inc	-3 (ix)
    000034E0 C3r74r22         [10] 8048 	jp	00343$
    000034E3                       8049 00370$:
                                   8050 ;E:\Dropbox\FAUSTO\SVILUPPI\MSX\CODE\C\MSXgl\projects\exsoccer/exsoccer_s22_b2.c:1378: }
    000034E3 DD F9            [10] 8051 	ld	sp, ix
    000034E5 DD E1            [14] 8052 	pop	ix
    000034E7 C9               [10] 8053 	ret
    000034E8                       8054 ___str_0:
    000034E8 50 45 4E 41 4C 54 59  8055 	.ascii "PENALTY SHOOTOUT"
             20 53 48 4F 4F 54 4F
             55 54
    000034F8 00                    8056 	.db 0x00
    000034F9                       8057 ___str_1:
    000034F9 47 4F 41 4C 21        8058 	.ascii "GOAL!"
    000034FE 00                    8059 	.db 0x00
    000034FF                       8060 ___str_2:
    000034FF 53 41 56 45 44 21     8061 	.ascii "SAVED!"
    00003505 00                    8062 	.db 0x00
    00003506                       8063 ___str_3:
    00003506 4D 49 53 53 21        8064 	.ascii "MISS!"
    0000350B 00                    8065 	.db 0x00
                                   8066 ;E:\Dropbox\FAUSTO\SVILUPPI\MSX\CODE\C\MSXgl\projects\exsoccer/exsoccer_s22_b2.c:1380: void TeamVictory(u8 teamId) {
                                   8067 ;	---------------------------------
                                   8068 ; Function TeamVictory
                                   8069 ; ---------------------------------
    0000350C                       8070 _TeamVictory::
    0000350C DD E5            [15] 8071 	push	ix
    0000350E DD 21 00 00      [14] 8072 	ld	ix,#0
    00003512 DD 39            [15] 8073 	add	ix,sp
    00003514 21 D8 FF         [10] 8074 	ld	hl, #-40
    00003517 39               [11] 8075 	add	hl, sp
    00003518 F9               [ 6] 8076 	ld	sp, hl
    00003519 DD 77 F9         [19] 8077 	ld	-7 (ix), a
                                   8078 ;E:\Dropbox\FAUSTO\SVILUPPI\MSX\CODE\C\MSXgl\projects\exsoccer/exsoccer_s22_b2.c:1381: g_MatchStatus = MATCH_VICTORY_LAP;
    0000351C 21r00r00         [10] 8079 	ld	hl, #_g_MatchStatus
    0000351F 36 10            [10] 8080 	ld	(hl), #0x10
                                   8081 ;E:\Dropbox\FAUSTO\SVILUPPI\MSX\CODE\C\MSXgl\projects\exsoccer/exsoccer_s22_b2.c:1382: g_FieldScrollingActionInProgress = NO_VALUE; // Disable ISR scrolling
    00003521 21r00r00         [10] 8082 	ld	hl, #_g_FieldScrollingActionInProgress
    00003524 36 FF            [10] 8083 	ld	(hl), #0xff
                                   8084 ;E:\Dropbox\FAUSTO\SVILUPPI\MSX\CODE\C\MSXgl\projects\exsoccer/exsoccer_s22_b2.c:1385: u16 targetX = g_Ball.X;
    00003526 21r02r00         [10] 8085 	ld	hl, #_g_Ball + 2
    00003529 7E               [ 7] 8086 	ld	a, (hl)
    0000352A DD 77 DC         [19] 8087 	ld	-36 (ix), a
    0000352D 23               [ 6] 8088 	inc	hl
    0000352E 7E               [ 7] 8089 	ld	a, (hl)
    0000352F DD 77 DD         [19] 8090 	ld	-35 (ix), a
                                   8091 ;E:\Dropbox\FAUSTO\SVILUPPI\MSX\CODE\C\MSXgl\projects\exsoccer/exsoccer_s22_b2.c:1386: u16 targetY = g_Ball.Y;
    00003532 21r00r00         [10] 8092 	ld	hl, #_g_Ball
    00003535 7E               [ 7] 8093 	ld	a, (hl)
    00003536 DD 77 DE         [19] 8094 	ld	-34 (ix), a
    00003539 23               [ 6] 8095 	inc	hl
    0000353A 7E               [ 7] 8096 	ld	a, (hl)
    0000353B DD 77 DF         [19] 8097 	ld	-33 (ix), a
                                   8098 ;E:\Dropbox\FAUSTO\SVILUPPI\MSX\CODE\C\MSXgl\projects\exsoccer/exsoccer_s22_b2.c:1389: g_Ball.Y = g_FieldCurrentYPosition + 240; 
    0000353E 2Ar00r00         [16] 8099 	ld	hl, (_g_FieldCurrentYPosition)
    00003541 11 F0 00         [10] 8100 	ld	de, #0x00f0
    00003544 19               [11] 8101 	add	hl, de
    00003545 EB               [ 4] 8102 	ex	de, hl
    00003546 ED 53r00r00      [20] 8103 	ld	(_g_Ball), de
                                   8104 ;E:\Dropbox\FAUSTO\SVILUPPI\MSX\CODE\C\MSXgl\projects\exsoccer/exsoccer_s22_b2.c:1392: if (targetY < g_FieldCurrentYPosition || targetY > g_FieldCurrentYPosition + 212) {
    0000354A DD 4E DE         [19] 8105 	ld	c, -34 (ix)
    0000354D DD 46 DF         [19] 8106 	ld	b, -33 (ix)
    00003550 2Ar00r00         [16] 8107 	ld	hl, (_g_FieldCurrentYPosition)
    00003553 79               [ 4] 8108 	ld	a, c
    00003554 95               [ 4] 8109 	sub	a, l
    00003555 78               [ 4] 8110 	ld	a, b
    00003556 9C               [ 4] 8111 	sbc	a, h
    00003557 38 0C            [12] 8112 	jr	C, 00101$
    00003559 2Ar00r00         [16] 8113 	ld	hl, (_g_FieldCurrentYPosition)
    0000355C 11 D4 00         [10] 8114 	ld	de, #0x00d4
    0000355F 19               [11] 8115 	add	hl, de
    00003560 AF               [ 4] 8116 	xor	a, a
    00003561 ED 42            [15] 8117 	sbc	hl, bc
    00003563 30 15            [12] 8118 	jr	NC, 00200$
    00003565                       8119 00101$:
                                   8120 ;E:\Dropbox\FAUSTO\SVILUPPI\MSX\CODE\C\MSXgl\projects\exsoccer/exsoccer_s22_b2.c:1393: targetY = g_FieldCurrentYPosition + 106;
    00003565 2Ar00r00         [16] 8121 	ld	hl, (_g_FieldCurrentYPosition)
    00003568 11 6A 00         [10] 8122 	ld	de, #0x006a
    0000356B 19               [11] 8123 	add	hl, de
    0000356C DD 75 DE         [19] 8124 	ld	-34 (ix), l
    0000356F DD 74 DF         [19] 8125 	ld	-33 (ix), h
                                   8126 ;E:\Dropbox\FAUSTO\SVILUPPI\MSX\CODE\C\MSXgl\projects\exsoccer/exsoccer_s22_b2.c:1394: targetX = 128;
    00003572 DD 36 DC 80      [19] 8127 	ld	-36 (ix), #0x80
    00003576 DD 36 DD 00      [19] 8128 	ld	-35 (ix), #0
                                   8129 ;E:\Dropbox\FAUSTO\SVILUPPI\MSX\CODE\C\MSXgl\projects\exsoccer/exsoccer_s22_b2.c:1398: for(u8 i=0; i<15; i++) {
    0000357A                       8130 00200$:
    0000357A 11r00r00         [10] 8131 	ld	de, #_g_Players+0
    0000357D 0E 00            [ 7] 8132 	ld	c, #0x00
    0000357F                       8133 00178$:
    0000357F 79               [ 4] 8134 	ld	a, c
    00003580 D6 0F            [ 7] 8135 	sub	a, #0x0f
    00003582 30 19            [12] 8136 	jr	NC, 00104$
                                   8137 ;E:\Dropbox\FAUSTO\SVILUPPI\MSX\CODE\C\MSXgl\projects\exsoccer/exsoccer_s22_b2.c:1400: g_Players[i].Status = PLAYER_STATUS_NONE; // Active for movement
    00003584 06 00            [ 7] 8138 	ld	b, #0x00
    00003586 69               [ 4] 8139 	ld	l, c
    00003587 60               [ 4] 8140 	ld	h, b
    00003588 29               [11] 8141 	add	hl, hl
    00003589 29               [11] 8142 	add	hl, hl
    0000358A 09               [11] 8143 	add	hl, bc
    0000358B 29               [11] 8144 	add	hl, hl
    0000358C 29               [11] 8145 	add	hl, hl
    0000358D 09               [11] 8146 	add	hl, bc
    0000358E 19               [11] 8147 	add	hl, de
    0000358F D5               [11] 8148 	push	de
    00003590 11 12 00         [10] 8149 	ld	de, #0x0012
    00003593 19               [11] 8150 	add	hl, de
    00003594 D1               [10] 8151 	pop	de
    00003595 AF               [ 4] 8152 	xor	a, a
    00003596 77               [ 7] 8153 	ld	(hl), a
    00003597 23               [ 6] 8154 	inc	hl
    00003598 77               [ 7] 8155 	ld	(hl), a
                                   8156 ;E:\Dropbox\FAUSTO\SVILUPPI\MSX\CODE\C\MSXgl\projects\exsoccer/exsoccer_s22_b2.c:1398: for(u8 i=0; i<15; i++) {
    00003599 0C               [ 4] 8157 	inc	c
    0000359A C3r7Fr35         [10] 8158 	jp	00178$
    0000359D                       8159 00104$:
                                   8160 ;E:\Dropbox\FAUSTO\SVILUPPI\MSX\CODE\C\MSXgl\projects\exsoccer/exsoccer_s22_b2.c:1406: while (true) { 
    0000359D AF               [ 4] 8161 	xor	a, a
    0000359E DD 77 FA         [19] 8162 	ld	-6 (ix), a
    000035A1 DD 77 FB         [19] 8163 	ld	-5 (ix), a
    000035A4 AF               [ 4] 8164 	xor	a, a
    000035A5 DD 77 FC         [19] 8165 	ld	-4 (ix), a
    000035A8 DD 77 FD         [19] 8166 	ld	-3 (ix), a
    000035AB                       8167 00175$:
                                   8168 ;E:\Dropbox\FAUSTO\SVILUPPI\MSX\CODE\C\MSXgl\projects\exsoccer/exsoccer_s22_b2.c:1407: UpdateV9990();
    000035AB CDr00r00         [17] 8169 	call	_UpdateV9990
                                   8170 ;E:\Dropbox\FAUSTO\SVILUPPI\MSX\CODE\C\MSXgl\projects\exsoccer/exsoccer_s22_b2.c:1408: timer++;
    000035AE DD 34 FC         [23] 8171 	inc	-4 (ix)
    000035B1 20 03            [12] 8172 	jr	NZ, 00391$
    000035B3 DD 34 FD         [23] 8173 	inc	-3 (ix)
    000035B6                       8174 00391$:
                                   8175 ;E:\Dropbox\FAUSTO\SVILUPPI\MSX\CODE\C\MSXgl\projects\exsoccer/exsoccer_s22_b2.c:1412: for(u8 i=0; i<15; i++) { // Loop 0 to 14 (Includes Referee)
    000035B6 DD 7E FC         [19] 8176 	ld	a, -4 (ix)
    000035B9 E6 01            [ 7] 8177 	and	a, #0x01
    000035BB DD 77 E0         [19] 8178 	ld	-32 (ix), a
    000035BE DD 36 E1 00      [19] 8179 	ld	-31 (ix), #0x00
    000035C2 DD 36 FE 00      [19] 8180 	ld	-2 (ix), #0x00
    000035C6 DD 36 FF 00      [19] 8181 	ld	-1 (ix), #0x00
    000035CA                       8182 00181$:
    000035CA DD 7E FF         [19] 8183 	ld	a, -1 (ix)
    000035CD D6 0F            [ 7] 8184 	sub	a, #0x0f
    000035CF D2r98r3C         [10] 8185 	jp	NC, 00167$
                                   8186 ;E:\Dropbox\FAUSTO\SVILUPPI\MSX\CODE\C\MSXgl\projects\exsoccer/exsoccer_s22_b2.c:1414: bool isWinner = (g_Players[i].TeamId == teamId);
    000035D2 DD 4E FF         [19] 8187 	ld	c, -1 (ix)
    000035D5 06 00            [ 7] 8188 	ld	b, #0x00
    000035D7 69               [ 4] 8189 	ld	l, c
    000035D8 60               [ 4] 8190 	ld	h, b
    000035D9 29               [11] 8191 	add	hl, hl
    000035DA 29               [11] 8192 	add	hl, hl
    000035DB 09               [11] 8193 	add	hl, bc
    000035DC 29               [11] 8194 	add	hl, hl
    000035DD 29               [11] 8195 	add	hl, hl
    000035DE 09               [11] 8196 	add	hl, bc
    000035DF DD 75 F7         [19] 8197 	ld	-9 (ix), l
    000035E2 DD 74 F8         [19] 8198 	ld	-8 (ix), h
    000035E5 DD 7E F7         [19] 8199 	ld	a, -9 (ix)
    000035E8 C6r00            [ 7] 8200 	add	a, #<(_g_Players)
    000035EA DD 77 E2         [19] 8201 	ld	-30 (ix), a
    000035ED DD 7E F8         [19] 8202 	ld	a, -8 (ix)
    000035F0 CEs00            [ 7] 8203 	adc	a, #>(_g_Players)
    000035F2 DD 77 E3         [19] 8204 	ld	-29 (ix), a
    000035F5 DD 7E E2         [19] 8205 	ld	a, -30 (ix)
    000035F8 DD 77 F7         [19] 8206 	ld	-9 (ix), a
    000035FB DD 7E E3         [19] 8207 	ld	a, -29 (ix)
    000035FE DD 77 F8         [19] 8208 	ld	-8 (ix), a
    00003601 DD 6E F7         [19] 8209 	ld	l, -9 (ix)
    00003604 DD 66 F8         [19] 8210 	ld	h, -8 (ix)
    00003607 11 09 00         [10] 8211 	ld	de, #0x0009
    0000360A 19               [11] 8212 	add	hl, de
    0000360B 7E               [ 7] 8213 	ld	a, (hl)
    0000360C DD 77 F8         [19] 8214 	ld	-8 (ix), a
    0000360F DD 7E F9         [19] 8215 	ld	a, -7 (ix)
    00003612 DD 96 F8         [19] 8216 	sub	a, -8 (ix)
    00003615 3E 01            [ 7] 8217 	ld	a, #0x01
    00003617 28 01            [12] 8218 	jr	Z, 00393$
    00003619 AF               [ 4] 8219 	xor	a, a
    0000361A                       8220 00393$:
    0000361A DD 77 F8         [19] 8221 	ld	-8 (ix), a
    0000361D DD 77 F6         [19] 8222 	ld	-10 (ix), a
                                   8223 ;E:\Dropbox\FAUSTO\SVILUPPI\MSX\CODE\C\MSXgl\projects\exsoccer/exsoccer_s22_b2.c:1415: if (i == REFEREE) isWinner = false; // Force Referee to be "loser" (exit field)
    00003620 DD 7E FF         [19] 8224 	ld	a, -1 (ix)
    00003623 D6 0E            [ 7] 8225 	sub	a, #0x0e
    00003625 20 04            [12] 8226 	jr	NZ, 00106$
    00003627 DD 36 F6 00      [19] 8227 	ld	-10 (ix), #0x00
    0000362B                       8228 00106$:
                                   8229 ;E:\Dropbox\FAUSTO\SVILUPPI\MSX\CODE\C\MSXgl\projects\exsoccer/exsoccer_s22_b2.c:1421: i16 dx = (i16)targetX - (i16)g_Players[i].X;
    0000362B DD 7E E2         [19] 8230 	ld	a, -30 (ix)
    0000362E C6 02            [ 7] 8231 	add	a, #0x02
    00003630 DD 77 E4         [19] 8232 	ld	-28 (ix), a
    00003633 DD 7E E3         [19] 8233 	ld	a, -29 (ix)
    00003636 CE 00            [ 7] 8234 	adc	a, #0x00
    00003638 DD 77 E5         [19] 8235 	ld	-27 (ix), a
    0000363B DD 6E E4         [19] 8236 	ld	l, -28 (ix)
    0000363E DD 66 E5         [19] 8237 	ld	h, -27 (ix)
    00003641 7E               [ 7] 8238 	ld	a, (hl)
    00003642 DD 77 F7         [19] 8239 	ld	-9 (ix), a
    00003645 23               [ 6] 8240 	inc	hl
    00003646 7E               [ 7] 8241 	ld	a, (hl)
    00003647 DD 77 F8         [19] 8242 	ld	-8 (ix), a
                                   8243 ;E:\Dropbox\FAUSTO\SVILUPPI\MSX\CODE\C\MSXgl\projects\exsoccer/exsoccer_s22_b2.c:1417: if (isWinner) {
    0000364A DD 7E F6         [19] 8244 	ld	a, -10 (ix)
    0000364D B7               [ 4] 8245 	or	a, a
    0000364E CAr0Dr3B         [10] 8246 	jp	Z, 00164$
                                   8247 ;E:\Dropbox\FAUSTO\SVILUPPI\MSX\CODE\C\MSXgl\projects\exsoccer/exsoccer_s22_b2.c:1421: i16 dx = (i16)targetX - (i16)g_Players[i].X;
    00003651 DD 7E DC         [19] 8248 	ld	a, -36 (ix)
    00003654 DD 77 F3         [19] 8249 	ld	-13 (ix), a
    00003657 DD 7E DD         [19] 8250 	ld	a, -35 (ix)
    0000365A DD 77 F4         [19] 8251 	ld	-12 (ix), a
    0000365D DD 7E F7         [19] 8252 	ld	a, -9 (ix)
    00003660 DD 77 F5         [19] 8253 	ld	-11 (ix), a
    00003663 DD 7E F8         [19] 8254 	ld	a, -8 (ix)
    00003666 DD 77 F6         [19] 8255 	ld	-10 (ix), a
    00003669 DD 7E F3         [19] 8256 	ld	a, -13 (ix)
    0000366C DD 96 F5         [19] 8257 	sub	a, -11 (ix)
    0000366F DD 77 F7         [19] 8258 	ld	-9 (ix), a
    00003672 DD 7E F4         [19] 8259 	ld	a, -12 (ix)
    00003675 DD 9E F6         [19] 8260 	sbc	a, -10 (ix)
    00003678 DD 77 F8         [19] 8261 	ld	-8 (ix), a
    0000367B DD 7E F7         [19] 8262 	ld	a, -9 (ix)
    0000367E DD 77 E6         [19] 8263 	ld	-26 (ix), a
    00003681 DD 7E F8         [19] 8264 	ld	a, -8 (ix)
    00003684 DD 77 E7         [19] 8265 	ld	-25 (ix), a
                                   8266 ;E:\Dropbox\FAUSTO\SVILUPPI\MSX\CODE\C\MSXgl\projects\exsoccer/exsoccer_s22_b2.c:1422: i16 dy = (i16)targetY - (i16)g_Players[i].Y;
    00003687 DD 7E DE         [19] 8267 	ld	a, -34 (ix)
    0000368A DD 77 F3         [19] 8268 	ld	-13 (ix), a
    0000368D DD 7E DF         [19] 8269 	ld	a, -33 (ix)
    00003690 DD 77 F4         [19] 8270 	ld	-12 (ix), a
    00003693 DD 6E E2         [19] 8271 	ld	l, -30 (ix)
    00003696 DD 66 E3         [19] 8272 	ld	h, -29 (ix)
    00003699 7E               [ 7] 8273 	ld	a, (hl)
    0000369A DD 77 F7         [19] 8274 	ld	-9 (ix), a
    0000369D 23               [ 6] 8275 	inc	hl
    0000369E 7E               [ 7] 8276 	ld	a, (hl)
    0000369F DD 77 F8         [19] 8277 	ld	-8 (ix), a
    000036A2 DD 7E F7         [19] 8278 	ld	a, -9 (ix)
    000036A5 DD 77 F5         [19] 8279 	ld	-11 (ix), a
    000036A8 DD 7E F8         [19] 8280 	ld	a, -8 (ix)
    000036AB DD 77 F6         [19] 8281 	ld	-10 (ix), a
    000036AE DD 7E F3         [19] 8282 	ld	a, -13 (ix)
    000036B1 DD 96 F5         [19] 8283 	sub	a, -11 (ix)
    000036B4 DD 77 F7         [19] 8284 	ld	-9 (ix), a
    000036B7 DD 7E F4         [19] 8285 	ld	a, -12 (ix)
    000036BA DD 9E F6         [19] 8286 	sbc	a, -10 (ix)
    000036BD DD 77 F8         [19] 8287 	ld	-8 (ix), a
                                   8288 ;E:\Dropbox\FAUSTO\SVILUPPI\MSX\CODE\C\MSXgl\projects\exsoccer/exsoccer_s22_b2.c:1425: u16 dist = (u16)(Math_Abs32_Local(dx) + Math_Abs32_Local(dy));
    000036C0 DD 7E E6         [19] 8289 	ld	a, -26 (ix)
    000036C3 DD 77 E8         [19] 8290 	ld	-24 (ix), a
    000036C6 DD 7E E7         [19] 8291 	ld	a, -25 (ix)
    000036C9 DD 77 E9         [19] 8292 	ld	-23 (ix), a
    000036CC 07               [ 4] 8293 	rlca
    000036CD 9F               [ 4] 8294 	sbc	a, a
    000036CE DD 77 EA         [19] 8295 	ld	-22 (ix), a
    000036D1 DD 77 EB         [19] 8296 	ld	-21 (ix), a
    000036D4 DD 5E E8         [19] 8297 	ld	e, -24 (ix)
    000036D7 DD 56 E9         [19] 8298 	ld	d, -23 (ix)
    000036DA DD 6E EA         [19] 8299 	ld	l, -22 (ix)
                                   8300 ;	spillPairReg hl
                                   8301 ;	spillPairReg hl
    000036DD DD 66 EB         [19] 8302 	ld	h, -21 (ix)
                                   8303 ;	spillPairReg hl
                                   8304 ;	spillPairReg hl
    000036E0 CDr11r1F         [17] 8305 	call	_Math_Abs32_Local
    000036E3 DD 73 F3         [19] 8306 	ld	-13 (ix), e
    000036E6 DD 72 F4         [19] 8307 	ld	-12 (ix), d
    000036E9 DD 75 F5         [19] 8308 	ld	-11 (ix), l
    000036EC DD 74 F6         [19] 8309 	ld	-10 (ix), h
    000036EF DD 7E F7         [19] 8310 	ld	a, -9 (ix)
    000036F2 DD 77 EC         [19] 8311 	ld	-20 (ix), a
    000036F5 DD 7E F8         [19] 8312 	ld	a, -8 (ix)
    000036F8 DD 77 ED         [19] 8313 	ld	-19 (ix), a
    000036FB 07               [ 4] 8314 	rlca
    000036FC 9F               [ 4] 8315 	sbc	a, a
    000036FD DD 77 EE         [19] 8316 	ld	-18 (ix), a
    00003700 DD 77 EF         [19] 8317 	ld	-17 (ix), a
    00003703 DD 5E EC         [19] 8318 	ld	e, -20 (ix)
    00003706 DD 56 ED         [19] 8319 	ld	d, -19 (ix)
    00003709 DD 6E EE         [19] 8320 	ld	l, -18 (ix)
                                   8321 ;	spillPairReg hl
                                   8322 ;	spillPairReg hl
    0000370C DD 66 EF         [19] 8323 	ld	h, -17 (ix)
                                   8324 ;	spillPairReg hl
                                   8325 ;	spillPairReg hl
    0000370F CDr11r1F         [17] 8326 	call	_Math_Abs32_Local
    00003712 33               [ 6] 8327 	inc	sp
    00003713 33               [ 6] 8328 	inc	sp
    00003714 D5               [11] 8329 	push	de
    00003715 DD 75 DA         [19] 8330 	ld	-38 (ix), l
    00003718 DD 74 DB         [19] 8331 	ld	-37 (ix), h
    0000371B DD 7E F3         [19] 8332 	ld	a, -13 (ix)
    0000371E DD 77 F1         [19] 8333 	ld	-15 (ix), a
    00003721 DD 7E F4         [19] 8334 	ld	a, -12 (ix)
    00003724 DD 77 F2         [19] 8335 	ld	-14 (ix), a
    00003727 DD 7E D8         [19] 8336 	ld	a, -40 (ix)
    0000372A DD 77 F3         [19] 8337 	ld	-13 (ix), a
    0000372D DD 7E D9         [19] 8338 	ld	a, -39 (ix)
    00003730 DD 77 F4         [19] 8339 	ld	-12 (ix), a
    00003733 DD 7E F3         [19] 8340 	ld	a, -13 (ix)
    00003736 DD 86 F1         [19] 8341 	add	a, -15 (ix)
    00003739 DD 77 F5         [19] 8342 	ld	-11 (ix), a
    0000373C DD 7E F4         [19] 8343 	ld	a, -12 (ix)
    0000373F DD 8E F2         [19] 8344 	adc	a, -14 (ix)
    00003742 DD 77 F6         [19] 8345 	ld	-10 (ix), a
    00003745 DD 7E F5         [19] 8346 	ld	a, -11 (ix)
    00003748 DD 77 DA         [19] 8347 	ld	-38 (ix), a
    0000374B DD 7E F6         [19] 8348 	ld	a, -10 (ix)
    0000374E DD 77 DB         [19] 8349 	ld	-37 (ix), a
                                   8350 ;E:\Dropbox\FAUSTO\SVILUPPI\MSX\CODE\C\MSXgl\projects\exsoccer/exsoccer_s22_b2.c:1428: u8 stopDist = 35 + (i % 7) * 10; 
    00003751 DD 7E FF         [19] 8351 	ld	a, -1 (ix)
    00003754 DD 77 F0         [19] 8352 	ld	-16 (ix), a
    00003757 DD 36 F1 00      [19] 8353 	ld	-15 (ix), #0x00
    0000375B 11 07 00         [10] 8354 	ld	de, #0x0007
    0000375E DD 6E F0         [19] 8355 	ld	l, -16 (ix)
                                   8356 ;	spillPairReg hl
                                   8357 ;	spillPairReg hl
    00003761 DD 66 F1         [19] 8358 	ld	h, -15 (ix)
                                   8359 ;	spillPairReg hl
                                   8360 ;	spillPairReg hl
    00003764 CDr00r00         [17] 8361 	call	__modsint
    00003767 DD 73 F5         [19] 8362 	ld	-11 (ix), e
    0000376A DD 72 F6         [19] 8363 	ld	-10 (ix), d
    0000376D DD 7E F5         [19] 8364 	ld	a, -11 (ix)
    00003770 DD 77 F6         [19] 8365 	ld	-10 (ix), a
    00003773 4F               [ 4] 8366 	ld	c, a
    00003774 87               [ 4] 8367 	add	a, a
    00003775 87               [ 4] 8368 	add	a, a
    00003776 81               [ 4] 8369 	add	a, c
    00003777 87               [ 4] 8370 	add	a, a
    00003778 DD 77 F6         [19] 8371 	ld	-10 (ix), a
    0000377B C6 23            [ 7] 8372 	add	a, #0x23
                                   8373 ;E:\Dropbox\FAUSTO\SVILUPPI\MSX\CODE\C\MSXgl\projects\exsoccer/exsoccer_s22_b2.c:1430: if (dist > stopDist) {
    0000377D DD 77 F2         [19] 8374 	ld	-14 (ix), a
    00003780 DD 77 F3         [19] 8375 	ld	-13 (ix), a
    00003783 DD 36 F4 00      [19] 8376 	ld	-12 (ix), #0x00
                                   8377 ;E:\Dropbox\FAUSTO\SVILUPPI\MSX\CODE\C\MSXgl\projects\exsoccer/exsoccer_s22_b2.c:1442: g_Players[i].Status = PLAYER_STATUS_NONE; // Running animation
    00003787 DD 7E E2         [19] 8378 	ld	a, -30 (ix)
    0000378A C6 12            [ 7] 8379 	add	a, #0x12
    0000378C DD 77 F5         [19] 8380 	ld	-11 (ix), a
    0000378F DD 7E E3         [19] 8381 	ld	a, -29 (ix)
    00003792 CE 00            [ 7] 8382 	adc	a, #0x00
    00003794 DD 77 F6         [19] 8383 	ld	-10 (ix), a
                                   8384 ;E:\Dropbox\FAUSTO\SVILUPPI\MSX\CODE\C\MSXgl\projects\exsoccer/exsoccer_s22_b2.c:1430: if (dist > stopDist) {
    00003797 DD 7E F3         [19] 8385 	ld	a, -13 (ix)
    0000379A DD 96 DA         [19] 8386 	sub	a, -38 (ix)
    0000379D DD 7E F4         [19] 8387 	ld	a, -12 (ix)
    000037A0 DD 9E DB         [19] 8388 	sbc	a, -37 (ix)
    000037A3 D2r18r39         [10] 8389 	jp	NC, 00144$
                                   8390 ;E:\Dropbox\FAUSTO\SVILUPPI\MSX\CODE\C\MSXgl\projects\exsoccer/exsoccer_s22_b2.c:1432: if (dx > 0) g_Players[i].X++; else if (dx < 0) g_Players[i].X--;
    000037A6 DD 7E E6         [19] 8391 	ld	a, -26 (ix)
    000037A9 DD 77 F3         [19] 8392 	ld	-13 (ix), a
    000037AC DD 7E E7         [19] 8393 	ld	a, -25 (ix)
    000037AF DD 77 F4         [19] 8394 	ld	-12 (ix), a
    000037B2 AF               [ 4] 8395 	xor	a, a
    000037B3 DD BE F3         [19] 8396 	cp	a, -13 (ix)
    000037B6 DD 9E F4         [19] 8397 	sbc	a, -12 (ix)
    000037B9 E2rBEr37         [10] 8398 	jp	PO, 00396$
    000037BC EE 80            [ 7] 8399 	xor	a, #0x80
    000037BE                       8400 00396$:
    000037BE 07               [ 4] 8401 	rlca
    000037BF E6 01            [ 7] 8402 	and	a,#0x01
    000037C1 DD 77 F0         [19] 8403 	ld	-16 (ix), a
    000037C4 B7               [ 4] 8404 	or	a, a
    000037C5 28 31            [12] 8405 	jr	Z, 00110$
    000037C7 DD 6E E4         [19] 8406 	ld	l, -28 (ix)
    000037CA DD 66 E5         [19] 8407 	ld	h, -27 (ix)
    000037CD 7E               [ 7] 8408 	ld	a, (hl)
    000037CE DD 77 F1         [19] 8409 	ld	-15 (ix), a
    000037D1 23               [ 6] 8410 	inc	hl
    000037D2 7E               [ 7] 8411 	ld	a, (hl)
    000037D3 DD 77 F2         [19] 8412 	ld	-14 (ix), a
    000037D6 DD 7E F1         [19] 8413 	ld	a, -15 (ix)
    000037D9 C6 01            [ 7] 8414 	add	a, #0x01
    000037DB DD 77 F3         [19] 8415 	ld	-13 (ix), a
    000037DE DD 7E F2         [19] 8416 	ld	a, -14 (ix)
    000037E1 CE 00            [ 7] 8417 	adc	a, #0x00
    000037E3 DD 77 F4         [19] 8418 	ld	-12 (ix), a
    000037E6 DD 6E E4         [19] 8419 	ld	l, -28 (ix)
    000037E9 DD 66 E5         [19] 8420 	ld	h, -27 (ix)
    000037EC DD 7E F3         [19] 8421 	ld	a, -13 (ix)
    000037EF 77               [ 7] 8422 	ld	(hl), a
    000037F0 23               [ 6] 8423 	inc	hl
    000037F1 DD 7E F4         [19] 8424 	ld	a, -12 (ix)
    000037F4 77               [ 7] 8425 	ld	(hl), a
    000037F5 C3r11r38         [10] 8426 	jp	00111$
    000037F8                       8427 00110$:
    000037F8 DD CB F4 7E      [20] 8428 	bit	7, -12 (ix)
    000037FC 28 13            [12] 8429 	jr	Z, 00111$
    000037FE DD 6E E4         [19] 8430 	ld	l, -28 (ix)
    00003801 DD 66 E5         [19] 8431 	ld	h, -27 (ix)
    00003804 4E               [ 7] 8432 	ld	c, (hl)
    00003805 23               [ 6] 8433 	inc	hl
    00003806 46               [ 7] 8434 	ld	b, (hl)
    00003807 0B               [ 6] 8435 	dec	bc
    00003808 DD 6E E4         [19] 8436 	ld	l, -28 (ix)
    0000380B DD 66 E5         [19] 8437 	ld	h, -27 (ix)
    0000380E 71               [ 7] 8438 	ld	(hl), c
    0000380F 23               [ 6] 8439 	inc	hl
    00003810 70               [ 7] 8440 	ld	(hl), b
    00003811                       8441 00111$:
                                   8442 ;E:\Dropbox\FAUSTO\SVILUPPI\MSX\CODE\C\MSXgl\projects\exsoccer/exsoccer_s22_b2.c:1433: if (dy > 0) g_Players[i].Y++; else if (dy < 0) g_Players[i].Y--;
    00003811 AF               [ 4] 8443 	xor	a, a
    00003812 DD BE F7         [19] 8444 	cp	a, -9 (ix)
    00003815 DD 9E F8         [19] 8445 	sbc	a, -8 (ix)
    00003818 E2r1Dr38         [10] 8446 	jp	PO, 00397$
    0000381B EE 80            [ 7] 8447 	xor	a, #0x80
    0000381D                       8448 00397$:
    0000381D 07               [ 4] 8449 	rlca
    0000381E E6 01            [ 7] 8450 	and	a,#0x01
    00003820 DD 77 F2         [19] 8451 	ld	-14 (ix), a
    00003823 B7               [ 4] 8452 	or	a, a
    00003824 28 31            [12] 8453 	jr	Z, 00115$
    00003826 DD 6E E2         [19] 8454 	ld	l, -30 (ix)
    00003829 DD 66 E3         [19] 8455 	ld	h, -29 (ix)
    0000382C 7E               [ 7] 8456 	ld	a, (hl)
    0000382D DD 77 F3         [19] 8457 	ld	-13 (ix), a
    00003830 23               [ 6] 8458 	inc	hl
    00003831 7E               [ 7] 8459 	ld	a, (hl)
    00003832 DD 77 F4         [19] 8460 	ld	-12 (ix), a
    00003835 DD 7E F3         [19] 8461 	ld	a, -13 (ix)
    00003838 C6 01            [ 7] 8462 	add	a, #0x01
    0000383A DD 77 F7         [19] 8463 	ld	-9 (ix), a
    0000383D DD 7E F4         [19] 8464 	ld	a, -12 (ix)
    00003840 CE 00            [ 7] 8465 	adc	a, #0x00
    00003842 DD 77 F8         [19] 8466 	ld	-8 (ix), a
    00003845 DD 6E E2         [19] 8467 	ld	l, -30 (ix)
    00003848 DD 66 E3         [19] 8468 	ld	h, -29 (ix)
    0000384B DD 7E F7         [19] 8469 	ld	a, -9 (ix)
    0000384E 77               [ 7] 8470 	ld	(hl), a
    0000384F 23               [ 6] 8471 	inc	hl
    00003850 DD 7E F8         [19] 8472 	ld	a, -8 (ix)
    00003853 77               [ 7] 8473 	ld	(hl), a
    00003854 C3r70r38         [10] 8474 	jp	00116$
    00003857                       8475 00115$:
    00003857 DD CB F8 7E      [20] 8476 	bit	7, -8 (ix)
    0000385B 28 13            [12] 8477 	jr	Z, 00116$
    0000385D DD 6E E2         [19] 8478 	ld	l, -30 (ix)
    00003860 DD 66 E3         [19] 8479 	ld	h, -29 (ix)
    00003863 4E               [ 7] 8480 	ld	c, (hl)
    00003864 23               [ 6] 8481 	inc	hl
    00003865 46               [ 7] 8482 	ld	b, (hl)
    00003866 0B               [ 6] 8483 	dec	bc
    00003867 DD 6E E2         [19] 8484 	ld	l, -30 (ix)
    0000386A DD 66 E3         [19] 8485 	ld	h, -29 (ix)
    0000386D 71               [ 7] 8486 	ld	(hl), c
    0000386E 23               [ 6] 8487 	inc	hl
    0000386F 70               [ 7] 8488 	ld	(hl), b
    00003870                       8489 00116$:
                                   8490 ;E:\Dropbox\FAUSTO\SVILUPPI\MSX\CODE\C\MSXgl\projects\exsoccer/exsoccer_s22_b2.c:1436: if (Math_Abs32_Local(dx) > Math_Abs32_Local(dy)) {
    00003870 DD 5E E8         [19] 8491 	ld	e, -24 (ix)
    00003873 DD 56 E9         [19] 8492 	ld	d, -23 (ix)
    00003876 DD 6E EA         [19] 8493 	ld	l, -22 (ix)
                                   8494 ;	spillPairReg hl
                                   8495 ;	spillPairReg hl
    00003879 DD 66 EB         [19] 8496 	ld	h, -21 (ix)
                                   8497 ;	spillPairReg hl
                                   8498 ;	spillPairReg hl
    0000387C CDr11r1F         [17] 8499 	call	_Math_Abs32_Local
    0000387F DD 73 E8         [19] 8500 	ld	-24 (ix), e
    00003882 DD 72 E9         [19] 8501 	ld	-23 (ix), d
    00003885 DD 75 EA         [19] 8502 	ld	-22 (ix), l
    00003888 DD 74 EB         [19] 8503 	ld	-21 (ix), h
    0000388B DD 5E EC         [19] 8504 	ld	e, -20 (ix)
    0000388E DD 56 ED         [19] 8505 	ld	d, -19 (ix)
    00003891 DD 6E EE         [19] 8506 	ld	l, -18 (ix)
                                   8507 ;	spillPairReg hl
                                   8508 ;	spillPairReg hl
    00003894 DD 66 EF         [19] 8509 	ld	h, -17 (ix)
                                   8510 ;	spillPairReg hl
                                   8511 ;	spillPairReg hl
    00003897 CDr11r1F         [17] 8512 	call	_Math_Abs32_Local
                                   8513 ;E:\Dropbox\FAUSTO\SVILUPPI\MSX\CODE\C\MSXgl\projects\exsoccer/exsoccer_s22_b2.c:1437: g_Players[i].Direction = (dx > 0) ? DIRECTION_RIGHT : DIRECTION_LEFT;
    0000389A DD 7E E2         [19] 8514 	ld	a, -30 (ix)
    0000389D C6 0A            [ 7] 8515 	add	a, #0x0a
    0000389F DD 77 F7         [19] 8516 	ld	-9 (ix), a
    000038A2 DD 7E E3         [19] 8517 	ld	a, -29 (ix)
    000038A5 CE 00            [ 7] 8518 	adc	a, #0x00
    000038A7 DD 77 F8         [19] 8519 	ld	-8 (ix), a
                                   8520 ;E:\Dropbox\FAUSTO\SVILUPPI\MSX\CODE\C\MSXgl\projects\exsoccer/exsoccer_s22_b2.c:1436: if (Math_Abs32_Local(dx) > Math_Abs32_Local(dy)) {
    000038AA 7B               [ 4] 8521 	ld	a, e
    000038AB DD 96 E8         [19] 8522 	sub	a, -24 (ix)
    000038AE 7A               [ 4] 8523 	ld	a, d
    000038AF DD 9E E9         [19] 8524 	sbc	a, -23 (ix)
    000038B2 7D               [ 4] 8525 	ld	a, l
    000038B3 DD 9E EA         [19] 8526 	sbc	a, -22 (ix)
    000038B6 7C               [ 4] 8527 	ld	a, h
    000038B7 DD 9E EB         [19] 8528 	sbc	a, -21 (ix)
    000038BA E2rBFr38         [10] 8529 	jp	PO, 00398$
    000038BD EE 80            [ 7] 8530 	xor	a, #0x80
    000038BF                       8531 00398$:
    000038BF F2rE8r38         [10] 8532 	jp	P, 00118$
                                   8533 ;E:\Dropbox\FAUSTO\SVILUPPI\MSX\CODE\C\MSXgl\projects\exsoccer/exsoccer_s22_b2.c:1437: g_Players[i].Direction = (dx > 0) ? DIRECTION_RIGHT : DIRECTION_LEFT;
    000038C2 DD 7E F0         [19] 8534 	ld	a, -16 (ix)
    000038C5 B7               [ 4] 8535 	or	a, a
    000038C6 28 0B            [12] 8536 	jr	Z, 00184$
    000038C8 DD 36 F3 03      [19] 8537 	ld	-13 (ix), #0x03
    000038CC DD 36 F4 00      [19] 8538 	ld	-12 (ix), #0
    000038D0 C3rDBr38         [10] 8539 	jp	00185$
    000038D3                       8540 00184$:
    000038D3 DD 36 F3 07      [19] 8541 	ld	-13 (ix), #0x07
    000038D7 DD 36 F4 00      [19] 8542 	ld	-12 (ix), #0
    000038DB                       8543 00185$:
    000038DB DD 7E F3         [19] 8544 	ld	a, -13 (ix)
    000038DE DD 6E F7         [19] 8545 	ld	l, -9 (ix)
    000038E1 DD 66 F8         [19] 8546 	ld	h, -8 (ix)
    000038E4 77               [ 7] 8547 	ld	(hl), a
    000038E5 C3r0Br39         [10] 8548 	jp	00119$
    000038E8                       8549 00118$:
                                   8550 ;E:\Dropbox\FAUSTO\SVILUPPI\MSX\CODE\C\MSXgl\projects\exsoccer/exsoccer_s22_b2.c:1439: g_Players[i].Direction = (dy > 0) ? DIRECTION_DOWN : DIRECTION_UP;
    000038E8 DD 7E F2         [19] 8551 	ld	a, -14 (ix)
    000038EB B7               [ 4] 8552 	or	a, a
    000038EC 28 0B            [12] 8553 	jr	Z, 00186$
    000038EE DD 36 F3 05      [19] 8554 	ld	-13 (ix), #0x05
    000038F2 DD 36 F4 00      [19] 8555 	ld	-12 (ix), #0
    000038F6 C3r01r39         [10] 8556 	jp	00187$
    000038F9                       8557 00186$:
    000038F9 DD 36 F3 01      [19] 8558 	ld	-13 (ix), #0x01
    000038FD DD 36 F4 00      [19] 8559 	ld	-12 (ix), #0
    00003901                       8560 00187$:
    00003901 DD 7E F3         [19] 8561 	ld	a, -13 (ix)
    00003904 DD 6E F7         [19] 8562 	ld	l, -9 (ix)
    00003907 DD 66 F8         [19] 8563 	ld	h, -8 (ix)
    0000390A 77               [ 7] 8564 	ld	(hl), a
    0000390B                       8565 00119$:
                                   8566 ;E:\Dropbox\FAUSTO\SVILUPPI\MSX\CODE\C\MSXgl\projects\exsoccer/exsoccer_s22_b2.c:1442: g_Players[i].Status = PLAYER_STATUS_NONE; // Running animation
    0000390B DD 6E F5         [19] 8567 	ld	l, -11 (ix)
    0000390E DD 66 F6         [19] 8568 	ld	h, -10 (ix)
    00003911 AF               [ 4] 8569 	xor	a, a
    00003912 77               [ 7] 8570 	ld	(hl), a
    00003913 23               [ 6] 8571 	inc	hl
    00003914 77               [ 7] 8572 	ld	(hl), a
    00003915 C3r92r3C         [10] 8573 	jp	00166$
    00003918                       8574 00144$:
                                   8575 ;E:\Dropbox\FAUSTO\SVILUPPI\MSX\CODE\C\MSXgl\projects\exsoccer/exsoccer_s22_b2.c:1446: g_Players[i].Status = PLAYER_STATUS_POSITIONED; // Lock pose
    00003918 DD 6E F5         [19] 8576 	ld	l, -11 (ix)
    0000391B DD 66 F6         [19] 8577 	ld	h, -10 (ix)
    0000391E 36 04            [10] 8578 	ld	(hl), #0x04
    00003920 23               [ 6] 8579 	inc	hl
    00003921 36 00            [10] 8580 	ld	(hl), #0x00
                                   8581 ;E:\Dropbox\FAUSTO\SVILUPPI\MSX\CODE\C\MSXgl\projects\exsoccer/exsoccer_s22_b2.c:1449: bool animFrame = (timer / 8) % 2 == 0;
    00003923 DD 4E FC         [19] 8582 	ld	c, -4 (ix)
    00003926 DD 46 FD         [19] 8583 	ld	b, -3 (ix)
    00003929 59               [ 4] 8584 	ld	e, c
    0000392A 50               [ 4] 8585 	ld	d, b
    0000392B CB 3A            [ 8] 8586 	srl	d
    0000392D CB 1B            [ 8] 8587 	rr	e
    0000392F CB 3A            [ 8] 8588 	srl	d
    00003931 CB 1B            [ 8] 8589 	rr	e
    00003933 CB 3A            [ 8] 8590 	srl	d
    00003935 CB 1B            [ 8] 8591 	rr	e
    00003937 7B               [ 4] 8592 	ld	a, e
    00003938 E6 01            [ 7] 8593 	and	a, #0x01
    0000393A 5F               [ 4] 8594 	ld	e, a
    0000393B 16 00            [ 7] 8595 	ld	d, #0x00
    0000393D 7B               [ 4] 8596 	ld	a, e
    0000393E B7               [ 4] 8597 	or	a, a
    0000393F B2               [ 4] 8598 	or	a, d
    00003940 3E 01            [ 7] 8599 	ld	a, #0x01
    00003942 28 01            [12] 8600 	jr	Z, 00400$
    00003944 AF               [ 4] 8601 	xor	a, a
    00003945                       8602 00400$:
    00003945 DD 77 F3         [19] 8603 	ld	-13 (ix), a
                                   8604 ;E:\Dropbox\FAUSTO\SVILUPPI\MSX\CODE\C\MSXgl\projects\exsoccer/exsoccer_s22_b2.c:1452: if ((timer % 3) == 0) { // Slow speed
    00003948 C5               [11] 8605 	push	bc
    00003949 11 03 00         [10] 8606 	ld	de, #0x0003
    0000394C 69               [ 4] 8607 	ld	l, c
                                   8608 ;	spillPairReg hl
                                   8609 ;	spillPairReg hl
    0000394D 60               [ 4] 8610 	ld	h, b
                                   8611 ;	spillPairReg hl
                                   8612 ;	spillPairReg hl
    0000394E CDr00r00         [17] 8613 	call	__moduint
    00003951 C1               [10] 8614 	pop	bc
    00003952 7A               [ 4] 8615 	ld	a, d
                                   8616 ;E:\Dropbox\FAUSTO\SVILUPPI\MSX\CODE\C\MSXgl\projects\exsoccer/exsoccer_s22_b2.c:1453: i8 moveX = 0;
    00003953 B3               [ 4] 8617 	or	a,e
    00003954 C2rB3r3A         [10] 8618 	jp	NZ,00139$
    00003957 5F               [ 4] 8619 	ld	e,a
                                   8620 ;E:\Dropbox\FAUSTO\SVILUPPI\MSX\CODE\C\MSXgl\projects\exsoccer/exsoccer_s22_b2.c:1454: i8 moveY = 0;
    00003958 DD 36 F4 00      [19] 8621 	ld	-12 (ix), #0x00
                                   8622 ;E:\Dropbox\FAUSTO\SVILUPPI\MSX\CODE\C\MSXgl\projects\exsoccer/exsoccer_s22_b2.c:1456: if (dy > 10) moveX = 1; else if (dy < -10) moveX = -1;
    0000395C DD 7E F7         [19] 8623 	ld	a, -9 (ix)
    0000395F DD 77 F5         [19] 8624 	ld	-11 (ix), a
    00003962 DD 7E F8         [19] 8625 	ld	a, -8 (ix)
    00003965 DD 77 F6         [19] 8626 	ld	-10 (ix), a
    00003968 3E 0A            [ 7] 8627 	ld	a, #0x0a
    0000396A DD BE F5         [19] 8628 	cp	a, -11 (ix)
    0000396D 3E 00            [ 7] 8629 	ld	a, #0x00
    0000396F DD 9E F6         [19] 8630 	sbc	a, -10 (ix)
    00003972 E2r77r39         [10] 8631 	jp	PO, 00401$
    00003975 EE 80            [ 7] 8632 	xor	a, #0x80
    00003977                       8633 00401$:
    00003977 F2r7Fr39         [10] 8634 	jp	P, 00123$
    0000397A 1E 01            [ 7] 8635 	ld	e, #0x01
    0000397C C3r90r39         [10] 8636 	jp	00124$
    0000397F                       8637 00123$:
    0000397F DD 7E F7         [19] 8638 	ld	a, -9 (ix)
    00003982 D6 F6            [ 7] 8639 	sub	a, #0xf6
    00003984 DD 7E F8         [19] 8640 	ld	a, -8 (ix)
    00003987 17               [ 4] 8641 	rla
    00003988 3F               [ 4] 8642 	ccf
    00003989 1F               [ 4] 8643 	rra
    0000398A DE 7F            [ 7] 8644 	sbc	a, #0x7f
    0000398C 30 02            [12] 8645 	jr	NC, 00124$
    0000398E 1E FF            [ 7] 8646 	ld	e, #0xff
    00003990                       8647 00124$:
                                   8648 ;E:\Dropbox\FAUSTO\SVILUPPI\MSX\CODE\C\MSXgl\projects\exsoccer/exsoccer_s22_b2.c:1457: if (dx > 10) moveY = -1; else if (dx < -10) moveY = 1;
    00003990 DD 7E E6         [19] 8649 	ld	a, -26 (ix)
    00003993 DD 77 F7         [19] 8650 	ld	-9 (ix), a
    00003996 DD 7E E7         [19] 8651 	ld	a, -25 (ix)
    00003999 DD 77 F8         [19] 8652 	ld	-8 (ix), a
    0000399C 3E 0A            [ 7] 8653 	ld	a, #0x0a
    0000399E DD BE F7         [19] 8654 	cp	a, -9 (ix)
    000039A1 3E 00            [ 7] 8655 	ld	a, #0x00
    000039A3 DD 9E F8         [19] 8656 	sbc	a, -8 (ix)
    000039A6 E2rABr39         [10] 8657 	jp	PO, 00402$
    000039A9 EE 80            [ 7] 8658 	xor	a, #0x80
    000039AB                       8659 00402$:
    000039AB F2rB5r39         [10] 8660 	jp	P, 00128$
    000039AE DD 36 F4 FF      [19] 8661 	ld	-12 (ix), #0xff
    000039B2 C3rC8r39         [10] 8662 	jp	00129$
    000039B5                       8663 00128$:
    000039B5 DD 7E E6         [19] 8664 	ld	a, -26 (ix)
    000039B8 D6 F6            [ 7] 8665 	sub	a, #0xf6
    000039BA DD 7E E7         [19] 8666 	ld	a, -25 (ix)
    000039BD 17               [ 4] 8667 	rla
    000039BE 3F               [ 4] 8668 	ccf
    000039BF 1F               [ 4] 8669 	rra
    000039C0 DE 7F            [ 7] 8670 	sbc	a, #0x7f
    000039C2 30 04            [12] 8671 	jr	NC, 00129$
    000039C4 DD 36 F4 01      [19] 8672 	ld	-12 (ix), #0x01
    000039C8                       8673 00129$:
                                   8674 ;E:\Dropbox\FAUSTO\SVILUPPI\MSX\CODE\C\MSXgl\projects\exsoccer/exsoccer_s22_b2.c:1459: g_Players[i].X += moveX;
    000039C8 DD 6E E4         [19] 8675 	ld	l, -28 (ix)
    000039CB DD 66 E5         [19] 8676 	ld	h, -27 (ix)
    000039CE 7E               [ 7] 8677 	ld	a, (hl)
    000039CF 23               [ 6] 8678 	inc	hl
    000039D0 66               [ 7] 8679 	ld	h, (hl)
                                   8680 ;	spillPairReg hl
    000039D1 6F               [ 4] 8681 	ld	l, a
                                   8682 ;	spillPairReg hl
                                   8683 ;	spillPairReg hl
    000039D2 7B               [ 4] 8684 	ld	a, e
    000039D3 07               [ 4] 8685 	rlca
    000039D4 9F               [ 4] 8686 	sbc	a, a
    000039D5 57               [ 4] 8687 	ld	d, a
    000039D6 19               [11] 8688 	add	hl, de
    000039D7 EB               [ 4] 8689 	ex	de, hl
    000039D8 DD 6E E4         [19] 8690 	ld	l, -28 (ix)
    000039DB DD 66 E5         [19] 8691 	ld	h, -27 (ix)
    000039DE 73               [ 7] 8692 	ld	(hl), e
    000039DF 23               [ 6] 8693 	inc	hl
    000039E0 72               [ 7] 8694 	ld	(hl), d
                                   8695 ;E:\Dropbox\FAUSTO\SVILUPPI\MSX\CODE\C\MSXgl\projects\exsoccer/exsoccer_s22_b2.c:1460: g_Players[i].Y += moveY;
    000039E1 DD 6E E2         [19] 8696 	ld	l, -30 (ix)
    000039E4 DD 66 E3         [19] 8697 	ld	h, -29 (ix)
    000039E7 5E               [ 7] 8698 	ld	e, (hl)
    000039E8 23               [ 6] 8699 	inc	hl
    000039E9 56               [ 7] 8700 	ld	d, (hl)
    000039EA DD 7E F4         [19] 8701 	ld	a, -12 (ix)
    000039ED 6F               [ 4] 8702 	ld	l, a
                                   8703 ;	spillPairReg hl
                                   8704 ;	spillPairReg hl
    000039EE 07               [ 4] 8705 	rlca
    000039EF 9F               [ 4] 8706 	sbc	a, a
    000039F0 67               [ 4] 8707 	ld	h, a
                                   8708 ;	spillPairReg hl
                                   8709 ;	spillPairReg hl
    000039F1 19               [11] 8710 	add	hl, de
    000039F2 EB               [ 4] 8711 	ex	de, hl
    000039F3 DD 6E E2         [19] 8712 	ld	l, -30 (ix)
    000039F6 DD 66 E3         [19] 8713 	ld	h, -29 (ix)
    000039F9 73               [ 7] 8714 	ld	(hl), e
    000039FA 23               [ 6] 8715 	inc	hl
    000039FB 72               [ 7] 8716 	ld	(hl), d
                                   8717 ;E:\Dropbox\FAUSTO\SVILUPPI\MSX\CODE\C\MSXgl\projects\exsoccer/exsoccer_s22_b2.c:1463: u16 currentDist = (u16)(Math_Abs32_Local(dx) + Math_Abs32_Local(dy));
    000039FC C5               [11] 8718 	push	bc
    000039FD DD 5E E8         [19] 8719 	ld	e, -24 (ix)
    00003A00 DD 56 E9         [19] 8720 	ld	d, -23 (ix)
    00003A03 DD 6E EA         [19] 8721 	ld	l, -22 (ix)
                                   8722 ;	spillPairReg hl
                                   8723 ;	spillPairReg hl
    00003A06 DD 66 EB         [19] 8724 	ld	h, -21 (ix)
                                   8725 ;	spillPairReg hl
                                   8726 ;	spillPairReg hl
    00003A09 CDr11r1F         [17] 8727 	call	_Math_Abs32_Local
    00003A0C DD 73 E8         [19] 8728 	ld	-24 (ix), e
    00003A0F DD 72 E9         [19] 8729 	ld	-23 (ix), d
    00003A12 DD 75 EA         [19] 8730 	ld	-22 (ix), l
    00003A15 DD 74 EB         [19] 8731 	ld	-21 (ix), h
    00003A18 DD 5E EC         [19] 8732 	ld	e, -20 (ix)
    00003A1B DD 56 ED         [19] 8733 	ld	d, -19 (ix)
    00003A1E DD 6E EE         [19] 8734 	ld	l, -18 (ix)
                                   8735 ;	spillPairReg hl
                                   8736 ;	spillPairReg hl
    00003A21 DD 66 EF         [19] 8737 	ld	h, -17 (ix)
                                   8738 ;	spillPairReg hl
                                   8739 ;	spillPairReg hl
    00003A24 CDr11r1F         [17] 8740 	call	_Math_Abs32_Local
    00003A27 E5               [11] 8741 	push	hl
    00003A28 FD E1            [14] 8742 	pop	iy
    00003A2A C1               [10] 8743 	pop	bc
    00003A2B DD 6E E8         [19] 8744 	ld	l, -24 (ix)
                                   8745 ;	spillPairReg hl
                                   8746 ;	spillPairReg hl
    00003A2E DD 66 E9         [19] 8747 	ld	h, -23 (ix)
                                   8748 ;	spillPairReg hl
                                   8749 ;	spillPairReg hl
    00003A31 19               [11] 8750 	add	hl, de
    00003A32 EB               [ 4] 8751 	ex	de, hl
                                   8752 ;E:\Dropbox\FAUSTO\SVILUPPI\MSX\CODE\C\MSXgl\projects\exsoccer/exsoccer_s22_b2.c:1464: if (currentDist > stopDist + 15) {
    00003A33 DD 7E F2         [19] 8753 	ld	a, -14 (ix)
    00003A36 26 00            [ 7] 8754 	ld	h, #0x00
                                   8755 ;	spillPairReg hl
                                   8756 ;	spillPairReg hl
    00003A38 C6 0F            [ 7] 8757 	add	a, #0x0f
    00003A3A 6F               [ 4] 8758 	ld	l, a
                                   8759 ;	spillPairReg hl
                                   8760 ;	spillPairReg hl
    00003A3B 30 01            [12] 8761 	jr	NC, 00403$
    00003A3D 24               [ 4] 8762 	inc	h
    00003A3E                       8763 00403$:
    00003A3E AF               [ 4] 8764 	xor	a, a
    00003A3F ED 52            [15] 8765 	sbc	hl, de
    00003A41 30 70            [12] 8766 	jr	NC, 00139$
                                   8767 ;E:\Dropbox\FAUSTO\SVILUPPI\MSX\CODE\C\MSXgl\projects\exsoccer/exsoccer_s22_b2.c:1421: i16 dx = (i16)targetX - (i16)g_Players[i].X;
    00003A43 DD 6E E4         [19] 8768 	ld	l, -28 (ix)
    00003A46 DD 66 E5         [19] 8769 	ld	h, -27 (ix)
    00003A49 7E               [ 7] 8770 	ld	a, (hl)
    00003A4A DD 77 EE         [19] 8771 	ld	-18 (ix), a
    00003A4D 23               [ 6] 8772 	inc	hl
    00003A4E 7E               [ 7] 8773 	ld	a, (hl)
    00003A4F DD 77 EF         [19] 8774 	ld	-17 (ix), a
                                   8775 ;E:\Dropbox\FAUSTO\SVILUPPI\MSX\CODE\C\MSXgl\projects\exsoccer/exsoccer_s22_b2.c:1465: if (dx > 0) g_Players[i].X++; else g_Players[i].X--;
    00003A52 AF               [ 4] 8776 	xor	a, a
    00003A53 DD BE F7         [19] 8777 	cp	a, -9 (ix)
    00003A56 DD 9E F8         [19] 8778 	sbc	a, -8 (ix)
    00003A59 E2r5Er3A         [10] 8779 	jp	PO, 00404$
    00003A5C EE 80            [ 7] 8780 	xor	a, #0x80
    00003A5E                       8781 00404$:
    00003A5E F2r74r3A         [10] 8782 	jp	P, 00131$
    00003A61 DD 5E EE         [19] 8783 	ld	e, -18 (ix)
    00003A64 DD 56 EF         [19] 8784 	ld	d, -17 (ix)
    00003A67 13               [ 6] 8785 	inc	de
    00003A68 DD 6E E4         [19] 8786 	ld	l, -28 (ix)
    00003A6B DD 66 E5         [19] 8787 	ld	h, -27 (ix)
    00003A6E 73               [ 7] 8788 	ld	(hl), e
    00003A6F 23               [ 6] 8789 	inc	hl
    00003A70 72               [ 7] 8790 	ld	(hl), d
    00003A71 C3r84r3A         [10] 8791 	jp	00132$
    00003A74                       8792 00131$:
    00003A74 DD 5E EE         [19] 8793 	ld	e, -18 (ix)
    00003A77 DD 56 EF         [19] 8794 	ld	d, -17 (ix)
    00003A7A 1B               [ 6] 8795 	dec	de
    00003A7B DD 6E E4         [19] 8796 	ld	l, -28 (ix)
    00003A7E DD 66 E5         [19] 8797 	ld	h, -27 (ix)
    00003A81 73               [ 7] 8798 	ld	(hl), e
    00003A82 23               [ 6] 8799 	inc	hl
    00003A83 72               [ 7] 8800 	ld	(hl), d
    00003A84                       8801 00132$:
                                   8802 ;E:\Dropbox\FAUSTO\SVILUPPI\MSX\CODE\C\MSXgl\projects\exsoccer/exsoccer_s22_b2.c:1422: i16 dy = (i16)targetY - (i16)g_Players[i].Y;
    00003A84 DD 6E E2         [19] 8803 	ld	l, -30 (ix)
    00003A87 DD 66 E3         [19] 8804 	ld	h, -29 (ix)
    00003A8A 5E               [ 7] 8805 	ld	e, (hl)
    00003A8B 23               [ 6] 8806 	inc	hl
    00003A8C 56               [ 7] 8807 	ld	d, (hl)
                                   8808 ;E:\Dropbox\FAUSTO\SVILUPPI\MSX\CODE\C\MSXgl\projects\exsoccer/exsoccer_s22_b2.c:1466: if (dy > 0) g_Players[i].Y++; else g_Players[i].Y--;
    00003A8D AF               [ 4] 8809 	xor	a, a
    00003A8E DD BE F5         [19] 8810 	cp	a, -11 (ix)
    00003A91 DD 9E F6         [19] 8811 	sbc	a, -10 (ix)
    00003A94 E2r99r3A         [10] 8812 	jp	PO, 00405$
    00003A97 EE 80            [ 7] 8813 	xor	a, #0x80
    00003A99                       8814 00405$:
    00003A99 F2rA9r3A         [10] 8815 	jp	P, 00134$
    00003A9C 13               [ 6] 8816 	inc	de
    00003A9D DD 6E E2         [19] 8817 	ld	l, -30 (ix)
    00003AA0 DD 66 E3         [19] 8818 	ld	h, -29 (ix)
    00003AA3 73               [ 7] 8819 	ld	(hl), e
    00003AA4 23               [ 6] 8820 	inc	hl
    00003AA5 72               [ 7] 8821 	ld	(hl), d
    00003AA6 C3rB3r3A         [10] 8822 	jp	00139$
    00003AA9                       8823 00134$:
    00003AA9 1B               [ 6] 8824 	dec	de
    00003AAA DD 6E E2         [19] 8825 	ld	l, -30 (ix)
    00003AAD DD 66 E3         [19] 8826 	ld	h, -29 (ix)
    00003AB0 73               [ 7] 8827 	ld	(hl), e
    00003AB1 23               [ 6] 8828 	inc	hl
    00003AB2 72               [ 7] 8829 	ld	(hl), d
    00003AB3                       8830 00139$:
                                   8831 ;E:\Dropbox\FAUSTO\SVILUPPI\MSX\CODE\C\MSXgl\projects\exsoccer/exsoccer_s22_b2.c:1471: bool showBack = ((timer + i * 17) / 60) & 1;
    00003AB3 DD 5E F0         [19] 8832 	ld	e, -16 (ix)
    00003AB6 DD 56 F1         [19] 8833 	ld	d, -15 (ix)
    00003AB9 6B               [ 4] 8834 	ld	l, e
    00003ABA 62               [ 4] 8835 	ld	h, d
    00003ABB 29               [11] 8836 	add	hl, hl
    00003ABC 29               [11] 8837 	add	hl, hl
    00003ABD 29               [11] 8838 	add	hl, hl
    00003ABE 29               [11] 8839 	add	hl, hl
    00003ABF 19               [11] 8840 	add	hl, de
    00003AC0 09               [11] 8841 	add	hl, bc
    00003AC1 11 3C 00         [10] 8842 	ld	de, #0x003c
    00003AC4 CDr00r00         [17] 8843 	call	__divuint
                                   8844 ;E:\Dropbox\FAUSTO\SVILUPPI\MSX\CODE\C\MSXgl\projects\exsoccer/exsoccer_s22_b2.c:1474: g_Players[i].PatternId = animFrame ? PLAYER_POSE_CELEBRATION_BACK_1 : PLAYER_POSE_CELEBRATION_BACK_2;
    00003AC7 DD 7E E2         [19] 8845 	ld	a, -30 (ix)
    00003ACA C6 08            [ 7] 8846 	add	a, #0x08
    00003ACC DD 77 F7         [19] 8847 	ld	-9 (ix), a
    00003ACF DD 7E E3         [19] 8848 	ld	a, -29 (ix)
    00003AD2 CE 00            [ 7] 8849 	adc	a, #0x00
    00003AD4 DD 77 F8         [19] 8850 	ld	-8 (ix), a
                                   8851 ;E:\Dropbox\FAUSTO\SVILUPPI\MSX\CODE\C\MSXgl\projects\exsoccer/exsoccer_s22_b2.c:1471: bool showBack = ((timer + i * 17) / 60) & 1;
    00003AD7 CB 43            [ 8] 8852 	bit	0, e
    00003AD9 28 19            [12] 8853 	jr	Z, 00141$
                                   8854 ;E:\Dropbox\FAUSTO\SVILUPPI\MSX\CODE\C\MSXgl\projects\exsoccer/exsoccer_s22_b2.c:1473: if (showBack) {
                                   8855 ;E:\Dropbox\FAUSTO\SVILUPPI\MSX\CODE\C\MSXgl\projects\exsoccer/exsoccer_s22_b2.c:1474: g_Players[i].PatternId = animFrame ? PLAYER_POSE_CELEBRATION_BACK_1 : PLAYER_POSE_CELEBRATION_BACK_2;
    00003ADB DD 7E F3         [19] 8856 	ld	a, -13 (ix)
    00003ADE B7               [ 4] 8857 	or	a, a
    00003ADF 28 06            [12] 8858 	jr	Z, 00188$
    00003AE1 01 32 00         [10] 8859 	ld	bc, #0x0032
    00003AE4 C3rEAr3A         [10] 8860 	jp	00189$
    00003AE7                       8861 00188$:
    00003AE7 01 33 00         [10] 8862 	ld	bc, #0x0033
    00003AEA                       8863 00189$:
    00003AEA DD 6E F7         [19] 8864 	ld	l, -9 (ix)
    00003AED DD 66 F8         [19] 8865 	ld	h, -8 (ix)
    00003AF0 71               [ 7] 8866 	ld	(hl), c
    00003AF1 C3r92r3C         [10] 8867 	jp	00166$
    00003AF4                       8868 00141$:
                                   8869 ;E:\Dropbox\FAUSTO\SVILUPPI\MSX\CODE\C\MSXgl\projects\exsoccer/exsoccer_s22_b2.c:1476: g_Players[i].PatternId = animFrame ? PLAYER_POSE_CELEBRATION_FRONT_1 : PLAYER_POSE_CELEBRATION_FRONT_2;
    00003AF4 DD 7E F3         [19] 8870 	ld	a, -13 (ix)
    00003AF7 B7               [ 4] 8871 	or	a, a
    00003AF8 28 06            [12] 8872 	jr	Z, 00190$
    00003AFA 11 30 00         [10] 8873 	ld	de, #0x0030
    00003AFD C3r03r3B         [10] 8874 	jp	00191$
    00003B00                       8875 00190$:
    00003B00 11 31 00         [10] 8876 	ld	de, #0x0031
    00003B03                       8877 00191$:
    00003B03 DD 6E F7         [19] 8878 	ld	l, -9 (ix)
    00003B06 DD 66 F8         [19] 8879 	ld	h, -8 (ix)
    00003B09 73               [ 7] 8880 	ld	(hl), e
    00003B0A C3r92r3C         [10] 8881 	jp	00166$
    00003B0D                       8882 00164$:
                                   8883 ;E:\Dropbox\FAUSTO\SVILUPPI\MSX\CODE\C\MSXgl\projects\exsoccer/exsoccer_s22_b2.c:1483: if (g_Players[i].X < 8) {
    00003B0D DD 7E F7         [19] 8884 	ld	a, -9 (ix)
    00003B10 DD 46 F8         [19] 8885 	ld	b, -8 (ix)
    00003B13 D6 08            [ 7] 8886 	sub	a, #0x08
    00003B15 78               [ 4] 8887 	ld	a, b
    00003B16 DE 00            [ 7] 8888 	sbc	a, #0x00
    00003B18 30 36            [12] 8889 	jr	NC, 00147$
                                   8890 ;E:\Dropbox\FAUSTO\SVILUPPI\MSX\CODE\C\MSXgl\projects\exsoccer/exsoccer_s22_b2.c:1485: g_Players[i].Y = (g_FieldCurrentYPosition > 32) ? g_FieldCurrentYPosition - 32 : 0;
    00003B1A DD 4E E2         [19] 8891 	ld	c, -30 (ix)
    00003B1D DD 46 E3         [19] 8892 	ld	b, -29 (ix)
    00003B20 3E 20            [ 7] 8893 	ld	a, #0x20
    00003B22 FD 21r00r00      [14] 8894 	ld	iy, #_g_FieldCurrentYPosition
    00003B26 FD BE 00         [19] 8895 	cp	a, 0 (iy)
    00003B29 3E 00            [ 7] 8896 	ld	a, #0x00
    00003B2B FD 9E 01         [19] 8897 	sbc	a, 1 (iy)
    00003B2E E2r33r3B         [10] 8898 	jp	PO, 00407$
    00003B31 EE 80            [ 7] 8899 	xor	a, #0x80
    00003B33                       8900 00407$:
    00003B33 F2r45r3B         [10] 8901 	jp	P, 00192$
    00003B36 3Ar00r00         [13] 8902 	ld	a, (_g_FieldCurrentYPosition+0)
    00003B39 C6 E0            [ 7] 8903 	add	a, #0xe0
    00003B3B 5F               [ 4] 8904 	ld	e, a
    00003B3C 3Ar01r00         [13] 8905 	ld	a, (_g_FieldCurrentYPosition+1)
    00003B3F CE FF            [ 7] 8906 	adc	a, #0xff
    00003B41 57               [ 4] 8907 	ld	d, a
    00003B42 C3r48r3B         [10] 8908 	jp	00193$
    00003B45                       8909 00192$:
    00003B45 11 00 00         [10] 8910 	ld	de, #0x0000
    00003B48                       8911 00193$:
    00003B48 7B               [ 4] 8912 	ld	a, e
    00003B49 02               [ 7] 8913 	ld	(bc), a
    00003B4A 03               [ 6] 8914 	inc	bc
    00003B4B 7A               [ 4] 8915 	ld	a, d
    00003B4C 02               [ 7] 8916 	ld	(bc), a
                                   8917 ;E:\Dropbox\FAUSTO\SVILUPPI\MSX\CODE\C\MSXgl\projects\exsoccer/exsoccer_s22_b2.c:1486: continue; // Skip movement, count as exited
    00003B4D C3r92r3C         [10] 8918 	jp	00166$
    00003B50                       8919 00147$:
                                   8920 ;E:\Dropbox\FAUSTO\SVILUPPI\MSX\CODE\C\MSXgl\projects\exsoccer/exsoccer_s22_b2.c:1489: losersOnField++;
    00003B50 DD 34 FE         [23] 8921 	inc	-2 (ix)
                                   8922 ;E:\Dropbox\FAUSTO\SVILUPPI\MSX\CODE\C\MSXgl\projects\exsoccer/exsoccer_s22_b2.c:1492: i16 dx = (i16)0 - (i16)g_Players[i].X;
    00003B53 DD 7E F7         [19] 8923 	ld	a, -9 (ix)
    00003B56 DD 4E F8         [19] 8924 	ld	c, -8 (ix)
    00003B59 ED 44            [ 8] 8925 	neg
    00003B5B 5F               [ 4] 8926 	ld	e, a
    00003B5C 9F               [ 4] 8927 	sbc	a, a
    00003B5D 91               [ 4] 8928 	sub	a, c
    00003B5E 57               [ 4] 8929 	ld	d, a
                                   8930 ;E:\Dropbox\FAUSTO\SVILUPPI\MSX\CODE\C\MSXgl\projects\exsoccer/exsoccer_s22_b2.c:1493: i16 dy = (i16)FIELD_POS_Y_CENTER - (i16)g_Players[i].Y;
    00003B5F DD 6E E2         [19] 8931 	ld	l, -30 (ix)
    00003B62 DD 66 E3         [19] 8932 	ld	h, -29 (ix)
    00003B65 4E               [ 7] 8933 	ld	c, (hl)
    00003B66 23               [ 6] 8934 	inc	hl
    00003B67 46               [ 7] 8935 	ld	b, (hl)
    00003B68 3E F3            [ 7] 8936 	ld	a, #0xf3
    00003B6A 91               [ 4] 8937 	sub	a, c
    00003B6B DD 77 F5         [19] 8938 	ld	-11 (ix), a
    00003B6E 9F               [ 4] 8939 	sbc	a, a
    00003B6F 90               [ 4] 8940 	sub	a, b
    00003B70 DD 77 F6         [19] 8941 	ld	-10 (ix), a
                                   8942 ;E:\Dropbox\FAUSTO\SVILUPPI\MSX\CODE\C\MSXgl\projects\exsoccer/exsoccer_s22_b2.c:1496: if ((timer & 1) == 0) {
    00003B73 DD 7E E1         [19] 8943 	ld	a, -31 (ix)
    00003B76 DD B6 E0         [19] 8944 	or	a, -32 (ix)
    00003B79 20 72            [12] 8945 	jr	NZ, 00159$
                                   8946 ;E:\Dropbox\FAUSTO\SVILUPPI\MSX\CODE\C\MSXgl\projects\exsoccer/exsoccer_s22_b2.c:1497: if (dx > 0) g_Players[i].X++; else if (dx < 0) g_Players[i].X--;
    00003B7B 4B               [ 4] 8947 	ld	c, e
    00003B7C 42               [ 4] 8948 	ld	b, d
    00003B7D AF               [ 4] 8949 	xor	a, a
    00003B7E B9               [ 4] 8950 	cp	a, c
    00003B7F 98               [ 4] 8951 	sbc	a, b
    00003B80 E2r85r3B         [10] 8952 	jp	PO, 00408$
    00003B83 EE 80            [ 7] 8953 	xor	a, #0x80
    00003B85                       8954 00408$:
    00003B85 F2r9Br3B         [10] 8955 	jp	P, 00151$
    00003B88 DD 4E F7         [19] 8956 	ld	c, -9 (ix)
    00003B8B DD 46 F8         [19] 8957 	ld	b, -8 (ix)
    00003B8E 03               [ 6] 8958 	inc	bc
    00003B8F DD 6E E4         [19] 8959 	ld	l, -28 (ix)
    00003B92 DD 66 E5         [19] 8960 	ld	h, -27 (ix)
    00003B95 71               [ 7] 8961 	ld	(hl), c
    00003B96 23               [ 6] 8962 	inc	hl
    00003B97 70               [ 7] 8963 	ld	(hl), b
    00003B98 C3rAFr3B         [10] 8964 	jp	00152$
    00003B9B                       8965 00151$:
    00003B9B CB 78            [ 8] 8966 	bit	7, b
    00003B9D 28 10            [12] 8967 	jr	Z, 00152$
    00003B9F DD 4E F7         [19] 8968 	ld	c, -9 (ix)
    00003BA2 DD 46 F8         [19] 8969 	ld	b, -8 (ix)
    00003BA5 0B               [ 6] 8970 	dec	bc
    00003BA6 DD 6E E4         [19] 8971 	ld	l, -28 (ix)
    00003BA9 DD 66 E5         [19] 8972 	ld	h, -27 (ix)
    00003BAC 71               [ 7] 8973 	ld	(hl), c
    00003BAD 23               [ 6] 8974 	inc	hl
    00003BAE 70               [ 7] 8975 	ld	(hl), b
    00003BAF                       8976 00152$:
                                   8977 ;E:\Dropbox\FAUSTO\SVILUPPI\MSX\CODE\C\MSXgl\projects\exsoccer/exsoccer_s22_b2.c:1498: if (dy > 0) g_Players[i].Y++; else if (dy < 0) g_Players[i].Y--;
    00003BAF DD 4E F5         [19] 8978 	ld	c, -11 (ix)
    00003BB2 DD 46 F6         [19] 8979 	ld	b, -10 (ix)
    00003BB5 AF               [ 4] 8980 	xor	a, a
    00003BB6 B9               [ 4] 8981 	cp	a, c
    00003BB7 98               [ 4] 8982 	sbc	a, b
    00003BB8 E2rBDr3B         [10] 8983 	jp	PO, 00409$
    00003BBB EE 80            [ 7] 8984 	xor	a, #0x80
    00003BBD                       8985 00409$:
    00003BBD F2rD6r3B         [10] 8986 	jp	P, 00156$
    00003BC0 DD 6E E2         [19] 8987 	ld	l, -30 (ix)
    00003BC3 DD 66 E3         [19] 8988 	ld	h, -29 (ix)
    00003BC6 4E               [ 7] 8989 	ld	c, (hl)
    00003BC7 23               [ 6] 8990 	inc	hl
    00003BC8 46               [ 7] 8991 	ld	b, (hl)
    00003BC9 03               [ 6] 8992 	inc	bc
    00003BCA DD 6E E2         [19] 8993 	ld	l, -30 (ix)
    00003BCD DD 66 E3         [19] 8994 	ld	h, -29 (ix)
    00003BD0 71               [ 7] 8995 	ld	(hl), c
    00003BD1 23               [ 6] 8996 	inc	hl
    00003BD2 70               [ 7] 8997 	ld	(hl), b
    00003BD3 C3rEDr3B         [10] 8998 	jp	00159$
    00003BD6                       8999 00156$:
    00003BD6 CB 78            [ 8] 9000 	bit	7, b
    00003BD8 28 13            [12] 9001 	jr	Z, 00159$
    00003BDA DD 6E E2         [19] 9002 	ld	l, -30 (ix)
    00003BDD DD 66 E3         [19] 9003 	ld	h, -29 (ix)
    00003BE0 4E               [ 7] 9004 	ld	c, (hl)
    00003BE1 23               [ 6] 9005 	inc	hl
    00003BE2 46               [ 7] 9006 	ld	b, (hl)
    00003BE3 0B               [ 6] 9007 	dec	bc
    00003BE4 DD 6E E2         [19] 9008 	ld	l, -30 (ix)
    00003BE7 DD 66 E3         [19] 9009 	ld	h, -29 (ix)
    00003BEA 71               [ 7] 9010 	ld	(hl), c
    00003BEB 23               [ 6] 9011 	inc	hl
    00003BEC 70               [ 7] 9012 	ld	(hl), b
    00003BED                       9013 00159$:
                                   9014 ;E:\Dropbox\FAUSTO\SVILUPPI\MSX\CODE\C\MSXgl\projects\exsoccer/exsoccer_s22_b2.c:1502: if (Math_Abs32_Local(dx) > Math_Abs32_Local(dy)) {
    00003BED 4B               [ 4] 9015 	ld	c, e
    00003BEE 7A               [ 4] 9016 	ld	a, d
    00003BEF 47               [ 4] 9017 	ld	b, a
    00003BF0 07               [ 4] 9018 	rlca
    00003BF1 ED 62            [15] 9019 	sbc	hl, hl
    00003BF3 D5               [11] 9020 	push	de
    00003BF4 59               [ 4] 9021 	ld	e, c
    00003BF5 50               [ 4] 9022 	ld	d, b
    00003BF6 CDr11r1F         [17] 9023 	call	_Math_Abs32_Local
    00003BF9 DD 73 ED         [19] 9024 	ld	-19 (ix), e
    00003BFC DD 72 EE         [19] 9025 	ld	-18 (ix), d
    00003BFF DD 75 EF         [19] 9026 	ld	-17 (ix), l
    00003C02 DD 74 F0         [19] 9027 	ld	-16 (ix), h
    00003C05 D1               [10] 9028 	pop	de
    00003C06 DD 4E F5         [19] 9029 	ld	c, -11 (ix)
    00003C09 DD 7E F6         [19] 9030 	ld	a, -10 (ix)
    00003C0C 47               [ 4] 9031 	ld	b, a
    00003C0D 07               [ 4] 9032 	rlca
    00003C0E ED 62            [15] 9033 	sbc	hl, hl
    00003C10 D5               [11] 9034 	push	de
    00003C11 59               [ 4] 9035 	ld	e, c
    00003C12 50               [ 4] 9036 	ld	d, b
    00003C13 CDr11r1F         [17] 9037 	call	_Math_Abs32_Local
    00003C16 DD 73 F1         [19] 9038 	ld	-15 (ix), e
    00003C19 DD 72 F2         [19] 9039 	ld	-14 (ix), d
    00003C1C DD 75 F3         [19] 9040 	ld	-13 (ix), l
    00003C1F DD 74 F4         [19] 9041 	ld	-12 (ix), h
    00003C22 D1               [10] 9042 	pop	de
                                   9043 ;E:\Dropbox\FAUSTO\SVILUPPI\MSX\CODE\C\MSXgl\projects\exsoccer/exsoccer_s22_b2.c:1503: g_Players[i].Direction = (dx > 0) ? DIRECTION_RIGHT : DIRECTION_LEFT;
    00003C23 DD 7E E2         [19] 9044 	ld	a, -30 (ix)
    00003C26 C6 0A            [ 7] 9045 	add	a, #0x0a
    00003C28 4F               [ 4] 9046 	ld	c, a
    00003C29 DD 7E E3         [19] 9047 	ld	a, -29 (ix)
    00003C2C CE 00            [ 7] 9048 	adc	a, #0x00
    00003C2E 47               [ 4] 9049 	ld	b, a
                                   9050 ;E:\Dropbox\FAUSTO\SVILUPPI\MSX\CODE\C\MSXgl\projects\exsoccer/exsoccer_s22_b2.c:1502: if (Math_Abs32_Local(dx) > Math_Abs32_Local(dy)) {
    00003C2F DD 7E F1         [19] 9051 	ld	a, -15 (ix)
    00003C32 DD 96 ED         [19] 9052 	sub	a, -19 (ix)
    00003C35 DD 7E F2         [19] 9053 	ld	a, -14 (ix)
    00003C38 DD 9E EE         [19] 9054 	sbc	a, -18 (ix)
    00003C3B DD 7E F3         [19] 9055 	ld	a, -13 (ix)
    00003C3E DD 9E EF         [19] 9056 	sbc	a, -17 (ix)
    00003C41 DD 7E F4         [19] 9057 	ld	a, -12 (ix)
    00003C44 DD 9E F0         [19] 9058 	sbc	a, -16 (ix)
    00003C47 E2r4Cr3C         [10] 9059 	jp	PO, 00410$
    00003C4A EE 80            [ 7] 9060 	xor	a, #0x80
    00003C4C                       9061 00410$:
    00003C4C F2r68r3C         [10] 9062 	jp	P, 00161$
                                   9063 ;E:\Dropbox\FAUSTO\SVILUPPI\MSX\CODE\C\MSXgl\projects\exsoccer/exsoccer_s22_b2.c:1503: g_Players[i].Direction = (dx > 0) ? DIRECTION_RIGHT : DIRECTION_LEFT;
    00003C4F AF               [ 4] 9064 	xor	a, a
    00003C50 BB               [ 4] 9065 	cp	a, e
    00003C51 9A               [ 4] 9066 	sbc	a, d
    00003C52 E2r57r3C         [10] 9067 	jp	PO, 00411$
    00003C55 EE 80            [ 7] 9068 	xor	a, #0x80
    00003C57                       9069 00411$:
    00003C57 F2r60r3C         [10] 9070 	jp	P, 00194$
    00003C5A 11 03 00         [10] 9071 	ld	de, #0x0003
    00003C5D C3r63r3C         [10] 9072 	jp	00195$
    00003C60                       9073 00194$:
    00003C60 11 07 00         [10] 9074 	ld	de, #0x0007
    00003C63                       9075 00195$:
    00003C63 7B               [ 4] 9076 	ld	a, e
    00003C64 02               [ 7] 9077 	ld	(bc), a
    00003C65 C3r84r3C         [10] 9078 	jp	00162$
    00003C68                       9079 00161$:
                                   9080 ;E:\Dropbox\FAUSTO\SVILUPPI\MSX\CODE\C\MSXgl\projects\exsoccer/exsoccer_s22_b2.c:1505: g_Players[i].Direction = (dy > 0) ? DIRECTION_DOWN : DIRECTION_UP;
    00003C68 DD 5E F5         [19] 9081 	ld	e, -11 (ix)
    00003C6B DD 56 F6         [19] 9082 	ld	d, -10 (ix)
    00003C6E AF               [ 4] 9083 	xor	a, a
    00003C6F BB               [ 4] 9084 	cp	a, e
    00003C70 9A               [ 4] 9085 	sbc	a, d
    00003C71 E2r76r3C         [10] 9086 	jp	PO, 00412$
    00003C74 EE 80            [ 7] 9087 	xor	a, #0x80
    00003C76                       9088 00412$:
    00003C76 F2r7Fr3C         [10] 9089 	jp	P, 00196$
    00003C79 11 05 00         [10] 9090 	ld	de, #0x0005
    00003C7C C3r82r3C         [10] 9091 	jp	00197$
    00003C7F                       9092 00196$:
    00003C7F 11 01 00         [10] 9093 	ld	de, #0x0001
    00003C82                       9094 00197$:
    00003C82 7B               [ 4] 9095 	ld	a, e
    00003C83 02               [ 7] 9096 	ld	(bc), a
    00003C84                       9097 00162$:
                                   9098 ;E:\Dropbox\FAUSTO\SVILUPPI\MSX\CODE\C\MSXgl\projects\exsoccer/exsoccer_s22_b2.c:1508: g_Players[i].Status = PLAYER_STATUS_NONE; // Walking animation
    00003C84 DD 6E E2         [19] 9099 	ld	l, -30 (ix)
    00003C87 DD 66 E3         [19] 9100 	ld	h, -29 (ix)
    00003C8A 11 12 00         [10] 9101 	ld	de, #0x0012
    00003C8D 19               [11] 9102 	add	hl, de
    00003C8E AF               [ 4] 9103 	xor	a, a
    00003C8F 77               [ 7] 9104 	ld	(hl), a
    00003C90 23               [ 6] 9105 	inc	hl
    00003C91 77               [ 7] 9106 	ld	(hl), a
    00003C92                       9107 00166$:
                                   9108 ;E:\Dropbox\FAUSTO\SVILUPPI\MSX\CODE\C\MSXgl\projects\exsoccer/exsoccer_s22_b2.c:1412: for(u8 i=0; i<15; i++) { // Loop 0 to 14 (Includes Referee)
    00003C92 DD 34 FF         [23] 9109 	inc	-1 (ix)
    00003C95 C3rCAr35         [10] 9110 	jp	00181$
    00003C98                       9111 00167$:
                                   9112 ;E:\Dropbox\FAUSTO\SVILUPPI\MSX\CODE\C\MSXgl\projects\exsoccer/exsoccer_s22_b2.c:1512: UpdateSpritesPositions();
    00003C98 CDr00r00         [17] 9113 	call	_UpdateSpritesPositions
                                   9114 ;E:\Dropbox\FAUSTO\SVILUPPI\MSX\CODE\C\MSXgl\projects\exsoccer/exsoccer_s22_b2.c:1514: if (losersOnField == 0) {
    00003C9B DD 7E FE         [19] 9115 	ld	a, -2 (ix)
    00003C9E B7               [ 4] 9116 	or	a, a
    00003C9F 20 20            [12] 9117 	jr	NZ, 00171$
                                   9118 ;E:\Dropbox\FAUSTO\SVILUPPI\MSX\CODE\C\MSXgl\projects\exsoccer/exsoccer_s22_b2.c:1515: extraTime++;
    00003CA1 DD 34 FA         [23] 9119 	inc	-6 (ix)
    00003CA4 20 03            [12] 9120 	jr	NZ, 00413$
    00003CA6 DD 34 FB         [23] 9121 	inc	-5 (ix)
    00003CA9                       9122 00413$:
                                   9123 ;E:\Dropbox\FAUSTO\SVILUPPI\MSX\CODE\C\MSXgl\projects\exsoccer/exsoccer_s22_b2.c:1516: if (extraTime > 120) break; // 2 seconds after last exit
    00003CA9 DD 7E FA         [19] 9124 	ld	a, -6 (ix)
    00003CAC DD 77 FE         [19] 9125 	ld	-2 (ix), a
    00003CAF DD 7E FB         [19] 9126 	ld	a, -5 (ix)
    00003CB2 DD 77 FF         [19] 9127 	ld	-1 (ix), a
    00003CB5 3E 78            [ 7] 9128 	ld	a, #0x78
    00003CB7 DD BE FE         [19] 9129 	cp	a, -2 (ix)
    00003CBA 3E 00            [ 7] 9130 	ld	a, #0x00
    00003CBC DD 9E FF         [19] 9131 	sbc	a, -1 (ix)
    00003CBF 38 19            [12] 9132 	jr	C, 00176$
    00003CC1                       9133 00171$:
                                   9134 ;E:\Dropbox\FAUSTO\SVILUPPI\MSX\CODE\C\MSXgl\projects\exsoccer/exsoccer_s22_b2.c:1520: if (timer > 1200) break;
    00003CC1 DD 7E FC         [19] 9135 	ld	a, -4 (ix)
    00003CC4 DD 77 FE         [19] 9136 	ld	-2 (ix), a
    00003CC7 DD 7E FD         [19] 9137 	ld	a, -3 (ix)
    00003CCA DD 77 FF         [19] 9138 	ld	-1 (ix), a
    00003CCD 3E B0            [ 7] 9139 	ld	a, #0xb0
    00003CCF DD BE FE         [19] 9140 	cp	a, -2 (ix)
    00003CD2 3E 04            [ 7] 9141 	ld	a, #0x04
    00003CD4 DD 9E FF         [19] 9142 	sbc	a, -1 (ix)
    00003CD7 D2rABr35         [10] 9143 	jp	NC, 00175$
    00003CDA                       9144 00176$:
                                   9145 ;E:\Dropbox\FAUSTO\SVILUPPI\MSX\CODE\C\MSXgl\projects\exsoccer/exsoccer_s22_b2.c:1523: ShowMenu();
    00003CDA CDr00r00         [17] 9146 	call	_ShowMenu
                                   9147 ;E:\Dropbox\FAUSTO\SVILUPPI\MSX\CODE\C\MSXgl\projects\exsoccer/exsoccer_s22_b2.c:1524: }
    00003CDD DD F9            [10] 9148 	ld	sp, ix
    00003CDF DD E1            [14] 9149 	pop	ix
    00003CE1 C9               [10] 9150 	ret
                                   9151 	.area _SEG22
                                   9152 	.area _INITIALIZER
                                   9153 	.area _CABS (ABS)
